	.file	"aes_encrypt.c"
	.text
.Ltext0:
	.section	.text.unlikely.add_round_key,"ax",@progbits
.LCOLDB1:
	.section	.text.add_round_key,"ax",@progbits
.LHOTB1:
	.section	.text.unlikely.add_round_key
.Ltext_cold0:
	.section	.text.add_round_key
	.type	add_round_key, @function
add_round_key:
.LFB2:
	.file 1 "src/aes_encrypt.c"
	.loc 1 123 0
	.cfi_startproc
.LVL0:
	pushl	%ebp
	.cfi_def_cfa_offset 8
	.cfi_offset 5, -8
	.loc 1 124 0
	movb	3(%edx), %cl
	xorb	%cl, (%eax)
	movb	2(%edx), %cl
	xorb	%cl, 1(%eax)
	.loc 1 123 0
	movl	%esp, %ebp
	.cfi_def_cfa_register 5
	.loc 1 125 0
	movb	1(%edx), %cl
	xorb	%cl, 2(%eax)
	movl	(%edx), %ecx
	xorb	%cl, 3(%eax)
	.loc 1 126 0
	movzbl	7(%edx), %ecx
	xorb	%cl, 4(%eax)
	movzwl	6(%edx), %ecx
	xorb	%cl, 5(%eax)
	.loc 1 127 0
	movb	5(%edx), %cl
	xorb	%cl, 6(%eax)
	movl	4(%edx), %ecx
	xorb	%cl, 7(%eax)
	.loc 1 128 0
	movzbl	11(%edx), %ecx
	xorb	%cl, 8(%eax)
	movzwl	10(%edx), %ecx
	xorb	%cl, 9(%eax)
	.loc 1 129 0
	movb	9(%edx), %cl
	xorb	%cl, 10(%eax)
	movl	8(%edx), %ecx
	xorb	%cl, 11(%eax)
	.loc 1 130 0
	movzbl	15(%edx), %ecx
	xorb	%cl, 12(%eax)
	movzwl	14(%edx), %ecx
	xorb	%cl, 13(%eax)
	.loc 1 131 0
	movb	13(%edx), %cl
	xorb	%cl, 14(%eax)
	movl	12(%edx), %edx
.LVL1:
	.loc 1 132 0
	popl	%ebp
	.cfi_restore 5
	.cfi_def_cfa 4, 4
	.loc 1 131 0
	xorb	%dl, 15(%eax)
	.loc 1 132 0
	ret
	.cfi_endproc
.LFE2:
	.size	add_round_key, .-add_round_key
	.section	.text.unlikely.add_round_key
.LCOLDE1:
	.section	.text.add_round_key
.LHOTE1:
	.section	.text.unlikely.shift_rows,"ax",@progbits
.LCOLDB2:
	.section	.text.shift_rows,"ax",@progbits
.LHOTB2:
	.type	shift_rows, @function
shift_rows:
.LFB6:
	.loc 1 157 0
	.cfi_startproc
.LVL2:
	pushl	%ebp
	.cfi_def_cfa_offset 8
	.cfi_offset 5, -8
	movl	%esp, %ebp
	.cfi_def_cfa_register 5
	subl	$40, %esp
	.loc 1 159 0
	movb	(%eax), %dl
	.loc 1 157 0
	movl	%gs:20, %ecx
	movl	%ecx, -12(%ebp)
	xorl	%ecx, %ecx
	.loc 1 159 0
	movb	%dl, -28(%ebp)
	movb	5(%eax), %dl
	movb	%dl, -27(%ebp)
	movb	10(%eax), %dl
	movb	%dl, -26(%ebp)
	movb	15(%eax), %dl
	movb	%dl, -25(%ebp)
	.loc 1 160 0
	movb	4(%eax), %dl
	movb	%dl, -24(%ebp)
	movb	9(%eax), %dl
	movb	%dl, -23(%ebp)
	movb	14(%eax), %dl
	movb	%dl, -22(%ebp)
	movb	3(%eax), %dl
	movb	%dl, -21(%ebp)
	.loc 1 161 0
	movb	8(%eax), %dl
	movb	%dl, -20(%ebp)
	movb	13(%eax), %dl
	movb	%dl, -19(%ebp)
	movb	2(%eax), %dl
	movb	%dl, -18(%ebp)
	movb	7(%eax), %dl
	movb	%dl, -17(%ebp)
	.loc 1 162 0
	movb	12(%eax), %dl
	movb	%dl, -16(%ebp)
	movb	1(%eax), %dl
	movb	%dl, -15(%ebp)
	movb	6(%eax), %dl
	movb	%dl, -14(%ebp)
	movb	11(%eax), %dl
	.loc 1 163 0
	pushl	$16
	.loc 1 162 0
	movb	%dl, -13(%ebp)
	.loc 1 163 0
	leal	-28(%ebp), %edx
	pushl	%edx
	pushl	$16
	pushl	%eax
	call	_copy
.LVL3:
	.loc 1 164 0
	addl	$16, %esp
	movl	-12(%ebp), %eax
	xorl	%gs:20, %eax
	je	.L4
	call	__stack_chk_fail
.LVL4:
.L4:
	leave
	.cfi_restore 5
	.cfi_def_cfa 4, 4
	ret
	.cfi_endproc
.LFE6:
	.size	shift_rows, .-shift_rows
	.section	.text.unlikely.shift_rows
.LCOLDE2:
	.section	.text.shift_rows
.LHOTE2:
	.section	.text.unlikely.mult_row_column,"ax",@progbits
.LCOLDB3:
	.section	.text.mult_row_column,"ax",@progbits
.LHOTB3:
	.type	mult_row_column, @function
mult_row_column:
.LFB4:
	.loc 1 141 0
	.cfi_startproc
.LVL5:
	pushl	%ebp
	.cfi_def_cfa_offset 8
	.cfi_offset 5, -8
	movl	%esp, %ebp
	.cfi_def_cfa_register 5
	pushl	%edi
	pushl	%esi
	pushl	%ebx
	.cfi_offset 7, -12
	.cfi_offset 6, -16
	.cfi_offset 3, -20
	movl	%eax, %esi
	movl	%edx, %ebx
	subl	$40, %esp
	.loc 1 142 0
	movzbl	(%edx), %eax
.LVL6:
	pushl	%eax
	call	_double_byte
.LVL7:
	movl	%eax, %edi
	movzbl	1(%ebx), %eax
	movl	%eax, (%esp)
	call	_double_byte
.LVL8:
	movb	1(%ebx), %dl
	xorb	2(%ebx), %dl
	xorb	3(%ebx), %dl
	xorl	%edi, %edx
	xorl	%edx, %eax
	movb	%al, (%esi)
	.loc 1 143 0
	movzbl	1(%ebx), %eax
	movb	(%ebx), %dl
	movl	%eax, (%esp)
	movb	%dl, -25(%ebp)
	call	_double_byte
.LVL9:
	movl	%eax, %edi
	movzbl	2(%ebx), %eax
	movl	%eax, (%esp)
	call	_double_byte
.LVL10:
	movb	-25(%ebp), %dl
	xorb	2(%ebx), %dl
	xorb	3(%ebx), %dl
	xorl	%edi, %edx
	xorl	%edx, %eax
	movb	%al, 1(%esi)
	movb	(%ebx), %dl
	.loc 1 144 0
	movzbl	2(%ebx), %eax
	xorb	1(%ebx), %dl
	movl	%eax, (%esp)
	movb	%dl, -25(%ebp)
	call	_double_byte
.LVL11:
	movl	%eax, %edi
	movzbl	3(%ebx), %eax
	movl	%eax, (%esp)
	call	_double_byte
.LVL12:
	movb	-25(%ebp), %dl
	xorb	3(%ebx), %dl
	xorl	%edx, %edi
	xorl	%edi, %eax
	movb	%al, 2(%esi)
	.loc 1 145 0
	movzbl	(%ebx), %eax
	movl	%eax, (%esp)
	call	_double_byte
.LVL13:
	movb	(%ebx), %dl
	xorb	1(%ebx), %dl
	xorb	2(%ebx), %dl
	movl	%edx, %edi
	xorl	%eax, %edi
	movzbl	3(%ebx), %eax
	movl	%eax, (%esp)
	call	_double_byte
.LVL14:
	xorl	%edi, %eax
	.loc 1 146 0
	addl	$16, %esp
	.loc 1 145 0
	movb	%al, 3(%esi)
	.loc 1 146 0
	leal	-12(%ebp), %esp
	popl	%ebx
	.cfi_restore 3
.LVL15:
	popl	%esi
	.cfi_restore 6
.LVL16:
	popl	%edi
	.cfi_restore 7
	popl	%ebp
	.cfi_restore 5
	.cfi_def_cfa 4, 4
	ret
	.cfi_endproc
.LFE4:
	.size	mult_row_column, .-mult_row_column
	.section	.text.unlikely.mult_row_column
.LCOLDE3:
	.section	.text.mult_row_column
.LHOTE3:
	.section	.rodata
	.align 32
.LC0:
	.long	0
	.long	16777216
	.long	33554432
	.long	67108864
	.long	134217728
	.long	268435456
	.long	536870912
	.long	1073741824
	.long	-2147483648
	.long	452984832
	.long	905969664
	.section	.text.unlikely.tc_aes128_set_encrypt_key,"ax",@progbits
.LCOLDB4:
	.section	.text.tc_aes128_set_encrypt_key,"ax",@progbits
.LHOTB4:
	.globl	tc_aes128_set_encrypt_key
	.type	tc_aes128_set_encrypt_key, @function
tc_aes128_set_encrypt_key:
.LFB1:
	.loc 1 97 0
	.cfi_startproc
.LVL17:
	pushl	%ebp
	.cfi_def_cfa_offset 8
	.cfi_offset 5, -8
	.loc 1 98 0
	movl	$11, %ecx
	.loc 1 97 0
	movl	%esp, %ebp
	.cfi_def_cfa_register 5
	pushl	%edi
	pushl	%esi
	pushl	%ebx
	.cfi_offset 7, -12
	.cfi_offset 6, -16
	.cfi_offset 3, -20
	.loc 1 98 0
	movl	$.LC0, %esi
	.loc 1 97 0
	subl	$60, %esp
	.loc 1 97 0
	movl	8(%ebp), %edx
	movl	12(%ebp), %eax
	movl	%gs:20, %edi
	movl	%edi, -28(%ebp)
	xorl	%edi, %edi
	.loc 1 98 0
	leal	-72(%ebp), %edi
	.loc 1 106 0
	testl	%edx, %edx
	.loc 1 98 0
	rep movsl
	.loc 1 106 0
	je	.L15
	testl	%eax, %eax
	je	.L15
.L11:
.LVL18:
	.loc 1 110 0 discriminator 3
	movzbl	(%eax,%ecx,4), %esi
	movzbl	2(%eax,%ecx,4), %edi
	movl	%esi, %ebx
	movzbl	1(%eax,%ecx,4), %esi
	sall	$8, %edi
	sall	$24, %ebx
	sall	$16, %esi
	orl	%ebx, %esi
	movzbl	3(%eax,%ecx,4), %ebx
	orl	%ebx, %esi
	orl	%edi, %esi
	movl	%esi, (%edx,%ecx,4)
	.loc 1 109 0 discriminator 3
	incl	%ecx
.LVL19:
	cmpl	$4, %ecx
	jne	.L11
.L13:
	.loc 1 115 0
	testb	$3, %cl
	.loc 1 114 0
	movl	-4(%edx,%ecx,4), %eax
.LVL20:
	.loc 1 115 0
	jne	.L12
.LVL21:
.LBB10:
.LBB11:
	.loc 1 94 0
	roll	$8, %eax
.LVL22:
.LBE11:
.LBE10:
	.loc 1 116 0
	movl	%eax, %ebx
	shrl	$24, %ebx
	movzbl	sbox(%ebx), %edi
	movzbl	%al, %ebx
	movzbl	sbox(%ebx), %ebx
	sall	$24, %edi
	orl	%ebx, %edi
	movl	%eax, %ebx
	movzbl	%ah, %eax
	shrl	$16, %ebx
	movzbl	%bl, %esi
	movl	%ecx, %ebx
	movzbl	sbox(%esi), %esi
	shrl	$2, %ebx
	sall	$16, %esi
	orl	%esi, %edi
	movzbl	sbox(%eax), %esi
	movl	%edi, %eax
	sall	$8, %esi
	orl	%esi, %eax
	xorl	-72(%ebp,%ebx,4), %eax
.LVL23:
.L12:
	.loc 1 118 0
	xorl	-16(%edx,%ecx,4), %eax
.LVL24:
	movl	%eax, (%edx,%ecx,4)
	.loc 1 113 0
	incl	%ecx
.LVL25:
	cmpl	$44, %ecx
	jne	.L13
	.loc 1 120 0
	movl	$1, %eax
	jmp	.L10
.LVL26:
.L15:
	.loc 1 107 0
	xorl	%eax, %eax
.L10:
	.loc 1 121 0
	movl	-28(%ebp), %edx
	xorl	%gs:20, %edx
	je	.L14
	call	__stack_chk_fail
.LVL27:
.L14:
	addl	$60, %esp
	popl	%ebx
	.cfi_restore 3
	popl	%esi
	.cfi_restore 6
	popl	%edi
	.cfi_restore 7
	popl	%ebp
	.cfi_restore 5
	.cfi_def_cfa 4, 4
	ret
	.cfi_endproc
.LFE1:
	.size	tc_aes128_set_encrypt_key, .-tc_aes128_set_encrypt_key
	.section	.text.unlikely.tc_aes128_set_encrypt_key
.LCOLDE4:
	.section	.text.tc_aes128_set_encrypt_key
.LHOTE4:
	.section	.text.unlikely.tc_aes_encrypt,"ax",@progbits
.LCOLDB5:
	.section	.text.tc_aes_encrypt,"ax",@progbits
.LHOTB5:
	.globl	tc_aes_encrypt
	.type	tc_aes_encrypt, @function
tc_aes_encrypt:
.LFB7:
	.loc 1 166 0
	.cfi_startproc
.LVL28:
	pushl	%ebp
	.cfi_def_cfa_offset 8
	.cfi_offset 5, -8
	movl	%esp, %ebp
	.cfi_def_cfa_register 5
	pushl	%edi
	pushl	%esi
	pushl	%ebx
	subl	$76, %esp
	.cfi_offset 7, -12
	.cfi_offset 6, -16
	.cfi_offset 3, -20
	.loc 1 166 0
	movl	8(%ebp), %eax
	movl	16(%ebp), %esi
	movl	%gs:20, %edi
	movl	%edi, -28(%ebp)
	xorl	%edi, %edi
	movl	%eax, -76(%ebp)
	movl	12(%ebp), %eax
	.loc 1 173 0
	testl	%esi, %esi
	sete	%cl
	testl	%eax, %eax
	sete	%dl
	orb	%dl, %cl
	jne	.L26
	cmpl	$0, -76(%ebp)
	je	.L26
	.loc 1 176 0
	leal	-60(%ebp), %ebx
	pushl	$16
	pushl	%eax
	pushl	$16
	leal	16(%esi), %edi
	pushl	%ebx
	call	_copy
.LVL29:
	.loc 1 177 0
	movl	%ebx, %eax
	movl	%esi, %edx
	call	add_round_key
.LVL30:
	leal	160(%esi), %eax
	addl	$16, %esp
	movl	%eax, -80(%ebp)
.LVL31:
.L21:
	.loc 1 166 0
	xorl	%eax, %eax
.LVL32:
.L22:
.LBB18:
.LBB19:
	.loc 1 137 0
	movzbl	(%eax,%ebx), %edx
	.loc 1 136 0
	incl	%eax
.LVL33:
	.loc 1 137 0
	movb	sbox(%edx), %dl
	movb	%dl, -1(%eax,%ebx)
.LVL34:
	.loc 1 136 0
	cmpl	$16, %eax
	jne	.L22
.LVL35:
.LBE19:
.LBE18:
	.loc 1 180 0 discriminator 3
	movl	%ebx, %eax
	call	shift_rows
.LVL36:
.LBB20:
.LBB21:
	.loc 1 150 0 discriminator 3
	leal	-44(%ebp), %eax
	movl	%ebx, %edx
	call	mult_row_column
.LVL37:
	.loc 1 151 0 discriminator 3
	leal	-56(%ebp), %edx
	leal	-40(%ebp), %eax
	call	mult_row_column
.LVL38:
	.loc 1 152 0 discriminator 3
	leal	-52(%ebp), %edx
	leal	-36(%ebp), %eax
	call	mult_row_column
.LVL39:
	.loc 1 153 0 discriminator 3
	leal	-48(%ebp), %edx
	leal	-32(%ebp), %eax
	call	mult_row_column
.LVL40:
	.loc 1 154 0 discriminator 3
	leal	-44(%ebp), %eax
	pushl	$16
	pushl	%eax
	pushl	$16
	pushl	%ebx
	call	_copy
.LVL41:
.LBE21:
.LBE20:
	.loc 1 182 0 discriminator 3
	movl	%edi, %edx
	movl	%ebx, %eax
	addl	$16, %edi
	call	add_round_key
.LVL42:
	.loc 1 178 0 discriminator 3
	addl	$16, %esp
	cmpl	%edi, -80(%ebp)
	jne	.L21
	xorl	%eax, %eax
.L24:
.LVL43:
.LBB22:
.LBB23:
	.loc 1 137 0
	movzbl	-60(%ebp,%eax), %edx
	leal	-60(%ebp), %ebx
	movb	sbox(%edx), %dl
	movb	%dl, -60(%ebp,%eax)
	.loc 1 136 0
	incl	%eax
.LVL44:
	cmpl	$16, %eax
	jne	.L24
.LVL45:
.LBE23:
.LBE22:
	.loc 1 185 0
	movl	%ebx, %eax
	call	shift_rows
.LVL46:
	.loc 1 186 0
	leal	160(%esi), %edx
	movl	%ebx, %eax
	call	add_round_key
.LVL47:
	.loc 1 187 0
	pushl	$16
	pushl	%ebx
	pushl	$16
	pushl	-76(%ebp)
	call	_copy
.LVL48:
	.loc 1 188 0
	addl	$12, %esp
	pushl	$16
	pushl	$0
	pushl	%ebx
	call	_set
.LVL49:
	.loc 1 189 0
	addl	$16, %esp
	movl	$1, %eax
	jmp	.L20
.L26:
	.loc 1 174 0
	xorl	%eax, %eax
.L20:
	.loc 1 190 0
	movl	-28(%ebp), %edi
	xorl	%gs:20, %edi
	je	.L25
	call	__stack_chk_fail
.LVL50:
.L25:
	leal	-12(%ebp), %esp
	popl	%ebx
	.cfi_restore 3
	popl	%esi
	.cfi_restore 6
	popl	%edi
	.cfi_restore 7
	popl	%ebp
	.cfi_restore 5
	.cfi_def_cfa 4, 4
	ret
	.cfi_endproc
.LFE7:
	.size	tc_aes_encrypt, .-tc_aes_encrypt
	.section	.text.unlikely.tc_aes_encrypt
.LCOLDE5:
	.section	.text.tc_aes_encrypt
.LHOTE5:
	.section	.rodata.sbox,"a",@progbits
	.align 32
	.type	sbox, @object
	.size	sbox, 256
sbox:
	.byte	99
	.byte	124
	.byte	119
	.byte	123
	.byte	-14
	.byte	107
	.byte	111
	.byte	-59
	.byte	48
	.byte	1
	.byte	103
	.byte	43
	.byte	-2
	.byte	-41
	.byte	-85
	.byte	118
	.byte	-54
	.byte	-126
	.byte	-55
	.byte	125
	.byte	-6
	.byte	89
	.byte	71
	.byte	-16
	.byte	-83
	.byte	-44
	.byte	-94
	.byte	-81
	.byte	-100
	.byte	-92
	.byte	114
	.byte	-64
	.byte	-73
	.byte	-3
	.byte	-109
	.byte	38
	.byte	54
	.byte	63
	.byte	-9
	.byte	-52
	.byte	52
	.byte	-91
	.byte	-27
	.byte	-15
	.byte	113
	.byte	-40
	.byte	49
	.byte	21
	.byte	4
	.byte	-57
	.byte	35
	.byte	-61
	.byte	24
	.byte	-106
	.byte	5
	.byte	-102
	.byte	7
	.byte	18
	.byte	-128
	.byte	-30
	.byte	-21
	.byte	39
	.byte	-78
	.byte	117
	.byte	9
	.byte	-125
	.byte	44
	.byte	26
	.byte	27
	.byte	110
	.byte	90
	.byte	-96
	.byte	82
	.byte	59
	.byte	-42
	.byte	-77
	.byte	41
	.byte	-29
	.byte	47
	.byte	-124
	.byte	83
	.byte	-47
	.byte	0
	.byte	-19
	.byte	32
	.byte	-4
	.byte	-79
	.byte	91
	.byte	106
	.byte	-53
	.byte	-66
	.byte	57
	.byte	74
	.byte	76
	.byte	88
	.byte	-49
	.byte	-48
	.byte	-17
	.byte	-86
	.byte	-5
	.byte	67
	.byte	77
	.byte	51
	.byte	-123
	.byte	69
	.byte	-7
	.byte	2
	.byte	127
	.byte	80
	.byte	60
	.byte	-97
	.byte	-88
	.byte	81
	.byte	-93
	.byte	64
	.byte	-113
	.byte	-110
	.byte	-99
	.byte	56
	.byte	-11
	.byte	-68
	.byte	-74
	.byte	-38
	.byte	33
	.byte	16
	.byte	-1
	.byte	-13
	.byte	-46
	.byte	-51
	.byte	12
	.byte	19
	.byte	-20
	.byte	95
	.byte	-105
	.byte	68
	.byte	23
	.byte	-60
	.byte	-89
	.byte	126
	.byte	61
	.byte	100
	.byte	93
	.byte	25
	.byte	115
	.byte	96
	.byte	-127
	.byte	79
	.byte	-36
	.byte	34
	.byte	42
	.byte	-112
	.byte	-120
	.byte	70
	.byte	-18
	.byte	-72
	.byte	20
	.byte	-34
	.byte	94
	.byte	11
	.byte	-37
	.byte	-32
	.byte	50
	.byte	58
	.byte	10
	.byte	73
	.byte	6
	.byte	36
	.byte	92
	.byte	-62
	.byte	-45
	.byte	-84
	.byte	98
	.byte	-111
	.byte	-107
	.byte	-28
	.byte	121
	.byte	-25
	.byte	-56
	.byte	55
	.byte	109
	.byte	-115
	.byte	-43
	.byte	78
	.byte	-87
	.byte	108
	.byte	86
	.byte	-12
	.byte	-22
	.byte	101
	.byte	122
	.byte	-82
	.byte	8
	.byte	-70
	.byte	120
	.byte	37
	.byte	46
	.byte	28
	.byte	-90
	.byte	-76
	.byte	-58
	.byte	-24
	.byte	-35
	.byte	116
	.byte	31
	.byte	75
	.byte	-67
	.byte	-117
	.byte	-118
	.byte	112
	.byte	62
	.byte	-75
	.byte	102
	.byte	72
	.byte	3
	.byte	-10
	.byte	14
	.byte	97
	.byte	53
	.byte	87
	.byte	-71
	.byte	-122
	.byte	-63
	.byte	29
	.byte	-98
	.byte	-31
	.byte	-8
	.byte	-104
	.byte	17
	.byte	105
	.byte	-39
	.byte	-114
	.byte	-108
	.byte	-101
	.byte	30
	.byte	-121
	.byte	-23
	.byte	-50
	.byte	85
	.byte	40
	.byte	-33
	.byte	-116
	.byte	-95
	.byte	-119
	.byte	13
	.byte	-65
	.byte	-26
	.byte	66
	.byte	104
	.byte	65
	.byte	-103
	.byte	45
	.byte	15
	.byte	-80
	.byte	84
	.byte	-69
	.byte	22
	.text
.Letext0:
	.section	.text.unlikely.add_round_key
.Letext_cold0:
	.section	.note.GNU-stack,"",@progbits
