	.file	"ais_ota_port.c"
	.text
.Ltext0:
	.section	.text.unlikely.storage_clear,"ax",@progbits
.LCOLDB0:
	.section	.text.storage_clear,"ax",@progbits
.LHOTB0:
	.section	.text.unlikely.storage_clear
.Ltext_cold0:
	.section	.text.storage_clear
	.type	storage_clear, @function
storage_clear:
.LFB219:
	.file 1 "src/ais_ota_port.c"
	.loc 1 6231 0
	.cfi_startproc
.LVL0:
	pushl	%ebp
	.cfi_def_cfa_offset 8
	.cfi_offset 5, -8
	movl	%esp, %ebp
	.cfi_def_cfa_register 5
	.loc 1 6232 0
	popl	%ebp
	.cfi_restore 5
	.cfi_def_cfa 4, 4
	ret
	.cfi_endproc
.LFE219:
	.size	storage_clear, .-storage_clear
	.section	.text.unlikely.storage_clear
.LCOLDE0:
	.section	.text.storage_clear
.LHOTE0:
	.section	.text.unlikely.flash_event_handler_helper,"ax",@progbits
.LCOLDB1:
	.section	.text.flash_event_handler_helper,"ax",@progbits
.LHOTB1:
	.type	flash_event_handler_helper, @function
flash_event_handler_helper:
.LFB203:
	.loc 1 6080 0
	.cfi_startproc
.LVL1:
	pushl	%ebp
	.cfi_def_cfa_offset 8
	.cfi_offset 5, -8
	movl	flash_handler, %eax
	movl	%esp, %ebp
	.cfi_def_cfa_register 5
	.loc 1 6080 0
	movl	8(%ebp), %edx
	.loc 1 6081 0
	movl	(%edx), %ecx
	cmpl	$2, %ecx
	jne	.L4
	.loc 1 6081 0 is_stmt 0 discriminator 1
	cmpl	$0, 4(%edx)
	jne	.L5
	.loc 1 6082 0 is_stmt 1
	testl	%eax, %eax
	je	.L3
	.loc 1 6082 0 is_stmt 0 discriminator 1
	movl	$0, 8(%ebp)
.LVL2:
	jmp	.L17
.L4:
	.loc 1 6083 0 is_stmt 1
	decl	%ecx
	jne	.L5
	.loc 1 6083 0 is_stmt 0 discriminator 1
	cmpl	$0, 4(%edx)
	jne	.L5
.LVL3:
.LBB8:
.LBB9:
	.loc 1 6084 0 is_stmt 1
	testl	%eax, %eax
	je	.L3
	movl	$2, 8(%ebp)
	jmp	.L17
.LVL4:
.L5:
.LBE9:
.LBE8:
	.loc 1 6086 0
	testl	%eax, %eax
	je	.L3
	.loc 1 6086 0 is_stmt 0 discriminator 1
	movl	$255, 8(%ebp)
.L17:
	.loc 1 6088 0 is_stmt 1 discriminator 1
	popl	%ebp
	.cfi_remember_state
	.cfi_restore 5
	.cfi_def_cfa 4, 4
	.loc 1 6086 0 discriminator 1
	jmp	*%eax
.LVL5:
.L3:
	.cfi_restore_state
	.loc 1 6088 0
	popl	%ebp
	.cfi_restore 5
	.cfi_def_cfa 4, 4
	ret
	.cfi_endproc
.LFE203:
	.size	flash_event_handler_helper, .-flash_event_handler_helper
	.section	.text.unlikely.flash_event_handler_helper
.LCOLDE1:
	.section	.text.flash_event_handler_helper
.LHOTE1:
	.section	.rodata.str1.1,"aMS",@progbits,1
.LC2:
	.string	"%s: no valid mac read\r\n"
.LC3:
	.string	"%s: valid mac read - 0x%02x:0x%02x:0x%02x:0x%02x:0x%02x:0x%02x\r\n"
	.section	.text.unlikely.storage_read,"ax",@progbits
.LCOLDB4:
	.section	.text.storage_read,"ax",@progbits
.LHOTB4:
	.type	storage_read, @function
storage_read:
.LFB218:
	.loc 1 6213 0
	.cfi_startproc
.LVL6:
	pushl	%ebp
	.cfi_def_cfa_offset 8
	.cfi_offset 5, -8
	movl	%esp, %ebp
	.cfi_def_cfa_register 5
	subl	$8, %esp
	.loc 1 6215 0
	cmpw	$0, 12(%ebp)
	.loc 1 6213 0
	movl	16(%ebp), %eax
.LVL7:
	.loc 1 6215 0
	jne	.L24
	testl	%eax, %eax
	je	.L24
.LVL8:
.LBB12:
.LBB13:
	.loc 1 6217 0
	movb	s_dfu_settings+392, %dl
	cmpb	$-1, %dl
	jne	.L21
	cmpb	$-1, s_dfu_settings+393
	jne	.L22
	cmpb	$-1, s_dfu_settings+394
	jne	.L22
	cmpb	$-1, s_dfu_settings+395
	jne	.L22
	.loc 1 6218 0
	cmpb	$-1, s_dfu_settings+396
	jne	.L22
	cmpb	$-1, s_dfu_settings+397
	jmp	.L27
.L21:
	testb	%dl, %dl
	jne	.L22
	.loc 1 6219 0
	cmpb	$0, s_dfu_settings+393
	jne	.L22
	cmpb	$0, s_dfu_settings+394
	jne	.L22
	cmpb	$0, s_dfu_settings+395
	jne	.L22
	.loc 1 6220 0
	cmpb	$0, s_dfu_settings+396
	jne	.L22
	cmpb	$0, s_dfu_settings+397
.L27:
	jne	.L22
.LVL9:
	.loc 1 6221 0
	pushl	%eax
	pushl	%eax
	pushl	$__func__.7846
	pushl	$.LC2
	call	printf
.LVL10:
	addl	$16, %esp
	jmp	.L24
.LVL11:
.L22:
	.loc 1 6224 0
	movl	s_dfu_settings+392, %edx
	movl	%edx, 1(%eax)
	movl	s_dfu_settings+396, %edx
	movw	%dx, 5(%eax)
	.loc 1 6225 0
	movzbl	s_dfu_settings+397, %eax
.LVL12:
	pushl	%eax
	movzbl	s_dfu_settings+396, %eax
	pushl	%eax
	movzbl	s_dfu_settings+395, %eax
	pushl	%eax
	movzbl	s_dfu_settings+394, %eax
	pushl	%eax
	movzbl	s_dfu_settings+393, %eax
	pushl	%eax
	movzbl	s_dfu_settings+392, %eax
	pushl	%eax
	pushl	$__func__.7846
	pushl	$.LC3
	call	printf
.LVL13:
	addl	$32, %esp
	.loc 1 6227 0
	movl	$7, %eax
	jmp	.L20
.LVL14:
.L24:
.LBE13:
.LBE12:
	.loc 1 6215 0
	xorl	%eax, %eax
.L20:
	.loc 1 6229 0
	leave
	.cfi_restore 5
	.cfi_def_cfa 4, 4
	ret
	.cfi_endproc
.LFE218:
	.size	storage_read, .-storage_read
	.section	.text.unlikely.storage_read
.LCOLDE4:
	.section	.text.storage_read
.LHOTE4:
	.section	.rodata.str1.1
.LC5:
	.string	"Could not write the DFU settings page!"
.LC6:
	.string	"[%06d]<V> "
.LC7:
	.string	"\r\n"
	.section	.text.unlikely.ota_dfu_settings_write.part.4,"ax",@progbits
.LCOLDB8:
	.section	.text.ota_dfu_settings_write.part.4,"ax",@progbits
.LHOTB8:
	.type	ota_dfu_settings_write.part.4, @function
ota_dfu_settings_write.part.4:
.LFB227:
	.loc 1 6135 0
	.cfi_startproc
	pushl	%ebp
	.cfi_def_cfa_offset 8
	.cfi_offset 5, -8
	movl	%esp, %ebp
	.cfi_def_cfa_register 5
	pushl	%edi
	pushl	%esi
	.cfi_offset 7, -12
	.cfi_offset 6, -16
	.loc 1 6149 0
	leal	-412(%ebp), %edi
	.loc 1 6147 0
	movl	$s_dfu_settings, %esi
	.loc 1 6135 0
	subl	$416, %esp
	.loc 1 6135 0
	movl	%gs:20, %eax
	movl	%eax, -12(%ebp)
	xorl	%eax, %eax
	.loc 1 6147 0
	call	nrf_dfu_settings_crc_get
.LVL15:
	.loc 1 6149 0
	movl	$100, %ecx
	.loc 1 6147 0
	movl	%eax, s_dfu_settings
	.loc 1 6150 0
	leal	-412(%ebp), %eax
	.loc 1 6149 0
	rep movsl
	.loc 1 6150 0
	pushl	$0
	pushl	$400
	pushl	%eax
	pushl	$1044480
	call	nrf_dfu_flash_store
.LVL16:
	.loc 1 6155 0
	addl	$16, %esp
	xorl	%edx, %edx
	testl	%eax, %eax
	je	.L29
	.loc 1 6157 0
	call	aos_now_ms
.LVL17:
	pushl	%edx
	pushl	$.LC5
	pushl	%eax
	pushl	$.LC6
	call	csp_printf
.LVL18:
	movl	$.LC5, (%esp)
	call	csp_printf
.LVL19:
	movl	$.LC7, (%esp)
	call	csp_printf
.LVL20:
	addl	$16, %esp
	.loc 1 6158 0
	movl	$3, %edx
.L29:
	.loc 1 6161 0
	movl	-12(%ebp), %ecx
	xorl	%gs:20, %ecx
	movl	%edx, %eax
	je	.L30
	call	__stack_chk_fail
.LVL21:
.L30:
	leal	-8(%ebp), %esp
	popl	%esi
	.cfi_restore 6
	popl	%edi
	.cfi_restore 7
	popl	%ebp
	.cfi_restore 5
	.cfi_def_cfa 4, 4
	ret
	.cfi_endproc
.LFE227:
	.size	ota_dfu_settings_write.part.4, .-ota_dfu_settings_write.part.4
	.section	.text.unlikely.ota_dfu_settings_write.part.4
.LCOLDE8:
	.section	.text.ota_dfu_settings_write.part.4
.LHOTE8:
	.section	.text.unlikely.ais_ota_get_setting_fw_offset,"ax",@progbits
.LCOLDB9:
	.section	.text.ais_ota_get_setting_fw_offset,"ax",@progbits
.LHOTB9:
	.globl	ais_ota_get_setting_fw_offset
	.type	ais_ota_get_setting_fw_offset, @function
ais_ota_get_setting_fw_offset:
.LFB200:
	.loc 1 6068 0
	.cfi_startproc
	pushl	%ebp
	.cfi_def_cfa_offset 8
	.cfi_offset 5, -8
	.loc 1 6070 0
	movl	s_dfu_settings+116, %eax
	.loc 1 6068 0
	movl	%esp, %ebp
	.cfi_def_cfa_register 5
	.loc 1 6070 0
	popl	%ebp
	.cfi_restore 5
	.cfi_def_cfa 4, 4
	ret
	.cfi_endproc
.LFE200:
	.size	ais_ota_get_setting_fw_offset, .-ais_ota_get_setting_fw_offset
	.section	.text.unlikely.ais_ota_get_setting_fw_offset
.LCOLDE9:
	.section	.text.ais_ota_get_setting_fw_offset
.LHOTE9:
	.section	.text.unlikely.ais_ota_set_setting_fw_offset,"ax",@progbits
.LCOLDB10:
	.section	.text.ais_ota_set_setting_fw_offset,"ax",@progbits
.LHOTB10:
	.globl	ais_ota_set_setting_fw_offset
	.type	ais_ota_set_setting_fw_offset, @function
ais_ota_set_setting_fw_offset:
.LFB201:
	.loc 1 6072 0
	.cfi_startproc
.LVL22:
	pushl	%ebp
	.cfi_def_cfa_offset 8
	.cfi_offset 5, -8
	movl	%esp, %ebp
	.cfi_def_cfa_register 5
	.loc 1 6073 0
	movl	8(%ebp), %eax
	.loc 1 6074 0
	popl	%ebp
	.cfi_restore 5
	.cfi_def_cfa 4, 4
	.loc 1 6073 0
	movl	%eax, s_dfu_settings+116
	.loc 1 6074 0
	ret
	.cfi_endproc
.LFE201:
	.size	ais_ota_set_setting_fw_offset, .-ais_ota_set_setting_fw_offset
	.section	.text.unlikely.ais_ota_set_setting_fw_offset
.LCOLDE10:
	.section	.text.ais_ota_set_setting_fw_offset
.LHOTE10:
	.section	.text.unlikely.ais_ota_get_page_size,"ax",@progbits
.LCOLDB11:
	.section	.text.ais_ota_get_page_size,"ax",@progbits
.LHOTB11:
	.globl	ais_ota_get_page_size
	.type	ais_ota_get_page_size, @function
ais_ota_get_page_size:
.LFB202:
	.loc 1 6076 0
	.cfi_startproc
	pushl	%ebp
	.cfi_def_cfa_offset 8
	.cfi_offset 5, -8
	.loc 1 6078 0
	movl	$4096, %eax
	.loc 1 6076 0
	movl	%esp, %ebp
	.cfi_def_cfa_register 5
	.loc 1 6078 0
	popl	%ebp
	.cfi_restore 5
	.cfi_def_cfa 4, 4
	ret
	.cfi_endproc
.LFE202:
	.size	ais_ota_get_page_size, .-ais_ota_get_page_size
	.section	.text.unlikely.ais_ota_get_page_size
.LCOLDE11:
	.section	.text.ais_ota_get_page_size
.LHOTE11:
	.section	.text.unlikely.ais_ota_flash_erase,"ax",@progbits
.LCOLDB12:
	.section	.text.ais_ota_flash_erase,"ax",@progbits
.LHOTB12:
	.globl	ais_ota_flash_erase
	.type	ais_ota_flash_erase, @function
ais_ota_flash_erase:
.LFB204:
	.loc 1 6090 0
	.cfi_startproc
.LVL23:
	pushl	%ebp
	.cfi_def_cfa_offset 8
	.cfi_offset 5, -8
	movl	%esp, %ebp
	.cfi_def_cfa_register 5
	subl	$12, %esp
	.loc 1 6092 0
	movl	16(%ebp), %eax
	.loc 1 6093 0
	pushl	$flash_event_handler_helper
	pushl	12(%ebp)
	pushl	8(%ebp)
	.loc 1 6092 0
	movl	%eax, flash_handler
	.loc 1 6093 0
	call	nrf_dfu_flash_erase
.LVL24:
	.loc 1 6094 0
	addl	$16, %esp
	testl	%eax, %eax
	setne	%al
.LVL25:
	.loc 1 6095 0
	leave
	.cfi_restore 5
	.cfi_def_cfa 4, 4
	.loc 1 6094 0
	movzbl	%al, %eax
	.loc 1 6095 0
	ret
	.cfi_endproc
.LFE204:
	.size	ais_ota_flash_erase, .-ais_ota_flash_erase
	.section	.text.unlikely.ais_ota_flash_erase
.LCOLDE12:
	.section	.text.ais_ota_flash_erase
.LHOTE12:
	.section	.text.unlikely.ais_ota_flash_store,"ax",@progbits
.LCOLDB13:
	.section	.text.ais_ota_flash_store,"ax",@progbits
.LHOTB13:
	.globl	ais_ota_flash_store
	.type	ais_ota_flash_store, @function
ais_ota_flash_store:
.LFB205:
	.loc 1 6097 0
	.cfi_startproc
.LVL26:
	pushl	%ebp
	.cfi_def_cfa_offset 8
	.cfi_offset 5, -8
	movl	%esp, %ebp
	.cfi_def_cfa_register 5
	subl	$8, %esp
	.loc 1 6099 0
	movl	20(%ebp), %eax
	.loc 1 6100 0
	pushl	$flash_event_handler_helper
	.loc 1 6099 0
	movl	%eax, flash_handler
	.loc 1 6100 0
	movzwl	16(%ebp), %eax
	pushl	%eax
	pushl	12(%ebp)
	pushl	8(%ebp)
	call	nrf_dfu_flash_store
.LVL27:
	.loc 1 6101 0
	addl	$16, %esp
	testl	%eax, %eax
	setne	%al
.LVL28:
	.loc 1 6102 0
	leave
	.cfi_restore 5
	.cfi_def_cfa 4, 4
	.loc 1 6101 0
	movzbl	%al, %eax
	.loc 1 6102 0
	ret
	.cfi_endproc
.LFE205:
	.size	ais_ota_flash_store, .-ais_ota_flash_store
	.section	.text.unlikely.ais_ota_flash_store
.LCOLDE13:
	.section	.text.ais_ota_flash_store
.LHOTE13:
	.section	.text.unlikely.ais_ota_flash_init,"ax",@progbits
.LCOLDB14:
	.section	.text.ais_ota_flash_init,"ax",@progbits
.LHOTB14:
	.globl	ais_ota_flash_init
	.type	ais_ota_flash_init, @function
ais_ota_flash_init:
.LFB206:
	.loc 1 6104 0
	.cfi_startproc
	.loc 1 6106 0
	cmpb	$0, flash_inited.7797
	jne	.L49
	.loc 1 6104 0
	pushl	%ebp
	.cfi_def_cfa_offset 8
	.cfi_offset 5, -8
	movl	%esp, %ebp
	.cfi_def_cfa_register 5
	subl	$20, %esp
.LBB16:
.LBB17:
	.loc 1 6107 0
	pushl	$0
	call	nrf_dfu_flash_init
.LVL29:
	.loc 1 6110 0
	movb	$1, flash_inited.7797
	addl	$16, %esp
.LBE17:
.LBE16:
	.loc 1 6112 0
	leave
	.cfi_restore 5
	.cfi_def_cfa 4, 4
.L49:
	ret
	.cfi_endproc
.LFE206:
	.size	ais_ota_flash_init, .-ais_ota_flash_init
	.section	.text.unlikely.ais_ota_flash_init
.LCOLDE14:
	.section	.text.ais_ota_flash_init
.LHOTE14:
	.section	.text.unlikely.ais_ota_settings_init,"ax",@progbits
.LCOLDB15:
	.section	.text.ais_ota_settings_init,"ax",@progbits
.LHOTB15:
	.globl	ais_ota_settings_init
	.type	ais_ota_settings_init, @function
ais_ota_settings_init:
.LFB207:
	.loc 1 6114 0
	.cfi_startproc
	.loc 1 6116 0
	cmpb	$0, settings_inited.7800
	jne	.L54
	.loc 1 6114 0
	pushl	%ebp
	.cfi_def_cfa_offset 8
	.cfi_offset 5, -8
	movl	%esp, %ebp
	.cfi_def_cfa_register 5
	subl	$20, %esp
.LBB20:
.LBB21:
	.loc 1 6117 0
	pushl	$0
	call	nrf_dfu_settings_init
.LVL30:
	.loc 1 6120 0
	movb	$1, settings_inited.7800
	addl	$16, %esp
.LBE21:
.LBE20:
	.loc 1 6122 0
	leave
	.cfi_restore 5
	.cfi_def_cfa 4, 4
.L54:
	ret
	.cfi_endproc
.LFE207:
	.size	ais_ota_settings_init, .-ais_ota_settings_init
	.section	.text.unlikely.ais_ota_settings_init
.LCOLDE15:
	.section	.text.ais_ota_settings_init
.LHOTE15:
	.section	.text.unlikely.ais_ota_get_dst_addr,"ax",@progbits
.LCOLDB16:
	.section	.text.ais_ota_get_dst_addr,"ax",@progbits
.LHOTB16:
	.globl	ais_ota_get_dst_addr
	.type	ais_ota_get_dst_addr, @function
ais_ota_get_dst_addr:
.LFB208:
	.loc 1 6124 0
	.cfi_startproc
	.loc 1 6125 0
	movl	s_dfu_settings+36, %eax
	.loc 1 6124 0
	pushl	%ebp
	.cfi_def_cfa_offset 8
	.cfi_offset 5, -8
	movl	%esp, %ebp
	.cfi_def_cfa_register 5
	.loc 1 6125 0
	addl	$4095, %eax
	andl	$-4096, %eax
	addl	$69632, %eax
	.loc 1 6126 0
	popl	%ebp
	.cfi_restore 5
	.cfi_def_cfa 4, 4
	ret
	.cfi_endproc
.LFE208:
	.size	ais_ota_get_dst_addr, .-ais_ota_get_dst_addr
	.section	.text.unlikely.ais_ota_get_dst_addr
.LCOLDE16:
	.section	.text.ais_ota_get_dst_addr
.LHOTE16:
	.section	.rodata.str1.1
.LC17:
	.string	"Writing settings..."
.LC18:
	.string	"Could not erase the settings page!"
	.section	.text.unlikely.ota_dfu_settings_write,"ax",@progbits
.LCOLDB19:
	.section	.text.ota_dfu_settings_write,"ax",@progbits
.LHOTB19:
	.globl	ota_dfu_settings_write
	.type	ota_dfu_settings_write, @function
ota_dfu_settings_write:
.LFB210:
	.loc 1 6136 0
	.cfi_startproc
	pushl	%ebp
	.cfi_def_cfa_offset 8
	.cfi_offset 5, -8
	movl	%esp, %ebp
	.cfi_def_cfa_register 5
	subl	$8, %esp
	.loc 1 6138 0
	call	aos_now_ms
.LVL31:
	pushl	%edx
	pushl	$.LC17
	pushl	%eax
	pushl	$.LC6
	call	csp_printf
.LVL32:
	movl	$.LC17, (%esp)
	call	csp_printf
.LVL33:
	movl	$.LC7, (%esp)
	call	csp_printf
.LVL34:
	.loc 1 6139 0
	addl	$12, %esp
	pushl	$0
	pushl	$1
	pushl	$1044480
	call	nrf_dfu_flash_erase
.LVL35:
	.loc 1 6142 0
	addl	$16, %esp
	testl	%eax, %eax
	jne	.L61
	.loc 1 6161 0
	leave
	.cfi_remember_state
	.cfi_restore 5
	.cfi_def_cfa 4, 4
	jmp	ota_dfu_settings_write.part.4
.LVL36:
.L61:
	.cfi_restore_state
	.loc 1 6144 0 discriminator 1
	call	aos_now_ms
.LVL37:
	pushl	%edx
	pushl	$.LC18
	pushl	%eax
	pushl	$.LC6
	call	csp_printf
.LVL38:
	movl	$.LC18, (%esp)
	call	csp_printf
.LVL39:
	movl	$.LC7, (%esp)
	call	csp_printf
.LVL40:
	.loc 1 6145 0 discriminator 1
	addl	$16, %esp
	.loc 1 6161 0 discriminator 1
	movl	$3, %eax
	leave
	.cfi_restore 5
	.cfi_def_cfa 4, 4
	ret
	.cfi_endproc
.LFE210:
	.size	ota_dfu_settings_write, .-ota_dfu_settings_write
	.section	.text.unlikely.ota_dfu_settings_write
.LCOLDE19:
	.section	.text.ota_dfu_settings_write
.LHOTE19:
	.section	.rodata.str1.1
.LC20:
	.string	"%s failed.\r\n"
	.section	.text.unlikely.storage_write,"ax",@progbits
.LCOLDB21:
	.section	.text.storage_write,"ax",@progbits
.LHOTB21:
	.type	storage_write, @function
storage_write:
.LFB217:
	.loc 1 6200 0
	.cfi_startproc
.LVL41:
	pushl	%ebp
	.cfi_def_cfa_offset 8
	.cfi_offset 5, -8
	.loc 1 6203 0
	movl	$s_dfu_settings+392, %eax
	.loc 1 6200 0
	movl	%esp, %ebp
	.cfi_def_cfa_register 5
.LVL42:
	pushl	%edi
	.cfi_offset 7, -12
	.loc 1 6203 0
	movl	%eax, %edi
	movl	16(%ebp), %ecx
	.loc 1 6200 0
	pushl	%esi
	.cfi_offset 6, -16
	.loc 1 6203 0
	leal	1(%ecx), %esi
	movl	$7, %ecx
	rep movsb
	.loc 1 6204 0
	call	ota_dfu_settings_write
.LVL43:
	.loc 1 6205 0
	testl	%eax, %eax
	movl	$7, %edx
	je	.L64
.LVL44:
.LVL45:
.LBB24:
.LBB25:
	.loc 1 6206 0
	pushl	%eax
	pushl	%eax
	pushl	$__func__.7838
	pushl	$.LC20
	call	printf
.LVL46:
	addl	$16, %esp
	xorl	%edx, %edx
.L64:
.LBE25:
.LBE24:
	.loc 1 6210 0
	leal	-8(%ebp), %esp
	movl	%edx, %eax
	popl	%esi
	.cfi_restore 6
	popl	%edi
	.cfi_restore 7
	popl	%ebp
	.cfi_restore 5
	.cfi_def_cfa 4, 4
	ret
	.cfi_endproc
.LFE217:
	.size	storage_write, .-storage_write
	.section	.text.unlikely.storage_write
.LCOLDE21:
	.section	.text.storage_write
.LHOTE21:
	.section	.text.unlikely.ais_ota_settings_write,"ax",@progbits
.LCOLDB22:
	.section	.text.ais_ota_settings_write,"ax",@progbits
.LHOTB22:
	.globl	ais_ota_settings_write
	.type	ais_ota_settings_write, @function
ais_ota_settings_write:
.LFB211:
	.loc 1 6163 0
	.cfi_startproc
.LVL47:
	pushl	%ebp
	.cfi_def_cfa_offset 8
	.cfi_offset 5, -8
	movl	%esp, %ebp
	.cfi_def_cfa_register 5
	subl	$8, %esp
	.loc 1 6166 0
	call	ota_dfu_settings_write
.LVL48:
	.loc 1 6167 0
	testl	%eax, %eax
	.loc 1 6168 0
	leave
	.cfi_restore 5
	.cfi_def_cfa 4, 4
	.loc 1 6167 0
	setne	%al
.LVL49:
	movzbl	%al, %eax
	.loc 1 6168 0
	ret
	.cfi_endproc
.LFE211:
	.size	ais_ota_settings_write, .-ais_ota_settings_write
	.section	.text.unlikely.ais_ota_settings_write
.LCOLDE22:
	.section	.text.ais_ota_settings_write
.LHOTE22:
	.section	.text.unlikely.ais_ota_check_if_resume,"ax",@progbits
.LCOLDB23:
	.section	.text.ais_ota_check_if_resume,"ax",@progbits
.LHOTB23:
	.globl	ais_ota_check_if_resume
	.type	ais_ota_check_if_resume, @function
ais_ota_check_if_resume:
.LFB212:
	.loc 1 6171 0
	.cfi_startproc
.LVL50:
	pushl	%ebp
	.cfi_def_cfa_offset 8
	.cfi_offset 5, -8
	movl	%esp, %ebp
	.cfi_def_cfa_register 5
	subl	$12, %esp
	.loc 1 6172 0
	movzwl	12(%ebp), %eax
	pushl	%eax
	pushl	8(%ebp)
	pushl	$s_dfu_settings+129
	call	memcmp
.LVL51:
	addl	$16, %esp
	testl	%eax, %eax
	sete	%al
	.loc 1 6173 0
	leave
	.cfi_restore 5
	.cfi_def_cfa 4, 4
	ret
	.cfi_endproc
.LFE212:
	.size	ais_ota_check_if_resume, .-ais_ota_check_if_resume
	.section	.text.unlikely.ais_ota_check_if_resume
.LCOLDE23:
	.section	.text.ais_ota_check_if_resume
.LHOTE23:
	.section	.text.unlikely.ais_ota_update_fw_version,"ax",@progbits
.LCOLDB24:
	.section	.text.ais_ota_update_fw_version,"ax",@progbits
.LHOTB24:
	.globl	ais_ota_update_fw_version
	.type	ais_ota_update_fw_version, @function
ais_ota_update_fw_version:
.LFB213:
	.loc 1 6175 0
	.cfi_startproc
.LVL52:
	pushl	%ebp
	.cfi_def_cfa_offset 8
	.cfi_offset 5, -8
	.loc 1 6176 0
	movl	$s_dfu_settings+129, %eax
	.loc 1 6175 0
	movl	%esp, %ebp
	.cfi_def_cfa_register 5
	pushl	%edi
	.cfi_offset 7, -12
	.loc 1 6176 0
	movl	%eax, %edi
	movzwl	12(%ebp), %ecx
	.loc 1 6175 0
	pushl	%esi
	.cfi_offset 6, -16
	.loc 1 6175 0
	movl	8(%ebp), %esi
	.loc 1 6176 0
	rep movsb
	.loc 1 6177 0
	popl	%esi
	.cfi_restore 6
	popl	%edi
	.cfi_restore 7
	popl	%ebp
	.cfi_restore 5
	.cfi_def_cfa 4, 4
	ret
	.cfi_endproc
.LFE213:
	.size	ais_ota_update_fw_version, .-ais_ota_update_fw_version
	.section	.text.unlikely.ais_ota_update_fw_version
.LCOLDE24:
	.section	.text.ais_ota_update_fw_version
.LHOTE24:
	.section	.text.unlikely.ais_ota_check_if_update_finished,"ax",@progbits
.LCOLDB25:
	.section	.text.ais_ota_check_if_update_finished,"ax",@progbits
.LHOTB25:
	.globl	ais_ota_check_if_update_finished
	.type	ais_ota_check_if_update_finished, @function
ais_ota_check_if_update_finished:
.LFB214:
	.loc 1 6180 0
	.cfi_startproc
	.loc 1 6181 0
	cmpb	$-85, s_dfu_settings+128
	.loc 1 6180 0
	pushl	%ebp
	.cfi_def_cfa_offset 8
	.cfi_offset 5, -8
	movl	%esp, %ebp
	.cfi_def_cfa_register 5
	.loc 1 6182 0
	popl	%ebp
	.cfi_restore 5
	.cfi_def_cfa 4, 4
	.loc 1 6181 0
	sete	%al
	.loc 1 6182 0
	ret
	.cfi_endproc
.LFE214:
	.size	ais_ota_check_if_update_finished, .-ais_ota_check_if_update_finished
	.section	.text.unlikely.ais_ota_check_if_update_finished
.LCOLDE25:
	.section	.text.ais_ota_check_if_update_finished
.LHOTE25:
	.section	.text.unlikely.ais_ota_update_settings_after_update_finished,"ax",@progbits
.LCOLDB26:
	.section	.text.ais_ota_update_settings_after_update_finished,"ax",@progbits
.LHOTB26:
	.globl	ais_ota_update_settings_after_update_finished
	.type	ais_ota_update_settings_after_update_finished, @function
ais_ota_update_settings_after_update_finished:
.LFB215:
	.loc 1 6184 0
	.cfi_startproc
	pushl	%ebp
	.cfi_def_cfa_offset 8
	.cfi_offset 5, -8
	.loc 1 6186 0
	movl	$s_dfu_settings+129, %edx
	movl	$15, %ecx
	movb	$-1, %al
	.loc 1 6185 0
	movb	$-1, s_dfu_settings+128
	.loc 1 6187 0
	movl	$0, s_dfu_settings+116
	.loc 1 6184 0
	movl	%esp, %ebp
	.cfi_def_cfa_register 5
	pushl	%edi
	.cfi_offset 7, -12
	.loc 1 6186 0
	movl	%edx, %edi
	rep stosb
	.loc 1 6188 0
	popl	%edi
	.cfi_restore 7
	popl	%ebp
	.cfi_restore 5
	.cfi_def_cfa 4, 4
	ret
	.cfi_endproc
.LFE215:
	.size	ais_ota_update_settings_after_update_finished, .-ais_ota_update_settings_after_update_finished
	.section	.text.unlikely.ais_ota_update_settings_after_update_finished
.LCOLDE26:
	.section	.text.ais_ota_update_settings_after_update_finished
.LHOTE26:
	.section	.text.unlikely.ais_ota_update_setting_after_xfer_finished,"ax",@progbits
.LCOLDB27:
	.section	.text.ais_ota_update_setting_after_xfer_finished,"ax",@progbits
.LHOTB27:
	.globl	ais_ota_update_setting_after_xfer_finished
	.type	ais_ota_update_setting_after_xfer_finished, @function
ais_ota_update_setting_after_xfer_finished:
.LFB216:
	.loc 1 6190 0
	.cfi_startproc
.LVL53:
	pushl	%ebp
	.cfi_def_cfa_offset 8
	.cfi_offset 5, -8
	.loc 1 6192 0
	movl	$1, s_dfu_settings+28
	.loc 1 6194 0
	movl	$1, s_dfu_settings+68
	.loc 1 6190 0
	movl	%esp, %ebp
	.cfi_def_cfa_register 5
	.loc 1 6193 0
	movl	8(%ebp), %eax
	movl	%eax, s_dfu_settings+60
	.loc 1 6195 0
	movl	12(%ebp), %eax
	.loc 1 6197 0
	popl	%ebp
	.cfi_restore 5
	.cfi_def_cfa 4, 4
	.loc 1 6195 0
	movl	%eax, s_dfu_settings+64
	.loc 1 6197 0
	ret
	.cfi_endproc
.LFE216:
	.size	ais_ota_update_setting_after_xfer_finished, .-ais_ota_update_setting_after_xfer_finished
	.section	.text.unlikely.ais_ota_update_setting_after_xfer_finished
.LCOLDE27:
	.section	.text.ais_ota_update_setting_after_xfer_finished
.LHOTE27:
	.section	.text.unlikely.ais_ota_bt_storage_init,"ax",@progbits
.LCOLDB28:
	.section	.text.ais_ota_bt_storage_init,"ax",@progbits
.LHOTB28:
	.globl	ais_ota_bt_storage_init
	.type	ais_ota_bt_storage_init, @function
ais_ota_bt_storage_init:
.LFB220:
	.loc 1 6234 0
	.cfi_startproc
	pushl	%ebp
	.cfi_def_cfa_offset 8
	.cfi_offset 5, -8
	movl	%esp, %ebp
	.cfi_def_cfa_register 5
	subl	$8, %esp
	.loc 1 6240 0
	call	ais_ota_flash_init
.LVL54:
	.loc 1 6241 0
	call	ais_ota_settings_init
.LVL55:
	.loc 1 6242 0
	subl	$12, %esp
	pushl	$storage.7853
	call	bt_storage_register
.LVL56:
	.loc 1 6244 0
	xorl	%eax, %eax
	leave
	.cfi_restore 5
	.cfi_def_cfa 4, 4
	ret
	.cfi_endproc
.LFE220:
	.size	ais_ota_bt_storage_init, .-ais_ota_bt_storage_init
	.section	.text.unlikely.ais_ota_bt_storage_init
.LCOLDE28:
	.section	.text.ais_ota_bt_storage_init
.LHOTE28:
	.section	.rodata.str1.1
.LC29:
	.string	"Failed to get ble local address.\r"
	.section	.text.unlikely.ais_ota_get_local_addr,"ax",@progbits
.LCOLDB30:
	.section	.text.ais_ota_get_local_addr,"ax",@progbits
.LHOTB30:
	.globl	ais_ota_get_local_addr
	.type	ais_ota_get_local_addr, @function
ais_ota_get_local_addr:
.LFB221:
	.loc 1 6246 0
	.cfi_startproc
.LVL57:
	pushl	%ebp
	.cfi_def_cfa_offset 8
	.cfi_offset 5, -8
	movl	%esp, %ebp
	.cfi_def_cfa_register 5
	pushl	%edi
	pushl	%esi
	pushl	%ebx
	subl	$28, %esp
	.cfi_offset 7, -12
	.cfi_offset 6, -16
	.cfi_offset 3, -20
	.loc 1 6246 0
	movl	8(%ebp), %ebx
	movl	%gs:20, %eax
	movl	%eax, -28(%ebp)
	xorl	%eax, %eax
	.loc 1 6248 0
	testl	%ebx, %ebx
	je	.L83
	.loc 1 6249 0
	leal	-35(%ebp), %esi
	subl	$12, %esp
	pushl	%esi
	call	bt_le_oob_get_local
.LVL58:
	addl	$16, %esp
	testl	%eax, %eax
	je	.L85
	.loc 1 6250 0
	subl	$12, %esp
	pushl	$.LC29
	call	puts
.LVL59:
	.loc 1 6251 0
	addl	$16, %esp
	orl	$-1, %eax
	jmp	.L83
.L85:
	.loc 1 6253 0
	movl	$7, %ecx
	movl	%ebx, %edi
	rep movsb
.L83:
	.loc 1 6255 0
	movl	-28(%ebp), %edx
	xorl	%gs:20, %edx
	je	.L87
	call	__stack_chk_fail
.LVL60:
.L87:
	leal	-12(%ebp), %esp
	popl	%ebx
	.cfi_restore 3
	popl	%esi
	.cfi_restore 6
	popl	%edi
	.cfi_restore 7
	popl	%ebp
	.cfi_restore 5
	.cfi_def_cfa 4, 4
	ret
	.cfi_endproc
.LFE221:
	.size	ais_ota_get_local_addr, .-ais_ota_get_local_addr
	.section	.text.unlikely.ais_ota_get_local_addr
.LCOLDE30:
	.section	.text.ais_ota_get_local_addr
.LHOTE30:
	.section	.text.unlikely.ais_ota_check_if_bins_supported,"ax",@progbits
.LCOLDB31:
	.section	.text.ais_ota_check_if_bins_supported,"ax",@progbits
.LHOTB31:
	.globl	ais_ota_check_if_bins_supported
	.type	ais_ota_check_if_bins_supported, @function
ais_ota_check_if_bins_supported:
.LFB222:
	.loc 1 6258 0
	.cfi_startproc
	.loc 1 6259 0
	cmpl	$1, s_dfu_settings+4
	.loc 1 6258 0
	pushl	%ebp
	.cfi_def_cfa_offset 8
	.cfi_offset 5, -8
	movl	%esp, %ebp
	.cfi_def_cfa_register 5
	.loc 1 6264 0
	popl	%ebp
	.cfi_restore 5
	.cfi_def_cfa 4, 4
	.loc 1 6259 0
	sete	%al
	.loc 1 6264 0
	ret
	.cfi_endproc
.LFE222:
	.size	ais_ota_check_if_bins_supported, .-ais_ota_check_if_bins_supported
	.section	.text.unlikely.ais_ota_check_if_bins_supported
.LCOLDE31:
	.section	.text.ais_ota_check_if_bins_supported
.LHOTE31:
	.section	.rodata.__func__.7846,"a",@progbits
	.align 4
	.type	__func__.7846, @object
	.size	__func__.7846, 13
__func__.7846:
	.string	"storage_read"
	.section	.rodata.__func__.7838,"a",@progbits
	.align 4
	.type	__func__.7838, @object
	.size	__func__.7838, 14
__func__.7838:
	.string	"storage_write"
	.section	.rodata.storage.7853,"a",@progbits
	.align 4
	.type	storage.7853, @object
	.size	storage.7853, 12
storage.7853:
	.long	storage_read
	.long	storage_write
	.long	storage_clear
	.section	.bss.settings_inited.7800,"aw",@nobits
	.type	settings_inited.7800, @object
	.size	settings_inited.7800, 1
settings_inited.7800:
	.zero	1
	.section	.bss.flash_inited.7797,"aw",@nobits
	.type	flash_inited.7797, @object
	.size	flash_inited.7797, 1
flash_inited.7797:
	.zero	1
	.section	.bss.flash_handler,"aw",@nobits
	.align 4
	.type	flash_handler, @object
	.size	flash_handler, 4
flash_handler:
	.zero	4
	.text
.Letext0:
	.section	.text.unlikely.storage_clear
.Letext_cold0:
	.file 2 "<built-in>"
	.section	.note.GNU-stack,"",@progbits
