	.file	"ali_crypto_test_hmac.c"
	.text
.Ltext0:
	.section	.rodata.str1.1,"aMS",@progbits,1
.LC0:
	.string	"I %s %d: hmac not support hash 384 512\n"
.LC1:
	.string	"E %s %d: get ctx size fail(%08x)\n"
.LC2:
	.string	"E %s %d: kmalloc(%08x) fail\n"
.LC3:
	.string	"E %s %d: init fail(%08x)"
.LC4:
	.string	"E %s %d: update 1th fail(%08x)"
.LC5:
	.string	"E %s %d: update 2th fail(%08x)"
.LC6:
	.string	"E %s %d: update 3th fail(%08x)"
.LC7:
	.string	"E %s %d: final fail(%08x)"
.LC8:
	.string	"E %s %d: digest fail(%08x)"
.LC9:
	.string	"hmac-sha1"
.LC10:
	.string	"E %s %d: HMAC-SHA1 test fail!\n"
.LC11:
	.string	"I %s %d: HMAC-SHA1 test success!\n"
.LC12:
	.string	"hmac-sha224"
.LC13:
	.string	"E %s %d: HMAC-SHA224 test fail!\n"
.LC14:
	.string	"I %s %d: HMAC-SHA224 test success!\n"
.LC15:
	.string	"hmac-sha256"
.LC16:
	.string	"E %s %d: HMAC-SHA256 test fail!\n"
.LC17:
	.string	"I %s %d: HMAC-SHA256 test success!\n"
.LC18:
	.string	"hmac-md5"
.LC19:
	.string	"E %s %d: HMAC-MD5 test fail!\n"
.LC20:
	.string	"I %s %d: HMAC-MD5 test success!\n"
	.section	.text.unlikely.ali_crypto_hmac_test,"ax",@progbits
.LCOLDB21:
	.section	.text.ali_crypto_hmac_test,"ax",@progbits
.LHOTB21:
	.section	.text.unlikely.ali_crypto_hmac_test
.Ltext_cold0:
	.section	.text.ali_crypto_hmac_test
	.globl	ali_crypto_hmac_test
	.type	ali_crypto_hmac_test, @function
ali_crypto_hmac_test:
.LFB1:
	.file 1 "security/alicrypto/./libalicrypto/test/ali_crypto_test_hmac.c"
	.loc 1 75 0
	.cfi_startproc
	pushl	%ebp
	.cfi_def_cfa_offset 8
	.cfi_offset 5, -8
	movl	%esp, %ebp
	.cfi_def_cfa_register 5
	pushl	%edi
	pushl	%esi
	pushl	%ebx
	subl	$116, %esp
	.cfi_offset 7, -12
	.cfi_offset 6, -16
	.cfi_offset 3, -20
	.loc 1 83 0
	pushl	$0
	pushl	$6
	.loc 1 75 0
	movl	%gs:20, %eax
	movl	%eax, -28(%ebp)
	xorl	%eax, %eax
.LVL0:
	.loc 1 83 0
	call	ali_hmac_get_ctx_size
.LVL1:
	.loc 1 84 0
	addl	$16, %esp
	testl	%eax, %eax
	je	.L2
.LVL2:
	.loc 1 87 0
	pushl	%eax
	pushl	%eax
	leal	-96(%ebp), %eax
	pushl	%eax
	pushl	$0
	call	ali_hmac_get_ctx_size
.LVL3:
	.loc 1 88 0
	addl	$16, %esp
	testl	%eax, %eax
	je	.L2
	.loc 1 91 0
	pushl	$0
	pushl	$16
	pushl	$test_key
	pushl	$6
	call	ali_hmac_init
.LVL4:
	.loc 1 92 0
	addl	$16, %esp
	testl	%eax, %eax
	je	.L2
	.loc 1 95 0
	pushl	$0
	pushl	$16
	pushl	$test_key
	pushl	$0
	call	ali_hmac_init
.LVL5:
	.loc 1 96 0
	addl	$16, %esp
	testl	%eax, %eax
	je	.L2
.LVL6:
	.loc 1 99 0
	pushl	%eax
	pushl	$0
	pushl	$13
	pushl	$_g_test_data
	call	ali_hmac_update
.LVL7:
	.loc 1 100 0
	addl	$16, %esp
	testl	%eax, %eax
	je	.L2
	.loc 1 103 0
	leal	-92(%ebp), %esi
.LVL8:
	pushl	%eax
	pushl	%eax
	pushl	$0
	pushl	%esi
	call	ali_hmac_final
.LVL9:
	.loc 1 104 0
	addl	$16, %esp
	testl	%eax, %eax
	je	.L2
	.loc 1 107 0
	pushl	%edi
	pushl	%edi
	pushl	%esi
	pushl	$141
	pushl	$_g_test_data
	pushl	$16
	pushl	$0
	pushl	$6
	call	ali_hmac_digest
.LVL10:
	.loc 1 109 0
	addl	$32, %esp
	testl	%eax, %eax
	je	.L2
	.loc 1 112 0
	subl	$12, %esp
	pushl	$0
	call	ali_hmac_reset
.LVL11:
	.loc 1 113 0
	addl	$16, %esp
	testl	%eax, %eax
	je	.L2
	.loc 1 116 0
	pushl	%ebx
	pushl	%ebx
	pushl	$0
	pushl	$0
	call	ali_hmac_copy_context
.LVL12:
	.loc 1 117 0
	addl	$16, %esp
	testl	%eax, %eax
	je	.L2
	movl	$1, -108(%ebp)
.LVL13:
.L22:
	.loc 1 122 0
	movl	-108(%ebp), %eax
	subl	$4, %eax
	cmpl	$1, %eax
	ja	.L3
	.loc 1 123 0
	pushl	%ecx
	pushl	$123
	pushl	$__FUNCTION__.3683
	pushl	$.LC0
	jmp	.L61
.L3:
	.loc 1 126 0
	leal	-96(%ebp), %eax
	pushl	%edx
	pushl	%edx
	pushl	%eax
	pushl	-108(%ebp)
	call	ali_hmac_get_ctx_size
.LVL14:
	.loc 1 127 0
	addl	$16, %esp
	testl	%eax, %eax
	je	.L5
	.loc 1 128 0
	pushl	%eax
	pushl	$128
	pushl	$__FUNCTION__.3683
	pushl	$.LC1
	jmp	.L65
.L5:
	.loc 1 131 0
	movl	-96(%ebp), %ecx
	subl	$12, %esp
	pushl	%ecx
	movl	%ecx, -112(%ebp)
	call	malloc
.LVL15:
	.loc 1 132 0
	addl	$16, %esp
	testl	%eax, %eax
	.loc 1 131 0
	movl	%eax, %ebx
.LVL16:
	.loc 1 132 0
	movl	-112(%ebp), %ecx
	jne	.L6
	.loc 1 133 0
	pushl	%ecx
	pushl	$133
	pushl	$__FUNCTION__.3683
	pushl	$.LC2
	jmp	.L65
.L6:
	.loc 1 135 0
	xorl	%eax, %eax
.LVL17:
	movl	%ebx, %edi
	rep stosb
	.loc 1 138 0
	pushl	%ebx
	pushl	$16
	pushl	$test_key
	pushl	-108(%ebp)
	call	ali_hmac_init
.LVL18:
	.loc 1 139 0
	addl	$16, %esp
	testl	%eax, %eax
	je	.L7
	.loc 1 140 0
	pushl	%eax
	pushl	$140
	pushl	$__FUNCTION__.3683
	pushl	$.LC3
	jmp	.L62
.L7:
.LVL19:
	.loc 1 144 0
	pushl	%eax
	pushl	%ebx
	pushl	$13
	pushl	$0
	call	ali_hmac_update
.LVL20:
	.loc 1 145 0
	addl	$16, %esp
	testl	%eax, %eax
	je	.L8
.LVL21:
	.loc 1 149 0
	pushl	%eax
	pushl	%ebx
	pushl	$13
	pushl	$_g_test_data
	call	ali_hmac_update
.LVL22:
	.loc 1 150 0
	addl	$16, %esp
	testl	%eax, %eax
	je	.L10
	.loc 1 151 0
	pushl	%eax
	pushl	$151
	pushl	$__FUNCTION__.3683
	pushl	$.LC4
	jmp	.L62
.L10:
.LVL23:
	.loc 1 153 0
	pushl	%eax
	pushl	%ebx
	pushl	$63
	pushl	$_g_test_data+13
	call	ali_hmac_update
.LVL24:
	.loc 1 154 0
	addl	$16, %esp
	testl	%eax, %eax
	je	.L11
	.loc 1 155 0
	pushl	%eax
	pushl	$155
	pushl	$__FUNCTION__.3683
	pushl	$.LC5
	jmp	.L62
.L11:
.LVL25:
	.loc 1 157 0
	pushl	%eax
	pushl	%ebx
	pushl	$65
	pushl	$_g_test_data+76
	call	ali_hmac_update
.LVL26:
	.loc 1 158 0
	addl	$16, %esp
	testl	%eax, %eax
	je	.L12
	.loc 1 159 0
	pushl	%eax
	pushl	$159
	pushl	$__FUNCTION__.3683
	pushl	$.LC6
	jmp	.L62
.L12:
.LVL27:
	.loc 1 162 0
	pushl	%eax
	pushl	%eax
	pushl	%ebx
	pushl	%esi
	call	ali_hmac_final
.LVL28:
	.loc 1 163 0
	addl	$16, %esp
	testl	%eax, %eax
	je	.L13
	.loc 1 164 0
	pushl	%eax
	pushl	$164
	pushl	$__FUNCTION__.3683
	pushl	$.LC7
	jmp	.L62
.L13:
.LVL29:
	.loc 1 168 0
	pushl	%eax
	pushl	%eax
	pushl	%esi
	pushl	$141
	pushl	$_g_test_data
	pushl	$16
	pushl	$test_key
	pushl	$0
	call	ali_hmac_digest
.LVL30:
	.loc 1 170 0
	addl	$32, %esp
	testl	%eax, %eax
	je	.L8
	.loc 1 174 0
	pushl	%edi
	pushl	%edi
	pushl	%esi
	pushl	$141
	pushl	$_g_test_data
	pushl	$16
	pushl	$test_key
	pushl	-108(%ebp)
	call	ali_hmac_digest
.LVL31:
	.loc 1 176 0
	addl	$32, %esp
	testl	%eax, %eax
	je	.L14
	.loc 1 177 0
	pushl	%eax
	pushl	$177
	pushl	$__FUNCTION__.3683
	pushl	$.LC8
.LVL32:
.L62:
	call	printf
.LVL33:
	addl	$16, %esp
	jmp	.L8
.LVL34:
.L14:
	.loc 1 181 0
	pushl	%ecx
	pushl	%ecx
	pushl	%ebx
	pushl	%ebx
	call	ali_hmac_copy_context
.LVL35:
	.loc 1 182 0
	movl	%ebx, (%esp)
	call	ali_hmac_reset
.LVL36:
	.loc 1 183 0
	movl	%ebx, (%esp)
	call	free
.LVL37:
	.loc 1 186 0
	addl	$16, %esp
	cmpl	$1, -108(%ebp)
	jne	.L15
	.loc 1 187 0
	pushl	%edx
	pushl	$20
	pushl	$hmac_sha1
	pushl	%esi
	call	memcmp
.LVL38:
	addl	$16, %esp
	testl	%eax, %eax
	je	.L16
	.loc 1 188 0
	pushl	%eax
	pushl	$20
	pushl	%esi
	pushl	$.LC9
	call	ali_crypto_print_data
.LVL39:
	.loc 1 189 0
	addl	$12, %esp
	pushl	$189
	pushl	$__FUNCTION__.3683
	pushl	$.LC10
	jmp	.L65
.L16:
	.loc 1 191 0
	pushl	%eax
	pushl	$191
	pushl	$__FUNCTION__.3683
	pushl	$.LC11
	jmp	.L61
.L15:
	.loc 1 193 0
	cmpl	$2, -108(%ebp)
	jne	.L17
	.loc 1 194 0
	pushl	%eax
	pushl	$28
	pushl	$hmac_sha224
	pushl	%esi
	call	memcmp
.LVL40:
	addl	$16, %esp
	testl	%eax, %eax
	je	.L18
	.loc 1 195 0
	pushl	%eax
	pushl	$28
	pushl	%esi
	pushl	$.LC12
	call	ali_crypto_print_data
.LVL41:
	.loc 1 196 0
	addl	$12, %esp
	pushl	$196
	pushl	$__FUNCTION__.3683
	pushl	$.LC13
.LVL42:
.L65:
	call	printf
.LVL43:
	jmp	.L63
.LVL44:
.L18:
	.loc 1 198 0
	pushl	%eax
	pushl	$198
	pushl	$__FUNCTION__.3683
	pushl	$.LC14
	jmp	.L61
.L17:
	.loc 1 200 0
	cmpl	$3, -108(%ebp)
	jne	.L19
	.loc 1 201 0
	pushl	%eax
	pushl	$32
	pushl	$hmac_sha256
	pushl	%esi
	call	memcmp
.LVL45:
	addl	$16, %esp
	testl	%eax, %eax
	je	.L20
	.loc 1 202 0
	pushl	%edi
	pushl	$32
	pushl	%esi
	pushl	$.LC15
	call	ali_crypto_print_data
.LVL46:
	.loc 1 203 0
	addl	$12, %esp
	pushl	$203
	pushl	$__FUNCTION__.3683
	pushl	$.LC16
	jmp	.L65
.L20:
	.loc 1 205 0
	pushl	%ebx
	pushl	$205
	pushl	$__FUNCTION__.3683
	pushl	$.LC17
	jmp	.L61
.L19:
	.loc 1 222 0
	cmpl	$6, -108(%ebp)
	jne	.L4
	.loc 1 223 0
	pushl	%ecx
	pushl	$16
	pushl	$hmac_md5
	pushl	%esi
	call	memcmp
.LVL47:
	addl	$16, %esp
	testl	%eax, %eax
	je	.L21
	.loc 1 224 0
	pushl	%edx
	pushl	$16
	pushl	%esi
	pushl	$.LC18
	call	ali_crypto_print_data
.LVL48:
	.loc 1 225 0
	addl	$12, %esp
	pushl	$225
	pushl	$__FUNCTION__.3683
	pushl	$.LC19
	jmp	.L65
.L21:
	.loc 1 227 0
	pushl	%eax
	pushl	$227
	pushl	$__FUNCTION__.3683
	pushl	$.LC20
.L61:
	call	printf
.LVL49:
	addl	$16, %esp
.L4:
	.loc 1 121 0 discriminator 2
	incl	-108(%ebp)
.LVL50:
	cmpl	$7, -108(%ebp)
	jne	.L22
	.loc 1 232 0
	xorl	%eax, %eax
.L23:
	.loc 1 240 0
	movl	-28(%ebp), %edx
	xorl	%gs:20, %edx
	je	.L24
	call	__stack_chk_fail
.LVL51:
.L8:
	.loc 1 236 0
	subl	$12, %esp
	pushl	%ebx
	call	free
.LVL52:
.L63:
	addl	$16, %esp
.LVL53:
.L2:
	.loc 1 239 0
	orl	$-1, %eax
	jmp	.L23
.L24:
	.loc 1 240 0
	leal	-12(%ebp), %esp
	popl	%ebx
	.cfi_restore 3
	popl	%esi
	.cfi_restore 6
	popl	%edi
	.cfi_restore 7
	popl	%ebp
	.cfi_restore 5
	.cfi_def_cfa 4, 4
	ret
	.cfi_endproc
.LFE1:
	.size	ali_crypto_hmac_test, .-ali_crypto_hmac_test
	.section	.text.unlikely.ali_crypto_hmac_test
.LCOLDE21:
	.section	.text.ali_crypto_hmac_test
.LHOTE21:
	.section	.rodata.__FUNCTION__.3683,"a",@progbits
	.align 4
	.type	__FUNCTION__.3683, @object
	.size	__FUNCTION__.3683, 21
__FUNCTION__.3683:
	.string	"ali_crypto_hmac_test"
	.section	.data.hmac_sha256,"aw",@progbits
	.align 32
	.type	hmac_sha256, @object
	.size	hmac_sha256, 32
hmac_sha256:
	.byte	-43
	.byte	-50
	.byte	43
	.byte	-107
	.byte	-93
	.byte	-22
	.byte	112
	.byte	105
	.byte	106
	.byte	41
	.byte	-65
	.byte	-25
	.byte	-101
	.byte	-94
	.byte	-55
	.byte	24
	.byte	39
	.byte	77
	.byte	63
	.byte	-41
	.byte	-82
	.byte	-25
	.byte	-127
	.byte	-120
	.byte	42
	.byte	-25
	.byte	25
	.byte	104
	.byte	71
	.byte	7
	.byte	-93
	.byte	-77
	.section	.data.hmac_sha224,"aw",@progbits
	.align 4
	.type	hmac_sha224, @object
	.size	hmac_sha224, 28
hmac_sha224:
	.byte	28
	.byte	71
	.byte	4
	.byte	69
	.byte	-51
	.byte	-18
	.byte	0
	.byte	-102
	.byte	70
	.byte	102
	.byte	46
	.byte	30
	.byte	-73
	.byte	4
	.byte	-55
	.byte	-113
	.byte	-43
	.byte	-69
	.byte	-112
	.byte	56
	.byte	-69
	.byte	-109
	.byte	-102
	.byte	8
	.byte	71
	.byte	-25
	.byte	23
	.byte	-54
	.section	.data.hmac_sha1,"aw",@progbits
	.align 4
	.type	hmac_sha1, @object
	.size	hmac_sha1, 20
hmac_sha1:
	.byte	-27
	.byte	-33
	.byte	72
	.byte	-2
	.byte	8
	.byte	-111
	.byte	55
	.byte	-94
	.byte	85
	.byte	-107
	.byte	-68
	.byte	-13
	.byte	118
	.byte	6
	.byte	-110
	.byte	30
	.byte	84
	.byte	-104
	.byte	-32
	.byte	75
	.section	.data.hmac_md5,"aw",@progbits
	.align 4
	.type	hmac_md5, @object
	.size	hmac_md5, 16
hmac_md5:
	.byte	32
	.byte	-59
	.byte	-58
	.byte	-89
	.byte	23
	.byte	111
	.byte	39
	.byte	-2
	.byte	122
	.byte	29
	.byte	126
	.byte	-123
	.byte	91
	.byte	92
	.byte	-88
	.byte	-60
	.section	.data._g_test_data,"aw",@progbits
	.align 32
	.type	_g_test_data, @object
	.size	_g_test_data, 141
_g_test_data:
	.byte	1
	.byte	2
	.byte	3
	.byte	4
	.byte	5
	.byte	6
	.byte	7
	.byte	8
	.byte	1
	.byte	2
	.byte	3
	.byte	4
	.byte	5
	.byte	6
	.byte	7
	.byte	8
	.byte	1
	.byte	2
	.byte	3
	.byte	4
	.byte	5
	.byte	6
	.byte	7
	.byte	8
	.byte	1
	.byte	2
	.byte	3
	.byte	4
	.byte	5
	.byte	6
	.byte	7
	.byte	8
	.byte	1
	.byte	2
	.byte	3
	.byte	4
	.byte	5
	.byte	6
	.byte	7
	.byte	8
	.byte	1
	.byte	2
	.byte	3
	.byte	4
	.byte	5
	.byte	6
	.byte	7
	.byte	8
	.byte	1
	.byte	2
	.byte	3
	.byte	4
	.byte	5
	.byte	6
	.byte	7
	.byte	8
	.byte	1
	.byte	2
	.byte	3
	.byte	4
	.byte	5
	.byte	6
	.byte	7
	.byte	8
	.byte	1
	.byte	2
	.byte	3
	.byte	4
	.byte	5
	.byte	6
	.byte	7
	.byte	8
	.byte	1
	.byte	2
	.byte	3
	.byte	4
	.byte	5
	.byte	6
	.byte	7
	.byte	8
	.byte	1
	.byte	2
	.byte	3
	.byte	4
	.byte	5
	.byte	6
	.byte	7
	.byte	8
	.byte	1
	.byte	2
	.byte	3
	.byte	4
	.byte	5
	.byte	6
	.byte	7
	.byte	8
	.byte	1
	.byte	2
	.byte	3
	.byte	4
	.byte	5
	.byte	6
	.byte	7
	.byte	8
	.byte	1
	.byte	2
	.byte	3
	.byte	4
	.byte	5
	.byte	6
	.byte	7
	.byte	8
	.byte	1
	.byte	2
	.byte	3
	.byte	4
	.byte	5
	.byte	6
	.byte	7
	.byte	8
	.byte	1
	.byte	2
	.byte	3
	.byte	4
	.byte	5
	.byte	6
	.byte	7
	.byte	8
	.byte	10
	.byte	11
	.byte	12
	.byte	13
	.byte	14
	.byte	15
	.byte	0
	.byte	1
	.byte	2
	.byte	3
	.byte	4
	.byte	5
	.byte	19
	.section	.data.test_key,"aw",@progbits
	.align 4
	.type	test_key, @object
	.size	test_key, 16
test_key:
	.byte	1
	.byte	2
	.byte	3
	.byte	4
	.byte	5
	.byte	6
	.byte	7
	.byte	8
	.byte	8
	.byte	7
	.byte	6
	.byte	5
	.byte	4
	.byte	3
	.byte	2
	.byte	1
	.text
.Letext0:
	.section	.text.unlikely.ali_crypto_hmac_test
.Letext_cold0:
	.file 2 "/home/stone/Documents/Ali_IOT/build/compiler/gcc-arm-none-eabi/Linux64/arm-none-eabi/include/machine/_default_types.h"
	.file 3 "/home/stone/Documents/Ali_IOT/build/compiler/gcc-arm-none-eabi/Linux64/arm-none-eabi/include/sys/_stdint.h"
	.file 4 "/home/stone/Documents/Ali_IOT/build/compiler/gcc-arm-none-eabi/Linux64/lib/gcc/arm-none-eabi/5.4.1/include/stddef.h"
	.file 5 "./security/alicrypto/./libalicrypto/inc/ali_crypto.h"
	.file 6 "/home/stone/Documents/Ali_IOT/build/compiler/gcc-arm-none-eabi/Linux64/arm-none-eabi/include/stdlib.h"
	.file 7 "/home/stone/Documents/Ali_IOT/build/compiler/gcc-arm-none-eabi/Linux64/arm-none-eabi/include/stdio.h"
	.file 8 "/home/stone/Documents/Ali_IOT/build/compiler/gcc-arm-none-eabi/Linux64/arm-none-eabi/include/string.h"
	.file 9 "./security/alicrypto/./libalicrypto/test/inc/ali_crypto_test.h"
	.section	.note.GNU-stack,"",@progbits
