	.file	"ali_crypto_test_rand.c"
	.text
.Ltext0:
	.section	.rodata.str1.1,"aMS",@progbits,1
.LC0:
	.string	"E %s %d: ali_seed fail(%08x)\n"
.LC1:
	.string	"E %s %d: gen rand fail(%08x)\n"
.LC2:
	.string	"tmp_buf"
.LC3:
	.string	"rand_buf"
.LC4:
	.string	"E %s %d: RAND test fail!\n"
.LC5:
	.string	"I %s %d: RAND test success!\n"
	.section	.text.unlikely.ali_crypto_rand_test,"ax",@progbits
.LCOLDB6:
	.section	.text.ali_crypto_rand_test,"ax",@progbits
.LHOTB6:
	.section	.text.unlikely.ali_crypto_rand_test
.Ltext_cold0:
	.section	.text.ali_crypto_rand_test
	.globl	ali_crypto_rand_test
	.type	ali_crypto_rand_test, @function
ali_crypto_rand_test:
.LFB1:
	.file 1 "security/alicrypto/./libalicrypto/test/ali_crypto_test_rand.c"
	.loc 1 8 0
	.cfi_startproc
	pushl	%ebp
	.cfi_def_cfa_offset 8
	.cfi_offset 5, -8
	.loc 1 10 0
	movl	$4, %ecx
	.loc 1 8 0
	movl	%esp, %ebp
	.cfi_def_cfa_register 5
	pushl	%edi
	pushl	%esi
	pushl	%ebx
	.cfi_offset 7, -12
	.cfi_offset 6, -16
	.cfi_offset 3, -20
	.loc 1 10 0
	leal	-108(%ebp), %edi
	.loc 1 8 0
	subl	$132, %esp
	.loc 1 8 0
	movl	%gs:20, %eax
	movl	%eax, -28(%ebp)
	xorl	%eax, %eax
.LVL0:
	.loc 1 10 0
	rep stosl
.LVL1:
	.loc 1 17 0
	leal	-108(%ebp), %eax
	pushl	$16
	pushl	%eax
	call	ali_seed
.LVL2:
	.loc 1 18 0
	addl	$16, %esp
	testl	%eax, %eax
	je	.L2
	.loc 1 19 0
	pushl	%eax
	pushl	$19
	pushl	$__FUNCTION__.3677
	pushl	$.LC0
	jmp	.L13
.L2:
.LVL3:
	.loc 1 23 0
	pushl	%eax
	pushl	%eax
	pushl	$32
	pushl	$0
	call	ali_rand_gen
.LVL4:
	.loc 1 24 0
	addl	$16, %esp
	testl	%eax, %eax
	jne	.L4
	.loc 1 25 0
	pushl	$0
	pushl	$25
.LVL5:
.L14:
	pushl	$__FUNCTION__.3677
	pushl	$.LC1
.LVL6:
.L13:
	call	printf
.LVL7:
	addl	$16, %esp
	orl	$-1, %eax
	jmp	.L3
.LVL8:
.L4:
	.loc 1 28 0
	leal	-60(%ebp), %eax
.LVL9:
	pushl	%edi
	pushl	%edi
	pushl	$32
	.loc 1 36 0
	leal	-60(%ebp), %ebx
	.loc 1 28 0
	pushl	%eax
	call	ali_rand_gen
.LVL10:
	.loc 1 29 0
	addl	$16, %esp
	testl	%eax, %eax
	movl	$11, -124(%ebp)
	je	.L10
	.loc 1 30 0
	pushl	%eax
	pushl	$30
	jmp	.L14
.LVL11:
.L10:
	.loc 1 33 0
	decl	-124(%ebp)
.LVL12:
	je	.L16
.LVL13:
	.loc 1 34 0
	leal	-92(%ebp), %edi
	movl	$8, %ecx
	leal	-60(%ebp), %esi
	rep movsl
	.loc 1 36 0
	pushl	%esi
	pushl	%esi
	pushl	$32
	pushl	%ebx
	call	ali_rand_gen
.LVL14:
	.loc 1 37 0
	addl	$16, %esp
	testl	%eax, %eax
	je	.L6
	.loc 1 38 0
	pushl	%eax
	pushl	$38
	jmp	.L14
.L6:
	.loc 1 41 0
	leal	-92(%ebp), %eax
.LVL15:
	pushl	%ecx
	pushl	$32
	pushl	%ebx
	pushl	%eax
	call	memcmp
.LVL16:
	addl	$16, %esp
	testl	%eax, %eax
	jne	.L10
	.loc 1 42 0
	leal	-92(%ebp), %eax
	pushl	%edx
	pushl	$32
	pushl	%eax
	pushl	$.LC2
	call	ali_crypto_print_data
.LVL17:
	.loc 1 43 0
	addl	$12, %esp
	pushl	$32
	pushl	%ebx
	pushl	$.LC3
	call	ali_crypto_print_data
.LVL18:
	.loc 1 44 0
	addl	$12, %esp
	pushl	$44
	pushl	$__FUNCTION__.3677
	pushl	$.LC4
	jmp	.L13
.LVL19:
.L16:
	.loc 1 48 0
	pushl	%eax
	pushl	$48
	pushl	$__FUNCTION__.3677
	pushl	$.LC5
	call	printf
.LVL20:
	.loc 1 50 0
	addl	$16, %esp
	xorl	%eax, %eax
.L3:
	.loc 1 51 0
	movl	-28(%ebp), %edx
	xorl	%gs:20, %edx
	je	.L9
	call	__stack_chk_fail
.LVL21:
.L9:
	leal	-12(%ebp), %esp
	popl	%ebx
	.cfi_restore 3
	popl	%esi
	.cfi_restore 6
	popl	%edi
	.cfi_restore 7
	popl	%ebp
	.cfi_restore 5
	.cfi_def_cfa 4, 4
	ret
	.cfi_endproc
.LFE1:
	.size	ali_crypto_rand_test, .-ali_crypto_rand_test
	.section	.text.unlikely.ali_crypto_rand_test
.LCOLDE6:
	.section	.text.ali_crypto_rand_test
.LHOTE6:
	.section	.rodata.__FUNCTION__.3677,"a",@progbits
	.align 4
	.type	__FUNCTION__.3677, @object
	.size	__FUNCTION__.3677, 21
__FUNCTION__.3677:
	.string	"ali_crypto_rand_test"
	.text
.Letext0:
	.section	.text.unlikely.ali_crypto_rand_test
.Letext_cold0:
	.file 2 "/home/stone/Documents/Ali_IOT/build/compiler/gcc-arm-none-eabi/Linux64/arm-none-eabi/include/machine/_default_types.h"
	.file 3 "/home/stone/Documents/Ali_IOT/build/compiler/gcc-arm-none-eabi/Linux64/lib/gcc/arm-none-eabi/5.4.1/include/stddef.h"
	.file 4 "/home/stone/Documents/Ali_IOT/build/compiler/gcc-arm-none-eabi/Linux64/arm-none-eabi/include/sys/_stdint.h"
	.file 5 "./security/alicrypto/./libalicrypto/inc/ali_crypto.h"
	.file 6 "/home/stone/Documents/Ali_IOT/build/compiler/gcc-arm-none-eabi/Linux64/arm-none-eabi/include/stdio.h"
	.file 7 "/home/stone/Documents/Ali_IOT/build/compiler/gcc-arm-none-eabi/Linux64/arm-none-eabi/include/string.h"
	.file 8 "./security/alicrypto/./libalicrypto/test/inc/ali_crypto_test.h"
	.section	.note.GNU-stack,"",@progbits
