	.file	"ali_crypto_test_aes.c"
	.text
.Ltext0:
	.section	.rodata.str1.1,"aMS",@progbits,1
.LC0:
	.string	"E %s %d: aes_ecb init fail(%08x)\n"
.LC1:
	.string	"E %s %d: aes_ecb process 1th fail(%08x)"
.LC2:
	.string	"E %s %d: aes_ecb process 2th fail(%08x)"
.LC3:
	.string	"E %s %d: aes_ecb process 3th fail(%08x)"
.LC4:
	.string	"E %s %d: finish fail(%08x) size(%d)\n"
	.section	.text.unlikely._aes_ecb_encrypt_decrypt,"ax",@progbits
.LCOLDB5:
	.section	.text._aes_ecb_encrypt_decrypt,"ax",@progbits
.LHOTB5:
	.section	.text.unlikely._aes_ecb_encrypt_decrypt
.Ltext_cold0:
	.section	.text._aes_ecb_encrypt_decrypt
	.type	_aes_ecb_encrypt_decrypt, @function
_aes_ecb_encrypt_decrypt:
.LFB1:
	.file 1 "security/alicrypto/./libalicrypto/test/ali_crypto_test_aes.c"
	.loc 1 298 0
	.cfi_startproc
.LVL0:
	pushl	%ebp
	.cfi_def_cfa_offset 8
	.cfi_offset 5, -8
	movl	%esp, %ebp
	.cfi_def_cfa_register 5
	pushl	%edi
	pushl	%esi
	pushl	%ebx
	subl	$48, %esp
	.cfi_offset 7, -12
	.cfi_offset 6, -16
	.cfi_offset 3, -20
	.loc 1 298 0
	movl	16(%ebp), %esi
	movl	%eax, -52(%ebp)
	movl	%gs:20, %eax
	movl	%eax, -28(%ebp)
	xorl	%eax, %eax
.LVL1:
	.loc 1 304 0
	movzbl	%dl, %eax
	.loc 1 298 0
	movl	%ecx, -48(%ebp)
	movl	8(%ebp), %edi
	.loc 1 304 0
	pushl	%esi
	pushl	$0
	pushl	%ecx
	pushl	$0
	pushl	$0
	pushl	%eax
	pushl	$0
	.loc 1 298 0
	movl	12(%ebp), %ebx
	.loc 1 304 0
	movl	%eax, -44(%ebp)
	call	ali_aes_init
.LVL2:
	.loc 1 306 0
	addl	$32, %esp
	testl	%eax, %eax
	je	.L33
.LVL3:
	.loc 1 311 0
	pushl	%eax
	pushl	%esi
	pushl	$0
	pushl	$0
	pushl	$0
	pushl	$_g_aes_key
	pushl	-44(%ebp)
	pushl	$0
	call	ali_aes_init
.LVL4:
	.loc 1 313 0
	addl	$32, %esp
	testl	%eax, %eax
	je	.L33
.LVL5:
	.loc 1 318 0
	pushl	%eax
	pushl	%esi
	pushl	$0
	pushl	-48(%ebp)
	pushl	$0
	pushl	$_g_aes_key
	pushl	-44(%ebp)
	pushl	$-1
	call	ali_aes_init
.LVL6:
	.loc 1 320 0
	addl	$32, %esp
	testl	%eax, %eax
	je	.L33
.LVL7:
	.loc 1 325 0
	pushl	%eax
	pushl	%esi
	pushl	$0
	pushl	-48(%ebp)
	pushl	$0
	pushl	$_g_aes_key
	pushl	-44(%ebp)
	pushl	$0
	call	ali_aes_init
.LVL8:
	.loc 1 327 0
	addl	$32, %esp
	testl	%eax, %eax
	je	.L5
	.loc 1 328 0
	pushl	%eax
	pushl	$328
	pushl	$__FUNCTION__.3701
	pushl	$.LC0
	jmp	.L35
.L5:
	.loc 1 332 0
	testb	$1, -52(%ebp)
	je	.L6
	.loc 1 335 0
	pushl	$0
	pushl	$16
	pushl	%ebx
	pushl	%edi
	call	ali_aes_process
.LVL9:
	.loc 1 336 0
	addl	$16, %esp
	testl	%eax, %eax
	je	.L33
	.loc 1 340 0
	pushl	%esi
	pushl	$16
	pushl	%ebx
	pushl	$0
	call	ali_aes_process
.LVL10:
	.loc 1 341 0
	addl	$16, %esp
	testl	%eax, %eax
	je	.L33
	.loc 1 345 0
	pushl	%esi
	pushl	$17
	pushl	%ebx
	pushl	%edi
	call	ali_aes_process
.LVL11:
	.loc 1 346 0
	addl	$16, %esp
	testl	%eax, %eax
	je	.L33
	.loc 1 351 0
	pushl	%esi
	pushl	$16
	pushl	%ebx
	pushl	%edi
	call	ali_aes_process
.LVL12:
	.loc 1 352 0
	addl	$16, %esp
	testl	%eax, %eax
	je	.L7
	.loc 1 353 0
	pushl	%eax
	pushl	$353
	pushl	$__FUNCTION__.3701
	pushl	$.LC1
	jmp	.L35
.L7:
	.loc 1 355 0
	leal	16(%ebx), %eax
.LVL13:
	pushl	%esi
	pushl	$16
	pushl	%eax
	leal	16(%edi), %eax
	pushl	%eax
	call	ali_aes_process
.LVL14:
	.loc 1 356 0
	addl	$16, %esp
	testl	%eax, %eax
	je	.L8
	.loc 1 357 0
	pushl	%eax
	pushl	$357
	pushl	$__FUNCTION__.3701
	pushl	$.LC2
.L35:
	call	printf
.LVL15:
	addl	$16, %esp
	jmp	.L33
.LVL16:
.L8:
	.loc 1 359 0
	leal	32(%ebx), %eax
.LVL17:
	pushl	%esi
	pushl	$16
	pushl	%eax
	leal	32(%edi), %eax
	pushl	%eax
	call	ali_aes_process
.LVL18:
	.loc 1 360 0
	addl	$16, %esp
	testl	%eax, %eax
	je	.L9
	.loc 1 361 0
	pushl	%eax
	pushl	$361
	pushl	$__FUNCTION__.3701
	pushl	$.LC3
	jmp	.L35
.L9:
	.loc 1 368 0
	leal	-32(%ebp), %edx
	addl	$48, %ebx
	addl	$48, %edi
	pushl	%ecx
	pushl	%ecx
	pushl	$0
	pushl	$0
	pushl	%edx
	pushl	%ebx
	pushl	$48
	pushl	%edi
	.loc 1 364 0
	movl	$48, -32(%ebp)
	.loc 1 368 0
	movl	%edx, -44(%ebp)
.LVL19:
	call	ali_aes_finish
.LVL20:
	.loc 1 371 0
	addl	$32, %esp
	testl	%eax, %eax
	je	.L33
	.loc 1 376 0
	pushl	%edx
	pushl	%edx
	movl	-44(%ebp), %edx
	pushl	%esi
	pushl	$0
	pushl	%edx
	pushl	%ebx
	pushl	$48
	pushl	%edi
	call	ali_aes_finish
.LVL21:
	.loc 1 379 0
	addl	$32, %esp
	testl	%eax, %eax
	jne	.L10
.L12:
	.loc 1 392 0
	xorl	%eax, %eax
.LVL22:
	jmp	.L3
.LVL23:
.L10:
	.loc 1 380 0
	subl	$12, %esp
	pushl	-32(%ebp)
	pushl	%eax
	pushl	$380
	jmp	.L34
.L6:
.LVL24:
	.loc 1 384 0
	pushl	%eax
	pushl	%eax
	leal	-32(%ebp), %eax
	pushl	%esi
	pushl	$0
	pushl	%eax
	pushl	%ebx
	pushl	$96
	pushl	%edi
	.loc 1 383 0
	movl	$96, -32(%ebp)
	.loc 1 384 0
	call	ali_aes_finish
.LVL25:
	.loc 1 387 0
	addl	$32, %esp
	testl	%eax, %eax
	jne	.L11
	.loc 1 387 0 is_stmt 0 discriminator 1
	cmpl	$96, -32(%ebp)
	je	.L12
.L11:
	.loc 1 388 0 is_stmt 1
	subl	$12, %esp
	pushl	-32(%ebp)
	pushl	%eax
	pushl	$388
.L34:
	pushl	$__FUNCTION__.3701
	pushl	$.LC4
	call	printf
.LVL26:
	addl	$32, %esp
.L33:
	orl	$-1, %eax
.L3:
	.loc 1 393 0
	movl	-28(%ebp), %ecx
	xorl	%gs:20, %ecx
	je	.L13
	call	__stack_chk_fail
.LVL27:
.L13:
	leal	-12(%ebp), %esp
	popl	%ebx
	.cfi_restore 3
	popl	%esi
	.cfi_restore 6
	popl	%edi
	.cfi_restore 7
	popl	%ebp
	.cfi_restore 5
	.cfi_def_cfa 4, 4
	ret
	.cfi_endproc
.LFE1:
	.size	_aes_ecb_encrypt_decrypt, .-_aes_ecb_encrypt_decrypt
	.section	.text.unlikely._aes_ecb_encrypt_decrypt
.LCOLDE5:
	.section	.text._aes_ecb_encrypt_decrypt
.LHOTE5:
	.section	.rodata.str1.1
.LC6:
	.string	"I %s %d: process finish\n"
.LC7:
	.string	"I %s %d: finish not process\n"
	.section	.text.unlikely._aes_ecb_pkcs_encrypt_decrypt,"ax",@progbits
.LCOLDB8:
	.section	.text._aes_ecb_pkcs_encrypt_decrypt,"ax",@progbits
.LHOTB8:
	.type	_aes_ecb_pkcs_encrypt_decrypt, @function
_aes_ecb_pkcs_encrypt_decrypt:
.LFB4:
	.loc 1 517 0
	.cfi_startproc
.LVL28:
	pushl	%ebp
	.cfi_def_cfa_offset 8
	.cfi_offset 5, -8
	movl	%esp, %ebp
	.cfi_def_cfa_register 5
	pushl	%edi
	pushl	%esi
	pushl	%ebx
	subl	$48, %esp
	.cfi_offset 7, -12
	.cfi_offset 6, -16
	.cfi_offset 3, -20
	.loc 1 517 0
	movl	%eax, -56(%ebp)
	movl	20(%ebp), %eax
.LVL29:
	movl	24(%ebp), %esi
	movl	%ecx, -52(%ebp)
	movl	8(%ebp), %edi
	movl	16(%ebp), %ebx
	movl	%eax, -48(%ebp)
	movl	%gs:20, %eax
	movl	%eax, -28(%ebp)
	xorl	%eax, %eax
	.loc 1 523 0
	movzbl	%dl, %eax
	pushl	%esi
	pushl	$0
	pushl	%ecx
	pushl	$0
	pushl	$0
	pushl	%eax
	pushl	$0
	movl	%eax, -44(%ebp)
	call	ali_aes_init
.LVL30:
	.loc 1 525 0
	addl	$32, %esp
	testl	%eax, %eax
	je	.L68
.LVL31:
	.loc 1 530 0
	pushl	%eax
	pushl	%esi
	pushl	$0
	pushl	$0
	pushl	$0
	pushl	$_g_aes_key
	pushl	-44(%ebp)
	pushl	$0
	call	ali_aes_init
.LVL32:
	.loc 1 532 0
	addl	$32, %esp
	testl	%eax, %eax
	je	.L68
.LVL33:
	.loc 1 537 0
	pushl	%eax
	pushl	%esi
	pushl	$0
	pushl	-52(%ebp)
	pushl	$0
	pushl	$_g_aes_key
	pushl	-44(%ebp)
	pushl	$-1
	call	ali_aes_init
.LVL34:
	.loc 1 539 0
	addl	$32, %esp
	testl	%eax, %eax
	je	.L68
.LVL35:
	.loc 1 544 0
	pushl	%eax
	pushl	%esi
	pushl	$0
	pushl	-52(%ebp)
	pushl	$0
	pushl	$_g_aes_key
	pushl	-44(%ebp)
	pushl	$0
	call	ali_aes_init
.LVL36:
	.loc 1 546 0
	addl	$32, %esp
	testl	%eax, %eax
	je	.L41
	.loc 1 547 0
	pushl	%eax
	pushl	$547
	pushl	$__FUNCTION__.3736
	pushl	$.LC0
	jmp	.L71
.L41:
	.loc 1 551 0
	testb	$1, -56(%ebp)
	je	.L42
.LVL37:
	.loc 1 552 0
	pushl	%eax
	pushl	$552
	pushl	$__FUNCTION__.3736
	pushl	$.LC6
	call	printf
.LVL38:
	.loc 1 555 0
	pushl	$0
	pushl	$16
	pushl	%ebx
	pushl	%edi
	call	ali_aes_process
.LVL39:
	.loc 1 556 0
	addl	$32, %esp
	testl	%eax, %eax
	je	.L68
	.loc 1 560 0
	pushl	%esi
	pushl	$16
	pushl	%ebx
	pushl	$0
	call	ali_aes_process
.LVL40:
	.loc 1 561 0
	addl	$16, %esp
	testl	%eax, %eax
	je	.L68
	.loc 1 565 0
	pushl	%esi
	pushl	$17
	pushl	%ebx
	pushl	%edi
	call	ali_aes_process
.LVL41:
	.loc 1 566 0
	addl	$16, %esp
	testl	%eax, %eax
	je	.L68
	.loc 1 571 0
	pushl	%esi
	pushl	$16
	pushl	%ebx
	pushl	%edi
	call	ali_aes_process
.LVL42:
	.loc 1 572 0
	addl	$16, %esp
	testl	%eax, %eax
	je	.L43
	.loc 1 573 0
	pushl	%eax
	pushl	$573
	pushl	$__FUNCTION__.3736
	pushl	$.LC1
	jmp	.L71
.L43:
	.loc 1 575 0
	leal	16(%ebx), %eax
.LVL43:
	pushl	%esi
	pushl	$16
	pushl	%eax
	leal	16(%edi), %eax
	pushl	%eax
	call	ali_aes_process
.LVL44:
	.loc 1 576 0
	addl	$16, %esp
	testl	%eax, %eax
	je	.L44
	.loc 1 577 0
	pushl	%eax
	pushl	$577
	pushl	$__FUNCTION__.3736
	pushl	$.LC2
.L71:
	call	printf
.LVL45:
	addl	$16, %esp
	jmp	.L68
.LVL46:
.L44:
	.loc 1 579 0
	leal	32(%ebx), %eax
.LVL47:
	pushl	%esi
	pushl	$16
	pushl	%eax
	leal	32(%edi), %eax
	pushl	%eax
	call	ali_aes_process
.LVL48:
	.loc 1 580 0
	addl	$16, %esp
	testl	%eax, %eax
	je	.L45
	.loc 1 581 0
	pushl	%eax
	pushl	$581
	pushl	$__FUNCTION__.3736
	pushl	$.LC3
	jmp	.L71
.L45:
	.loc 1 584 0
	movl	-48(%ebp), %eax
.LVL49:
	.loc 1 588 0
	leal	-32(%ebp), %ecx
	addl	$48, %ebx
	addl	$48, %edi
	movl	%ecx, -52(%ebp)
.LVL50:
	.loc 1 584 0
	movl	(%eax), %eax
	subl	$48, %eax
	movl	%eax, -32(%ebp)
	.loc 1 588 0
	movl	12(%ebp), %eax
	leal	-48(%eax), %edx
	pushl	%eax
	pushl	%eax
	pushl	$0
	pushl	$1
	pushl	%ecx
	pushl	%ebx
	pushl	%edx
	pushl	%edi
	movl	%edx, -44(%ebp)
.LVL51:
	call	ali_aes_finish
.LVL52:
	.loc 1 591 0
	addl	$32, %esp
	testl	%eax, %eax
	je	.L68
	.loc 1 596 0
	movl	-52(%ebp), %ecx
	movl	-44(%ebp), %edx
.LVL53:
	pushl	%eax
	pushl	%eax
	pushl	%esi
	pushl	$1
	pushl	%ecx
	pushl	%ebx
	pushl	%edx
	pushl	%edi
	call	ali_aes_finish
.LVL54:
	.loc 1 599 0
	addl	$32, %esp
	testl	%eax, %eax
	je	.L46
	.loc 1 600 0
	subl	$12, %esp
	pushl	-32(%ebp)
	pushl	%eax
	pushl	$600
.L69:
	pushl	$__FUNCTION__.3736
	pushl	$.LC4
	call	printf
.LVL55:
	addl	$32, %esp
.L68:
	orl	$-1, %eax
	jmp	.L39
.LVL56:
.L46:
	.loc 1 603 0
	movl	-32(%ebp), %eax
.LVL57:
	movl	-48(%ebp), %ecx
	addl	$48, %eax
	movl	%eax, (%ecx)
	jmp	.L70
.LVL58:
.L42:
.LVL59:
	.loc 1 605 0
	pushl	%eax
	pushl	$605
	pushl	$__FUNCTION__.3736
	pushl	$.LC7
	call	printf
.LVL60:
	.loc 1 606 0
	movl	-48(%ebp), %eax
	.loc 1 607 0
	popl	%edx
	popl	%ecx
	.loc 1 606 0
	movl	(%eax), %eax
	.loc 1 607 0
	pushl	%esi
	pushl	$1
	.loc 1 606 0
	movl	%eax, -32(%ebp)
	.loc 1 607 0
	leal	-32(%ebp), %eax
	pushl	%eax
	pushl	%ebx
	pushl	12(%ebp)
	pushl	%edi
	call	ali_aes_finish
.LVL61:
	.loc 1 611 0
	addl	$32, %esp
	testl	%eax, %eax
	je	.L47
	.loc 1 612 0
	subl	$12, %esp
	pushl	-32(%ebp)
	pushl	%eax
	pushl	$612
	jmp	.L69
.L47:
	.loc 1 614 0
	movl	-32(%ebp), %eax
.LVL62:
	movl	-48(%ebp), %edx
	movl	%eax, (%edx)
.LVL63:
.L70:
	.loc 1 617 0
	xorl	%eax, %eax
.L39:
	.loc 1 618 0
	movl	-28(%ebp), %ecx
	xorl	%gs:20, %ecx
	je	.L48
	call	__stack_chk_fail
.LVL64:
.L48:
	leal	-12(%ebp), %esp
	popl	%ebx
	.cfi_restore 3
	popl	%esi
	.cfi_restore 6
	popl	%edi
	.cfi_restore 7
	popl	%ebp
	.cfi_restore 5
	.cfi_def_cfa 4, 4
	ret
	.cfi_endproc
.LFE4:
	.size	_aes_ecb_pkcs_encrypt_decrypt, .-_aes_ecb_pkcs_encrypt_decrypt
	.section	.text.unlikely._aes_ecb_pkcs_encrypt_decrypt
.LCOLDE8:
	.section	.text._aes_ecb_pkcs_encrypt_decrypt
.LHOTE8:
	.section	.rodata.str1.1
.LC9:
	.string	"E %s %d: aes_cbc init fail(%08x)\n"
.LC10:
	.string	"E %s %d: aes_cbc process 1th fail(%08x)"
.LC11:
	.string	"E %s %d: aes_cbc process 2th fail(%08x)"
.LC12:
	.string	"E %s %d: aes_cbc process 3th fail(%08x)"
.LC13:
	.string	"E %s %d: aes_cbc finish fail(%08x) size(%d)\n"
.LC14:
	.string	"I %s %d: finish no process\n"
	.section	.text.unlikely._aes_cbc_encrypt_decrypt,"ax",@progbits
.LCOLDB15:
	.section	.text._aes_cbc_encrypt_decrypt,"ax",@progbits
.LHOTB15:
	.type	_aes_cbc_encrypt_decrypt, @function
_aes_cbc_encrypt_decrypt:
.LFB2:
	.loc 1 397 0
	.cfi_startproc
.LVL65:
	pushl	%ebp
	.cfi_def_cfa_offset 8
	.cfi_offset 5, -8
	.loc 1 403 0
	movzbl	%dl, %edx
	.loc 1 397 0
	movl	%esp, %ebp
	.cfi_def_cfa_register 5
	pushl	%edi
	pushl	%esi
	pushl	%ebx
	subl	$48, %esp
	.cfi_offset 7, -12
	.cfi_offset 6, -16
	.cfi_offset 3, -20
	.loc 1 397 0
	movl	16(%ebp), %edi
	movl	%eax, -44(%ebp)
	.loc 1 403 0
	movl	%ecx, -52(%ebp)
	movl	%edx, -48(%ebp)
	.loc 1 397 0
	movl	%gs:20, %eax
	movl	%eax, -28(%ebp)
	xorl	%eax, %eax
.LVL66:
	.loc 1 403 0
	pushl	%edi
	pushl	$0
	pushl	%ecx
	pushl	$0
	pushl	$_g_aes_key
	pushl	%edx
	pushl	$1
	.loc 1 397 0
	movl	8(%ebp), %ebx
	movl	12(%ebp), %esi
	.loc 1 403 0
	call	ali_aes_init
.LVL67:
	.loc 1 405 0
	addl	$32, %esp
	testl	%eax, %eax
	movl	-48(%ebp), %edx
	movl	-52(%ebp), %ecx
	je	.L89
.LVL68:
	.loc 1 410 0
	pushl	%eax
	pushl	%edi
	pushl	$_g_aes_iv
	pushl	%ecx
	pushl	$0
	pushl	$_g_aes_key
	pushl	%edx
	pushl	$1
	call	ali_aes_init
.LVL69:
	.loc 1 412 0
	addl	$32, %esp
	testl	%eax, %eax
	je	.L75
	.loc 1 413 0
	pushl	%eax
	pushl	$413
	pushl	$__FUNCTION__.3712
	pushl	$.LC9
	jmp	.L91
.L75:
	.loc 1 416 0
	testb	$1, -44(%ebp)
	je	.L76
.LVL70:
	.loc 1 417 0
	pushl	%eax
	pushl	$417
	pushl	$__FUNCTION__.3712
	pushl	$.LC6
	call	printf
.LVL71:
	.loc 1 420 0
	pushl	%edi
	pushl	$17
	pushl	%esi
	pushl	%ebx
	call	ali_aes_process
.LVL72:
	.loc 1 421 0
	addl	$32, %esp
	testl	%eax, %eax
	je	.L89
	.loc 1 425 0
	pushl	%edi
	pushl	$16
	pushl	%esi
	pushl	%ebx
	call	ali_aes_process
.LVL73:
	.loc 1 426 0
	addl	$16, %esp
	testl	%eax, %eax
	je	.L78
	.loc 1 427 0
	pushl	%eax
	pushl	$427
	pushl	$__FUNCTION__.3712
	pushl	$.LC10
	jmp	.L91
.L78:
	.loc 1 429 0
	leal	16(%esi), %eax
.LVL74:
	pushl	%edi
	pushl	$16
	pushl	%eax
	leal	16(%ebx), %eax
	pushl	%eax
	call	ali_aes_process
.LVL75:
	.loc 1 430 0
	addl	$16, %esp
	testl	%eax, %eax
	je	.L79
	.loc 1 431 0
	pushl	%eax
	pushl	$431
	pushl	$__FUNCTION__.3712
	pushl	$.LC11
	jmp	.L91
.L79:
	.loc 1 433 0
	leal	32(%esi), %eax
.LVL76:
	pushl	%edi
	pushl	$16
	pushl	%eax
	leal	32(%ebx), %eax
	pushl	%eax
	call	ali_aes_process
.LVL77:
	.loc 1 434 0
	addl	$16, %esp
	testl	%eax, %eax
	je	.L80
	.loc 1 435 0
	pushl	%eax
	pushl	$435
	pushl	$__FUNCTION__.3712
	pushl	$.LC12
.L91:
	call	printf
.LVL78:
	addl	$16, %esp
	jmp	.L89
.LVL79:
.L80:
.LVL80:
	.loc 1 439 0
	pushl	%eax
	pushl	%eax
	leal	-32(%ebp), %eax
	addl	$48, %esi
	addl	$48, %ebx
	pushl	%edi
	pushl	$0
	pushl	%eax
	pushl	%esi
	pushl	$48
	pushl	%ebx
	.loc 1 438 0
	movl	$48, -32(%ebp)
	.loc 1 439 0
	call	ali_aes_finish
.LVL81:
	.loc 1 442 0
	addl	$32, %esp
	testl	%eax, %eax
	jne	.L81
.L83:
	.loc 1 456 0
	xorl	%eax, %eax
.LVL82:
	jmp	.L74
.LVL83:
.L81:
	.loc 1 443 0
	subl	$12, %esp
	pushl	-32(%ebp)
	pushl	%eax
	pushl	$443
	jmp	.L90
.L76:
.LVL84:
	.loc 1 446 0
	pushl	%eax
	pushl	$446
	pushl	$__FUNCTION__.3712
	pushl	$.LC14
	call	printf
.LVL85:
	.loc 1 448 0
	popl	%edx
	leal	-32(%ebp), %eax
	.loc 1 447 0
	movl	$96, -32(%ebp)
	.loc 1 448 0
	popl	%ecx
	pushl	%edi
	pushl	$0
	pushl	%eax
	pushl	%esi
	pushl	$96
	pushl	%ebx
	call	ali_aes_finish
.LVL86:
	.loc 1 451 0
	addl	$32, %esp
	testl	%eax, %eax
	jne	.L82
	.loc 1 451 0 is_stmt 0 discriminator 1
	cmpl	$96, -32(%ebp)
	je	.L83
.L82:
	.loc 1 452 0 is_stmt 1
	subl	$12, %esp
	pushl	-32(%ebp)
	pushl	%eax
	pushl	$452
.L90:
	pushl	$__FUNCTION__.3712
	pushl	$.LC13
	call	printf
.LVL87:
	addl	$32, %esp
.L89:
	orl	$-1, %eax
.L74:
	.loc 1 457 0
	movl	-28(%ebp), %ecx
	xorl	%gs:20, %ecx
	je	.L84
	call	__stack_chk_fail
.LVL88:
.L84:
	leal	-12(%ebp), %esp
	popl	%ebx
	.cfi_restore 3
	popl	%esi
	.cfi_restore 6
	popl	%edi
	.cfi_restore 7
	popl	%ebp
	.cfi_restore 5
	.cfi_def_cfa 4, 4
	ret
	.cfi_endproc
.LFE2:
	.size	_aes_cbc_encrypt_decrypt, .-_aes_cbc_encrypt_decrypt
	.section	.text.unlikely._aes_cbc_encrypt_decrypt
.LCOLDE15:
	.section	.text._aes_cbc_encrypt_decrypt
.LHOTE15:
	.section	.rodata.str1.1
.LC16:
	.string	"I %s %d: process finis\n"
	.section	.text.unlikely._aes_cbc_pkcs_encrypt_decrypt,"ax",@progbits
.LCOLDB17:
	.section	.text._aes_cbc_pkcs_encrypt_decrypt,"ax",@progbits
.LHOTB17:
	.type	_aes_cbc_pkcs_encrypt_decrypt, @function
_aes_cbc_pkcs_encrypt_decrypt:
.LFB5:
	.loc 1 623 0
	.cfi_startproc
.LVL89:
	pushl	%ebp
	.cfi_def_cfa_offset 8
	.cfi_offset 5, -8
	.loc 1 629 0
	movzbl	%dl, %edx
	.loc 1 623 0
	movl	%esp, %ebp
	.cfi_def_cfa_register 5
	pushl	%edi
	pushl	%esi
	pushl	%ebx
	subl	$48, %esp
	.cfi_offset 7, -12
	.cfi_offset 6, -16
	.cfi_offset 3, -20
	.loc 1 623 0
	movl	24(%ebp), %esi
	movl	%eax, -48(%ebp)
	movl	8(%ebp), %eax
.LVL90:
	.loc 1 629 0
	movl	%ecx, -56(%ebp)
	movl	%edx, -52(%ebp)
	.loc 1 623 0
	movl	16(%ebp), %ebx
	.loc 1 629 0
	pushl	%esi
	pushl	$0
	pushl	%ecx
	pushl	$0
	pushl	$_g_aes_key
	pushl	%edx
	pushl	$1
	.loc 1 623 0
	movl	%eax, -44(%ebp)
	movl	20(%ebp), %edi
	movl	%gs:20, %eax
	movl	%eax, -28(%ebp)
	xorl	%eax, %eax
	.loc 1 629 0
	call	ali_aes_init
.LVL91:
	.loc 1 631 0
	addl	$32, %esp
	testl	%eax, %eax
	movl	-52(%ebp), %edx
	movl	-56(%ebp), %ecx
	je	.L108
.LVL92:
	.loc 1 636 0
	pushl	%eax
	pushl	%esi
	pushl	$_g_aes_iv
	pushl	%ecx
	pushl	$0
	pushl	$_g_aes_key
	pushl	%edx
	pushl	$1
	call	ali_aes_init
.LVL93:
	.loc 1 638 0
	addl	$32, %esp
	testl	%eax, %eax
	je	.L95
	.loc 1 639 0
	pushl	%eax
	pushl	$639
	pushl	$__FUNCTION__.3749
	pushl	$.LC9
	jmp	.L111
.L95:
	.loc 1 642 0
	testb	$1, -48(%ebp)
	je	.L96
.LVL94:
	.loc 1 643 0
	pushl	%eax
	pushl	$643
	pushl	$__FUNCTION__.3749
	pushl	$.LC16
	call	printf
.LVL95:
	.loc 1 646 0
	pushl	%esi
	pushl	$17
	pushl	%ebx
	pushl	-44(%ebp)
	call	ali_aes_process
.LVL96:
	.loc 1 647 0
	addl	$32, %esp
	testl	%eax, %eax
	je	.L108
	.loc 1 651 0
	pushl	%esi
	pushl	$16
	pushl	%ebx
	pushl	-44(%ebp)
	call	ali_aes_process
.LVL97:
	.loc 1 652 0
	addl	$16, %esp
	testl	%eax, %eax
	je	.L98
	.loc 1 653 0
	pushl	%eax
	pushl	$653
	pushl	$__FUNCTION__.3749
	pushl	$.LC10
	jmp	.L111
.L98:
	.loc 1 655 0
	leal	16(%ebx), %eax
.LVL98:
	pushl	%esi
	pushl	$16
	pushl	%eax
	movl	-44(%ebp), %eax
	addl	$16, %eax
	pushl	%eax
	call	ali_aes_process
.LVL99:
	.loc 1 656 0
	addl	$16, %esp
	testl	%eax, %eax
	je	.L99
	.loc 1 657 0
	pushl	%eax
	pushl	$657
	pushl	$__FUNCTION__.3749
	pushl	$.LC11
	jmp	.L111
.L99:
	.loc 1 659 0
	leal	32(%ebx), %eax
.LVL100:
	pushl	%esi
	pushl	$16
	pushl	%eax
	movl	-44(%ebp), %eax
	addl	$32, %eax
	pushl	%eax
	call	ali_aes_process
.LVL101:
	.loc 1 660 0
	addl	$16, %esp
	testl	%eax, %eax
	je	.L100
	.loc 1 661 0
	pushl	%eax
	pushl	$661
	pushl	$__FUNCTION__.3749
	pushl	$.LC12
.L111:
	call	printf
.LVL102:
	addl	$16, %esp
	jmp	.L108
.LVL103:
.L100:
	.loc 1 664 0
	movl	(%edi), %eax
.LVL104:
	.loc 1 665 0
	addl	$48, %ebx
	.loc 1 664 0
	subl	$48, %eax
	movl	%eax, -32(%ebp)
	.loc 1 665 0
	pushl	%eax
	pushl	%eax
	leal	-32(%ebp), %eax
	pushl	%esi
	pushl	$1
	pushl	%eax
	movl	12(%ebp), %eax
	pushl	%ebx
	subl	$48, %eax
	pushl	%eax
	movl	-44(%ebp), %eax
	addl	$48, %eax
	pushl	%eax
	call	ali_aes_finish
.LVL105:
	.loc 1 668 0
	addl	$32, %esp
	testl	%eax, %eax
	je	.L101
	.loc 1 669 0
	subl	$12, %esp
	pushl	-32(%ebp)
	pushl	%eax
	pushl	$669
.L109:
	pushl	$__FUNCTION__.3749
	pushl	$.LC13
	call	printf
.LVL106:
	addl	$32, %esp
.L108:
	orl	$-1, %eax
	jmp	.L94
.LVL107:
.L101:
	.loc 1 672 0
	movl	-32(%ebp), %eax
.LVL108:
	addl	$48, %eax
	jmp	.L110
.LVL109:
.L96:
.LVL110:
	.loc 1 674 0
	pushl	%eax
	pushl	$674
	pushl	$__FUNCTION__.3749
	pushl	$.LC14
	call	printf
.LVL111:
	.loc 1 675 0
	movl	(%edi), %eax
	.loc 1 676 0
	popl	%edx
	popl	%ecx
	.loc 1 675 0
	movl	%eax, -32(%ebp)
	.loc 1 676 0
	leal	-32(%ebp), %eax
	pushl	%esi
	pushl	$1
	pushl	%eax
	pushl	%ebx
	pushl	12(%ebp)
	pushl	-44(%ebp)
	call	ali_aes_finish
.LVL112:
	.loc 1 679 0
	addl	$32, %esp
	testl	%eax, %eax
	je	.L102
	.loc 1 680 0
	subl	$12, %esp
	pushl	-32(%ebp)
	pushl	%eax
	pushl	$680
	jmp	.L109
.L102:
	.loc 1 682 0
	movl	-32(%ebp), %eax
.LVL113:
.L110:
	movl	%eax, (%edi)
	.loc 1 685 0
	xorl	%eax, %eax
.L94:
	.loc 1 686 0
	movl	-28(%ebp), %edi
	xorl	%gs:20, %edi
	je	.L103
	call	__stack_chk_fail
.LVL114:
.L103:
	leal	-12(%ebp), %esp
	popl	%ebx
	.cfi_restore 3
	popl	%esi
	.cfi_restore 6
	popl	%edi
	.cfi_restore 7
	popl	%ebp
	.cfi_restore 5
	.cfi_def_cfa 4, 4
	ret
	.cfi_endproc
.LFE5:
	.size	_aes_cbc_pkcs_encrypt_decrypt, .-_aes_cbc_pkcs_encrypt_decrypt
	.section	.text.unlikely._aes_cbc_pkcs_encrypt_decrypt
.LCOLDE17:
	.section	.text._aes_cbc_pkcs_encrypt_decrypt
.LHOTE17:
	.section	.rodata.str1.1
.LC18:
	.string	"E %s %d: aes_ctr init fail(%08x)\n"
.LC19:
	.string	"E %s %d: aes_ctr process 1th fail(%08x)"
.LC20:
	.string	"E %s %d: aes_ctr process 2th fail(%08x)"
.LC21:
	.string	"E %s %d: aes_ctr process 3th fail(%08x)"
.LC22:
	.string	"E %s %d: aes_ctr finish fail(%08x)"
	.section	.text.unlikely._aes_ctr_encrypt_decrypt,"ax",@progbits
.LCOLDB23:
	.section	.text._aes_ctr_encrypt_decrypt,"ax",@progbits
.LHOTB23:
	.type	_aes_ctr_encrypt_decrypt, @function
_aes_ctr_encrypt_decrypt:
.LFB3:
	.loc 1 461 0
	.cfi_startproc
.LVL115:
	pushl	%ebp
	.cfi_def_cfa_offset 8
	.cfi_offset 5, -8
	.loc 1 467 0
	movzbl	%dl, %edx
	.loc 1 461 0
	movl	%esp, %ebp
	.cfi_def_cfa_register 5
	pushl	%edi
	pushl	%esi
	pushl	%ebx
	subl	$48, %esp
	.cfi_offset 7, -12
	.cfi_offset 6, -16
	.cfi_offset 3, -20
	.loc 1 461 0
	movl	16(%ebp), %edi
	movl	%eax, -48(%ebp)
	movl	%ecx, -44(%ebp)
	movl	8(%ebp), %ebx
	movl	%gs:20, %eax
	movl	%eax, -28(%ebp)
	xorl	%eax, %eax
.LVL116:
	.loc 1 467 0
	pushl	%edi
	pushl	$0
	pushl	%ecx
	pushl	$0
	pushl	$_g_aes_key
	pushl	%edx
	pushl	$2
	.loc 1 461 0
	movl	12(%ebp), %esi
	.loc 1 467 0
	movl	%edx, -52(%ebp)
	call	ali_aes_init
.LVL117:
	.loc 1 469 0
	addl	$32, %esp
	.loc 1 470 0
	orl	$-1, %ecx
	.loc 1 469 0
	testl	%eax, %eax
	je	.L113
	.loc 1 474 0
	movl	-52(%ebp), %edx
	pushl	%ecx
	pushl	%edi
	pushl	$_g_aes_iv
	pushl	-44(%ebp)
	pushl	$0
	pushl	$_g_aes_key
	pushl	%edx
	pushl	$2
	call	ali_aes_init
.LVL118:
	.loc 1 476 0
	addl	$32, %esp
	testl	%eax, %eax
	je	.L114
	.loc 1 477 0
	pushl	%eax
	pushl	$477
	pushl	$__FUNCTION__.3723
	pushl	$.LC18
	jmp	.L125
.L114:
	.loc 1 480 0
	testb	$1, -48(%ebp)
	je	.L115
	.loc 1 481 0
	pushl	%edi
	pushl	$13
	pushl	%esi
	pushl	%ebx
	call	ali_aes_process
.LVL119:
	.loc 1 482 0
	addl	$16, %esp
	testl	%eax, %eax
	je	.L116
	.loc 1 483 0
	pushl	%eax
	pushl	$483
	pushl	$__FUNCTION__.3723
	pushl	$.LC19
	jmp	.L125
.L116:
	.loc 1 485 0
	leal	13(%esi), %eax
.LVL120:
	pushl	%edi
	pushl	$27
	pushl	%eax
	leal	13(%ebx), %eax
	pushl	%eax
	call	ali_aes_process
.LVL121:
	.loc 1 486 0
	addl	$16, %esp
	testl	%eax, %eax
	je	.L117
	.loc 1 487 0
	pushl	%eax
	pushl	$487
	pushl	$__FUNCTION__.3723
	pushl	$.LC20
	jmp	.L125
.L117:
	.loc 1 489 0
	leal	40(%esi), %eax
.LVL122:
	pushl	%edi
	pushl	$8
	pushl	%eax
	leal	40(%ebx), %eax
	pushl	%eax
	call	ali_aes_process
.LVL123:
	.loc 1 490 0
	addl	$16, %esp
	testl	%eax, %eax
	je	.L118
	.loc 1 491 0
	pushl	%eax
	pushl	$491
	pushl	$__FUNCTION__.3723
	pushl	$.LC21
	jmp	.L125
.L118:
	.loc 1 495 0
	leal	-32(%ebp), %eax
.LVL124:
	addl	$48, %esi
	addl	$48, %ebx
	pushl	%edx
	pushl	%edx
	pushl	%edi
	pushl	$0
	pushl	%eax
	pushl	%esi
	pushl	$93
	pushl	%ebx
	.loc 1 494 0
	movl	$93, -32(%ebp)
	.loc 1 495 0
	call	ali_aes_finish
.LVL125:
	.loc 1 498 0
	addl	$32, %esp
	testl	%eax, %eax
	jne	.L119
.L121:
	.loc 1 511 0
	xorl	%ecx, %ecx
	jmp	.L113
.L119:
	.loc 1 499 0
	pushl	%eax
	pushl	$499
	jmp	.L126
.L115:
.LVL126:
	.loc 1 503 0
	pushl	%eax
	pushl	%eax
	leal	-32(%ebp), %eax
	pushl	%edi
	pushl	$0
	pushl	%eax
	pushl	%esi
	pushl	$141
	pushl	%ebx
	.loc 1 502 0
	movl	$141, -32(%ebp)
	.loc 1 503 0
	call	ali_aes_finish
.LVL127:
	.loc 1 506 0
	addl	$32, %esp
	testl	%eax, %eax
	jne	.L120
	.loc 1 506 0 is_stmt 0 discriminator 1
	cmpl	$141, -32(%ebp)
	je	.L121
.L120:
	.loc 1 507 0 is_stmt 1
	pushl	%eax
	pushl	$507
.L126:
	pushl	$__FUNCTION__.3723
	pushl	$.LC22
.L125:
	call	printf
.LVL128:
	addl	$16, %esp
	orl	$-1, %ecx
.L113:
	.loc 1 512 0
	movl	-28(%ebp), %edx
	xorl	%gs:20, %edx
	movl	%ecx, %eax
	je	.L122
	call	__stack_chk_fail
.LVL129:
.L122:
	leal	-12(%ebp), %esp
	popl	%ebx
	.cfi_restore 3
	popl	%esi
	.cfi_restore 6
	popl	%edi
	.cfi_restore 7
	popl	%ebp
	.cfi_restore 5
	.cfi_def_cfa 4, 4
	ret
	.cfi_endproc
.LFE3:
	.size	_aes_ctr_encrypt_decrypt, .-_aes_ctr_encrypt_decrypt
	.section	.text.unlikely._aes_ctr_encrypt_decrypt
.LCOLDE23:
	.section	.text._aes_ctr_encrypt_decrypt
.LHOTE23:
	.section	.rodata.str1.1
.LC24:
	.string	"E %s %d: get ctx size fail(%08x)\n"
.LC25:
	.string	"E %s %d: malloc(%d) fail\n"
.LC26:
	.string	"E %s %d: ctr encrypt fail!\n"
.LC27:
	.string	"E %s %d: ctr decrypt fail!\n"
.LC28:
	.string	"plaintext"
.LC29:
	.string	"ciphertext"
.LC30:
	.string	"E %s %d: AES_CTR_%d test fail!\n"
.LC31:
	.string	"I %s %d: AES_CTR_%d test success!\n"
	.section	.text.unlikely._ali_crypto_aes_ctr_test,"ax",@progbits
.LCOLDB32:
	.section	.text._ali_crypto_aes_ctr_test,"ax",@progbits
.LHOTB32:
	.type	_ali_crypto_aes_ctr_test, @function
_ali_crypto_aes_ctr_test:
.LFB9:
	.loc 1 1173 0
	.cfi_startproc
	pushl	%ebp
	.cfi_def_cfa_offset 8
	.cfi_offset 5, -8
	movl	%esp, %ebp
	.cfi_def_cfa_register 5
	pushl	%edi
	pushl	%esi
	pushl	%ebx
	.cfi_offset 7, -12
	.cfi_offset 6, -16
	.cfi_offset 3, -20
	.loc 1 1186 0
	movl	$16, %ebx
	.loc 1 1173 0
	subl	$332, %esp
	.loc 1 1184 0
	movl	$0, -332(%ebp)
	.loc 1 1187 0
	movl	$_g_ctr_128_enc, -336(%ebp)
	.loc 1 1173 0
	movl	%gs:20, %eax
	movl	%eax, -28(%ebp)
	xorl	%eax, %eax
.LVL130:
.L128:
	.loc 1 1196 0
	pushl	%eax
	pushl	%eax
	leal	-316(%ebp), %eax
	pushl	%eax
	pushl	$2
	call	ali_aes_get_ctx_size
.LVL131:
	.loc 1 1197 0
	addl	$16, %esp
	testl	%eax, %eax
	je	.L130
	.loc 1 1198 0
	pushl	%eax
	pushl	$1198
	pushl	$__FUNCTION__.3817
	pushl	$.LC24
	jmp	.L145
.L130:
	.loc 1 1201 0
	movl	-316(%ebp), %ecx
	subl	$12, %esp
	pushl	%ecx
	movl	%ecx, -340(%ebp)
	call	malloc
.LVL132:
	.loc 1 1202 0
	addl	$16, %esp
	testl	%eax, %eax
	.loc 1 1201 0
	movl	%eax, %esi
.LVL133:
	.loc 1 1202 0
	movl	-340(%ebp), %ecx
	jne	.L132
	.loc 1 1203 0
	pushl	%ecx
	pushl	$1203
	pushl	$__FUNCTION__.3817
	pushl	$.LC25
.LVL134:
.L145:
	call	printf
.LVL135:
	jmp	.L147
.LVL136:
.L132:
	.loc 1 1207 0
	movl	%eax, %edi
	xorl	%eax, %eax
.LVL137:
	.loc 1 1208 0
	movl	$1, %edx
	.loc 1 1207 0
	rep stosb
	.loc 1 1208 0
	pushl	%eax
	leal	-169(%ebp), %eax
	pushl	%esi
	movl	%ebx, %ecx
	pushl	%eax
	movl	-332(%ebp), %eax
	pushl	$_g_test_data
	call	_aes_ctr_encrypt_decrypt
.LVL138:
	.loc 1 1210 0
	addl	$16, %esp
	testl	%eax, %eax
	jns	.L133
.LVL139:
	.loc 1 1211 0
	pushl	%eax
	pushl	$1211
	pushl	$__FUNCTION__.3817
	pushl	$.LC26
	jmp	.L146
.LVL140:
.L133:
	.loc 1 1215 0
	movl	-316(%ebp), %ecx
	xorl	%eax, %eax
.LVL141:
	movl	%esi, %edi
	.loc 1 1216 0
	xorl	%edx, %edx
	.loc 1 1215 0
	rep stosb
	.loc 1 1216 0
	leal	-169(%ebp), %eax
	movl	%ebx, %ecx
	pushl	%edi
	leal	-310(%ebp), %edi
	pushl	%esi
	pushl	%edi
	pushl	%eax
	movl	-332(%ebp), %eax
	call	_aes_ctr_encrypt_decrypt
.LVL142:
	.loc 1 1218 0
	addl	$16, %esp
	testl	%eax, %eax
	jns	.L135
.LVL143:
	.loc 1 1219 0
	pushl	%ebx
	pushl	$1219
	pushl	$__FUNCTION__.3817
	pushl	$.LC27
.LVL144:
.L146:
	call	printf
.LVL145:
	addl	$16, %esp
	jmp	.L134
.LVL146:
.L135:
	.loc 1 1223 0
	pushl	%ecx
	pushl	$141
	pushl	$_g_test_data
	pushl	%edi
	call	memcmp
.LVL147:
	addl	$16, %esp
	testl	%eax, %eax
	je	.L136
.LVL148:
.L137:
	.loc 1 1225 0
	pushl	%edx
	pushl	$141
	.loc 1 1227 0
	sall	$3, %ebx
.LVL149:
	.loc 1 1225 0
	pushl	%edi
	pushl	$.LC28
	call	ali_crypto_print_data
.LVL150:
	.loc 1 1226 0
	leal	-169(%ebp), %eax
	addl	$12, %esp
	pushl	$141
	pushl	%eax
	pushl	$.LC29
	call	ali_crypto_print_data
.LVL151:
	.loc 1 1227 0
	pushl	%ebx
	pushl	$1227
	pushl	$__FUNCTION__.3817
	pushl	$.LC30
	call	printf
.LVL152:
	addl	$32, %esp
	jmp	.L134
.LVL153:
.L136:
	.loc 1 1224 0 discriminator 1
	pushl	%eax
	leal	-169(%ebp), %eax
	pushl	$141
	pushl	-336(%ebp)
	pushl	%eax
	call	memcmp
.LVL154:
	addl	$16, %esp
	.loc 1 1223 0 discriminator 1
	testl	%eax, %eax
	movl	%eax, -336(%ebp)
.LVL155:
	jne	.L137
	.loc 1 1229 0 discriminator 2
	sall	$3, %ebx
.LVL156:
	pushl	%ebx
	pushl	$1229
	pushl	$__FUNCTION__.3817
	pushl	$.LC31
	call	printf
.LVL157:
	.loc 1 1232 0 discriminator 2
	movl	%esi, (%esp)
	call	free
.LVL158:
	.loc 1 1184 0 discriminator 2
	incl	-332(%ebp)
.LVL159:
	addl	$16, %esp
	movl	-336(%ebp), %edx
	cmpl	$3, -332(%ebp)
	je	.L139
.LVL160:
	.loc 1 1193 0
	cmpl	$1, -332(%ebp)
	movl	$_g_ctr_256_enc, %eax
	movl	$_g_ctr_192_enc, %edx
	setne	%bl
	cmove	%edx, %eax
	movzbl	%bl, %ebx
	movl	%eax, -336(%ebp)
	leal	24(,%ebx,8), %ebx
	jmp	.L128
.LVL161:
.L134:
	.loc 1 1240 0
	subl	$12, %esp
	pushl	%esi
	call	free
.LVL162:
.L147:
	addl	$16, %esp
	.loc 1 1243 0
	orl	$-1, %edx
.LVL163:
.L139:
	.loc 1 1244 0
	movl	-28(%ebp), %esi
	xorl	%gs:20, %esi
	movl	%edx, %eax
	je	.L140
	call	__stack_chk_fail
.LVL164:
.L140:
	leal	-12(%ebp), %esp
	popl	%ebx
	.cfi_restore 3
	popl	%esi
	.cfi_restore 6
	popl	%edi
	.cfi_restore 7
	popl	%ebp
	.cfi_restore 5
	.cfi_def_cfa 4, 4
	ret
	.cfi_endproc
.LFE9:
	.size	_ali_crypto_aes_ctr_test, .-_ali_crypto_aes_ctr_test
	.section	.text.unlikely._ali_crypto_aes_ctr_test
.LCOLDE32:
	.section	.text._ali_crypto_aes_ctr_test
.LHOTE32:
	.section	.rodata.str1.1
.LC33:
	.string	"E %s %d: aes_cfb init fail(%08x)\n"
.LC34:
	.string	"E %s %d: aes_cfb process 1th fail(%08x)"
.LC35:
	.string	"E %s %d: aes_cfb process 2th fail(%08x)"
.LC36:
	.string	"E %s %d: aes_cfb process 3th fail(%08x)"
.LC37:
	.string	"E %s %d: aes_cfb finish fail(%08x)"
	.section	.text.unlikely._aes_cfb_encrypt_decrypt,"ax",@progbits
.LCOLDB38:
.LHOTB38:
	.type	_aes_cfb_encrypt_decrypt, @function
_aes_cfb_encrypt_decrypt:
.LFB6:
	.loc 1 797 0
	.cfi_startproc
.LVL165:
	pushl	%ebp
	.cfi_def_cfa_offset 8
	.cfi_offset 5, -8
	.loc 1 803 0
	movzbl	%cl, %ecx
	.loc 1 797 0
	movl	%esp, %ebp
	.cfi_def_cfa_register 5
	pushl	%edi
	pushl	%esi
	pushl	%ebx
	subl	$48, %esp
	.cfi_offset 7, -12
	.cfi_offset 6, -16
	.cfi_offset 3, -20
	.loc 1 797 0
	movl	20(%ebp), %edi
	movl	%eax, -48(%ebp)
	movl	%edx, -44(%ebp)
	movl	12(%ebp), %ebx
	movl	%gs:20, %eax
	movl	%eax, -28(%ebp)
	xorl	%eax, %eax
.LVL166:
	.loc 1 803 0
	pushl	%edi
	pushl	$0
	pushl	8(%ebp)
	pushl	$0
	pushl	$_g_aes_key
	pushl	%ecx
	pushl	%edx
	.loc 1 797 0
	movl	16(%ebp), %esi
	.loc 1 803 0
	movl	%ecx, -52(%ebp)
	call	ali_aes_init
.LVL167:
	.loc 1 805 0
	addl	$32, %esp
	.loc 1 806 0
	orl	$-1, %edx
	.loc 1 805 0
	testl	%eax, %eax
	je	.L149
	.loc 1 810 0
	pushl	%ecx
	movl	-52(%ebp), %ecx
	pushl	%edi
	pushl	$_g_aes_iv
	pushl	8(%ebp)
	pushl	$0
	pushl	$_g_aes_key
	pushl	%ecx
	pushl	-44(%ebp)
	call	ali_aes_init
.LVL168:
	.loc 1 812 0
	addl	$32, %esp
	testl	%eax, %eax
	je	.L150
	.loc 1 813 0
	pushl	%eax
	pushl	$813
	pushl	$__FUNCTION__.3761
	pushl	$.LC33
	jmp	.L161
.L150:
	.loc 1 816 0
	testb	$1, -48(%ebp)
	je	.L151
	.loc 1 817 0
	pushl	%edi
	pushl	$13
	pushl	%esi
	pushl	%ebx
	call	ali_aes_process
.LVL169:
	.loc 1 818 0
	addl	$16, %esp
	testl	%eax, %eax
	je	.L152
	.loc 1 819 0
	pushl	%eax
	pushl	$819
	pushl	$__FUNCTION__.3761
	pushl	$.LC34
	jmp	.L161
.L152:
	.loc 1 821 0
	leal	13(%esi), %eax
.LVL170:
	pushl	%edi
	pushl	$27
	pushl	%eax
	leal	13(%ebx), %eax
	pushl	%eax
	call	ali_aes_process
.LVL171:
	.loc 1 822 0
	addl	$16, %esp
	testl	%eax, %eax
	je	.L153
	.loc 1 823 0
	pushl	%eax
	pushl	$823
	pushl	$__FUNCTION__.3761
	pushl	$.LC35
	jmp	.L161
.L153:
	.loc 1 825 0
	leal	40(%esi), %eax
.LVL172:
	pushl	%edi
	pushl	$8
	pushl	%eax
	leal	40(%ebx), %eax
	pushl	%eax
	call	ali_aes_process
.LVL173:
	.loc 1 826 0
	addl	$16, %esp
	testl	%eax, %eax
	je	.L154
	.loc 1 827 0
	pushl	%eax
	pushl	$827
	pushl	$__FUNCTION__.3761
	pushl	$.LC36
	jmp	.L161
.L154:
	.loc 1 831 0
	leal	-32(%ebp), %eax
.LVL174:
	addl	$48, %esi
	addl	$48, %ebx
	pushl	%edx
	pushl	%edx
	pushl	%edi
	pushl	$0
	pushl	%eax
	pushl	%esi
	pushl	$93
	pushl	%ebx
	.loc 1 830 0
	movl	$93, -32(%ebp)
	.loc 1 831 0
	call	ali_aes_finish
.LVL175:
	.loc 1 834 0
	addl	$32, %esp
	testl	%eax, %eax
	jne	.L155
.L157:
	.loc 1 847 0
	xorl	%edx, %edx
	jmp	.L149
.L155:
	.loc 1 835 0
	pushl	%eax
	pushl	$835
	jmp	.L162
.L151:
.LVL176:
	.loc 1 839 0
	pushl	%eax
	pushl	%eax
	leal	-32(%ebp), %eax
	pushl	%edi
	pushl	$0
	pushl	%eax
	pushl	%esi
	pushl	$141
	pushl	%ebx
	.loc 1 838 0
	movl	$141, -32(%ebp)
	.loc 1 839 0
	call	ali_aes_finish
.LVL177:
	.loc 1 842 0
	addl	$32, %esp
	testl	%eax, %eax
	jne	.L156
	.loc 1 842 0 is_stmt 0 discriminator 1
	cmpl	$141, -32(%ebp)
	je	.L157
.L156:
	.loc 1 843 0 is_stmt 1
	pushl	%eax
	pushl	$843
.L162:
	pushl	$__FUNCTION__.3761
	pushl	$.LC37
.L161:
	call	printf
.LVL178:
	addl	$16, %esp
	orl	$-1, %edx
.L149:
	.loc 1 848 0
	movl	-28(%ebp), %ecx
	xorl	%gs:20, %ecx
	movl	%edx, %eax
	je	.L158
	call	__stack_chk_fail
.LVL179:
.L158:
	leal	-12(%ebp), %esp
	popl	%ebx
	.cfi_restore 3
	popl	%esi
	.cfi_restore 6
	popl	%edi
	.cfi_restore 7
	popl	%ebp
	.cfi_restore 5
	.cfi_def_cfa 4, 4
	ret
	.cfi_endproc
.LFE6:
	.size	_aes_cfb_encrypt_decrypt, .-_aes_cfb_encrypt_decrypt
.LCOLDE38:
.LHOTE38:
	.section	.rodata.str1.1
.LC39:
	.string	"E %s %d: AES_CFB_%d test fail!\n"
.LC40:
	.string	"I %s %d: AES_CFB_%d test success!\n"
	.section	.text.unlikely._ali_crypto_aes_cfb_test,"ax",@progbits
.LCOLDB41:
	.section	.text._ali_crypto_aes_cfb_test,"ax",@progbits
.LHOTB41:
	.type	_ali_crypto_aes_cfb_test, @function
_ali_crypto_aes_cfb_test:
.LFB10:
	.loc 1 1248 0
	.cfi_startproc
	pushl	%ebp
	.cfi_def_cfa_offset 8
	.cfi_offset 5, -8
	movl	%esp, %ebp
	.cfi_def_cfa_register 5
	pushl	%edi
	pushl	%esi
	pushl	%ebx
	subl	$332, %esp
	.cfi_offset 7, -12
	.cfi_offset 6, -16
	.cfi_offset 3, -20
	.loc 1 1259 0
	movl	$6, -332(%ebp)
	.loc 1 1248 0
	movl	%gs:20, %eax
	movl	%eax, -28(%ebp)
	xorl	%eax, %eax
.LVL180:
.L164:
	movl	$0, -336(%ebp)
.LVL181:
.L176:
	.loc 1 1261 0
	cmpl	$0, -336(%ebp)
	jne	.L165
.LVL182:
	.loc 1 1264 0
	cmpl	$6, -332(%ebp)
	movl	$_g_cfb8_128_enc, %eax
	movl	$_g_cfb128_128_enc, %edx
	movl	$16, %ebx
	cmovne	%edx, %eax
	movl	%eax, -340(%ebp)
	jmp	.L166
.LVL183:
.L165:
	.loc 1 1270 0
	cmpl	$1, -336(%ebp)
	jne	.L167
.LVL184:
	.loc 1 1273 0
	cmpl	$6, -332(%ebp)
	movl	$_g_cfb8_192_enc, %eax
	movl	$_g_cfb128_192_enc, %edx
	movl	$24, %ebx
	cmovne	%edx, %eax
	movl	%eax, -340(%ebp)
	jmp	.L166
.LVL185:
.L167:
	.loc 1 1282 0
	cmpl	$6, -332(%ebp)
	movl	$_g_cfb8_256_enc, %eax
	movl	$_g_cfb128_256_enc, %edx
	movl	$32, %ebx
	cmovne	%edx, %eax
	movl	%eax, -340(%ebp)
.LVL186:
.L166:
	.loc 1 1290 0
	pushl	%eax
	pushl	%eax
	leal	-316(%ebp), %eax
	pushl	%eax
	pushl	-332(%ebp)
	call	ali_aes_get_ctx_size
.LVL187:
	.loc 1 1291 0
	addl	$16, %esp
	testl	%eax, %eax
	je	.L168
	.loc 1 1292 0
	pushl	%eax
	pushl	$1292
	pushl	$__FUNCTION__.3835
	pushl	$.LC24
	jmp	.L190
.L168:
	.loc 1 1295 0
	movl	-316(%ebp), %ecx
	subl	$12, %esp
	pushl	%ecx
	movl	%ecx, -344(%ebp)
	call	malloc
.LVL188:
	.loc 1 1296 0
	addl	$16, %esp
	testl	%eax, %eax
	.loc 1 1295 0
	movl	%eax, %esi
.LVL189:
	.loc 1 1296 0
	movl	-344(%ebp), %ecx
	jne	.L170
	.loc 1 1297 0
	pushl	%ecx
	pushl	$1297
	pushl	$__FUNCTION__.3835
	pushl	$.LC25
.LVL190:
.L190:
	call	printf
.LVL191:
	jmp	.L189
.LVL192:
.L170:
	.loc 1 1301 0
	movl	%eax, %edi
	xorl	%eax, %eax
.LVL193:
	.loc 1 1302 0
	movl	-332(%ebp), %edx
	.loc 1 1301 0
	rep stosb
	.loc 1 1302 0
	leal	-169(%ebp), %eax
	pushl	%esi
	movl	$1, %ecx
	pushl	%eax
	movl	-336(%ebp), %eax
	pushl	$_g_test_data
	pushl	%ebx
	call	_aes_cfb_encrypt_decrypt
.LVL194:
	.loc 1 1304 0
	addl	$16, %esp
	testl	%eax, %eax
	jns	.L171
	.loc 1 1305 0
	pushl	%edi
	pushl	$1305
	pushl	$__FUNCTION__.3835
	pushl	$.LC26
	jmp	.L188
.L171:
	.loc 1 1309 0
	movl	-316(%ebp), %ecx
	xorl	%eax, %eax
.LVL195:
	movl	%esi, %edi
	.loc 1 1310 0
	movl	-332(%ebp), %edx
	.loc 1 1309 0
	rep stosb
	.loc 1 1310 0
	leal	-169(%ebp), %eax
	leal	-310(%ebp), %edi
	pushl	%esi
	pushl	%edi
	pushl	%eax
	movl	-336(%ebp), %eax
	pushl	%ebx
	call	_aes_cfb_encrypt_decrypt
.LVL196:
	.loc 1 1312 0
	addl	$16, %esp
	testl	%eax, %eax
	jns	.L173
.LVL197:
	.loc 1 1313 0
	pushl	%ebx
	pushl	$1313
	pushl	$__FUNCTION__.3835
	pushl	$.LC27
.L188:
	call	printf
.LVL198:
	addl	$16, %esp
	jmp	.L172
.LVL199:
.L173:
	.loc 1 1317 0
	pushl	%ecx
	pushl	$141
	pushl	$_g_test_data
	pushl	%edi
	call	memcmp
.LVL200:
	addl	$16, %esp
	testl	%eax, %eax
	je	.L174
.LVL201:
.L175:
	.loc 1 1319 0
	pushl	%edx
	pushl	$141
	.loc 1 1321 0
	sall	$3, %ebx
.LVL202:
	.loc 1 1319 0
	pushl	%edi
	pushl	$.LC28
	call	ali_crypto_print_data
.LVL203:
	.loc 1 1320 0
	leal	-169(%ebp), %eax
	addl	$12, %esp
	pushl	$141
	pushl	%eax
	pushl	$.LC29
	call	ali_crypto_print_data
.LVL204:
	.loc 1 1321 0
	pushl	%ebx
	pushl	$1321
	pushl	$__FUNCTION__.3835
	pushl	$.LC39
	call	printf
.LVL205:
	addl	$32, %esp
	jmp	.L172
.LVL206:
.L174:
	.loc 1 1318 0 discriminator 1
	pushl	%eax
	leal	-169(%ebp), %eax
	pushl	$141
	pushl	-340(%ebp)
	pushl	%eax
	call	memcmp
.LVL207:
	addl	$16, %esp
	.loc 1 1317 0 discriminator 1
	testl	%eax, %eax
	movl	%eax, -340(%ebp)
.LVL208:
	jne	.L175
	.loc 1 1323 0 discriminator 2
	sall	$3, %ebx
.LVL209:
	pushl	%ebx
	pushl	$1323
	pushl	$__FUNCTION__.3835
	pushl	$.LC40
	call	printf
.LVL210:
	.loc 1 1326 0 discriminator 2
	movl	%esi, (%esp)
	call	free
.LVL211:
	.loc 1 1260 0 discriminator 2
	incl	-336(%ebp)
.LVL212:
	addl	$16, %esp
	cmpl	$3, -336(%ebp)
	jne	.L176
	.loc 1 1259 0 discriminator 2
	incl	-332(%ebp)
.LVL213:
	movl	-340(%ebp), %edx
	cmpl	$8, -332(%ebp)
	je	.L177
	jmp	.L164
.LVL214:
.L172:
	.loc 1 1335 0
	subl	$12, %esp
	pushl	%esi
	call	free
.LVL215:
.L189:
	addl	$16, %esp
.LVL216:
	.loc 1 1338 0
	orl	$-1, %edx
.LVL217:
.L177:
	.loc 1 1339 0
	movl	-28(%ebp), %esi
	xorl	%gs:20, %esi
	movl	%edx, %eax
	je	.L178
	call	__stack_chk_fail
.LVL218:
.L178:
	leal	-12(%ebp), %esp
	popl	%ebx
	.cfi_restore 3
	popl	%esi
	.cfi_restore 6
	popl	%edi
	.cfi_restore 7
	popl	%ebp
	.cfi_restore 5
	.cfi_def_cfa 4, 4
	ret
	.cfi_endproc
.LFE10:
	.size	_ali_crypto_aes_cfb_test, .-_ali_crypto_aes_cfb_test
	.section	.text.unlikely._ali_crypto_aes_cfb_test
.LCOLDE41:
	.section	.text._ali_crypto_aes_cfb_test
.LHOTE41:
	.section	.rodata.str1.1
.LC42:
	.string	"I %s %d: Test aes ecb:\n"
.LC43:
	.string	"E %s %d: kmalloc(%d) fail\n"
.LC44:
	.string	"E %s %d: ecb encrypt fail!\n"
.LC45:
	.string	"E %s %d: ecb decrypt fail!\n"
.LC46:
	.string	"E %s %d: AES_ECB_%d test fail!\n"
.LC47:
	.string	"I %s %d: AES_ECB_%d test success!\n"
.LC48:
	.string	"E %s %d: AES_ECB_%d pkcs test fail!\n"
.LC49:
	.string	"I %s %d: AES_ECB_%d pkcs test success!\n"
.LC50:
	.string	"E %s %d: ali_aes_copy_context not expect!\n"
.LC51:
	.string	"E %s %d: ali_aes_reset fail %d!\n"
.LC52:
	.string	"I %s %d: Test aes cbc:\n"
.LC53:
	.string	"E %s %d: cbc encrypt fail!\n"
.LC54:
	.string	"E %s %d: cbc decrypt fail!\n"
.LC55:
	.string	"E %s %d: AES_CBC_%d test fail!\n"
.LC56:
	.string	"I %s %d: AES_CBC_%d test success!\n"
.LC57:
	.string	"I %s %d: Test aes ctr:\n"
.LC58:
	.string	"I %s %d: Test aes cfb:\n"
	.section	.text.unlikely.ali_crypto_aes_test,"ax",@progbits
.LCOLDB59:
	.section	.text.ali_crypto_aes_test,"ax",@progbits
.LHOTB59:
	.globl	ali_crypto_aes_test
	.type	ali_crypto_aes_test, @function
ali_crypto_aes_test:
.LFB11:
	.loc 1 1493 0
	.cfi_startproc
	pushl	%ebp
	.cfi_def_cfa_offset 8
	.cfi_offset 5, -8
	movl	%esp, %ebp
	.cfi_def_cfa_register 5
	pushl	%edi
	pushl	%esi
	pushl	%ebx
	subl	$292, %esp
	.cfi_offset 7, -12
	.cfi_offset 6, -16
	.cfi_offset 3, -20
	.loc 1 1498 0
	pushl	$0
	pushl	$0
	.loc 1 1493 0
	movl	%gs:20, %eax
	movl	%eax, -28(%ebp)
	xorl	%eax, %eax
	.loc 1 1498 0
	call	ali_aes_get_ctx_size
.LVL219:
	.loc 1 1499 0
	addl	$16, %esp
	testl	%eax, %eax
	.loc 1 1500 0
	movl	$-65536, %edx
	.loc 1 1499 0
	je	.L192
	.loc 1 1504 0
	pushl	%esi
	pushl	$1504
	pushl	$__FUNCTION__.3847
	pushl	$.LC42
	call	printf
.LVL220:
.LBB6:
.LBB7:
	.loc 1 867 0
	addl	$12, %esp
	pushl	$0
	pushl	$0
	pushl	$16
	pushl	$0
	pushl	$0
	pushl	$1
	pushl	$0
	call	ali_aes_init
.LVL221:
	.loc 1 869 0
	addl	$32, %esp
	testl	%eax, %eax
	je	.L236
	.loc 1 874 0
	subl	$12, %esp
	pushl	$0
	call	ali_aes_reset
.LVL222:
	.loc 1 875 0
	addl	$16, %esp
	testl	%eax, %eax
	je	.L236
	.loc 1 880 0
	pushl	%ebx
	pushl	%ebx
	pushl	$0
	pushl	$0
	call	ali_aes_copy_context
.LVL223:
	.loc 1 881 0
	addl	$16, %esp
	testl	%eax, %eax
	je	.L236
	.loc 1 910 0
	leal	-141(%ebp), %esi
	.loc 1 881 0
	movl	$0, -268(%ebp)
	movl	$_g_ecb_128_enc, -276(%ebp)
	movl	$16, -272(%ebp)
.LVL224:
.L196:
	.loc 1 898 0
	leal	-252(%ebp), %eax
	pushl	%ecx
	pushl	%ecx
	pushl	%eax
	pushl	$0
	call	ali_aes_get_ctx_size
.LVL225:
	.loc 1 899 0
	addl	$16, %esp
	testl	%eax, %eax
	je	.L198
	.loc 1 900 0
	pushl	%eax
	pushl	$900
	pushl	$__FUNCTION__.3778
	jmp	.L267
.L198:
	.loc 1 903 0
	movl	-252(%ebp), %ecx
	subl	$12, %esp
	pushl	%ecx
	movl	%ecx, -280(%ebp)
	call	malloc
.LVL226:
	.loc 1 904 0
	addl	$16, %esp
	testl	%eax, %eax
	.loc 1 903 0
	movl	%eax, %ebx
.LVL227:
	.loc 1 904 0
	movl	-280(%ebp), %ecx
	jne	.L199
	.loc 1 905 0
	pushl	%ecx
	pushl	$905
	pushl	$__FUNCTION__.3778
	pushl	$.LC43
	jmp	.L261
.L199:
	.loc 1 909 0
	movl	%eax, %edi
	xorl	%eax, %eax
.LVL228:
	rep stosb
	.loc 1 910 0
	movl	-272(%ebp), %ecx
	movl	-268(%ebp), %eax
	pushl	%edx
	pushl	%ebx
	movl	$1, %edx
	pushl	%esi
	pushl	$_g_test_data
	call	_aes_ecb_encrypt_decrypt
.LVL229:
	.loc 1 912 0
	addl	$16, %esp
	testl	%eax, %eax
	jns	.L200
.LVL230:
	.loc 1 913 0
	pushl	%eax
	pushl	$913
	jmp	.L265
.LVL231:
.L200:
	.loc 1 917 0
	movl	-252(%ebp), %ecx
	xorl	%eax, %eax
.LVL232:
	movl	%ebx, %edi
	.loc 1 918 0
	xorl	%edx, %edx
	.loc 1 917 0
	rep stosb
	.loc 1 918 0
	leal	-238(%ebp), %edi
	pushl	%eax
	movl	-272(%ebp), %ecx
	movl	-268(%ebp), %eax
	pushl	%ebx
	pushl	%edi
	pushl	%esi
	call	_aes_ecb_encrypt_decrypt
.LVL233:
	.loc 1 920 0
	addl	$16, %esp
	testl	%eax, %eax
	jns	.L202
.LVL234:
	.loc 1 921 0
	pushl	%eax
	pushl	$921
	jmp	.L266
.LVL235:
.L202:
.LVL236:
	.loc 1 925 0
	pushl	%eax
	pushl	$96
	pushl	-276(%ebp)
	pushl	%esi
	call	memcmp
.LVL237:
	addl	$16, %esp
	testl	%eax, %eax
	je	.L203
.L204:
	.loc 1 927 0
	pushl	%eax
	pushl	$96
	pushl	%edi
	pushl	$.LC28
	call	ali_crypto_print_data
.LVL238:
	.loc 1 928 0
	addl	$12, %esp
	pushl	$96
	pushl	%esi
	pushl	$.LC29
	call	ali_crypto_print_data
.LVL239:
	.loc 1 929 0
	movl	-272(%ebp), %eax
	sall	$3, %eax
	pushl	%eax
	pushl	$929
	pushl	$__FUNCTION__.3778
	pushl	$.LC46
	jmp	.L259
.L203:
	.loc 1 926 0
	pushl	%eax
	pushl	$96
	pushl	$_g_test_data
	pushl	%edi
	call	memcmp
.LVL240:
	addl	$16, %esp
	.loc 1 925 0
	testl	%eax, %eax
	jne	.L204
	.loc 1 931 0
	movl	-272(%ebp), %eax
	sall	$3, %eax
	pushl	%eax
	pushl	$931
	pushl	$__FUNCTION__.3778
	pushl	$.LC47
	movl	%eax, -276(%ebp)
.LVL241:
	call	printf
.LVL242:
	.loc 1 934 0
	addl	$16, %esp
	cmpl	$0, -268(%ebp)
	.loc 1 935 0
	movl	$_g_ecb_128_pkcs_enc, -280(%ebp)
	.loc 1 934 0
	je	.L205
	.loc 1 941 0
	cmpl	$1, -268(%ebp)
	movl	$_g_ecb_256_pkcs_enc, %eax
	movl	$_g_ecb_192_pkcs_enc, %edx
	cmove	%edx, %eax
	movl	%eax, -280(%ebp)
.L205:
.LVL243:
	.loc 1 945 0
	movl	-252(%ebp), %ecx
	xorl	%eax, %eax
	movl	%ebx, %edi
	.loc 1 949 0
	subl	$12, %esp
	movl	$1, %edx
	.loc 1 948 0
	movl	$112, -248(%ebp)
	.loc 1 945 0
	rep stosb
	.loc 1 946 0
	movl	%esi, %edi
	.loc 1 945 0
	movl	%ecx, %eax
	.loc 1 946 0
	movl	$28, %ecx
	rep stosl
	.loc 1 947 0
	leal	-238(%ebp), %edi
	movl	$24, %ecx
	rep stosl
	.loc 1 949 0
	leal	-248(%ebp), %eax
	pushl	%ebx
	movl	-272(%ebp), %ecx
	pushl	%eax
	movl	-268(%ebp), %eax
	pushl	%esi
	pushl	$96
	pushl	$_g_test_data
	call	_aes_ecb_pkcs_encrypt_decrypt
.LVL244:
	.loc 1 951 0
	addl	$32, %esp
	testl	%eax, %eax
	jns	.L206
	.loc 1 952 0
	pushl	%edi
	pushl	$952
.LVL245:
.L265:
	pushl	$__FUNCTION__.3778
	pushl	$.LC44
	jmp	.L258
.LVL246:
.L206:
	.loc 1 956 0
	movl	-252(%ebp), %ecx
	xorl	%eax, %eax
.LVL247:
	movl	%ebx, %edi
	.loc 1 958 0
	subl	$12, %esp
	xorl	%edx, %edx
	.loc 1 957 0
	movl	$96, -244(%ebp)
	.loc 1 956 0
	rep stosb
	.loc 1 958 0
	leal	-244(%ebp), %eax
	pushl	%ebx
	movl	-272(%ebp), %ecx
	pushl	%eax
	leal	-238(%ebp), %eax
	pushl	%eax
	movl	-268(%ebp), %eax
	pushl	-248(%ebp)
	pushl	%esi
	call	_aes_ecb_pkcs_encrypt_decrypt
.LVL248:
	.loc 1 960 0
	addl	$32, %esp
	testl	%eax, %eax
	jns	.L207
	.loc 1 961 0
	pushl	%esi
	pushl	$961
	jmp	.L266
.L207:
	.loc 1 965 0
	pushl	%ecx
	pushl	$112
	pushl	-280(%ebp)
	pushl	%esi
	call	memcmp
.LVL249:
	addl	$16, %esp
	testl	%eax, %eax
	je	.L208
.L209:
	.loc 1 967 0
	leal	-238(%ebp), %eax
	pushl	%edx
	pushl	$96
	pushl	%eax
	pushl	$.LC28
	call	ali_crypto_print_data
.LVL250:
	.loc 1 968 0
	leal	-141(%ebp), %eax
	addl	$12, %esp
	pushl	$112
	pushl	%eax
	pushl	$.LC29
	call	ali_crypto_print_data
.LVL251:
	.loc 1 969 0
	pushl	-276(%ebp)
	pushl	$969
	jmp	.L260
.L208:
	.loc 1 966 0
	pushl	%eax
	leal	-238(%ebp), %eax
	pushl	$96
	pushl	$_g_test_data
	pushl	%eax
	call	memcmp
.LVL252:
	addl	$16, %esp
	.loc 1 965 0
	testl	%eax, %eax
	jne	.L209
	.loc 1 971 0
	pushl	-276(%ebp)
	pushl	$971
	.loc 1 975 0
	movl	%ebx, %edi
	.loc 1 971 0
	pushl	$__FUNCTION__.3778
	pushl	$.LC49
	call	printf
.LVL253:
	.loc 1 975 0
	movl	-252(%ebp), %ecx
	xorl	%eax, %eax
	.loc 1 979 0
	movl	$1, %edx
	.loc 1 978 0
	movl	$113, -248(%ebp)
	.loc 1 975 0
	rep stosb
	.loc 1 976 0
	movl	$113, %ecx
	movl	%esi, %edi
	rep stosb
	.loc 1 977 0
	leal	-238(%ebp), %edi
	movl	$97, %ecx
	rep stosb
	.loc 1 979 0
	leal	-248(%ebp), %eax
	movl	%ebx, (%esp)
	movl	-272(%ebp), %ecx
	pushl	%eax
	movl	-268(%ebp), %eax
	pushl	%esi
	pushl	$97
	pushl	$_g_test_data
	call	_aes_ecb_pkcs_encrypt_decrypt
.LVL254:
	.loc 1 981 0
	addl	$32, %esp
	testl	%eax, %eax
	jns	.L210
.LVL255:
	.loc 1 982 0
	pushl	%eax
	pushl	$982
	jmp	.L265
.LVL256:
.L210:
	.loc 1 986 0
	movl	-252(%ebp), %ecx
	xorl	%eax, %eax
.LVL257:
	movl	%ebx, %edi
	.loc 1 988 0
	subl	$12, %esp
	xorl	%edx, %edx
	.loc 1 987 0
	movl	$97, -244(%ebp)
	.loc 1 986 0
	rep stosb
	.loc 1 988 0
	leal	-244(%ebp), %eax
	pushl	%ebx
	movl	-272(%ebp), %ecx
	pushl	%eax
	leal	-238(%ebp), %eax
	pushl	%eax
	movl	-268(%ebp), %eax
	pushl	-248(%ebp)
	pushl	%esi
	call	_aes_ecb_pkcs_encrypt_decrypt
.LVL258:
	.loc 1 990 0
	addl	$32, %esp
	testl	%eax, %eax
	jns	.L211
.LVL259:
	.loc 1 991 0
	pushl	%eax
	pushl	$991
.LVL260:
.L266:
	pushl	$__FUNCTION__.3778
	pushl	$.LC45
	jmp	.L258
.LVL261:
.L211:
.LVL262:
	.loc 1 995 0
	pushl	%eax
	leal	-238(%ebp), %eax
	pushl	$97
	pushl	$_g_test_data
	pushl	%eax
	call	memcmp
.LVL263:
	addl	$16, %esp
	testl	%eax, %eax
	je	.L212
	.loc 1 996 0
	pushl	%eax
	leal	-238(%ebp), %eax
	pushl	$97
	pushl	%eax
	pushl	$.LC28
	call	ali_crypto_print_data
.LVL264:
	.loc 1 997 0
	addl	$12, %esp
	pushl	-248(%ebp)
	pushl	%esi
	pushl	$.LC29
	call	ali_crypto_print_data
.LVL265:
	.loc 1 998 0
	pushl	-276(%ebp)
	pushl	$998
.L260:
	pushl	$__FUNCTION__.3778
	pushl	$.LC48
.LVL266:
.L259:
	call	printf
.LVL267:
	addl	$32, %esp
	jmp	.L201
.LVL268:
.L212:
	.loc 1 1000 0
	pushl	-276(%ebp)
	pushl	$1000
	pushl	$__FUNCTION__.3778
	pushl	$.LC49
	call	printf
.LVL269:
	.loc 1 1004 0
	popl	%edi
	popl	%eax
	pushl	%ebx
	pushl	%ebx
	call	ali_aes_copy_context
.LVL270:
	.loc 1 1005 0
	addl	$16, %esp
	testl	%eax, %eax
	jne	.L213
	.loc 1 1006 0
	pushl	%esi
	pushl	$1006
	pushl	$__FUNCTION__.3778
	pushl	$.LC50
	jmp	.L258
.L213:
	.loc 1 1010 0
	subl	$12, %esp
	pushl	%ebx
	call	ali_aes_reset
.LVL271:
	.loc 1 1011 0
	addl	$16, %esp
	testl	%eax, %eax
	je	.L214
	.loc 1 1012 0
	pushl	%eax
	pushl	$1012
	pushl	$__FUNCTION__.3778
	pushl	$.LC51
.LVL272:
.L258:
	call	printf
.LVL273:
	addl	$16, %esp
	jmp	.L201
.LVL274:
.L214:
	.loc 1 1014 0
	subl	$12, %esp
	pushl	%ebx
	call	free
.LVL275:
	.loc 1 886 0
	incl	-268(%ebp)
.LVL276:
	addl	$16, %esp
	cmpl	$3, -268(%ebp)
	je	.L269
.LVL277:
	.loc 1 895 0
	cmpl	$1, -268(%ebp)
	movl	$_g_ecb_256_enc, %eax
	movl	$_g_ecb_192_enc, %edx
	cmove	%edx, %eax
	movl	%eax, -276(%ebp)
	setne	%al
	movzbl	%al, %eax
	leal	24(,%eax,8), %eax
	movl	%eax, -272(%ebp)
.LVL278:
	jmp	.L196
.LVL279:
.L269:
.LBE7:
.LBE6:
	.loc 1 1510 0
	pushl	%ecx
	pushl	$1510
.LBB10:
.LBB11:
	.loc 1 1045 0
	movl	$_g_cbc_128_enc, %esi
.LBE11:
.LBE10:
	.loc 1 1510 0
	pushl	$__FUNCTION__.3847
	pushl	$.LC52
.LBB16:
.LBB12:
	.loc 1 1066 0
	leal	-141(%ebp), %ebx
.LBE12:
.LBE16:
	.loc 1 1510 0
	call	printf
.LVL280:
	addl	$16, %esp
.LBB17:
.LBB13:
	.loc 1 1042 0
	movl	$0, -272(%ebp)
	.loc 1 1044 0
	movl	$16, -276(%ebp)
	jmp	.L217
.LVL281:
.L234:
	.loc 1 1155 0
	pushl	-280(%ebp)
	pushl	$1155
	pushl	$__FUNCTION__.3799
	pushl	$.LC56
	call	printf
.LVL282:
	.loc 1 1158 0
	popl	%ecx
	pushl	-268(%ebp)
	call	free
.LVL283:
	.loc 1 1042 0
	incl	-272(%ebp)
.LVL284:
	addl	$16, %esp
	cmpl	$3, -272(%ebp)
	je	.L270
.LVL285:
	.loc 1 1051 0
	cmpl	$1, -272(%ebp)
	movl	$_g_cbc_256_enc, %eax
	movl	$_g_cbc_192_enc, %esi
	cmovne	%eax, %esi
	setne	%al
	movzbl	%al, %eax
	leal	24(,%eax,8), %eax
	movl	%eax, -276(%ebp)
.LVL286:
.L217:
	.loc 1 1054 0
	leal	-252(%ebp), %eax
	pushl	%edx
	pushl	%edx
	pushl	%eax
	pushl	$1
	call	ali_aes_get_ctx_size
.LVL287:
	.loc 1 1055 0
	addl	$16, %esp
	testl	%eax, %eax
	je	.L219
	.loc 1 1056 0
	pushl	%eax
	pushl	$1056
	pushl	$__FUNCTION__.3799
.LVL288:
.L267:
	pushl	$.LC24
.L261:
	.loc 1 1061 0
	call	printf
.LVL289:
.L256:
.LBE13:
.LBE17:
.LBB18:
.LBB8:
	.loc 1 1022 0
	addl	$16, %esp
.L236:
.LBE8:
.LBE18:
	.loc 1 1500 0
	orl	$-1, %edx
	jmp	.L192
.LVL290:
.L219:
.LBB19:
.LBB14:
	.loc 1 1059 0
	movl	-252(%ebp), %ecx
	subl	$12, %esp
	pushl	%ecx
	movl	%ecx, -280(%ebp)
	call	malloc
.LVL291:
	.loc 1 1060 0
	addl	$16, %esp
	testl	%eax, %eax
	.loc 1 1059 0
	movl	%eax, -268(%ebp)
.LVL292:
	.loc 1 1060 0
	movl	-280(%ebp), %ecx
	jne	.L221
	.loc 1 1061 0
	pushl	%ecx
	pushl	$1061
	pushl	$__FUNCTION__.3799
	pushl	$.LC25
	jmp	.L261
.L221:
	.loc 1 1065 0
	movl	-268(%ebp), %edi
	xorl	%eax, %eax
.LVL293:
	.loc 1 1066 0
	movl	$1, %edx
	.loc 1 1065 0
	rep stosb
	.loc 1 1066 0
	movl	-276(%ebp), %ecx
	pushl	%eax
	movl	-272(%ebp), %eax
	pushl	-268(%ebp)
	pushl	%ebx
	pushl	$_g_test_data
	call	_aes_cbc_encrypt_decrypt
.LVL294:
	.loc 1 1068 0
	addl	$16, %esp
	testl	%eax, %eax
	jns	.L222
.LVL295:
	.loc 1 1069 0
	pushl	%eax
	pushl	$1069
	jmp	.L268
.LVL296:
.L222:
	.loc 1 1073 0
	movl	-252(%ebp), %ecx
	movl	-268(%ebp), %edi
	xorl	%eax, %eax
.LVL297:
	.loc 1 1074 0
	xorl	%edx, %edx
	.loc 1 1073 0
	rep stosb
	.loc 1 1074 0
	leal	-238(%ebp), %edi
	pushl	%eax
	movl	-276(%ebp), %ecx
	movl	-272(%ebp), %eax
	pushl	-268(%ebp)
	pushl	%edi
	pushl	%ebx
	call	_aes_cbc_encrypt_decrypt
.LVL298:
	.loc 1 1076 0
	addl	$16, %esp
	testl	%eax, %eax
	jns	.L224
.LVL299:
	.loc 1 1077 0
	pushl	%eax
	pushl	$1077
	jmp	.L264
.LVL300:
.L224:
.LVL301:
	.loc 1 1081 0
	pushl	%eax
	pushl	$96
	pushl	%esi
	pushl	%ebx
	call	memcmp
.LVL302:
	addl	$16, %esp
	testl	%eax, %eax
	je	.L225
.LVL303:
.L226:
	.loc 1 1083 0
	pushl	%eax
	pushl	$96
	pushl	%edi
	pushl	$.LC28
	call	ali_crypto_print_data
.LVL304:
	.loc 1 1084 0
	addl	$12, %esp
	pushl	$96
	pushl	%ebx
	pushl	$.LC29
	call	ali_crypto_print_data
.LVL305:
	.loc 1 1085 0
	movl	-276(%ebp), %eax
	sall	$3, %eax
	pushl	%eax
	pushl	$1085
	jmp	.L263
.LVL306:
.L225:
.LVL307:
	.loc 1 1082 0
	pushl	%esi
	pushl	$96
	pushl	$_g_test_data
	pushl	%edi
	call	memcmp
.LVL308:
	addl	$16, %esp
	.loc 1 1081 0
	testl	%eax, %eax
	jne	.L226
	.loc 1 1087 0
	movl	-276(%ebp), %eax
	sall	$3, %eax
	pushl	%eax
	pushl	$1087
	pushl	$__FUNCTION__.3799
	pushl	$.LC56
	movl	%eax, -280(%ebp)
	call	printf
.LVL309:
	.loc 1 1090 0
	addl	$16, %esp
	cmpl	$0, -272(%ebp)
	.loc 1 1091 0
	movl	$_g_cbc_128_pkcs_enc, -284(%ebp)
	.loc 1 1090 0
	je	.L227
	.loc 1 1097 0
	cmpl	$1, -272(%ebp)
	movl	$_g_cbc_256_pkcs_enc, %eax
	movl	$_g_cbc_192_pkcs_enc, %esi
	cmove	%esi, %eax
	movl	%eax, -284(%ebp)
.L227:
.LVL310:
	.loc 1 1101 0
	movl	-252(%ebp), %ecx
	movl	-268(%ebp), %edi
	xorl	%eax, %eax
	.loc 1 1103 0
	leal	-238(%ebp), %esi
	.loc 1 1105 0
	subl	$12, %esp
	movl	$1, %edx
	.loc 1 1104 0
	movl	$112, -248(%ebp)
	.loc 1 1101 0
	rep stosb
	.loc 1 1102 0
	movl	%ebx, %edi
	.loc 1 1101 0
	movl	%ecx, %eax
	.loc 1 1102 0
	movl	$28, %ecx
	rep stosl
	.loc 1 1103 0
	movl	$24, %ecx
	movl	%esi, %edi
	rep stosl
	.loc 1 1105 0
	leal	-248(%ebp), %eax
	pushl	-268(%ebp)
	movl	-276(%ebp), %ecx
	pushl	%eax
	movl	-272(%ebp), %eax
	pushl	%ebx
	pushl	$96
	pushl	$_g_test_data
	call	_aes_cbc_pkcs_encrypt_decrypt
.LVL311:
	.loc 1 1107 0
	addl	$32, %esp
	testl	%eax, %eax
	jns	.L228
	.loc 1 1108 0
	pushl	%ecx
	pushl	$1108
	jmp	.L268
.L228:
	.loc 1 1112 0
	movl	-252(%ebp), %ecx
	movl	-268(%ebp), %edi
	xorl	%eax, %eax
.LVL312:
	.loc 1 1114 0
	subl	$12, %esp
	xorl	%edx, %edx
	.loc 1 1113 0
	movl	$96, -244(%ebp)
	.loc 1 1112 0
	rep stosb
	.loc 1 1114 0
	leal	-244(%ebp), %eax
	pushl	-268(%ebp)
	movl	-276(%ebp), %ecx
	pushl	%eax
	movl	-272(%ebp), %eax
	pushl	%esi
	pushl	-248(%ebp)
	pushl	%ebx
	call	_aes_cbc_pkcs_encrypt_decrypt
.LVL313:
	.loc 1 1116 0
	addl	$32, %esp
	testl	%eax, %eax
	jns	.L229
	.loc 1 1117 0
	pushl	%edx
	pushl	$1117
	jmp	.L264
.L229:
.LVL314:
	.loc 1 1121 0
	pushl	%eax
	pushl	$112
	pushl	-284(%ebp)
	pushl	%ebx
	call	memcmp
.LVL315:
	addl	$16, %esp
	testl	%eax, %eax
	je	.L230
.L231:
	.loc 1 1123 0
	pushl	%eax
	leal	-238(%ebp), %eax
	pushl	$96
	pushl	%eax
	pushl	$.LC28
	call	ali_crypto_print_data
.LVL316:
	.loc 1 1124 0
	leal	-141(%ebp), %eax
	addl	$12, %esp
	pushl	$112
	pushl	%eax
	pushl	$.LC29
	call	ali_crypto_print_data
.LVL317:
	.loc 1 1125 0
	pushl	-280(%ebp)
	pushl	$1125
	jmp	.L263
.L230:
	.loc 1 1122 0
	pushl	%eax
	pushl	$96
	pushl	$_g_test_data
	pushl	%esi
	call	memcmp
.LVL318:
	addl	$16, %esp
	.loc 1 1121 0
	testl	%eax, %eax
	jne	.L231
	.loc 1 1127 0
	pushl	-280(%ebp)
	pushl	$1127
	pushl	$__FUNCTION__.3799
	pushl	$.LC56
	call	printf
.LVL319:
	.loc 1 1131 0
	movl	-252(%ebp), %ecx
	movl	-268(%ebp), %edi
	xorl	%eax, %eax
	.loc 1 1135 0
	movl	$1, %edx
	.loc 1 1134 0
	movl	$113, -248(%ebp)
	.loc 1 1131 0
	rep stosb
	.loc 1 1132 0
	movl	$113, %ecx
	movl	%ebx, %edi
	rep stosb
	.loc 1 1133 0
	movl	$97, %ecx
	movl	%esi, %edi
	rep stosb
	.loc 1 1135 0
	movl	-276(%ebp), %ecx
	popl	%eax
	leal	-248(%ebp), %eax
	pushl	-268(%ebp)
	pushl	%eax
	movl	-272(%ebp), %eax
	pushl	%ebx
	pushl	$97
	pushl	$_g_test_data
	call	_aes_cbc_pkcs_encrypt_decrypt
.LVL320:
	.loc 1 1137 0
	addl	$32, %esp
	testl	%eax, %eax
	jns	.L232
.LVL321:
	.loc 1 1138 0
	pushl	%eax
	pushl	$1138
.LVL322:
.L268:
	pushl	$__FUNCTION__.3799
	pushl	$.LC53
	jmp	.L262
.LVL323:
.L232:
	.loc 1 1142 0
	movl	-252(%ebp), %ecx
	movl	-268(%ebp), %edi
	xorl	%eax, %eax
.LVL324:
	.loc 1 1144 0
	subl	$12, %esp
	xorl	%edx, %edx
	.loc 1 1143 0
	movl	$97, -244(%ebp)
	.loc 1 1142 0
	rep stosb
	.loc 1 1144 0
	leal	-244(%ebp), %eax
	pushl	-268(%ebp)
	movl	-276(%ebp), %ecx
	pushl	%eax
	movl	-272(%ebp), %eax
	pushl	%esi
	pushl	-248(%ebp)
	pushl	%ebx
	call	_aes_cbc_pkcs_encrypt_decrypt
.LVL325:
	.loc 1 1146 0
	addl	$32, %esp
	testl	%eax, %eax
	jns	.L233
.LVL326:
	.loc 1 1147 0
	pushl	%eax
	pushl	$1147
.LVL327:
.L264:
	pushl	$__FUNCTION__.3799
	pushl	$.LC54
.L262:
	call	printf
.LVL328:
	addl	$16, %esp
	jmp	.L223
.LVL329:
.L233:
	.loc 1 1151 0
	pushl	%edi
	pushl	$97
	pushl	$_g_test_data
	pushl	%esi
	call	memcmp
.LVL330:
	addl	$16, %esp
	testl	%eax, %eax
	movl	%eax, %edi
	je	.L234
	.loc 1 1152 0
	pushl	%ebx
	pushl	$97
	pushl	%esi
	pushl	$.LC28
	call	ali_crypto_print_data
.LVL331:
	.loc 1 1153 0
	pushl	-280(%ebp)
	pushl	$1153
.LVL332:
.L263:
	pushl	$__FUNCTION__.3799
	pushl	$.LC55
	call	printf
.LVL333:
	addl	$32, %esp
	jmp	.L223
.LVL334:
.L270:
.LBE14:
.LBE19:
	.loc 1 1516 0
	pushl	%edx
	pushl	$1516
	pushl	$__FUNCTION__.3847
	pushl	$.LC57
	call	printf
.LVL335:
	.loc 1 1517 0
	call	_ali_crypto_aes_ctr_test
.LVL336:
	.loc 1 1518 0
	addl	$16, %esp
	testl	%eax, %eax
	movl	%eax, %edx
	js	.L192
.LVL337:
	.loc 1 1522 0
	pushl	%eax
	pushl	$1522
	pushl	$__FUNCTION__.3847
	pushl	$.LC58
	call	printf
.LVL338:
	.loc 1 1523 0
	call	_ali_crypto_aes_cfb_test
.LVL339:
	addl	$16, %esp
	movl	%edi, %edx
	testl	%eax, %eax
	cmovle	%eax, %edx
.LVL340:
.L192:
	.loc 1 1543 0
	movl	%edx, %eax
	movl	-28(%ebp), %edx
	xorl	%gs:20, %edx
	je	.L238
	call	__stack_chk_fail
.LVL341:
.L201:
.LBB20:
.LBB9:
	.loc 1 1022 0
	subl	$12, %esp
	pushl	%ebx
.LVL342:
.L257:
	call	free
.LVL343:
	jmp	.L256
.LVL344:
.L223:
.LBE9:
.LBE20:
.LBB21:
.LBB15:
	.loc 1 1166 0
	subl	$12, %esp
	pushl	-268(%ebp)
	jmp	.L257
.LVL345:
.L238:
.LBE15:
.LBE21:
	.loc 1 1543 0
	leal	-12(%ebp), %esp
	popl	%ebx
	.cfi_restore 3
	popl	%esi
	.cfi_restore 6
	popl	%edi
	.cfi_restore 7
	popl	%ebp
	.cfi_restore 5
	.cfi_def_cfa 4, 4
	ret
	.cfi_endproc
.LFE11:
	.size	ali_crypto_aes_test, .-ali_crypto_aes_test
	.section	.text.unlikely.ali_crypto_aes_test
.LCOLDE59:
	.section	.text.ali_crypto_aes_test
.LHOTE59:
	.section	.rodata.__FUNCTION__.3761,"a",@progbits
	.align 4
	.type	__FUNCTION__.3761, @object
	.size	__FUNCTION__.3761, 25
__FUNCTION__.3761:
	.string	"_aes_cfb_encrypt_decrypt"
	.section	.rodata.__FUNCTION__.3835,"a",@progbits
	.align 4
	.type	__FUNCTION__.3835, @object
	.size	__FUNCTION__.3835, 25
__FUNCTION__.3835:
	.string	"_ali_crypto_aes_cfb_test"
	.section	.rodata.__FUNCTION__.3723,"a",@progbits
	.align 4
	.type	__FUNCTION__.3723, @object
	.size	__FUNCTION__.3723, 25
__FUNCTION__.3723:
	.string	"_aes_ctr_encrypt_decrypt"
	.section	.rodata.__FUNCTION__.3817,"a",@progbits
	.align 4
	.type	__FUNCTION__.3817, @object
	.size	__FUNCTION__.3817, 25
__FUNCTION__.3817:
	.string	"_ali_crypto_aes_ctr_test"
	.section	.rodata.__FUNCTION__.3749,"a",@progbits
	.align 4
	.type	__FUNCTION__.3749, @object
	.size	__FUNCTION__.3749, 30
__FUNCTION__.3749:
	.string	"_aes_cbc_pkcs_encrypt_decrypt"
	.section	.rodata.__FUNCTION__.3712,"a",@progbits
	.align 4
	.type	__FUNCTION__.3712, @object
	.size	__FUNCTION__.3712, 25
__FUNCTION__.3712:
	.string	"_aes_cbc_encrypt_decrypt"
	.section	.rodata.__FUNCTION__.3799,"a",@progbits
	.align 4
	.type	__FUNCTION__.3799, @object
	.size	__FUNCTION__.3799, 25
__FUNCTION__.3799:
	.string	"_ali_crypto_aes_cbc_test"
	.section	.rodata.__FUNCTION__.3736,"a",@progbits
	.align 4
	.type	__FUNCTION__.3736, @object
	.size	__FUNCTION__.3736, 30
__FUNCTION__.3736:
	.string	"_aes_ecb_pkcs_encrypt_decrypt"
	.section	.rodata.__FUNCTION__.3701,"a",@progbits
	.align 4
	.type	__FUNCTION__.3701, @object
	.size	__FUNCTION__.3701, 25
__FUNCTION__.3701:
	.string	"_aes_ecb_encrypt_decrypt"
	.section	.rodata.__FUNCTION__.3778,"a",@progbits
	.align 4
	.type	__FUNCTION__.3778, @object
	.size	__FUNCTION__.3778, 25
__FUNCTION__.3778:
	.string	"_ali_crypto_aes_ecb_test"
	.section	.rodata.__FUNCTION__.3847,"a",@progbits
	.align 4
	.type	__FUNCTION__.3847, @object
	.size	__FUNCTION__.3847, 20
__FUNCTION__.3847:
	.string	"ali_crypto_aes_test"
	.section	.data._g_ctr_256_enc,"aw",@progbits
	.align 32
	.type	_g_ctr_256_enc, @object
	.size	_g_ctr_256_enc, 141
_g_ctr_256_enc:
	.byte	-39
	.byte	20
	.byte	-35
	.byte	44
	.byte	118
	.byte	21
	.byte	-3
	.byte	-82
	.byte	60
	.byte	21
	.byte	77
	.byte	13
	.byte	93
	.byte	-43
	.byte	14
	.byte	48
	.byte	-44
	.byte	93
	.byte	10
	.byte	-89
	.byte	-88
	.byte	-75
	.byte	-115
	.byte	-65
	.byte	-41
	.byte	-124
	.byte	-42
	.byte	13
	.byte	19
	.byte	17
	.byte	-122
	.byte	-99
	.byte	67
	.byte	-128
	.byte	-49
	.byte	95
	.byte	101
	.byte	-23
	.byte	-118
	.byte	54
	.byte	46
	.byte	114
	.byte	55
	.byte	-14
	.byte	-86
	.byte	42
	.byte	-66
	.byte	-11
	.byte	-21
	.byte	77
	.byte	-53
	.byte	42
	.byte	-117
	.byte	-9
	.byte	126
	.byte	25
	.byte	-22
	.byte	39
	.byte	78
	.byte	-74
	.byte	16
	.byte	-33
	.byte	-103
	.byte	40
	.byte	-65
	.byte	79
	.byte	7
	.byte	-48
	.byte	-10
	.byte	116
	.byte	20
	.byte	66
	.byte	-90
	.byte	90
	.byte	34
	.byte	51
	.byte	-4
	.byte	-30
	.byte	65
	.byte	1
	.byte	52
	.byte	-44
	.byte	8
	.byte	45
	.byte	22
	.byte	52
	.byte	-40
	.byte	122
	.byte	-12
	.byte	8
	.byte	-5
	.byte	47
	.byte	-32
	.byte	-31
	.byte	-72
	.byte	-15
	.byte	-99
	.byte	38
	.byte	75
	.byte	-84
	.byte	-99
	.byte	102
	.byte	89
	.byte	42
	.byte	14
	.byte	-42
	.byte	-115
	.byte	-43
	.byte	56
	.byte	-99
	.byte	81
	.byte	-39
	.byte	-86
	.byte	68
	.byte	109
	.byte	-38
	.byte	-46
	.byte	-11
	.byte	62
	.byte	-71
	.byte	-59
	.byte	35
	.byte	32
	.byte	-10
	.byte	-79
	.byte	-118
	.byte	78
	.byte	33
	.byte	6
	.byte	31
	.byte	20
	.byte	4
	.byte	-34
	.byte	116
	.byte	-81
	.byte	5
	.byte	45
	.byte	118
	.byte	-54
	.byte	105
	.byte	-19
	.section	.data._g_ctr_192_enc,"aw",@progbits
	.align 32
	.type	_g_ctr_192_enc, @object
	.size	_g_ctr_192_enc, 141
_g_ctr_192_enc:
	.byte	-93
	.byte	91
	.byte	-28
	.byte	118
	.byte	-96
	.byte	10
	.byte	-119
	.byte	85
	.byte	-83
	.byte	-3
	.byte	-71
	.byte	-110
	.byte	39
	.byte	-86
	.byte	123
	.byte	-115
	.byte	-11
	.byte	-127
	.byte	-50
	.byte	-60
	.byte	-28
	.byte	67
	.byte	20
	.byte	57
	.byte	77
	.byte	87
	.byte	106
	.byte	125
	.byte	74
	.byte	124
	.byte	-40
	.byte	4
	.byte	-92
	.byte	-52
	.byte	-27
	.byte	41
	.byte	-40
	.byte	64
	.byte	86
	.byte	70
	.byte	-56
	.byte	104
	.byte	83
	.byte	-47
	.byte	-96
	.byte	-47
	.byte	-83
	.byte	29
	.byte	120
	.byte	77
	.byte	-87
	.byte	73
	.byte	14
	.byte	123
	.byte	2
	.byte	87
	.byte	-103
	.byte	52
	.byte	-106
	.byte	123
	.byte	-24
	.byte	-2
	.byte	38
	.byte	-33
	.byte	58
	.byte	-71
	.byte	-92
	.byte	-117
	.byte	111
	.byte	31
	.byte	7
	.byte	37
	.byte	-46
	.byte	112
	.byte	125
	.byte	2
	.byte	-91
	.byte	-18
	.byte	35
	.byte	-113
	.byte	73
	.byte	-53
	.byte	52
	.byte	-107
	.byte	17
	.byte	-125
	.byte	28
	.byte	-126
	.byte	53
	.byte	43
	.byte	-14
	.byte	-76
	.byte	118
	.byte	120
	.byte	-36
	.byte	-89
	.byte	-22
	.byte	67
	.byte	-98
	.byte	-83
	.byte	-127
	.byte	-89
	.byte	103
	.byte	-121
	.byte	70
	.byte	-89
	.byte	-90
	.byte	-5
	.byte	-15
	.byte	-107
	.byte	4
	.byte	-90
	.byte	68
	.byte	120
	.byte	-36
	.byte	60
	.byte	-121
	.byte	41
	.byte	-57
	.byte	-2
	.byte	82
	.byte	107
	.byte	5
	.byte	34
	.byte	-67
	.byte	113
	.byte	123
	.byte	88
	.byte	-79
	.byte	-55
	.byte	52
	.byte	75
	.byte	-61
	.byte	-70
	.byte	-113
	.byte	-97
	.byte	-42
	.byte	-19
	.byte	-14
	.byte	73
	.byte	97
	.section	.data._g_ctr_128_enc,"aw",@progbits
	.align 32
	.type	_g_ctr_128_enc, @object
	.size	_g_ctr_128_enc, 141
_g_ctr_128_enc:
	.byte	114
	.byte	41
	.byte	-66
	.byte	58
	.byte	10
	.byte	97
	.byte	126
	.byte	-82
	.byte	-54
	.byte	-6
	.byte	-38
	.byte	-86
	.byte	8
	.byte	101
	.byte	80
	.byte	30
	.byte	53
	.byte	77
	.byte	55
	.byte	80
	.byte	62
	.byte	119
	.byte	-59
	.byte	69
	.byte	-18
	.byte	-67
	.byte	-66
	.byte	123
	.byte	94
	.byte	-112
	.byte	-77
	.byte	-26
	.byte	29
	.byte	44
	.byte	-76
	.byte	-46
	.byte	22
	.byte	24
	.byte	-62
	.byte	112
	.byte	-124
	.byte	93
	.byte	90
	.byte	117
	.byte	-1
	.byte	127
	.byte	35
	.byte	-60
	.byte	-41
	.byte	-20
	.byte	127
	.byte	-4
	.byte	-77
	.byte	63
	.byte	94
	.byte	-101
	.byte	56
	.byte	122
	.byte	-108
	.byte	33
	.byte	-90
	.byte	50
	.byte	8
	.byte	119
	.byte	-78
	.byte	96
	.byte	120
	.byte	-64
	.byte	-117
	.byte	121
	.byte	-44
	.byte	-120
	.byte	-126
	.byte	95
	.byte	-94
	.byte	-7
	.byte	29
	.byte	-8
	.byte	117
	.byte	-26
	.byte	105
	.byte	65
	.byte	-47
	.byte	118
	.byte	70
	.byte	-107
	.byte	-82
	.byte	-60
	.byte	-20
	.byte	79
	.byte	19
	.byte	30
	.byte	86
	.byte	-5
	.byte	-103
	.byte	-89
	.byte	114
	.byte	-119
	.byte	46
	.byte	-49
	.byte	-12
	.byte	22
	.byte	11
	.byte	2
	.byte	-12
	.byte	-117
	.byte	123
	.byte	-19
	.byte	-11
	.byte	56
	.byte	-23
	.byte	-42
	.byte	-71
	.byte	-118
	.byte	-29
	.byte	-39
	.byte	-112
	.byte	-34
	.byte	-37
	.byte	-30
	.byte	85
	.byte	-95
	.byte	81
	.byte	25
	.byte	-54
	.byte	94
	.byte	-63
	.byte	120
	.byte	-118
	.byte	-11
	.byte	123
	.byte	-85
	.byte	-53
	.byte	-47
	.byte	59
	.byte	-71
	.byte	-70
	.byte	77
	.byte	-59
	.byte	-22
	.byte	85
	.section	.data._g_cfb128_256_enc,"aw",@progbits
	.align 32
	.type	_g_cfb128_256_enc, @object
	.size	_g_cfb128_256_enc, 141
_g_cfb128_256_enc:
	.byte	-39
	.byte	20
	.byte	-35
	.byte	44
	.byte	118
	.byte	21
	.byte	-3
	.byte	-82
	.byte	60
	.byte	21
	.byte	77
	.byte	13
	.byte	93
	.byte	-43
	.byte	14
	.byte	48
	.byte	-100
	.byte	79
	.byte	39
	.byte	-11
	.byte	-57
	.byte	-121
	.byte	22
	.byte	124
	.byte	95
	.byte	24
	.byte	72
	.byte	13
	.byte	-46
	.byte	112
	.byte	-68
	.byte	30
	.byte	-111
	.byte	-53
	.byte	8
	.byte	-78
	.byte	-124
	.byte	1
	.byte	74
	.byte	34
	.byte	-51
	.byte	-67
	.byte	-3
	.byte	-42
	.byte	43
	.byte	-38
	.byte	7
	.byte	-71
	.byte	-37
	.byte	-118
	.byte	-7
	.byte	-33
	.byte	-86
	.byte	-94
	.byte	93
	.byte	84
	.byte	-68
	.byte	126
	.byte	125
	.byte	45
	.byte	62
	.byte	-117
	.byte	59
	.byte	95
	.byte	-75
	.byte	24
	.byte	-1
	.byte	-52
	.byte	50
	.byte	-68
	.byte	84
	.byte	14
	.byte	-33
	.byte	-101
	.byte	10
	.byte	-60
	.byte	-53
	.byte	-4
	.byte	-75
	.byte	-19
	.byte	5
	.byte	97
	.byte	72
	.byte	28
	.byte	36
	.byte	122
	.byte	-38
	.byte	-84
	.byte	-89
	.byte	-5
	.byte	27
	.byte	-11
	.byte	-3
	.byte	122
	.byte	4
	.byte	67
	.byte	79
	.byte	-32
	.byte	-1
	.byte	-76
	.byte	-82
	.byte	60
	.byte	119
	.byte	-27
	.byte	126
	.byte	19
	.byte	-71
	.byte	-65
	.byte	44
	.byte	-43
	.byte	-19
	.byte	50
	.byte	-32
	.byte	56
	.byte	33
	.byte	-9
	.byte	-68
	.byte	-51
	.byte	-128
	.byte	-67
	.byte	116
	.byte	-92
	.byte	-113
	.byte	-56
	.byte	-80
	.byte	8
	.byte	-102
	.byte	-57
	.byte	-4
	.byte	-46
	.byte	20
	.byte	-6
	.byte	-109
	.byte	-44
	.byte	89
	.byte	-97
	.byte	60
	.byte	-104
	.byte	101
	.byte	-29
	.byte	55
	.section	.data._g_cfb8_256_enc,"aw",@progbits
	.align 32
	.type	_g_cfb8_256_enc, @object
	.size	_g_cfb8_256_enc, 141
_g_cfb8_256_enc:
	.byte	-39
	.byte	12
	.byte	-26
	.byte	69
	.byte	-68
	.byte	27
	.byte	-112
	.byte	-118
	.byte	-122
	.byte	0
	.byte	-109
	.byte	-108
	.byte	-40
	.byte	-86
	.byte	83
	.byte	-40
	.byte	0
	.byte	-11
	.byte	-31
	.byte	-69
	.byte	-45
	.byte	-105
	.byte	111
	.byte	41
	.byte	27
	.byte	-108
	.byte	110
	.byte	117
	.byte	117
	.byte	-20
	.byte	83
	.byte	68
	.byte	51
	.byte	97
	.byte	-114
	.byte	76
	.byte	74
	.byte	-26
	.byte	16
	.byte	-71
	.byte	-41
	.byte	60
	.byte	-2
	.byte	105
	.byte	-14
	.byte	-9
	.byte	101
	.byte	-15
	.byte	86
	.byte	24
	.byte	42
	.byte	-29
	.byte	109
	.byte	-41
	.byte	97
	.byte	2
	.byte	-23
	.byte	-119
	.byte	14
	.byte	-40
	.byte	116
	.byte	106
	.byte	-26
	.byte	-36
	.byte	35
	.byte	-76
	.byte	-39
	.byte	5
	.byte	89
	.byte	66
	.byte	122
	.byte	-126
	.byte	86
	.byte	-67
	.byte	-62
	.byte	-96
	.byte	-22
	.byte	106
	.byte	11
	.byte	-77
	.byte	-10
	.byte	104
	.byte	-122
	.byte	79
	.byte	13
	.byte	15
	.byte	-89
	.byte	-113
	.byte	23
	.byte	127
	.byte	-105
	.byte	-103
	.byte	-39
	.byte	-27
	.byte	-80
	.byte	-42
	.byte	-15
	.byte	27
	.byte	97
	.byte	-10
	.byte	-119
	.byte	-104
	.byte	-38
	.byte	9
	.byte	-59
	.byte	103
	.byte	-67
	.byte	-30
	.byte	20
	.byte	42
	.byte	-13
	.byte	91
	.byte	118
	.byte	-12
	.byte	-103
	.byte	-100
	.byte	-64
	.byte	-96
	.byte	-53
	.byte	112
	.byte	-81
	.byte	36
	.byte	-85
	.byte	-42
	.byte	104
	.byte	2
	.byte	103
	.byte	-107
	.byte	-72
	.byte	-12
	.byte	-90
	.byte	-53
	.byte	122
	.byte	47
	.byte	30
	.byte	80
	.byte	24
	.byte	-113
	.byte	74
	.byte	-27
	.byte	114
	.section	.data._g_cfb128_192_enc,"aw",@progbits
	.align 32
	.type	_g_cfb128_192_enc, @object
	.size	_g_cfb128_192_enc, 141
_g_cfb128_192_enc:
	.byte	-93
	.byte	91
	.byte	-28
	.byte	118
	.byte	-96
	.byte	10
	.byte	-119
	.byte	85
	.byte	-83
	.byte	-3
	.byte	-71
	.byte	-110
	.byte	39
	.byte	-86
	.byte	123
	.byte	-115
	.byte	26
	.byte	10
	.byte	36
	.byte	37
	.byte	-71
	.byte	-46
	.byte	101
	.byte	126
	.byte	9
	.byte	102
	.byte	-28
	.byte	-75
	.byte	-2
	.byte	-83
	.byte	-17
	.byte	6
	.byte	-103
	.byte	96
	.byte	-128
	.byte	-121
	.byte	-6
	.byte	-31
	.byte	-87
	.byte	-41
	.byte	-58
	.byte	-43
	.byte	-21
	.byte	15
	.byte	-80
	.byte	20
	.byte	-73
	.byte	-95
	.byte	-79
	.byte	-77
	.byte	-63
	.byte	-9
	.byte	95
	.byte	70
	.byte	12
	.byte	7
	.byte	-56
	.byte	-19
	.byte	32
	.byte	-31
	.byte	-93
	.byte	-45
	.byte	126
	.byte	-13
	.byte	-67
	.byte	103
	.byte	-76
	.byte	-96
	.byte	12
	.byte	-126
	.byte	-3
	.byte	124
	.byte	-110
	.byte	48
	.byte	124
	.byte	-20
	.byte	100
	.byte	21
	.byte	-67
	.byte	94
	.byte	-74
	.byte	67
	.byte	27
	.byte	119
	.byte	17
	.byte	44
	.byte	56
	.byte	7
	.byte	-56
	.byte	45
	.byte	55
	.byte	111
	.byte	-81
	.byte	-46
	.byte	-61
	.byte	-68
	.byte	-8
	.byte	125
	.byte	-34
	.byte	96
	.byte	-70
	.byte	107
	.byte	-46
	.byte	73
	.byte	94
	.byte	6
	.byte	5
	.byte	1
	.byte	18
	.byte	-36
	.byte	-35
	.byte	77
	.byte	-29
	.byte	-125
	.byte	25
	.byte	102
	.byte	88
	.byte	48
	.byte	-113
	.byte	126
	.byte	57
	.byte	-33
	.byte	-4
	.byte	2
	.byte	-90
	.byte	-70
	.byte	43
	.byte	101
	.byte	-4
	.byte	-10
	.byte	-8
	.byte	33
	.byte	-25
	.byte	14
	.byte	-22
	.byte	-62
	.byte	28
	.byte	-94
	.byte	-75
	.byte	37
	.byte	-51
	.section	.data._g_cfb8_192_enc,"aw",@progbits
	.align 32
	.type	_g_cfb8_192_enc, @object
	.size	_g_cfb8_192_enc, 141
_g_cfb8_192_enc:
	.byte	-93
	.byte	122
	.byte	-105
	.byte	18
	.byte	79
	.byte	38
	.byte	-99
	.byte	-54
	.byte	20
	.byte	-65
	.byte	7
	.byte	29
	.byte	6
	.byte	-2
	.byte	54
	.byte	-127
	.byte	25
	.byte	102
	.byte	108
	.byte	-90
	.byte	78
	.byte	-11
	.byte	68
	.byte	62
	.byte	61
	.byte	79
	.byte	-88
	.byte	-55
	.byte	-16
	.byte	-45
	.byte	-12
	.byte	-117
	.byte	-92
	.byte	52
	.byte	54
	.byte	97
	.byte	-75
	.byte	-65
	.byte	112
	.byte	61
	.byte	71
	.byte	-102
	.byte	89
	.byte	-108
	.byte	-1
	.byte	73
	.byte	-47
	.byte	18
	.byte	114
	.byte	-26
	.byte	74
	.byte	29
	.byte	39
	.byte	-33
	.byte	-7
	.byte	83
	.byte	-74
	.byte	-34
	.byte	101
	.byte	-46
	.byte	31
	.byte	110
	.byte	10
	.byte	40
	.byte	30
	.byte	-56
	.byte	-15
	.byte	-54
	.byte	53
	.byte	-68
	.byte	98
	.byte	-23
	.byte	19
	.byte	20
	.byte	105
	.byte	-121
	.byte	60
	.byte	32
	.byte	-96
	.byte	-84
	.byte	-101
	.byte	-31
	.byte	44
	.byte	75
	.byte	-122
	.byte	57
	.byte	-20
	.byte	74
	.byte	-26
	.byte	19
	.byte	95
	.byte	-66
	.byte	20
	.byte	11
	.byte	-60
	.byte	-33
	.byte	127
	.byte	-24
	.byte	119
	.byte	-87
	.byte	-27
	.byte	72
	.byte	83
	.byte	-107
	.byte	-8
	.byte	-40
	.byte	21
	.byte	24
	.byte	-74
	.byte	-87
	.byte	88
	.byte	86
	.byte	65
	.byte	-37
	.byte	101
	.byte	64
	.byte	-93
	.byte	-12
	.byte	-48
	.byte	-106
	.byte	30
	.byte	62
	.byte	47
	.byte	-50
	.byte	78
	.byte	-66
	.byte	-54
	.byte	38
	.byte	102
	.byte	55
	.byte	13
	.byte	-10
	.byte	109
	.byte	-1
	.byte	48
	.byte	50
	.byte	94
	.byte	37
	.byte	38
	.byte	-24
	.byte	-8
	.section	.data._g_cfb128_128_enc,"aw",@progbits
	.align 32
	.type	_g_cfb128_128_enc, @object
	.size	_g_cfb128_128_enc, 141
_g_cfb128_128_enc:
	.byte	114
	.byte	41
	.byte	-66
	.byte	58
	.byte	10
	.byte	97
	.byte	126
	.byte	-82
	.byte	-54
	.byte	-6
	.byte	-38
	.byte	-86
	.byte	8
	.byte	101
	.byte	80
	.byte	30
	.byte	-53
	.byte	-45
	.byte	-26
	.byte	62
	.byte	-11
	.byte	7
	.byte	-23
	.byte	39
	.byte	123
	.byte	39
	.byte	33
	.byte	38
	.byte	-49
	.byte	101
	.byte	-37
	.byte	-8
	.byte	72
	.byte	69
	.byte	-40
	.byte	68
	.byte	-18
	.byte	78
	.byte	-19
	.byte	-77
	.byte	121
	.byte	-43
	.byte	94
	.byte	-56
	.byte	34
	.byte	39
	.byte	-18
	.byte	30
	.byte	-21
	.byte	-102
	.byte	-106
	.byte	106
	.byte	83
	.byte	-56
	.byte	-19
	.byte	30
	.byte	73
	.byte	-46
	.byte	97
	.byte	-97
	.byte	46
	.byte	16
	.byte	-43
	.byte	-6
	.byte	125
	.byte	102
	.byte	-70
	.byte	-94
	.byte	-123
	.byte	-36
	.byte	-29
	.byte	-85
	.byte	29
	.byte	70
	.byte	-74
	.byte	-75
	.byte	15
	.byte	31
	.byte	-93
	.byte	-94
	.byte	112
	.byte	119
	.byte	36
	.byte	-121
	.byte	55
	.byte	-64
	.byte	-119
	.byte	-85
	.byte	26
	.byte	88
	.byte	72
	.byte	2
	.byte	-43
	.byte	14
	.byte	19
	.byte	122
	.byte	55
	.byte	-117
	.byte	-109
	.byte	-97
	.byte	46
	.byte	54
	.byte	-12
	.byte	-118
	.byte	90
	.byte	-28
	.byte	-22
	.byte	97
	.byte	-32
	.byte	-62
	.byte	-61
	.byte	20
	.byte	48
	.byte	-64
	.byte	2
	.byte	15
	.byte	83
	.byte	-39
	.byte	55
	.byte	-127
	.byte	86
	.byte	90
	.byte	-51
	.byte	47
	.byte	90
	.byte	11
	.byte	-36
	.byte	24
	.byte	32
	.byte	73
	.byte	96
	.byte	-74
	.byte	122
	.byte	-113
	.byte	-97
	.byte	-14
	.byte	51
	.byte	90
	.byte	81
	.byte	120
	.byte	-12
	.section	.data._g_cfb8_128_enc,"aw",@progbits
	.align 32
	.type	_g_cfb8_128_enc, @object
	.size	_g_cfb8_128_enc, 141
_g_cfb8_128_enc:
	.byte	114
	.byte	-95
	.byte	-44
	.byte	112
	.byte	-101
	.byte	-7
	.byte	39
	.byte	-55
	.byte	51
	.byte	95
	.byte	-104
	.byte	3
	.byte	53
	.byte	-91
	.byte	19
	.byte	99
	.byte	-76
	.byte	116
	.byte	48
	.byte	7
	.byte	-25
	.byte	39
	.byte	-47
	.byte	25
	.byte	-87
	.byte	103
	.byte	72
	.byte	35
	.byte	112
	.byte	28
	.byte	-50
	.byte	28
	.byte	-105
	.byte	127
	.byte	-96
	.byte	95
	.byte	74
	.byte	-24
	.byte	104
	.byte	41
	.byte	-24
	.byte	65
	.byte	101
	.byte	-55
	.byte	-85
	.byte	36
	.byte	-70
	.byte	61
	.byte	-121
	.byte	32
	.byte	-120
	.byte	-113
	.byte	69
	.byte	127
	.byte	-97
	.byte	-118
	.byte	-13
	.byte	68
	.byte	94
	.byte	68
	.byte	-73
	.byte	66
	.byte	-16
	.byte	-111
	.byte	-111
	.byte	17
	.byte	41
	.byte	-7
	.byte	-128
	.byte	100
	.byte	62
	.byte	-2
	.byte	-21
	.byte	93
	.byte	91
	.byte	113
	.byte	-47
	.byte	7
	.byte	63
	.byte	-27
	.byte	-100
	.byte	121
	.byte	-42
	.byte	-38
	.byte	44
	.byte	72
	.byte	-4
	.byte	-70
	.byte	-7
	.byte	77
	.byte	86
	.byte	41
	.byte	-72
	.byte	-43
	.byte	38
	.byte	-117
	.byte	-43
	.byte	-3
	.byte	-43
	.byte	72
	.byte	-53
	.byte	-37
	.byte	117
	.byte	1
	.byte	-50
	.byte	44
	.byte	83
	.byte	107
	.byte	-31
	.byte	107
	.byte	-41
	.byte	55
	.byte	95
	.byte	93
	.byte	-71
	.byte	-91
	.byte	-52
	.byte	10
	.byte	38
	.byte	81
	.byte	26
	.byte	-127
	.byte	-96
	.byte	45
	.byte	-106
	.byte	-48
	.byte	47
	.byte	-76
	.byte	25
	.byte	-53
	.byte	87
	.byte	19
	.byte	38
	.byte	51
	.byte	-39
	.byte	64
	.byte	127
	.byte	-51
	.byte	73
	.byte	-8
	.byte	-34
	.section	.data._g_cbc_256_pkcs_enc,"aw",@progbits
	.align 32
	.type	_g_cbc_256_pkcs_enc, @object
	.size	_g_cbc_256_pkcs_enc, 112
_g_cbc_256_pkcs_enc:
	.byte	-106
	.byte	-39
	.byte	125
	.byte	103
	.byte	114
	.byte	-8
	.byte	8
	.byte	-121
	.byte	-121
	.byte	-112
	.byte	-57
	.byte	11
	.byte	13
	.byte	-17
	.byte	-11
	.byte	-87
	.byte	-106
	.byte	85
	.byte	-85
	.byte	-124
	.byte	-18
	.byte	113
	.byte	19
	.byte	16
	.byte	-32
	.byte	34
	.byte	-47
	.byte	106
	.byte	-93
	.byte	89
	.byte	60
	.byte	72
	.byte	-66
	.byte	-47
	.byte	114
	.byte	-38
	.byte	-98
	.byte	7
	.byte	3
	.byte	88
	.byte	-16
	.byte	-87
	.byte	-45
	.byte	-76
	.byte	-113
	.byte	-64
	.byte	63
	.byte	74
	.byte	-127
	.byte	11
	.byte	74
	.byte	-32
	.byte	-12
	.byte	-4
	.byte	120
	.byte	110
	.byte	-123
	.byte	5
	.byte	115
	.byte	26
	.byte	2
	.byte	-44
	.byte	-100
	.byte	-80
	.byte	-26
	.byte	57
	.byte	122
	.byte	121
	.byte	-40
	.byte	93
	.byte	7
	.byte	-70
	.byte	-69
	.byte	109
	.byte	5
	.byte	26
	.byte	64
	.byte	-3
	.byte	-122
	.byte	-73
	.byte	73
	.byte	7
	.byte	-92
	.byte	-43
	.byte	-25
	.byte	26
	.byte	-27
	.byte	-53
	.byte	-100
	.byte	87
	.byte	-8
	.byte	-43
	.byte	12
	.byte	94
	.byte	-94
	.byte	-101
	.byte	35
	.byte	-27
	.byte	-79
	.byte	-62
	.byte	126
	.byte	-40
	.byte	-44
	.byte	63
	.byte	37
	.byte	-112
	.byte	41
	.byte	59
	.byte	-118
	.byte	-102
	.byte	-78
	.byte	-18
	.section	.data._g_cbc_256_enc,"aw",@progbits
	.align 32
	.type	_g_cbc_256_enc, @object
	.size	_g_cbc_256_enc, 96
_g_cbc_256_enc:
	.byte	-106
	.byte	-39
	.byte	125
	.byte	103
	.byte	114
	.byte	-8
	.byte	8
	.byte	-121
	.byte	-121
	.byte	-112
	.byte	-57
	.byte	11
	.byte	13
	.byte	-17
	.byte	-11
	.byte	-87
	.byte	-106
	.byte	85
	.byte	-85
	.byte	-124
	.byte	-18
	.byte	113
	.byte	19
	.byte	16
	.byte	-32
	.byte	34
	.byte	-47
	.byte	106
	.byte	-93
	.byte	89
	.byte	60
	.byte	72
	.byte	-66
	.byte	-47
	.byte	114
	.byte	-38
	.byte	-98
	.byte	7
	.byte	3
	.byte	88
	.byte	-16
	.byte	-87
	.byte	-45
	.byte	-76
	.byte	-113
	.byte	-64
	.byte	63
	.byte	74
	.byte	-127
	.byte	11
	.byte	74
	.byte	-32
	.byte	-12
	.byte	-4
	.byte	120
	.byte	110
	.byte	-123
	.byte	5
	.byte	115
	.byte	26
	.byte	2
	.byte	-44
	.byte	-100
	.byte	-80
	.byte	-26
	.byte	57
	.byte	122
	.byte	121
	.byte	-40
	.byte	93
	.byte	7
	.byte	-70
	.byte	-69
	.byte	109
	.byte	5
	.byte	26
	.byte	64
	.byte	-3
	.byte	-122
	.byte	-73
	.byte	73
	.byte	7
	.byte	-92
	.byte	-43
	.byte	-25
	.byte	26
	.byte	-27
	.byte	-53
	.byte	-100
	.byte	87
	.byte	-8
	.byte	-43
	.byte	12
	.byte	94
	.byte	-94
	.byte	-101
	.section	.data._g_cbc_192_pkcs_enc,"aw",@progbits
	.align 32
	.type	_g_cbc_192_pkcs_enc, @object
	.size	_g_cbc_192_pkcs_enc, 112
_g_cbc_192_pkcs_enc:
	.byte	-15
	.byte	-49
	.byte	123
	.byte	25
	.byte	-9
	.byte	-45
	.byte	112
	.byte	11
	.byte	-114
	.byte	-94
	.byte	-73
	.byte	-104
	.byte	36
	.byte	41
	.byte	-83
	.byte	-97
	.byte	-49
	.byte	63
	.byte	-50
	.byte	-113
	.byte	47
	.byte	-95
	.byte	86
	.byte	27
	.byte	-71
	.byte	124
	.byte	-39
	.byte	72
	.byte	31
	.byte	81
	.byte	-119
	.byte	98
	.byte	-89
	.byte	-78
	.byte	-21
	.byte	4
	.byte	-1
	.byte	-47
	.byte	100
	.byte	85
	.byte	28
	.byte	93
	.byte	82
	.byte	121
	.byte	22
	.byte	106
	.byte	94
	.byte	-5
	.byte	-82
	.byte	118
	.byte	38
	.byte	-44
	.byte	4
	.byte	-5
	.byte	4
	.byte	-127
	.byte	64
	.byte	-97
	.byte	117
	.byte	-73
	.byte	-97
	.byte	-86
	.byte	-70
	.byte	-53
	.byte	-63
	.byte	-51
	.byte	-71
	.byte	83
	.byte	-105
	.byte	61
	.byte	-62
	.byte	-70
	.byte	-45
	.byte	-123
	.byte	-48
	.byte	109
	.byte	25
	.byte	48
	.byte	-49
	.byte	120
	.byte	65
	.byte	114
	.byte	-18
	.byte	-50
	.byte	83
	.byte	94
	.byte	-15
	.byte	103
	.byte	74
	.byte	4
	.byte	45
	.byte	40
	.byte	83
	.byte	66
	.byte	120
	.byte	-89
	.byte	24
	.byte	110
	.byte	102
	.byte	-101
	.byte	126
	.byte	76
	.byte	-74
	.byte	-16
	.byte	-96
	.byte	0
	.byte	41
	.byte	23
	.byte	37
	.byte	114
	.byte	69
	.byte	94
	.section	.data._g_cbc_192_enc,"aw",@progbits
	.align 32
	.type	_g_cbc_192_enc, @object
	.size	_g_cbc_192_enc, 96
_g_cbc_192_enc:
	.byte	-15
	.byte	-49
	.byte	123
	.byte	25
	.byte	-9
	.byte	-45
	.byte	112
	.byte	11
	.byte	-114
	.byte	-94
	.byte	-73
	.byte	-104
	.byte	36
	.byte	41
	.byte	-83
	.byte	-97
	.byte	-49
	.byte	63
	.byte	-50
	.byte	-113
	.byte	47
	.byte	-95
	.byte	86
	.byte	27
	.byte	-71
	.byte	124
	.byte	-39
	.byte	72
	.byte	31
	.byte	81
	.byte	-119
	.byte	98
	.byte	-89
	.byte	-78
	.byte	-21
	.byte	4
	.byte	-1
	.byte	-47
	.byte	100
	.byte	85
	.byte	28
	.byte	93
	.byte	82
	.byte	121
	.byte	22
	.byte	106
	.byte	94
	.byte	-5
	.byte	-82
	.byte	118
	.byte	38
	.byte	-44
	.byte	4
	.byte	-5
	.byte	4
	.byte	-127
	.byte	64
	.byte	-97
	.byte	117
	.byte	-73
	.byte	-97
	.byte	-86
	.byte	-70
	.byte	-53
	.byte	-63
	.byte	-51
	.byte	-71
	.byte	83
	.byte	-105
	.byte	61
	.byte	-62
	.byte	-70
	.byte	-45
	.byte	-123
	.byte	-48
	.byte	109
	.byte	25
	.byte	48
	.byte	-49
	.byte	120
	.byte	65
	.byte	114
	.byte	-18
	.byte	-50
	.byte	83
	.byte	94
	.byte	-15
	.byte	103
	.byte	74
	.byte	4
	.byte	45
	.byte	40
	.byte	83
	.byte	66
	.byte	120
	.byte	-89
	.section	.data._g_cbc_128_pkcs_enc,"aw",@progbits
	.align 32
	.type	_g_cbc_128_pkcs_enc, @object
	.size	_g_cbc_128_pkcs_enc, 112
_g_cbc_128_pkcs_enc:
	.byte	-28
	.byte	87
	.byte	124
	.byte	84
	.byte	-124
	.byte	80
	.byte	49
	.byte	64
	.byte	107
	.byte	109
	.byte	118
	.byte	-123
	.byte	23
	.byte	-62
	.byte	44
	.byte	116
	.byte	-99
	.byte	36
	.byte	-44
	.byte	-40
	.byte	78
	.byte	81
	.byte	68
	.byte	-63
	.byte	65
	.byte	-53
	.byte	98
	.byte	-75
	.byte	86
	.byte	64
	.byte	-42
	.byte	-23
	.byte	-61
	.byte	54
	.byte	46
	.byte	21
	.byte	-81
	.byte	-15
	.byte	-84
	.byte	-85
	.byte	9
	.byte	0
	.byte	81
	.byte	127
	.byte	31
	.byte	21
	.byte	19
	.byte	46
	.byte	-45
	.byte	51
	.byte	98
	.byte	-93
	.byte	126
	.byte	40
	.byte	-3
	.byte	98
	.byte	94
	.byte	-6
	.byte	34
	.byte	-83
	.byte	124
	.byte	-48
	.byte	3
	.byte	-28
	.byte	-97
	.byte	-117
	.byte	127
	.byte	-65
	.byte	5
	.byte	-67
	.byte	119
	.byte	35
	.byte	117
	.byte	-99
	.byte	-82
	.byte	31
	.byte	2
	.byte	-98
	.byte	53
	.byte	-61
	.byte	-32
	.byte	-61
	.byte	123
	.byte	-22
	.byte	20
	.byte	-96
	.byte	110
	.byte	105
	.byte	26
	.byte	45
	.byte	102
	.byte	90
	.byte	52
	.byte	25
	.byte	73
	.byte	22
	.byte	-51
	.byte	85
	.byte	105
	.byte	23
	.byte	-6
	.byte	90
	.byte	-123
	.byte	-107
	.byte	-107
	.byte	-90
	.byte	41
	.byte	2
	.byte	-41
	.byte	112
	.byte	24
	.byte	29
	.section	.data._g_cbc_128_enc,"aw",@progbits
	.align 32
	.type	_g_cbc_128_enc, @object
	.size	_g_cbc_128_enc, 96
_g_cbc_128_enc:
	.byte	-28
	.byte	87
	.byte	124
	.byte	84
	.byte	-124
	.byte	80
	.byte	49
	.byte	64
	.byte	107
	.byte	109
	.byte	118
	.byte	-123
	.byte	23
	.byte	-62
	.byte	44
	.byte	116
	.byte	-99
	.byte	36
	.byte	-44
	.byte	-40
	.byte	78
	.byte	81
	.byte	68
	.byte	-63
	.byte	65
	.byte	-53
	.byte	98
	.byte	-75
	.byte	86
	.byte	64
	.byte	-42
	.byte	-23
	.byte	-61
	.byte	54
	.byte	46
	.byte	21
	.byte	-81
	.byte	-15
	.byte	-84
	.byte	-85
	.byte	9
	.byte	0
	.byte	81
	.byte	127
	.byte	31
	.byte	21
	.byte	19
	.byte	46
	.byte	-45
	.byte	51
	.byte	98
	.byte	-93
	.byte	126
	.byte	40
	.byte	-3
	.byte	98
	.byte	94
	.byte	-6
	.byte	34
	.byte	-83
	.byte	124
	.byte	-48
	.byte	3
	.byte	-28
	.byte	-97
	.byte	-117
	.byte	127
	.byte	-65
	.byte	5
	.byte	-67
	.byte	119
	.byte	35
	.byte	117
	.byte	-99
	.byte	-82
	.byte	31
	.byte	2
	.byte	-98
	.byte	53
	.byte	-61
	.byte	-32
	.byte	-61
	.byte	123
	.byte	-22
	.byte	20
	.byte	-96
	.byte	110
	.byte	105
	.byte	26
	.byte	45
	.byte	102
	.byte	90
	.byte	52
	.byte	25
	.byte	73
	.byte	22
	.section	.data._g_ecb_256_pkcs_enc,"aw",@progbits
	.align 32
	.type	_g_ecb_256_pkcs_enc, @object
	.size	_g_ecb_256_pkcs_enc, 112
_g_ecb_256_pkcs_enc:
	.byte	52
	.byte	-83
	.byte	23
	.byte	-21
	.byte	80
	.byte	-5
	.byte	88
	.byte	-38
	.byte	59
	.byte	96
	.byte	24
	.byte	24
	.byte	15
	.byte	112
	.byte	19
	.byte	83
	.byte	52
	.byte	-83
	.byte	23
	.byte	-21
	.byte	80
	.byte	-5
	.byte	88
	.byte	-38
	.byte	59
	.byte	96
	.byte	24
	.byte	24
	.byte	15
	.byte	112
	.byte	19
	.byte	83
	.byte	52
	.byte	-83
	.byte	23
	.byte	-21
	.byte	80
	.byte	-5
	.byte	88
	.byte	-38
	.byte	59
	.byte	96
	.byte	24
	.byte	24
	.byte	15
	.byte	112
	.byte	19
	.byte	83
	.byte	52
	.byte	-83
	.byte	23
	.byte	-21
	.byte	80
	.byte	-5
	.byte	88
	.byte	-38
	.byte	59
	.byte	96
	.byte	24
	.byte	24
	.byte	15
	.byte	112
	.byte	19
	.byte	83
	.byte	52
	.byte	-83
	.byte	23
	.byte	-21
	.byte	80
	.byte	-5
	.byte	88
	.byte	-38
	.byte	59
	.byte	96
	.byte	24
	.byte	24
	.byte	15
	.byte	112
	.byte	19
	.byte	83
	.byte	52
	.byte	-83
	.byte	23
	.byte	-21
	.byte	80
	.byte	-5
	.byte	88
	.byte	-38
	.byte	59
	.byte	96
	.byte	24
	.byte	24
	.byte	15
	.byte	112
	.byte	19
	.byte	83
	.byte	118
	.byte	6
	.byte	21
	.byte	36
	.byte	65
	.byte	39
	.byte	61
	.byte	100
	.byte	-111
	.byte	11
	.byte	-121
	.byte	104
	.byte	-41
	.byte	18
	.byte	-68
	.byte	103
	.section	.data._g_ecb_256_enc,"aw",@progbits
	.align 32
	.type	_g_ecb_256_enc, @object
	.size	_g_ecb_256_enc, 96
_g_ecb_256_enc:
	.byte	52
	.byte	-83
	.byte	23
	.byte	-21
	.byte	80
	.byte	-5
	.byte	88
	.byte	-38
	.byte	59
	.byte	96
	.byte	24
	.byte	24
	.byte	15
	.byte	112
	.byte	19
	.byte	83
	.byte	52
	.byte	-83
	.byte	23
	.byte	-21
	.byte	80
	.byte	-5
	.byte	88
	.byte	-38
	.byte	59
	.byte	96
	.byte	24
	.byte	24
	.byte	15
	.byte	112
	.byte	19
	.byte	83
	.byte	52
	.byte	-83
	.byte	23
	.byte	-21
	.byte	80
	.byte	-5
	.byte	88
	.byte	-38
	.byte	59
	.byte	96
	.byte	24
	.byte	24
	.byte	15
	.byte	112
	.byte	19
	.byte	83
	.byte	52
	.byte	-83
	.byte	23
	.byte	-21
	.byte	80
	.byte	-5
	.byte	88
	.byte	-38
	.byte	59
	.byte	96
	.byte	24
	.byte	24
	.byte	15
	.byte	112
	.byte	19
	.byte	83
	.byte	52
	.byte	-83
	.byte	23
	.byte	-21
	.byte	80
	.byte	-5
	.byte	88
	.byte	-38
	.byte	59
	.byte	96
	.byte	24
	.byte	24
	.byte	15
	.byte	112
	.byte	19
	.byte	83
	.byte	52
	.byte	-83
	.byte	23
	.byte	-21
	.byte	80
	.byte	-5
	.byte	88
	.byte	-38
	.byte	59
	.byte	96
	.byte	24
	.byte	24
	.byte	15
	.byte	112
	.byte	19
	.byte	83
	.section	.data._g_ecb_192_pkcs_enc,"aw",@progbits
	.align 32
	.type	_g_ecb_192_pkcs_enc, @object
	.size	_g_ecb_192_pkcs_enc, 112
_g_ecb_192_pkcs_enc:
	.byte	124
	.byte	115
	.byte	38
	.byte	120
	.byte	77
	.byte	113
	.byte	-81
	.byte	-81
	.byte	43
	.byte	26
	.byte	-82
	.byte	112
	.byte	-29
	.byte	31
	.byte	111
	.byte	74
	.byte	124
	.byte	115
	.byte	38
	.byte	120
	.byte	77
	.byte	113
	.byte	-81
	.byte	-81
	.byte	43
	.byte	26
	.byte	-82
	.byte	112
	.byte	-29
	.byte	31
	.byte	111
	.byte	74
	.byte	124
	.byte	115
	.byte	38
	.byte	120
	.byte	77
	.byte	113
	.byte	-81
	.byte	-81
	.byte	43
	.byte	26
	.byte	-82
	.byte	112
	.byte	-29
	.byte	31
	.byte	111
	.byte	74
	.byte	124
	.byte	115
	.byte	38
	.byte	120
	.byte	77
	.byte	113
	.byte	-81
	.byte	-81
	.byte	43
	.byte	26
	.byte	-82
	.byte	112
	.byte	-29
	.byte	31
	.byte	111
	.byte	74
	.byte	124
	.byte	115
	.byte	38
	.byte	120
	.byte	77
	.byte	113
	.byte	-81
	.byte	-81
	.byte	43
	.byte	26
	.byte	-82
	.byte	112
	.byte	-29
	.byte	31
	.byte	111
	.byte	74
	.byte	124
	.byte	115
	.byte	38
	.byte	120
	.byte	77
	.byte	113
	.byte	-81
	.byte	-81
	.byte	43
	.byte	26
	.byte	-82
	.byte	112
	.byte	-29
	.byte	31
	.byte	111
	.byte	74
	.byte	53
	.byte	54
	.byte	96
	.byte	-6
	.byte	8
	.byte	-73
	.byte	76
	.byte	-118
	.byte	29
	.byte	-126
	.byte	-112
	.byte	-40
	.byte	99
	.byte	-69
	.byte	35
	.byte	-4
	.section	.data._g_ecb_192_enc,"aw",@progbits
	.align 32
	.type	_g_ecb_192_enc, @object
	.size	_g_ecb_192_enc, 96
_g_ecb_192_enc:
	.byte	124
	.byte	115
	.byte	38
	.byte	120
	.byte	77
	.byte	113
	.byte	-81
	.byte	-81
	.byte	43
	.byte	26
	.byte	-82
	.byte	112
	.byte	-29
	.byte	31
	.byte	111
	.byte	74
	.byte	124
	.byte	115
	.byte	38
	.byte	120
	.byte	77
	.byte	113
	.byte	-81
	.byte	-81
	.byte	43
	.byte	26
	.byte	-82
	.byte	112
	.byte	-29
	.byte	31
	.byte	111
	.byte	74
	.byte	124
	.byte	115
	.byte	38
	.byte	120
	.byte	77
	.byte	113
	.byte	-81
	.byte	-81
	.byte	43
	.byte	26
	.byte	-82
	.byte	112
	.byte	-29
	.byte	31
	.byte	111
	.byte	74
	.byte	124
	.byte	115
	.byte	38
	.byte	120
	.byte	77
	.byte	113
	.byte	-81
	.byte	-81
	.byte	43
	.byte	26
	.byte	-82
	.byte	112
	.byte	-29
	.byte	31
	.byte	111
	.byte	74
	.byte	124
	.byte	115
	.byte	38
	.byte	120
	.byte	77
	.byte	113
	.byte	-81
	.byte	-81
	.byte	43
	.byte	26
	.byte	-82
	.byte	112
	.byte	-29
	.byte	31
	.byte	111
	.byte	74
	.byte	124
	.byte	115
	.byte	38
	.byte	120
	.byte	77
	.byte	113
	.byte	-81
	.byte	-81
	.byte	43
	.byte	26
	.byte	-82
	.byte	112
	.byte	-29
	.byte	31
	.byte	111
	.byte	74
	.section	.data._g_ecb_128_pkcs_enc,"aw",@progbits
	.align 32
	.type	_g_ecb_128_pkcs_enc, @object
	.size	_g_ecb_128_pkcs_enc, 112
_g_ecb_128_pkcs_enc:
	.byte	85
	.byte	76
	.byte	-109
	.byte	80
	.byte	22
	.byte	53
	.byte	-86
	.byte	-37
	.byte	-83
	.byte	-8
	.byte	-117
	.byte	-58
	.byte	-45
	.byte	110
	.byte	87
	.byte	-9
	.byte	85
	.byte	76
	.byte	-109
	.byte	80
	.byte	22
	.byte	53
	.byte	-86
	.byte	-37
	.byte	-83
	.byte	-8
	.byte	-117
	.byte	-58
	.byte	-45
	.byte	110
	.byte	87
	.byte	-9
	.byte	85
	.byte	76
	.byte	-109
	.byte	80
	.byte	22
	.byte	53
	.byte	-86
	.byte	-37
	.byte	-83
	.byte	-8
	.byte	-117
	.byte	-58
	.byte	-45
	.byte	110
	.byte	87
	.byte	-9
	.byte	85
	.byte	76
	.byte	-109
	.byte	80
	.byte	22
	.byte	53
	.byte	-86
	.byte	-37
	.byte	-83
	.byte	-8
	.byte	-117
	.byte	-58
	.byte	-45
	.byte	110
	.byte	87
	.byte	-9
	.byte	85
	.byte	76
	.byte	-109
	.byte	80
	.byte	22
	.byte	53
	.byte	-86
	.byte	-37
	.byte	-83
	.byte	-8
	.byte	-117
	.byte	-58
	.byte	-45
	.byte	110
	.byte	87
	.byte	-9
	.byte	85
	.byte	76
	.byte	-109
	.byte	80
	.byte	22
	.byte	53
	.byte	-86
	.byte	-37
	.byte	-83
	.byte	-8
	.byte	-117
	.byte	-58
	.byte	-45
	.byte	110
	.byte	87
	.byte	-9
	.byte	42
	.byte	-17
	.byte	53
	.byte	97
	.byte	98
	.byte	88
	.byte	71
	.byte	6
	.byte	-30
	.byte	-97
	.byte	-106
	.byte	-108
	.byte	102
	.byte	3
	.byte	-35
	.byte	102
	.section	.data._g_ecb_128_enc,"aw",@progbits
	.align 32
	.type	_g_ecb_128_enc, @object
	.size	_g_ecb_128_enc, 96
_g_ecb_128_enc:
	.byte	85
	.byte	76
	.byte	-109
	.byte	80
	.byte	22
	.byte	53
	.byte	-86
	.byte	-37
	.byte	-83
	.byte	-8
	.byte	-117
	.byte	-58
	.byte	-45
	.byte	110
	.byte	87
	.byte	-9
	.byte	85
	.byte	76
	.byte	-109
	.byte	80
	.byte	22
	.byte	53
	.byte	-86
	.byte	-37
	.byte	-83
	.byte	-8
	.byte	-117
	.byte	-58
	.byte	-45
	.byte	110
	.byte	87
	.byte	-9
	.byte	85
	.byte	76
	.byte	-109
	.byte	80
	.byte	22
	.byte	53
	.byte	-86
	.byte	-37
	.byte	-83
	.byte	-8
	.byte	-117
	.byte	-58
	.byte	-45
	.byte	110
	.byte	87
	.byte	-9
	.byte	85
	.byte	76
	.byte	-109
	.byte	80
	.byte	22
	.byte	53
	.byte	-86
	.byte	-37
	.byte	-83
	.byte	-8
	.byte	-117
	.byte	-58
	.byte	-45
	.byte	110
	.byte	87
	.byte	-9
	.byte	85
	.byte	76
	.byte	-109
	.byte	80
	.byte	22
	.byte	53
	.byte	-86
	.byte	-37
	.byte	-83
	.byte	-8
	.byte	-117
	.byte	-58
	.byte	-45
	.byte	110
	.byte	87
	.byte	-9
	.byte	85
	.byte	76
	.byte	-109
	.byte	80
	.byte	22
	.byte	53
	.byte	-86
	.byte	-37
	.byte	-83
	.byte	-8
	.byte	-117
	.byte	-58
	.byte	-45
	.byte	110
	.byte	87
	.byte	-9
	.section	.data._g_test_data,"aw",@progbits
	.align 32
	.type	_g_test_data, @object
	.size	_g_test_data, 141
_g_test_data:
	.byte	1
	.byte	2
	.byte	3
	.byte	4
	.byte	5
	.byte	6
	.byte	7
	.byte	8
	.byte	1
	.byte	2
	.byte	3
	.byte	4
	.byte	5
	.byte	6
	.byte	7
	.byte	8
	.byte	1
	.byte	2
	.byte	3
	.byte	4
	.byte	5
	.byte	6
	.byte	7
	.byte	8
	.byte	1
	.byte	2
	.byte	3
	.byte	4
	.byte	5
	.byte	6
	.byte	7
	.byte	8
	.byte	1
	.byte	2
	.byte	3
	.byte	4
	.byte	5
	.byte	6
	.byte	7
	.byte	8
	.byte	1
	.byte	2
	.byte	3
	.byte	4
	.byte	5
	.byte	6
	.byte	7
	.byte	8
	.byte	1
	.byte	2
	.byte	3
	.byte	4
	.byte	5
	.byte	6
	.byte	7
	.byte	8
	.byte	1
	.byte	2
	.byte	3
	.byte	4
	.byte	5
	.byte	6
	.byte	7
	.byte	8
	.byte	1
	.byte	2
	.byte	3
	.byte	4
	.byte	5
	.byte	6
	.byte	7
	.byte	8
	.byte	1
	.byte	2
	.byte	3
	.byte	4
	.byte	5
	.byte	6
	.byte	7
	.byte	8
	.byte	1
	.byte	2
	.byte	3
	.byte	4
	.byte	5
	.byte	6
	.byte	7
	.byte	8
	.byte	1
	.byte	2
	.byte	3
	.byte	4
	.byte	5
	.byte	6
	.byte	7
	.byte	8
	.byte	1
	.byte	2
	.byte	3
	.byte	4
	.byte	5
	.byte	6
	.byte	7
	.byte	8
	.byte	1
	.byte	2
	.byte	3
	.byte	4
	.byte	5
	.byte	6
	.byte	7
	.byte	8
	.byte	1
	.byte	2
	.byte	3
	.byte	4
	.byte	5
	.byte	6
	.byte	7
	.byte	8
	.byte	1
	.byte	2
	.byte	3
	.byte	4
	.byte	5
	.byte	6
	.byte	7
	.byte	8
	.byte	10
	.byte	11
	.byte	12
	.byte	13
	.byte	14
	.byte	15
	.byte	0
	.byte	1
	.byte	2
	.byte	3
	.byte	4
	.byte	5
	.byte	19
	.section	.data._g_aes_iv,"aw",@progbits
	.align 4
	.type	_g_aes_iv, @object
	.size	_g_aes_iv, 16
_g_aes_iv:
	.byte	0
	.byte	1
	.byte	2
	.byte	3
	.byte	4
	.byte	5
	.byte	6
	.byte	7
	.byte	8
	.byte	9
	.byte	10
	.byte	11
	.byte	12
	.byte	13
	.byte	14
	.byte	15
	.section	.data._g_aes_key,"aw",@progbits
	.align 32
	.type	_g_aes_key, @object
	.size	_g_aes_key, 32
_g_aes_key:
	.byte	1
	.byte	2
	.byte	3
	.byte	4
	.byte	5
	.byte	6
	.byte	7
	.byte	8
	.byte	9
	.byte	10
	.byte	11
	.byte	12
	.byte	13
	.byte	14
	.byte	15
	.byte	15
	.byte	15
	.byte	15
	.byte	14
	.byte	13
	.byte	12
	.byte	11
	.byte	10
	.byte	9
	.byte	8
	.byte	7
	.byte	6
	.byte	5
	.byte	4
	.byte	3
	.byte	2
	.byte	1
	.text
.Letext0:
	.section	.text.unlikely._aes_ecb_encrypt_decrypt
.Letext_cold0:
	.file 2 "/home/stone/Documents/Ali_IOT/build/compiler/gcc-arm-none-eabi/Linux64/arm-none-eabi/include/machine/_default_types.h"
	.file 3 "/home/stone/Documents/Ali_IOT/build/compiler/gcc-arm-none-eabi/Linux64/arm-none-eabi/include/sys/_stdint.h"
	.file 4 "/home/stone/Documents/Ali_IOT/build/compiler/gcc-arm-none-eabi/Linux64/lib/gcc/arm-none-eabi/5.4.1/include/stddef.h"
	.file 5 "./security/alicrypto/./libalicrypto/inc/ali_crypto.h"
	.file 6 "/home/stone/Documents/Ali_IOT/build/compiler/gcc-arm-none-eabi/Linux64/arm-none-eabi/include/stdio.h"
	.file 7 "/home/stone/Documents/Ali_IOT/build/compiler/gcc-arm-none-eabi/Linux64/arm-none-eabi/include/stdlib.h"
	.file 8 "/home/stone/Documents/Ali_IOT/build/compiler/gcc-arm-none-eabi/Linux64/arm-none-eabi/include/string.h"
	.file 9 "./security/alicrypto/./libalicrypto/test/inc/ali_crypto_test.h"
	.section	.note.GNU-stack,"",@progbits
