	.file	"ali_crypto_test_rsa.c"
	.text
.Ltext0:
	.section	.rodata.str1.1,"aMS",@progbits,1
.LC0:
	.string	"I %s %d: rsa gen key test!\n"
.LC1:
	.string	"E %s %d: init_key: get pubkey size fail(%08x)\n"
.LC2:
	.string	"E %s %d: init_key: get keypair size fail(%08x)\n"
.LC3:
	.string	"E %s %d: init_key: malloc(%d) fail\n"
.LC4:
	.string	"E %s %d: ali_rsa_gen_keypair: not expect\n"
.LC5:
	.string	"E %s %d: init_key: gen keypair fail(%08x)\n"
.LC6:
	.string	"E %s %d: ali_rsa_get_key_attr: not expect\n"
.LC7:
	.string	"E %s %d: ali_rsa_init_keypair: not expect\n"
.LC8:
	.string	"E %s %d: init_key: init keypair fail(%08x)\n"
.LC9:
	.string	"E %s %d: ali_rsa_init_pubkey: not expect\n"
.LC10:
	.string	"E %s %d: init_key: init pub_key fail(%08x)\n"
.LC11:
	.string	"E %s %d: ali_rsa_public_encrypt: not expect\n"
.LC12:
	.string	"E %s %d: ali_rsa_private_decrypt: not expect\n"
.LC13:
	.string	"E %s %d: ali_rsa_public_encrypt: rsa_v1_5 fail %d\n"
.LC14:
	.string	"E %s %d: ali_rsa_private_decrypt: rsa_v1_5 fail %d\n"
.LC15:
	.string	"pliantext"
.LC16:
	.string	"ciphertext"
.LC17:
	.string	"E %s %d: RSA encrypt/decrypt with PKCS1_V1_5 test fail!\n"
.LC18:
	.string	"I %s %d: RSA encrypt/decrypt with PKCS1_V1_5 test success!\n"
	.section	.text.unlikely._rsa_test_gen_key,"ax",@progbits
.LCOLDB19:
	.section	.text._rsa_test_gen_key,"ax",@progbits
.LHOTB19:
	.section	.text.unlikely._rsa_test_gen_key
.Ltext_cold0:
	.section	.text._rsa_test_gen_key
	.type	_rsa_test_gen_key, @function
_rsa_test_gen_key:
.LFB1:
	.file 1 "security/alicrypto/./libalicrypto/test/ali_crypto_test_rsa.c"
	.loc 1 49 0
	.cfi_startproc
	pushl	%ebp
	.cfi_def_cfa_offset 8
	.cfi_offset 5, -8
	movl	%esp, %ebp
	.cfi_def_cfa_register 5
	pushl	%edi
	pushl	%esi
	pushl	%ebx
	subl	$1504, %esp
	.cfi_offset 7, -12
	.cfi_offset 6, -16
	.cfi_offset 3, -20
	.loc 1 59 0
	movl	$128, -1492(%ebp)
	.loc 1 60 0
	movl	$128, -1488(%ebp)
	.loc 1 78 0
	pushl	$78
	pushl	$__FUNCTION__.3701
	pushl	$.LC0
	.loc 1 61 0
	movl	$128, -1484(%ebp)
	.loc 1 49 0
	movl	%gs:20, %eax
	movl	%eax, -28(%ebp)
	xorl	%eax, %eax
	.loc 1 62 0
	movl	$128, -1480(%ebp)
	.loc 1 63 0
	movl	$128, -1476(%ebp)
	.loc 1 64 0
	movl	$128, -1472(%ebp)
	.loc 1 65 0
	movl	$128, -1468(%ebp)
	.loc 1 66 0
	movl	$128, -1464(%ebp)
.LVL0:
	.loc 1 78 0
	call	printf
.LVL1:
	.loc 1 80 0
	popl	%esi
	popl	%edi
	pushl	$0
	pushl	$1024
	call	ali_rsa_get_pubkey_size
.LVL2:
	.loc 1 81 0
	addl	$16, %esp
	testl	%eax, %eax
	je	.L47
	.loc 1 86 0
	leal	-1460(%ebp), %esi
	pushl	%ebx
	pushl	%ebx
	pushl	%esi
	pushl	$255
	call	ali_rsa_get_pubkey_size
.LVL3:
	.loc 1 87 0
	addl	$16, %esp
	testl	%eax, %eax
	je	.L47
	.loc 1 92 0
	pushl	%ecx
	pushl	%ecx
	pushl	$0
	pushl	$1024
	call	ali_rsa_get_keypair_size
.LVL4:
	.loc 1 93 0
	addl	$16, %esp
	testl	%eax, %eax
	je	.L47
	.loc 1 98 0
	leal	-1456(%ebp), %eax
.LVL5:
	pushl	%edx
	pushl	%edx
	pushl	%eax
	pushl	$255
	call	ali_rsa_get_keypair_size
.LVL6:
	.loc 1 99 0
	addl	$16, %esp
	testl	%eax, %eax
	je	.L47
.LVL7:
	.loc 1 104 0
	leal	-1308(%ebp), %ebx
	pushl	%eax
	leal	-1436(%ebp), %edi
	pushl	%eax
	leal	-1180(%ebp), %eax
	pushl	$0
	pushl	$0
	pushl	$0
	pushl	$0
	pushl	$0
	pushl	$0
	pushl	$0
	pushl	$0
	pushl	$0
	pushl	$0
	pushl	$0
	pushl	-1484(%ebp)
	pushl	%eax
	pushl	-1488(%ebp)
	pushl	%ebx
	pushl	-1492(%ebp)
	pushl	%edi
	pushl	$1024
	call	ali_rsa_init_keypair
.LVL8:
	.loc 1 107 0
	addl	$80, %esp
	testl	%eax, %eax
	je	.L47
.LVL9:
	.loc 1 112 0
	pushl	%eax
	pushl	%eax
	pushl	$0
	pushl	-1488(%ebp)
	pushl	%ebx
	pushl	-1492(%ebp)
	pushl	%edi
	pushl	$1024
	call	ali_rsa_init_pubkey
.LVL10:
	.loc 1 114 0
	addl	$32, %esp
	testl	%eax, %eax
	je	.L47
.LVL11:
	.loc 1 119 0
	pushl	%eax
	pushl	%eax
	pushl	$0
	pushl	-1488(%ebp)
	pushl	%ebx
	pushl	-1492(%ebp)
	pushl	%edi
	pushl	$1024
	call	ali_rsa_init_pubkey
.LVL12:
	.loc 1 121 0
	addl	$32, %esp
	testl	%eax, %eax
	je	.L47
.LVL13:
	.loc 1 125 0
	pushl	%eax
	pushl	%eax
	pushl	%esi
	pushl	$1024
	call	ali_rsa_get_pubkey_size
.LVL14:
	.loc 1 126 0
	addl	$16, %esp
	testl	%eax, %eax
	je	.L5
	.loc 1 127 0
	pushl	%eax
	pushl	$127
	pushl	$__FUNCTION__.3701
	pushl	$.LC1
	jmp	.L50
.L5:
.LVL15:
	.loc 1 129 0
	pushl	%eax
	pushl	%eax
	leal	-1456(%ebp), %eax
	pushl	%eax
	pushl	$1024
	call	ali_rsa_get_keypair_size
.LVL16:
	.loc 1 130 0
	addl	$16, %esp
	testl	%eax, %eax
	je	.L6
	.loc 1 131 0
	pushl	%eax
	pushl	$131
	pushl	$__FUNCTION__.3701
	pushl	$.LC2
.LVL17:
.L50:
	call	printf
.LVL18:
	jmp	.L46
.LVL19:
.L6:
	.loc 1 134 0
	movl	-1460(%ebp), %ebx
	subl	$12, %esp
	pushl	%ebx
	call	malloc
.LVL20:
	.loc 1 135 0
	addl	$16, %esp
	testl	%eax, %eax
	.loc 1 134 0
	movl	%eax, -1500(%ebp)
.LVL21:
	.loc 1 135 0
	jne	.L7
	.loc 1 136 0
	pushl	%ebx
	pushl	$136
	pushl	$__FUNCTION__.3701
	pushl	$.LC3
	jmp	.L50
.L7:
	.loc 1 138 0
	subl	$12, %esp
	pushl	-1456(%ebp)
	call	malloc
.LVL22:
	.loc 1 144 0
	pushl	$0
	pushl	$0
	.loc 1 138 0
	movl	%eax, %ebx
.LVL23:
	.loc 1 144 0
	pushl	$0
	pushl	$1024
	call	ali_rsa_gen_keypair
.LVL24:
	.loc 1 145 0
	addl	$32, %esp
	testl	%eax, %eax
	jne	.L8
.LVL25:
	.loc 1 146 0
	pushl	%eax
	pushl	$146
	pushl	$__FUNCTION__.3701
	pushl	$.LC4
	jmp	.L48
.LVL26:
.L8:
	.loc 1 149 0
	pushl	%ebx
	pushl	$0
	pushl	$0
	pushl	$1024
	call	ali_rsa_gen_keypair
.LVL27:
	.loc 1 150 0
	addl	$16, %esp
	testl	%eax, %eax
	je	.L10
	.loc 1 151 0
	pushl	%eax
	pushl	$151
	pushl	$__FUNCTION__.3701
	pushl	$.LC5
	jmp	.L48
.L10:
	.loc 1 155 0
	leal	-1492(%ebp), %edi
	leal	-1436(%ebp), %esi
	pushl	%edi
	pushl	%esi
	pushl	$0
	pushl	$304
	call	ali_rsa_get_key_attr
.LVL28:
	.loc 1 157 0
	addl	$16, %esp
	testl	%eax, %eax
	jne	.L11
	.loc 1 158 0
	pushl	%edi
	pushl	$158
	jmp	.L49
.L11:
	.loc 1 161 0
	pushl	%edi
	pushl	%esi
	pushl	%ebx
	pushl	$-1
	call	ali_rsa_get_key_attr
.LVL29:
	.loc 1 163 0
	addl	$16, %esp
	testl	%eax, %eax
	jne	.L12
	.loc 1 164 0
	pushl	%esi
	pushl	$164
.L49:
	pushl	$__FUNCTION__.3701
	pushl	$.LC6
	jmp	.L48
.L12:
	.loc 1 168 0
	pushl	%edi
	pushl	%esi
	pushl	%ebx
	pushl	$304
	call	ali_rsa_get_key_attr
.LVL30:
	.loc 1 170 0
	addl	$16, %esp
	testl	%eax, %eax
	jne	.L9
	.loc 1 173 0
	leal	-1488(%ebp), %eax
.LVL31:
	pushl	%eax
	leal	-1308(%ebp), %eax
	pushl	%eax
	pushl	%ebx
	pushl	$560
	call	ali_rsa_get_key_attr
.LVL32:
	.loc 1 175 0
	addl	$16, %esp
	testl	%eax, %eax
	jne	.L9
	.loc 1 178 0
	leal	-1484(%ebp), %eax
.LVL33:
	pushl	%eax
	leal	-1180(%ebp), %eax
	pushl	%eax
	pushl	%ebx
	pushl	$816
	call	ali_rsa_get_key_attr
.LVL34:
	.loc 1 180 0
	addl	$16, %esp
	testl	%eax, %eax
	jne	.L9
	.loc 1 183 0
	leal	-1480(%ebp), %eax
.LVL35:
	pushl	%eax
	leal	-1052(%ebp), %eax
	pushl	%eax
	pushl	%ebx
	pushl	$1072
	call	ali_rsa_get_key_attr
.LVL36:
	.loc 1 185 0
	addl	$16, %esp
	testl	%eax, %eax
	jne	.L9
	.loc 1 188 0
	leal	-1476(%ebp), %eax
.LVL37:
	pushl	%eax
	leal	-924(%ebp), %eax
	pushl	%eax
	pushl	%ebx
	pushl	$1328
	call	ali_rsa_get_key_attr
.LVL38:
	.loc 1 190 0
	addl	$16, %esp
	testl	%eax, %eax
	jne	.L9
	.loc 1 193 0
	leal	-1472(%ebp), %eax
.LVL39:
	pushl	%eax
	leal	-796(%ebp), %eax
	pushl	%eax
	pushl	%ebx
	pushl	$1584
	call	ali_rsa_get_key_attr
.LVL40:
	.loc 1 195 0
	addl	$16, %esp
	testl	%eax, %eax
	jne	.L9
	.loc 1 198 0
	leal	-1468(%ebp), %eax
.LVL41:
	leal	-668(%ebp), %edi
	pushl	%eax
	pushl	%edi
	pushl	%ebx
	pushl	$1840
	call	ali_rsa_get_key_attr
.LVL42:
	.loc 1 200 0
	addl	$16, %esp
	testl	%eax, %eax
	jne	.L9
	.loc 1 203 0
	leal	-1464(%ebp), %eax
.LVL43:
	pushl	%eax
	leal	-540(%ebp), %eax
	pushl	%eax
	pushl	%ebx
	pushl	$2096
	call	ali_rsa_get_key_attr
.LVL44:
	.loc 1 205 0
	addl	$16, %esp
	testl	%eax, %eax
	jne	.L9
	.loc 1 210 0
	leal	-1180(%ebp), %edx
	leal	-1308(%ebp), %eax
.LVL45:
	leal	-1436(%ebp), %esi
	pushl	%ecx
	pushl	%ecx
	pushl	%ebx
	pushl	$0
	pushl	$0
	pushl	$0
	pushl	$0
	pushl	$0
	pushl	$0
	pushl	$0
	pushl	$0
	pushl	$0
	pushl	$0
	pushl	-1484(%ebp)
	pushl	%edx
	pushl	-1488(%ebp)
	pushl	%eax
	pushl	$129
	pushl	%esi
	pushl	$1024
	movl	%edx, -1504(%ebp)
	call	ali_rsa_init_keypair
.LVL46:
	.loc 1 213 0
	addl	$80, %esp
	testl	%eax, %eax
	movl	-1504(%ebp), %edx
	jne	.L14
	.loc 1 214 0
	pushl	%edx
	pushl	$214
	pushl	$__FUNCTION__.3701
	pushl	$.LC7
	jmp	.L48
.L14:
.LVL47:
	.loc 1 218 0
	pushl	%eax
	pushl	%eax
	leal	-540(%ebp), %eax
	pushl	%ebx
	pushl	-1464(%ebp)
	pushl	%eax
	leal	-796(%ebp), %eax
	pushl	-1468(%ebp)
	pushl	%edi
	pushl	-1472(%ebp)
	pushl	%eax
	leal	-924(%ebp), %eax
	pushl	-1476(%ebp)
	movl	%edx, -1504(%ebp)
	pushl	%eax
	leal	-1052(%ebp), %eax
	pushl	-1480(%ebp)
	pushl	%eax
	leal	-1308(%ebp), %eax
	pushl	-1484(%ebp)
	pushl	%edx
	pushl	-1488(%ebp)
	pushl	%eax
	pushl	-1492(%ebp)
	pushl	%esi
	pushl	$1024
	call	ali_rsa_init_keypair
.LVL48:
	.loc 1 222 0
	addl	$80, %esp
	testl	%eax, %eax
	movl	-1504(%ebp), %edx
	jne	.L9
	.loc 1 226 0
	movl	-1456(%ebp), %ecx
	movl	%ebx, %edi
	rep stosb
.LVL49:
	.loc 1 227 0
	pushl	%eax
	pushl	%eax
	leal	-1308(%ebp), %eax
	pushl	%ebx
	pushl	$0
	pushl	$0
	pushl	$0
	pushl	$0
	pushl	$0
	pushl	$0
	pushl	$0
	pushl	$0
	pushl	$0
	pushl	$0
	pushl	-1484(%ebp)
	pushl	%edx
	pushl	-1488(%ebp)
	pushl	%eax
	pushl	-1492(%ebp)
	pushl	%esi
	pushl	$1024
	call	ali_rsa_init_keypair
.LVL50:
	.loc 1 230 0
	addl	$80, %esp
	testl	%eax, %eax
	je	.L15
	.loc 1 231 0
	pushl	%eax
	pushl	$231
	pushl	$__FUNCTION__.3701
	pushl	$.LC8
	jmp	.L48
.L15:
.LVL51:
	.loc 1 235 0
	pushl	%eax
	pushl	%eax
	leal	-1308(%ebp), %eax
	pushl	-1500(%ebp)
	pushl	-1488(%ebp)
	pushl	%eax
	pushl	$129
	pushl	%esi
	pushl	$1024
	call	ali_rsa_init_pubkey
.LVL52:
	.loc 1 237 0
	addl	$32, %esp
	testl	%eax, %eax
	jne	.L16
.LVL53:
	.loc 1 238 0
	pushl	%eax
	pushl	$238
	pushl	$__FUNCTION__.3701
	pushl	$.LC9
	jmp	.L48
.LVL54:
.L16:
	.loc 1 241 0
	movl	-1460(%ebp), %ecx
	movl	-1500(%ebp), %edi
	xorl	%eax, %eax
.LVL55:
	rep stosb
	.loc 1 242 0
	pushl	%eax
	pushl	%eax
	leal	-1308(%ebp), %eax
	pushl	-1500(%ebp)
	pushl	-1488(%ebp)
	pushl	%eax
	pushl	-1492(%ebp)
	pushl	%esi
	pushl	$1024
	call	ali_rsa_init_pubkey
.LVL56:
	.loc 1 244 0
	addl	$32, %esp
	testl	%eax, %eax
	.loc 1 242 0
	movl	%eax, -1504(%ebp)
.LVL57:
	.loc 1 244 0
	je	.L17
	.loc 1 245 0
	pushl	%eax
	pushl	$245
	pushl	$__FUNCTION__.3701
	pushl	$.LC10
	jmp	.L48
.L17:
	.loc 1 252 0
	subl	$12, %esp
	leal	-1452(%ebp), %edx
	.loc 1 248 0
	movl	$10, -1448(%ebp)
.LVL58:
	.loc 1 252 0
	movl	%esp, %edi
	.loc 1 251 0
	movl	$128, -1452(%ebp)
	.loc 1 252 0
	leal	-284(%ebp), %eax
.LVL59:
	leal	-1448(%ebp), %esi
	movl	$3, %ecx
	rep movsl
	pushl	%edx
	pushl	%eax
	leal	-412(%ebp), %eax
	pushl	$128
	movl	%edx, -1508(%ebp)
	pushl	%eax
	pushl	$0
	call	ali_rsa_public_encrypt
.LVL60:
	.loc 1 254 0
	addl	$32, %esp
	testl	%eax, %eax
	movl	-1508(%ebp), %edx
	jne	.L18
.LVL61:
	.loc 1 255 0
	pushl	%eax
	pushl	$255
	pushl	$__FUNCTION__.3701
	pushl	$.LC11
	jmp	.L48
.LVL62:
.L18:
	.loc 1 259 0
	subl	$12, %esp
	leal	-156(%ebp), %eax
.LVL63:
	movl	$3, %ecx
	movl	%esp, %edi
	leal	-1448(%ebp), %esi
	rep movsl
	pushl	%edx
	pushl	%eax
	leal	-284(%ebp), %eax
	pushl	$128
	movl	%edx, -1508(%ebp)
	pushl	%eax
	pushl	$0
	call	ali_rsa_private_decrypt
.LVL64:
	.loc 1 261 0
	addl	$32, %esp
	testl	%eax, %eax
	movl	-1508(%ebp), %edx
	jne	.L19
	.loc 1 262 0
	pushl	%edi
	pushl	$262
	pushl	$__FUNCTION__.3701
	pushl	$.LC12
	jmp	.L48
.L19:
	.loc 1 265 0
	leal	-1448(%ebp), %eax
.LVL65:
	movl	$3, %ecx
	.loc 1 271 0
	subl	$12, %esp
	.loc 1 270 0
	movl	$128, -1452(%ebp)
	.loc 1 271 0
	leal	-1448(%ebp), %esi
	.loc 1 265 0
	movl	%eax, -1508(%ebp)
	movl	%eax, %edi
	movl	-1504(%ebp), %eax
	rep stosl
	.loc 1 268 0
	leal	-412(%ebp), %edi
	movb	$10, %al
	movl	$117, %ecx
	.loc 1 266 0
	movl	$10, -1448(%ebp)
.LVL66:
	.loc 1 268 0
	rep stosb
	.loc 1 271 0
	movl	%esp, %edi
	leal	-284(%ebp), %eax
	movl	$3, %ecx
	rep movsl
	pushl	%edx
	pushl	%eax
	leal	-412(%ebp), %eax
	pushl	$117
	pushl	%eax
	pushl	-1500(%ebp)
	call	ali_rsa_public_encrypt
.LVL67:
	.loc 1 273 0
	addl	$32, %esp
	testl	%eax, %eax
	je	.L20
	.loc 1 274 0
	pushl	%eax
	pushl	$274
	pushl	$__FUNCTION__.3701
	pushl	$.LC13
	jmp	.L48
.L20:
	.loc 1 277 0
	subl	$12, %esp
	movl	-1508(%ebp), %esi
	leal	-1452(%ebp), %eax
.LVL68:
	movl	%esp, %edi
	movl	$3, %ecx
	rep movsl
	pushl	%eax
	leal	-156(%ebp), %edi
	leal	-284(%ebp), %eax
	pushl	%edi
	pushl	$128
	pushl	%eax
	pushl	%ebx
	call	ali_rsa_private_decrypt
.LVL69:
	.loc 1 279 0
	addl	$32, %esp
	testl	%eax, %eax
	jne	.L21
	.loc 1 279 0 is_stmt 0 discriminator 1
	cmpl	$117, -1452(%ebp)
	je	.L22
.L21:
	.loc 1 280 0 is_stmt 1
	pushl	%eax
	pushl	$280
	pushl	$__FUNCTION__.3701
	pushl	$.LC14
.LVL70:
.L48:
	call	printf
.LVL71:
	addl	$16, %esp
	jmp	.L9
.LVL72:
.L22:
	.loc 1 282 0
	leal	-412(%ebp), %eax
.LVL73:
	pushl	%esi
	pushl	$117
	pushl	%edi
	pushl	%eax
	call	memcmp
.LVL74:
	addl	$16, %esp
	testl	%eax, %eax
	movl	%eax, %esi
	je	.L23
	.loc 1 283 0
	pushl	%ecx
	pushl	$117
	pushl	%edi
	pushl	$.LC15
	call	ali_crypto_print_data
.LVL75:
	.loc 1 284 0
	leal	-284(%ebp), %eax
	addl	$12, %esp
	pushl	-1452(%ebp)
	pushl	%eax
	pushl	$.LC16
	call	ali_crypto_print_data
.LVL76:
	.loc 1 285 0
	addl	$12, %esp
	pushl	$285
	pushl	$__FUNCTION__.3701
	pushl	$.LC17
	jmp	.L50
.L23:
	.loc 1 287 0
	pushl	%eax
	pushl	$287
	pushl	$__FUNCTION__.3701
	pushl	$.LC18
	call	printf
.LVL77:
	.loc 1 290 0
	popl	%edx
	pushl	-1500(%ebp)
	call	free
.LVL78:
	.loc 1 291 0
	movl	%ebx, (%esp)
	call	free
.LVL79:
	.loc 1 292 0
	addl	$16, %esp
	jmp	.L3
.LVL80:
.L9:
	.loc 1 295 0
	subl	$12, %esp
	pushl	-1500(%ebp)
	call	free
.LVL81:
	.loc 1 297 0
	addl	$16, %esp
	testl	%ebx, %ebx
	je	.L47
	.loc 1 298 0
	subl	$12, %esp
	pushl	%ebx
	call	free
.LVL82:
.L46:
	addl	$16, %esp
.L47:
	.loc 1 301 0
	orl	$-1, %esi
.L3:
	.loc 1 302 0
	movl	-28(%ebp), %edx
	xorl	%gs:20, %edx
	movl	%esi, %eax
	je	.L25
	call	__stack_chk_fail
.LVL83:
.L25:
	leal	-12(%ebp), %esp
	popl	%ebx
	.cfi_restore 3
	popl	%esi
	.cfi_restore 6
	popl	%edi
	.cfi_restore 7
	popl	%ebp
	.cfi_restore 5
	.cfi_def_cfa 4, 4
	ret
	.cfi_endproc
.LFE1:
	.size	_rsa_test_gen_key, .-_rsa_test_gen_key
	.section	.text.unlikely._rsa_test_gen_key
.LCOLDE19:
	.section	.text._rsa_test_gen_key
.LHOTE19:
	.section	.rodata.str1.1
.LC20:
	.string	"E %s %d: rsa_v1_5: invalid input args!\n"
.LC21:
	.string	"E %s %d: rsa_v1_5: public encrypt fail(%08x)\n"
.LC22:
	.string	"E %s %d: rsa_v1_5: public decrypt fail(%08x)\n"
	.section	.text.unlikely._ali_crypto_encrypt_decrypt_v1_5,"ax",@progbits
.LCOLDB23:
	.section	.text._ali_crypto_encrypt_decrypt_v1_5,"ax",@progbits
.LHOTB23:
	.type	_ali_crypto_encrypt_decrypt_v1_5, @function
_ali_crypto_encrypt_decrypt_v1_5:
.LFB3:
	.loc 1 467 0
	.cfi_startproc
.LVL84:
	pushl	%ebp
	.cfi_def_cfa_offset 8
	.cfi_offset 5, -8
	movl	%esp, %ebp
	.cfi_def_cfa_register 5
	pushl	%edi
	pushl	%esi
	pushl	%ebx
	subl	$444, %esp
	.cfi_offset 7, -12
	.cfi_offset 6, -16
	.cfi_offset 3, -20
	.loc 1 467 0
	movl	%eax, -444(%ebp)
	movl	%gs:20, %eax
	movl	%eax, -28(%ebp)
	xorl	%eax, %eax
.LVL85:
	.loc 1 475 0
	cmpl	$0, -444(%ebp)
	je	.L62
	testl	%edx, %edx
	jne	.L53
.L62:
	.loc 1 476 0
	pushl	%ebx
	pushl	$476
	pushl	$__FUNCTION__.3732
	pushl	$.LC20
	jmp	.L64
.L53:
	.loc 1 479 0
	leal	-424(%ebp), %edi
	xorl	%eax, %eax
	movl	$3, %ecx
	.loc 1 485 0
	subl	$12, %esp
	movl	%edx, -448(%ebp)
	.loc 1 484 0
	movl	$128, -428(%ebp)
	.loc 1 479 0
	rep stosl
	.loc 1 482 0
	leal	-412(%ebp), %edi
	movb	$10, %al
	movl	$117, %ecx
	.loc 1 480 0
	movl	$10, -424(%ebp)
.LVL86:
	.loc 1 485 0
	leal	-424(%ebp), %esi
	leal	-156(%ebp), %ebx
	.loc 1 482 0
	rep stosb
	.loc 1 485 0
	movl	%esp, %edi
	leal	-428(%ebp), %eax
	movl	$3, %ecx
	rep movsl
	pushl	%eax
	leal	-412(%ebp), %eax
	pushl	%ebx
	pushl	$117
	pushl	%eax
	pushl	-444(%ebp)
	call	ali_rsa_public_encrypt
.LVL87:
	.loc 1 487 0
	addl	$32, %esp
	testl	%eax, %eax
	movl	-448(%ebp), %edx
	je	.L56
	.loc 1 488 0
	pushl	%eax
	pushl	$488
	pushl	$__FUNCTION__.3732
	pushl	$.LC21
.LVL88:
.L64:
	call	printf
.LVL89:
	orl	$-1, %esi
	addl	$16, %esp
	jmp	.L55
.LVL90:
.L56:
	.loc 1 492 0
	subl	$12, %esp
	movl	%edx, -448(%ebp)
.LVL91:
	leal	-428(%ebp), %eax
.LVL92:
	movl	%esp, %edi
	movl	$3, %ecx
	leal	-424(%ebp), %esi
	rep movsl
	pushl	%eax
	leal	-412(%ebp), %eax
	pushl	%ebx
	pushl	$128
	.loc 1 495 0
	orl	$-1, %esi
	.loc 1 492 0
	pushl	%eax
	pushl	-444(%ebp)
	call	ali_rsa_public_encrypt
.LVL93:
	.loc 1 494 0
	addl	$32, %esp
	testl	%eax, %eax
	je	.L55
	.loc 1 498 0
	subl	$12, %esp
	movl	$3, %ecx
	leal	-424(%ebp), %esi
	movl	%esp, %edi
	leal	-428(%ebp), %eax
.LVL94:
	rep movsl
	leal	-284(%ebp), %edi
	pushl	%eax
	movl	-448(%ebp), %edx
	pushl	%edi
	pushl	$128
	pushl	%ebx
	pushl	%edx
	call	ali_rsa_private_decrypt
.LVL95:
	.loc 1 500 0
	addl	$32, %esp
	testl	%eax, %eax
	jne	.L57
	.loc 1 500 0 is_stmt 0 discriminator 1
	cmpl	$117, -428(%ebp)
	je	.L58
.L57:
	.loc 1 501 0 is_stmt 1
	pushl	%eax
	pushl	$501
	pushl	$__FUNCTION__.3732
	pushl	$.LC22
	jmp	.L64
.L58:
	.loc 1 504 0
	leal	-412(%ebp), %eax
.LVL96:
	pushl	%ecx
	pushl	$117
	pushl	%edi
	pushl	%eax
	call	memcmp
.LVL97:
	addl	$16, %esp
	testl	%eax, %eax
	movl	%eax, %esi
	je	.L59
	.loc 1 505 0
	pushl	%edx
	pushl	$117
	pushl	%edi
	pushl	$.LC15
	call	ali_crypto_print_data
.LVL98:
	.loc 1 506 0
	addl	$12, %esp
	pushl	-428(%ebp)
	pushl	%ebx
	pushl	$.LC16
	call	ali_crypto_print_data
.LVL99:
	.loc 1 507 0
	addl	$12, %esp
	pushl	$507
	pushl	$__FUNCTION__.3732
	pushl	$.LC17
	jmp	.L64
.L59:
	.loc 1 509 0
	pushl	%eax
	pushl	$509
	pushl	$__FUNCTION__.3732
	pushl	$.LC18
	call	printf
.LVL100:
	.loc 1 512 0
	addl	$16, %esp
.LVL101:
.L55:
	.loc 1 513 0
	movl	-28(%ebp), %ebx
	xorl	%gs:20, %ebx
	movl	%esi, %eax
	je	.L60
	call	__stack_chk_fail
.LVL102:
.L60:
	leal	-12(%ebp), %esp
	popl	%ebx
	.cfi_restore 3
	popl	%esi
	.cfi_restore 6
	popl	%edi
	.cfi_restore 7
	popl	%ebp
	.cfi_restore 5
	.cfi_def_cfa 4, 4
.LVL103:
	ret
	.cfi_endproc
.LFE3:
	.size	_ali_crypto_encrypt_decrypt_v1_5, .-_ali_crypto_encrypt_decrypt_v1_5
	.section	.text.unlikely._ali_crypto_encrypt_decrypt_v1_5
.LCOLDE23:
	.section	.text._ali_crypto_encrypt_decrypt_v1_5
.LHOTE23:
	.section	.rodata.str1.1
.LC24:
	.string	"I %s %d: rsa oeap not support hash 384 512\n"
.LC25:
	.string	"E %s %d: rsa_oaep: public encrypt(without lparam) fail(%08x)\n"
.LC26:
	.string	"E %s %d: rsa_oaep: private decrypt(without lparam) fail(%08x)\n"
.LC27:
	.string	"E %s %d: RSA encrypt/decrypt with PKCS1_OAEP(without lparam) test fail!\n"
.LC28:
	.string	"I %s %d: RSA encrypt/decrypt with PKCS1_OAEP(without lparam) test success!\n"
.LC29:
	.string	"E %s %d: rsa_oaep: public encrypt(with lparam) fail(%08x)\n"
.LC30:
	.string	"E %s %d: rsa_oaep: private decrypt(with lparam) fail(%08x)\n"
.LC31:
	.string	"E %s %d: RSA encrypt/decrypt with PKCS1_OAEP(with lparam) test fail!\n"
.LC32:
	.string	"I %s %d: RSA encrypt/decrypt with PKCS1_OAEP(with lparam) test success!\n"
	.section	.text.unlikely._ali_crypto_encrypt_decrypt_oaep,"ax",@progbits
.LCOLDB33:
	.section	.text._ali_crypto_encrypt_decrypt_oaep,"ax",@progbits
.LHOTB33:
	.type	_ali_crypto_encrypt_decrypt_oaep, @function
_ali_crypto_encrypt_decrypt_oaep:
.LFB4:
	.loc 1 517 0
	.cfi_startproc
.LVL104:
	pushl	%ebp
	.cfi_def_cfa_offset 8
	.cfi_offset 5, -8
	movl	%esp, %ebp
	.cfi_def_cfa_register 5
	pushl	%edi
	pushl	%esi
	pushl	%ebx
	subl	$444, %esp
	.cfi_offset 7, -12
	.cfi_offset 6, -16
	.cfi_offset 3, -20
	.loc 1 517 0
	movl	%eax, -448(%ebp)
	movl	%edx, -452(%ebp)
	movl	%gs:20, %eax
	movl	%eax, -28(%ebp)
	xorl	%eax, %eax
.LVL105:
	.loc 1 527 0
	cmpl	$0, -448(%ebp)
	je	.L87
	testl	%edx, %edx
	jne	.L66
.L87:
	.loc 1 528 0
	pushl	%eax
	pushl	$528
	pushl	$__FUNCTION__.3745
	pushl	$.LC20
	call	printf
.LVL106:
	.loc 1 529 0
	addl	$12, %esp
	pushl	$529
	pushl	$__FUNCTION__.3745
	pushl	$.LC20
	jmp	.L94
.LVL107:
.L66:
	.loc 1 532 0
	movl	$11, -424(%ebp)
.LVL108:
	.loc 1 534 0
	movl	$1, -444(%ebp)
.LVL109:
.L80:
	.loc 1 535 0
	movl	-444(%ebp), %eax
	subl	$4, %eax
	cmpl	$1, %eax
	ja	.L69
	.loc 1 536 0
	pushl	%eax
	pushl	$536
	pushl	$__FUNCTION__.3745
	pushl	$.LC24
	jmp	.L93
.L69:
	.loc 1 540 0
	cmpl	$5, -444(%ebp)
	je	.L70
	.loc 1 544 0
	cmpl	$1, -444(%ebp)
	movl	$86, %ebx
	je	.L71
	.loc 1 544 0 is_stmt 0 discriminator 1
	cmpl	$2, -444(%ebp)
	movl	$70, %ebx
	je	.L71
	.loc 1 544 0 discriminator 3
	cmpl	$3, -444(%ebp)
	movl	$62, %ebx
	je	.L71
	.loc 1 544 0 discriminator 5
	cmpl	$4, -444(%ebp)
	movl	$30, %ebx
	je	.L71
	.loc 1 544 0 discriminator 9
	cmpl	$6, -444(%ebp)
	movl	$126, %eax
	movl	$94, %ebx
	cmovne	%eax, %ebx
.L71:
.LVL110:
	.loc 1 545 0 is_stmt 1 discriminator 24
	leal	-412(%ebp), %edi
	movb	$10, %al
	movl	%ebx, %ecx
	.loc 1 550 0 discriminator 24
	subl	$12, %esp
	.loc 1 549 0 discriminator 24
	movl	$128, -428(%ebp)
	.loc 1 550 0 discriminator 24
	leal	-424(%ebp), %esi
	.loc 1 545 0 discriminator 24
	rep stosb
	.loc 1 548 0 discriminator 24
	movl	-444(%ebp), %eax
	.loc 1 550 0 discriminator 24
	movl	%esp, %edi
	movl	$3, %ecx
	.loc 1 548 0 discriminator 24
	movl	%eax, -420(%ebp)
	.loc 1 550 0 discriminator 24
	leal	-428(%ebp), %eax
	rep movsl
	pushl	%eax
	leal	-156(%ebp), %eax
	pushl	%eax
	leal	-412(%ebp), %eax
	pushl	%ebx
	pushl	%eax
	pushl	-448(%ebp)
	call	ali_rsa_public_encrypt
.LVL111:
	.loc 1 552 0 discriminator 24
	addl	$32, %esp
	testl	%eax, %eax
	je	.L72
	.loc 1 553 0
	pushl	%eax
	pushl	$554
	pushl	$__FUNCTION__.3745
	pushl	$.LC25
.LVL112:
.L94:
	call	printf
.LVL113:
	.loc 1 553 0
	addl	$16, %esp
	orl	$-1, %eax
	jmp	.L68
.LVL114:
.L72:
	.loc 1 556 0
	leal	-428(%ebp), %eax
.LVL115:
	subl	$12, %esp
	movl	$3, %ecx
	movl	%esp, %edi
	leal	-424(%ebp), %esi
	rep movsl
	pushl	%eax
	leal	-284(%ebp), %eax
	pushl	%eax
	leal	-156(%ebp), %eax
	pushl	$128
	pushl	%eax
	pushl	-452(%ebp)
	call	ali_rsa_private_decrypt
.LVL116:
	.loc 1 558 0
	addl	$32, %esp
	testl	%eax, %eax
	jne	.L73
	.loc 1 558 0 is_stmt 0 discriminator 1
	cmpl	-428(%ebp), %ebx
	je	.L74
.L73:
	.loc 1 559 0 is_stmt 1
	pushl	%eax
	pushl	$560
	pushl	$__FUNCTION__.3745
	pushl	$.LC26
	jmp	.L94
.L74:
.LVL117:
	.loc 1 562 0
	pushl	%eax
	leal	-284(%ebp), %eax
	pushl	%ebx
	pushl	%eax
	leal	-412(%ebp), %eax
	pushl	%eax
	call	memcmp
.LVL118:
	addl	$16, %esp
	testl	%eax, %eax
	je	.L75
	.loc 1 563 0
	leal	-284(%ebp), %eax
	pushl	%edi
	pushl	%ebx
	pushl	%eax
	pushl	$.LC15
	call	ali_crypto_print_data
.LVL119:
	.loc 1 564 0
	leal	-156(%ebp), %eax
	addl	$12, %esp
	pushl	-428(%ebp)
	pushl	%eax
	pushl	$.LC16
	call	ali_crypto_print_data
.LVL120:
	.loc 1 565 0
	addl	$12, %esp
	pushl	$566
	pushl	$__FUNCTION__.3745
	pushl	$.LC27
	jmp	.L94
.L75:
	.loc 1 568 0
	pushl	%esi
	pushl	$568
	.loc 1 574 0
	leal	-424(%ebp), %esi
	.loc 1 568 0
	pushl	$__FUNCTION__.3745
	pushl	$.LC28
	call	printf
.LVL121:
	.loc 1 574 0
	leal	-428(%ebp), %eax
	subl	$12, %esp
	.loc 1 573 0
	movl	$128, -428(%ebp)
	.loc 1 574 0
	movl	%esp, %edi
	movl	$3, %ecx
	rep movsl
	pushl	%eax
	leal	-156(%ebp), %eax
	pushl	%eax
	leal	-412(%ebp), %eax
	pushl	%ebx
	pushl	%eax
	pushl	-448(%ebp)
	call	ali_rsa_public_encrypt
.LVL122:
	.loc 1 576 0
	addl	$48, %esp
	testl	%eax, %eax
	je	.L76
	.loc 1 577 0
	pushl	%eax
	pushl	$578
	pushl	$__FUNCTION__.3745
	pushl	$.LC29
	jmp	.L94
.L76:
	.loc 1 580 0
	leal	-428(%ebp), %eax
.LVL123:
	subl	$12, %esp
	movl	$3, %ecx
	movl	%esp, %edi
	leal	-424(%ebp), %esi
	rep movsl
	pushl	%eax
	leal	-284(%ebp), %eax
	pushl	%eax
	leal	-156(%ebp), %eax
	pushl	$128
	pushl	%eax
	pushl	-452(%ebp)
	call	ali_rsa_private_decrypt
.LVL124:
	.loc 1 582 0
	addl	$32, %esp
	testl	%eax, %eax
	jne	.L77
	.loc 1 582 0 is_stmt 0 discriminator 1
	cmpl	-428(%ebp), %ebx
	je	.L78
.L77:
	.loc 1 583 0 is_stmt 1
	pushl	%eax
	pushl	$584
	pushl	$__FUNCTION__.3745
	pushl	$.LC30
	jmp	.L94
.L78:
	.loc 1 587 0
	leal	-284(%ebp), %eax
.LVL125:
	pushl	%ecx
	pushl	%ebx
	pushl	%eax
	leal	-412(%ebp), %eax
	pushl	%eax
	call	memcmp
.LVL126:
	addl	$16, %esp
	testl	%eax, %eax
	je	.L79
	.loc 1 588 0
	leal	-284(%ebp), %eax
	pushl	%edx
	pushl	%ebx
	pushl	%eax
	pushl	$.LC15
	call	ali_crypto_print_data
.LVL127:
	.loc 1 589 0
	leal	-156(%ebp), %eax
	addl	$12, %esp
	pushl	-428(%ebp)
	pushl	%eax
	pushl	$.LC16
	call	ali_crypto_print_data
.LVL128:
	.loc 1 590 0
	addl	$12, %esp
	pushl	$591
	pushl	$__FUNCTION__.3745
	pushl	$.LC31
	jmp	.L94
.L79:
	.loc 1 593 0
	pushl	%eax
	pushl	$593
	pushl	$__FUNCTION__.3745
	pushl	$.LC32
.LVL129:
.L93:
	call	printf
.LVL130:
	addl	$16, %esp
.L70:
	.loc 1 534 0 discriminator 2
	incl	-444(%ebp)
.LVL131:
	cmpl	$7, -444(%ebp)
	jne	.L80
	.loc 1 597 0
	xorl	%eax, %eax
.L68:
	.loc 1 598 0
	movl	-28(%ebp), %edx
	xorl	%gs:20, %edx
	je	.L81
	call	__stack_chk_fail
.LVL132:
.L81:
	leal	-12(%ebp), %esp
	popl	%ebx
	.cfi_restore 3
	popl	%esi
	.cfi_restore 6
	popl	%edi
	.cfi_restore 7
	popl	%ebp
	.cfi_restore 5
	.cfi_def_cfa 4, 4
.LVL133:
	ret
	.cfi_endproc
.LFE4:
	.size	_ali_crypto_encrypt_decrypt_oaep, .-_ali_crypto_encrypt_decrypt_oaep
	.section	.text.unlikely._ali_crypto_encrypt_decrypt_oaep
.LCOLDE33:
	.section	.text._ali_crypto_encrypt_decrypt_oaep
.LHOTE33:
	.section	.rodata.str1.1
.LC34:
	.string	"I %s %d: mbedtls rsa V1.5 not support hash 384 512\n"
.LC35:
	.string	"E %s %d: rsa_v1_5: sign fail(%08x)\n"
.LC36:
	.string	"E %s %d: rsa_v1_5: verify fail(%08x)\n"
.LC37:
	.string	"I %s %d: RSA sign/verify with PKCS1_V1_5 success!\n"
.LC38:
	.string	"E %s %d: RSA sign/verify with PKCS1_V1_5 fail!\n"
	.section	.text.unlikely._ali_crypto_sign_verify_v1_5,"ax",@progbits
.LCOLDB39:
	.section	.text._ali_crypto_sign_verify_v1_5,"ax",@progbits
.LHOTB39:
	.type	_ali_crypto_sign_verify_v1_5, @function
_ali_crypto_sign_verify_v1_5:
.LFB5:
	.loc 1 602 0
	.cfi_startproc
.LVL134:
	pushl	%ebp
	.cfi_def_cfa_offset 8
	.cfi_offset 5, -8
	movl	%esp, %ebp
	.cfi_def_cfa_register 5
	pushl	%edi
	pushl	%esi
	pushl	%ebx
	subl	$316, %esp
	.cfi_offset 7, -12
	.cfi_offset 6, -16
	.cfi_offset 3, -20
	.loc 1 602 0
	movl	%eax, -316(%ebp)
	movl	%edx, -320(%ebp)
	movl	%gs:20, %eax
	movl	%eax, -28(%ebp)
	xorl	%eax, %eax
.LVL135:
	.loc 1 611 0
	cmpl	$0, -316(%ebp)
	je	.L113
	testl	%edx, %edx
	jne	.L96
.L113:
	.loc 1 612 0
	pushl	%ebx
	pushl	$612
	pushl	$__FUNCTION__.3763
	pushl	$.LC20
	jmp	.L117
.L96:
	.loc 1 615 0
	movl	$20, -296(%ebp)
.LVL136:
	.loc 1 616 0
	movl	$1, %ebx
.LVL137:
.L106:
	.loc 1 619 0
	leal	-4(%ebx), %eax
	.loc 1 617 0
	movl	%ebx, -292(%ebp)
	.loc 1 619 0
	cmpl	$1, %eax
	ja	.L99
	.loc 1 620 0
	pushl	%ecx
	pushl	$620
	pushl	$__FUNCTION__.3763
	pushl	$.LC34
	jmp	.L116
.L99:
	.loc 1 629 0
	cmpl	$1, %ebx
	movl	$20, %edx
	je	.L101
	.loc 1 629 0 is_stmt 0 discriminator 1
	cmpl	$2, %ebx
	movl	$28, %edx
	je	.L101
	.loc 1 629 0 discriminator 3
	cmpl	$3, %ebx
	movl	$32, %edx
	je	.L101
	.loc 1 629 0 discriminator 5
	cmpl	$4, %ebx
	movl	$48, %edx
	je	.L101
	.loc 1 629 0 discriminator 7
	cmpl	$5, %ebx
	movl	$64, %eax
	movl	$16, %edx
	cmove	%eax, %edx
.L101:
.LVL138:
	.loc 1 630 0 is_stmt 1 discriminator 24
	leal	-284(%ebp), %edi
	movl	%edx, %ecx
	movb	$10, %al
	.loc 1 633 0 discriminator 24
	subl	$12, %esp
	.loc 1 632 0 discriminator 24
	movl	$128, -300(%ebp)
	.loc 1 633 0 discriminator 24
	leal	-296(%ebp), %esi
	.loc 1 630 0 discriminator 24
	rep stosb
	.loc 1 633 0 discriminator 24
	leal	-300(%ebp), %eax
	movl	%esp, %edi
	movl	$3, %ecx
	rep movsl
	pushl	%eax
	leal	-156(%ebp), %eax
	movl	%edx, -324(%ebp)
	pushl	%eax
	leal	-284(%ebp), %eax
	pushl	%edx
	pushl	%eax
	pushl	-320(%ebp)
	call	ali_rsa_sign
.LVL139:
	.loc 1 635 0 discriminator 24
	addl	$32, %esp
	testl	%eax, %eax
	movl	-324(%ebp), %edx
	je	.L102
	.loc 1 636 0
	pushl	%eax
	pushl	$636
	pushl	$__FUNCTION__.3763
	pushl	$.LC35
.LVL140:
.L117:
	call	printf
.LVL141:
	addl	$16, %esp
	orl	$-1, %eax
	jmp	.L98
.LVL142:
.L102:
	.loc 1 639 0
	leal	-302(%ebp), %eax
.LVL143:
	subl	$12, %esp
	leal	-296(%ebp), %esi
	movl	$3, %ecx
	pushl	%eax
	leal	-156(%ebp), %eax
	subl	$12, %esp
	movl	%esp, %edi
	rep movsl
	movl	%edx, -324(%ebp)
.LVL144:
	pushl	-300(%ebp)
	pushl	%eax
	leal	-284(%ebp), %eax
	pushl	%edx
	pushl	%eax
	pushl	-316(%ebp)
	call	ali_rsa_verify
.LVL145:
	.loc 1 641 0
	addl	$48, %esp
	testl	%eax, %eax
	movl	-324(%ebp), %edx
	je	.L103
	.loc 1 642 0
	pushl	%eax
	pushl	$642
	jmp	.L118
.L103:
	.loc 1 646 0
	leal	-301(%ebp), %eax
.LVL146:
	subl	$12, %esp
	.loc 1 645 0
	xorb	$1, -284(%ebp)
	.loc 1 646 0
	leal	-296(%ebp), %esi
	movl	$3, %ecx
	pushl	%eax
	leal	-156(%ebp), %eax
	subl	$12, %esp
	movl	%esp, %edi
	rep movsl
	pushl	-300(%ebp)
	pushl	%eax
	leal	-284(%ebp), %eax
	pushl	%edx
	pushl	%eax
	pushl	-316(%ebp)
	call	ali_rsa_verify
.LVL147:
	.loc 1 648 0
	addl	$48, %esp
	testl	%eax, %eax
	jne	.L104
	.loc 1 649 0
	pushl	$0
	pushl	$649
.L118:
	pushl	$__FUNCTION__.3763
	pushl	$.LC36
	jmp	.L117
.L104:
	.loc 1 652 0
	cmpb	$0, -302(%ebp)
	je	.L105
	.loc 1 652 0 discriminator 1
	cmpb	$0, -301(%ebp)
	jne	.L105
	.loc 1 653 0
	pushl	%edx
	pushl	$653
	pushl	$__FUNCTION__.3763
	pushl	$.LC37
.LVL148:
.L116:
	.loc 1 616 0
	incl	%ebx
.LVL149:
	.loc 1 653 0
	call	printf
.LVL150:
	addl	$16, %esp
	.loc 1 616 0
	cmpl	$7, %ebx
	jne	.L106
	.loc 1 659 0
	xorl	%eax, %eax
	jmp	.L98
.LVL151:
.L105:
.LVL152:
	.loc 1 655 0
	pushl	%eax
	pushl	$655
	pushl	$__FUNCTION__.3763
	pushl	$.LC38
	jmp	.L117
.LVL153:
.L98:
	.loc 1 660 0
	movl	-28(%ebp), %esi
	xorl	%gs:20, %esi
	je	.L107
	call	__stack_chk_fail
.LVL154:
.L107:
	leal	-12(%ebp), %esp
	popl	%ebx
	.cfi_restore 3
	popl	%esi
	.cfi_restore 6
	popl	%edi
	.cfi_restore 7
	popl	%ebp
	.cfi_restore 5
	.cfi_def_cfa 4, 4
.LVL155:
	ret
	.cfi_endproc
.LFE5:
	.size	_ali_crypto_sign_verify_v1_5, .-_ali_crypto_sign_verify_v1_5
	.section	.text.unlikely._ali_crypto_sign_verify_v1_5
.LCOLDE39:
	.section	.text._ali_crypto_sign_verify_v1_5
.LHOTE39:
	.section	.rodata.str1.1
.LC40:
	.string	"E %s %d: rsa_pss: invalid input args!\n"
.LC41:
	.string	"I %s %d: mbedtls rsa pss not support hash 512\n"
.LC42:
	.string	"E %s %d: rsa_pss: sign fail(%08x)\n"
.LC43:
	.string	"E %s %d: rsa_pss: verify fail(%08x)\n"
.LC44:
	.string	"I %s %d: RSA sign/verify with PKCS1_PSS_MGF1 success!\n"
.LC45:
	.string	"E %s %d: RSA sign/verify with PKCS1_PSS_MGF1 fail!\n"
	.section	.text.unlikely._ali_crypto_sign_verify_pss,"ax",@progbits
.LCOLDB46:
	.section	.text._ali_crypto_sign_verify_pss,"ax",@progbits
.LHOTB46:
	.type	_ali_crypto_sign_verify_pss, @function
_ali_crypto_sign_verify_pss:
.LFB6:
	.loc 1 664 0
	.cfi_startproc
.LVL156:
	pushl	%ebp
	.cfi_def_cfa_offset 8
	.cfi_offset 5, -8
	movl	%esp, %ebp
	.cfi_def_cfa_register 5
	pushl	%edi
	pushl	%esi
	pushl	%ebx
	subl	$316, %esp
	.cfi_offset 7, -12
	.cfi_offset 6, -16
	.cfi_offset 3, -20
	.loc 1 664 0
	movl	%eax, -316(%ebp)
	movl	%edx, -320(%ebp)
	movl	%gs:20, %eax
	movl	%eax, -28(%ebp)
	xorl	%eax, %eax
.LVL157:
	.loc 1 673 0
	cmpl	$0, -316(%ebp)
	je	.L137
	testl	%edx, %edx
	jne	.L120
.L137:
	.loc 1 674 0
	pushl	%ebx
	pushl	$674
	pushl	$__FUNCTION__.3781
	pushl	$.LC40
	jmp	.L141
.L120:
	.loc 1 677 0
	movl	$21, -296(%ebp)
.LVL158:
	.loc 1 678 0
	movl	$1, %ebx
.LVL159:
.L130:
	.loc 1 682 0
	leal	-4(%ebx), %eax
	.loc 1 679 0
	movl	%ebx, -292(%ebp)
	.loc 1 680 0
	movl	$28, -288(%ebp)
	.loc 1 682 0
	cmpl	$1, %eax
	ja	.L123
	.loc 1 683 0
	pushl	%ecx
	pushl	$683
	pushl	$__FUNCTION__.3781
	pushl	$.LC41
	jmp	.L140
.L123:
	.loc 1 692 0
	cmpl	$1, %ebx
	movl	$20, %edx
	je	.L125
	.loc 1 692 0 is_stmt 0 discriminator 1
	cmpl	$2, %ebx
	movl	$28, %edx
	je	.L125
	.loc 1 692 0 discriminator 3
	cmpl	$3, %ebx
	movl	$32, %edx
	je	.L125
	.loc 1 692 0 discriminator 5
	cmpl	$4, %ebx
	movl	$48, %edx
	je	.L125
	.loc 1 692 0 discriminator 7
	cmpl	$5, %ebx
	movl	$64, %eax
	movl	$16, %edx
	cmove	%eax, %edx
.L125:
.LVL160:
	.loc 1 694 0 is_stmt 1 discriminator 24
	leal	-284(%ebp), %edi
	movl	%edx, %ecx
	movb	$10, %al
	.loc 1 697 0 discriminator 24
	subl	$12, %esp
	.loc 1 696 0 discriminator 24
	movl	$128, -300(%ebp)
	.loc 1 697 0 discriminator 24
	leal	-296(%ebp), %esi
	.loc 1 694 0 discriminator 24
	rep stosb
	.loc 1 697 0 discriminator 24
	leal	-300(%ebp), %eax
	movl	%esp, %edi
	movl	$3, %ecx
	rep movsl
	pushl	%eax
	leal	-156(%ebp), %eax
	movl	%edx, -324(%ebp)
	pushl	%eax
	leal	-284(%ebp), %eax
	pushl	%edx
	pushl	%eax
	pushl	-320(%ebp)
	call	ali_rsa_sign
.LVL161:
	.loc 1 699 0 discriminator 24
	addl	$32, %esp
	testl	%eax, %eax
	movl	-324(%ebp), %edx
	je	.L126
	.loc 1 700 0
	pushl	%eax
	pushl	$700
	pushl	$__FUNCTION__.3781
	pushl	$.LC42
.LVL162:
.L141:
	call	printf
.LVL163:
	addl	$16, %esp
	orl	$-1, %eax
	jmp	.L122
.LVL164:
.L126:
	.loc 1 703 0
	leal	-302(%ebp), %eax
.LVL165:
	subl	$12, %esp
	leal	-296(%ebp), %esi
	movl	$3, %ecx
	pushl	%eax
	leal	-156(%ebp), %eax
	subl	$12, %esp
	movl	%esp, %edi
	rep movsl
	movl	%edx, -324(%ebp)
.LVL166:
	pushl	-300(%ebp)
	pushl	%eax
	leal	-284(%ebp), %eax
	pushl	%edx
	pushl	%eax
	pushl	-316(%ebp)
	call	ali_rsa_verify
.LVL167:
	.loc 1 705 0
	addl	$48, %esp
	testl	%eax, %eax
	movl	-324(%ebp), %edx
	je	.L127
	.loc 1 706 0
	pushl	%eax
	pushl	$706
	jmp	.L142
.L127:
	.loc 1 710 0
	leal	-301(%ebp), %eax
.LVL168:
	subl	$12, %esp
	.loc 1 709 0
	xorb	$1, -284(%ebp)
	.loc 1 710 0
	leal	-296(%ebp), %esi
	movl	$3, %ecx
	pushl	%eax
	leal	-156(%ebp), %eax
	subl	$12, %esp
	movl	%esp, %edi
	rep movsl
	pushl	-300(%ebp)
	pushl	%eax
	leal	-284(%ebp), %eax
	pushl	%edx
	pushl	%eax
	pushl	-316(%ebp)
	call	ali_rsa_verify
.LVL169:
	.loc 1 712 0
	addl	$48, %esp
	testl	%eax, %eax
	jne	.L128
	.loc 1 713 0
	pushl	$0
	pushl	$713
.L142:
	pushl	$__FUNCTION__.3781
	pushl	$.LC43
	jmp	.L141
.L128:
	.loc 1 716 0
	cmpb	$0, -302(%ebp)
	je	.L129
	.loc 1 716 0 discriminator 1
	cmpb	$0, -301(%ebp)
	jne	.L129
	.loc 1 717 0
	pushl	%edx
	pushl	$717
	pushl	$__FUNCTION__.3781
	pushl	$.LC44
.LVL170:
.L140:
	.loc 1 678 0
	incl	%ebx
.LVL171:
	.loc 1 717 0
	call	printf
.LVL172:
	addl	$16, %esp
	.loc 1 678 0
	cmpl	$7, %ebx
	jne	.L130
	.loc 1 723 0
	xorl	%eax, %eax
	jmp	.L122
.LVL173:
.L129:
.LVL174:
	.loc 1 719 0
	pushl	%eax
	pushl	$719
	pushl	$__FUNCTION__.3781
	pushl	$.LC45
	jmp	.L141
.LVL175:
.L122:
	.loc 1 724 0
	movl	-28(%ebp), %esi
	xorl	%gs:20, %esi
	je	.L131
	call	__stack_chk_fail
.LVL176:
.L131:
	leal	-12(%ebp), %esp
	popl	%ebx
	.cfi_restore 3
	popl	%esi
	.cfi_restore 6
	popl	%edi
	.cfi_restore 7
	popl	%ebp
	.cfi_restore 5
	.cfi_def_cfa 4, 4
.LVL177:
	ret
	.cfi_endproc
.LFE6:
	.size	_ali_crypto_sign_verify_pss, .-_ali_crypto_sign_verify_pss
	.section	.text.unlikely._ali_crypto_sign_verify_pss
.LCOLDE46:
	.section	.text._ali_crypto_sign_verify_pss
.LHOTE46:
	.section	.rodata.str1.1
.LC47:
	.string	"I %s %d: ================ALI crypto test SUCCESS!\n"
.LC48:
	.string	"I %s %d: ================ALI crypto test FAIL!\n"
	.section	.text.unlikely.ali_crypto_rsa_test,"ax",@progbits
.LCOLDB49:
	.section	.text.ali_crypto_rsa_test,"ax",@progbits
.LHOTB49:
	.globl	ali_crypto_rsa_test
	.type	ali_crypto_rsa_test, @function
ali_crypto_rsa_test:
.LFB7:
	.loc 1 727 0
	.cfi_startproc
	pushl	%ebp
	.cfi_def_cfa_offset 8
	.cfi_offset 5, -8
	movl	%esp, %ebp
	.cfi_def_cfa_register 5
	pushl	%edi
	pushl	%esi
	pushl	%ebx
	subl	$44, %esp
	.cfi_offset 7, -12
	.cfi_offset 6, -16
	.cfi_offset 3, -20
	.loc 1 727 0
	movl	%gs:20, %eax
	movl	%eax, -28(%ebp)
	xorl	%eax, %eax
.LVL178:
	.loc 1 732 0
	call	_rsa_test_gen_key
.LVL179:
	.loc 1 733 0
	testl	%eax, %eax
	js	.L165
.LVL180:
.LVL181:
.LBB4:
.LBB5:
	.loc 1 327 0
	pushl	%eax
	pushl	%eax
	leal	-36(%ebp), %eax
	pushl	%eax
	pushl	$1024
	call	ali_rsa_get_pubkey_size
.LVL182:
	.loc 1 328 0
	addl	$16, %esp
	testl	%eax, %eax
	je	.L145
	.loc 1 329 0
	pushl	%eax
	pushl	$329
	pushl	$__FUNCTION__.3719
	pushl	$.LC1
	jmp	.L167
.L145:
.LVL183:
	.loc 1 331 0
	pushl	%eax
	pushl	%eax
	leal	-32(%ebp), %eax
	pushl	%eax
	pushl	$1024
	call	ali_rsa_get_keypair_size
.LVL184:
	.loc 1 332 0
	addl	$16, %esp
	testl	%eax, %eax
	je	.L147
	.loc 1 333 0
	pushl	%eax
	pushl	$333
	pushl	$__FUNCTION__.3719
	pushl	$.LC2
	jmp	.L167
.L147:
	.loc 1 336 0
	movl	-36(%ebp), %esi
	subl	$12, %esp
	pushl	%esi
	call	malloc
.LVL185:
	.loc 1 337 0
	addl	$16, %esp
	testl	%eax, %eax
	.loc 1 336 0
	movl	%eax, %ebx
.LVL186:
	.loc 1 337 0
	jne	.L148
	.loc 1 338 0
	pushl	%esi
	pushl	$338
	pushl	$__FUNCTION__.3719
	pushl	$.LC3
.LVL187:
.L167:
	call	printf
.LVL188:
.L168:
	addl	$16, %esp
.LBE5:
.LBE4:
	orl	$-1, %edi
	jmp	.L153
.LVL189:
.L148:
.LBB7:
.LBB6:
	.loc 1 340 0
	movl	-32(%ebp), %ecx
	subl	$12, %esp
	pushl	%ecx
	movl	%ecx, -44(%ebp)
	call	malloc
.LVL190:
	.loc 1 386 0
	movl	-44(%ebp), %ecx
	.loc 1 340 0
	movl	%eax, %esi
.LVL191:
	.loc 1 386 0
	movl	%eax, %edi
	xorl	%eax, %eax
.LVL192:
	rep stosb
	.loc 1 387 0
	popl	%edi
	popl	%eax
	pushl	%esi
	pushl	$0
	pushl	$0
	pushl	$0
	pushl	$0
	pushl	$0
	pushl	$0
	pushl	$0
	pushl	$0
	pushl	$0
	pushl	$0
	pushl	$128
	pushl	$RSA_1024_D
	pushl	$3
	pushl	$RSA_1024_E
	pushl	$128
	pushl	$RSA_1024_N
	pushl	$1024
	call	ali_rsa_init_keypair
.LVL193:
	.loc 1 390 0
	addl	$80, %esp
	testl	%eax, %eax
	je	.L149
	.loc 1 391 0
	pushl	%eax
	pushl	$391
	pushl	$__FUNCTION__.3719
	pushl	$.LC8
	jmp	.L170
.L149:
	.loc 1 394 0
	movl	-36(%ebp), %ecx
	xorl	%eax, %eax
.LVL194:
	movl	%ebx, %edi
	rep stosb
	.loc 1 395 0
	pushl	%ecx
	pushl	%ecx
	pushl	%ebx
	pushl	$3
	pushl	$RSA_1024_E
	pushl	$128
	pushl	$RSA_1024_N
	pushl	$1024
	call	ali_rsa_init_pubkey
.LVL195:
	.loc 1 397 0
	addl	$32, %esp
	testl	%eax, %eax
	je	.L156
	.loc 1 398 0
	pushl	%eax
	pushl	$398
	pushl	$__FUNCTION__.3719
	pushl	$.LC10
.L170:
	call	printf
.LVL196:
	addl	$16, %esp
	.loc 1 409 0
	subl	$12, %esp
	pushl	%ebx
	call	free
.LVL197:
	.loc 1 412 0
	movl	%esi, (%esp)
	call	free
.LVL198:
	jmp	.L168
.LVL199:
.L156:
.LBE6:
.LBE7:
	.loc 1 750 0
	movl	%esi, %edx
	movl	%ebx, %eax
	call	_ali_crypto_encrypt_decrypt_v1_5
.LVL200:
	.loc 1 751 0
	testl	%eax, %eax
	.loc 1 750 0
	movl	%eax, %edi
.LVL201:
	.loc 1 751 0
	js	.L151
	.loc 1 755 0
	movl	%esi, %edx
	movl	%ebx, %eax
.LVL202:
	call	_ali_crypto_encrypt_decrypt_oaep
.LVL203:
	.loc 1 756 0
	testl	%eax, %eax
	.loc 1 755 0
	movl	%eax, %edi
.LVL204:
	.loc 1 756 0
	js	.L151
	.loc 1 760 0
	movl	%esi, %edx
	movl	%ebx, %eax
.LVL205:
	call	_ali_crypto_sign_verify_v1_5
.LVL206:
	.loc 1 761 0
	testl	%eax, %eax
	.loc 1 760 0
	movl	%eax, %edi
.LVL207:
	.loc 1 761 0
	js	.L151
	.loc 1 765 0
	movl	%esi, %edx
	movl	%ebx, %eax
.LVL208:
	call	_ali_crypto_sign_verify_pss
.LVL209:
	movl	%eax, %edi
.LVL210:
.L151:
	.loc 1 771 0
	testl	%ebx, %ebx
	je	.L152
	.loc 1 772 0
	subl	$12, %esp
	pushl	%ebx
	call	free
.LVL211:
	addl	$16, %esp
.L152:
	.loc 1 774 0
	testl	%esi, %esi
	je	.L153
	.loc 1 775 0
	subl	$12, %esp
	pushl	%esi
	call	free
.LVL212:
	addl	$16, %esp
.LVL213:
.L153:
	.loc 1 777 0
	testl	%edi, %edi
	jne	.L144
	.loc 1 778 0
	pushl	%edx
	pushl	$778
	pushl	$__FUNCTION__.3793
	pushl	$.LC47
	jmp	.L169
.LVL214:
.L165:
	movl	%eax, %edi
.LVL215:
.L144:
	.loc 1 780 0
	pushl	%eax
	pushl	$780
	pushl	$__FUNCTION__.3793
	pushl	$.LC48
.L169:
	call	printf
.LVL216:
	addl	$16, %esp
	.loc 1 784 0
	movl	%edi, %eax
	movl	-28(%ebp), %edx
	xorl	%gs:20, %edx
	je	.L155
	call	__stack_chk_fail
.LVL217:
.L155:
	leal	-12(%ebp), %esp
	popl	%ebx
	.cfi_restore 3
	popl	%esi
	.cfi_restore 6
	popl	%edi
	.cfi_restore 7
	popl	%ebp
	.cfi_restore 5
	.cfi_def_cfa 4, 4
	ret
	.cfi_endproc
.LFE7:
	.size	ali_crypto_rsa_test, .-ali_crypto_rsa_test
	.section	.text.unlikely.ali_crypto_rsa_test
.LCOLDE49:
	.section	.text.ali_crypto_rsa_test
.LHOTE49:
	.section	.rodata.__FUNCTION__.3781,"a",@progbits
	.align 4
	.type	__FUNCTION__.3781, @object
	.size	__FUNCTION__.3781, 28
__FUNCTION__.3781:
	.string	"_ali_crypto_sign_verify_pss"
	.section	.rodata.__FUNCTION__.3763,"a",@progbits
	.align 4
	.type	__FUNCTION__.3763, @object
	.size	__FUNCTION__.3763, 29
__FUNCTION__.3763:
	.string	"_ali_crypto_sign_verify_v1_5"
	.section	.rodata.__FUNCTION__.3745,"a",@progbits
	.align 32
	.type	__FUNCTION__.3745, @object
	.size	__FUNCTION__.3745, 33
__FUNCTION__.3745:
	.string	"_ali_crypto_encrypt_decrypt_oaep"
	.section	.rodata.__FUNCTION__.3732,"a",@progbits
	.align 32
	.type	__FUNCTION__.3732, @object
	.size	__FUNCTION__.3732, 33
__FUNCTION__.3732:
	.string	"_ali_crypto_encrypt_decrypt_v1_5"
	.section	.rodata.__FUNCTION__.3719,"a",@progbits
	.align 4
	.type	__FUNCTION__.3719, @object
	.size	__FUNCTION__.3719, 21
__FUNCTION__.3719:
	.string	"_ali_crypto_init_key"
	.section	.rodata.__FUNCTION__.3701,"a",@progbits
	.align 4
	.type	__FUNCTION__.3701, @object
	.size	__FUNCTION__.3701, 18
__FUNCTION__.3701:
	.string	"_rsa_test_gen_key"
	.section	.rodata.__FUNCTION__.3793,"a",@progbits
	.align 4
	.type	__FUNCTION__.3793, @object
	.size	__FUNCTION__.3793, 20
__FUNCTION__.3793:
	.string	"ali_crypto_rsa_test"
	.section	.data.RSA_1024_D,"aw",@progbits
	.align 32
	.type	RSA_1024_D, @object
	.size	RSA_1024_D, 128
RSA_1024_D:
	.byte	51
	.byte	-91
	.byte	4
	.byte	42
	.byte	-112
	.byte	-78
	.byte	125
	.byte	79
	.byte	84
	.byte	81
	.byte	-54
	.byte	-101
	.byte	-69
	.byte	-48
	.byte	-76
	.byte	71
	.byte	113
	.byte	-95
	.byte	1
	.byte	-81
	.byte	-120
	.byte	67
	.byte	64
	.byte	-82
	.byte	-7
	.byte	-120
	.byte	95
	.byte	42
	.byte	75
	.byte	-66
	.byte	-110
	.byte	-24
	.byte	-108
	.byte	-89
	.byte	36
	.byte	-84
	.byte	60
	.byte	86
	.byte	-116
	.byte	-113
	.byte	-105
	.byte	-123
	.byte	58
	.byte	-48
	.byte	124
	.byte	2
	.byte	102
	.byte	-56
	.byte	-58
	.byte	-93
	.byte	-54
	.byte	9
	.byte	41
	.byte	-15
	.byte	-24
	.byte	-15
	.byte	18
	.byte	49
	.byte	-120
	.byte	68
	.byte	41
	.byte	-4
	.byte	77
	.byte	-102
	.byte	-27
	.byte	95
	.byte	-18
	.byte	-119
	.byte	106
	.byte	16
	.byte	-50
	.byte	112
	.byte	124
	.byte	62
	.byte	-41
	.byte	-25
	.byte	52
	.byte	-28
	.byte	71
	.byte	39
	.byte	-93
	.byte	-107
	.byte	116
	.byte	80
	.byte	26
	.byte	83
	.byte	38
	.byte	-125
	.byte	16
	.byte	-100
	.byte	42
	.byte	-70
	.byte	-54
	.byte	-70
	.byte	40
	.byte	60
	.byte	49
	.byte	-76
	.byte	-67
	.byte	47
	.byte	83
	.byte	-61
	.byte	-18
	.byte	55
	.byte	-29
	.byte	82
	.byte	-50
	.byte	-29
	.byte	79
	.byte	-98
	.byte	80
	.byte	59
	.byte	-40
	.byte	12
	.byte	6
	.byte	34
	.byte	-83
	.byte	121
	.byte	-58
	.byte	-36
	.byte	-18
	.byte	-120
	.byte	53
	.byte	71
	.byte	-58
	.byte	-93
	.byte	-77
	.byte	37
	.section	.data.RSA_1024_E,"aw",@progbits
	.type	RSA_1024_E, @object
	.size	RSA_1024_E, 3
RSA_1024_E:
	.byte	1
	.byte	0
	.byte	1
	.section	.data.RSA_1024_N,"aw",@progbits
	.align 32
	.type	RSA_1024_N, @object
	.size	RSA_1024_N, 128
RSA_1024_N:
	.byte	-91
	.byte	110
	.byte	74
	.byte	14
	.byte	112
	.byte	16
	.byte	23
	.byte	88
	.byte	-102
	.byte	81
	.byte	-121
	.byte	-36
	.byte	126
	.byte	-88
	.byte	65
	.byte	-47
	.byte	86
	.byte	-14
	.byte	-20
	.byte	14
	.byte	54
	.byte	-83
	.byte	82
	.byte	-92
	.byte	77
	.byte	-2
	.byte	-79
	.byte	-26
	.byte	31
	.byte	122
	.byte	-39
	.byte	-111
	.byte	-40
	.byte	-59
	.byte	16
	.byte	86
	.byte	-1
	.byte	-19
	.byte	-79
	.byte	98
	.byte	-76
	.byte	-64
	.byte	-14
	.byte	-125
	.byte	-95
	.byte	42
	.byte	-120
	.byte	-93
	.byte	-108
	.byte	-33
	.byte	-11
	.byte	38
	.byte	-85
	.byte	114
	.byte	-111
	.byte	-53
	.byte	-77
	.byte	7
	.byte	-50
	.byte	-85
	.byte	-4
	.byte	-32
	.byte	-79
	.byte	-33
	.byte	-43
	.byte	-51
	.byte	-107
	.byte	8
	.byte	9
	.byte	109
	.byte	91
	.byte	43
	.byte	-117
	.byte	109
	.byte	-11
	.byte	-42
	.byte	113
	.byte	-17
	.byte	99
	.byte	119
	.byte	-64
	.byte	-110
	.byte	28
	.byte	-78
	.byte	60
	.byte	39
	.byte	10
	.byte	112
	.byte	-30
	.byte	89
	.byte	-114
	.byte	111
	.byte	-8
	.byte	-99
	.byte	25
	.byte	-15
	.byte	5
	.byte	-84
	.byte	-62
	.byte	-45
	.byte	-16
	.byte	-53
	.byte	53
	.byte	-14
	.byte	-110
	.byte	-128
	.byte	-31
	.byte	56
	.byte	107
	.byte	111
	.byte	100
	.byte	-60
	.byte	-17
	.byte	34
	.byte	-31
	.byte	-31
	.byte	-14
	.byte	13
	.byte	12
	.byte	-24
	.byte	-49
	.byte	-5
	.byte	34
	.byte	73
	.byte	-67
	.byte	-102
	.byte	33
	.byte	55
	.text
.Letext0:
	.section	.text.unlikely._rsa_test_gen_key
.Letext_cold0:
	.file 2 "/home/stone/Documents/Ali_IOT/build/compiler/gcc-arm-none-eabi/Linux64/arm-none-eabi/include/machine/_default_types.h"
	.file 3 "/home/stone/Documents/Ali_IOT/build/compiler/gcc-arm-none-eabi/Linux64/arm-none-eabi/include/sys/_stdint.h"
	.file 4 "/home/stone/Documents/Ali_IOT/build/compiler/gcc-arm-none-eabi/Linux64/lib/gcc/arm-none-eabi/5.4.1/include/stddef.h"
	.file 5 "./security/alicrypto/./libalicrypto/inc/ali_crypto.h"
	.file 6 "/home/stone/Documents/Ali_IOT/build/compiler/gcc-arm-none-eabi/Linux64/arm-none-eabi/include/stdio.h"
	.file 7 "/home/stone/Documents/Ali_IOT/build/compiler/gcc-arm-none-eabi/Linux64/arm-none-eabi/include/stdlib.h"
	.file 8 "/home/stone/Documents/Ali_IOT/build/compiler/gcc-arm-none-eabi/Linux64/arm-none-eabi/include/string.h"
	.file 9 "./security/alicrypto/./libalicrypto/test/inc/ali_crypto_test.h"
	.section	.note.GNU-stack,"",@progbits
