	.file	"ali_crypto_rand.c"
	.text
.Ltext0:
	.section	.text.unlikely.ali_crypt_rand_word,"ax",@progbits
.LCOLDB0:
	.section	.text.ali_crypt_rand_word,"ax",@progbits
.LHOTB0:
	.section	.text.unlikely.ali_crypt_rand_word
.Ltext_cold0:
	.section	.text.ali_crypt_rand_word
	.globl	ali_crypt_rand_word
	.type	ali_crypt_rand_word, @function
ali_crypt_rand_word:
.LFB1:
	.file 1 "security/alicrypto/./libalicrypto/sw/ali_crypto_rand.c"
	.loc 1 12 0
	.cfi_startproc
	.loc 1 13 0
	imull	$1664525, randseed, %eax
	.loc 1 12 0
	pushl	%ebp
	.cfi_def_cfa_offset 8
	.cfi_offset 5, -8
	movl	%esp, %ebp
	.cfi_def_cfa_register 5
	.loc 1 14 0
	popl	%ebp
	.cfi_restore 5
	.cfi_def_cfa 4, 4
	.loc 1 13 0
	addl	$1013904223, %eax
	movl	%eax, randseed
	.loc 1 14 0
	ret
	.cfi_endproc
.LFE1:
	.size	ali_crypt_rand_word, .-ali_crypt_rand_word
	.section	.text.unlikely.ali_crypt_rand_word
.LCOLDE0:
	.section	.text.ali_crypt_rand_word
.LHOTE0:
	.section	.rodata.str1.1,"aMS",@progbits,1
.LC1:
	.string	"E %s %d: ali_rand_gen: invalid input args!\n"
	.section	.text.unlikely.ali_rand_gen,"ax",@progbits
.LCOLDB2:
	.section	.text.ali_rand_gen,"ax",@progbits
.LHOTB2:
	.globl	ali_rand_gen
	.type	ali_rand_gen, @function
ali_rand_gen:
.LFB2:
	.loc 1 17 0
	.cfi_startproc
.LVL0:
	pushl	%ebp
	.cfi_def_cfa_offset 8
	.cfi_offset 5, -8
	movl	%esp, %ebp
	.cfi_def_cfa_register 5
	pushl	%edi
	pushl	%esi
	pushl	%ebx
	subl	$12, %esp
	.cfi_offset 7, -12
	.cfi_offset 6, -16
	.cfi_offset 3, -20
	.loc 1 17 0
	movl	8(%ebp), %esi
	movl	12(%ebp), %ebx
	.loc 1 21 0
	testl	%esi, %esi
	je	.L9
	testl	%ebx, %ebx
	jne	.L4
.L9:
	.loc 1 22 0
	pushl	%eax
	pushl	$22
	pushl	$__FUNCTION__.4650
	pushl	$.LC1
	call	printf
.LVL1:
	.loc 1 23 0
	addl	$16, %esp
	movl	$-65529, %eax
	jmp	.L6
.L4:
	.loc 1 26 0
	call	ali_crypt_rand_word
.LVL2:
	.loc 1 27 0
	xorl	%edx, %edx
.LVL3:
.L8:
	.loc 1 28 0
	movl	%edx, %ecx
	andl	$3, %ecx
	jne	.L7
	.loc 1 29 0
	call	ali_crypt_rand_word
.LVL4:
.L7:
	.loc 1 31 0 discriminator 2
	sall	$3, %ecx
	movl	%eax, %edi
	shrl	%cl, %edi
	movl	%edi, %ecx
	movb	%cl, (%esi,%edx)
	.loc 1 27 0 discriminator 2
	incl	%edx
.LVL5:
	cmpl	%edx, %ebx
	jne	.L8
	.loc 1 34 0
	xorl	%eax, %eax
.LVL6:
.L6:
	.loc 1 35 0
	leal	-12(%ebp), %esp
	popl	%ebx
	.cfi_restore 3
	popl	%esi
	.cfi_restore 6
	popl	%edi
	.cfi_restore 7
	popl	%ebp
	.cfi_restore 5
	.cfi_def_cfa 4, 4
	ret
	.cfi_endproc
.LFE2:
	.size	ali_rand_gen, .-ali_rand_gen
	.section	.text.unlikely.ali_rand_gen
.LCOLDE2:
	.section	.text.ali_rand_gen
.LHOTE2:
	.section	.text.unlikely.ali_seed,"ax",@progbits
.LCOLDB3:
	.section	.text.ali_seed,"ax",@progbits
.LHOTB3:
	.globl	ali_seed
	.type	ali_seed, @function
ali_seed:
.LFB3:
	.loc 1 38 0
	.cfi_startproc
.LVL7:
	pushl	%ebp
	.cfi_def_cfa_offset 8
	.cfi_offset 5, -8
	.loc 1 39 0
	xorl	%edx, %edx
	.loc 1 41 0
	xorl	%eax, %eax
	.loc 1 38 0
	movl	%esp, %ebp
	.cfi_def_cfa_register 5
	pushl	%edi
	pushl	%esi
	.cfi_offset 7, -12
	.cfi_offset 6, -16
	.loc 1 41 0
	movl	12(%ebp), %edi
	.loc 1 38 0
	pushl	%ebx
	.cfi_offset 3, -20
	.loc 1 38 0
	movl	8(%ebp), %ebx
	.loc 1 41 0
	andl	$-4, %edi
.LVL8:
.L14:
	.loc 1 41 0 is_stmt 0 discriminator 1
	cmpl	%edi, %eax
	jnb	.L16
.LVL9:
	.loc 1 43 0 is_stmt 1 discriminator 3
	movzbl	1(%ebx,%eax), %esi
	movzbl	(%ebx,%eax), %ecx
	sall	$8, %esi
	xorl	%esi, %ecx
	xorl	%ecx, %edx
.LVL10:
	.loc 1 44 0 discriminator 3
	movzbl	2(%ebx,%eax), %ecx
	sall	$16, %ecx
	xorl	%edx, %ecx
.LVL11:
	.loc 1 45 0 discriminator 3
	movzbl	3(%ebx,%eax), %edx
	.loc 1 41 0 discriminator 3
	addl	$4, %eax
.LVL12:
	.loc 1 45 0 discriminator 3
	sall	$24, %edx
	xorl	%ecx, %edx
.LVL13:
	jmp	.L14
.LVL14:
.L16:
	.loc 1 47 0
	cmpl	12(%ebp), %eax
	jnb	.L19
	.loc 1 48 0
	incl	%eax
.LVL15:
	movzbl	-1(%ebx,%eax), %ecx
	xorl	%ecx, %edx
.LVL16:
	jmp	.L16
.L19:
	.loc 1 54 0
	popl	%ebx
	.cfi_restore 3
.LVL17:
	xorl	%eax, %eax
.LVL18:
	.loc 1 51 0
	movl	%edx, randseed
	.loc 1 54 0
	popl	%esi
	.cfi_restore 6
	popl	%edi
	.cfi_restore 7
	popl	%ebp
	.cfi_restore 5
	.cfi_def_cfa 4, 4
	ret
	.cfi_endproc
.LFE3:
	.size	ali_seed, .-ali_seed
	.section	.text.unlikely.ali_seed
.LCOLDE3:
	.section	.text.ali_seed
.LHOTE3:
	.section	.rodata.__FUNCTION__.4650,"a",@progbits
	.align 4
	.type	__FUNCTION__.4650, @object
	.size	__FUNCTION__.4650, 13
__FUNCTION__.4650:
	.string	"ali_rand_gen"
	.section	.data.randseed,"aw",@progbits
	.align 4
	.type	randseed, @object
	.size	randseed, 4
randseed:
	.long	12345
	.text
.Letext0:
	.section	.text.unlikely.ali_crypt_rand_word
.Letext_cold0:
	.file 2 "/home/stone/Documents/Ali_IOT/build/compiler/gcc-arm-none-eabi/Linux64/arm-none-eabi/include/machine/_default_types.h"
	.file 3 "/home/stone/Documents/Ali_IOT/build/compiler/gcc-arm-none-eabi/Linux64/arm-none-eabi/include/sys/_stdint.h"
	.file 4 "/home/stone/Documents/Ali_IOT/build/compiler/gcc-arm-none-eabi/Linux64/lib/gcc/arm-none-eabi/5.4.1/include/stddef.h"
	.file 5 "./security/alicrypto/./libalicrypto/inc/ali_crypto.h"
	.file 6 "/home/stone/Documents/Ali_IOT/build/compiler/gcc-arm-none-eabi/Linux64/arm-none-eabi/include/stdio.h"
	.section	.note.GNU-stack,"",@progbits
