	.file	"aos.c"
	.text
.Ltext0:
	.section	.text.unlikely.SysTick_Handler,"ax",@progbits
.LCOLDB0:
	.section	.text.SysTick_Handler,"ax",@progbits
.LHOTB0:
	.section	.text.unlikely.SysTick_Handler
.Ltext_cold0:
	.section	.text.SysTick_Handler
	.globl	SysTick_Handler
	.type	SysTick_Handler, @function
SysTick_Handler:
.LFB248:
	.file 1 "src/aos.c"
	.loc 1 6095 0
	.cfi_startproc
	pushl	%ebp
	.cfi_def_cfa_offset 8
	.cfi_offset 5, -8
	movl	%esp, %ebp
	.cfi_def_cfa_register 5
	subl	$8, %esp
	.loc 1 6096 0
	call	krhino_intrpt_enter
.LVL0:
	.loc 1 6097 0
	call	krhino_tick_proc
.LVL1:
	.loc 1 6099 0
	leave
	.cfi_restore 5
	.cfi_def_cfa 4, 4
	.loc 1 6098 0
	jmp	krhino_intrpt_exit
.LVL2:
	.cfi_endproc
.LFE248:
	.size	SysTick_Handler, .-SysTick_Handler
	.section	.text.unlikely.SysTick_Handler
.LCOLDE0:
	.section	.text.SysTick_Handler
.LHOTE0:
	.section	.text.unlikely.soc_init,"ax",@progbits
.LCOLDB1:
	.section	.text.soc_init,"ax",@progbits
.LHOTB1:
	.globl	soc_init
	.type	soc_init, @function
soc_init:
.LFB249:
	.loc 1 6101 0
	.cfi_startproc
	pushl	%ebp
	.cfi_def_cfa_offset 8
	.cfi_offset 5, -8
	movl	%esp, %ebp
	.cfi_def_cfa_register 5
	subl	$20, %esp
	.loc 1 6103 0
	pushl	$0
	call	hal_uart_init
.LVL3:
	.loc 1 6106 0
	call	nrf_drv_clock_init
.LVL4:
.LBB2:
	.loc 1 6107 0
	addl	$16, %esp
	testl	%eax, %eax
	je	.L4
	.loc 1 6107 0 is_stmt 0 discriminator 1
	subl	$12, %esp
	pushl	%eax
	call	app_error_handler_bare
.LVL5:
	addl	$16, %esp
.L4:
.LBE2:
	.loc 1 6108 0 is_stmt 1
	subl	$12, %esp
	pushl	$0
	call	nrf_drv_clock_lfclk_request
.LVL6:
	.loc 1 6111 0
	call	bsp_board_leds_init
.LVL7:
	.loc 1 6112 0
	addl	$16, %esp
	.loc 1 6113 0
	leave
	.cfi_restore 5
	.cfi_def_cfa 4, 4
	.loc 1 6112 0
	jmp	nrf_drv_systick_init
.LVL8:
	.cfi_endproc
.LFE249:
	.size	soc_init, .-soc_init
	.section	.text.unlikely.soc_init
.LCOLDE1:
	.section	.text.soc_init
.LHOTE1:
	.section	.text.unlikely.sys_init,"ax",@progbits
.LCOLDB2:
	.section	.text.sys_init,"ax",@progbits
.LHOTB2:
	.type	sys_init, @function
sys_init:
.LFB250:
	.loc 1 6115 0
	.cfi_startproc
.LVL9:
	pushl	%ebp
	.cfi_def_cfa_offset 8
	.cfi_offset 5, -8
	movl	%esp, %ebp
	.cfi_def_cfa_register 5
	subl	$8, %esp
	.loc 1 6117 0
	call	soc_init
.LVL10:
	.loc 1 6118 0
	call	vfs_init
.LVL11:
	.loc 1 6119 0
	call	vfs_device_init
.LVL12:
	.loc 1 6120 0
	call	aos_cli_init
.LVL13:
	.loc 1 6121 0
	call	aos_loop_init
.LVL14:
	.loc 1 6122 0
	pushl	%edx
	pushl	%edx
	pushl	$0
	pushl	$0
	call	application_start
.LVL15:
	.loc 1 6125 0
	addl	$16, %esp
	leave
	.cfi_restore 5
	.cfi_def_cfa 4, 4
	ret
	.cfi_endproc
.LFE250:
	.size	sys_init, .-sys_init
	.section	.text.unlikely.sys_init
.LCOLDE2:
	.section	.text.sys_init
.LHOTE2:
	.section	.rodata.str1.1,"aMS",@progbits,1
.LC3:
	.string	"aos-init"
	.section	.text.unlikely.main,"ax",@progbits
.LCOLDB4:
	.section	.text.startup.main,"ax",@progbits
.LHOTB4:
	.globl	main
	.type	main, @function
main:
.LFB251:
	.loc 1 6128 0
	.cfi_startproc
	leal	4(%esp), %ecx
	.cfi_def_cfa 1, 0
	andl	$-16, %esp
	pushl	-4(%ecx)
	pushl	%ebp
	.cfi_escape 0x10,0x5,0x2,0x75,0
	movl	%esp, %ebp
	pushl	%ecx
	.cfi_escape 0xf,0x3,0x75,0x7c,0x6
	pushl	%eax
	.loc 1 6129 0
	movl	$__isr_vector, -536810232
	.loc 1 6130 0
	call	aos_init
.LVL16:
	.loc 1 6131 0
	subl	$12, %esp
	pushl	$1
	pushl	$sys_init
	pushl	$2000
	pushl	$0
	pushl	$0
	pushl	$32
	pushl	$0
	pushl	$.LC3
	pushl	$g_aos_app
	call	krhino_task_dyn_create
.LVL17:
	.loc 1 6132 0
	addl	$48, %esp
	call	aos_start
.LVL18:
	.loc 1 6134 0
	movl	-4(%ebp), %ecx
	.cfi_def_cfa 1, 0
	xorl	%eax, %eax
	leave
	.cfi_restore 5
	leal	-4(%ecx), %esp
	.cfi_def_cfa 4, 4
	ret
	.cfi_endproc
.LFE251:
	.size	main, .-main
	.section	.text.unlikely.main
.LCOLDE4:
	.section	.text.startup.main
.LHOTE4:
	.globl	g_aos_app
	.section	.bss.g_aos_app,"aw",@nobits
	.align 4
	.type	g_aos_app, @object
	.size	g_aos_app, 4
g_aos_app:
	.zero	4
	.globl	g_aos_init
	.section	.bss.g_aos_init,"aw",@nobits
	.align 4
	.type	g_aos_init, @object
	.size	g_aos_init, 4
g_aos_init:
	.zero	4
	.text
.Letext0:
	.section	.text.unlikely.SysTick_Handler
.Letext_cold0:
	.section	.note.GNU-stack,"",@progbits
