	.file	"aos_rhino.c"
	.text
.Ltext0:
	.section	.text.unlikely.aos_reboot,"ax",@progbits
.LCOLDB0:
	.section	.text.aos_reboot,"ax",@progbits
.LHOTB0:
	.section	.text.unlikely.aos_reboot
.Ltext_cold0:
	.section	.text.aos_reboot
	.globl	aos_reboot
	.type	aos_reboot, @function
aos_reboot:
.LFB28:
	.file 1 "kernel/vcall/aos/aos_rhino.c"
	.loc 1 20 0
	.cfi_startproc
	pushl	%ebp
	.cfi_def_cfa_offset 8
	.cfi_offset 5, -8
	movl	%esp, %ebp
	.cfi_def_cfa_register 5
	.loc 1 22 0
	popl	%ebp
	.cfi_restore 5
	.cfi_def_cfa 4, 4
	.loc 1 21 0
	jmp	hal_reboot
.LVL0:
	.cfi_endproc
.LFE28:
	.size	aos_reboot, .-aos_reboot
	.section	.text.unlikely.aos_reboot
.LCOLDE0:
	.section	.text.aos_reboot
.LHOTE0:
	.section	.text.unlikely.aos_get_hz,"ax",@progbits
.LCOLDB1:
	.section	.text.aos_get_hz,"ax",@progbits
.LHOTB1:
	.globl	aos_get_hz
	.type	aos_get_hz, @function
aos_get_hz:
.LFB29:
	.loc 1 25 0
	.cfi_startproc
	pushl	%ebp
	.cfi_def_cfa_offset 8
	.cfi_offset 5, -8
	.loc 1 27 0
	movl	$500, %eax
	.loc 1 25 0
	movl	%esp, %ebp
	.cfi_def_cfa_register 5
	.loc 1 27 0
	popl	%ebp
	.cfi_restore 5
	.cfi_def_cfa 4, 4
	ret
	.cfi_endproc
.LFE29:
	.size	aos_get_hz, .-aos_get_hz
	.section	.text.unlikely.aos_get_hz
.LCOLDE1:
	.section	.text.aos_get_hz
.LHOTE1:
	.section	.rodata.str1.1,"aMS",@progbits,1
.LC2:
	.string	"AOS-R-1.3.1"
	.section	.text.unlikely.aos_version_get,"ax",@progbits
.LCOLDB3:
	.section	.text.aos_version_get,"ax",@progbits
.LHOTB3:
	.globl	aos_version_get
	.type	aos_version_get, @function
aos_version_get:
.LFB30:
	.loc 1 30 0
	.cfi_startproc
	pushl	%ebp
	.cfi_def_cfa_offset 8
	.cfi_offset 5, -8
	.loc 1 32 0
	movl	$.LC2, %eax
	.loc 1 30 0
	movl	%esp, %ebp
	.cfi_def_cfa_register 5
	.loc 1 32 0
	popl	%ebp
	.cfi_restore 5
	.cfi_def_cfa 4, 4
	ret
	.cfi_endproc
.LFE30:
	.size	aos_version_get, .-aos_version_get
	.section	.text.unlikely.aos_version_get
.LCOLDE3:
	.section	.text.aos_version_get
.LHOTE3:
	.section	.text.unlikely.aos_task_new,"ax",@progbits
.LCOLDB4:
	.section	.text.aos_task_new,"ax",@progbits
.LHOTB4:
	.globl	aos_task_new
	.type	aos_task_new, @function
aos_task_new:
.LFB31:
	.loc 1 37 0
	.cfi_startproc
.LVL1:
	pushl	%ebp
	.cfi_def_cfa_offset 8
	.cfi_offset 5, -8
	movl	%esp, %ebp
	.cfi_def_cfa_register 5
	subl	$36, %esp
	.loc 1 37 0
	movl	%gs:20, %eax
	movl	%eax, -12(%ebp)
	xorl	%eax, %eax
	.loc 1 42 0
	movl	20(%ebp), %eax
	pushl	$1
	pushl	12(%ebp)
	.loc 1 40 0
	movl	$0, -16(%ebp)
	.loc 1 42 0
	shrl	$2, %eax
	pushl	%eax
	leal	-16(%ebp), %eax
	pushl	$0
	pushl	$0
	pushl	$32
	pushl	16(%ebp)
	pushl	8(%ebp)
	pushl	%eax
	call	krhino_task_dyn_create
.LVL2:
	movl	%eax, %edx
.LVL3:
	.loc 1 44 0
	addl	$48, %esp
	.loc 1 45 0
	xorl	%eax, %eax
.LVL4:
	.loc 1 44 0
	testl	%edx, %edx
	je	.L8
	.loc 1 48 0
	cmpl	$305, %edx
	je	.L10
	ja	.L11
	cmpl	$101, %edx
	ja	.L12
	cmpl	$100, %edx
	jnb	.L10
	cmpl	$8, %edx
	ja	.L13
	cmpl	$7, %edx
	jnb	.L10
	cmpl	$5, %edx
	je	.L10
	ja	.L25
	cmpl	$2, %edx
	je	.L25
	jmp	.L9
.L13:
	cmpl	$9, %edx
	je	.L9
	.loc 1 48 0
	movl	$-11, %eax
	.loc 1 48 0
	cmpl	$11, %edx
	jmp	.L88
.L12:
	cmpl	$202, %edx
	ja	.L16
	cmpl	$200, %edx
	jnb	.L9
	cmpl	$102, %edx
	je	.L25
	.loc 1 48 0
	movl	$-12, %eax
	.loc 1 48 0
	cmpl	$105, %edx
.L88:
	je	.L8
	jmp	.L9
.L16:
	cmpl	$300, %edx
	je	.L10
	ja	.L9
	cmpl	$203, %edx
	jne	.L9
	jmp	.L10
.L11:
	cmpl	$800, %edx
	je	.L10
	ja	.L18
	cmpl	$701, %edx
	ja	.L19
	cmpl	$700, %edx
	jnb	.L10
	jmp	.L9
.L19:
	cmpl	$702, %edx
	je	.L9
	cmpl	$705, %edx
	ja	.L9
	jmp	.L10
.L18:
	cmpl	$1001, %edx
	je	.L20
	ja	.L21
	jmp	.L9
.L21:
	cmpl	$1103, %edx
	je	.L20
	ja	.L9
	cmpl	$1100, %edx
	jb	.L9
.L10:
	.loc 1 48 0
	movl	$-22, %eax
	jmp	.L8
.L20:
	.loc 1 48 0 discriminator 7
	movl	$-11, %eax
	jmp	.L8
.L9:
	.loc 1 48 0 discriminator 1
	orl	$-1, %eax
	jmp	.L8
.L25:
	.loc 1 48 0
	movl	$-14, %eax
.L8:
	.loc 1 49 0
	movl	-12(%ebp), %ecx
	xorl	%gs:20, %ecx
	je	.L23
	call	__stack_chk_fail
.LVL5:
.L23:
	leave
	.cfi_restore 5
	.cfi_def_cfa 4, 4
	ret
	.cfi_endproc
.LFE31:
	.size	aos_task_new, .-aos_task_new
	.section	.text.unlikely.aos_task_new
.LCOLDE4:
	.section	.text.aos_task_new
.LHOTE4:
	.section	.text.unlikely.aos_task_new_ext,"ax",@progbits
.LCOLDB5:
	.section	.text.aos_task_new_ext,"ax",@progbits
.LHOTB5:
	.globl	aos_task_new_ext
	.type	aos_task_new_ext, @function
aos_task_new_ext:
.LFB32:
	.loc 1 53 0
	.cfi_startproc
.LVL6:
	pushl	%ebp
	.cfi_def_cfa_offset 8
	.cfi_offset 5, -8
	movl	%esp, %ebp
	.cfi_def_cfa_register 5
	subl	$20, %esp
	.loc 1 55 0
	movl	24(%ebp), %eax
	pushl	$1
	pushl	16(%ebp)
	shrl	$2, %eax
	pushl	%eax
	movzbl	28(%ebp), %eax
	pushl	$0
	pushl	$0
	pushl	%eax
	pushl	20(%ebp)
	pushl	12(%ebp)
	pushl	8(%ebp)
	call	krhino_task_dyn_create
.LVL7:
	movl	%eax, %edx
.LVL8:
	.loc 1 57 0
	addl	$48, %esp
	.loc 1 58 0
	xorl	%eax, %eax
.LVL9:
	.loc 1 57 0
	testl	%edx, %edx
	je	.L91
	.loc 1 61 0
	cmpl	$305, %edx
	je	.L93
	ja	.L94
	cmpl	$101, %edx
	ja	.L95
	cmpl	$100, %edx
	jnb	.L93
	cmpl	$8, %edx
	ja	.L96
	cmpl	$7, %edx
	jnb	.L93
	cmpl	$5, %edx
	je	.L93
	ja	.L107
	cmpl	$2, %edx
	je	.L107
	jmp	.L92
.L96:
	cmpl	$9, %edx
	je	.L92
	.loc 1 61 0
	movl	$-11, %eax
	.loc 1 61 0
	cmpl	$11, %edx
	jmp	.L170
.L95:
	cmpl	$202, %edx
	ja	.L99
	cmpl	$200, %edx
	jnb	.L92
	cmpl	$102, %edx
	je	.L107
	.loc 1 61 0
	movl	$-12, %eax
	.loc 1 61 0
	cmpl	$105, %edx
.L170:
	je	.L91
	jmp	.L92
.L99:
	cmpl	$300, %edx
	je	.L93
	ja	.L92
	cmpl	$203, %edx
	jne	.L92
	jmp	.L93
.L94:
	cmpl	$800, %edx
	je	.L93
	ja	.L101
	cmpl	$701, %edx
	ja	.L102
	cmpl	$700, %edx
	jnb	.L93
	jmp	.L92
.L102:
	cmpl	$702, %edx
	je	.L92
	cmpl	$705, %edx
	ja	.L92
	jmp	.L93
.L101:
	cmpl	$1001, %edx
	je	.L103
	ja	.L104
	jmp	.L92
.L104:
	cmpl	$1103, %edx
	je	.L103
	ja	.L92
	cmpl	$1100, %edx
	jb	.L92
.L93:
	.loc 1 61 0
	movl	$-22, %eax
	jmp	.L91
.L103:
	.loc 1 61 0 discriminator 7
	movl	$-11, %eax
	jmp	.L91
.L92:
	.loc 1 61 0 discriminator 1
	orl	$-1, %eax
	jmp	.L91
.L107:
	.loc 1 61 0
	movl	$-14, %eax
.L91:
	.loc 1 62 0
	leave
	.cfi_restore 5
	.cfi_def_cfa 4, 4
	ret
	.cfi_endproc
.LFE32:
	.size	aos_task_new_ext, .-aos_task_new_ext
	.section	.text.unlikely.aos_task_new_ext
.LCOLDE5:
	.section	.text.aos_task_new_ext
.LHOTE5:
	.section	.text.unlikely.aos_task_exit,"ax",@progbits
.LCOLDB6:
	.section	.text.aos_task_exit,"ax",@progbits
.LHOTB6:
	.globl	aos_task_exit
	.type	aos_task_exit, @function
aos_task_exit:
.LFB33:
	.loc 1 65 0
	.cfi_startproc
.LVL10:
	pushl	%ebp
	.cfi_def_cfa_offset 8
	.cfi_offset 5, -8
	movl	%esp, %ebp
	.cfi_def_cfa_register 5
	.loc 1 68 0
	movl	$0, 8(%ebp)
.LVL11:
	.loc 1 69 0
	popl	%ebp
	.cfi_restore 5
	.cfi_def_cfa 4, 4
	.loc 1 68 0
	jmp	krhino_task_dyn_del
.LVL12:
	.cfi_endproc
.LFE33:
	.size	aos_task_exit, .-aos_task_exit
	.section	.text.unlikely.aos_task_exit
.LCOLDE6:
	.section	.text.aos_task_exit
.LHOTE6:
	.section	.text.unlikely.aos_task_name,"ax",@progbits
.LCOLDB7:
	.section	.text.aos_task_name,"ax",@progbits
.LHOTB7:
	.globl	aos_task_name
	.type	aos_task_name, @function
aos_task_name:
.LFB34:
	.loc 1 73 0
	.cfi_startproc
	pushl	%ebp
	.cfi_def_cfa_offset 8
	.cfi_offset 5, -8
	movl	%esp, %ebp
	.cfi_def_cfa_register 5
	subl	$8, %esp
	.loc 1 74 0
	call	krhino_cur_task_get
.LVL13:
	movl	4(%eax), %eax
	.loc 1 75 0
	leave
	.cfi_restore 5
	.cfi_def_cfa 4, 4
	ret
	.cfi_endproc
.LFE34:
	.size	aos_task_name, .-aos_task_name
	.section	.text.unlikely.aos_task_name
.LCOLDE7:
	.section	.text.aos_task_name
.LHOTE7:
	.section	.text.unlikely.aos_task_key_create,"ax",@progbits
.LCOLDB8:
	.section	.text.aos_task_key_create,"ax",@progbits
.LHOTB8:
	.globl	aos_task_key_create
	.type	aos_task_key_create, @function
aos_task_key_create:
.LFB35:
	.loc 1 78 0
	.cfi_startproc
.LVL14:
	.loc 1 82 0
	movl	used_bitmap, %edx
	.loc 1 78 0
	pushl	%ebp
	.cfi_def_cfa_offset 8
	.cfi_offset 5, -8
	movl	%esp, %ebp
	.cfi_def_cfa_register 5
	.loc 1 82 0
	testb	$2, %dl
	je	.L178
.LVL15:
	testb	$1, %dl
	.loc 1 90 0
	movl	$-22, %eax
	.loc 1 82 0
	jne	.L177
	movl	$1, %eax
	.loc 1 81 0
	xorl	%ecx, %ecx
	jmp	.L176
.LVL16:
.L178:
	.loc 1 82 0
	movl	$2, %eax
	.loc 1 81 0
	movl	$1, %ecx
.LVL17:
.L176:
	.loc 1 83 0
	orl	%edx, %eax
	movl	%eax, used_bitmap
	.loc 1 84 0
	movl	8(%ebp), %eax
	movl	%ecx, (%eax)
	.loc 1 86 0
	xorl	%eax, %eax
.L177:
	.loc 1 91 0
	popl	%ebp
	.cfi_restore 5
	.cfi_def_cfa 4, 4
	ret
	.cfi_endproc
.LFE35:
	.size	aos_task_key_create, .-aos_task_key_create
	.section	.text.unlikely.aos_task_key_create
.LCOLDE8:
	.section	.text.aos_task_key_create
.LHOTE8:
	.section	.text.unlikely.aos_task_key_delete,"ax",@progbits
.LCOLDB9:
	.section	.text.aos_task_key_delete,"ax",@progbits
.LHOTB9:
	.globl	aos_task_key_delete
	.type	aos_task_key_delete, @function
aos_task_key_delete:
.LFB36:
	.loc 1 94 0
	.cfi_startproc
.LVL18:
	pushl	%ebp
	.cfi_def_cfa_offset 8
	.cfi_offset 5, -8
	movl	%esp, %ebp
	.cfi_def_cfa_register 5
	.loc 1 94 0
	movl	8(%ebp), %ecx
	.loc 1 95 0
	cmpl	$1, %ecx
	ja	.L181
	.loc 1 99 0
	movl	$-2, %eax
	roll	%cl, %eax
	andl	%eax, used_bitmap
.L181:
	.loc 1 100 0
	popl	%ebp
	.cfi_restore 5
	.cfi_def_cfa 4, 4
	ret
	.cfi_endproc
.LFE36:
	.size	aos_task_key_delete, .-aos_task_key_delete
	.section	.text.unlikely.aos_task_key_delete
.LCOLDE9:
	.section	.text.aos_task_key_delete
.LHOTE9:
	.section	.text.unlikely.aos_task_setspecific,"ax",@progbits
.LCOLDB10:
	.section	.text.aos_task_setspecific,"ax",@progbits
.LHOTB10:
	.globl	aos_task_setspecific
	.type	aos_task_setspecific, @function
aos_task_setspecific:
.LFB37:
	.loc 1 104 0
	.cfi_startproc
.LVL19:
	pushl	%ebp
	.cfi_def_cfa_offset 8
	.cfi_offset 5, -8
	movl	%esp, %ebp
	.cfi_def_cfa_register 5
	subl	$8, %esp
	.loc 1 106 0
	call	krhino_cur_task_get
.LVL20:
	pushl	%edx
	pushl	12(%ebp)
	pushl	8(%ebp)
	pushl	%eax
	call	krhino_task_info_set
.LVL21:
	movl	%eax, %edx
.LVL22:
	.loc 1 107 0
	addl	$16, %esp
	.loc 1 108 0
	xorl	%eax, %eax
.LVL23:
	.loc 1 107 0
	testl	%edx, %edx
	je	.L185
	.loc 1 111 0
	cmpl	$305, %edx
	je	.L187
	ja	.L188
	cmpl	$101, %edx
	ja	.L189
	cmpl	$100, %edx
	jnb	.L187
	cmpl	$8, %edx
	ja	.L190
	cmpl	$7, %edx
	jnb	.L187
	cmpl	$5, %edx
	je	.L187
	ja	.L201
	cmpl	$2, %edx
	je	.L201
	jmp	.L186
.L190:
	cmpl	$9, %edx
	je	.L186
	.loc 1 111 0
	movl	$-11, %eax
	.loc 1 111 0
	cmpl	$11, %edx
	jmp	.L264
.L189:
	cmpl	$202, %edx
	ja	.L193
	cmpl	$200, %edx
	jnb	.L186
	cmpl	$102, %edx
	je	.L201
	.loc 1 111 0
	movl	$-12, %eax
	.loc 1 111 0
	cmpl	$105, %edx
.L264:
	je	.L185
	jmp	.L186
.L193:
	cmpl	$300, %edx
	je	.L187
	ja	.L186
	cmpl	$203, %edx
	jne	.L186
	jmp	.L187
.L188:
	cmpl	$800, %edx
	je	.L187
	ja	.L195
	cmpl	$701, %edx
	ja	.L196
	cmpl	$700, %edx
	jnb	.L187
	jmp	.L186
.L196:
	cmpl	$702, %edx
	je	.L186
	cmpl	$705, %edx
	ja	.L186
	jmp	.L187
.L195:
	cmpl	$1001, %edx
	je	.L197
	ja	.L198
	jmp	.L186
.L198:
	cmpl	$1103, %edx
	je	.L197
	ja	.L186
	cmpl	$1100, %edx
	jb	.L186
.L187:
	.loc 1 111 0
	movl	$-22, %eax
	jmp	.L185
.L197:
	.loc 1 111 0 discriminator 7
	movl	$-11, %eax
	jmp	.L185
.L186:
	.loc 1 111 0 discriminator 1
	orl	$-1, %eax
	jmp	.L185
.L201:
	.loc 1 111 0
	movl	$-14, %eax
.L185:
	.loc 1 112 0
	leave
	.cfi_restore 5
	.cfi_def_cfa 4, 4
	ret
	.cfi_endproc
.LFE37:
	.size	aos_task_setspecific, .-aos_task_setspecific
	.section	.text.unlikely.aos_task_setspecific
.LCOLDE10:
	.section	.text.aos_task_setspecific
.LHOTE10:
	.section	.text.unlikely.aos_task_getspecific,"ax",@progbits
.LCOLDB11:
	.section	.text.aos_task_getspecific,"ax",@progbits
.LHOTB11:
	.globl	aos_task_getspecific
	.type	aos_task_getspecific, @function
aos_task_getspecific:
.LFB38:
	.loc 1 115 0
	.cfi_startproc
.LVL24:
	pushl	%ebp
	.cfi_def_cfa_offset 8
	.cfi_offset 5, -8
	movl	%esp, %ebp
	.cfi_def_cfa_register 5
	subl	$24, %esp
	.loc 1 115 0
	movl	%gs:20, %eax
	movl	%eax, -12(%ebp)
	xorl	%eax, %eax
	.loc 1 116 0
	movl	$0, -16(%ebp)
	.loc 1 118 0
	call	krhino_cur_task_get
.LVL25:
	pushl	%edx
	leal	-16(%ebp), %edx
	pushl	%edx
	pushl	8(%ebp)
	pushl	%eax
	call	krhino_task_info_get
.LVL26:
	.loc 1 121 0
	movl	-12(%ebp), %ecx
	xorl	%gs:20, %ecx
	movl	-16(%ebp), %eax
	je	.L266
	call	__stack_chk_fail
.LVL27:
.L266:
	leave
	.cfi_restore 5
	.cfi_def_cfa 4, 4
	ret
	.cfi_endproc
.LFE38:
	.size	aos_task_getspecific, .-aos_task_getspecific
	.section	.text.unlikely.aos_task_getspecific
.LCOLDE11:
	.section	.text.aos_task_getspecific
.LHOTE11:
	.section	.text.unlikely.aos_mutex_lock,"ax",@progbits
.LCOLDB12:
	.section	.text.aos_mutex_lock,"ax",@progbits
.LHOTB12:
	.globl	aos_mutex_lock
	.type	aos_mutex_lock, @function
aos_mutex_lock:
.LFB41:
	.loc 1 164 0
	.cfi_startproc
.LVL28:
	pushl	%ebp
	.cfi_def_cfa_offset 8
	.cfi_offset 5, -8
	.loc 1 168 0
	movl	$-22, %edx
	.loc 1 164 0
	movl	%esp, %ebp
	.cfi_def_cfa_register 5
	pushl	%ebx
	.cfi_offset 3, -12
	pushl	%ebx
	.loc 1 164 0
	movl	8(%ebp), %ebx
	movl	12(%ebp), %eax
	.loc 1 167 0
	testl	%ebx, %ebx
	je	.L269
	.loc 1 171 0
	cmpl	$-1, %eax
	jne	.L270
	.loc 1 172 0
	pushl	%ecx
	pushl	$-1
	pushl	$-1
	jmp	.L346
.L270:
	.loc 1 174 0
	pushl	%edx
	pushl	%edx
	xorl	%edx, %edx
	pushl	%edx
	pushl	%eax
	call	krhino_ms_to_ticks
.LVL29:
	addl	$12, %esp
	pushl	%edx
	pushl	%eax
.L346:
	pushl	(%ebx)
	call	krhino_mutex_lock
.LVL30:
	addl	$16, %esp
	.loc 1 182 0
	testl	%eax, %eax
	je	.L287
	cmpl	$901, %eax
	je	.L287
	.loc 1 186 0
	cmpl	$305, %eax
	je	.L273
	ja	.L274
	cmpl	$101, %eax
	ja	.L275
	cmpl	$100, %eax
	jnb	.L273
	cmpl	$8, %eax
	ja	.L276
	cmpl	$7, %eax
	jnb	.L273
	cmpl	$5, %eax
	je	.L273
	ja	.L288
	cmpl	$2, %eax
	je	.L288
	jmp	.L272
.L276:
	cmpl	$9, %eax
	je	.L272
	.loc 1 186 0
	movl	$-11, %edx
	.loc 1 186 0
	cmpl	$11, %eax
	jmp	.L351
.L275:
	cmpl	$202, %eax
	ja	.L279
	cmpl	$200, %eax
	jnb	.L272
	cmpl	$102, %eax
	je	.L288
	.loc 1 186 0
	movl	$-12, %edx
	.loc 1 186 0
	cmpl	$105, %eax
.L351:
	je	.L269
	jmp	.L272
.L279:
	cmpl	$300, %eax
	je	.L273
	ja	.L272
	cmpl	$203, %eax
	jne	.L272
	jmp	.L273
.L274:
	cmpl	$800, %eax
	je	.L273
	ja	.L281
	cmpl	$701, %eax
	ja	.L282
	cmpl	$700, %eax
	jnb	.L273
	jmp	.L272
.L282:
	cmpl	$702, %eax
	je	.L272
	cmpl	$705, %eax
	ja	.L272
	jmp	.L273
.L281:
	cmpl	$1001, %eax
	je	.L283
	ja	.L284
	jmp	.L272
.L284:
	cmpl	$1103, %eax
	je	.L283
	ja	.L272
	cmpl	$1100, %eax
	jb	.L272
.L273:
	.loc 1 186 0
	movl	$-22, %edx
	jmp	.L269
.L283:
	.loc 1 186 0 discriminator 7
	movl	$-11, %edx
	jmp	.L269
.L272:
	.loc 1 186 0 discriminator 1
	orl	$-1, %edx
	jmp	.L269
.L287:
	.loc 1 183 0
	xorl	%edx, %edx
	jmp	.L269
.L288:
	.loc 1 186 0
	movl	$-14, %edx
.LVL31:
.L269:
	.loc 1 187 0
	movl	%edx, %eax
	movl	-4(%ebp), %ebx
	leave
	.cfi_restore 5
	.cfi_restore 3
	.cfi_def_cfa 4, 4
	ret
	.cfi_endproc
.LFE41:
	.size	aos_mutex_lock, .-aos_mutex_lock
	.section	.text.unlikely.aos_mutex_lock
.LCOLDE12:
	.section	.text.aos_mutex_lock
.LHOTE12:
	.section	.text.unlikely.aos_mutex_unlock,"ax",@progbits
.LCOLDB13:
	.section	.text.aos_mutex_unlock,"ax",@progbits
.LHOTB13:
	.globl	aos_mutex_unlock
	.type	aos_mutex_unlock, @function
aos_mutex_unlock:
.LFB42:
	.loc 1 190 0
	.cfi_startproc
.LVL32:
	pushl	%ebp
	.cfi_def_cfa_offset 8
	.cfi_offset 5, -8
	.loc 1 194 0
	movl	$-22, %eax
	.loc 1 190 0
	movl	%esp, %ebp
	.cfi_def_cfa_register 5
	subl	$8, %esp
	.loc 1 190 0
	movl	8(%ebp), %edx
	.loc 1 193 0
	testl	%edx, %edx
	je	.L353
	.loc 1 197 0
	subl	$12, %esp
	pushl	(%edx)
	call	krhino_mutex_unlock
.LVL33:
	.loc 1 203 0
	addl	$16, %esp
	testl	%eax, %eax
	.loc 1 197 0
	movl	%eax, %edx
.LVL34:
	.loc 1 203 0
	je	.L369
	cmpl	$901, %eax
	je	.L369
	.loc 1 207 0
	cmpl	$305, %eax
	je	.L355
	ja	.L356
	cmpl	$101, %eax
	ja	.L357
	cmpl	$100, %eax
	jnb	.L355
	cmpl	$8, %eax
	ja	.L358
	cmpl	$7, %eax
	jnb	.L355
	cmpl	$5, %eax
	je	.L355
	ja	.L370
	cmpl	$2, %eax
	je	.L370
	jmp	.L354
.L358:
	cmpl	$9, %eax
	je	.L354
	.loc 1 207 0
	movl	$-11, %eax
.LVL35:
	.loc 1 207 0
	cmpl	$11, %edx
	jmp	.L432
.LVL36:
.L357:
	cmpl	$202, %eax
	ja	.L361
	cmpl	$200, %eax
	jnb	.L354
	cmpl	$102, %eax
	je	.L370
	.loc 1 207 0
	movl	$-12, %eax
.LVL37:
	.loc 1 207 0
	cmpl	$105, %edx
.L432:
	je	.L353
	jmp	.L354
.LVL38:
.L361:
	cmpl	$300, %eax
	je	.L355
	ja	.L354
	cmpl	$203, %eax
	jne	.L354
	jmp	.L355
.L356:
	cmpl	$800, %eax
	je	.L355
	ja	.L363
	cmpl	$701, %eax
	ja	.L364
	cmpl	$700, %eax
	jnb	.L355
	jmp	.L354
.L364:
	cmpl	$702, %eax
	je	.L354
	cmpl	$705, %eax
	ja	.L354
	jmp	.L355
.L363:
	cmpl	$1001, %eax
	je	.L365
	ja	.L366
	jmp	.L354
.L366:
	cmpl	$1103, %eax
	je	.L365
	ja	.L354
	cmpl	$1100, %eax
	jb	.L354
.L355:
	.loc 1 207 0
	movl	$-22, %eax
.LVL39:
	jmp	.L353
.LVL40:
.L365:
	.loc 1 207 0 discriminator 7
	movl	$-11, %eax
.LVL41:
	jmp	.L353
.L354:
	.loc 1 207 0 discriminator 1
	orl	$-1, %eax
	jmp	.L353
.LVL42:
.L369:
	.loc 1 204 0
	xorl	%eax, %eax
.LVL43:
	jmp	.L353
.LVL44:
.L370:
	.loc 1 207 0
	movl	$-14, %eax
.LVL45:
.L353:
	.loc 1 208 0
	leave
	.cfi_restore 5
	.cfi_def_cfa 4, 4
	ret
	.cfi_endproc
.LFE42:
	.size	aos_mutex_unlock, .-aos_mutex_unlock
	.section	.text.unlikely.aos_mutex_unlock
.LCOLDE13:
	.section	.text.aos_mutex_unlock
.LHOTE13:
	.section	.text.unlikely.aos_sem_wait,"ax",@progbits
.LCOLDB14:
	.section	.text.aos_sem_wait,"ax",@progbits
.LHOTB14:
	.globl	aos_sem_wait
	.type	aos_sem_wait, @function
aos_sem_wait:
.LFB46:
	.loc 1 268 0
	.cfi_startproc
.LVL46:
	pushl	%ebp
	.cfi_def_cfa_offset 8
	.cfi_offset 5, -8
	.loc 1 272 0
	movl	$-22, %edx
	.loc 1 268 0
	movl	%esp, %ebp
	.cfi_def_cfa_register 5
	pushl	%ebx
	.cfi_offset 3, -12
	pushl	%ebx
	.loc 1 268 0
	movl	8(%ebp), %ebx
	movl	12(%ebp), %eax
	.loc 1 271 0
	testl	%ebx, %ebx
	je	.L434
	.loc 1 275 0
	cmpl	$-1, %eax
	jne	.L435
	.loc 1 276 0
	pushl	%ecx
	pushl	$-1
	pushl	$-1
	jmp	.L512
.L435:
	.loc 1 278 0
	pushl	%edx
	pushl	%edx
	xorl	%edx, %edx
	pushl	%edx
	pushl	%eax
	call	krhino_ms_to_ticks
.LVL47:
	addl	$12, %esp
	pushl	%edx
	pushl	%eax
.L512:
	pushl	(%ebx)
	call	krhino_sem_take
.LVL48:
	addl	$16, %esp
	.loc 1 282 0
	xorl	%edx, %edx
	.loc 1 281 0
	testl	%eax, %eax
	je	.L434
	.loc 1 285 0
	cmpl	$305, %eax
	je	.L438
	ja	.L439
	cmpl	$101, %eax
	ja	.L440
	cmpl	$100, %eax
	jnb	.L438
	cmpl	$8, %eax
	ja	.L441
	cmpl	$7, %eax
	jnb	.L438
	cmpl	$5, %eax
	je	.L438
	ja	.L453
	cmpl	$2, %eax
	je	.L453
	jmp	.L437
.L441:
	cmpl	$9, %eax
	je	.L437
	.loc 1 285 0
	movl	$-11, %edx
	.loc 1 285 0
	cmpl	$11, %eax
	jmp	.L517
.L440:
	cmpl	$202, %eax
	ja	.L444
	cmpl	$200, %eax
	jnb	.L437
	cmpl	$102, %eax
	je	.L453
	.loc 1 285 0
	movl	$-12, %edx
	.loc 1 285 0
	cmpl	$105, %eax
.L517:
	je	.L434
	jmp	.L437
.L444:
	cmpl	$300, %eax
	je	.L438
	ja	.L437
	cmpl	$203, %eax
	jne	.L437
	jmp	.L438
.L439:
	cmpl	$800, %eax
	je	.L438
	ja	.L446
	cmpl	$701, %eax
	ja	.L447
	cmpl	$700, %eax
	jnb	.L438
	jmp	.L437
.L447:
	cmpl	$702, %eax
	je	.L437
	cmpl	$705, %eax
	ja	.L437
	jmp	.L438
.L446:
	cmpl	$1001, %eax
	je	.L448
	ja	.L449
	jmp	.L437
.L449:
	cmpl	$1103, %eax
	je	.L448
	ja	.L437
	cmpl	$1100, %eax
	jb	.L437
.L438:
	.loc 1 285 0
	movl	$-22, %edx
	jmp	.L434
.L448:
	.loc 1 285 0 discriminator 7
	movl	$-11, %edx
	jmp	.L434
.L437:
	.loc 1 285 0 discriminator 1
	orl	$-1, %edx
	jmp	.L434
.L453:
	.loc 1 285 0
	movl	$-14, %edx
.LVL49:
.L434:
	.loc 1 286 0
	movl	%edx, %eax
	movl	-4(%ebp), %ebx
	leave
	.cfi_restore 5
	.cfi_restore 3
	.cfi_def_cfa 4, 4
	ret
	.cfi_endproc
.LFE46:
	.size	aos_sem_wait, .-aos_sem_wait
	.section	.text.unlikely.aos_sem_wait
.LCOLDE14:
	.section	.text.aos_sem_wait
.LHOTE14:
	.section	.text.unlikely.aos_sem_signal,"ax",@progbits
.LCOLDB15:
	.section	.text.aos_sem_signal,"ax",@progbits
.LHOTB15:
	.globl	aos_sem_signal
	.type	aos_sem_signal, @function
aos_sem_signal:
.LFB47:
	.loc 1 289 0
	.cfi_startproc
.LVL50:
	pushl	%ebp
	.cfi_def_cfa_offset 8
	.cfi_offset 5, -8
	movl	%esp, %ebp
	.cfi_def_cfa_register 5
	.loc 1 289 0
	movl	8(%ebp), %eax
	.loc 1 290 0
	testl	%eax, %eax
	je	.L518
	.loc 1 294 0
	movl	(%eax), %eax
	movl	%eax, 8(%ebp)
.LVL51:
	.loc 1 295 0
	popl	%ebp
	.cfi_remember_state
	.cfi_restore 5
	.cfi_def_cfa 4, 4
	.loc 1 294 0
	jmp	krhino_sem_give
.LVL52:
.L518:
	.cfi_restore_state
	.loc 1 295 0
	popl	%ebp
	.cfi_restore 5
	.cfi_def_cfa 4, 4
	ret
	.cfi_endproc
.LFE47:
	.size	aos_sem_signal, .-aos_sem_signal
	.section	.text.unlikely.aos_sem_signal
.LCOLDE15:
	.section	.text.aos_sem_signal
.LHOTE15:
	.section	.text.unlikely.aos_sem_signal_all,"ax",@progbits
.LCOLDB16:
	.section	.text.aos_sem_signal_all,"ax",@progbits
.LHOTB16:
	.globl	aos_sem_signal_all
	.type	aos_sem_signal_all, @function
aos_sem_signal_all:
.LFB49:
	.loc 1 315 0
	.cfi_startproc
.LVL53:
	pushl	%ebp
	.cfi_def_cfa_offset 8
	.cfi_offset 5, -8
	movl	%esp, %ebp
	.cfi_def_cfa_register 5
	.loc 1 315 0
	movl	8(%ebp), %eax
	.loc 1 316 0
	testl	%eax, %eax
	je	.L521
	.loc 1 320 0
	movl	(%eax), %eax
	movl	%eax, 8(%ebp)
.LVL54:
	.loc 1 321 0
	popl	%ebp
	.cfi_remember_state
	.cfi_restore 5
	.cfi_def_cfa 4, 4
	.loc 1 320 0
	jmp	krhino_sem_give_all
.LVL55:
.L521:
	.cfi_restore_state
	.loc 1 321 0
	popl	%ebp
	.cfi_restore 5
	.cfi_def_cfa 4, 4
	ret
	.cfi_endproc
.LFE49:
	.size	aos_sem_signal_all, .-aos_sem_signal_all
	.section	.text.unlikely.aos_sem_signal_all
.LCOLDE16:
	.section	.text.aos_sem_signal_all
.LHOTE16:
	.section	.rodata.str1.1
.LC17:
	.string	"AOS"
	.section	.text.unlikely.aos_event_new,"ax",@progbits
.LCOLDB18:
	.section	.text.aos_event_new,"ax",@progbits
.LHOTB18:
	.globl	aos_event_new
	.type	aos_event_new, @function
aos_event_new:
.LFB50:
	.loc 1 328 0
	.cfi_startproc
.LVL56:
	pushl	%ebp
	.cfi_def_cfa_offset 8
	.cfi_offset 5, -8
	movl	%esp, %ebp
	.cfi_def_cfa_register 5
	subl	$12, %esp
	.loc 1 330 0
	pushl	12(%ebp)
	pushl	$.LC17
	pushl	8(%ebp)
	call	krhino_event_dyn_create
.LVL57:
	movl	%eax, %edx
.LVL58:
	.loc 1 331 0
	addl	$16, %esp
	.loc 1 332 0
	xorl	%eax, %eax
.LVL59:
	.loc 1 331 0
	testl	%edx, %edx
	je	.L525
	.loc 1 335 0
	cmpl	$305, %edx
	je	.L527
	ja	.L528
	cmpl	$101, %edx
	ja	.L529
	cmpl	$100, %edx
	jnb	.L527
	cmpl	$8, %edx
	ja	.L530
	cmpl	$7, %edx
	jnb	.L527
	cmpl	$5, %edx
	je	.L527
	ja	.L541
	cmpl	$2, %edx
	je	.L541
	jmp	.L526
.L530:
	cmpl	$9, %edx
	je	.L526
	.loc 1 335 0
	movl	$-11, %eax
	.loc 1 335 0
	cmpl	$11, %edx
	jmp	.L604
.L529:
	cmpl	$202, %edx
	ja	.L533
	cmpl	$200, %edx
	jnb	.L526
	cmpl	$102, %edx
	je	.L541
	.loc 1 335 0
	movl	$-12, %eax
	.loc 1 335 0
	cmpl	$105, %edx
.L604:
	je	.L525
	jmp	.L526
.L533:
	cmpl	$300, %edx
	je	.L527
	ja	.L526
	cmpl	$203, %edx
	jne	.L526
	jmp	.L527
.L528:
	cmpl	$800, %edx
	je	.L527
	ja	.L535
	cmpl	$701, %edx
	ja	.L536
	cmpl	$700, %edx
	jnb	.L527
	jmp	.L526
.L536:
	cmpl	$702, %edx
	je	.L526
	cmpl	$705, %edx
	ja	.L526
	jmp	.L527
.L535:
	cmpl	$1001, %edx
	je	.L537
	ja	.L538
	jmp	.L526
.L538:
	cmpl	$1103, %edx
	je	.L537
	ja	.L526
	cmpl	$1100, %edx
	jb	.L526
.L527:
	.loc 1 335 0
	movl	$-22, %eax
	jmp	.L525
.L537:
	.loc 1 335 0 discriminator 7
	movl	$-11, %eax
	jmp	.L525
.L526:
	.loc 1 335 0 discriminator 1
	orl	$-1, %eax
	jmp	.L525
.L541:
	.loc 1 335 0
	movl	$-14, %eax
.L525:
	.loc 1 336 0
	leave
	.cfi_restore 5
	.cfi_def_cfa 4, 4
	ret
	.cfi_endproc
.LFE50:
	.size	aos_event_new, .-aos_event_new
	.section	.text.unlikely.aos_event_new
.LCOLDE18:
	.section	.text.aos_event_new
.LHOTE18:
	.section	.text.unlikely.aos_event_free,"ax",@progbits
.LCOLDB19:
	.section	.text.aos_event_free,"ax",@progbits
.LHOTB19:
	.globl	aos_event_free
	.type	aos_event_free, @function
aos_event_free:
.LFB51:
	.loc 1 339 0
	.cfi_startproc
.LVL60:
	pushl	%ebp
	.cfi_def_cfa_offset 8
	.cfi_offset 5, -8
	movl	%esp, %ebp
	.cfi_def_cfa_register 5
	pushl	%ebx
	pushl	%eax
	.cfi_offset 3, -12
	.loc 1 339 0
	movl	8(%ebp), %ebx
	.loc 1 340 0
	testl	%ebx, %ebx
	je	.L605
	.loc 1 344 0
	subl	$12, %esp
	pushl	(%ebx)
	call	krhino_event_dyn_del
.LVL61:
	.loc 1 346 0
	movl	$0, (%ebx)
	addl	$16, %esp
.L605:
	.loc 1 347 0
	movl	-4(%ebp), %ebx
	leave
	.cfi_restore 5
	.cfi_restore 3
	.cfi_def_cfa 4, 4
	ret
	.cfi_endproc
.LFE51:
	.size	aos_event_free, .-aos_event_free
	.section	.text.unlikely.aos_event_free
.LCOLDE19:
	.section	.text.aos_event_free
.LHOTE19:
	.section	.text.unlikely.aos_event_get,"ax",@progbits
.LCOLDB20:
	.section	.text.aos_event_get,"ax",@progbits
.LHOTB20:
	.globl	aos_event_get
	.type	aos_event_get, @function
aos_event_get:
.LFB52:
	.loc 1 357 0
	.cfi_startproc
.LVL62:
	pushl	%ebp
	.cfi_def_cfa_offset 8
	.cfi_offset 5, -8
	.loc 1 361 0
	movl	$-22, %edx
	.loc 1 357 0
	movl	%esp, %ebp
	.cfi_def_cfa_register 5
	pushl	%edi
	pushl	%esi
	pushl	%ebx
	subl	$12, %esp
	.cfi_offset 7, -12
	.cfi_offset 6, -16
	.cfi_offset 3, -20
	.loc 1 357 0
	movl	8(%ebp), %edi
	movl	16(%ebp), %ecx
	movl	20(%ebp), %esi
	movl	24(%ebp), %eax
	.loc 1 360 0
	testl	%edi, %edi
	je	.L612
	.loc 1 364 0
	cmpl	$-1, %eax
	movzbl	%cl, %ebx
	jne	.L613
	.loc 1 365 0
	pushl	%eax
	pushl	%eax
	pushl	$-1
	pushl	$-1
	jmp	.L690
.L613:
	.loc 1 367 0
	pushl	%edx
	pushl	%edx
	xorl	%edx, %edx
	pushl	%edx
	pushl	%eax
	call	krhino_ms_to_ticks
.LVL63:
	popl	%ecx
	popl	%ecx
	pushl	%edx
	pushl	%eax
.L690:
	pushl	%esi
	pushl	%ebx
	pushl	12(%ebp)
	pushl	(%edi)
	call	krhino_event_get
.LVL64:
	addl	$32, %esp
	.loc 1 371 0
	xorl	%edx, %edx
	.loc 1 370 0
	testl	%eax, %eax
	je	.L612
	.loc 1 374 0
	cmpl	$305, %eax
	je	.L616
	ja	.L617
	cmpl	$101, %eax
	ja	.L618
	cmpl	$100, %eax
	jnb	.L616
	cmpl	$8, %eax
	ja	.L619
	cmpl	$7, %eax
	jnb	.L616
	cmpl	$5, %eax
	je	.L616
	ja	.L631
	cmpl	$2, %eax
	je	.L631
	jmp	.L615
.L619:
	cmpl	$9, %eax
	je	.L615
	.loc 1 374 0
	movl	$-11, %edx
	.loc 1 374 0
	cmpl	$11, %eax
	jmp	.L695
.L618:
	cmpl	$202, %eax
	ja	.L622
	cmpl	$200, %eax
	jnb	.L615
	cmpl	$102, %eax
	je	.L631
	.loc 1 374 0
	movl	$-12, %edx
	.loc 1 374 0
	cmpl	$105, %eax
.L695:
	je	.L612
	jmp	.L615
.L622:
	cmpl	$300, %eax
	je	.L616
	ja	.L615
	cmpl	$203, %eax
	jne	.L615
	jmp	.L616
.L617:
	cmpl	$800, %eax
	je	.L616
	ja	.L624
	cmpl	$701, %eax
	ja	.L625
	cmpl	$700, %eax
	jnb	.L616
	jmp	.L615
.L625:
	cmpl	$702, %eax
	je	.L615
	cmpl	$705, %eax
	ja	.L615
	jmp	.L616
.L624:
	cmpl	$1001, %eax
	je	.L626
	ja	.L627
	jmp	.L615
.L627:
	cmpl	$1103, %eax
	je	.L626
	ja	.L615
	cmpl	$1100, %eax
	jb	.L615
.L616:
	.loc 1 374 0
	movl	$-22, %edx
	jmp	.L612
.L626:
	.loc 1 374 0 discriminator 7
	movl	$-11, %edx
	jmp	.L612
.L615:
	.loc 1 374 0 discriminator 1
	orl	$-1, %edx
	jmp	.L612
.L631:
	.loc 1 374 0
	movl	$-14, %edx
.LVL65:
.L612:
	.loc 1 375 0
	leal	-12(%ebp), %esp
	movl	%edx, %eax
	popl	%ebx
	.cfi_restore 3
	popl	%esi
	.cfi_restore 6
	popl	%edi
	.cfi_restore 7
	popl	%ebp
	.cfi_restore 5
	.cfi_def_cfa 4, 4
	ret
	.cfi_endproc
.LFE52:
	.size	aos_event_get, .-aos_event_get
	.section	.text.unlikely.aos_event_get
.LCOLDE20:
	.section	.text.aos_event_get
.LHOTE20:
	.section	.text.unlikely.aos_event_set,"ax",@progbits
.LCOLDB21:
	.section	.text.aos_event_set,"ax",@progbits
.LHOTB21:
	.globl	aos_event_set
	.type	aos_event_set, @function
aos_event_set:
.LFB53:
	.loc 1 378 0
	.cfi_startproc
.LVL66:
	pushl	%ebp
	.cfi_def_cfa_offset 8
	.cfi_offset 5, -8
	.loc 1 382 0
	movl	$-22, %eax
	.loc 1 378 0
	movl	%esp, %ebp
	.cfi_def_cfa_register 5
	subl	$8, %esp
	.loc 1 378 0
	movl	8(%ebp), %ecx
	movl	16(%ebp), %edx
	.loc 1 381 0
	testl	%ecx, %ecx
	je	.L697
	.loc 1 385 0
	pushl	%eax
	movzbl	%dl, %eax
	pushl	%eax
	pushl	12(%ebp)
	pushl	(%ecx)
	call	krhino_event_set
.LVL67:
	movl	%eax, %edx
.LVL68:
	.loc 1 387 0
	addl	$16, %esp
	.loc 1 388 0
	xorl	%eax, %eax
.LVL69:
	.loc 1 387 0
	testl	%edx, %edx
	je	.L697
	.loc 1 391 0
	cmpl	$305, %edx
	je	.L699
	ja	.L700
	cmpl	$101, %edx
	ja	.L701
	cmpl	$100, %edx
	jnb	.L699
	cmpl	$8, %edx
	ja	.L702
	cmpl	$7, %edx
	jnb	.L699
	cmpl	$5, %edx
	je	.L699
	ja	.L714
	cmpl	$2, %edx
	je	.L714
	jmp	.L698
.L702:
	cmpl	$9, %edx
	je	.L698
	.loc 1 391 0
	movl	$-11, %eax
	.loc 1 391 0
	cmpl	$11, %edx
	jmp	.L777
.L701:
	cmpl	$202, %edx
	ja	.L705
	cmpl	$200, %edx
	jnb	.L698
	cmpl	$102, %edx
	je	.L714
	.loc 1 391 0
	movl	$-12, %eax
	.loc 1 391 0
	cmpl	$105, %edx
.L777:
	je	.L697
	jmp	.L698
.L705:
	cmpl	$300, %edx
	je	.L699
	ja	.L698
	cmpl	$203, %edx
	jne	.L698
	jmp	.L699
.L700:
	cmpl	$800, %edx
	je	.L699
	ja	.L707
	cmpl	$701, %edx
	ja	.L708
	cmpl	$700, %edx
	jnb	.L699
	jmp	.L698
.L708:
	cmpl	$702, %edx
	je	.L698
	cmpl	$705, %edx
	ja	.L698
	jmp	.L699
.L707:
	cmpl	$1001, %edx
	je	.L709
	ja	.L710
	jmp	.L698
.L710:
	cmpl	$1103, %edx
	je	.L709
	ja	.L698
	cmpl	$1100, %edx
	jb	.L698
.L699:
	.loc 1 391 0
	movl	$-22, %eax
	jmp	.L697
.L709:
	.loc 1 391 0 discriminator 7
	movl	$-11, %eax
	jmp	.L697
.L698:
	.loc 1 391 0 discriminator 1
	orl	$-1, %eax
	jmp	.L697
.L714:
	.loc 1 391 0
	movl	$-14, %eax
.LVL70:
.L697:
	.loc 1 392 0
	leave
	.cfi_restore 5
	.cfi_def_cfa 4, 4
	ret
	.cfi_endproc
.LFE53:
	.size	aos_event_set, .-aos_event_set
	.section	.text.unlikely.aos_event_set
.LCOLDE21:
	.section	.text.aos_event_set
.LHOTE21:
	.section	.text.unlikely.aos_queue_send,"ax",@progbits
.LCOLDB22:
	.section	.text.aos_queue_send,"ax",@progbits
.LHOTB22:
	.globl	aos_queue_send
	.type	aos_queue_send, @function
aos_queue_send:
.LFB56:
	.loc 1 436 0
	.cfi_startproc
.LVL71:
	pushl	%ebp
	.cfi_def_cfa_offset 8
	.cfi_offset 5, -8
	movl	%esp, %ebp
	.cfi_def_cfa_register 5
	subl	$8, %esp
	.loc 1 436 0
	movl	8(%ebp), %eax
	movl	12(%ebp), %edx
	.loc 1 439 0
	testl	%eax, %eax
	je	.L794
	testl	%edx, %edx
	je	.L794
	.loc 1 443 0
	pushl	%ecx
	pushl	16(%ebp)
	pushl	%edx
	pushl	(%eax)
	call	krhino_buf_queue_send
.LVL72:
	movl	%eax, %edx
.LVL73:
	.loc 1 444 0
	addl	$16, %esp
	.loc 1 445 0
	xorl	%eax, %eax
.LVL74:
	.loc 1 444 0
	testl	%edx, %edx
	je	.L779
	.loc 1 448 0
	cmpl	$305, %edx
	je	.L794
	ja	.L782
	cmpl	$101, %edx
	ja	.L783
	cmpl	$100, %edx
	jnb	.L794
	cmpl	$8, %edx
	ja	.L784
	cmpl	$7, %edx
	jnb	.L794
	cmpl	$5, %edx
	je	.L794
	ja	.L796
	cmpl	$2, %edx
	je	.L796
	jmp	.L780
.L784:
	cmpl	$9, %edx
	je	.L780
	.loc 1 448 0
	movl	$-11, %eax
	.loc 1 448 0
	cmpl	$11, %edx
	jmp	.L859
.L783:
	cmpl	$202, %edx
	ja	.L787
	cmpl	$200, %edx
	jnb	.L780
	cmpl	$102, %edx
	je	.L796
	.loc 1 448 0
	movl	$-12, %eax
	.loc 1 448 0
	cmpl	$105, %edx
.L859:
	je	.L779
	jmp	.L780
.L787:
	cmpl	$300, %edx
	je	.L794
	ja	.L780
	cmpl	$203, %edx
	jne	.L780
	jmp	.L794
.L782:
	cmpl	$800, %edx
	je	.L794
	ja	.L789
	cmpl	$701, %edx
	ja	.L790
	cmpl	$700, %edx
	jnb	.L794
	jmp	.L780
.L790:
	cmpl	$702, %edx
	je	.L780
	cmpl	$705, %edx
	ja	.L780
	jmp	.L794
.L789:
	cmpl	$1001, %edx
	je	.L791
	ja	.L792
	jmp	.L780
.L792:
	cmpl	$1103, %edx
	je	.L791
	ja	.L780
	cmpl	$1100, %edx
	jnb	.L794
	jmp	.L780
.L791:
	.loc 1 448 0 discriminator 7
	movl	$-11, %eax
	jmp	.L779
.L780:
	.loc 1 448 0 discriminator 1
	orl	$-1, %eax
	jmp	.L779
.LVL75:
.L794:
	.loc 1 440 0
	movl	$-22, %eax
	jmp	.L779
.LVL76:
.L796:
	.loc 1 448 0
	movl	$-14, %eax
.LVL77:
.L779:
	.loc 1 449 0
	leave
	.cfi_restore 5
	.cfi_def_cfa 4, 4
	ret
	.cfi_endproc
.LFE56:
	.size	aos_queue_send, .-aos_queue_send
	.section	.text.unlikely.aos_queue_send
.LCOLDE22:
	.section	.text.aos_queue_send
.LHOTE22:
	.section	.text.unlikely.aos_queue_recv,"ax",@progbits
.LCOLDB23:
	.section	.text.aos_queue_recv,"ax",@progbits
.LHOTB23:
	.globl	aos_queue_recv
	.type	aos_queue_recv, @function
aos_queue_recv:
.LFB57:
	.loc 1 453 0
	.cfi_startproc
.LVL78:
	pushl	%ebp
	.cfi_def_cfa_offset 8
	.cfi_offset 5, -8
	.loc 1 457 0
	movl	$-22, %eax
	.loc 1 453 0
	movl	%esp, %ebp
	.cfi_def_cfa_register 5
	pushl	%ebx
	.cfi_offset 3, -12
	pushl	%ebx
	.loc 1 453 0
	movl	8(%ebp), %ebx
	.loc 1 456 0
	testl	%ebx, %ebx
	je	.L861
	.loc 1 460 0
	pushl	%eax
	pushl	%eax
	xorl	%edx, %edx
	movl	12(%ebp), %eax
	pushl	%edx
	pushl	%eax
	call	krhino_ms_to_ticks
.LVL79:
	popl	%ecx
	pushl	20(%ebp)
	pushl	16(%ebp)
	pushl	%edx
	pushl	%eax
	pushl	(%ebx)
	call	krhino_buf_queue_recv
.LVL80:
	movl	%eax, %edx
.LVL81:
	.loc 1 461 0
	addl	$32, %esp
	.loc 1 462 0
	xorl	%eax, %eax
.LVL82:
	.loc 1 461 0
	testl	%edx, %edx
	je	.L861
	.loc 1 465 0
	cmpl	$305, %edx
	je	.L863
	ja	.L864
	cmpl	$101, %edx
	ja	.L865
	cmpl	$100, %edx
	jnb	.L863
	cmpl	$8, %edx
	ja	.L866
	cmpl	$7, %edx
	jnb	.L863
	cmpl	$5, %edx
	je	.L863
	ja	.L878
	cmpl	$2, %edx
	je	.L878
	jmp	.L862
.L866:
	cmpl	$9, %edx
	je	.L862
	.loc 1 465 0
	movl	$-11, %eax
	.loc 1 465 0
	cmpl	$11, %edx
	jmp	.L941
.L865:
	cmpl	$202, %edx
	ja	.L869
	cmpl	$200, %edx
	jnb	.L862
	cmpl	$102, %edx
	je	.L878
	.loc 1 465 0
	movl	$-12, %eax
	.loc 1 465 0
	cmpl	$105, %edx
.L941:
	je	.L861
	jmp	.L862
.L869:
	cmpl	$300, %edx
	je	.L863
	ja	.L862
	cmpl	$203, %edx
	jne	.L862
	jmp	.L863
.L864:
	cmpl	$800, %edx
	je	.L863
	ja	.L871
	cmpl	$701, %edx
	ja	.L872
	cmpl	$700, %edx
	jnb	.L863
	jmp	.L862
.L872:
	cmpl	$702, %edx
	je	.L862
	cmpl	$705, %edx
	ja	.L862
	jmp	.L863
.L871:
	cmpl	$1001, %edx
	je	.L873
	ja	.L874
	jmp	.L862
.L874:
	cmpl	$1103, %edx
	je	.L873
	ja	.L862
	cmpl	$1100, %edx
	jb	.L862
.L863:
	.loc 1 465 0
	movl	$-22, %eax
	jmp	.L861
.L873:
	.loc 1 465 0 discriminator 7
	movl	$-11, %eax
	jmp	.L861
.L862:
	.loc 1 465 0 discriminator 1
	orl	$-1, %eax
	jmp	.L861
.L878:
	.loc 1 465 0
	movl	$-14, %eax
.LVL83:
.L861:
	.loc 1 466 0
	movl	-4(%ebp), %ebx
	leave
	.cfi_restore 5
	.cfi_restore 3
	.cfi_def_cfa 4, 4
	ret
	.cfi_endproc
.LFE57:
	.size	aos_queue_recv, .-aos_queue_recv
	.section	.text.unlikely.aos_queue_recv
.LCOLDE23:
	.section	.text.aos_queue_recv
.LHOTE23:
	.section	.text.unlikely.aos_queue_is_valid,"ax",@progbits
.LCOLDB24:
	.section	.text.aos_queue_is_valid,"ax",@progbits
.LHOTB24:
	.globl	aos_queue_is_valid
	.type	aos_queue_is_valid, @function
aos_queue_is_valid:
.LFB58:
	.loc 1 469 0
	.cfi_startproc
.LVL84:
	pushl	%ebp
	.cfi_def_cfa_offset 8
	.cfi_offset 5, -8
	xorl	%eax, %eax
	movl	%esp, %ebp
	.cfi_def_cfa_register 5
	.loc 1 469 0
	movl	8(%ebp), %edx
	.loc 1 472 0
	testl	%edx, %edx
	je	.L943
.LVL85:
	.loc 1 473 0
	xorl	%eax, %eax
	cmpl	$0, (%edx)
	setne	%al
.LVL86:
.L943:
	.loc 1 483 0
	popl	%ebp
	.cfi_restore 5
	.cfi_def_cfa 4, 4
	ret
	.cfi_endproc
.LFE58:
	.size	aos_queue_is_valid, .-aos_queue_is_valid
	.section	.text.unlikely.aos_queue_is_valid
.LCOLDE24:
	.section	.text.aos_queue_is_valid
.LHOTE24:
	.section	.text.unlikely.aos_sem_is_valid,"ax",@progbits
.LCOLDB25:
	.section	.text.aos_sem_is_valid,"ax",@progbits
.LHOTB25:
	.globl	aos_sem_is_valid
	.type	aos_sem_is_valid, @function
aos_sem_is_valid:
.LFB84:
	.cfi_startproc
	pushl	%ebp
	.cfi_def_cfa_offset 8
	.cfi_offset 5, -8
	movl	%esp, %ebp
	.cfi_def_cfa_register 5
	popl	%ebp
	.cfi_restore 5
	.cfi_def_cfa 4, 4
	jmp	aos_queue_is_valid
	.cfi_endproc
.LFE84:
	.size	aos_sem_is_valid, .-aos_sem_is_valid
	.section	.text.unlikely.aos_sem_is_valid
.LCOLDE25:
	.section	.text.aos_sem_is_valid
.LHOTE25:
	.section	.text.unlikely.aos_mutex_is_valid,"ax",@progbits
.LCOLDB26:
	.section	.text.aos_mutex_is_valid,"ax",@progbits
.LHOTB26:
	.globl	aos_mutex_is_valid
	.type	aos_mutex_is_valid, @function
aos_mutex_is_valid:
.LFB86:
	.cfi_startproc
	pushl	%ebp
	.cfi_def_cfa_offset 8
	.cfi_offset 5, -8
	movl	%esp, %ebp
	.cfi_def_cfa_register 5
	popl	%ebp
	.cfi_restore 5
	.cfi_def_cfa 4, 4
	jmp	aos_queue_is_valid
	.cfi_endproc
.LFE86:
	.size	aos_mutex_is_valid, .-aos_mutex_is_valid
	.section	.text.unlikely.aos_mutex_is_valid
.LCOLDE26:
	.section	.text.aos_mutex_is_valid
.LHOTE26:
	.section	.text.unlikely.aos_queue_buf_ptr,"ax",@progbits
.LCOLDB27:
	.section	.text.aos_queue_buf_ptr,"ax",@progbits
.LHOTB27:
	.globl	aos_queue_buf_ptr
	.type	aos_queue_buf_ptr, @function
aos_queue_buf_ptr:
.LFB59:
	.loc 1 486 0
	.cfi_startproc
.LVL87:
	.loc 1 486 0
	pushl	%ebp
	.cfi_def_cfa_offset 8
	.cfi_offset 5, -8
	movl	%esp, %ebp
	.cfi_def_cfa_register 5
	.loc 1 486 0
	movl	8(%ebp), %ecx
	.loc 1 487 0
	pushl	%ecx
	call	aos_queue_is_valid
.LVL88:
	popl	%edx
	xorl	%edx, %edx
	testl	%eax, %eax
	je	.L952
	.loc 1 491 0
	movl	(%ecx), %eax
	movl	20(%eax), %edx
.L952:
	.loc 1 492 0
	movl	%edx, %eax
	leave
	.cfi_restore 5
	.cfi_def_cfa 4, 4
	ret
	.cfi_endproc
.LFE59:
	.size	aos_queue_buf_ptr, .-aos_queue_buf_ptr
	.section	.text.unlikely.aos_queue_buf_ptr
.LCOLDE27:
	.section	.text.aos_queue_buf_ptr
.LHOTE27:
	.section	.text.unlikely.aos_timer_new,"ax",@progbits
.LCOLDB28:
	.section	.text.aos_timer_new,"ax",@progbits
.LHOTB28:
	.globl	aos_timer_new
	.type	aos_timer_new, @function
aos_timer_new:
.LFB60:
	.loc 1 498 0
	.cfi_startproc
.LVL89:
	pushl	%ebp
	.cfi_def_cfa_offset 8
	.cfi_offset 5, -8
	.loc 1 502 0
	movl	$-22, %edx
	.loc 1 498 0
	movl	%esp, %ebp
	.cfi_def_cfa_register 5
	pushl	%edi
	pushl	%esi
	pushl	%ebx
	subl	$28, %esp
	.cfi_offset 7, -12
	.cfi_offset 6, -16
	.cfi_offset 3, -20
	.loc 1 498 0
	movl	8(%ebp), %ebx
	movl	20(%ebp), %esi
	.loc 1 501 0
	testl	%ebx, %ebx
	je	.L957
	.loc 1 505 0
	cmpl	$0, 24(%ebp)
	jne	.L958
	.loc 1 506 0
	pushl	%edi
	pushl	%edi
	movl	%esi, %edi
	sarl	$31, %edi
	pushl	%edi
	pushl	%esi
	call	krhino_ms_to_ticks
.LVL90:
	movl	$1, (%esp)
	pushl	16(%ebp)
	pushl	$0
	pushl	$0
	jmp	.L1035
.L958:
	.loc 1 508 0
	movl	%esi, %edi
	pushl	%eax
	pushl	%eax
	sarl	$31, %edi
	pushl	%edi
	pushl	%esi
	call	krhino_ms_to_ticks
.LVL91:
	movl	%edx, -28(%ebp)
	movl	%eax, -32(%ebp)
	popl	%edx
	popl	%ecx
	pushl	%edi
	pushl	%esi
	call	krhino_ms_to_ticks
.LVL92:
	movl	$1, (%esp)
	pushl	16(%ebp)
	pushl	-28(%ebp)
	pushl	-32(%ebp)
.L1035:
	pushl	%edx
	pushl	%eax
	pushl	12(%ebp)
	pushl	$.LC17
	pushl	%ebx
	call	krhino_timer_dyn_create
.LVL93:
	addl	$48, %esp
	.loc 1 516 0
	xorl	%edx, %edx
	.loc 1 512 0
	testl	%eax, %eax
	je	.L957
	.loc 1 513 0
	cmpl	$305, %eax
	je	.L961
	ja	.L962
	cmpl	$101, %eax
	ja	.L963
	cmpl	$100, %eax
	jnb	.L961
	cmpl	$8, %eax
	ja	.L964
	cmpl	$7, %eax
	jnb	.L961
	cmpl	$5, %eax
	je	.L961
	ja	.L976
	cmpl	$2, %eax
	je	.L976
	jmp	.L960
.L964:
	cmpl	$9, %eax
	je	.L960
	.loc 1 513 0
	movl	$-11, %edx
	.loc 1 513 0
	cmpl	$11, %eax
	jmp	.L1040
.L963:
	cmpl	$202, %eax
	ja	.L967
	cmpl	$200, %eax
	jnb	.L960
	cmpl	$102, %eax
	je	.L976
	.loc 1 513 0
	movl	$-12, %edx
	.loc 1 513 0
	cmpl	$105, %eax
.L1040:
	je	.L957
	jmp	.L960
.L967:
	cmpl	$300, %eax
	je	.L961
	ja	.L960
	cmpl	$203, %eax
	jne	.L960
	jmp	.L961
.L962:
	cmpl	$800, %eax
	je	.L961
	ja	.L969
	cmpl	$701, %eax
	ja	.L970
	cmpl	$700, %eax
	jnb	.L961
	jmp	.L960
.L970:
	cmpl	$702, %eax
	je	.L960
	cmpl	$705, %eax
	ja	.L960
	jmp	.L961
.L969:
	cmpl	$1001, %eax
	je	.L971
	ja	.L972
	jmp	.L960
.L972:
	cmpl	$1103, %eax
	je	.L971
	ja	.L960
	cmpl	$1100, %eax
	jb	.L960
.L961:
	.loc 1 513 0
	movl	$-22, %edx
	jmp	.L957
.L971:
	.loc 1 513 0 discriminator 7
	movl	$-11, %edx
	jmp	.L957
.L960:
	.loc 1 513 0 discriminator 1
	orl	$-1, %edx
	jmp	.L957
.L976:
	.loc 1 513 0
	movl	$-14, %edx
.LVL94:
.L957:
	.loc 1 517 0
	leal	-12(%ebp), %esp
	movl	%edx, %eax
	popl	%ebx
	.cfi_restore 3
	popl	%esi
	.cfi_restore 6
	popl	%edi
	.cfi_restore 7
	popl	%ebp
	.cfi_restore 5
	.cfi_def_cfa 4, 4
	ret
	.cfi_endproc
.LFE60:
	.size	aos_timer_new, .-aos_timer_new
	.section	.text.unlikely.aos_timer_new
.LCOLDE28:
	.section	.text.aos_timer_new
.LHOTE28:
	.section	.text.unlikely.aos_timer_new_ext,"ax",@progbits
.LCOLDB29:
	.section	.text.aos_timer_new_ext,"ax",@progbits
.LHOTB29:
	.globl	aos_timer_new_ext
	.type	aos_timer_new_ext, @function
aos_timer_new_ext:
.LFB61:
	.loc 1 521 0
	.cfi_startproc
.LVL95:
	pushl	%ebp
	.cfi_def_cfa_offset 8
	.cfi_offset 5, -8
	.loc 1 525 0
	movl	$-22, %edx
	.loc 1 521 0
	movl	%esp, %ebp
	.cfi_def_cfa_register 5
	pushl	%edi
	pushl	%esi
	pushl	%ebx
	subl	$28, %esp
	.cfi_offset 7, -12
	.cfi_offset 6, -16
	.cfi_offset 3, -20
	.loc 1 524 0
	cmpl	$0, 8(%ebp)
	.loc 1 521 0
	movl	20(%ebp), %esi
	movl	28(%ebp), %ebx
	.loc 1 524 0
	je	.L1042
	.loc 1 528 0
	cmpl	$0, 24(%ebp)
	movzbl	%bl, %ebx
	jne	.L1043
	.loc 1 529 0
	pushl	%edi
	pushl	%edi
	movl	%esi, %edi
	sarl	$31, %edi
	pushl	%edi
	pushl	%esi
	call	krhino_ms_to_ticks
.LVL96:
	movl	%ebx, (%esp)
	pushl	16(%ebp)
	pushl	$0
	pushl	$0
	jmp	.L1120
.L1043:
	.loc 1 531 0
	movl	%esi, %edi
	pushl	%eax
	pushl	%eax
	sarl	$31, %edi
	pushl	%edi
	pushl	%esi
	call	krhino_ms_to_ticks
.LVL97:
	movl	%edx, -28(%ebp)
	movl	%eax, -32(%ebp)
	popl	%edx
	popl	%ecx
	pushl	%edi
	pushl	%esi
	call	krhino_ms_to_ticks
.LVL98:
	movl	%ebx, (%esp)
	pushl	16(%ebp)
	pushl	-28(%ebp)
	pushl	-32(%ebp)
.L1120:
	pushl	%edx
	pushl	%eax
	pushl	12(%ebp)
	pushl	$.LC17
	pushl	8(%ebp)
	call	krhino_timer_dyn_create
.LVL99:
	addl	$48, %esp
	.loc 1 539 0
	xorl	%edx, %edx
	.loc 1 535 0
	testl	%eax, %eax
	je	.L1042
	.loc 1 536 0
	cmpl	$305, %eax
	je	.L1046
	ja	.L1047
	cmpl	$101, %eax
	ja	.L1048
	cmpl	$100, %eax
	jnb	.L1046
	cmpl	$8, %eax
	ja	.L1049
	cmpl	$7, %eax
	jnb	.L1046
	cmpl	$5, %eax
	je	.L1046
	ja	.L1061
	cmpl	$2, %eax
	je	.L1061
	jmp	.L1045
.L1049:
	cmpl	$9, %eax
	je	.L1045
	.loc 1 536 0
	movl	$-11, %edx
	.loc 1 536 0
	cmpl	$11, %eax
	jmp	.L1125
.L1048:
	cmpl	$202, %eax
	ja	.L1052
	cmpl	$200, %eax
	jnb	.L1045
	cmpl	$102, %eax
	je	.L1061
	.loc 1 536 0
	movl	$-12, %edx
	.loc 1 536 0
	cmpl	$105, %eax
.L1125:
	je	.L1042
	jmp	.L1045
.L1052:
	cmpl	$300, %eax
	je	.L1046
	ja	.L1045
	cmpl	$203, %eax
	jne	.L1045
	jmp	.L1046
.L1047:
	cmpl	$800, %eax
	je	.L1046
	ja	.L1054
	cmpl	$701, %eax
	ja	.L1055
	cmpl	$700, %eax
	jnb	.L1046
	jmp	.L1045
.L1055:
	cmpl	$702, %eax
	je	.L1045
	cmpl	$705, %eax
	ja	.L1045
	jmp	.L1046
.L1054:
	cmpl	$1001, %eax
	je	.L1056
	ja	.L1057
	jmp	.L1045
.L1057:
	cmpl	$1103, %eax
	je	.L1056
	ja	.L1045
	cmpl	$1100, %eax
	jb	.L1045
.L1046:
	.loc 1 536 0
	movl	$-22, %edx
	jmp	.L1042
.L1056:
	.loc 1 536 0 discriminator 7
	movl	$-11, %edx
	jmp	.L1042
.L1045:
	.loc 1 536 0 discriminator 1
	orl	$-1, %edx
	jmp	.L1042
.L1061:
	.loc 1 536 0
	movl	$-14, %edx
.LVL100:
.L1042:
	.loc 1 540 0
	leal	-12(%ebp), %esp
	movl	%edx, %eax
	popl	%ebx
	.cfi_restore 3
	popl	%esi
	.cfi_restore 6
	popl	%edi
	.cfi_restore 7
	popl	%ebp
	.cfi_restore 5
	.cfi_def_cfa 4, 4
	ret
	.cfi_endproc
.LFE61:
	.size	aos_timer_new_ext, .-aos_timer_new_ext
	.section	.text.unlikely.aos_timer_new_ext
.LCOLDE29:
	.section	.text.aos_timer_new_ext
.LHOTE29:
	.section	.text.unlikely.aos_timer_free,"ax",@progbits
.LCOLDB30:
	.section	.text.aos_timer_free,"ax",@progbits
.LHOTB30:
	.globl	aos_timer_free
	.type	aos_timer_free, @function
aos_timer_free:
.LFB62:
	.loc 1 543 0
	.cfi_startproc
.LVL101:
	pushl	%ebp
	.cfi_def_cfa_offset 8
	.cfi_offset 5, -8
	movl	%esp, %ebp
	.cfi_def_cfa_register 5
	pushl	%ebx
	pushl	%eax
	.cfi_offset 3, -12
	.loc 1 543 0
	movl	8(%ebp), %ebx
	.loc 1 544 0
	testl	%ebx, %ebx
	je	.L1126
	.loc 1 548 0
	subl	$12, %esp
	pushl	(%ebx)
	call	krhino_timer_dyn_del
.LVL102:
	.loc 1 549 0
	movl	$0, (%ebx)
	addl	$16, %esp
.L1126:
	.loc 1 550 0
	movl	-4(%ebp), %ebx
	leave
	.cfi_restore 5
	.cfi_restore 3
	.cfi_def_cfa 4, 4
	ret
	.cfi_endproc
.LFE62:
	.size	aos_timer_free, .-aos_timer_free
	.section	.text.unlikely.aos_timer_free
.LCOLDE30:
	.section	.text.aos_timer_free
.LHOTE30:
	.section	.text.unlikely.aos_timer_start,"ax",@progbits
.LCOLDB31:
	.section	.text.aos_timer_start,"ax",@progbits
.LHOTB31:
	.globl	aos_timer_start
	.type	aos_timer_start, @function
aos_timer_start:
.LFB63:
	.loc 1 553 0
	.cfi_startproc
.LVL103:
	pushl	%ebp
	.cfi_def_cfa_offset 8
	.cfi_offset 5, -8
	.loc 1 557 0
	movl	$-22, %eax
	.loc 1 553 0
	movl	%esp, %ebp
	.cfi_def_cfa_register 5
	subl	$8, %esp
	.loc 1 553 0
	movl	8(%ebp), %edx
	.loc 1 556 0
	testl	%edx, %edx
	je	.L1133
	.loc 1 560 0
	subl	$12, %esp
	pushl	(%edx)
	call	krhino_timer_start
.LVL104:
	movl	%eax, %edx
.LVL105:
	.loc 1 561 0
	addl	$16, %esp
	.loc 1 562 0
	xorl	%eax, %eax
.LVL106:
	.loc 1 561 0
	testl	%edx, %edx
	je	.L1133
	.loc 1 565 0
	cmpl	$305, %edx
	je	.L1135
	ja	.L1136
	cmpl	$101, %edx
	ja	.L1137
	cmpl	$100, %edx
	jnb	.L1135
	cmpl	$8, %edx
	ja	.L1138
	cmpl	$7, %edx
	jnb	.L1135
	cmpl	$5, %edx
	je	.L1135
	ja	.L1150
	cmpl	$2, %edx
	je	.L1150
	jmp	.L1134
.L1138:
	cmpl	$9, %edx
	je	.L1134
	.loc 1 565 0
	movl	$-11, %eax
	.loc 1 565 0
	cmpl	$11, %edx
	jmp	.L1213
.L1137:
	cmpl	$202, %edx
	ja	.L1141
	cmpl	$200, %edx
	jnb	.L1134
	cmpl	$102, %edx
	je	.L1150
	.loc 1 565 0
	movl	$-12, %eax
	.loc 1 565 0
	cmpl	$105, %edx
.L1213:
	je	.L1133
	jmp	.L1134
.L1141:
	cmpl	$300, %edx
	je	.L1135
	ja	.L1134
	cmpl	$203, %edx
	jne	.L1134
	jmp	.L1135
.L1136:
	cmpl	$800, %edx
	je	.L1135
	ja	.L1143
	cmpl	$701, %edx
	ja	.L1144
	cmpl	$700, %edx
	jnb	.L1135
	jmp	.L1134
.L1144:
	cmpl	$702, %edx
	je	.L1134
	cmpl	$705, %edx
	ja	.L1134
	jmp	.L1135
.L1143:
	cmpl	$1001, %edx
	je	.L1145
	ja	.L1146
	jmp	.L1134
.L1146:
	cmpl	$1103, %edx
	je	.L1145
	ja	.L1134
	cmpl	$1100, %edx
	jb	.L1134
.L1135:
	.loc 1 565 0
	movl	$-22, %eax
	jmp	.L1133
.L1145:
	.loc 1 565 0 discriminator 7
	movl	$-11, %eax
	jmp	.L1133
.L1134:
	.loc 1 565 0 discriminator 1
	orl	$-1, %eax
	jmp	.L1133
.L1150:
	.loc 1 565 0
	movl	$-14, %eax
.LVL107:
.L1133:
	.loc 1 566 0
	leave
	.cfi_restore 5
	.cfi_def_cfa 4, 4
	ret
	.cfi_endproc
.LFE63:
	.size	aos_timer_start, .-aos_timer_start
	.section	.text.unlikely.aos_timer_start
.LCOLDE31:
	.section	.text.aos_timer_start
.LHOTE31:
	.section	.text.unlikely.aos_timer_stop,"ax",@progbits
.LCOLDB32:
	.section	.text.aos_timer_stop,"ax",@progbits
.LHOTB32:
	.globl	aos_timer_stop
	.type	aos_timer_stop, @function
aos_timer_stop:
.LFB64:
	.loc 1 569 0
	.cfi_startproc
.LVL108:
	pushl	%ebp
	.cfi_def_cfa_offset 8
	.cfi_offset 5, -8
	.loc 1 573 0
	movl	$-22, %eax
	.loc 1 569 0
	movl	%esp, %ebp
	.cfi_def_cfa_register 5
	subl	$8, %esp
	.loc 1 569 0
	movl	8(%ebp), %edx
	.loc 1 572 0
	testl	%edx, %edx
	je	.L1215
	.loc 1 576 0
	subl	$12, %esp
	pushl	(%edx)
	call	krhino_timer_stop
.LVL109:
	movl	%eax, %edx
.LVL110:
	.loc 1 577 0
	addl	$16, %esp
	.loc 1 578 0
	xorl	%eax, %eax
.LVL111:
	.loc 1 577 0
	testl	%edx, %edx
	je	.L1215
	.loc 1 581 0
	cmpl	$305, %edx
	je	.L1217
	ja	.L1218
	cmpl	$101, %edx
	ja	.L1219
	cmpl	$100, %edx
	jnb	.L1217
	cmpl	$8, %edx
	ja	.L1220
	cmpl	$7, %edx
	jnb	.L1217
	cmpl	$5, %edx
	je	.L1217
	ja	.L1232
	cmpl	$2, %edx
	je	.L1232
	jmp	.L1216
.L1220:
	cmpl	$9, %edx
	je	.L1216
	.loc 1 581 0
	movl	$-11, %eax
	.loc 1 581 0
	cmpl	$11, %edx
	jmp	.L1295
.L1219:
	cmpl	$202, %edx
	ja	.L1223
	cmpl	$200, %edx
	jnb	.L1216
	cmpl	$102, %edx
	je	.L1232
	.loc 1 581 0
	movl	$-12, %eax
	.loc 1 581 0
	cmpl	$105, %edx
.L1295:
	je	.L1215
	jmp	.L1216
.L1223:
	cmpl	$300, %edx
	je	.L1217
	ja	.L1216
	cmpl	$203, %edx
	jne	.L1216
	jmp	.L1217
.L1218:
	cmpl	$800, %edx
	je	.L1217
	ja	.L1225
	cmpl	$701, %edx
	ja	.L1226
	cmpl	$700, %edx
	jnb	.L1217
	jmp	.L1216
.L1226:
	cmpl	$702, %edx
	je	.L1216
	cmpl	$705, %edx
	ja	.L1216
	jmp	.L1217
.L1225:
	cmpl	$1001, %edx
	je	.L1227
	ja	.L1228
	jmp	.L1216
.L1228:
	cmpl	$1103, %edx
	je	.L1227
	ja	.L1216
	cmpl	$1100, %edx
	jb	.L1216
.L1217:
	.loc 1 581 0
	movl	$-22, %eax
	jmp	.L1215
.L1227:
	.loc 1 581 0 discriminator 7
	movl	$-11, %eax
	jmp	.L1215
.L1216:
	.loc 1 581 0 discriminator 1
	orl	$-1, %eax
	jmp	.L1215
.L1232:
	.loc 1 581 0
	movl	$-14, %eax
.LVL112:
.L1215:
	.loc 1 582 0
	leave
	.cfi_restore 5
	.cfi_def_cfa 4, 4
	ret
	.cfi_endproc
.LFE64:
	.size	aos_timer_stop, .-aos_timer_stop
	.section	.text.unlikely.aos_timer_stop
.LCOLDE32:
	.section	.text.aos_timer_stop
.LHOTE32:
	.section	.text.unlikely.aos_timer_change,"ax",@progbits
.LCOLDB33:
	.section	.text.aos_timer_change,"ax",@progbits
.LHOTB33:
	.globl	aos_timer_change
	.type	aos_timer_change, @function
aos_timer_change:
.LFB65:
	.loc 1 585 0
	.cfi_startproc
.LVL113:
	pushl	%ebp
	.cfi_def_cfa_offset 8
	.cfi_offset 5, -8
	.loc 1 589 0
	movl	$-22, %eax
	.loc 1 585 0
	movl	%esp, %ebp
	.cfi_def_cfa_register 5
	pushl	%edi
	pushl	%esi
	pushl	%ebx
	subl	$28, %esp
	.cfi_offset 7, -12
	.cfi_offset 6, -16
	.cfi_offset 3, -20
	.loc 1 585 0
	movl	8(%ebp), %ebx
	.loc 1 588 0
	testl	%ebx, %ebx
	je	.L1297
	.loc 1 592 0
	movl	12(%ebp), %esi
	pushl	%eax
	pushl	%eax
	movl	%esi, %edi
	sarl	$31, %edi
	pushl	%edi
	pushl	%esi
	call	krhino_ms_to_ticks
.LVL114:
	movl	%edx, -28(%ebp)
	movl	%eax, -32(%ebp)
	popl	%edx
	popl	%ecx
	pushl	%edi
	pushl	%esi
	call	krhino_ms_to_ticks
.LVL115:
	popl	%esi
	pushl	-28(%ebp)
	pushl	-32(%ebp)
	pushl	%edx
	pushl	%eax
	pushl	(%ebx)
	call	krhino_timer_change
.LVL116:
	movl	%eax, %edx
.LVL117:
	.loc 1 593 0
	addl	$32, %esp
	.loc 1 594 0
	xorl	%eax, %eax
.LVL118:
	.loc 1 593 0
	testl	%edx, %edx
	je	.L1297
	.loc 1 597 0
	cmpl	$305, %edx
	je	.L1299
	ja	.L1300
	cmpl	$101, %edx
	ja	.L1301
	cmpl	$100, %edx
	jnb	.L1299
	cmpl	$8, %edx
	ja	.L1302
	cmpl	$7, %edx
	jnb	.L1299
	cmpl	$5, %edx
	je	.L1299
	ja	.L1314
	cmpl	$2, %edx
	je	.L1314
	jmp	.L1298
.L1302:
	cmpl	$9, %edx
	je	.L1298
	.loc 1 597 0
	movl	$-11, %eax
	.loc 1 597 0
	cmpl	$11, %edx
	jmp	.L1377
.L1301:
	cmpl	$202, %edx
	ja	.L1305
	cmpl	$200, %edx
	jnb	.L1298
	cmpl	$102, %edx
	je	.L1314
	.loc 1 597 0
	movl	$-12, %eax
	.loc 1 597 0
	cmpl	$105, %edx
.L1377:
	je	.L1297
	jmp	.L1298
.L1305:
	cmpl	$300, %edx
	je	.L1299
	ja	.L1298
	cmpl	$203, %edx
	jne	.L1298
	jmp	.L1299
.L1300:
	cmpl	$800, %edx
	je	.L1299
	ja	.L1307
	cmpl	$701, %edx
	ja	.L1308
	cmpl	$700, %edx
	jnb	.L1299
	jmp	.L1298
.L1308:
	cmpl	$702, %edx
	je	.L1298
	cmpl	$705, %edx
	ja	.L1298
	jmp	.L1299
.L1307:
	cmpl	$1001, %edx
	je	.L1309
	ja	.L1310
	jmp	.L1298
.L1310:
	cmpl	$1103, %edx
	je	.L1309
	ja	.L1298
	cmpl	$1100, %edx
	jb	.L1298
.L1299:
	.loc 1 597 0
	movl	$-22, %eax
	jmp	.L1297
.L1309:
	.loc 1 597 0 discriminator 7
	movl	$-11, %eax
	jmp	.L1297
.L1298:
	.loc 1 597 0 discriminator 1
	orl	$-1, %eax
	jmp	.L1297
.L1314:
	.loc 1 597 0
	movl	$-14, %eax
.LVL119:
.L1297:
	.loc 1 598 0
	leal	-12(%ebp), %esp
	popl	%ebx
	.cfi_restore 3
	popl	%esi
	.cfi_restore 6
	popl	%edi
	.cfi_restore 7
	popl	%ebp
	.cfi_restore 5
	.cfi_def_cfa 4, 4
	ret
	.cfi_endproc
.LFE65:
	.size	aos_timer_change, .-aos_timer_change
	.section	.text.unlikely.aos_timer_change
.LCOLDE33:
	.section	.text.aos_timer_change
.LHOTE33:
	.section	.text.unlikely.aos_work_run,"ax",@progbits
.LCOLDB34:
	.section	.text.aos_work_run,"ax",@progbits
.LHOTB34:
	.globl	aos_work_run
	.type	aos_work_run, @function
aos_work_run:
.LFB69:
	.loc 1 687 0
	.cfi_startproc
.LVL120:
	pushl	%ebp
	.cfi_def_cfa_offset 8
	.cfi_offset 5, -8
	movl	%esp, %ebp
	.cfi_def_cfa_register 5
	subl	$8, %esp
	.loc 1 687 0
	movl	8(%ebp), %eax
	movl	12(%ebp), %edx
	.loc 1 690 0
	testl	%eax, %eax
	je	.L1394
	testl	%edx, %edx
	je	.L1394
	.loc 1 694 0
	pushl	%ecx
	pushl	%ecx
	pushl	(%edx)
	pushl	(%eax)
	call	krhino_work_run
.LVL121:
	movl	%eax, %edx
.LVL122:
	.loc 1 695 0
	addl	$16, %esp
	.loc 1 696 0
	xorl	%eax, %eax
.LVL123:
	.loc 1 695 0
	testl	%edx, %edx
	je	.L1379
	.loc 1 699 0
	cmpl	$305, %edx
	je	.L1394
	ja	.L1382
	cmpl	$101, %edx
	ja	.L1383
	cmpl	$100, %edx
	jnb	.L1394
	cmpl	$8, %edx
	ja	.L1384
	cmpl	$7, %edx
	jnb	.L1394
	cmpl	$5, %edx
	je	.L1394
	ja	.L1396
	cmpl	$2, %edx
	je	.L1396
	jmp	.L1380
.L1384:
	cmpl	$9, %edx
	je	.L1380
	.loc 1 699 0
	movl	$-11, %eax
	.loc 1 699 0
	cmpl	$11, %edx
	jmp	.L1459
.L1383:
	cmpl	$202, %edx
	ja	.L1387
	cmpl	$200, %edx
	jnb	.L1380
	cmpl	$102, %edx
	je	.L1396
	.loc 1 699 0
	movl	$-12, %eax
	.loc 1 699 0
	cmpl	$105, %edx
.L1459:
	je	.L1379
	jmp	.L1380
.L1387:
	cmpl	$300, %edx
	je	.L1394
	ja	.L1380
	cmpl	$203, %edx
	jne	.L1380
	jmp	.L1394
.L1382:
	cmpl	$800, %edx
	je	.L1394
	ja	.L1389
	cmpl	$701, %edx
	ja	.L1390
	cmpl	$700, %edx
	jnb	.L1394
	jmp	.L1380
.L1390:
	cmpl	$702, %edx
	je	.L1380
	cmpl	$705, %edx
	ja	.L1380
	jmp	.L1394
.L1389:
	cmpl	$1001, %edx
	je	.L1391
	ja	.L1392
	jmp	.L1380
.L1392:
	cmpl	$1103, %edx
	je	.L1391
	ja	.L1380
	cmpl	$1100, %edx
	jnb	.L1394
	jmp	.L1380
.L1391:
	.loc 1 699 0 discriminator 7
	movl	$-11, %eax
	jmp	.L1379
.L1380:
	.loc 1 699 0 discriminator 1
	orl	$-1, %eax
	jmp	.L1379
.LVL124:
.L1394:
	.loc 1 691 0
	movl	$-22, %eax
	jmp	.L1379
.LVL125:
.L1396:
	.loc 1 699 0
	movl	$-14, %eax
.LVL126:
.L1379:
	.loc 1 700 0
	leave
	.cfi_restore 5
	.cfi_def_cfa 4, 4
	ret
	.cfi_endproc
.LFE69:
	.size	aos_work_run, .-aos_work_run
	.section	.text.unlikely.aos_work_run
.LCOLDE34:
	.section	.text.aos_work_run
.LHOTE34:
	.section	.text.unlikely.aos_work_sched,"ax",@progbits
.LCOLDB35:
	.section	.text.aos_work_sched,"ax",@progbits
.LHOTB35:
	.globl	aos_work_sched
	.type	aos_work_sched, @function
aos_work_sched:
.LFB70:
	.loc 1 703 0
	.cfi_startproc
.LVL127:
	pushl	%ebp
	.cfi_def_cfa_offset 8
	.cfi_offset 5, -8
	.loc 1 707 0
	movl	$-22, %eax
	.loc 1 703 0
	movl	%esp, %ebp
	.cfi_def_cfa_register 5
	subl	$8, %esp
	.loc 1 703 0
	movl	8(%ebp), %edx
	.loc 1 706 0
	testl	%edx, %edx
	je	.L1461
	.loc 1 710 0
	subl	$12, %esp
	pushl	(%edx)
	call	krhino_work_sched
.LVL128:
	movl	%eax, %edx
.LVL129:
	.loc 1 711 0
	addl	$16, %esp
	.loc 1 712 0
	xorl	%eax, %eax
.LVL130:
	.loc 1 711 0
	testl	%edx, %edx
	je	.L1461
	.loc 1 715 0
	cmpl	$305, %edx
	je	.L1463
	ja	.L1464
	cmpl	$101, %edx
	ja	.L1465
	cmpl	$100, %edx
	jnb	.L1463
	cmpl	$8, %edx
	ja	.L1466
	cmpl	$7, %edx
	jnb	.L1463
	cmpl	$5, %edx
	je	.L1463
	ja	.L1478
	cmpl	$2, %edx
	je	.L1478
	jmp	.L1462
.L1466:
	cmpl	$9, %edx
	je	.L1462
	.loc 1 715 0
	movl	$-11, %eax
	.loc 1 715 0
	cmpl	$11, %edx
	jmp	.L1541
.L1465:
	cmpl	$202, %edx
	ja	.L1469
	cmpl	$200, %edx
	jnb	.L1462
	cmpl	$102, %edx
	je	.L1478
	.loc 1 715 0
	movl	$-12, %eax
	.loc 1 715 0
	cmpl	$105, %edx
.L1541:
	je	.L1461
	jmp	.L1462
.L1469:
	cmpl	$300, %edx
	je	.L1463
	ja	.L1462
	cmpl	$203, %edx
	jne	.L1462
	jmp	.L1463
.L1464:
	cmpl	$800, %edx
	je	.L1463
	ja	.L1471
	cmpl	$701, %edx
	ja	.L1472
	cmpl	$700, %edx
	jnb	.L1463
	jmp	.L1462
.L1472:
	cmpl	$702, %edx
	je	.L1462
	cmpl	$705, %edx
	ja	.L1462
	jmp	.L1463
.L1471:
	cmpl	$1001, %edx
	je	.L1473
	ja	.L1474
	jmp	.L1462
.L1474:
	cmpl	$1103, %edx
	je	.L1473
	ja	.L1462
	cmpl	$1100, %edx
	jb	.L1462
.L1463:
	.loc 1 715 0
	movl	$-22, %eax
	jmp	.L1461
.L1473:
	.loc 1 715 0 discriminator 7
	movl	$-11, %eax
	jmp	.L1461
.L1462:
	.loc 1 715 0 discriminator 1
	orl	$-1, %eax
	jmp	.L1461
.L1478:
	.loc 1 715 0
	movl	$-14, %eax
.LVL131:
.L1461:
	.loc 1 716 0
	leave
	.cfi_restore 5
	.cfi_def_cfa 4, 4
	ret
	.cfi_endproc
.LFE70:
	.size	aos_work_sched, .-aos_work_sched
	.section	.text.unlikely.aos_work_sched
.LCOLDE35:
	.section	.text.aos_work_sched
.LHOTE35:
	.section	.text.unlikely.aos_work_cancel,"ax",@progbits
.LCOLDB36:
	.section	.text.aos_work_cancel,"ax",@progbits
.LHOTB36:
	.globl	aos_work_cancel
	.type	aos_work_cancel, @function
aos_work_cancel:
.LFB71:
	.loc 1 719 0
	.cfi_startproc
.LVL132:
	pushl	%ebp
	.cfi_def_cfa_offset 8
	.cfi_offset 5, -8
	movl	$-22, %eax
	movl	%esp, %ebp
	.cfi_def_cfa_register 5
	subl	$8, %esp
	.loc 1 719 0
	movl	8(%ebp), %edx
	.loc 1 722 0
	testl	%edx, %edx
	je	.L1543
	.loc 1 726 0
	subl	$12, %esp
	pushl	(%edx)
	call	krhino_work_cancel
.LVL133:
	.loc 1 727 0
	addl	$16, %esp
	.loc 1 731 0
	cmpl	$1, %eax
	sbbl	%eax, %eax
.LVL134:
	notl	%eax
	andl	$-16, %eax
.L1543:
	.loc 1 732 0
	leave
	.cfi_restore 5
	.cfi_def_cfa 4, 4
	ret
	.cfi_endproc
.LFE71:
	.size	aos_work_cancel, .-aos_work_cancel
	.section	.text.unlikely.aos_work_cancel
.LCOLDE36:
	.section	.text.aos_work_cancel
.LHOTE36:
	.section	.text.unlikely.aos_zalloc,"ax",@progbits
.LCOLDB37:
	.section	.text.aos_zalloc,"ax",@progbits
.LHOTB37:
	.globl	aos_zalloc
	.type	aos_zalloc, @function
aos_zalloc:
.LFB72:
	.loc 1 737 0
	.cfi_startproc
.LVL135:
	pushl	%ebp
	.cfi_def_cfa_offset 8
	.cfi_offset 5, -8
	.loc 1 740 0
	xorl	%eax, %eax
	.loc 1 737 0
	movl	%esp, %ebp
	.cfi_def_cfa_register 5
	pushl	%edi
	pushl	%esi
	pushl	%ebx
	subl	$12, %esp
	.cfi_offset 7, -12
	.cfi_offset 6, -16
	.cfi_offset 3, -20
	.loc 1 737 0
	movl	8(%ebp), %esi
	.loc 1 739 0
	testl	%esi, %esi
	je	.L1549
	.loc 1 744 0
	js	.L1550
	.loc 1 745 0
	movl	%esi, %eax
	subl	$12, %esp
	orl	$-2147483648, %eax
	pushl	%eax
	call	krhino_mm_alloc
.LVL136:
	.loc 1 751 0
	addl	$12, %esp
	pushl	4(%ebp)
	.loc 1 745 0
	movl	%eax, %ebx
.LVL137:
	.loc 1 751 0
	pushl	%eax
	pushl	g_kmm_head
	call	krhino_owner_attach
.LVL138:
	jmp	.L1555
.LVL139:
.L1550:
	.loc 1 755 0
	subl	$12, %esp
	pushl	%esi
	call	krhino_mm_alloc
.LVL140:
	movl	%eax, %ebx
.LVL141:
.L1555:
	addl	$16, %esp
	xorl	%eax, %eax
	.loc 1 762 0
	testl	%ebx, %ebx
	je	.L1549
	.loc 1 763 0
	movl	%ebx, %edi
	movl	%esi, %ecx
	rep stosb
	movl	%ebx, %eax
.LVL142:
.L1549:
	.loc 1 767 0
	leal	-12(%ebp), %esp
	popl	%ebx
	.cfi_restore 3
	popl	%esi
	.cfi_restore 6
	popl	%edi
	.cfi_restore 7
	popl	%ebp
	.cfi_restore 5
	.cfi_def_cfa 4, 4
	ret
	.cfi_endproc
.LFE72:
	.size	aos_zalloc, .-aos_zalloc
	.section	.text.unlikely.aos_zalloc
.LCOLDE37:
	.section	.text.aos_zalloc
.LHOTE37:
	.section	.text.unlikely.aos_malloc,"ax",@progbits
.LCOLDB38:
	.section	.text.aos_malloc,"ax",@progbits
.LHOTB38:
	.globl	aos_malloc
	.type	aos_malloc, @function
aos_malloc:
.LFB73:
	.loc 1 770 0
	.cfi_startproc
.LVL143:
	pushl	%ebp
	.cfi_def_cfa_offset 8
	.cfi_offset 5, -8
	movl	%esp, %ebp
	.cfi_def_cfa_register 5
	pushl	%ebx
	pushl	%eax
	.cfi_offset 3, -12
	.loc 1 770 0
	movl	8(%ebp), %eax
	.loc 1 773 0
	testl	%eax, %eax
	je	.L1559
	.loc 1 778 0
	js	.L1558
.LVL144:
.LBB4:
.LBB5:
	.loc 1 779 0
	subl	$12, %esp
	orl	$-2147483648, %eax
.LVL145:
	pushl	%eax
	call	krhino_mm_alloc
.LVL146:
	.loc 1 785 0
	addl	$12, %esp
	pushl	4(%ebp)
	.loc 1 779 0
	movl	%eax, %ebx
.LVL147:
	.loc 1 785 0
	pushl	%eax
	pushl	g_kmm_head
	call	krhino_owner_attach
.LVL148:
	addl	$16, %esp
	movl	%ebx, %eax
	jmp	.L1557
.L1558:
.LBE5:
.LBE4:
	.loc 1 789 0
	movl	%eax, 8(%ebp)
.LVL149:
	.loc 1 797 0
	movl	-4(%ebp), %ebx
	leave
	.cfi_remember_state
	.cfi_restore 5
	.cfi_restore 3
	.cfi_def_cfa 4, 4
	.loc 1 789 0
	jmp	krhino_mm_alloc
.LVL150:
.L1559:
	.cfi_restore_state
	.loc 1 774 0
	xorl	%eax, %eax
.L1557:
	.loc 1 797 0
	movl	-4(%ebp), %ebx
	leave
	.cfi_restore 5
	.cfi_restore 3
	.cfi_def_cfa 4, 4
	ret
	.cfi_endproc
.LFE73:
	.size	aos_malloc, .-aos_malloc
	.section	.text.unlikely.aos_malloc
.LCOLDE38:
	.section	.text.aos_malloc
.LHOTE38:
	.section	.text.unlikely.aos_realloc,"ax",@progbits
.LCOLDB39:
	.section	.text.aos_realloc,"ax",@progbits
.LHOTB39:
	.globl	aos_realloc
	.type	aos_realloc, @function
aos_realloc:
.LFB74:
	.loc 1 800 0
	.cfi_startproc
.LVL151:
	pushl	%ebp
	.cfi_def_cfa_offset 8
	.cfi_offset 5, -8
	movl	%esp, %ebp
	.cfi_def_cfa_register 5
	subl	$24, %esp
	.loc 1 800 0
	movl	12(%ebp), %eax
	movl	8(%ebp), %edx
	.loc 1 804 0
	testl	%eax, %eax
	jns	.L1565
	.loc 1 823 0
	leave
	.cfi_remember_state
	.cfi_restore 5
	.cfi_def_cfa 4, 4
	.loc 1 815 0
	jmp	krhino_mm_realloc
.LVL152:
.L1565:
	.cfi_restore_state
	.loc 1 805 0
	orl	$-2147483648, %eax
	pushl	%ecx
	pushl	%ecx
	pushl	%eax
	pushl	%edx
	call	krhino_mm_realloc
.LVL153:
	.loc 1 811 0
	addl	$12, %esp
	pushl	4(%ebp)
	movl	%eax, -12(%ebp)
	pushl	%eax
	pushl	g_kmm_head
	call	krhino_owner_attach
.LVL154:
	movl	-12(%ebp), %eax
.LVL155:
	addl	$16, %esp
	.loc 1 823 0
	leave
	.cfi_restore 5
	.cfi_def_cfa 4, 4
	ret
	.cfi_endproc
.LFE74:
	.size	aos_realloc, .-aos_realloc
	.section	.text.unlikely.aos_realloc
.LCOLDE39:
	.section	.text.aos_realloc
.LHOTE39:
	.section	.text.unlikely.aos_alloc_trace,"ax",@progbits
.LCOLDB40:
	.section	.text.aos_alloc_trace,"ax",@progbits
.LHOTB40:
	.globl	aos_alloc_trace
	.type	aos_alloc_trace, @function
aos_alloc_trace:
.LFB75:
	.loc 1 826 0
	.cfi_startproc
.LVL156:
	pushl	%ebp
	.cfi_def_cfa_offset 8
	.cfi_offset 5, -8
	movl	%esp, %ebp
	.cfi_def_cfa_register 5
	subl	$12, %esp
	.loc 1 828 0
	pushl	12(%ebp)
	pushl	8(%ebp)
	pushl	g_kmm_head
	call	krhino_owner_attach
.LVL157:
	.loc 1 830 0
	addl	$16, %esp
	leave
	.cfi_restore 5
	.cfi_def_cfa 4, 4
	ret
	.cfi_endproc
.LFE75:
	.size	aos_alloc_trace, .-aos_alloc_trace
	.section	.text.unlikely.aos_alloc_trace
.LCOLDE40:
	.section	.text.aos_alloc_trace
.LHOTE40:
	.section	.text.unlikely.aos_free,"ax",@progbits
.LCOLDB41:
	.section	.text.aos_free,"ax",@progbits
.LHOTB41:
	.globl	aos_free
	.type	aos_free, @function
aos_free:
.LFB76:
	.loc 1 833 0
	.cfi_startproc
.LVL158:
	pushl	%ebp
	.cfi_def_cfa_offset 8
	.cfi_offset 5, -8
	movl	%esp, %ebp
	.cfi_def_cfa_register 5
	.loc 1 833 0
	movl	8(%ebp), %eax
	.loc 1 834 0
	testl	%eax, %eax
	je	.L1569
	.loc 1 839 0
	popl	%ebp
	.cfi_remember_state
	.cfi_restore 5
	.cfi_def_cfa 4, 4
	.loc 1 838 0
	jmp	krhino_mm_free
.LVL159:
.L1569:
	.cfi_restore_state
	.loc 1 839 0
	popl	%ebp
	.cfi_restore 5
	.cfi_def_cfa 4, 4
	ret
	.cfi_endproc
.LFE76:
	.size	aos_free, .-aos_free
	.section	.text.unlikely.aos_free
.LCOLDE41:
	.section	.text.aos_free
.LHOTE41:
	.section	.text.unlikely.aos_mutex_new,"ax",@progbits
.LCOLDB42:
	.section	.text.aos_mutex_new,"ax",@progbits
.LHOTB42:
	.globl	aos_mutex_new
	.type	aos_mutex_new, @function
aos_mutex_new:
.LFB39:
	.loc 1 126 0
	.cfi_startproc
.LVL160:
	pushl	%ebp
	.cfi_def_cfa_offset 8
	.cfi_offset 5, -8
	.loc 1 131 0
	movl	$-22, %eax
	.loc 1 126 0
	movl	%esp, %ebp
	.cfi_def_cfa_register 5
	pushl	%edi
	pushl	%esi
	pushl	%ebx
	subl	$12, %esp
	.cfi_offset 7, -12
	.cfi_offset 6, -16
	.cfi_offset 3, -20
	.loc 1 126 0
	movl	8(%ebp), %esi
	.loc 1 130 0
	testl	%esi, %esi
	je	.L1573
	.loc 1 134 0
	subl	$12, %esp
	pushl	$44
	call	aos_malloc
.LVL161:
	movl	%eax, %edi
.LVL162:
	.loc 1 135 0
	addl	$16, %esp
	.loc 1 136 0
	movl	$-12, %eax
.LVL163:
	.loc 1 135 0
	testl	%edi, %edi
	je	.L1573
	.loc 1 139 0
	pushl	%eax
	pushl	%eax
	pushl	$.LC17
	pushl	%edi
	call	krhino_mutex_create
.LVL164:
	.loc 1 140 0
	addl	$16, %esp
	testl	%eax, %eax
	.loc 1 139 0
	movl	%eax, %ebx
.LVL165:
	.loc 1 140 0
	je	.L1574
	.loc 1 141 0
	subl	$12, %esp
	pushl	%edi
	call	aos_free
.LVL166:
	.loc 1 142 0
	addl	$16, %esp
	cmpl	$305, %ebx
	je	.L1576
	ja	.L1577
	cmpl	$101, %ebx
	ja	.L1578
	cmpl	$100, %ebx
	jnb	.L1576
	cmpl	$8, %ebx
	ja	.L1579
	cmpl	$7, %ebx
	jnb	.L1576
	cmpl	$5, %ebx
	je	.L1576
	ja	.L1591
	cmpl	$2, %ebx
	je	.L1591
	jmp	.L1575
.L1579:
	cmpl	$9, %ebx
	je	.L1575
	.loc 1 142 0
	movl	$-11, %eax
	.loc 1 142 0
	cmpl	$11, %ebx
	jmp	.L1653
.L1578:
	cmpl	$202, %ebx
	ja	.L1582
	cmpl	$200, %ebx
	jnb	.L1575
	cmpl	$102, %ebx
	je	.L1591
	.loc 1 142 0
	movl	$-12, %eax
	.loc 1 142 0
	cmpl	$105, %ebx
.L1653:
	je	.L1573
	jmp	.L1575
.L1582:
	cmpl	$300, %ebx
	je	.L1576
	ja	.L1575
	cmpl	$203, %ebx
	jne	.L1575
	jmp	.L1576
.L1577:
	cmpl	$800, %ebx
	je	.L1576
	ja	.L1584
	cmpl	$701, %ebx
	ja	.L1585
	cmpl	$700, %ebx
	jnb	.L1576
	jmp	.L1575
.L1585:
	cmpl	$702, %ebx
	je	.L1575
	cmpl	$705, %ebx
	ja	.L1575
	jmp	.L1576
.L1584:
	cmpl	$1001, %ebx
	je	.L1586
	ja	.L1587
	jmp	.L1575
.L1587:
	cmpl	$1103, %ebx
	je	.L1586
	ja	.L1575
	cmpl	$1100, %ebx
	jb	.L1575
.L1576:
	.loc 1 142 0
	movl	$-22, %eax
	jmp	.L1573
.L1586:
	.loc 1 142 0 discriminator 7
	movl	$-11, %eax
	jmp	.L1573
.L1575:
	.loc 1 142 0 discriminator 1
	orl	$-1, %eax
	jmp	.L1573
.LVL167:
.L1574:
	.loc 1 145 0
	movl	%edi, (%esi)
	.loc 1 147 0
	xorl	%eax, %eax
.LVL168:
	jmp	.L1573
.L1591:
	.loc 1 142 0
	movl	$-14, %eax
.LVL169:
.L1573:
	.loc 1 148 0
	leal	-12(%ebp), %esp
	popl	%ebx
	.cfi_restore 3
	popl	%esi
	.cfi_restore 6
	popl	%edi
	.cfi_restore 7
	popl	%ebp
	.cfi_restore 5
	.cfi_def_cfa 4, 4
	ret
	.cfi_endproc
.LFE39:
	.size	aos_mutex_new, .-aos_mutex_new
	.section	.text.unlikely.aos_mutex_new
.LCOLDE42:
	.section	.text.aos_mutex_new
.LHOTE42:
	.section	.text.unlikely.aos_mutex_free,"ax",@progbits
.LCOLDB43:
	.section	.text.aos_mutex_free,"ax",@progbits
.LHOTB43:
	.globl	aos_mutex_free
	.type	aos_mutex_free, @function
aos_mutex_free:
.LFB40:
	.loc 1 151 0
	.cfi_startproc
.LVL170:
	pushl	%ebp
	.cfi_def_cfa_offset 8
	.cfi_offset 5, -8
	movl	%esp, %ebp
	.cfi_def_cfa_register 5
	pushl	%ebx
	pushl	%edx
	.cfi_offset 3, -12
	.loc 1 151 0
	movl	8(%ebp), %ebx
	.loc 1 152 0
	testl	%ebx, %ebx
	je	.L1654
	.loc 1 156 0
	subl	$12, %esp
	pushl	(%ebx)
	call	krhino_mutex_del
.LVL171:
	.loc 1 158 0
	popl	%eax
	pushl	(%ebx)
	call	aos_free
.LVL172:
	.loc 1 160 0
	movl	$0, (%ebx)
	addl	$16, %esp
.L1654:
	.loc 1 161 0
	movl	-4(%ebp), %ebx
	leave
	.cfi_restore 5
	.cfi_restore 3
	.cfi_def_cfa 4, 4
	ret
	.cfi_endproc
.LFE40:
	.size	aos_mutex_free, .-aos_mutex_free
	.section	.text.unlikely.aos_mutex_free
.LCOLDE43:
	.section	.text.aos_mutex_free
.LHOTE43:
	.section	.text.unlikely.aos_sem_new,"ax",@progbits
.LCOLDB44:
	.section	.text.aos_sem_new,"ax",@progbits
.LHOTB44:
	.globl	aos_sem_new
	.type	aos_sem_new, @function
aos_sem_new:
.LFB44:
	.loc 1 230 0
	.cfi_startproc
.LVL173:
	pushl	%ebp
	.cfi_def_cfa_offset 8
	.cfi_offset 5, -8
	.loc 1 235 0
	movl	$-22, %eax
	.loc 1 230 0
	movl	%esp, %ebp
	.cfi_def_cfa_register 5
	pushl	%edi
	pushl	%esi
	pushl	%ebx
	subl	$12, %esp
	.cfi_offset 7, -12
	.cfi_offset 6, -16
	.cfi_offset 3, -20
	.loc 1 230 0
	movl	8(%ebp), %esi
	.loc 1 234 0
	testl	%esi, %esi
	je	.L1661
	.loc 1 238 0
	subl	$12, %esp
	pushl	$40
	call	aos_malloc
.LVL174:
	movl	%eax, %edi
.LVL175:
	.loc 1 239 0
	addl	$16, %esp
	.loc 1 240 0
	movl	$-12, %eax
.LVL176:
	.loc 1 239 0
	testl	%edi, %edi
	je	.L1661
	.loc 1 243 0
	pushl	%eax
	pushl	12(%ebp)
	pushl	$.LC17
	pushl	%edi
	call	krhino_sem_create
.LVL177:
	.loc 1 244 0
	addl	$16, %esp
	testl	%eax, %eax
	.loc 1 243 0
	movl	%eax, %ebx
.LVL178:
	.loc 1 244 0
	je	.L1662
	.loc 1 245 0
	subl	$12, %esp
	pushl	%edi
	call	aos_free
.LVL179:
	.loc 1 246 0
	addl	$16, %esp
	cmpl	$305, %ebx
	je	.L1664
	ja	.L1665
	cmpl	$101, %ebx
	ja	.L1666
	cmpl	$100, %ebx
	jnb	.L1664
	cmpl	$8, %ebx
	ja	.L1667
	cmpl	$7, %ebx
	jnb	.L1664
	cmpl	$5, %ebx
	je	.L1664
	ja	.L1679
	cmpl	$2, %ebx
	je	.L1679
	jmp	.L1663
.L1667:
	cmpl	$9, %ebx
	je	.L1663
	.loc 1 246 0
	movl	$-11, %eax
	.loc 1 246 0
	cmpl	$11, %ebx
	jmp	.L1741
.L1666:
	cmpl	$202, %ebx
	ja	.L1670
	cmpl	$200, %ebx
	jnb	.L1663
	cmpl	$102, %ebx
	je	.L1679
	.loc 1 246 0
	movl	$-12, %eax
	.loc 1 246 0
	cmpl	$105, %ebx
.L1741:
	je	.L1661
	jmp	.L1663
.L1670:
	cmpl	$300, %ebx
	je	.L1664
	ja	.L1663
	cmpl	$203, %ebx
	jne	.L1663
	jmp	.L1664
.L1665:
	cmpl	$800, %ebx
	je	.L1664
	ja	.L1672
	cmpl	$701, %ebx
	ja	.L1673
	cmpl	$700, %ebx
	jnb	.L1664
	jmp	.L1663
.L1673:
	cmpl	$702, %ebx
	je	.L1663
	cmpl	$705, %ebx
	ja	.L1663
	jmp	.L1664
.L1672:
	cmpl	$1001, %ebx
	je	.L1674
	ja	.L1675
	jmp	.L1663
.L1675:
	cmpl	$1103, %ebx
	je	.L1674
	ja	.L1663
	cmpl	$1100, %ebx
	jb	.L1663
.L1664:
	.loc 1 246 0
	movl	$-22, %eax
	jmp	.L1661
.L1674:
	.loc 1 246 0 discriminator 7
	movl	$-11, %eax
	jmp	.L1661
.L1663:
	.loc 1 246 0 discriminator 1
	orl	$-1, %eax
	jmp	.L1661
.LVL180:
.L1662:
	.loc 1 249 0
	movl	%edi, (%esi)
	.loc 1 251 0
	xorl	%eax, %eax
.LVL181:
	jmp	.L1661
.L1679:
	.loc 1 246 0
	movl	$-14, %eax
.LVL182:
.L1661:
	.loc 1 252 0
	leal	-12(%ebp), %esp
	popl	%ebx
	.cfi_restore 3
	popl	%esi
	.cfi_restore 6
	popl	%edi
	.cfi_restore 7
	popl	%ebp
	.cfi_restore 5
	.cfi_def_cfa 4, 4
	ret
	.cfi_endproc
.LFE44:
	.size	aos_sem_new, .-aos_sem_new
	.section	.text.unlikely.aos_sem_new
.LCOLDE44:
	.section	.text.aos_sem_new
.LHOTE44:
	.section	.text.unlikely.aos_sem_free,"ax",@progbits
.LCOLDB45:
	.section	.text.aos_sem_free,"ax",@progbits
.LHOTB45:
	.globl	aos_sem_free
	.type	aos_sem_free, @function
aos_sem_free:
.LFB45:
	.loc 1 255 0
	.cfi_startproc
.LVL183:
	pushl	%ebp
	.cfi_def_cfa_offset 8
	.cfi_offset 5, -8
	movl	%esp, %ebp
	.cfi_def_cfa_register 5
	pushl	%ebx
	pushl	%edx
	.cfi_offset 3, -12
	.loc 1 255 0
	movl	8(%ebp), %ebx
	.loc 1 256 0
	testl	%ebx, %ebx
	je	.L1742
	.loc 1 260 0
	subl	$12, %esp
	pushl	(%ebx)
	call	krhino_sem_del
.LVL184:
	.loc 1 262 0
	popl	%eax
	pushl	(%ebx)
	call	aos_free
.LVL185:
	.loc 1 264 0
	movl	$0, (%ebx)
	addl	$16, %esp
.L1742:
	.loc 1 265 0
	movl	-4(%ebp), %ebx
	leave
	.cfi_restore 5
	.cfi_restore 3
	.cfi_def_cfa 4, 4
	ret
	.cfi_endproc
.LFE45:
	.size	aos_sem_free, .-aos_sem_free
	.section	.text.unlikely.aos_sem_free
.LCOLDE45:
	.section	.text.aos_sem_free
.LHOTE45:
	.section	.text.unlikely.aos_queue_new,"ax",@progbits
.LCOLDB46:
	.section	.text.aos_queue_new,"ax",@progbits
.LHOTB46:
	.globl	aos_queue_new
	.type	aos_queue_new, @function
aos_queue_new:
.LFB54:
	.loc 1 398 0
	.cfi_startproc
.LVL186:
	pushl	%ebp
	.cfi_def_cfa_offset 8
	.cfi_offset 5, -8
	movl	%esp, %ebp
	.cfi_def_cfa_register 5
	pushl	%edi
	pushl	%esi
	pushl	%ebx
	subl	$12, %esp
	.cfi_offset 7, -12
	.cfi_offset 6, -16
	.cfi_offset 3, -20
	.loc 1 398 0
	movl	8(%ebp), %esi
	movl	12(%ebp), %ebx
	.loc 1 402 0
	testl	%esi, %esi
	je	.L1765
	testl	%ebx, %ebx
	je	.L1765
	.loc 1 406 0
	subl	$12, %esp
	pushl	$80
	call	aos_malloc
.LVL187:
	movl	%eax, %edi
.LVL188:
	.loc 1 407 0
	addl	$16, %esp
	.loc 1 408 0
	movl	$-12, %eax
.LVL189:
	.loc 1 407 0
	testl	%edi, %edi
	je	.L1749
	.loc 1 411 0
	subl	$12, %esp
	pushl	20(%ebp)
	pushl	16(%ebp)
	pushl	%ebx
	pushl	$.LC17
	pushl	%edi
	call	krhino_buf_queue_create
.LVL190:
	.loc 1 412 0
	addl	$32, %esp
	testl	%eax, %eax
	.loc 1 411 0
	movl	%eax, %ebx
.LVL191:
	.loc 1 412 0
	je	.L1750
	.loc 1 413 0
	subl	$12, %esp
	pushl	%edi
	call	aos_free
.LVL192:
	.loc 1 414 0
	addl	$16, %esp
	cmpl	$305, %ebx
	je	.L1765
	ja	.L1753
	cmpl	$101, %ebx
	ja	.L1754
	cmpl	$100, %ebx
	jnb	.L1765
	cmpl	$8, %ebx
	ja	.L1755
	cmpl	$7, %ebx
	jnb	.L1765
	cmpl	$5, %ebx
	je	.L1765
	ja	.L1767
	cmpl	$2, %ebx
	je	.L1767
	jmp	.L1751
.L1755:
	cmpl	$9, %ebx
	je	.L1751
	.loc 1 414 0
	movl	$-11, %eax
	.loc 1 414 0
	cmpl	$11, %ebx
	jmp	.L1829
.L1754:
	cmpl	$202, %ebx
	ja	.L1758
	cmpl	$200, %ebx
	jnb	.L1751
	cmpl	$102, %ebx
	je	.L1767
	.loc 1 414 0
	movl	$-12, %eax
	.loc 1 414 0
	cmpl	$105, %ebx
.L1829:
	je	.L1749
	jmp	.L1751
.L1758:
	cmpl	$300, %ebx
	je	.L1765
	ja	.L1751
	cmpl	$203, %ebx
	jne	.L1751
	jmp	.L1765
.L1753:
	cmpl	$800, %ebx
	je	.L1765
	ja	.L1760
	cmpl	$701, %ebx
	ja	.L1761
	cmpl	$700, %ebx
	jnb	.L1765
	jmp	.L1751
.L1761:
	cmpl	$702, %ebx
	je	.L1751
	cmpl	$705, %ebx
	ja	.L1751
	jmp	.L1765
.L1760:
	cmpl	$1001, %ebx
	je	.L1762
	ja	.L1763
	jmp	.L1751
.L1763:
	cmpl	$1103, %ebx
	je	.L1762
	ja	.L1751
	cmpl	$1100, %ebx
	jnb	.L1765
	jmp	.L1751
.L1762:
	.loc 1 414 0 discriminator 7
	movl	$-11, %eax
	jmp	.L1749
.L1751:
	.loc 1 414 0 discriminator 1
	orl	$-1, %eax
	jmp	.L1749
.LVL193:
.L1750:
	.loc 1 417 0
	movl	%edi, (%esi)
	.loc 1 419 0
	xorl	%eax, %eax
.LVL194:
	jmp	.L1749
.LVL195:
.L1765:
	.loc 1 403 0
	movl	$-22, %eax
	jmp	.L1749
.LVL196:
.L1767:
	.loc 1 414 0
	movl	$-14, %eax
.LVL197:
.L1749:
	.loc 1 420 0
	leal	-12(%ebp), %esp
	popl	%ebx
	.cfi_restore 3
	popl	%esi
	.cfi_restore 6
	popl	%edi
	.cfi_restore 7
	popl	%ebp
	.cfi_restore 5
	.cfi_def_cfa 4, 4
	ret
	.cfi_endproc
.LFE54:
	.size	aos_queue_new, .-aos_queue_new
	.section	.text.unlikely.aos_queue_new
.LCOLDE46:
	.section	.text.aos_queue_new
.LHOTE46:
	.section	.text.unlikely.aos_queue_free,"ax",@progbits
.LCOLDB47:
	.section	.text.aos_queue_free,"ax",@progbits
.LHOTB47:
	.globl	aos_queue_free
	.type	aos_queue_free, @function
aos_queue_free:
.LFB55:
	.loc 1 423 0
	.cfi_startproc
.LVL198:
	pushl	%ebp
	.cfi_def_cfa_offset 8
	.cfi_offset 5, -8
	movl	%esp, %ebp
	.cfi_def_cfa_register 5
	pushl	%ebx
	pushl	%edx
	.cfi_offset 3, -12
	.loc 1 423 0
	movl	8(%ebp), %ebx
	.loc 1 424 0
	testl	%ebx, %ebx
	je	.L1830
	.loc 1 428 0
	subl	$12, %esp
	pushl	(%ebx)
	call	krhino_buf_queue_del
.LVL199:
	.loc 1 430 0
	popl	%eax
	pushl	(%ebx)
	call	aos_free
.LVL200:
	.loc 1 432 0
	movl	$0, (%ebx)
	addl	$16, %esp
.L1830:
	.loc 1 433 0
	movl	-4(%ebp), %ebx
	leave
	.cfi_restore 5
	.cfi_restore 3
	.cfi_def_cfa 4, 4
	ret
	.cfi_endproc
.LFE55:
	.size	aos_queue_free, .-aos_queue_free
	.section	.text.unlikely.aos_queue_free
.LCOLDE47:
	.section	.text.aos_queue_free
.LHOTE47:
	.section	.text.unlikely.aos_workqueue_create,"ax",@progbits
.LCOLDB48:
	.section	.text.aos_workqueue_create,"ax",@progbits
.LHOTB48:
	.globl	aos_workqueue_create
	.type	aos_workqueue_create, @function
aos_workqueue_create:
.LFB66:
	.loc 1 603 0
	.cfi_startproc
.LVL201:
	pushl	%ebp
	.cfi_def_cfa_offset 8
	.cfi_offset 5, -8
	.loc 1 610 0
	movl	$-22, %eax
	.loc 1 603 0
	movl	%esp, %ebp
	.cfi_def_cfa_register 5
	pushl	%edi
	pushl	%esi
	pushl	%ebx
	subl	$28, %esp
	.cfi_offset 7, -12
	.cfi_offset 6, -16
	.cfi_offset 3, -20
	.loc 1 603 0
	movl	8(%ebp), %esi
	movl	16(%ebp), %ebx
	.loc 1 609 0
	testl	%esi, %esi
	je	.L1837
	.loc 1 613 0
	cmpl	$3, %ebx
	jbe	.L1837
	.loc 1 617 0
	subl	$12, %esp
	pushl	%ebx
	call	aos_malloc
.LVL202:
	movl	%eax, %edi
.LVL203:
	.loc 1 618 0
	addl	$16, %esp
	.loc 1 619 0
	movl	$-12, %eax
.LVL204:
	.loc 1 618 0
	testl	%edi, %edi
	je	.L1837
	.loc 1 622 0
	subl	$12, %esp
	pushl	$188
	call	aos_malloc
.LVL205:
	.loc 1 623 0
	addl	$16, %esp
	testl	%eax, %eax
	.loc 1 622 0
	movl	%eax, %edx
.LVL206:
	.loc 1 623 0
	jne	.L1838
	.loc 1 624 0
	subl	$12, %esp
	pushl	%edi
	call	aos_free
.LVL207:
	.loc 1 625 0
	addl	$16, %esp
	movl	$-12, %eax
	jmp	.L1837
.LVL208:
.L1838:
	.loc 1 628 0
	movzbl	12(%ebp), %eax
.LVL209:
	subl	$12, %esp
	shrl	$2, %ebx
	pushl	%ebx
	pushl	%edi
	movl	%edx, -28(%ebp)
	pushl	%eax
	pushl	$.LC17
	pushl	%edx
	call	krhino_workqueue_create
.LVL210:
	.loc 1 630 0
	addl	$32, %esp
	testl	%eax, %eax
	.loc 1 628 0
	movl	%eax, %ebx
.LVL211:
	.loc 1 630 0
	movl	-28(%ebp), %edx
	je	.L1839
	.loc 1 631 0
	subl	$12, %esp
	pushl	%edx
	call	aos_free
.LVL212:
	.loc 1 632 0
	movl	%edi, (%esp)
	call	aos_free
.LVL213:
	.loc 1 633 0
	addl	$16, %esp
	cmpl	$305, %ebx
	je	.L1841
	ja	.L1842
	cmpl	$101, %ebx
	ja	.L1843
	cmpl	$100, %ebx
	jnb	.L1841
	cmpl	$8, %ebx
	ja	.L1844
	cmpl	$7, %ebx
	jnb	.L1841
	cmpl	$5, %ebx
	je	.L1841
	ja	.L1857
	cmpl	$2, %ebx
	je	.L1857
	jmp	.L1840
.L1844:
	cmpl	$9, %ebx
	je	.L1840
	.loc 1 633 0
	movl	$-11, %eax
	.loc 1 633 0
	cmpl	$11, %ebx
	jmp	.L1919
.L1843:
	cmpl	$202, %ebx
	ja	.L1847
	cmpl	$200, %ebx
	jnb	.L1840
	cmpl	$102, %ebx
	je	.L1857
	.loc 1 633 0
	movl	$-12, %eax
	.loc 1 633 0
	cmpl	$105, %ebx
.L1919:
	je	.L1837
	jmp	.L1840
.L1847:
	cmpl	$300, %ebx
	je	.L1841
	ja	.L1840
	cmpl	$203, %ebx
	jne	.L1840
	jmp	.L1841
.L1842:
	cmpl	$800, %ebx
	je	.L1841
	ja	.L1849
	cmpl	$701, %ebx
	ja	.L1850
	cmpl	$700, %ebx
	jnb	.L1841
	jmp	.L1840
.L1850:
	cmpl	$702, %ebx
	je	.L1840
	cmpl	$705, %ebx
	ja	.L1840
	jmp	.L1841
.L1849:
	cmpl	$1001, %ebx
	je	.L1851
	ja	.L1852
	jmp	.L1840
.L1852:
	cmpl	$1103, %ebx
	je	.L1851
	ja	.L1840
	cmpl	$1100, %ebx
	jb	.L1840
.L1841:
	.loc 1 633 0
	movl	$-22, %eax
	jmp	.L1837
.L1851:
	.loc 1 633 0 discriminator 7
	movl	$-11, %eax
	jmp	.L1837
.L1840:
	.loc 1 633 0 discriminator 1
	orl	$-1, %eax
	jmp	.L1837
.LVL214:
.L1839:
	.loc 1 636 0
	movl	%edx, (%esi)
	.loc 1 637 0
	movl	%edi, 4(%esi)
	.loc 1 639 0
	xorl	%eax, %eax
.LVL215:
	jmp	.L1837
.L1857:
	.loc 1 633 0
	movl	$-14, %eax
.LVL216:
.L1837:
	.loc 1 640 0
	leal	-12(%ebp), %esp
	popl	%ebx
	.cfi_restore 3
	popl	%esi
	.cfi_restore 6
	popl	%edi
	.cfi_restore 7
	popl	%ebp
	.cfi_restore 5
	.cfi_def_cfa 4, 4
	ret
	.cfi_endproc
.LFE66:
	.size	aos_workqueue_create, .-aos_workqueue_create
	.section	.text.unlikely.aos_workqueue_create
.LCOLDE48:
	.section	.text.aos_workqueue_create
.LHOTE48:
	.section	.text.unlikely.aos_work_init,"ax",@progbits
.LCOLDB49:
	.section	.text.aos_work_init,"ax",@progbits
.LHOTB49:
	.globl	aos_work_init
	.type	aos_work_init, @function
aos_work_init:
.LFB67:
	.loc 1 643 0
	.cfi_startproc
.LVL217:
	pushl	%ebp
	.cfi_def_cfa_offset 8
	.cfi_offset 5, -8
	.loc 1 648 0
	movl	$-22, %eax
	.loc 1 643 0
	movl	%esp, %ebp
	.cfi_def_cfa_register 5
	pushl	%edi
	pushl	%esi
	pushl	%ebx
	subl	$12, %esp
	.cfi_offset 7, -12
	.cfi_offset 6, -16
	.cfi_offset 3, -20
	.loc 1 643 0
	movl	8(%ebp), %esi
	.loc 1 647 0
	testl	%esi, %esi
	je	.L1921
	.loc 1 651 0
	subl	$12, %esp
	pushl	$36
	call	aos_malloc
.LVL218:
	movl	%eax, %edi
.LVL219:
	.loc 1 652 0
	addl	$16, %esp
	.loc 1 653 0
	movl	$-12, %eax
.LVL220:
	.loc 1 652 0
	testl	%edi, %edi
	je	.L1921
	.loc 1 656 0
	pushl	%eax
	pushl	%eax
	movl	20(%ebp), %eax
	cltd
	pushl	%edx
	pushl	%eax
	call	krhino_ms_to_ticks
.LVL221:
	movl	%edx, (%esp)
	pushl	%eax
	pushl	16(%ebp)
	pushl	12(%ebp)
	pushl	%edi
	call	krhino_work_init
.LVL222:
	.loc 1 657 0
	addl	$32, %esp
	testl	%eax, %eax
	.loc 1 656 0
	movl	%eax, %ebx
.LVL223:
	.loc 1 657 0
	je	.L1922
	.loc 1 658 0
	subl	$12, %esp
	pushl	%edi
	call	aos_free
.LVL224:
	.loc 1 659 0
	addl	$16, %esp
	cmpl	$305, %ebx
	je	.L1924
	ja	.L1925
	cmpl	$101, %ebx
	ja	.L1926
	cmpl	$100, %ebx
	jnb	.L1924
	cmpl	$8, %ebx
	ja	.L1927
	cmpl	$7, %ebx
	jnb	.L1924
	cmpl	$5, %ebx
	je	.L1924
	ja	.L1939
	cmpl	$2, %ebx
	je	.L1939
	jmp	.L1923
.L1927:
	cmpl	$9, %ebx
	je	.L1923
	.loc 1 659 0
	movl	$-11, %eax
	.loc 1 659 0
	cmpl	$11, %ebx
	jmp	.L2001
.L1926:
	cmpl	$202, %ebx
	ja	.L1930
	cmpl	$200, %ebx
	jnb	.L1923
	cmpl	$102, %ebx
	je	.L1939
	.loc 1 659 0
	movl	$-12, %eax
	.loc 1 659 0
	cmpl	$105, %ebx
.L2001:
	je	.L1921
	jmp	.L1923
.L1930:
	cmpl	$300, %ebx
	je	.L1924
	ja	.L1923
	cmpl	$203, %ebx
	jne	.L1923
	jmp	.L1924
.L1925:
	cmpl	$800, %ebx
	je	.L1924
	ja	.L1932
	cmpl	$701, %ebx
	ja	.L1933
	cmpl	$700, %ebx
	jnb	.L1924
	jmp	.L1923
.L1933:
	cmpl	$702, %ebx
	je	.L1923
	cmpl	$705, %ebx
	ja	.L1923
	jmp	.L1924
.L1932:
	cmpl	$1001, %ebx
	je	.L1934
	ja	.L1935
	jmp	.L1923
.L1935:
	cmpl	$1103, %ebx
	je	.L1934
	ja	.L1923
	cmpl	$1100, %ebx
	jb	.L1923
.L1924:
	.loc 1 659 0
	movl	$-22, %eax
	jmp	.L1921
.L1934:
	.loc 1 659 0 discriminator 7
	movl	$-11, %eax
	jmp	.L1921
.L1923:
	.loc 1 659 0 discriminator 1
	orl	$-1, %eax
	jmp	.L1921
.LVL225:
.L1922:
	.loc 1 662 0
	movl	%edi, (%esi)
	.loc 1 664 0
	xorl	%eax, %eax
.LVL226:
	jmp	.L1921
.L1939:
	.loc 1 659 0
	movl	$-14, %eax
.LVL227:
.L1921:
	.loc 1 665 0
	leal	-12(%ebp), %esp
	popl	%ebx
	.cfi_restore 3
	popl	%esi
	.cfi_restore 6
	popl	%edi
	.cfi_restore 7
	popl	%ebp
	.cfi_restore 5
	.cfi_def_cfa 4, 4
	ret
	.cfi_endproc
.LFE67:
	.size	aos_work_init, .-aos_work_init
	.section	.text.unlikely.aos_work_init
.LCOLDE49:
	.section	.text.aos_work_init
.LHOTE49:
	.section	.text.unlikely.aos_work_destroy,"ax",@progbits
.LCOLDB50:
	.section	.text.aos_work_destroy,"ax",@progbits
.LHOTB50:
	.globl	aos_work_destroy
	.type	aos_work_destroy, @function
aos_work_destroy:
.LFB68:
	.loc 1 668 0
	.cfi_startproc
.LVL228:
	pushl	%ebp
	.cfi_def_cfa_offset 8
	.cfi_offset 5, -8
	movl	%esp, %ebp
	.cfi_def_cfa_register 5
	pushl	%esi
	pushl	%ebx
	.cfi_offset 6, -12
	.cfi_offset 3, -16
	.loc 1 668 0
	movl	8(%ebp), %ebx
	.loc 1 671 0
	testl	%ebx, %ebx
	je	.L2002
	.loc 1 675 0
	movl	(%ebx), %esi
.LVL229:
	.loc 1 677 0
	movl	24(%esi), %eax
	testl	%eax, %eax
	je	.L2004
	.loc 1 678 0
	subl	$12, %esp
	pushl	%eax
	call	krhino_timer_stop
.LVL230:
	.loc 1 679 0
	popl	%eax
	pushl	24(%esi)
	call	krhino_timer_dyn_del
.LVL231:
	addl	$16, %esp
.L2004:
	.loc 1 682 0
	subl	$12, %esp
	pushl	(%ebx)
	call	aos_free
.LVL232:
	.loc 1 683 0
	movl	$0, (%ebx)
	addl	$16, %esp
.LVL233:
.L2002:
	.loc 1 684 0
	leal	-8(%ebp), %esp
	popl	%ebx
	.cfi_restore 3
	popl	%esi
	.cfi_restore 6
	popl	%ebp
	.cfi_restore 5
	.cfi_def_cfa 4, 4
	ret
	.cfi_endproc
.LFE68:
	.size	aos_work_destroy, .-aos_work_destroy
	.section	.text.unlikely.aos_work_destroy
.LCOLDE50:
	.section	.text.aos_work_destroy
.LHOTE50:
	.section	.text.unlikely.aos_now,"ax",@progbits
.LCOLDB51:
	.section	.text.aos_now,"ax",@progbits
.LHOTB51:
	.globl	aos_now
	.type	aos_now, @function
aos_now:
.LFB77:
	.loc 1 843 0
	.cfi_startproc
	pushl	%ebp
	.cfi_def_cfa_offset 8
	.cfi_offset 5, -8
	movl	%esp, %ebp
	.cfi_def_cfa_register 5
	pushl	%ebx
	pushl	%eax
	.cfi_offset 3, -12
	.loc 1 844 0
	call	krhino_sys_time_get
.LVL234:
	movl	%eax, %ecx
	movl	$1000000, %eax
	imull	$1000000, %edx, %ebx
	mull	%ecx
	.loc 1 845 0
	popl	%ecx
	.loc 1 844 0
	addl	%ebx, %edx
	.loc 1 845 0
	popl	%ebx
	.cfi_restore 3
	popl	%ebp
	.cfi_restore 5
	.cfi_def_cfa 4, 4
	ret
	.cfi_endproc
.LFE77:
	.size	aos_now, .-aos_now
	.section	.text.unlikely.aos_now
.LCOLDE51:
	.section	.text.aos_now
.LHOTE51:
	.section	.text.unlikely.aos_now_ms,"ax",@progbits
.LCOLDB52:
	.section	.text.aos_now_ms,"ax",@progbits
.LHOTB52:
	.globl	aos_now_ms
	.type	aos_now_ms, @function
aos_now_ms:
.LFB78:
	.loc 1 848 0
	.cfi_startproc
	pushl	%ebp
	.cfi_def_cfa_offset 8
	.cfi_offset 5, -8
	movl	%esp, %ebp
	.cfi_def_cfa_register 5
	.loc 1 850 0
	popl	%ebp
	.cfi_restore 5
	.cfi_def_cfa 4, 4
	.loc 1 849 0
	jmp	krhino_sys_time_get
.LVL235:
	.cfi_endproc
.LFE78:
	.size	aos_now_ms, .-aos_now_ms
	.section	.text.unlikely.aos_now_ms
.LCOLDE52:
	.section	.text.aos_now_ms
.LHOTE52:
	.section	.text.unlikely.aos_msleep,"ax",@progbits
.LCOLDB53:
	.section	.text.aos_msleep,"ax",@progbits
.LHOTB53:
	.globl	aos_msleep
	.type	aos_msleep, @function
aos_msleep:
.LFB79:
	.loc 1 853 0
	.cfi_startproc
.LVL236:
	pushl	%ebp
	.cfi_def_cfa_offset 8
	.cfi_offset 5, -8
	movl	%esp, %ebp
	.cfi_def_cfa_register 5
	subl	$16, %esp
	.loc 1 854 0
	movl	8(%ebp), %eax
	cltd
	pushl	%edx
	pushl	%eax
	call	krhino_ms_to_ticks
.LVL237:
	popl	%ecx
	popl	%ecx
	pushl	%edx
	pushl	%eax
	call	krhino_task_sleep
.LVL238:
	.loc 1 855 0
	addl	$16, %esp
	leave
	.cfi_restore 5
	.cfi_def_cfa 4, 4
	ret
	.cfi_endproc
.LFE79:
	.size	aos_msleep, .-aos_msleep
	.section	.text.unlikely.aos_msleep
.LCOLDE53:
	.section	.text.aos_msleep
.LHOTE53:
	.section	.text.unlikely.aos_init,"ax",@progbits
.LCOLDB54:
	.section	.text.aos_init,"ax",@progbits
.LHOTB54:
	.globl	aos_init
	.type	aos_init, @function
aos_init:
.LFB80:
	.loc 1 858 0
	.cfi_startproc
	pushl	%ebp
	.cfi_def_cfa_offset 8
	.cfi_offset 5, -8
	movl	%esp, %ebp
	.cfi_def_cfa_register 5
	.loc 1 860 0
	popl	%ebp
	.cfi_restore 5
	.cfi_def_cfa 4, 4
	.loc 1 859 0
	jmp	krhino_init
.LVL239:
	.cfi_endproc
.LFE80:
	.size	aos_init, .-aos_init
	.section	.text.unlikely.aos_init
.LCOLDE54:
	.section	.text.aos_init
.LHOTE54:
	.section	.text.unlikely.aos_start,"ax",@progbits
.LCOLDB55:
	.section	.text.aos_start,"ax",@progbits
.LHOTB55:
	.globl	aos_start
	.type	aos_start, @function
aos_start:
.LFB81:
	.loc 1 863 0
	.cfi_startproc
	pushl	%ebp
	.cfi_def_cfa_offset 8
	.cfi_offset 5, -8
	movl	%esp, %ebp
	.cfi_def_cfa_register 5
	.loc 1 865 0
	popl	%ebp
	.cfi_restore 5
	.cfi_def_cfa 4, 4
	.loc 1 864 0
	jmp	krhino_start
.LVL240:
	.cfi_endproc
.LFE81:
	.size	aos_start, .-aos_start
	.section	.text.unlikely.aos_start
.LCOLDE55:
	.section	.text.aos_start
.LHOTE55:
	.section	.bss.used_bitmap,"aw",@nobits
	.align 4
	.type	used_bitmap, @object
	.size	used_bitmap, 4
used_bitmap:
	.zero	4
	.text
.Letext0:
	.section	.text.unlikely.aos_reboot
.Letext_cold0:
	.file 2 "/home/stone/Documents/Ali_IOT/build/compiler/gcc-arm-none-eabi/Linux64/lib/gcc/arm-none-eabi/5.4.1/include/stddef.h"
	.file 3 "/home/stone/Documents/Ali_IOT/build/compiler/gcc-arm-none-eabi/Linux64/arm-none-eabi/include/machine/_default_types.h"
	.file 4 "/home/stone/Documents/Ali_IOT/build/compiler/gcc-arm-none-eabi/Linux64/arm-none-eabi/include/sys/_stdint.h"
	.file 5 "././platform/arch/arm/armv5/./gcc/k_types.h"
	.file 6 "./kernel/rhino/core/include/k_err.h"
	.file 7 "./kernel/rhino/core/include/k_spin_lock.h"
	.file 8 "./kernel/rhino/core/include/k_sys.h"
	.file 9 "./kernel/rhino/core/include/k_list.h"
	.file 10 "./kernel/rhino/core/include/k_obj.h"
	.file 11 "./kernel/rhino/core/include/k_task.h"
	.file 12 "./kernel/rhino/core/include/k_mutex.h"
	.file 13 "./kernel/rhino/core/include/k_sem.h"
	.file 14 "./kernel/rhino/core/include/k_ringbuf.h"
	.file 15 "./kernel/rhino/core/include/k_buf_queue.h"
	.file 16 "./kernel/rhino/core/include/k_timer.h"
	.file 17 "./kernel/rhino/core/include/k_event.h"
	.file 18 "./kernel/rhino/core/include/k_mm.h"
	.file 19 "./kernel/rhino/core/include/k_workqueue.h"
	.file 20 "./include/aos/kernel.h"
	.file 21 "./kernel/rhino/core/include/k_internal.h"
	.file 22 "./include/aos/log.h"
	.file 23 "./kernel/rhino/core/include/k_time.h"
	.file 24 "./kernel/rhino/core/include/k_mm_debug.h"
	.section	.note.GNU-stack,"",@progbits
