	.file	"aos_main.c"
	.text
.Ltext0:
	.section	.text.unlikely.sys_init,"ax",@progbits
.LCOLDB0:
	.section	.text.sys_init,"ax",@progbits
.LHOTB0:
	.section	.text.unlikely.sys_init
.Ltext_cold0:
	.section	.text.sys_init
	.type	sys_init, @function
sys_init:
.LFB12:
	.file 1 "platform/mcu/moc108/aos/aos_main.c"
	.loc 1 23 0
	.cfi_startproc
.LVL0:
	pushl	%ebp
	.cfi_def_cfa_offset 8
	.cfi_offset 5, -8
	movl	%esp, %ebp
	.cfi_def_cfa_register 5
	subl	$8, %esp
	.loc 1 26 0
	call	soc_system_init
.LVL1:
	.loc 1 32 0
	call	board_init
.LVL2:
	.loc 1 34 0
	subl	$12, %esp
	pushl	$kinit
	call	aos_kernel_init
.LVL3:
	.loc 1 37 0
	addl	$16, %esp
	leave
	.cfi_restore 5
	.cfi_def_cfa 4, 4
	ret
	.cfi_endproc
.LFE12:
	.size	sys_init, .-sys_init
	.section	.text.unlikely.sys_init
.LCOLDE0:
	.section	.text.sys_init
.LHOTE0:
	.section	.rodata.str1.1,"aMS",@progbits,1
.LC1:
	.string	"aos-init"
	.section	.text.unlikely.sys_start,"ax",@progbits
.LCOLDB2:
	.section	.text.sys_start,"ax",@progbits
.LHOTB2:
	.globl	sys_start
	.type	sys_start, @function
sys_start:
.LFB13:
	.loc 1 40 0
	.cfi_startproc
	pushl	%ebp
	.cfi_def_cfa_offset 8
	.cfi_offset 5, -8
	movl	%esp, %ebp
	.cfi_def_cfa_register 5
	subl	$8, %esp
	.loc 1 41 0
	call	aos_init
.LVL4:
	.loc 1 43 0
	call	soc_driver_init
.LVL5:
	.loc 1 45 0
	subl	$12, %esp
	pushl	$1
	pushl	$sys_init
	pushl	$2048
	pushl	$0
	pushl	$0
	pushl	$32
	pushl	$0
	pushl	$.LC1
	pushl	$g_aos_init
	call	krhino_task_dyn_create
.LVL6:
	.loc 1 47 0
	addl	$48, %esp
	.loc 1 48 0
	leave
	.cfi_restore 5
	.cfi_def_cfa 4, 4
	.loc 1 47 0
	jmp	aos_start
.LVL7:
	.cfi_endproc
.LFE13:
	.size	sys_start, .-sys_start
	.section	.text.unlikely.sys_start
.LCOLDE2:
	.section	.text.sys_start
.LHOTE2:
	.section	.data.kinit,"aw",@progbits
	.align 4
	.type	kinit, @object
	.size	kinit, 12
kinit:
	.long	0
	.long	0
	.byte	1
	.zero	3
	.globl	g_aos_init
	.section	.bss.g_aos_init,"aw",@nobits
	.align 4
	.type	g_aos_init, @object
	.size	g_aos_init, 4
g_aos_init:
	.zero	4
	.text
.Letext0:
	.section	.text.unlikely.sys_init
.Letext_cold0:
	.file 2 "/home/stone/Documents/Ali_IOT/build/compiler/gcc-arm-none-eabi/Linux64/lib/gcc/arm-none-eabi/5.4.1/include/stddef.h"
	.file 3 "/home/stone/Documents/Ali_IOT/build/compiler/gcc-arm-none-eabi/Linux64/arm-none-eabi/include/machine/_default_types.h"
	.file 4 "/home/stone/Documents/Ali_IOT/build/compiler/gcc-arm-none-eabi/Linux64/arm-none-eabi/include/sys/_stdint.h"
	.file 5 "././platform/arch/arm/armv5/./gcc/k_types.h"
	.file 6 "./kernel/rhino/core/include/k_sys.h"
	.file 7 "./kernel/rhino/core/include/k_list.h"
	.file 8 "./kernel/rhino/core/include/k_obj.h"
	.file 9 "./kernel/rhino/core/include/k_task.h"
	.file 10 "./kernel/rhino/core/include/k_mutex.h"
	.file 11 "./kernel/rhino/core/include/k_sem.h"
	.file 12 "./include/aos/init.h"
	.file 13 "././platform/mcu/moc108/aos/aos_main.h"
	.file 14 "./include/aos/kernel.h"
	.section	.note.GNU-stack,"",@progbits
