	.file	"aos_port.c"
	.text
.Ltext0:
	.section	.rodata.str1.1,"aMS",@progbits,1
.LC0:
	.string	"msg_start"
.LC1:
	.string	"kernel/protocols/bluetooth/port/aos_port.c"
.LC2:
	.string	"queue->_queue"
.LC3:
	.string	"stat == 0"
	.section	.text.unlikely.k_queue_init,"ax",@progbits
.LCOLDB4:
	.section	.text.k_queue_init,"ax",@progbits
.LHOTB4:
	.section	.text.unlikely.k_queue_init
.Ltext_cold0:
	.section	.text.k_queue_init
	.globl	k_queue_init
	.type	k_queue_init, @function
k_queue_init:
.LFB81:
	.file 1 "src/aos_port.c"
	.loc 1 3574 0
	.cfi_startproc
.LVL0:
	pushl	%ebp
	.cfi_def_cfa_offset 8
	.cfi_offset 5, -8
	movl	%esp, %ebp
	.cfi_def_cfa_register 5
	pushl	%esi
	pushl	%ebx
	.cfi_offset 6, -12
	.cfi_offset 3, -16
	.loc 1 3574 0
	movl	8(%ebp), %ebx
	.loc 1 3579 0
	subl	$12, %esp
	pushl	$100
	call	aos_malloc
.LVL1:
	.loc 1 3582 0
	addl	$16, %esp
	testl	%eax, %eax
	jne	.L2
	.loc 1 3582 0 is_stmt 0 discriminator 1
	pushl	$.LC0
	pushl	$__func__.5514
	pushl	$44
	jmp	.L6
.L2:
	.loc 1 3586 0 is_stmt 1
	subl	$12, %esp
	movl	%eax, %esi
	pushl	$4
	call	aos_malloc
.LVL2:
	.loc 1 3589 0
	addl	$16, %esp
	testl	%eax, %eax
	.loc 1 3586 0
	movl	%eax, (%ebx)
	.loc 1 3589 0
	jne	.L3
	.loc 1 3589 0 is_stmt 0 discriminator 1
	pushl	$.LC2
	pushl	$__func__.5514
	pushl	$47
.LVL3:
.L6:
	pushl	$.LC1
	call	__assert_func
.LVL4:
.L3:
	.loc 1 3593 0 is_stmt 1
	pushl	$5
	pushl	$100
	pushl	%esi
	pushl	%eax
	call	aos_queue_new
.LVL5:
	.loc 1 3596 0
	addl	$16, %esp
	testl	%eax, %eax
	je	.L4
	.loc 1 3596 0 is_stmt 0 discriminator 1
	pushl	$.LC3
	pushl	$__func__.5514
	pushl	$50
	jmp	.L6
.L4:
	.loc 1 3600 0 is_stmt 1
	leal	4(%ebx), %eax
.LVL6:
.LBB10:
.LBB11:
	.loc 1 228 0
	movl	%eax, 4(%ebx)
	.loc 1 229 0
	movl	%eax, 8(%ebx)
.LVL7:
.LBE11:
.LBE10:
	.loc 1 3601 0
	leal	-8(%ebp), %esp
	popl	%ebx
	.cfi_restore 3
	popl	%esi
	.cfi_restore 6
.LVL8:
	popl	%ebp
	.cfi_restore 5
	.cfi_def_cfa 4, 4
	ret
	.cfi_endproc
.LFE81:
	.size	k_queue_init, .-k_queue_init
	.section	.text.unlikely.k_queue_init
.LCOLDE4:
	.section	.text.k_queue_init
.LHOTE4:
	.section	.text.unlikely.k_queue_cancel_wait,"ax",@progbits
.LCOLDB5:
	.section	.text.k_queue_cancel_wait,"ax",@progbits
.LHOTB5:
	.globl	k_queue_cancel_wait
	.type	k_queue_cancel_wait, @function
k_queue_cancel_wait:
.LFB82:
	.loc 1 3603 0
	.cfi_startproc
.LVL9:
	pushl	%ebp
	.cfi_def_cfa_offset 8
	.cfi_offset 5, -8
	movl	%esp, %ebp
	.cfi_def_cfa_register 5
	.loc 1 3604 0
	popl	%ebp
	.cfi_restore 5
	.cfi_def_cfa 4, 4
	ret
	.cfi_endproc
.LFE82:
	.size	k_queue_cancel_wait, .-k_queue_cancel_wait
	.section	.text.unlikely.k_queue_cancel_wait
.LCOLDE5:
	.section	.text.k_queue_cancel_wait
.LHOTE5:
	.section	.rodata.str1.1
.LC6:
	.string	"ret == 0"
	.section	.text.unlikely.k_queue_insert,"ax",@progbits
.LCOLDB7:
	.section	.text.k_queue_insert,"ax",@progbits
.LHOTB7:
	.globl	k_queue_insert
	.type	k_queue_insert, @function
k_queue_insert:
.LFB83:
	.loc 1 3606 0
	.cfi_startproc
.LVL10:
	pushl	%ebp
	.cfi_def_cfa_offset 8
	.cfi_offset 5, -8
	movl	%esp, %ebp
	.cfi_def_cfa_register 5
	subl	$12, %esp
	.loc 1 3608 0
	leal	16(%ebp), %eax
.LVL11:
	pushl	$4
	pushl	%eax
	movl	8(%ebp), %eax
.LVL12:
	pushl	(%eax)
.LVL13:
	call	aos_queue_send
.LVL14:
	.loc 1 3611 0
	addl	$16, %esp
	testl	%eax, %eax
	je	.L10
.LVL15:
.LBB14:
.LBB15:
	pushl	$.LC6
	pushl	$__func__.5524
	pushl	$64
	pushl	$.LC1
	call	__assert_func
.LVL16:
.L10:
.LBE15:
.LBE14:
	.loc 1 3615 0
	leave
	.cfi_restore 5
	.cfi_def_cfa 4, 4
	ret
	.cfi_endproc
.LFE83:
	.size	k_queue_insert, .-k_queue_insert
	.section	.text.unlikely.k_queue_insert
.LCOLDE7:
	.section	.text.k_queue_insert
.LHOTE7:
	.section	.text.unlikely.k_queue_prepend,"ax",@progbits
.LCOLDB8:
	.section	.text.k_queue_prepend,"ax",@progbits
.LHOTB8:
	.globl	k_queue_prepend
	.type	k_queue_prepend, @function
k_queue_prepend:
.LFB85:
	.loc 1 3623 0
	.cfi_startproc
.LVL17:
	pushl	%ebp
	.cfi_def_cfa_offset 8
	.cfi_offset 5, -8
	movl	%esp, %ebp
	.cfi_def_cfa_register 5
	subl	$12, %esp
	.loc 1 3624 0
	pushl	12(%ebp)
	pushl	$0
	pushl	8(%ebp)
	call	k_queue_insert
.LVL18:
	.loc 1 3627 0
	addl	$16, %esp
	leave
	.cfi_restore 5
	.cfi_def_cfa 4, 4
	ret
	.cfi_endproc
.LFE85:
	.size	k_queue_prepend, .-k_queue_prepend
	.section	.text.unlikely.k_queue_prepend
.LCOLDE8:
	.section	.text.k_queue_prepend
.LHOTE8:
	.section	.text.unlikely.k_queue_append,"ax",@progbits
.LCOLDB9:
	.section	.text.k_queue_append,"ax",@progbits
.LHOTB9:
	.globl	k_queue_append
	.type	k_queue_append, @function
k_queue_append:
.LFB111:
	.cfi_startproc
	pushl	%ebp
	.cfi_def_cfa_offset 8
	.cfi_offset 5, -8
	movl	%esp, %ebp
	.cfi_def_cfa_register 5
	popl	%ebp
	.cfi_restore 5
	.cfi_def_cfa 4, 4
	jmp	k_queue_prepend
	.cfi_endproc
.LFE111:
	.size	k_queue_append, .-k_queue_append
	.section	.text.unlikely.k_queue_append
.LCOLDE9:
	.section	.text.k_queue_append
.LHOTE9:
	.section	.text.unlikely.k_queue_append_list,"ax",@progbits
.LCOLDB10:
	.section	.text.k_queue_append_list,"ax",@progbits
.LHOTB10:
	.globl	k_queue_append_list
	.type	k_queue_append_list, @function
k_queue_append_list:
.LFB86:
	.loc 1 3629 0
	.cfi_startproc
.LVL19:
	.loc 1 3629 0
	pushl	%ebp
	.cfi_def_cfa_offset 8
	.cfi_offset 5, -8
	movl	%esp, %ebp
	.cfi_def_cfa_register 5
	pushl	%ebx
	pushl	%edx
	.cfi_offset 3, -12
	movl	12(%ebp), %ebx
.LVL20:
.L18:
	.loc 1 3631 0 discriminator 1
	testl	%ebx, %ebx
	je	.L21
	.loc 1 3632 0 discriminator 3
	pushl	%eax
	pushl	%eax
	pushl	%ebx
	pushl	8(%ebp)
	call	k_queue_prepend
.LVL21:
	.loc 1 3631 0 discriminator 3
	movl	(%ebx), %ebx
.LVL22:
	addl	$16, %esp
	jmp	.L18
.L21:
	.loc 1 3634 0
	movl	-4(%ebp), %ebx
.LVL23:
	leave
	.cfi_restore 5
	.cfi_restore 3
	.cfi_def_cfa 4, 4
	ret
	.cfi_endproc
.LFE86:
	.size	k_queue_append_list, .-k_queue_append_list
	.section	.text.unlikely.k_queue_append_list
.LCOLDE10:
	.section	.text.k_queue_append_list
.LHOTE10:
	.section	.text.unlikely.k_queue_get,"ax",@progbits
.LCOLDB11:
	.section	.text.k_queue_get,"ax",@progbits
.LHOTB11:
	.globl	k_queue_get
	.type	k_queue_get, @function
k_queue_get:
.LFB87:
	.loc 1 3636 0
	.cfi_startproc
.LVL24:
	pushl	%ebp
	.cfi_def_cfa_offset 8
	.cfi_offset 5, -8
	.loc 1 3640 0
	movl	$-1, %edx
	.loc 1 3636 0
	movl	%esp, %ebp
	.cfi_def_cfa_register 5
	subl	$24, %esp
	.loc 1 3636 0
	movl	12(%ebp), %eax
	.loc 1 3637 0
	movl	$0, -20(%ebp)
.LVL25:
	.loc 1 3636 0
	movl	%gs:20, %ecx
	movl	%ecx, -12(%ebp)
	xorl	%ecx, %ecx
	.loc 1 3642 0
	cmpl	$-1, %eax
	.loc 1 3640 0
	cmove	%edx, %eax
.LVL26:
	.loc 1 3647 0
	leal	-16(%ebp), %edx
	pushl	%edx
	leal	-20(%ebp), %edx
	pushl	%edx
	pushl	%eax
	movl	8(%ebp), %eax
.LVL27:
	pushl	(%eax)
.LVL28:
	call	aos_queue_recv
.LVL29:
	.loc 1 3651 0
	xorl	%edx, %edx
	.loc 1 3647 0
	addl	$16, %esp
	testl	%eax, %eax
	.loc 1 3648 0
	cmove	-20(%ebp), %edx
	.loc 1 3654 0
	movl	-12(%ebp), %ecx
	xorl	%gs:20, %ecx
	je	.L25
	call	__stack_chk_fail
.LVL30:
.L25:
	movl	%edx, %eax
	leave
	.cfi_restore 5
	.cfi_def_cfa 4, 4
	ret
	.cfi_endproc
.LFE87:
	.size	k_queue_get, .-k_queue_get
	.section	.text.unlikely.k_queue_get
.LCOLDE11:
	.section	.text.k_queue_get
.LHOTE11:
	.section	.text.unlikely.k_queue_is_empty,"ax",@progbits
.LCOLDB12:
	.section	.text.k_queue_is_empty,"ax",@progbits
.LHOTB12:
	.globl	k_queue_is_empty
	.type	k_queue_is_empty, @function
k_queue_is_empty:
.LFB88:
	.loc 1 3656 0
	.cfi_startproc
.LVL31:
	pushl	%ebp
	.cfi_def_cfa_offset 8
	.cfi_offset 5, -8
	movl	%esp, %ebp
	.cfi_def_cfa_register 5
.LVL32:
	.loc 1 3657 0
	movl	8(%ebp), %eax
	.loc 1 3660 0
	popl	%ebp
	.cfi_restore 5
	.cfi_def_cfa 4, 4
	.loc 1 3657 0
	movl	(%eax), %eax
	.loc 1 3658 0
	movl	(%eax), %eax
	cmpl	$0, 56(%eax)
	sete	%al
	movzbl	%al, %eax
	.loc 1 3660 0
	ret
	.cfi_endproc
.LFE88:
	.size	k_queue_is_empty, .-k_queue_is_empty
	.section	.text.unlikely.k_queue_is_empty
.LCOLDE12:
	.section	.text.k_queue_is_empty
.LHOTE12:
	.section	.text.unlikely.k_sem_init,"ax",@progbits
.LCOLDB13:
	.section	.text.k_sem_init,"ax",@progbits
.LHOTB13:
	.globl	k_sem_init
	.type	k_sem_init, @function
k_sem_init:
.LFB89:
	.loc 1 3662 0
	.cfi_startproc
.LVL33:
	pushl	%ebp
	.cfi_def_cfa_offset 8
	.cfi_offset 5, -8
	movl	$-22, %eax
	movl	%esp, %ebp
	.cfi_def_cfa_register 5
	pushl	%ebx
	pushl	%edx
	.cfi_offset 3, -12
	.loc 1 3662 0
	movl	8(%ebp), %ebx
	.loc 1 3664 0
	testl	%ebx, %ebx
	je	.L33
	.loc 1 3670 0
	pushl	%eax
	pushl	%eax
	pushl	12(%ebp)
	pushl	%ebx
	call	aos_sem_new
.LVL34:
	.loc 1 3671 0
	leal	4(%ebx), %edx
.LVL35:
	.loc 1 3672 0
	addl	$16, %esp
.LBB16:
.LBB17:
	.loc 1 228 0
	movl	%edx, 4(%ebx)
	.loc 1 229 0
	movl	%edx, 8(%ebx)
.LVL36:
.L33:
.LBE17:
.LBE16:
	.loc 1 3673 0
	movl	-4(%ebp), %ebx
	leave
	.cfi_restore 5
	.cfi_restore 3
	.cfi_def_cfa 4, 4
	ret
	.cfi_endproc
.LFE89:
	.size	k_sem_init, .-k_sem_init
	.section	.text.unlikely.k_sem_init
.LCOLDE13:
	.section	.text.k_sem_init
.LHOTE13:
	.section	.text.unlikely.k_sem_take,"ax",@progbits
.LCOLDB14:
	.section	.text.k_sem_take,"ax",@progbits
.LHOTB14:
	.globl	k_sem_take
	.type	k_sem_take, @function
k_sem_take:
.LFB90:
	.loc 1 3675 0
	.cfi_startproc
.LVL37:
	pushl	%ebp
	.cfi_def_cfa_offset 8
	.cfi_offset 5, -8
	movl	%esp, %ebp
	.cfi_def_cfa_register 5
.LVL38:
	.loc 1 3683 0
	popl	%ebp
	.cfi_restore 5
	.cfi_def_cfa 4, 4
	.loc 1 3682 0
	jmp	aos_sem_wait
.LVL39:
	.cfi_endproc
.LFE90:
	.size	k_sem_take, .-k_sem_take
	.section	.text.unlikely.k_sem_take
.LCOLDE14:
	.section	.text.k_sem_take
.LHOTE14:
	.section	.text.unlikely.k_sem_give,"ax",@progbits
.LCOLDB15:
	.section	.text.k_sem_give,"ax",@progbits
.LHOTB15:
	.globl	k_sem_give
	.type	k_sem_give, @function
k_sem_give:
.LFB91:
	.loc 1 3685 0
	.cfi_startproc
.LVL40:
	pushl	%ebp
	.cfi_def_cfa_offset 8
	.cfi_offset 5, -8
	movl	$-22, %eax
	movl	%esp, %ebp
	.cfi_def_cfa_register 5
	subl	$8, %esp
	.loc 1 3685 0
	movl	8(%ebp), %edx
	.loc 1 3686 0
	testl	%edx, %edx
	je	.L40
	.loc 1 3692 0
	subl	$12, %esp
	pushl	%edx
	call	aos_sem_signal
.LVL41:
	.loc 1 3693 0
	addl	$16, %esp
	xorl	%eax, %eax
.L40:
	.loc 1 3694 0
	leave
	.cfi_restore 5
	.cfi_def_cfa 4, 4
	ret
	.cfi_endproc
.LFE91:
	.size	k_sem_give, .-k_sem_give
	.section	.text.unlikely.k_sem_give
.LCOLDE15:
	.section	.text.k_sem_give
.LHOTE15:
	.section	.text.unlikely.k_sem_delete,"ax",@progbits
.LCOLDB16:
	.section	.text.k_sem_delete,"ax",@progbits
.LHOTB16:
	.globl	k_sem_delete
	.type	k_sem_delete, @function
k_sem_delete:
.LFB92:
	.loc 1 3696 0
	.cfi_startproc
.LVL42:
	pushl	%ebp
	.cfi_def_cfa_offset 8
	.cfi_offset 5, -8
	movl	$-22, %eax
	movl	%esp, %ebp
	.cfi_def_cfa_register 5
	subl	$8, %esp
	.loc 1 3696 0
	movl	8(%ebp), %edx
	.loc 1 3697 0
	testl	%edx, %edx
	je	.L45
	.loc 1 3703 0
	subl	$12, %esp
	pushl	%edx
	call	aos_sem_free
.LVL43:
	.loc 1 3704 0
	addl	$16, %esp
	xorl	%eax, %eax
.L45:
	.loc 1 3705 0
	leave
	.cfi_restore 5
	.cfi_def_cfa 4, 4
	ret
	.cfi_endproc
.LFE92:
	.size	k_sem_delete, .-k_sem_delete
	.section	.text.unlikely.k_sem_delete
.LCOLDE16:
	.section	.text.k_sem_delete
.LHOTE16:
	.section	.text.unlikely.k_sem_count_get,"ax",@progbits
.LCOLDB17:
	.section	.text.k_sem_count_get,"ax",@progbits
.LHOTB17:
	.globl	k_sem_count_get
	.type	k_sem_count_get, @function
k_sem_count_get:
.LFB93:
	.loc 1 3707 0
	.cfi_startproc
.LVL44:
	pushl	%ebp
	.cfi_def_cfa_offset 8
	.cfi_offset 5, -8
	movl	%esp, %ebp
	.cfi_def_cfa_register 5
	subl	$32, %esp
	.loc 1 3707 0
	movl	%gs:20, %eax
	movl	%eax, -12(%ebp)
	xorl	%eax, %eax
.LVL45:
	.loc 1 3710 0
	leal	-16(%ebp), %eax
	pushl	%eax
	pushl	8(%ebp)
	call	krhino_sem_count_get
.LVL46:
	.loc 1 3713 0
	movl	-12(%ebp), %edx
	xorl	%gs:20, %edx
	movl	-16(%ebp), %eax
	je	.L50
	call	__stack_chk_fail
.LVL47:
.L50:
	leave
	.cfi_restore 5
	.cfi_def_cfa 4, 4
	ret
	.cfi_endproc
.LFE93:
	.size	k_sem_count_get, .-k_sem_count_get
	.section	.text.unlikely.k_sem_count_get
.LCOLDE17:
	.section	.text.k_sem_count_get
.LHOTE17:
	.section	.text.unlikely.k_mutex_init,"ax",@progbits
.LCOLDB18:
	.section	.text.k_mutex_init,"ax",@progbits
.LHOTB18:
	.globl	k_mutex_init
	.type	k_mutex_init, @function
k_mutex_init:
.LFB94:
	.loc 1 3715 0
	.cfi_startproc
.LVL48:
	pushl	%ebp
	.cfi_def_cfa_offset 8
	.cfi_offset 5, -8
	movl	%esp, %ebp
	.cfi_def_cfa_register 5
	pushl	%ebx
	pushl	%eax
	.cfi_offset 3, -12
	.loc 1 3715 0
	movl	8(%ebp), %ebx
	.loc 1 3716 0
	testl	%ebx, %ebx
	je	.L52
	.loc 1 3722 0
	subl	$12, %esp
	pushl	%ebx
	call	aos_mutex_new
.LVL49:
	.loc 1 3723 0
	leal	4(%ebx), %eax
.LVL50:
.LBB18:
.LBB19:
	.loc 1 229 0
	addl	$16, %esp
	.loc 1 228 0
	movl	%eax, 4(%ebx)
	.loc 1 229 0
	movl	%eax, 8(%ebx)
.LVL51:
.L52:
.LBE19:
.LBE18:
	.loc 1 3725 0
	movl	-4(%ebp), %ebx
	leave
	.cfi_restore 5
	.cfi_restore 3
	.cfi_def_cfa 4, 4
	ret
	.cfi_endproc
.LFE94:
	.size	k_mutex_init, .-k_mutex_init
	.section	.text.unlikely.k_mutex_init
.LCOLDE18:
	.section	.text.k_mutex_init
.LHOTE18:
	.section	.text.unlikely.k_mutex_lock,"ax",@progbits
.LCOLDB19:
	.section	.text.k_mutex_lock,"ax",@progbits
.LHOTB19:
	.globl	k_mutex_lock
	.type	k_mutex_lock, @function
k_mutex_lock:
.LFB95:
	.loc 1 3727 0
	.cfi_startproc
.LVL52:
	pushl	%ebp
	.cfi_def_cfa_offset 8
	.cfi_offset 5, -8
	.loc 1 3728 0
	movl	$-1, %edx
	.loc 1 3727 0
	movl	%esp, %ebp
	.cfi_def_cfa_register 5
	.loc 1 3727 0
	movl	12(%ebp), %eax
.LVL53:
	.loc 1 3729 0
	cmpl	$-1, %eax
	.loc 1 3728 0
	cmove	%edx, %eax
.LVL54:
	.loc 1 3734 0
	movl	%eax, 12(%ebp)
.LVL55:
	.loc 1 3735 0
	popl	%ebp
	.cfi_restore 5
	.cfi_def_cfa 4, 4
	.loc 1 3734 0
	jmp	aos_mutex_lock
.LVL56:
	.cfi_endproc
.LFE95:
	.size	k_mutex_lock, .-k_mutex_lock
	.section	.text.unlikely.k_mutex_lock
.LCOLDE19:
	.section	.text.k_mutex_lock
.LHOTE19:
	.section	.text.unlikely.k_mutex_unlock,"ax",@progbits
.LCOLDB20:
	.section	.text.k_mutex_unlock,"ax",@progbits
.LHOTB20:
	.globl	k_mutex_unlock
	.type	k_mutex_unlock, @function
k_mutex_unlock:
.LFB96:
	.loc 1 3737 0
	.cfi_startproc
.LVL57:
	pushl	%ebp
	.cfi_def_cfa_offset 8
	.cfi_offset 5, -8
	movl	%esp, %ebp
	.cfi_def_cfa_register 5
	.loc 1 3737 0
	movl	8(%ebp), %eax
	.loc 1 3738 0
	testl	%eax, %eax
	je	.L63
	.loc 1 3746 0
	popl	%ebp
	.cfi_remember_state
	.cfi_restore 5
	.cfi_def_cfa 4, 4
	.loc 1 3744 0
	jmp	aos_mutex_unlock
.LVL58:
.L63:
	.cfi_restore_state
	.loc 1 3746 0
	popl	%ebp
	.cfi_restore 5
	.cfi_def_cfa 4, 4
	ret
	.cfi_endproc
.LFE96:
	.size	k_mutex_unlock, .-k_mutex_unlock
	.section	.text.unlikely.k_mutex_unlock
.LCOLDE20:
	.section	.text.k_mutex_unlock
.LHOTE20:
	.section	.text.unlikely.k_uptime_get,"ax",@progbits
.LCOLDB21:
	.section	.text.k_uptime_get,"ax",@progbits
.LHOTB21:
	.globl	k_uptime_get
	.type	k_uptime_get, @function
k_uptime_get:
.LFB97:
	.loc 1 3748 0
	.cfi_startproc
	pushl	%ebp
	.cfi_def_cfa_offset 8
	.cfi_offset 5, -8
	movl	%esp, %ebp
	.cfi_def_cfa_register 5
	.loc 1 3750 0
	popl	%ebp
	.cfi_restore 5
	.cfi_def_cfa 4, 4
	.loc 1 3749 0
	jmp	aos_now_ms
.LVL59:
	.cfi_endproc
.LFE97:
	.size	k_uptime_get, .-k_uptime_get
	.section	.text.unlikely.k_uptime_get
.LCOLDE21:
	.section	.text.k_uptime_get
.LHOTE21:
	.section	.rodata.str1.1
.LC22:
	.string	"ble"
.LC23:
	.string	"create ble task fail\n"
.LC24:
	.string	"[%06d]<E> "
.LC25:
	.string	"\r\n"
	.section	.text.unlikely.k_thread_create,"ax",@progbits
.LCOLDB26:
	.section	.text.k_thread_create,"ax",@progbits
.LHOTB26:
	.globl	k_thread_create
	.type	k_thread_create, @function
k_thread_create:
.LFB98:
	.loc 1 3756 0
	.cfi_startproc
.LVL60:
	pushl	%ebp
	.cfi_def_cfa_offset 8
	.cfi_offset 5, -8
	movl	%esp, %ebp
	.cfi_def_cfa_register 5
	pushl	%ebx
	subl	$12, %esp
	.cfi_offset 3, -12
	.loc 1 3758 0
	pushl	36(%ebp)
	pushl	16(%ebp)
	pushl	24(%ebp)
	pushl	20(%ebp)
	pushl	$.LC22
	pushl	8(%ebp)
	call	aos_task_new_ext
.LVL61:
	.loc 1 3759 0
	addl	$32, %esp
	testl	%eax, %eax
	.loc 1 3758 0
	movl	%eax, %ebx
.LVL62:
	.loc 1 3759 0
	je	.L69
	.loc 1 3760 0
	testb	$2, aos_log_level
	je	.L69
	.loc 1 3760 0 is_stmt 0 discriminator 1
	call	aos_now_ms
.LVL63:
	pushl	%edx
	pushl	$.LC23
	pushl	%eax
	pushl	$.LC24
	call	csp_printf
.LVL64:
	movl	$.LC23, (%esp)
	call	csp_printf
.LVL65:
	movl	$.LC25, (%esp)
	call	csp_printf
.LVL66:
	addl	$16, %esp
.L69:
	.loc 1 3763 0 is_stmt 1
	movl	%ebx, %eax
	movl	-4(%ebp), %ebx
.LVL67:
	leave
	.cfi_restore 5
	.cfi_restore 3
	.cfi_def_cfa 4, 4
	ret
	.cfi_endproc
.LFE98:
	.size	k_thread_create, .-k_thread_create
	.section	.text.unlikely.k_thread_create
.LCOLDE26:
	.section	.text.k_thread_create
.LHOTE26:
	.section	.text.unlikely.k_yield,"ax",@progbits
.LCOLDB27:
	.section	.text.k_yield,"ax",@progbits
.LHOTB27:
	.globl	k_yield
	.type	k_yield, @function
k_yield:
.LFB99:
	.loc 1 3765 0
	.cfi_startproc
	pushl	%ebp
	.cfi_def_cfa_offset 8
	.cfi_offset 5, -8
	.loc 1 3767 0
	xorl	%eax, %eax
	.loc 1 3765 0
	movl	%esp, %ebp
	.cfi_def_cfa_register 5
	.loc 1 3767 0
	popl	%ebp
	.cfi_restore 5
	.cfi_def_cfa 4, 4
	ret
	.cfi_endproc
.LFE99:
	.size	k_yield, .-k_yield
	.section	.text.unlikely.k_yield
.LCOLDE27:
	.section	.text.k_yield
.LHOTE27:
	.section	.text.unlikely.irq_lock,"ax",@progbits
.LCOLDB28:
	.section	.text.irq_lock,"ax",@progbits
.LHOTB28:
	.globl	irq_lock
	.type	irq_lock, @function
irq_lock:
.LFB100:
	.loc 1 3769 0
	.cfi_startproc
	pushl	%ebp
	.cfi_def_cfa_offset 8
	.cfi_offset 5, -8
	movl	%esp, %ebp
	.cfi_def_cfa_register 5
	.loc 1 3773 0
	popl	%ebp
	.cfi_restore 5
	.cfi_def_cfa 4, 4
	.loc 1 3771 0
	jmp	cpu_intrpt_save
.LVL68:
	.cfi_endproc
.LFE100:
	.size	irq_lock, .-irq_lock
	.section	.text.unlikely.irq_lock
.LCOLDE28:
	.section	.text.irq_lock
.LHOTE28:
	.section	.text.unlikely.irq_unlock,"ax",@progbits
.LCOLDB29:
	.section	.text.irq_unlock,"ax",@progbits
.LHOTB29:
	.globl	irq_unlock
	.type	irq_unlock, @function
irq_unlock:
.LFB101:
	.loc 1 3775 0
	.cfi_startproc
.LVL69:
	pushl	%ebp
	.cfi_def_cfa_offset 8
	.cfi_offset 5, -8
	movl	%esp, %ebp
	.cfi_def_cfa_register 5
.LVL70:
	.loc 1 3779 0
	popl	%ebp
	.cfi_restore 5
	.cfi_def_cfa 4, 4
	.loc 1 3778 0
	jmp	cpu_intrpt_restore
.LVL71:
	.cfi_endproc
.LFE101:
	.size	irq_unlock, .-irq_unlock
	.section	.text.unlikely.irq_unlock
.LCOLDE29:
	.section	.text.irq_unlock
.LHOTE29:
	.section	.text.unlikely._SysFatalErrorHandler,"ax",@progbits
.LCOLDB30:
	.section	.text._SysFatalErrorHandler,"ax",@progbits
.LHOTB30:
	.globl	_SysFatalErrorHandler
	.type	_SysFatalErrorHandler, @function
_SysFatalErrorHandler:
.LFB102:
	.loc 1 3782 0
	.cfi_startproc
.LVL72:
	pushl	%ebp
	.cfi_def_cfa_offset 8
	.cfi_offset 5, -8
	movl	%esp, %ebp
	.cfi_def_cfa_register 5
	.loc 1 3783 0
	popl	%ebp
	.cfi_restore 5
	.cfi_def_cfa 4, 4
	ret
	.cfi_endproc
.LFE102:
	.size	_SysFatalErrorHandler, .-_SysFatalErrorHandler
	.section	.text.unlikely._SysFatalErrorHandler
.LCOLDE30:
	.section	.text._SysFatalErrorHandler
.LHOTE30:
	.section	.text.unlikely.k_timer_init,"ax",@progbits
.LCOLDB31:
	.section	.text.k_timer_init,"ax",@progbits
.LHOTB31:
	.globl	k_timer_init
	.type	k_timer_init, @function
k_timer_init:
.LFB103:
	.loc 1 3785 0
	.cfi_startproc
.LVL73:
	pushl	%ebp
	.cfi_def_cfa_offset 8
	.cfi_offset 5, -8
	movl	%esp, %ebp
	.cfi_def_cfa_register 5
	subl	$16, %esp
	.loc 1 3785 0
	movl	8(%ebp), %eax
	movl	12(%ebp), %edx
	movl	16(%ebp), %ecx
	.loc 1 3789 0
	movl	%edx, 4(%eax)
	.loc 1 3790 0
	movl	%ecx, 8(%eax)
	.loc 1 3791 0
	pushl	$0
	pushl	$0
	pushl	$1000
	pushl	%ecx
	pushl	%edx
	pushl	%eax
	call	aos_timer_new_ext
.LVL74:
	.loc 1 3795 0
	addl	$32, %esp
	leave
	.cfi_restore 5
	.cfi_def_cfa 4, 4
	ret
	.cfi_endproc
.LFE103:
	.size	k_timer_init, .-k_timer_init
	.section	.text.unlikely.k_timer_init
.LCOLDE31:
	.section	.text.k_timer_init
.LHOTE31:
	.section	.text.unlikely.k_timer_start,"ax",@progbits
.LCOLDB32:
	.section	.text.k_timer_start,"ax",@progbits
.LHOTB32:
	.globl	k_timer_start
	.type	k_timer_start, @function
k_timer_start:
.LFB104:
	.loc 1 3797 0
	.cfi_startproc
.LVL75:
	pushl	%ebp
	.cfi_def_cfa_offset 8
	.cfi_offset 5, -8
	movl	%esp, %ebp
	.cfi_def_cfa_register 5
	pushl	%esi
	pushl	%ebx
	.cfi_offset 6, -12
	.cfi_offset 3, -16
	.loc 1 3797 0
	movl	12(%ebp), %esi
	movl	8(%ebp), %ebx
	.loc 1 3801 0
	movl	%esi, 12(%ebx)
	.loc 1 3802 0
	call	aos_now_ms
.LVL76:
	.loc 1 3803 0
	subl	$12, %esp
	.loc 1 3802 0
	movl	%eax, 16(%ebx)
	.loc 1 3803 0
	pushl	%ebx
	call	aos_timer_stop
.LVL77:
	.loc 1 3807 0
	popl	%eax
	popl	%edx
	pushl	%esi
	pushl	%ebx
	call	aos_timer_change
.LVL78:
	.loc 1 3811 0
	movl	%ebx, 8(%ebp)
	addl	$16, %esp
	.loc 1 3815 0
	leal	-8(%ebp), %esp
	popl	%ebx
	.cfi_restore 3
	popl	%esi
	.cfi_restore 6
	popl	%ebp
	.cfi_restore 5
	.cfi_def_cfa 4, 4
	.loc 1 3811 0
	jmp	aos_timer_start
.LVL79:
	.cfi_endproc
.LFE104:
	.size	k_timer_start, .-k_timer_start
	.section	.text.unlikely.k_timer_start
.LCOLDE32:
	.section	.text.k_timer_start
.LHOTE32:
	.section	.text.unlikely.k_timer_stop,"ax",@progbits
.LCOLDB33:
	.section	.text.k_timer_stop,"ax",@progbits
.LHOTB33:
	.globl	k_timer_stop
	.type	k_timer_stop, @function
k_timer_stop:
.LFB105:
	.loc 1 3817 0
	.cfi_startproc
.LVL80:
	pushl	%ebp
	.cfi_def_cfa_offset 8
	.cfi_offset 5, -8
	movl	%esp, %ebp
	.cfi_def_cfa_register 5
	.loc 1 3825 0
	popl	%ebp
	.cfi_restore 5
	.cfi_def_cfa 4, 4
	.loc 1 3821 0
	jmp	aos_timer_stop
.LVL81:
	.cfi_endproc
.LFE105:
	.size	k_timer_stop, .-k_timer_stop
	.section	.text.unlikely.k_timer_stop
.LCOLDE33:
	.section	.text.k_timer_stop
.LHOTE33:
	.section	.text.unlikely.k_sleep,"ax",@progbits
.LCOLDB34:
	.section	.text.k_sleep,"ax",@progbits
.LHOTB34:
	.globl	k_sleep
	.type	k_sleep, @function
k_sleep:
.LFB106:
	.loc 1 3827 0
	.cfi_startproc
.LVL82:
	pushl	%ebp
	.cfi_def_cfa_offset 8
	.cfi_offset 5, -8
	movl	%esp, %ebp
	.cfi_def_cfa_register 5
	.loc 1 3829 0
	popl	%ebp
	.cfi_restore 5
	.cfi_def_cfa 4, 4
	.loc 1 3828 0
	jmp	aos_msleep
.LVL83:
	.cfi_endproc
.LFE106:
	.size	k_sleep, .-k_sleep
	.section	.text.unlikely.k_sleep
.LCOLDE34:
	.section	.text.k_sleep
.LHOTE34:
	.section	.text.unlikely.find_msb_set,"ax",@progbits
.LCOLDB35:
	.section	.text.find_msb_set,"ax",@progbits
.LHOTB35:
	.globl	find_msb_set
	.type	find_msb_set, @function
find_msb_set:
.LFB107:
	.loc 1 3831 0
	.cfi_startproc
.LVL84:
	pushl	%ebp
	.cfi_def_cfa_offset 8
	.cfi_offset 5, -8
	xorl	%eax, %eax
	movl	%esp, %ebp
	.cfi_def_cfa_register 5
	.loc 1 3831 0
	movl	8(%ebp), %ecx
	.loc 1 3834 0
	testl	%ecx, %ecx
	je	.L94
	movl	$-2147483648, %eax
	xorl	%edx, %edx
.LVL85:
.L95:
	.loc 1 3837 0
	testl	%ecx, %eax
	jne	.L101
	.loc 1 3838 0
	incl	%edx
.LVL86:
	.loc 1 3839 0
	shrl	%eax
.LVL87:
	jmp	.L95
.L101:
	.loc 1 3841 0
	movl	$32, %eax
.LVL88:
	subl	%edx, %eax
.LVL89:
.L94:
	.loc 1 3842 0
	popl	%ebp
	.cfi_restore 5
	.cfi_def_cfa 4, 4
	ret
	.cfi_endproc
.LFE107:
	.size	find_msb_set, .-find_msb_set
	.section	.text.unlikely.find_msb_set
.LCOLDE35:
	.section	.text.find_msb_set
.LHOTE35:
	.section	.text.unlikely.find_lsb_set,"ax",@progbits
.LCOLDB36:
	.section	.text.find_lsb_set,"ax",@progbits
.LHOTB36:
	.globl	find_lsb_set
	.type	find_lsb_set, @function
find_lsb_set:
.LFB108:
	.loc 1 3844 0
	.cfi_startproc
.LVL90:
	pushl	%ebp
	.cfi_def_cfa_offset 8
	.cfi_offset 5, -8
	.loc 1 3848 0
	xorl	%eax, %eax
	movl	$1, %ecx
	.loc 1 3844 0
	movl	%esp, %ebp
	.cfi_def_cfa_register 5
	.loc 1 3844 0
	movl	8(%ebp), %edx
	.loc 1 3847 0
	testl	%edx, %edx
	je	.L103
.LVL91:
.L104:
	.loc 1 3850 0
	testl	%edx, %ecx
	jne	.L103
	.loc 1 3851 0
	incl	%eax
.LVL92:
	.loc 1 3852 0
	xorl	%ecx, %ecx
	jmp	.L104
.LVL93:
.L103:
	.loc 1 3855 0
	popl	%ebp
	.cfi_restore 5
	.cfi_def_cfa 4, 4
	ret
	.cfi_endproc
.LFE108:
	.size	find_lsb_set, .-find_lsb_set
	.section	.text.unlikely.find_lsb_set
.LCOLDE36:
	.section	.text.find_lsb_set
.LHOTE36:
	.section	.rodata.__func__.5524,"a",@progbits
	.align 4
	.type	__func__.5524, @object
	.size	__func__.5524, 15
__func__.5524:
	.string	"k_queue_insert"
	.section	.rodata.__func__.5514,"a",@progbits
	.align 4
	.type	__func__.5514, @object
	.size	__func__.5514, 13
__func__.5514:
	.string	"k_queue_init"
	.text
.Letext0:
	.section	.text.unlikely.k_queue_init
.Letext_cold0:
	.section	.note.GNU-stack,"",@progbits
