	.file	"aos_init.c"
	.text
.Ltext0:
	.section	.text.unlikely.hex,"ax",@progbits
.LCOLDB0:
	.section	.text.hex,"ax",@progbits
.LHOTB0:
	.section	.text.unlikely.hex
.Ltext_cold0:
	.section	.text.hex
	.type	hex, @function
hex:
.LFB22:
	.file 1 "kernel/init/aos_init.c"
	.loc 1 168 0
	.cfi_startproc
.LVL0:
	.loc 1 169 0
	leal	-48(%eax), %edx
	.loc 1 168 0
	pushl	%ebp
	.cfi_def_cfa_offset 8
	.cfi_offset 5, -8
	.loc 1 169 0
	cmpb	$9, %dl
	.loc 1 168 0
	movl	%esp, %ebp
	.cfi_def_cfa_register 5
	.loc 1 169 0
	jbe	.L4
	.loc 1 171 0
	leal	-97(%eax), %edx
	cmpb	$25, %dl
	ja	.L3
	.loc 1 172 0
	subl	$87, %eax
.LVL1:
	jmp	.L2
.LVL2:
.L3:
	.loc 1 173 0
	leal	-65(%eax), %edx
	.loc 1 174 0
	subl	$55, %eax
.LVL3:
	cmpb	$25, %dl
	movb	$0, %dl
	cmova	%edx, %eax
	jmp	.L2
.LVL4:
.L4:
	movb	%dl, %al
.LVL5:
.L2:
	.loc 1 176 0
	popl	%ebp
	.cfi_restore 5
	.cfi_def_cfa 4, 4
	ret
	.cfi_endproc
.LFE22:
	.size	hex, .-hex
	.section	.text.unlikely.hex
.LCOLDE0:
	.section	.text.hex
.LHOTE0:
	.section	.rodata.str1.1,"aMS",@progbits,1
.LC1:
	.string	"tftp client get succeed\r\n"
.LC2:
	.string	"tftp client get failed\r\n"
	.section	.text.unlikely.tftp_get_done,"ax",@progbits
.LCOLDB3:
	.section	.text.tftp_get_done,"ax",@progbits
.LHOTB3:
	.type	tftp_get_done, @function
tftp_get_done:
.LFB18:
	.loc 1 101 0
	.cfi_startproc
.LVL6:
	pushl	%ebp
	.cfi_def_cfa_offset 8
	.cfi_offset 5, -8
	movl	%esp, %ebp
	.cfi_def_cfa_register 5
	.loc 1 102 0
	cmpl	$0, 8(%ebp)
	jne	.L9
	.loc 1 103 0
	movl	$.LC1, 8(%ebp)
.LVL7:
	.loc 1 107 0
	popl	%ebp
	.cfi_remember_state
	.cfi_restore 5
	.cfi_def_cfa 4, 4
	.loc 1 103 0
	jmp	aos_cli_printf
.LVL8:
.L9:
	.cfi_restore_state
	.loc 1 105 0
	movl	$.LC2, 8(%ebp)
.LVL9:
	.loc 1 107 0
	popl	%ebp
	.cfi_restore 5
	.cfi_def_cfa 4, 4
	.loc 1 105 0
	jmp	aos_cli_printf
.LVL10:
	.cfi_endproc
.LFE18:
	.size	tftp_get_done, .-tftp_get_done
	.section	.text.unlikely.tftp_get_done
.LCOLDE3:
	.section	.text.tftp_get_done
.LHOTE3:
	.section	.rodata.str1.1
.LC4:
	.string	"error creating socket!\n"
.LC5:
	.string	"error send data %d!\n"
	.section	.text.unlikely.udp_cmd,"ax",@progbits
.LCOLDB6:
	.section	.text.udp_cmd,"ax",@progbits
.LHOTB6:
	.type	udp_cmd, @function
udp_cmd:
.LFB17:
	.loc 1 72 0
	.cfi_startproc
.LVL11:
	pushl	%ebp
	.cfi_def_cfa_offset 8
	.cfi_offset 5, -8
	movl	%esp, %ebp
	.cfi_def_cfa_register 5
	pushl	%edi
	pushl	%esi
	pushl	%ebx
	subl	$44, %esp
	.cfi_offset 7, -12
	.cfi_offset 6, -16
	.cfi_offset 3, -20
	.loc 1 72 0
	movl	20(%ebp), %esi
	movl	%gs:20, %eax
	movl	%eax, -28(%ebp)
	xorl	%eax, %eax
	.loc 1 75 0
	cmpl	$3, 16(%ebp)
	jle	.L11
	.loc 1 79 0
	leal	-44(%ebp), %edi
	movl	$4, %ecx
	.loc 1 81 0
	subl	$12, %esp
	.loc 1 79 0
	rep stosl
	.loc 1 81 0
	pushl	8(%esi)
	.loc 1 80 0
	movb	$2, -43(%ebp)
	.loc 1 81 0
	call	atoi
.LVL12:
	movzwl	%ax, %eax
	movl	%eax, (%esp)
	call	lwip_htons
.LVL13:
	.loc 1 82 0
	popl	%edi
	pushl	4(%esi)
	.loc 1 81 0
	movw	%ax, -42(%ebp)
	.loc 1 82 0
	call	ipaddr_addr
.LVL14:
	.loc 1 84 0
	addl	$12, %esp
	.loc 1 82 0
	movl	%eax, -40(%ebp)
	.loc 1 84 0
	pushl	$0
	pushl	$2
	pushl	$2
	call	lwip_socket
.LVL15:
	.loc 1 85 0
	addl	$16, %esp
	testl	%eax, %eax
	.loc 1 84 0
	movl	%eax, %ebx
.LVL16:
	.loc 1 85 0
	jns	.L13
	.loc 1 86 0
	subl	$12, %esp
	pushl	$.LC4
	call	aos_cli_printf
.LVL17:
	jmp	.L18
.LVL18:
.L13:
	.loc 1 90 0
	movl	12(%esi), %edx
	xorl	%eax, %eax
.LVL19:
	orl	$-1, %ecx
	movl	%edx, %edi
	repnz scasb
	leal	-44(%ebp), %eax
	pushl	%esi
	pushl	%esi
	notl	%ecx
	pushl	$16
	decl	%ecx
	pushl	%eax
	pushl	$0
	pushl	%ecx
	pushl	%edx
	pushl	%ebx
	call	lwip_sendto
.LVL20:
	.loc 1 92 0
	addl	$32, %esp
	testl	%eax, %eax
	jns	.L14
	.loc 1 93 0
	pushl	%edx
	pushl	%edx
	pushl	%eax
	pushl	$.LC5
	call	aos_cli_printf
.LVL21:
	addl	$16, %esp
.L14:
	.loc 1 96 0
	subl	$12, %esp
	pushl	%ebx
	call	lwip_close
.LVL22:
.L18:
	addl	$16, %esp
.LVL23:
.L11:
	.loc 1 97 0
	movl	-28(%ebp), %eax
	xorl	%gs:20, %eax
	je	.L16
	call	__stack_chk_fail
.LVL24:
.L16:
	leal	-12(%ebp), %esp
	popl	%ebx
	.cfi_restore 3
	popl	%esi
	.cfi_restore 6
	popl	%edi
	.cfi_restore 7
	popl	%ebp
	.cfi_restore 5
	.cfi_def_cfa 4, 4
	ret
	.cfi_endproc
.LFE17:
	.size	udp_cmd, .-udp_cmd
	.section	.text.unlikely.udp_cmd
.LCOLDE6:
	.section	.text.udp_cmd
.LHOTE6:
	.section	.rodata.str1.1
.LC7:
	.string	"done"
.LC8:
	.string	"failed"
.LC9:
	.string	"10.0.0.2"
.LC10:
	.string	"server"
.LC11:
	.string	"start"
.LC12:
	.string	"tftp start server %s\r\n"
.LC13:
	.string	"stop"
.LC14:
	.string	"tftp stop server done\r\n"
.LC15:
	.string	"get"
.LC16:
	.string	"ota"
.LC17:
	.string	"Usage: tftp server start/stop\r\n"
.LC18:
	.string	"       tftp get path/to/file\r\n"
	.section	.text.unlikely.tftp_cmd,"ax",@progbits
.LCOLDB19:
	.section	.text.tftp_cmd,"ax",@progbits
.LHOTB19:
	.type	tftp_cmd, @function
tftp_cmd:
.LFB19:
	.loc 1 113 0
	.cfi_startproc
.LVL25:
	pushl	%ebp
	.cfi_def_cfa_offset 8
	.cfi_offset 5, -8
	movl	%esp, %ebp
	.cfi_def_cfa_register 5
	pushl	%edi
	pushl	%esi
	pushl	%ebx
	subl	$28, %esp
	.cfi_offset 7, -12
	.cfi_offset 6, -16
	.cfi_offset 3, -20
	.loc 1 113 0
	movl	16(%ebp), %edi
	movl	20(%ebp), %ebx
	movl	%gs:20, %eax
	movl	%eax, -28(%ebp)
	xorl	%eax, %eax
	.loc 1 114 0
	cmpl	$2, %edi
	jle	.L20
	.loc 1 118 0
	movl	4(%ebx), %esi
	pushl	%eax
	pushl	$6
	pushl	$.LC10
	pushl	%esi
	call	strncmp
.LVL26:
	addl	$16, %esp
	testl	%eax, %eax
	jne	.L21
	.loc 1 119 0
	movl	8(%ebx), %ebx
	pushl	%eax
	pushl	$5
	pushl	$.LC11
	pushl	%ebx
	call	strncmp
.LVL27:
	addl	$16, %esp
	testl	%eax, %eax
	jne	.L22
.LBB2:
	.loc 1 120 0
	call	tftp_server_start
.LVL28:
	.loc 1 121 0
	testb	%al, %al
	movl	$.LC8, %edx
	movl	$.LC7, %eax
.LVL29:
	cmovne	%edx, %eax
	pushl	%edi
	pushl	%edi
	pushl	%eax
	pushl	$.LC12
	jmp	.L31
.L22:
.LBE2:
	.loc 1 123 0
	pushl	%esi
	pushl	$4
	pushl	$.LC13
	pushl	%ebx
	call	strncmp
.LVL30:
	addl	$16, %esp
	testl	%eax, %eax
	jne	.L20
	.loc 1 124 0
	call	tftp_server_stop
.LVL31:
	.loc 1 125 0
	subl	$12, %esp
	pushl	$.LC14
	jmp	.L31
.L21:
	.loc 1 129 0
	pushl	%ecx
	pushl	$3
	pushl	$.LC15
	pushl	%esi
	call	strncmp
.LVL32:
	addl	$16, %esp
	testl	%eax, %eax
	jne	.L25
.LBB3:
	.loc 1 131 0
	cmpl	$4, %edi
	movl	$.LC9, %eax
	jne	.L26
	.loc 1 131 0 is_stmt 0 discriminator 1
	movl	8(%ebx), %eax
.L26:
	.loc 1 131 0 discriminator 4
	leal	-32(%ebp), %esi
	pushl	%edx
	pushl	%edx
	pushl	%esi
	pushl	%eax
	call	ip4addr_aton
.LVL33:
	.loc 1 132 0 is_stmt 1 discriminator 4
	pushl	$tftp_get_done
	pushl	$client_ctx
	pushl	-4(%ebx,%edi,4)
	pushl	%esi
	call	tftp_client_get
.LVL34:
	addl	$32, %esp
	jmp	.L19
.L25:
.LBE3:
	.loc 1 134 0
	pushl	%eax
	pushl	$3
	pushl	$.LC16
	pushl	%esi
	call	strncmp
.LVL35:
	addl	$16, %esp
	testl	%eax, %eax
	jne	.L20
.LBB4:
	.loc 1 138 0
	leal	-32(%ebp), %eax
	pushl	$ota_get_done
	pushl	$ota_ctx
	pushl	8(%ebx)
	.loc 1 137 0
	movl	$33554442, -32(%ebp)
	.loc 1 138 0
	pushl	%eax
	call	tftp_client_get
.LVL36:
	jmp	.L32
.L20:
.LBE4:
	.loc 1 143 0
	subl	$12, %esp
	pushl	$.LC17
	call	aos_cli_printf
.LVL37:
	.loc 1 144 0
	movl	$.LC18, (%esp)
.L31:
	call	aos_cli_printf
.LVL38:
.L32:
	addl	$16, %esp
.L19:
	.loc 1 145 0
	movl	-28(%ebp), %eax
	xorl	%gs:20, %eax
	je	.L27
	call	__stack_chk_fail
.LVL39:
.L27:
	leal	-12(%ebp), %esp
	popl	%ebx
	.cfi_restore 3
	popl	%esi
	.cfi_restore 6
	popl	%edi
	.cfi_restore 7
	popl	%ebp
	.cfi_restore 5
	.cfi_def_cfa 4, 4
	ret
	.cfi_endproc
.LFE19:
	.size	tftp_cmd, .-tftp_cmd
	.section	.text.unlikely.tftp_cmd
.LCOLDE19:
	.section	.text.tftp_cmd
.LHOTE19:
	.section	.text.unlikely.wifi_debug_cmd,"ax",@progbits
.LCOLDB20:
	.section	.text.wifi_debug_cmd,"ax",@progbits
.LHOTB20:
	.globl	wifi_debug_cmd
	.type	wifi_debug_cmd, @function
wifi_debug_cmd:
.LFB21:
	.loc 1 163 0
	.cfi_startproc
.LVL40:
	pushl	%ebp
	.cfi_def_cfa_offset 8
	.cfi_offset 5, -8
	movl	%esp, %ebp
	.cfi_def_cfa_register 5
	.loc 1 164 0
	movl	$0, 8(%ebp)
.LVL41:
	.loc 1 165 0
	popl	%ebp
	.cfi_restore 5
	.cfi_def_cfa 4, 4
	.loc 1 164 0
	jmp	hal_wifi_start_debug_mode
.LVL42:
	.cfi_endproc
.LFE21:
	.size	wifi_debug_cmd, .-wifi_debug_cmd
	.section	.text.unlikely.wifi_debug_cmd
.LCOLDE20:
	.section	.text.wifi_debug_cmd
.LHOTE20:
	.section	.rodata.str1.1
.LC21:
	.string	"MAC address: %02x-%02x-%02x-%02x-%02x-%02x\r\n"
.LC22:
	.string	"Set MAC address: %02x-%02x-%02x-%02x-%02x-%02x\r\n"
.LC23:
	.string	"invalid cmd\r\n"
	.section	.text.unlikely.mac_cmd,"ax",@progbits
.LCOLDB24:
	.section	.text.mac_cmd,"ax",@progbits
.LHOTB24:
	.globl	mac_cmd
	.type	mac_cmd, @function
mac_cmd:
.LFB24:
	.loc 1 188 0
	.cfi_startproc
.LVL43:
	pushl	%ebp
	.cfi_def_cfa_offset 8
	.cfi_offset 5, -8
	movl	%esp, %ebp
	.cfi_def_cfa_register 5
	pushl	%esi
	pushl	%ebx
	subl	$16, %esp
	.cfi_offset 6, -12
	.cfi_offset 3, -16
	.loc 1 188 0
	movl	16(%ebp), %eax
	movl	20(%ebp), %edx
	movl	%gs:20, %ebx
	movl	%ebx, -12(%ebp)
	xorl	%ebx, %ebx
	.loc 1 191 0
	cmpl	$1, %eax
	jne	.L36
.LVL44:
.LBB9:
.LBB10:
	.loc 1 193 0
	leal	-18(%ebp), %eax
.LVL45:
	pushl	%edx
	pushl	%edx
	pushl	%eax
	pushl	$0
	call	hal_wifi_get_mac_addr
.LVL46:
	.loc 1 194 0
	movzbl	-13(%ebp), %eax
	addl	$12, %esp
	pushl	%eax
	movzbl	-14(%ebp), %eax
	pushl	%eax
	movzbl	-15(%ebp), %eax
	pushl	%eax
	movzbl	-16(%ebp), %eax
	pushl	%eax
	movzbl	-17(%ebp), %eax
	pushl	%eax
	movzbl	-18(%ebp), %eax
	pushl	%eax
	pushl	$.LC21
	jmp	.L45
.LVL47:
.L36:
.LBE10:
.LBE9:
	.loc 1 197 0
	cmpl	$2, %eax
	jne	.L38
	.loc 1 199 0
	movl	4(%edx), %ebx
.LVL48:
.LBB11:
.LBB12:
	.loc 1 181 0
	xorl	%ecx, %ecx
.LVL49:
.L39:
	movsbl	(%ebx,%ecx,2), %eax
	testb	%al, %al
	je	.L41
	.loc 1 182 0
	call	hex
.LVL50:
	sall	$4, %eax
	movb	%al, -18(%ebp,%ecx)
	movl	%eax, %esi
	.loc 1 183 0
	movsbl	1(%ebx,%ecx,2), %eax
	call	hex
.LVL51:
	orl	%esi, %eax
	movb	%al, -18(%ebp,%ecx)
	.loc 1 181 0
	incl	%ecx
.LVL52:
	cmpl	$6, %ecx
	jne	.L39
.L41:
.LVL53:
.LBE12:
.LBE11:
	.loc 1 200 0
	pushl	%eax
	pushl	%eax
	leal	-18(%ebp), %eax
	pushl	%eax
	pushl	$0
	call	hal_wifi_set_mac_addr
.LVL54:
	.loc 1 201 0
	movzbl	-13(%ebp), %eax
	addl	$12, %esp
	pushl	%eax
	movzbl	-14(%ebp), %eax
	pushl	%eax
	movzbl	-15(%ebp), %eax
	pushl	%eax
	movzbl	-16(%ebp), %eax
	pushl	%eax
	movzbl	-17(%ebp), %eax
	pushl	%eax
	movzbl	-18(%ebp), %eax
	pushl	%eax
	pushl	$.LC22
.L45:
	call	aos_cli_printf
.LVL55:
	addl	$32, %esp
	jmp	.L35
.L38:
	.loc 1 206 0
	subl	$12, %esp
	pushl	$.LC23
	call	aos_cli_printf
.LVL56:
	addl	$16, %esp
.L35:
	.loc 1 208 0
	movl	-12(%ebp), %eax
	xorl	%gs:20, %eax
	je	.L42
	call	__stack_chk_fail
.LVL57:
.L42:
	leal	-8(%ebp), %esp
	popl	%ebx
	.cfi_restore 3
	popl	%esi
	.cfi_restore 6
	popl	%ebp
	.cfi_restore 5
	.cfi_def_cfa 4, 4
	ret
	.cfi_endproc
.LFE24:
	.size	mac_cmd, .-mac_cmd
	.section	.text.unlikely.mac_cmd
.LCOLDE24:
	.section	.text.mac_cmd
.LHOTE24:
	.section	.text.unlikely.tcpip_cli_init,"ax",@progbits
.LCOLDB25:
	.section	.text.tcpip_cli_init,"ax",@progbits
.LHOTB25:
	.globl	tcpip_cli_init
	.type	tcpip_cli_init, @function
tcpip_cli_init:
.LFB20:
	.loc 1 157 0
	.cfi_startproc
	pushl	%ebp
	.cfi_def_cfa_offset 8
	.cfi_offset 5, -8
	movl	%esp, %ebp
	.cfi_def_cfa_register 5
	subl	$16, %esp
	.loc 1 158 0
	pushl	$2
	pushl	$tcpip_cli_cmd
	call	aos_cli_register_commands
.LVL58:
	.loc 1 159 0
	addl	$16, %esp
	leave
	.cfi_restore 5
	.cfi_def_cfa 4, 4
	ret
	.cfi_endproc
.LFE20:
	.size	tcpip_cli_init, .-tcpip_cli_init
	.section	.text.unlikely.tcpip_cli_init
.LCOLDE25:
	.section	.text.tcpip_cli_init
.LHOTE25:
	.section	.text.unlikely.hal_wifi_cli_init,"ax",@progbits
.LCOLDB26:
	.section	.text.hal_wifi_cli_init,"ax",@progbits
.LHOTB26:
	.globl	hal_wifi_cli_init
	.type	hal_wifi_cli_init, @function
hal_wifi_cli_init:
.LFB25:
	.loc 1 217 0
	.cfi_startproc
	pushl	%ebp
	.cfi_def_cfa_offset 8
	.cfi_offset 5, -8
	movl	%esp, %ebp
	.cfi_def_cfa_register 5
	subl	$16, %esp
	.loc 1 218 0
	pushl	$2
	pushl	$wifi_cli_cmd
	call	aos_cli_register_commands
.LVL59:
	.loc 1 219 0
	addl	$16, %esp
	leave
	.cfi_restore 5
	.cfi_def_cfa 4, 4
	ret
	.cfi_endproc
.LFE25:
	.size	hal_wifi_cli_init, .-hal_wifi_cli_init
	.section	.text.unlikely.hal_wifi_cli_init
.LCOLDE26:
	.section	.text.hal_wifi_cli_init
.LHOTE26:
	.section	.text.unlikely.cli_service_init,"ax",@progbits
.LCOLDB27:
	.section	.text.cli_service_init,"ax",@progbits
.LHOTB27:
	.globl	cli_service_init
	.type	cli_service_init, @function
cli_service_init:
.LFB26:
	.loc 1 223 0
	.cfi_startproc
.LVL60:
	pushl	%ebp
	.cfi_def_cfa_offset 8
	.cfi_offset 5, -8
	movl	%esp, %ebp
	.cfi_def_cfa_register 5
	subl	$8, %esp
	.loc 1 224 0
	movl	8(%ebp), %eax
	cmpb	$0, 8(%eax)
	je	.L50
.LVL61:
.LBB15:
.LBB16:
	.loc 1 226 0
	call	aos_cli_init
.LVL62:
	.loc 1 229 0
	call	dumpsys_cli_init
.LVL63:
	.loc 1 232 0
	call	tcpip_cli_init
.LVL64:
.LBE16:
.LBE15:
	.loc 1 237 0
	leave
	.cfi_remember_state
	.cfi_restore 5
	.cfi_def_cfa 4, 4
.LBB18:
.LBB17:
	.loc 1 234 0
	jmp	hal_wifi_cli_init
.LVL65:
.L50:
	.cfi_restore_state
.LBE17:
.LBE18:
	.loc 1 237 0
	leave
	.cfi_restore 5
	.cfi_def_cfa 4, 4
	ret
	.cfi_endproc
.LFE26:
	.size	cli_service_init, .-cli_service_init
	.section	.text.unlikely.cli_service_init
.LCOLDE27:
	.section	.text.cli_service_init
.LHOTE27:
	.section	.text.unlikely.aos_kernel_init,"ax",@progbits
.LCOLDB28:
	.section	.text.aos_kernel_init,"ax",@progbits
.LHOTB28:
	.globl	aos_kernel_init
	.type	aos_kernel_init, @function
aos_kernel_init:
.LFB27:
	.loc 1 242 0
	.cfi_startproc
.LVL66:
	pushl	%ebp
	.cfi_def_cfa_offset 8
	.cfi_offset 5, -8
	movl	%esp, %ebp
	.cfi_def_cfa_register 5
	pushl	%ebx
	pushl	%eax
	.cfi_offset 3, -12
	.loc 1 242 0
	movl	8(%ebp), %ebx
	.loc 1 244 0
	call	vfs_init
.LVL67:
	.loc 1 245 0
	call	vfs_device_init
.LVL68:
	.loc 1 249 0
	subl	$12, %esp
	pushl	%ebx
	call	cli_service_init
.LVL69:
	.loc 1 256 0
	call	aos_kv_init
.LVL70:
	.loc 1 264 0
	call	aos_loop_init
.LVL71:
	.loc 1 268 0
	call	trace_start
.LVL72:
	.loc 1 272 0
	call	ota_service_init
.LVL73:
	.loc 1 299 0
	call	aos_framework_init
.LVL74:
	.loc 1 302 0
	popl	%edx
	popl	%ecx
	pushl	4(%ebx)
	pushl	(%ebx)
	call	application_start
.LVL75:
	.loc 1 306 0
	xorl	%eax, %eax
	movl	-4(%ebp), %ebx
	leave
	.cfi_restore 5
	.cfi_restore 3
	.cfi_def_cfa 4, 4
	ret
	.cfi_endproc
.LFE27:
	.size	aos_kernel_init, .-aos_kernel_init
	.section	.text.unlikely.aos_kernel_init
.LCOLDE28:
	.section	.text.aos_kernel_init
.LHOTE28:
	.globl	wifi_cli_cmd
	.section	.rodata.str1.1
.LC29:
	.string	"wifi_debug"
.LC30:
	.string	"wifi debug mode"
.LC31:
	.string	"mac"
.LC32:
	.string	"get/set mac"
	.section	.data.wifi_cli_cmd,"aw",@progbits
	.align 4
	.type	wifi_cli_cmd, @object
	.size	wifi_cli_cmd, 24
wifi_cli_cmd:
	.long	.LC29
	.long	.LC30
	.long	wifi_debug_cmd
	.long	.LC31
	.long	.LC32
	.long	mac_cmd
	.globl	tcpip_cli_cmd
	.section	.rodata.str1.1
.LC33:
	.string	"tftp"
.LC34:
	.string	"tftp server/client control"
.LC35:
	.string	"udp"
.LC36:
	.string	"[ip] [port] [string data] send udp data"
	.section	.data.tcpip_cli_cmd,"aw",@progbits
	.align 4
	.type	tcpip_cli_cmd, @object
	.size	tcpip_cli_cmd, 24
tcpip_cli_cmd:
	.long	.LC33
	.long	.LC34
	.long	tftp_cmd
	.long	.LC35
	.long	.LC36
	.long	udp_cmd
	.text
.Letext0:
	.section	.text.unlikely.hex
.Letext_cold0:
	.file 2 "/home/stone/Documents/Ali_IOT/build/compiler/gcc-arm-none-eabi/Linux64/arm-none-eabi/include/machine/_default_types.h"
	.file 3 "/home/stone/Documents/Ali_IOT/build/compiler/gcc-arm-none-eabi/Linux64/arm-none-eabi/include/sys/_stdint.h"
	.file 4 "/home/stone/Documents/Ali_IOT/build/compiler/gcc-arm-none-eabi/Linux64/arm-none-eabi/include/sys/types.h"
	.file 5 "./include/aos/cli.h"
	.file 6 "./include/aos/init.h"
	.file 7 "././platform/mcu/moc108/include/lwip-2.0.2/arch/cc.h"
	.file 8 "./kernel/protocols/net/include/lwip/ip4_addr.h"
	.file 9 "./kernel/protocols/net/include/lwip/ip_addr.h"
	.file 10 "./kernel/protocols/net/include/lwip/inet.h"
	.file 11 "./kernel/protocols/net/include/lwip/err.h"
	.file 12 "./kernel/protocols/net/include/lwip/sockets.h"
	.file 13 "./kernel/protocols/net/include/lwip/pbuf.h"
	.file 14 "./kernel/protocols/net/include/lwip/apps/tftp.h"
	.file 15 "./include/aos/log.h"
	.file 16 "./kernel/protocols/net/include/lwip/def.h"
	.file 17 "/home/stone/Documents/Ali_IOT/build/compiler/gcc-arm-none-eabi/Linux64/arm-none-eabi/include/string.h"
	.file 18 "./include/hal/wifi.h"
	.file 19 "./include/aos/yloop.h"
	.section	.note.GNU-stack,"",@progbits
