	.file	"api_lib.c"
	.text
.Ltext0:
	.section	.text.unlikely.netconn_apimsg,"ax",@progbits
.LCOLDB0:
	.section	.text.netconn_apimsg,"ax",@progbits
.LHOTB0:
	.section	.text.unlikely.netconn_apimsg
.Ltext_cold0:
	.section	.text.netconn_apimsg
	.type	netconn_apimsg, @function
netconn_apimsg:
.LFB23:
	.file 1 "kernel/protocols/net/api/api_lib.c"
	.loc 1 93 0
	.cfi_startproc
.LVL0:
	pushl	%ebp
	.cfi_def_cfa_offset 8
	.cfi_offset 5, -8
	movl	%esp, %ebp
	.cfi_def_cfa_register 5
	pushl	%ebx
	.cfi_offset 3, -12
	movl	%edx, %ebx
	subl	$8, %esp
	.loc 1 105 0
	movl	(%edx), %ecx
	.loc 1 98 0
	movb	$-6, 4(%edx)
	.loc 1 105 0
	leal	16(%ecx), %edx
.LVL1:
	pushl	%edx
	pushl	%ebx
	pushl	%eax
	call	tcpip_send_msg_wait_sem
.LVL2:
	.loc 1 106 0
	addl	$16, %esp
	testb	%al, %al
	jne	.L2
	.loc 1 107 0
	movb	4(%ebx), %al
.LVL3:
.L2:
	.loc 1 110 0
	movl	-4(%ebp), %ebx
.LVL4:
	leave
	.cfi_restore 5
	.cfi_restore 3
	.cfi_def_cfa 4, 4
	ret
	.cfi_endproc
.LFE23:
	.size	netconn_apimsg, .-netconn_apimsg
	.section	.text.unlikely.netconn_apimsg
.LCOLDE0:
	.section	.text.netconn_apimsg
.LHOTE0:
	.section	.rodata.str1.1,"aMS",@progbits,1
.LC1:
	.string	"netconn_close: invalid conn"
	.section	.text.unlikely.netconn_close_shutdown,"ax",@progbits
.LCOLDB2:
	.section	.text.netconn_close_shutdown,"ax",@progbits
.LHOTB2:
	.type	netconn_close_shutdown, @function
netconn_close_shutdown:
.LFB38:
	.loc 1 793 0
	.cfi_startproc
.LVL5:
	pushl	%ebp
	.cfi_def_cfa_offset 8
	.cfi_offset 5, -8
	movl	%esp, %ebp
	.cfi_def_cfa_register 5
	subl	$40, %esp
	.loc 1 793 0
	movl	%gs:20, %ecx
	movl	%ecx, -12(%ebp)
	xorl	%ecx, %ecx
	.loc 1 798 0
	testl	%eax, %eax
	jne	.L7
	.loc 1 798 0 discriminator 1
	subl	$12, %esp
	pushl	$.LC1
	call	bk_printf
.LVL6:
	addl	$16, %esp
	movb	$-16, %al
	jmp	.L8
.LVL7:
.L7:
	.loc 1 804 0
	movb	%dl, -28(%ebp)
	.loc 1 801 0
	movl	%eax, -36(%ebp)
	.loc 1 808 0
	call	sys_now
.LVL8:
	.loc 1 814 0
	leal	-36(%ebp), %edx
	.loc 1 808 0
	movl	%eax, -24(%ebp)
	.loc 1 814 0
	movl	$lwip_netconn_do_close, %eax
	call	netconn_apimsg
.LVL9:
.L8:
	.loc 1 818 0
	movl	-12(%ebp), %ecx
	xorl	%gs:20, %ecx
	je	.L9
	call	__stack_chk_fail
.LVL10:
.L9:
	leave
	.cfi_restore 5
	.cfi_def_cfa 4, 4
	ret
	.cfi_endproc
.LFE38:
	.size	netconn_close_shutdown, .-netconn_close_shutdown
	.section	.text.unlikely.netconn_close_shutdown
.LCOLDE2:
	.section	.text.netconn_close_shutdown
.LHOTE2:
	.section	.rodata.str1.1
.LC3:
	.string	"netconn_recv: invalid pointer"
.LC4:
	.string	"netconn_recv: invalid conn"
.LC5:
	.string	"netconn_recv: invalid recvmbox"
	.section	.text.unlikely.netconn_recv_data,"ax",@progbits
.LCOLDB6:
	.section	.text.netconn_recv_data,"ax",@progbits
.LHOTB6:
	.type	netconn_recv_data, @function
netconn_recv_data:
.LFB32:
	.loc 1 467 0
	.cfi_startproc
.LVL11:
	pushl	%ebp
	.cfi_def_cfa_offset 8
	.cfi_offset 5, -8
	movl	%esp, %ebp
	.cfi_def_cfa_register 5
	pushl	%edi
	pushl	%esi
	pushl	%ebx
	.cfi_offset 7, -12
	.cfi_offset 6, -16
	.cfi_offset 3, -20
	movl	%eax, %ebx
	subl	$44, %esp
	.loc 1 468 0
	movl	$0, -56(%ebp)
	.loc 1 467 0
	movl	%gs:20, %eax
	movl	%eax, -28(%ebp)
	xorl	%eax, %eax
.LVL12:
	.loc 1 478 0
	testl	%edx, %edx
	jne	.L12
	.loc 1 478 0 discriminator 1
	subl	$12, %esp
	pushl	$.LC3
	jmp	.L38
.L12:
	.loc 1 480 0
	testl	%ebx, %ebx
	movl	%edx, %esi
	.loc 1 479 0
	movl	$0, (%edx)
	.loc 1 480 0
	jne	.L14
	.loc 1 480 0 discriminator 1
	subl	$12, %esp
	pushl	$.LC4
.L38:
	call	bk_printf
.LVL13:
	addl	$16, %esp
	movb	$-16, %dl
	jmp	.L13
.LVL14:
.L14:
	.loc 1 483 0
	movl	(%ebx), %eax
	leal	20(%ebx), %edi
	andl	$240, %eax
	cmpl	$16, %eax
	jne	.L15
	.loc 1 486 0
	subl	$12, %esp
	pushl	%edi
	call	aos_queue_is_valid
.LVL15:
	addl	$16, %esp
	testl	%eax, %eax
	jne	.L15
	.loc 1 488 0
	subl	$12, %esp
	addl	$24, %ebx
.LVL16:
	pushl	%ebx
	call	aos_queue_is_valid
.LVL17:
	addl	$16, %esp
	cmpl	$1, %eax
	sbbl	%edx, %edx
	andl	$-4, %edx
	subl	$11, %edx
	jmp	.L13
.LVL18:
.L15:
	.loc 1 492 0
	subl	$12, %esp
	pushl	%edi
	call	aos_queue_is_valid
.LVL19:
	addl	$16, %esp
	testl	%eax, %eax
	jne	.L16
	.loc 1 492 0 is_stmt 0 discriminator 1
	subl	$12, %esp
	pushl	$.LC5
	call	bk_printf
.LVL20:
	addl	$16, %esp
	movb	$-11, %dl
	jmp	.L13
.L16:
	.loc 1 494 0 is_stmt 1
	movb	12(%ebx), %dl
.LVL21:
	.loc 1 495 0
	cmpb	$-12, %dl
	jl	.L13
	.loc 1 512 0
	pushl	%eax
	leal	-56(%ebp), %eax
	pushl	36(%ebx)
	pushl	%eax
	pushl	%edi
	call	sys_arch_mbox_fetch
.LVL22:
	addl	$16, %esp
	incl	%eax
	.loc 1 521 0
	movb	$-3, %dl
	.loc 1 512 0
	je	.L13
	.loc 1 529 0
	movl	(%ebx), %eax
	andl	$240, %eax
	cmpl	$16, %eax
	movl	-56(%ebp), %eax
	jne	.L17
	.loc 1 536 0
	testl	%eax, %eax
	.loc 1 535 0
	movl	%ebx, -52(%ebp)
	.loc 1 536 0
	je	.L18
	.loc 1 537 0
	movzwl	8(%eax), %eax
	movl	%eax, -44(%ebp)
	jmp	.L19
.L18:
	.loc 1 539 0
	movl	$1, -44(%ebp)
.L19:
	.loc 1 543 0
	leal	-52(%ebp), %edx
	movl	$lwip_netconn_do_recv, %eax
	call	netconn_apimsg
.LVL23:
	.loc 1 547 0
	movl	-56(%ebp), %eax
	testl	%eax, %eax
	jne	.L37
	.loc 1 548 0
	movl	52(%ebx), %eax
	testl	%eax, %eax
	je	.L21
.LVL24:
	.loc 1 548 0 is_stmt 0 discriminator 1
	pushl	%esi
	pushl	$0
	pushl	$1
	pushl	%ebx
	call	*%eax
.LVL25:
	addl	$16, %esp
.L21:
	.loc 1 549 0 is_stmt 1
	cmpl	$0, 8(%ebx)
	jne	.L22
	.loc 1 551 0
	movb	12(%ebx), %dl
	movb	$-14, %al
	testb	%dl, %dl
	cmove	%eax, %edx
	jmp	.L13
.L22:
	.loc 1 554 0
	movl	$1, %edx
	movl	%ebx, %eax
	call	netconn_close_shutdown
.LVL26:
	.loc 1 556 0
	movb	$-15, %dl
	jmp	.L13
.LVL27:
.L17:
	.loc 1 567 0
	movl	(%eax), %eax
.L37:
	.loc 1 575 0
	movl	52(%ebx), %edx
	.loc 1 567 0
	movzwl	8(%eax), %eax
.LVL28:
	.loc 1 575 0
	testl	%edx, %edx
	je	.L24
	.loc 1 575 0 is_stmt 0 discriminator 1
	pushl	%ecx
	pushl	%eax
	pushl	$1
	pushl	%ebx
	call	*%edx
.LVL29:
	addl	$16, %esp
.L24:
	.loc 1 579 0 is_stmt 1
	movl	-56(%ebp), %eax
	.loc 1 581 0
	xorl	%edx, %edx
	.loc 1 579 0
	movl	%eax, (%esi)
.LVL30:
.L13:
	.loc 1 582 0
	movl	-28(%ebp), %ecx
	xorl	%gs:20, %ecx
	movb	%dl, %al
	je	.L25
	call	__stack_chk_fail
.LVL31:
.L25:
	leal	-12(%ebp), %esp
	popl	%ebx
	.cfi_restore 3
	popl	%esi
	.cfi_restore 6
	popl	%edi
	.cfi_restore 7
	popl	%ebp
	.cfi_restore 5
	.cfi_def_cfa 4, 4
	ret
	.cfi_endproc
.LFE32:
	.size	netconn_recv_data, .-netconn_recv_data
	.section	.text.unlikely.netconn_recv_data
.LCOLDE6:
	.section	.text.netconn_recv_data
.LHOTE6:
	.section	.text.unlikely.netconn_new_with_proto_and_callback,"ax",@progbits
.LCOLDB7:
	.section	.text.netconn_new_with_proto_and_callback,"ax",@progbits
.LHOTB7:
	.globl	netconn_new_with_proto_and_callback
	.type	netconn_new_with_proto_and_callback, @function
netconn_new_with_proto_and_callback:
.LFB24:
	.loc 1 124 0
	.cfi_startproc
.LVL32:
	pushl	%ebp
	.cfi_def_cfa_offset 8
	.cfi_offset 5, -8
	movl	%esp, %ebp
	.cfi_def_cfa_register 5
	pushl	%edi
	pushl	%esi
	pushl	%ebx
	.cfi_offset 7, -12
	.cfi_offset 6, -16
	.cfi_offset 3, -20
.LBB2:
	xorl	%ebx, %ebx
.LBE2:
	subl	$52, %esp
	.loc 1 129 0
	pushl	16(%ebp)
	pushl	8(%ebp)
	.loc 1 124 0
	movl	%gs:20, %eax
	movl	%eax, -28(%ebp)
	xorl	%eax, %eax
	movl	12(%ebp), %edi
	.loc 1 129 0
	call	netconn_alloc
.LVL33:
	.loc 1 130 0
	addl	$16, %esp
	testl	%eax, %eax
	je	.L40
	movl	%eax, %esi
.LBB3:
	.loc 1 135 0
	leal	-52(%ebp), %edx
	.loc 1 133 0
	movl	%edi, %eax
.LVL34:
	movb	%al, -44(%ebp)
	.loc 1 135 0
	movl	$lwip_netconn_do_newconn, %eax
	.loc 1 134 0
	movl	%esi, -52(%ebp)
	.loc 1 135 0
	call	netconn_apimsg
.LVL35:
	.loc 1 136 0
	testb	%al, %al
	movl	%esi, %ebx
	je	.L40
	.loc 1 144 0
	leal	16(%esi), %eax
.LVL36:
	subl	$12, %esp
	.loc 1 149 0
	xorl	%ebx, %ebx
	.loc 1 144 0
	pushl	%eax
	call	sys_sem_free
.LVL37:
	.loc 1 146 0
	leal	20(%esi), %eax
	movl	%eax, (%esp)
	call	sys_mbox_free
.LVL38:
	.loc 1 147 0
	popl	%eax
	popl	%edx
	pushl	%esi
	pushl	$6
	call	memp_free
.LVL39:
	.loc 1 149 0
	addl	$16, %esp
.LVL40:
.L40:
.LBE3:
	.loc 1 154 0
	movl	-28(%ebp), %ecx
	xorl	%gs:20, %ecx
	movl	%ebx, %eax
	je	.L41
	call	__stack_chk_fail
.LVL41:
.L41:
	leal	-12(%ebp), %esp
	popl	%ebx
	.cfi_restore 3
	popl	%esi
	.cfi_restore 6
	popl	%edi
	.cfi_restore 7
	popl	%ebp
	.cfi_restore 5
	.cfi_def_cfa 4, 4
	ret
	.cfi_endproc
.LFE24:
	.size	netconn_new_with_proto_and_callback, .-netconn_new_with_proto_and_callback
	.section	.text.unlikely.netconn_new_with_proto_and_callback
.LCOLDE7:
	.section	.text.netconn_new_with_proto_and_callback
.LHOTE7:
	.section	.text.unlikely.netconn_delete,"ax",@progbits
.LCOLDB8:
	.section	.text.netconn_delete,"ax",@progbits
.LHOTB8:
	.globl	netconn_delete
	.type	netconn_delete, @function
netconn_delete:
.LFB25:
	.loc 1 167 0
	.cfi_startproc
.LVL42:
	pushl	%ebp
	.cfi_def_cfa_offset 8
	.cfi_offset 5, -8
	movl	%esp, %ebp
	.cfi_def_cfa_register 5
	pushl	%ebx
	subl	$52, %esp
	.cfi_offset 3, -12
	.loc 1 167 0
	movl	8(%ebp), %ebx
	movl	%gs:20, %eax
	movl	%eax, -12(%ebp)
	xorl	%eax, %eax
	.loc 1 172 0
	testl	%ebx, %ebx
	je	.L47
	.loc 1 177 0
	movl	%ebx, -36(%ebp)
	.loc 1 182 0
	call	sys_now
.LVL43:
	.loc 1 190 0
	leal	-36(%ebp), %edx
	.loc 1 182 0
	movl	%eax, -24(%ebp)
	.loc 1 190 0
	movl	$lwip_netconn_do_delconn, %eax
	call	netconn_apimsg
.LVL44:
	.loc 1 193 0
	testb	%al, %al
	jne	.L47
	.loc 1 197 0
	subl	$12, %esp
	movb	%al, -41(%ebp)
	pushl	%ebx
	call	netconn_free
.LVL45:
	.loc 1 199 0
	movb	-41(%ebp), %al
	addl	$16, %esp
.LVL46:
.L47:
	.loc 1 200 0
	movl	-12(%ebp), %ecx
	xorl	%gs:20, %ecx
	je	.L48
	call	__stack_chk_fail
.LVL47:
.L48:
	movl	-4(%ebp), %ebx
	leave
	.cfi_restore 5
	.cfi_restore 3
	.cfi_def_cfa 4, 4
	ret
	.cfi_endproc
.LFE25:
	.size	netconn_delete, .-netconn_delete
	.section	.text.unlikely.netconn_delete
.LCOLDE8:
	.section	.text.netconn_delete
.LHOTE8:
	.section	.rodata.str1.1
.LC9:
	.string	"netconn_getaddr: invalid conn"
.LC10:
	.string	"netconn_getaddr: invalid addr"
.LC11:
	.string	"netconn_getaddr: invalid port"
	.section	.text.unlikely.netconn_getaddr,"ax",@progbits
.LCOLDB12:
	.section	.text.netconn_getaddr,"ax",@progbits
.LHOTB12:
	.globl	netconn_getaddr
	.type	netconn_getaddr, @function
netconn_getaddr:
.LFB26:
	.loc 1 215 0
	.cfi_startproc
.LVL48:
	pushl	%ebp
	.cfi_def_cfa_offset 8
	.cfi_offset 5, -8
	movl	%esp, %ebp
	.cfi_def_cfa_register 5
	pushl	%esi
	pushl	%ebx
	subl	$32, %esp
	.cfi_offset 6, -12
	.cfi_offset 3, -16
	.loc 1 215 0
	movl	8(%ebp), %ecx
	movl	12(%ebp), %edx
	movl	%gs:20, %esi
	movl	%esi, -12(%ebp)
	xorl	%esi, %esi
	movl	16(%ebp), %eax
	movl	20(%ebp), %ebx
	.loc 1 219 0
	testl	%ecx, %ecx
	jne	.L53
	.loc 1 219 0 discriminator 1
	subl	$12, %esp
	pushl	$.LC9
	jmp	.L59
.L53:
	.loc 1 220 0
	testl	%edx, %edx
	jne	.L55
	.loc 1 220 0 discriminator 1
	subl	$12, %esp
	pushl	$.LC10
.L59:
	call	bk_printf
.LVL49:
	addl	$16, %esp
	movb	$-16, %al
	jmp	.L54
.L55:
	.loc 1 221 0
	testl	%eax, %eax
	jne	.L56
	.loc 1 221 0 discriminator 1
	subl	$12, %esp
	pushl	$.LC11
	jmp	.L59
.L56:
	.loc 1 231 0
	movl	%edx, -28(%ebp)
	.loc 1 233 0
	leal	-36(%ebp), %edx
	.loc 1 232 0
	movl	%eax, -24(%ebp)
	.loc 1 233 0
	movl	$lwip_netconn_do_getaddr, %eax
	.loc 1 224 0
	movl	%ecx, -36(%ebp)
	.loc 1 225 0
	movb	%bl, -20(%ebp)
	.loc 1 233 0
	call	netconn_apimsg
.LVL50:
.L54:
	.loc 1 238 0
	movl	-12(%ebp), %esi
	xorl	%gs:20, %esi
	je	.L57
	call	__stack_chk_fail
.LVL51:
.L57:
	leal	-8(%ebp), %esp
	popl	%ebx
	.cfi_restore 3
	popl	%esi
	.cfi_restore 6
	popl	%ebp
	.cfi_restore 5
	.cfi_def_cfa 4, 4
	ret
	.cfi_endproc
.LFE26:
	.size	netconn_getaddr, .-netconn_getaddr
	.section	.text.unlikely.netconn_getaddr
.LCOLDE12:
	.section	.text.netconn_getaddr
.LHOTE12:
	.section	.rodata.str1.1
.LC13:
	.string	"netconn_bind: invalid conn"
	.section	.text.unlikely.netconn_bind,"ax",@progbits
.LCOLDB14:
	.section	.text.netconn_bind,"ax",@progbits
.LHOTB14:
	.globl	netconn_bind
	.type	netconn_bind, @function
netconn_bind:
.LFB27:
	.loc 1 253 0
	.cfi_startproc
.LVL52:
	pushl	%ebp
	.cfi_def_cfa_offset 8
	.cfi_offset 5, -8
	movl	%esp, %ebp
	.cfi_def_cfa_register 5
	pushl	%ebx
	subl	$36, %esp
	.cfi_offset 3, -12
	.loc 1 253 0
	movl	8(%ebp), %edx
	movl	12(%ebp), %eax
	movl	%gs:20, %ebx
	movl	%ebx, -12(%ebp)
	xorl	%ebx, %ebx
	movl	16(%ebp), %ecx
	.loc 1 257 0
	testl	%edx, %edx
	jne	.L61
	.loc 1 257 0 discriminator 1
	subl	$12, %esp
	pushl	$.LC13
	call	bk_printf
.LVL53:
	addl	$16, %esp
	movb	$-16, %al
	jmp	.L62
.L61:
	.loc 1 261 0
	testl	%eax, %eax
	movl	$ip_addr_any, %ebx
	.loc 1 265 0
	movl	%edx, -36(%ebp)
	.loc 1 261 0
	cmove	%ebx, %eax
.LVL54:
	.loc 1 268 0
	leal	-36(%ebp), %edx
	.loc 1 267 0
	movw	%cx, -24(%ebp)
	.loc 1 266 0
	movl	%eax, -28(%ebp)
	.loc 1 268 0
	movl	$lwip_netconn_do_bind, %eax
.LVL55:
	call	netconn_apimsg
.LVL56:
.L62:
	.loc 1 272 0
	movl	-12(%ebp), %ecx
	xorl	%gs:20, %ecx
	je	.L64
	call	__stack_chk_fail
.LVL57:
.L64:
	movl	-4(%ebp), %ebx
	leave
	.cfi_restore 5
	.cfi_restore 3
	.cfi_def_cfa 4, 4
	ret
	.cfi_endproc
.LFE27:
	.size	netconn_bind, .-netconn_bind
	.section	.text.unlikely.netconn_bind
.LCOLDE14:
	.section	.text.netconn_bind
.LHOTE14:
	.section	.rodata.str1.1
.LC15:
	.string	"netconn_connect: invalid conn"
	.section	.text.unlikely.netconn_connect,"ax",@progbits
.LCOLDB16:
	.section	.text.netconn_connect,"ax",@progbits
.LHOTB16:
	.globl	netconn_connect
	.type	netconn_connect, @function
netconn_connect:
.LFB28:
	.loc 1 285 0
	.cfi_startproc
.LVL58:
	pushl	%ebp
	.cfi_def_cfa_offset 8
	.cfi_offset 5, -8
	movl	%esp, %ebp
	.cfi_def_cfa_register 5
	pushl	%ebx
	subl	$36, %esp
	.cfi_offset 3, -12
	.loc 1 285 0
	movl	8(%ebp), %edx
	movl	12(%ebp), %eax
	movl	%gs:20, %ebx
	movl	%ebx, -12(%ebp)
	xorl	%ebx, %ebx
	movl	16(%ebp), %ecx
	.loc 1 289 0
	testl	%edx, %edx
	jne	.L67
	.loc 1 289 0 discriminator 1
	subl	$12, %esp
	pushl	$.LC15
	call	bk_printf
.LVL59:
	addl	$16, %esp
	movb	$-16, %al
	jmp	.L68
.L67:
	.loc 1 293 0
	testl	%eax, %eax
	movl	$ip_addr_any, %ebx
	.loc 1 297 0
	movl	%edx, -36(%ebp)
	.loc 1 293 0
	cmove	%ebx, %eax
.LVL60:
	.loc 1 300 0
	leal	-36(%ebp), %edx
	.loc 1 299 0
	movw	%cx, -24(%ebp)
	.loc 1 298 0
	movl	%eax, -28(%ebp)
	.loc 1 300 0
	movl	$lwip_netconn_do_connect, %eax
.LVL61:
	call	netconn_apimsg
.LVL62:
.L68:
	.loc 1 304 0
	movl	-12(%ebp), %ecx
	xorl	%gs:20, %ecx
	je	.L70
	call	__stack_chk_fail
.LVL63:
.L70:
	movl	-4(%ebp), %ebx
	leave
	.cfi_restore 5
	.cfi_restore 3
	.cfi_def_cfa 4, 4
	ret
	.cfi_endproc
.LFE28:
	.size	netconn_connect, .-netconn_connect
	.section	.text.unlikely.netconn_connect
.LCOLDE16:
	.section	.text.netconn_connect
.LHOTE16:
	.section	.rodata.str1.1
.LC17:
	.string	"netconn_disconnect: invalid conn"
	.section	.text.unlikely.netconn_disconnect,"ax",@progbits
.LCOLDB18:
	.section	.text.netconn_disconnect,"ax",@progbits
.LHOTB18:
	.globl	netconn_disconnect
	.type	netconn_disconnect, @function
netconn_disconnect:
.LFB29:
	.loc 1 315 0
	.cfi_startproc
.LVL64:
	pushl	%ebp
	.cfi_def_cfa_offset 8
	.cfi_offset 5, -8
	movl	%esp, %ebp
	.cfi_def_cfa_register 5
	subl	$40, %esp
	.loc 1 315 0
	movl	8(%ebp), %eax
	movl	%gs:20, %ecx
	movl	%ecx, -12(%ebp)
	xorl	%ecx, %ecx
	.loc 1 319 0
	testl	%eax, %eax
	jne	.L73
	.loc 1 319 0 discriminator 1
	subl	$12, %esp
	pushl	$.LC17
	call	bk_printf
.LVL65:
	addl	$16, %esp
	movb	$-16, %al
	jmp	.L74
.L73:
	.loc 1 323 0
	leal	-36(%ebp), %edx
	.loc 1 322 0
	movl	%eax, -36(%ebp)
	.loc 1 323 0
	movl	$lwip_netconn_do_disconnect, %eax
	call	netconn_apimsg
.LVL66:
.L74:
	.loc 1 327 0
	movl	-12(%ebp), %ecx
	xorl	%gs:20, %ecx
	je	.L75
	call	__stack_chk_fail
.LVL67:
.L75:
	leave
	.cfi_restore 5
	.cfi_def_cfa 4, 4
	ret
	.cfi_endproc
.LFE29:
	.size	netconn_disconnect, .-netconn_disconnect
	.section	.text.unlikely.netconn_disconnect
.LCOLDE18:
	.section	.text.netconn_disconnect
.LHOTE18:
	.section	.rodata.str1.1
.LC19:
	.string	"netconn_listen: invalid conn"
	.section	.text.unlikely.netconn_listen_with_backlog,"ax",@progbits
.LCOLDB20:
	.section	.text.netconn_listen_with_backlog,"ax",@progbits
.LHOTB20:
	.globl	netconn_listen_with_backlog
	.type	netconn_listen_with_backlog, @function
netconn_listen_with_backlog:
.LFB30:
	.loc 1 340 0
	.cfi_startproc
.LVL68:
	pushl	%ebp
	.cfi_def_cfa_offset 8
	.cfi_offset 5, -8
	movl	%esp, %ebp
	.cfi_def_cfa_register 5
	subl	$40, %esp
	.loc 1 340 0
	movl	8(%ebp), %eax
	movl	12(%ebp), %edx
	movl	%gs:20, %ecx
	movl	%ecx, -12(%ebp)
	xorl	%ecx, %ecx
	.loc 1 348 0
	testl	%eax, %eax
	jne	.L78
	.loc 1 348 0 discriminator 1
	subl	$12, %esp
	pushl	$.LC19
	call	bk_printf
.LVL69:
	addl	$16, %esp
	movb	$-16, %al
	jmp	.L79
.L78:
	.loc 1 353 0
	movb	%dl, -28(%ebp)
	.loc 1 355 0
	leal	-36(%ebp), %edx
	.loc 1 351 0
	movl	%eax, -36(%ebp)
	.loc 1 355 0
	movl	$lwip_netconn_do_listen, %eax
	call	netconn_apimsg
.LVL70:
.L79:
	.loc 1 364 0
	movl	-12(%ebp), %ecx
	xorl	%gs:20, %ecx
	je	.L80
	call	__stack_chk_fail
.LVL71:
.L80:
	leave
	.cfi_restore 5
	.cfi_def_cfa 4, 4
	ret
	.cfi_endproc
.LFE30:
	.size	netconn_listen_with_backlog, .-netconn_listen_with_backlog
	.section	.text.unlikely.netconn_listen_with_backlog
.LCOLDE20:
	.section	.text.netconn_listen_with_backlog
.LHOTE20:
	.section	.rodata.str1.1
.LC21:
	.string	"netconn_accept: invalid pointer"
.LC22:
	.string	"netconn_accept: invalid conn"
	.section	.text.unlikely.netconn_accept,"ax",@progbits
.LCOLDB23:
	.section	.text.netconn_accept,"ax",@progbits
.LHOTB23:
	.globl	netconn_accept
	.type	netconn_accept, @function
netconn_accept:
.LFB31:
	.loc 1 377 0
	.cfi_startproc
.LVL72:
	pushl	%ebp
	.cfi_def_cfa_offset 8
	.cfi_offset 5, -8
	movl	%esp, %ebp
	.cfi_def_cfa_register 5
	pushl	%edi
	pushl	%esi
	pushl	%ebx
	subl	$44, %esp
	.cfi_offset 7, -12
	.cfi_offset 6, -16
	.cfi_offset 3, -20
	.loc 1 377 0
	movl	12(%ebp), %esi
	movl	8(%ebp), %ebx
	movl	%gs:20, %eax
	movl	%eax, -28(%ebp)
	xorl	%eax, %eax
	.loc 1 386 0
	testl	%esi, %esi
	jne	.L83
	.loc 1 386 0 discriminator 1
	subl	$12, %esp
	pushl	$.LC21
	jmp	.L98
.L83:
	.loc 1 388 0
	testl	%ebx, %ebx
	.loc 1 387 0
	movl	$0, (%esi)
	.loc 1 388 0
	jne	.L85
	.loc 1 388 0 discriminator 1
	subl	$12, %esp
	pushl	$.LC22
.L98:
	call	bk_printf
.LVL73:
	addl	$16, %esp
	movb	$-16, %dl
	jmp	.L84
.L85:
	.loc 1 390 0
	movb	12(%ebx), %dl
.LVL74:
	.loc 1 391 0
	cmpb	$-12, %dl
	jl	.L84
	.loc 1 396 0
	leal	24(%ebx), %edi
	subl	$12, %esp
	pushl	%edi
	call	aos_queue_is_valid
.LVL75:
	addl	$16, %esp
	testl	%eax, %eax
	.loc 1 397 0
	movb	$-15, %dl
	.loc 1 396 0
	je	.L84
	.loc 1 405 0
	leal	-56(%ebp), %eax
	pushl	%ecx
	pushl	36(%ebx)
	pushl	%eax
	pushl	%edi
	call	sys_arch_mbox_fetch
.LVL76:
	addl	$16, %esp
	incl	%eax
	.loc 1 409 0
	movb	$-3, %dl
	.loc 1 405 0
	je	.L84
	.loc 1 416 0
	movl	52(%ebx), %eax
	.loc 1 414 0
	movl	-56(%ebp), %edi
.LVL77:
	.loc 1 416 0
	testl	%eax, %eax
	je	.L86
	.loc 1 416 0 is_stmt 0 discriminator 1
	pushl	%edx
	pushl	$0
	pushl	$1
	pushl	%ebx
	call	*%eax
.LVL78:
	addl	$16, %esp
.L86:
	.loc 1 418 0 is_stmt 1
	cmpl	$netconn_aborted, -56(%ebp)
	.loc 1 424 0
	movb	$-13, %dl
	.loc 1 418 0
	je	.L84
	.loc 1 426 0
	testl	%edi, %edi
	jne	.L87
.LBB4:
	.loc 1 431 0 discriminator 1
	call	sys_arch_protect
.LVL79:
	cmpb	$-12, 12(%ebx)
	jl	.L88
	.loc 1 431 0 is_stmt 0 discriminator 2
	movb	$-15, 12(%ebx)
.L88:
	.loc 1 431 0 discriminator 4
	subl	$12, %esp
	pushl	%eax
	call	sys_arch_unprotect
.LVL80:
	addl	$16, %esp
.LBE4:
	.loc 1 435 0 is_stmt 1 discriminator 4
	movb	$-15, %dl
	jmp	.L84
.L87:
	.loc 1 441 0
	leal	-52(%ebp), %edx
	movl	$lwip_netconn_do_accepted, %eax
	.loc 1 439 0
	movl	%edi, -52(%ebp)
	.loc 1 441 0
	call	netconn_apimsg
.LVL81:
	.loc 1 445 0
	movl	%edi, (%esi)
	.loc 1 447 0
	xorl	%edx, %edx
.LVL82:
.L84:
	.loc 1 453 0
	movl	-28(%ebp), %ecx
	xorl	%gs:20, %ecx
	movb	%dl, %al
	je	.L89
	call	__stack_chk_fail
.LVL83:
.L89:
	leal	-12(%ebp), %esp
	popl	%ebx
	.cfi_restore 3
	popl	%esi
	.cfi_restore 6
	popl	%edi
	.cfi_restore 7
	popl	%ebp
	.cfi_restore 5
	.cfi_def_cfa 4, 4
	ret
	.cfi_endproc
.LFE31:
	.size	netconn_accept, .-netconn_accept
	.section	.text.unlikely.netconn_accept
.LCOLDE23:
	.section	.text.netconn_accept
.LHOTE23:
	.section	.text.unlikely.netconn_recv_tcp_pbuf,"ax",@progbits
.LCOLDB24:
	.section	.text.netconn_recv_tcp_pbuf,"ax",@progbits
.LHOTB24:
	.globl	netconn_recv_tcp_pbuf
	.type	netconn_recv_tcp_pbuf, @function
netconn_recv_tcp_pbuf:
.LFB33:
	.loc 1 596 0
	.cfi_startproc
.LVL84:
	pushl	%ebp
	.cfi_def_cfa_offset 8
	.cfi_offset 5, -8
	movl	%esp, %ebp
	.cfi_def_cfa_register 5
	subl	$8, %esp
	.loc 1 596 0
	movl	8(%ebp), %eax
	movl	12(%ebp), %edx
	.loc 1 597 0
	testl	%eax, %eax
	je	.L100
	.loc 1 597 0 is_stmt 0 discriminator 2
	movl	(%eax), %ecx
	andl	$240, %ecx
	cmpl	$16, %ecx
	jne	.L100
	.loc 1 601 0 is_stmt 1
	leave
	.cfi_remember_state
	.cfi_restore 5
	.cfi_def_cfa 4, 4
	.loc 1 600 0
	jmp	netconn_recv_data
.LVL85:
.L100:
	.cfi_restore_state
	.loc 1 597 0 discriminator 3
	subl	$12, %esp
	pushl	$.LC4
	call	bk_printf
.LVL86:
	addl	$16, %esp
	.loc 1 601 0 discriminator 3
	movb	$-16, %al
	leave
	.cfi_restore 5
	.cfi_def_cfa 4, 4
	ret
	.cfi_endproc
.LFE33:
	.size	netconn_recv_tcp_pbuf, .-netconn_recv_tcp_pbuf
	.section	.text.unlikely.netconn_recv_tcp_pbuf
.LCOLDE24:
	.section	.text.netconn_recv_tcp_pbuf
.LHOTE24:
	.section	.text.unlikely.netconn_recv,"ax",@progbits
.LCOLDB25:
	.section	.text.netconn_recv,"ax",@progbits
.LHOTB25:
	.globl	netconn_recv
	.type	netconn_recv, @function
netconn_recv:
.LFB34:
	.loc 1 614 0
	.cfi_startproc
.LVL87:
	pushl	%ebp
	.cfi_def_cfa_offset 8
	.cfi_offset 5, -8
	movl	%esp, %ebp
	.cfi_def_cfa_register 5
	pushl	%edi
	pushl	%esi
	pushl	%ebx
	subl	$44, %esp
	.cfi_offset 7, -12
	.cfi_offset 6, -16
	.cfi_offset 3, -20
	.loc 1 614 0
	movl	12(%ebp), %esi
	movl	8(%ebp), %edi
	movl	%gs:20, %eax
	movl	%eax, -28(%ebp)
	xorl	%eax, %eax
.LVL88:
	.loc 1 620 0
	testl	%esi, %esi
	jne	.L109
	.loc 1 620 0 discriminator 1
	subl	$12, %esp
	pushl	$.LC3
	jmp	.L118
.L109:
	.loc 1 622 0
	testl	%edi, %edi
	.loc 1 621 0
	movl	$0, (%esi)
	.loc 1 622 0
	jne	.L111
	.loc 1 622 0 discriminator 1
	subl	$12, %esp
	pushl	$.LC4
.L118:
	call	bk_printf
.LVL89:
	addl	$16, %esp
	movb	$-16, %al
	jmp	.L110
.L111:
	.loc 1 626 0
	movl	(%edi), %eax
	andl	$240, %eax
	cmpl	$16, %eax
	jne	.L112
.LBB5:
	.loc 1 632 0
	subl	$12, %esp
	.loc 1 629 0
	movl	$0, -32(%ebp)
	.loc 1 632 0
	pushl	$5
	call	memp_malloc
.LVL90:
	movl	%eax, %ebx
.LVL91:
	.loc 1 633 0
	addl	$16, %esp
	.loc 1 634 0
	movb	$-1, %al
.LVL92:
	.loc 1 633 0
	testl	%ebx, %ebx
	je	.L110
	.loc 1 637 0
	leal	-32(%ebp), %edx
	movl	%edi, %eax
	call	netconn_recv_data
.LVL93:
	.loc 1 638 0
	testb	%al, %al
	je	.L114
	movb	%al, -41(%ebp)
.LVL94:
	.loc 1 639 0
	pushl	%eax
	pushl	%eax
	pushl	%ebx
	pushl	$5
	call	memp_free
.LVL95:
	.loc 1 640 0
	addl	$16, %esp
	movb	-41(%ebp), %al
	jmp	.L110
.LVL96:
.L114:
	.loc 1 644 0
	movl	-32(%ebp), %eax
.LVL97:
	.loc 1 646 0
	movw	$0, 12(%ebx)
	.loc 1 647 0
	movl	$0, 8(%ebx)
	.loc 1 644 0
	movl	%eax, (%ebx)
	.loc 1 645 0
	movl	%eax, 4(%ebx)
	.loc 1 650 0
	xorl	%eax, %eax
	.loc 1 648 0
	movl	%ebx, (%esi)
	.loc 1 650 0
	jmp	.L110
.LVL98:
.L112:
.LBE5:
	.loc 1 658 0
	movl	%esi, %edx
	movl	%edi, %eax
	call	netconn_recv_data
.LVL99:
.L110:
	.loc 1 661 0 discriminator 1
	movl	-28(%ebp), %ecx
	xorl	%gs:20, %ecx
	je	.L115
	.loc 1 661 0 is_stmt 0
	call	__stack_chk_fail
.LVL100:
.L115:
	leal	-12(%ebp), %esp
	popl	%ebx
	.cfi_restore 3
	popl	%esi
	.cfi_restore 6
	popl	%edi
	.cfi_restore 7
	popl	%ebp
	.cfi_restore 5
	.cfi_def_cfa 4, 4
	ret
	.cfi_endproc
.LFE34:
	.size	netconn_recv, .-netconn_recv
	.section	.text.unlikely.netconn_recv
.LCOLDE25:
	.section	.text.netconn_recv
.LHOTE25:
	.section	.rodata.str1.1
.LC26:
	.string	"netconn_send: invalid conn"
	.section	.text.unlikely.netconn_send,"ax",@progbits
.LCOLDB27:
	.section	.text.netconn_send,"ax",@progbits
.LHOTB27:
	.globl	netconn_send
	.type	netconn_send, @function
netconn_send:
.LFB36:
	.loc 1 695 0 is_stmt 1
	.cfi_startproc
.LVL101:
	pushl	%ebp
	.cfi_def_cfa_offset 8
	.cfi_offset 5, -8
	movl	%esp, %ebp
	.cfi_def_cfa_register 5
	subl	$40, %esp
	.loc 1 695 0
	movl	8(%ebp), %eax
	movl	12(%ebp), %edx
	movl	%gs:20, %ecx
	movl	%ecx, -12(%ebp)
	xorl	%ecx, %ecx
	.loc 1 699 0
	testl	%eax, %eax
	jne	.L120
	.loc 1 699 0 discriminator 1
	subl	$12, %esp
	pushl	$.LC26
	call	bk_printf
.LVL102:
	addl	$16, %esp
	movb	$-16, %al
	jmp	.L121
.L120:
	.loc 1 704 0
	movl	%edx, -28(%ebp)
	.loc 1 705 0
	leal	-36(%ebp), %edx
	.loc 1 703 0
	movl	%eax, -36(%ebp)
	.loc 1 705 0
	movl	$lwip_netconn_do_send, %eax
	call	netconn_apimsg
.LVL103:
.L121:
	.loc 1 709 0
	movl	-12(%ebp), %ecx
	xorl	%gs:20, %ecx
	je	.L122
	call	__stack_chk_fail
.LVL104:
.L122:
	leave
	.cfi_restore 5
	.cfi_def_cfa 4, 4
	ret
	.cfi_endproc
.LFE36:
	.size	netconn_send, .-netconn_send
	.section	.text.unlikely.netconn_send
.LCOLDE27:
	.section	.text.netconn_send
.LHOTE27:
	.section	.text.unlikely.netconn_sendto,"ax",@progbits
.LCOLDB28:
	.section	.text.netconn_sendto,"ax",@progbits
.LHOTB28:
	.globl	netconn_sendto
	.type	netconn_sendto, @function
netconn_sendto:
.LFB35:
	.loc 1 676 0
	.cfi_startproc
.LVL105:
	pushl	%ebp
	.cfi_def_cfa_offset 8
	.cfi_offset 5, -8
	movl	%esp, %ebp
	.cfi_def_cfa_register 5
	pushl	%esi
	pushl	%ebx
	.cfi_offset 6, -12
	.cfi_offset 3, -16
	.loc 1 676 0
	movl	12(%ebp), %eax
	movl	8(%ebp), %ebx
	movl	16(%ebp), %ecx
	movl	20(%ebp), %esi
	.loc 1 677 0
	testl	%eax, %eax
	je	.L125
	.loc 1 678 0
	xorl	%edx, %edx
	testl	%ecx, %ecx
	je	.L126
	.loc 1 678 0 is_stmt 0 discriminator 1
	movl	(%ecx), %edx
.L126:
	.loc 1 678 0 is_stmt 1 discriminator 4
	movl	%edx, 8(%eax)
	.loc 1 679 0 discriminator 4
	movw	%si, 12(%eax)
	.loc 1 680 0 discriminator 4
	movl	%ebx, 8(%ebp)
.LVL106:
	movl	%eax, 12(%ebp)
.LVL107:
	.loc 1 683 0 discriminator 4
	popl	%ebx
	.cfi_remember_state
	.cfi_restore 3
.LVL108:
	popl	%esi
	.cfi_restore 6
	popl	%ebp
	.cfi_restore 5
	.cfi_def_cfa 4, 4
	.loc 1 680 0 discriminator 4
	jmp	netconn_send
.LVL109:
.L125:
	.cfi_restore_state
	.loc 1 683 0
	popl	%ebx
	.cfi_restore 3
.LVL110:
	movb	$-6, %al
.LVL111:
	popl	%esi
	.cfi_restore 6
	popl	%ebp
	.cfi_restore 5
	.cfi_def_cfa 4, 4
	ret
	.cfi_endproc
.LFE35:
	.size	netconn_sendto, .-netconn_sendto
	.section	.text.unlikely.netconn_sendto
.LCOLDE28:
	.section	.text.netconn_sendto
.LHOTE28:
	.section	.rodata.str1.1
.LC29:
	.string	"netconn_write: invalid conn"
.LC30:
	.string	"netconn_write: invalid conn->type"
	.section	.text.unlikely.netconn_write_partly,"ax",@progbits
.LCOLDB31:
	.section	.text.netconn_write_partly,"ax",@progbits
.LHOTB31:
	.globl	netconn_write_partly
	.type	netconn_write_partly, @function
netconn_write_partly:
.LFB37:
	.loc 1 728 0
	.cfi_startproc
.LVL112:
	pushl	%ebp
	.cfi_def_cfa_offset 8
	.cfi_offset 5, -8
	movl	%esp, %ebp
	.cfi_def_cfa_register 5
	pushl	%edi
	pushl	%esi
	pushl	%ebx
	subl	$44, %esp
	.cfi_offset 7, -12
	.cfi_offset 6, -16
	.cfi_offset 3, -20
	.loc 1 728 0
	movl	8(%ebp), %ebx
	movl	12(%ebp), %ecx
	movl	%gs:20, %eax
	movl	%eax, -28(%ebp)
	xorl	%eax, %eax
	movl	20(%ebp), %edx
	movl	24(%ebp), %edi
	.loc 1 733 0
	testl	%ebx, %ebx
	jne	.L130
	.loc 1 733 0 discriminator 1
	subl	$12, %esp
	pushl	$.LC29
	call	bk_printf
.LVL113:
	addl	$16, %esp
	movb	$-16, %al
	jmp	.L131
.L130:
	.loc 1 734 0
	movl	(%ebx), %eax
	andl	$240, %eax
	cmpl	$16, %eax
	je	.L132
	.loc 1 734 0 is_stmt 0 discriminator 1
	subl	$12, %esp
	pushl	$.LC30
	call	bk_printf
.LVL114:
	addl	$16, %esp
	movb	$-6, %al
	jmp	.L131
.L132:
	.loc 1 736 0 is_stmt 1
	xorl	%eax, %eax
	.loc 1 735 0
	cmpl	$0, 16(%ebp)
	je	.L131
	.loc 1 738 0
	testb	$2, 40(%ebx)
	movl	$1, %esi
	jne	.L133
	.loc 1 738 0 is_stmt 0 discriminator 2
	movb	%dl, %al
	shrb	$2, %al
	movl	%eax, %esi
	andl	$1, %esi
.L133:
.LVL115:
	.loc 1 739 0 is_stmt 1 discriminator 6
	testl	%edi, %edi
	jne	.L144
	testl	%esi, %esi
	.loc 1 742 0 discriminator 6
	movb	$-6, %al
	.loc 1 739 0 discriminator 6
	jne	.L131
.L144:
	.loc 1 752 0
	cmpl	$0, 32(%ebx)
	.loc 1 750 0
	movl	16(%ebp), %eax
	.loc 1 747 0
	movl	%ebx, -52(%ebp)
	.loc 1 748 0
	movl	%ecx, -44(%ebp)
	.loc 1 749 0
	movb	%dl, -36(%ebp)
	.loc 1 750 0
	movl	%eax, -40(%ebp)
	.loc 1 752 0
	je	.L135
	.loc 1 755 0
	call	sys_now
.LVL116:
	movl	%eax, -32(%ebp)
	jmp	.L136
.L135:
	.loc 1 757 0
	movl	$0, -32(%ebp)
.L136:
	.loc 1 764 0
	leal	-52(%ebp), %edx
	movl	$lwip_netconn_do_write, %eax
	call	netconn_apimsg
.LVL117:
	.loc 1 765 0
	testb	%al, %al
	jne	.L131
	testl	%edi, %edi
	je	.L131
	.loc 1 766 0
	testl	%esi, %esi
	jne	.L137
	.loc 1 768 0
	cmpl	$0, 32(%ebx)
	je	.L138
.L137:
	.loc 1 772 0
	movl	-40(%ebp), %eax
.LVL118:
	jmp	.L156
.LVL119:
.L138:
	.loc 1 775 0
	movl	16(%ebp), %eax
.LVL120:
.L156:
	movl	%eax, (%edi)
	xorl	%eax, %eax
.LVL121:
.L131:
	.loc 1 781 0
	movl	-28(%ebp), %ecx
	xorl	%gs:20, %ecx
	je	.L139
	call	__stack_chk_fail
.LVL122:
.L139:
	leal	-12(%ebp), %esp
	popl	%ebx
	.cfi_restore 3
	popl	%esi
	.cfi_restore 6
	popl	%edi
	.cfi_restore 7
	popl	%ebp
	.cfi_restore 5
	.cfi_def_cfa 4, 4
	ret
	.cfi_endproc
.LFE37:
	.size	netconn_write_partly, .-netconn_write_partly
	.section	.text.unlikely.netconn_write_partly
.LCOLDE31:
	.section	.text.netconn_write_partly
.LHOTE31:
	.section	.text.unlikely.netconn_close,"ax",@progbits
.LCOLDB32:
	.section	.text.netconn_close,"ax",@progbits
.LHOTB32:
	.globl	netconn_close
	.type	netconn_close, @function
netconn_close:
.LFB39:
	.loc 1 829 0
	.cfi_startproc
.LVL123:
	pushl	%ebp
	.cfi_def_cfa_offset 8
	.cfi_offset 5, -8
	.loc 1 831 0
	movl	$3, %edx
	.loc 1 829 0
	movl	%esp, %ebp
	.cfi_def_cfa_register 5
	.loc 1 831 0
	movl	8(%ebp), %eax
	.loc 1 832 0
	popl	%ebp
	.cfi_restore 5
	.cfi_def_cfa 4, 4
	.loc 1 831 0
	jmp	netconn_close_shutdown
.LVL124:
	.cfi_endproc
.LFE39:
	.size	netconn_close, .-netconn_close
	.section	.text.unlikely.netconn_close
.LCOLDE32:
	.section	.text.netconn_close
.LHOTE32:
	.section	.text.unlikely.netconn_shutdown,"ax",@progbits
.LCOLDB33:
	.section	.text.netconn_shutdown,"ax",@progbits
.LHOTB33:
	.globl	netconn_shutdown
	.type	netconn_shutdown, @function
netconn_shutdown:
.LFB40:
	.loc 1 845 0
	.cfi_startproc
.LVL125:
	pushl	%ebp
	.cfi_def_cfa_offset 8
	.cfi_offset 5, -8
	movl	%esp, %ebp
	.cfi_def_cfa_register 5
	.loc 1 846 0
	cmpb	$0, 12(%ebp)
	setne	%al
	cmpb	$1, 16(%ebp)
	sbbl	%edx, %edx
	notl	%edx
	andl	$2, %edx
	orl	%eax, %edx
	movl	8(%ebp), %eax
	.loc 1 847 0
	popl	%ebp
	.cfi_restore 5
	.cfi_def_cfa 4, 4
	.loc 1 846 0
	movsbl	%dl, %edx
	jmp	netconn_close_shutdown
.LVL126:
	.cfi_endproc
.LFE40:
	.size	netconn_shutdown, .-netconn_shutdown
	.section	.text.unlikely.netconn_shutdown
.LCOLDE33:
	.section	.text.netconn_shutdown
.LHOTE33:
	.section	.rodata.str1.1
.LC34:
	.string	"netconn_join_leave_group: invalid conn"
	.section	.text.unlikely.netconn_join_leave_group,"ax",@progbits
.LCOLDB35:
	.section	.text.netconn_join_leave_group,"ax",@progbits
.LHOTB35:
	.globl	netconn_join_leave_group
	.type	netconn_join_leave_group, @function
netconn_join_leave_group:
.LFB41:
	.loc 1 866 0
	.cfi_startproc
.LVL127:
	pushl	%ebp
	.cfi_def_cfa_offset 8
	.cfi_offset 5, -8
	movl	%esp, %ebp
	.cfi_def_cfa_register 5
	pushl	%ebx
	subl	$36, %esp
	.cfi_offset 3, -12
	.loc 1 866 0
	movl	8(%ebp), %ecx
	movl	12(%ebp), %edx
	movl	%gs:20, %ebx
	movl	%ebx, -12(%ebp)
	xorl	%ebx, %ebx
	movl	16(%ebp), %eax
	.loc 1 870 0
	testl	%ecx, %ecx
	jne	.L164
	.loc 1 870 0 discriminator 1
	subl	$12, %esp
	pushl	$.LC34
	call	bk_printf
.LVL128:
	addl	$16, %esp
	movb	$-16, %al
	jmp	.L165
.L164:
	.loc 1 876 0
	movl	$ip_addr_any, %ebx
	testl	%edx, %edx
	.loc 1 882 0
	movl	%ecx, -36(%ebp)
	.loc 1 876 0
	cmove	%ebx, %edx
.LVL129:
	.loc 1 879 0
	testl	%eax, %eax
	cmove	%ebx, %eax
.LVL130:
	.loc 1 883 0
	movl	%edx, -28(%ebp)
	.loc 1 886 0
	leal	-36(%ebp), %edx
.LVL131:
	.loc 1 884 0
	movl	%eax, -24(%ebp)
	.loc 1 885 0
	movl	20(%ebp), %eax
.LVL132:
	movl	%eax, -20(%ebp)
	.loc 1 886 0
	movl	$lwip_netconn_do_join_leave_group, %eax
	call	netconn_apimsg
.LVL133:
.L165:
	.loc 1 890 0
	movl	-12(%ebp), %ecx
	xorl	%gs:20, %ecx
	je	.L168
	call	__stack_chk_fail
.LVL134:
.L168:
	movl	-4(%ebp), %ebx
	leave
	.cfi_restore 5
	.cfi_restore 3
	.cfi_def_cfa 4, 4
	ret
	.cfi_endproc
.LFE41:
	.size	netconn_join_leave_group, .-netconn_join_leave_group
	.section	.text.unlikely.netconn_join_leave_group
.LCOLDE35:
	.section	.text.netconn_join_leave_group
.LHOTE35:
	.section	.rodata.str1.1
.LC36:
	.string	"netconn_gethostbyname: invalid name"
.LC37:
	.string	"netconn_gethostbyname: invalid addr"
	.section	.text.unlikely.netconn_gethostbyname,"ax",@progbits
.LCOLDB38:
	.section	.text.netconn_gethostbyname,"ax",@progbits
.LHOTB38:
	.globl	netconn_gethostbyname
	.type	netconn_gethostbyname, @function
netconn_gethostbyname:
.LFB42:
	.loc 1 913 0
	.cfi_startproc
.LVL135:
	pushl	%ebp
	.cfi_def_cfa_offset 8
	.cfi_offset 5, -8
	movl	%esp, %ebp
	.cfi_def_cfa_register 5
	subl	$40, %esp
	.loc 1 913 0
	movl	8(%ebp), %edx
	movl	12(%ebp), %ecx
	movl	%gs:20, %eax
	movl	%eax, -12(%ebp)
	xorl	%eax, %eax
	.loc 1 920 0
	testl	%edx, %edx
	jne	.L171
	.loc 1 920 0 discriminator 1
	subl	$12, %esp
	pushl	$.LC36
	jmp	.L177
.L171:
	.loc 1 921 0
	testl	%ecx, %ecx
	jne	.L173
	.loc 1 921 0 discriminator 1
	subl	$12, %esp
	pushl	$.LC37
.L177:
	call	bk_printf
.LVL136:
	addl	$16, %esp
	movb	$-16, %al
	jmp	.L172
.L173:
	.loc 1 933 0
	leal	-33(%ebp), %eax
	.loc 1 936 0
	movl	%edx, -28(%ebp)
	.loc 1 944 0
	pushl	%edx
	pushl	%edx
	pushl	$0
	.loc 1 933 0
	movl	%eax, -16(%ebp)
	.loc 1 934 0
	leal	-32(%ebp), %eax
	.loc 1 935 0
	movl	%ecx, -24(%ebp)
	.loc 1 944 0
	pushl	%eax
	.loc 1 934 0
	movl	%eax, -20(%ebp)
	.loc 1 944 0
	call	sys_sem_new
.LVL137:
	.loc 1 945 0
	addl	$16, %esp
	testb	%al, %al
	.loc 1 944 0
	movb	%al, -33(%ebp)
	.loc 1 945 0
	jne	.L172
	.loc 1 951 0
	leal	-28(%ebp), %eax
	pushl	%ecx
	pushl	$1
	pushl	%eax
	pushl	$lwip_netconn_do_gethostbyname
	call	tcpip_callback_with_block
.LVL138:
	.loc 1 952 0
	addl	$16, %esp
	testb	%al, %al
	.loc 1 951 0
	movb	%al, -33(%ebp)
	.loc 1 952 0
	je	.L174
	.loc 1 954 0
	subl	$12, %esp
	jmp	.L178
.L174:
	.loc 1 959 0
	pushl	%eax
	pushl	%eax
	pushl	$0
	pushl	-20(%ebp)
	call	sys_arch_sem_wait
.LVL139:
	.loc 1 961 0
	popl	%edx
.L178:
	pushl	-20(%ebp)
	call	sys_sem_free
.LVL140:
	.loc 1 970 0
	movb	-33(%ebp), %al
	addl	$16, %esp
.L172:
	.loc 1 971 0
	movl	-12(%ebp), %edx
	xorl	%gs:20, %edx
	je	.L175
	call	__stack_chk_fail
.LVL141:
.L175:
	leave
	.cfi_restore 5
	.cfi_def_cfa 4, 4
	ret
	.cfi_endproc
.LFE42:
	.size	netconn_gethostbyname, .-netconn_gethostbyname
	.section	.text.unlikely.netconn_gethostbyname
.LCOLDE38:
	.section	.text.netconn_gethostbyname
.LHOTE38:
	.text
.Letext0:
	.section	.text.unlikely.netconn_apimsg
.Letext_cold0:
	.file 2 "/home/stone/Documents/Ali_IOT/build/compiler/gcc-arm-none-eabi/Linux64/lib/gcc/arm-none-eabi/5.4.1/include/stddef.h"
	.file 3 "././platform/mcu/moc108/include/lwip-2.0.2/arch/cc.h"
	.file 4 "./kernel/protocols/net/include/lwip/err.h"
	.file 5 "./kernel/protocols/net/include/lwip/pbuf.h"
	.file 6 "./include/aos/kernel.h"
	.file 7 "./kernel/protocols/net/include/lwip/ip4_addr.h"
	.file 8 "./kernel/protocols/net/include/lwip/ip_addr.h"
	.file 9 "./kernel/protocols/net/include/lwip/netbuf.h"
	.file 10 "./kernel/protocols/net/port/include/arch/sys_arch.h"
	.file 11 "./kernel/protocols/net/include/lwip/api.h"
	.file 12 "./kernel/protocols/net/include/lwip/ip.h"
	.file 13 "./kernel/protocols/net/include/lwip/tcp.h"
	.file 14 "./kernel/protocols/net/include/lwip/udp.h"
	.file 15 "./kernel/protocols/net/include/lwip/raw.h"
	.file 16 "./kernel/protocols/net/include/lwip/priv/api_msg.h"
	.file 17 "./kernel/protocols/net/include/lwip/memp.h"
	.file 18 "./kernel/protocols/net/include/lwip/tcpip.h"
	.file 19 "./kernel/protocols/net/include/lwip/priv/tcp_priv.h"
	.file 20 "./kernel/protocols/net/include/lwip/prot/tcp.h"
	.file 21 "./include/aos/log.h"
	.file 22 "./kernel/protocols/net/include/lwip/priv/tcpip_priv.h"
	.file 23 "././platform/mcu/moc108/include/driver/uart_pub.h"
	.file 24 "./kernel/protocols/net/include/lwip/sys.h"
	.section	.note.GNU-stack,"",@progbits
