	.file	"api_msg.c"
	.text
.Ltext0:
	.section	.text.unlikely.recv_udp,"ax",@progbits
.LCOLDB0:
	.section	.text.recv_udp,"ax",@progbits
.LHOTB0:
	.section	.text.unlikely.recv_udp
.Ltext_cold0:
	.section	.text.recv_udp
	.type	recv_udp, @function
recv_udp:
.LFB24:
	.file 1 "kernel/protocols/net/api/api_msg.c"
	.loc 1 167 0
	.cfi_startproc
.LVL0:
	pushl	%ebp
	.cfi_def_cfa_offset 8
	.cfi_offset 5, -8
	movl	%esp, %ebp
	.cfi_def_cfa_register 5
	pushl	%edi
	pushl	%esi
	pushl	%ebx
	subl	$28, %esp
	.cfi_offset 7, -12
	.cfi_offset 6, -16
	.cfi_offset 3, -20
	.loc 1 167 0
	movl	8(%ebp), %ebx
.LVL1:
	movl	24(%ebp), %eax
	movl	16(%ebp), %esi
	movl	20(%ebp), %edi
	.loc 1 186 0
	testl	%ebx, %ebx
	.loc 1 167 0
	movl	%eax, -32(%ebp)
	.loc 1 186 0
	je	.L3
	.loc 1 186 0 discriminator 1
	leal	20(%ebx), %eax
	subl	$12, %esp
	pushl	%eax
	movl	%eax, -28(%ebp)
	call	aos_queue_is_valid
.LVL2:
	addl	$16, %esp
	testl	%eax, %eax
	jne	.L16
.L3:
	.loc 1 188 0
	movl	%esi, 8(%ebp)
	.loc 1 225 0
	leal	-12(%ebp), %esp
	popl	%ebx
	.cfi_remember_state
	.cfi_restore 3
.LVL3:
	popl	%esi
	.cfi_restore 6
	popl	%edi
	.cfi_restore 7
	popl	%ebp
	.cfi_restore 5
	.cfi_def_cfa 4, 4
	.loc 1 188 0
	jmp	pbuf_free
.LVL4:
.L16:
	.cfi_restore_state
	.loc 1 192 0
	subl	$12, %esp
	pushl	$5
	call	memp_malloc
.LVL5:
	.loc 1 193 0
	addl	$16, %esp
	testl	%eax, %eax
	.loc 1 192 0
	movl	%eax, %edx
.LVL6:
	.loc 1 193 0
	je	.L3
	.loc 1 197 0
	movl	%esi, (%eax)
	.loc 1 198 0
	movl	%esi, 4(%eax)
	.loc 1 199 0
	xorl	%eax, %eax
.LVL7:
	testl	%edi, %edi
	je	.L6
	.loc 1 199 0 is_stmt 0 discriminator 1
	movl	(%edi), %eax
.L6:
	.loc 1 199 0 is_stmt 1 discriminator 4
	movl	%eax, 8(%edx)
	.loc 1 200 0 discriminator 4
	movl	-32(%ebp), %eax
	.loc 1 214 0 discriminator 4
	movzwl	8(%esi), %edi
.LVL8:
	.loc 1 215 0 discriminator 4
	movl	%edx, -32(%ebp)
	.loc 1 200 0 discriminator 4
	movw	%ax, 12(%edx)
	.loc 1 215 0 discriminator 4
	pushl	%eax
	pushl	%eax
	pushl	%edx
	pushl	-28(%ebp)
	call	sys_mbox_trypost
.LVL9:
	addl	$16, %esp
	testb	%al, %al
	movl	-32(%ebp), %edx
	je	.L7
	.loc 1 216 0
	movl	%edx, 8(%ebp)
	.loc 1 225 0
	leal	-12(%ebp), %esp
	popl	%ebx
	.cfi_remember_state
	.cfi_restore 3
.LVL10:
	popl	%esi
	.cfi_restore 6
	popl	%edi
	.cfi_restore 7
.LVL11:
	popl	%ebp
	.cfi_restore 5
	.cfi_def_cfa 4, 4
	.loc 1 216 0
	jmp	netbuf_delete
.LVL12:
.L7:
	.cfi_restore_state
	.loc 1 223 0
	movl	52(%ebx), %eax
	testl	%eax, %eax
	je	.L1
	.loc 1 223 0 is_stmt 0 discriminator 1
	movl	%edi, 16(%ebp)
	movl	%ebx, 8(%ebp)
	movl	$0, 12(%ebp)
	.loc 1 225 0 is_stmt 1 discriminator 1
	leal	-12(%ebp), %esp
	popl	%ebx
	.cfi_remember_state
	.cfi_restore 3
.LVL13:
	popl	%esi
	.cfi_restore 6
	popl	%edi
	.cfi_restore 7
.LVL14:
	popl	%ebp
	.cfi_restore 5
	.cfi_def_cfa 4, 4
	.loc 1 223 0 discriminator 1
	jmp	*%eax
.LVL15:
.L1:
	.cfi_restore_state
	.loc 1 225 0
	leal	-12(%ebp), %esp
	popl	%ebx
	.cfi_restore 3
.LVL16:
	popl	%esi
	.cfi_restore 6
	popl	%edi
	.cfi_restore 7
.LVL17:
	popl	%ebp
	.cfi_restore 5
	.cfi_def_cfa 4, 4
	ret
	.cfi_endproc
.LFE24:
	.size	recv_udp, .-recv_udp
	.section	.text.unlikely.recv_udp
.LCOLDE0:
	.section	.text.recv_udp
.LHOTE0:
	.section	.text.unlikely.recv_raw,"ax",@progbits
.LCOLDB1:
	.section	.text.recv_raw,"ax",@progbits
.LHOTB1:
	.type	recv_raw, @function
recv_raw:
.LFB23:
	.loc 1 101 0
	.cfi_startproc
.LVL18:
	pushl	%ebp
	.cfi_def_cfa_offset 8
	.cfi_offset 5, -8
	movl	%esp, %ebp
	.cfi_def_cfa_register 5
	pushl	%edi
	pushl	%esi
	pushl	%ebx
	subl	$28, %esp
	.cfi_offset 7, -12
	.cfi_offset 6, -16
	.cfi_offset 3, -20
	.loc 1 101 0
	movl	8(%ebp), %ebx
.LVL19:
	.loc 1 109 0
	testl	%ebx, %ebx
	je	.L30
	.loc 1 109 0 discriminator 1
	leal	20(%ebx), %esi
	subl	$12, %esp
	pushl	%esi
	call	aos_queue_is_valid
.LVL20:
	addl	$16, %esp
	testl	%eax, %eax
	je	.L30
	.loc 1 118 0
	pushl	%eax
	movl	16(%ebp), %eax
	pushl	$0
	movzwl	8(%eax), %eax
	pushl	%eax
	pushl	$4
	call	pbuf_alloc
.LVL21:
	.loc 1 119 0
	addl	$16, %esp
	testl	%eax, %eax
	.loc 1 118 0
	movl	%eax, %edi
.LVL22:
	.loc 1 119 0
	je	.L30
.LVL23:
	.loc 1 120 0
	pushl	%eax
	pushl	%eax
	pushl	16(%ebp)
	pushl	%edi
	call	pbuf_copy
.LVL24:
	addl	$16, %esp
	testb	%al, %al
	je	.L21
.L24:
.LBB2:
	.loc 1 130 0
	subl	$12, %esp
	pushl	%edi
	call	pbuf_free
.LVL25:
	jmp	.L41
.L21:
	.loc 1 128 0
	subl	$12, %esp
	pushl	$5
	call	memp_malloc
.LVL26:
	.loc 1 129 0
	addl	$16, %esp
	testl	%eax, %eax
	.loc 1 128 0
	movl	%eax, %ecx
.LVL27:
	.loc 1 129 0
	je	.L24
	.loc 1 136 0
	movl	ip_data+16, %eax
.LVL28:
	.loc 1 134 0
	movl	%edi, (%ecx)
	.loc 1 135 0
	movl	%edi, 4(%ecx)
	.loc 1 139 0
	movzwl	8(%edi), %edi
.LVL29:
	.loc 1 140 0
	movl	%ecx, -28(%ebp)
	.loc 1 136 0
	movl	%eax, 8(%ecx)
	.loc 1 137 0
	movl	12(%ebp), %eax
	movzbl	16(%eax), %eax
	movw	%ax, 12(%ecx)
	.loc 1 140 0
	pushl	%eax
.LVL30:
	pushl	%eax
	pushl	%ecx
	pushl	%esi
	call	sys_mbox_trypost
.LVL31:
	addl	$16, %esp
	testb	%al, %al
	movl	-28(%ebp), %ecx
	je	.L23
	.loc 1 141 0
	subl	$12, %esp
	pushl	%ecx
	call	netbuf_delete
.LVL32:
.L41:
	.loc 1 148 0 discriminator 1
	addl	$16, %esp
	jmp	.L30
.LVL33:
.L23:
	.loc 1 148 0 is_stmt 0
	movl	52(%ebx), %eax
	testl	%eax, %eax
	je	.L30
	.loc 1 148 0 discriminator 1
	pushl	%edx
	pushl	%edi
	pushl	$0
	pushl	%ebx
	call	*%eax
.LVL34:
	jmp	.L41
.LVL35:
.L30:
.LBE2:
	.loc 1 154 0 is_stmt 1
	leal	-12(%ebp), %esp
	xorl	%eax, %eax
	popl	%ebx
	.cfi_restore 3
.LVL36:
	popl	%esi
	.cfi_restore 6
	popl	%edi
	.cfi_restore 7
	popl	%ebp
	.cfi_restore 5
	.cfi_def_cfa 4, 4
	ret
	.cfi_endproc
.LFE23:
	.size	recv_raw, .-recv_raw
	.section	.text.unlikely.recv_raw
.LCOLDE1:
	.section	.text.recv_raw
.LHOTE1:
	.section	.text.unlikely.setup_tcp,"ax",@progbits
.LCOLDB2:
	.section	.text.setup_tcp,"ax",@progbits
.LHOTB2:
	.type	setup_tcp, @function
setup_tcp:
.LFB29:
	.loc 1 450 0
	.cfi_startproc
.LVL37:
	pushl	%ebp
	.cfi_def_cfa_offset 8
	.cfi_offset 5, -8
	movl	%esp, %ebp
	.cfi_def_cfa_register 5
	pushl	%ebx
	subl	$12, %esp
	.cfi_offset 3, -12
	.loc 1 453 0
	movl	8(%eax), %ebx
.LVL38:
	.loc 1 454 0
	pushl	%eax
	pushl	%ebx
	call	tcp_arg
.LVL39:
	.loc 1 455 0
	popl	%eax
	popl	%edx
	pushl	$recv_tcp
	pushl	%ebx
	call	tcp_recv
.LVL40:
	.loc 1 456 0
	popl	%ecx
	popl	%eax
	pushl	$sent_tcp
	pushl	%ebx
	call	tcp_sent
.LVL41:
	.loc 1 457 0
	addl	$12, %esp
	pushl	$2
	pushl	$poll_tcp
	pushl	%ebx
	call	tcp_poll
.LVL42:
	.loc 1 458 0
	popl	%eax
	popl	%edx
	pushl	$err_tcp
	pushl	%ebx
	call	tcp_err
.LVL43:
	.loc 1 459 0
	addl	$16, %esp
	movl	-4(%ebp), %ebx
.LVL44:
	leave
	.cfi_restore 5
	.cfi_restore 3
	.cfi_def_cfa 4, 4
	ret
	.cfi_endproc
.LFE29:
	.size	setup_tcp, .-setup_tcp
	.section	.text.unlikely.setup_tcp
.LCOLDE2:
	.section	.text.setup_tcp
.LHOTE2:
	.section	.text.unlikely.err_tcp,"ax",@progbits
.LCOLDB3:
	.section	.text.err_tcp,"ax",@progbits
.LHOTB3:
	.type	err_tcp, @function
err_tcp:
.LFB28:
	.loc 1 376 0
	.cfi_startproc
.LVL45:
	pushl	%ebp
	.cfi_def_cfa_offset 8
	.cfi_offset 5, -8
	movl	%esp, %ebp
	.cfi_def_cfa_register 5
	pushl	%edi
	pushl	%esi
	pushl	%ebx
	subl	$28, %esp
	.cfi_offset 7, -12
	.cfi_offset 6, -16
	.cfi_offset 3, -20
	.loc 1 376 0
	movl	8(%ebp), %ebx
.LVL46:
	movl	12(%ebp), %edx
	.loc 1 386 0
	movl	4(%ebx), %esi
.LVL47:
	.loc 1 383 0
	movl	$0, 8(%ebx)
	.loc 1 387 0
	movl	$0, 4(%ebx)
	.loc 1 389 0
	cmpl	$4, %esi
	jne	.L45
.LVL48:
.LBB3:
	.loc 1 392 0 discriminator 1
	call	sys_arch_protect
.LVL49:
	cmpb	$-12, 12(%ebx)
	jl	.L46
	.loc 1 392 0 is_stmt 0 discriminator 2
	movb	$0, 12(%ebx)
.L46:
	.loc 1 392 0 discriminator 4
	subl	$12, %esp
.LBE3:
	.loc 1 391 0 is_stmt 1 discriminator 4
	xorl	%edi, %edi
.LBB4:
	.loc 1 392 0 discriminator 4
	pushl	%eax
	call	sys_arch_unprotect
.LVL50:
	addl	$16, %esp
	jmp	.L47
.LVL51:
.L45:
	movl	%edx, %edi
	movl	%edx, -28(%ebp)
.LBE4:
.LBB5:
	.loc 1 395 0
	call	sys_arch_protect
.LVL52:
	movl	-28(%ebp), %edx
	subl	$12, %esp
	movb	%dl, 12(%ebx)
	pushl	%eax
	call	sys_arch_unprotect
.LVL53:
	addl	$16, %esp
.LVL54:
.L47:
.LBE5:
	.loc 1 401 0
	movl	52(%ebx), %eax
	testl	%eax, %eax
	je	.L48
	.loc 1 401 0 is_stmt 0 discriminator 1
	pushl	%edx
	pushl	$0
	pushl	$4
	pushl	%ebx
	call	*%eax
.LVL55:
	addl	$16, %esp
.L48:
	.loc 1 404 0 is_stmt 1
	movl	52(%ebx), %eax
	testl	%eax, %eax
	je	.L49
	.loc 1 404 0 is_stmt 0 discriminator 1
	pushl	%ecx
	pushl	$0
	pushl	$0
	pushl	%ebx
	call	*%eax
.LVL56:
	addl	$16, %esp
.L49:
	.loc 1 405 0 is_stmt 1
	movl	52(%ebx), %eax
	testl	%eax, %eax
	je	.L50
	.loc 1 405 0 is_stmt 0 discriminator 1
	pushl	%edx
	pushl	$0
	pushl	$2
	pushl	%ebx
	call	*%eax
.LVL57:
	addl	$16, %esp
.L50:
	.loc 1 408 0 is_stmt 1
	leal	20(%ebx), %edx
	subl	$12, %esp
	pushl	%edx
	movl	%edx, -28(%ebp)
	call	aos_queue_is_valid
.LVL58:
	addl	$16, %esp
	testl	%eax, %eax
	movl	-28(%ebp), %edx
	je	.L51
	.loc 1 410 0
	pushl	%ecx
	pushl	%ecx
	pushl	$0
	pushl	%edx
	call	sys_mbox_trypost
.LVL59:
	addl	$16, %esp
.L51:
	.loc 1 413 0
	leal	24(%ebx), %edx
	subl	$12, %esp
	pushl	%edx
	movl	%edx, -28(%ebp)
	call	aos_queue_is_valid
.LVL60:
	addl	$16, %esp
	testl	%eax, %eax
	movl	-28(%ebp), %edx
	je	.L52
	.loc 1 415 0
	pushl	%eax
	pushl	%eax
	pushl	$0
	pushl	%edx
	call	sys_mbox_trypost
.LVL61:
	addl	$16, %esp
.L52:
	.loc 1 418 0
	leal	-3(%esi), %eax
	cmpl	$1, %eax
	jbe	.L53
	decl	%esi
.LVL62:
	jne	.L44
.L53:
.LBB6:
	.loc 1 422 0
	movb	40(%ebx), %al
.LVL63:
	.loc 1 423 0
	movb	%al, %dl
	andl	$-5, %edx
	.loc 1 425 0
	testb	$4, %al
	.loc 1 423 0
	movb	%dl, 40(%ebx)
	.loc 1 425 0
	jne	.L44
.LBB7:
	.loc 1 429 0
	movl	48(%ebx), %eax
.LVL64:
	movl	%edi, %ecx
	movb	%cl, 4(%eax)
	.loc 1 430 0
	movl	48(%ebx), %eax
	movl	(%eax), %esi
	.loc 1 432 0
	movl	$0, 48(%ebx)
.LBB8:
	.loc 1 434 0
	call	sys_arch_protect
.LVL65:
.LBE8:
	.loc 1 430 0
	addl	$16, %esi
.LVL66:
.LBB9:
	.loc 1 434 0
	cmpb	$-12, 12(%ebx)
	jl	.L56
	.loc 1 434 0 is_stmt 0 discriminator 2
	movl	%edi, %ecx
	movb	%cl, 12(%ebx)
.L56:
	.loc 1 434 0 discriminator 4
	subl	$12, %esp
	pushl	%eax
	call	sys_arch_unprotect
.LVL67:
.LBE9:
	.loc 1 435 0 is_stmt 1 discriminator 4
	movl	%esi, 8(%ebp)
	addl	$16, %esp
.LBE7:
.LBE6:
	.loc 1 440 0 discriminator 4
	leal	-12(%ebp), %esp
	popl	%ebx
	.cfi_remember_state
	.cfi_restore 3
.LVL68:
	popl	%esi
	.cfi_restore 6
.LVL69:
	popl	%edi
	.cfi_restore 7
.LVL70:
	popl	%ebp
	.cfi_restore 5
	.cfi_def_cfa 4, 4
.LBB11:
.LBB10:
	.loc 1 435 0 discriminator 4
	jmp	sys_sem_signal
.LVL71:
.L44:
	.cfi_restore_state
.LBE10:
.LBE11:
	.loc 1 440 0
	leal	-12(%ebp), %esp
	popl	%ebx
	.cfi_restore 3
.LVL72:
	popl	%esi
	.cfi_restore 6
	popl	%edi
	.cfi_restore 7
.LVL73:
	popl	%ebp
	.cfi_restore 5
	.cfi_def_cfa 4, 4
	ret
	.cfi_endproc
.LFE28:
	.size	err_tcp, .-err_tcp
	.section	.text.unlikely.err_tcp
.LCOLDE3:
	.section	.text.err_tcp
.LHOTE3:
	.section	.text.unlikely.lwip_netconn_do_connected,"ax",@progbits
.LCOLDB4:
	.section	.text.lwip_netconn_do_connected,"ax",@progbits
.LHOTB4:
	.type	lwip_netconn_do_connected, @function
lwip_netconn_do_connected:
.LFB39:
	.loc 1 1166 0
	.cfi_startproc
.LVL74:
	pushl	%ebp
	.cfi_def_cfa_offset 8
	.cfi_offset 5, -8
	.loc 1 1176 0
	movb	$-6, %al
	.loc 1 1166 0
	movl	%esp, %ebp
	.cfi_def_cfa_register 5
	pushl	%edi
	pushl	%esi
	pushl	%ebx
	subl	$28, %esp
	.cfi_offset 7, -12
	.cfi_offset 6, -16
	.cfi_offset 3, -20
	.loc 1 1166 0
	movl	8(%ebp), %ebx
.LVL75:
	movl	16(%ebp), %edx
	.loc 1 1175 0
	testl	%ebx, %ebx
	je	.L74
	.loc 1 1183 0
	movl	48(%ebx), %eax
	.loc 1 1169 0
	xorl	%esi, %esi
	.loc 1 1183 0
	testl	%eax, %eax
	je	.L75
	.loc 1 1184 0
	movb	%dl, 4(%eax)
	.loc 1 1185 0
	movl	48(%ebx), %eax
	movl	(%eax), %esi
	addl	$16, %esi
.LVL76:
.L75:
	.loc 1 1187 0
	movl	(%ebx), %eax
	andl	$240, %eax
	cmpl	$16, %eax
	jne	.L76
	testb	%dl, %dl
	jne	.L76
	.loc 1 1188 0
	movl	%ebx, %eax
	call	setup_tcp
.LVL77:
.L76:
	.loc 1 1190 0
	movb	40(%ebx), %al
	.loc 1 1195 0
	movl	$0, 48(%ebx)
	.loc 1 1196 0
	movl	$0, 4(%ebx)
	movl	%eax, %edi
	.loc 1 1191 0
	andl	$-5, %eax
	movb	%al, 40(%ebx)
	andl	$4, %edi
.LVL78:
.LBB12:
	.loc 1 1197 0
	call	sys_arch_protect
.LVL79:
	cmpb	$-12, 12(%ebx)
	jl	.L77
	.loc 1 1197 0 is_stmt 0 discriminator 2
	movb	$0, 12(%ebx)
.L77:
	.loc 1 1197 0 discriminator 4
	subl	$12, %esp
	pushl	%eax
	call	sys_arch_unprotect
.LVL80:
.LBE12:
	.loc 1 1198 0 is_stmt 1 discriminator 4
	movl	52(%ebx), %eax
	addl	$16, %esp
	testl	%eax, %eax
	je	.L78
	.loc 1 1198 0 is_stmt 0 discriminator 1
	pushl	%edx
	pushl	$0
	pushl	$2
	pushl	%ebx
	call	*%eax
.LVL81:
	addl	$16, %esp
.L78:
	.loc 1 1200 0 is_stmt 1
	movl	%edi, %ecx
	.loc 1 1203 0
	xorl	%eax, %eax
	.loc 1 1200 0
	testb	%cl, %cl
	jne	.L74
.LVL82:
	.loc 1 1201 0
	subl	$12, %esp
	movb	%al, -25(%ebp)
	pushl	%esi
	call	sys_sem_signal
.LVL83:
	movb	-25(%ebp), %al
	addl	$16, %esp
.LVL84:
.L74:
	.loc 1 1204 0
	leal	-12(%ebp), %esp
	popl	%ebx
	.cfi_restore 3
.LVL85:
	popl	%esi
	.cfi_restore 6
	popl	%edi
	.cfi_restore 7
	popl	%ebp
	.cfi_restore 5
	.cfi_def_cfa 4, 4
	ret
	.cfi_endproc
.LFE39:
	.size	lwip_netconn_do_connected, .-lwip_netconn_do_connected
	.section	.text.unlikely.lwip_netconn_do_connected
.LCOLDE4:
	.section	.text.lwip_netconn_do_connected
.LHOTE4:
	.section	.text.unlikely.lwip_netconn_do_dns_found,"ax",@progbits
.LCOLDB5:
	.section	.text.lwip_netconn_do_dns_found,"ax",@progbits
.LHOTB5:
	.type	lwip_netconn_do_dns_found, @function
lwip_netconn_do_dns_found:
.LFB51:
	.loc 1 1898 0
	.cfi_startproc
.LVL86:
	pushl	%ebp
	.cfi_def_cfa_offset 8
	.cfi_offset 5, -8
	movl	%esp, %ebp
	.cfi_def_cfa_register 5
	.loc 1 1898 0
	movl	12(%ebp), %edx
	movl	16(%ebp), %eax
.LVL87:
	.loc 1 1904 0
	testl	%edx, %edx
	movl	12(%eax), %ecx
	jne	.L93
	.loc 1 1906 0
	movb	$-6, (%ecx)
	jmp	.L94
.L93:
	.loc 1 1909 0
	movb	$0, (%ecx)
	.loc 1 1910 0
	movl	4(%eax), %ecx
	movl	(%edx), %edx
	movl	%edx, (%ecx)
.LVL88:
.L94:
	.loc 1 1913 0
	movl	8(%eax), %eax
.LVL89:
	movl	%eax, 8(%ebp)
.LVL90:
	.loc 1 1914 0
	popl	%ebp
	.cfi_restore 5
	.cfi_def_cfa 4, 4
	.loc 1 1913 0
	jmp	sys_sem_signal
.LVL91:
	.cfi_endproc
.LFE51:
	.size	lwip_netconn_do_dns_found, .-lwip_netconn_do_dns_found
	.section	.text.unlikely.lwip_netconn_do_dns_found
.LCOLDE5:
	.section	.text.lwip_netconn_do_dns_found
.LHOTE5:
	.section	.text.unlikely.lwip_netconn_do_writemore,"ax",@progbits
.LCOLDB6:
	.section	.text.lwip_netconn_do_writemore,"ax",@progbits
.LHOTB6:
	.type	lwip_netconn_do_writemore, @function
lwip_netconn_do_writemore:
.LFB46:
	.loc 1 1498 0
	.cfi_startproc
.LVL92:
	pushl	%ebp
	.cfi_def_cfa_offset 8
	.cfi_offset 5, -8
	movl	%esp, %ebp
	.cfi_def_cfa_register 5
	pushl	%edi
	pushl	%esi
	pushl	%ebx
	.cfi_offset 7, -12
	.cfi_offset 6, -16
	.cfi_offset 3, -20
	movl	%eax, %ebx
	movl	$1, %esi
	subl	$28, %esp
	.loc 1 1515 0
	testb	$2, 40(%ebx)
	.loc 1 1514 0
	movl	48(%eax), %eax
.LVL93:
	.loc 1 1498 0
	movl	%edx, -32(%ebp)
	.loc 1 1514 0
	movb	16(%eax), %dl
.LVL94:
	.loc 1 1515 0
	jne	.L97
	.loc 1 1515 0 is_stmt 0 discriminator 2
	movb	%dl, %al
	shrb	$2, %al
	movl	%eax, %esi
	andl	$1, %esi
.L97:
.LVL95:
	.loc 1 1518 0 is_stmt 1 discriminator 6
	cmpl	$0, 32(%ebx)
	je	.L98
	movb	%dl, -28(%ebp)
	.loc 1 1519 0 discriminator 1
	call	sys_now
.LVL96:
	movl	48(%ebx), %ecx
	.loc 1 1518 0 discriminator 1
	movb	-28(%ebp), %dl
	subl	20(%ecx), %eax
	cmpl	32(%ebx), %eax
	jl	.L98
.LVL97:
	.loc 1 1521 0
	movl	44(%ebx), %eax
	testl	%eax, %eax
	jne	.L99
.LVL98:
	.loc 1 1524 0
	movl	$0, 12(%ecx)
	.loc 1 1523 0
	movb	$-7, %dl
	jmp	.L100
.LVL99:
.L99:
	.loc 1 1528 0
	movl	%eax, 12(%ecx)
	.loc 1 1527 0
	xorl	%edx, %edx
	jmp	.L100
.LVL100:
.L98:
	.loc 1 1534 0
	movl	48(%ebx), %eax
	movl	44(%ebx), %edi
	movl	8(%eax), %ecx
	addl	%edi, %ecx
	movl	%ecx, -28(%ebp)
.LVL101:
	.loc 1 1535 0
	movl	12(%eax), %ecx
.LVL102:
	subl	%edi, %ecx
.LVL103:
	.loc 1 1536 0
	cmpl	$65535, %ecx
	.loc 1 1540 0
	movl	%ecx, %eax
	.loc 1 1536 0
	jbe	.L102
.LVL104:
	.loc 1 1538 0
	orl	$2, %edx
.LVL105:
	.loc 1 1537 0
	orl	$-1, %eax
.LVL106:
.L102:
	.loc 1 1542 0
	movl	8(%ebx), %edi
	movl	100(%edi), %ecx
.LVL107:
	.loc 1 1543 0
	cmpw	%cx, %ax
	jbe	.L126
.LVL108:
	.loc 1 1546 0
	testl	%esi, %esi
	je	.L104
	.loc 1 1547 0
	testw	%cx, %cx
	je	.L127
	jmp	.L103
.L104:
	.loc 1 1552 0
	orl	$2, %edx
.LVL109:
	jmp	.L103
.LVL110:
.L126:
	movl	%eax, %ecx
.LVL111:
.L103:
	.loc 1 1556 0
	movzbl	%dl, %edx
	movzwl	%cx, %eax
	movl	%ecx, -36(%ebp)
	pushl	%edx
.LVL112:
	pushl	%eax
	pushl	-28(%ebp)
	pushl	%edi
	call	tcp_write
.LVL113:
	movb	%al, %dl
.LVL114:
	.loc 1 1558 0
	addl	$16, %esp
	movl	-36(%ebp), %ecx
	leal	1(%edx), %eax
.LVL115:
	cmpb	$1, %al
	ja	.L106
.L107:
	.loc 1 1560 0
	testl	%esi, %esi
	je	.L108
	jmp	.L105
.LVL116:
.L127:
	.loc 1 1548 0
	movb	$-7, %dl
.LVL117:
.L105:
	.loc 1 1560 0 discriminator 1
	movl	48(%ebx), %eax
	movzwl	%cx, %edi
	cmpl	12(%eax), %edi
	jnb	.L108
	.loc 1 1563 0
	movl	52(%ebx), %eax
	testl	%eax, %eax
	je	.L109
	movb	%dl, -28(%ebp)
.LVL118:
	.loc 1 1563 0 is_stmt 0 discriminator 1
	pushl	%ecx
	pushl	%edi
	pushl	$3
	pushl	%ebx
	call	*%eax
.LVL119:
	movb	-28(%ebp), %dl
	addl	$16, %esp
.LVL120:
.L109:
	.loc 1 1564 0 is_stmt 1
	orb	$16, 40(%ebx)
.LVL121:
	.loc 1 1573 0
	testb	%dl, %dl
	je	.L110
	jmp	.L106
.LVL122:
.L108:
	.loc 1 1565 0
	movl	8(%ebx), %eax
	cmpw	$7300, 100(%eax)
	jbe	.L111
	.loc 1 1565 0 is_stmt 0 discriminator 1
	cmpw	$9, 102(%eax)
	jbe	.L112
.L111:
	.loc 1 1569 0 is_stmt 1
	movl	52(%ebx), %eax
	testl	%eax, %eax
	je	.L112
	.loc 1 1569 0 is_stmt 0 discriminator 1
	movzwl	%cx, %edi
	movb	%dl, -36(%ebp)
	movl	%ecx, -28(%ebp)
.LVL123:
.LVL124:
	pushl	%edx
	pushl	%edi
	pushl	$3
	pushl	%ebx
	call	*%eax
.LVL125:
	movb	-36(%ebp), %dl
	movl	-28(%ebp), %ecx
	addl	$16, %esp
.LVL126:
.L112:
	.loc 1 1573 0 is_stmt 1
	testb	%dl, %dl
	jne	.L106
.LBB13:
	.loc 1 1575 0
	movzwl	%cx, %ecx
	addl	44(%ebx), %ecx
	.loc 1 1576 0
	movl	48(%ebx), %eax
	.loc 1 1575 0
	movl	%ecx, 44(%ebx)
	.loc 1 1576 0
	cmpl	%ecx, 12(%eax)
	je	.L124
.LBE13:
	.loc 1 1502 0
	xorl	%edi, %edi
.LBB14:
	.loc 1 1576 0
	testl	%esi, %esi
	je	.L113
.L124:
	.loc 1 1578 0
	movl	%ecx, 12(%eax)
.LVL127:
	.loc 1 1580 0
	movl	$1, %edi
.LVL128:
.L113:
	.loc 1 1582 0
	subl	$12, %esp
	pushl	8(%ebx)
	call	tcp_output
.LVL129:
	.loc 1 1583 0
	addl	$16, %esp
	cmpb	$-12, %al
	.loc 1 1582 0
	movb	%al, %dl
.LVL130:
	.loc 1 1583 0
	jl	.L117
	cmpb	$-4, %al
	jne	.L115
	jmp	.L117
.LVL131:
.L106:
.LBE14:
	.loc 1 1591 0
	cmpb	$-1, %dl
	jne	.L117
	testl	%esi, %esi
	jne	.L117
.LBB15:
	.loc 1 1597 0
	subl	$12, %esp
	pushl	8(%ebx)
	call	tcp_output
.LVL132:
	.loc 1 1598 0
	addl	$16, %esp
	cmpb	$-12, %al
	.loc 1 1597 0
	movb	%al, %dl
.LVL133:
	.loc 1 1598 0
	jl	.L117
	cmpb	$-4, %al
	je	.L117
.LVL134:
.L123:
.LBE15:
	.loc 1 1631 0
	movb	$-1, %bl
.LVL135:
	jmp	.L141
.LVL136:
.L117:
	.loc 1 1610 0
	movl	48(%ebx), %eax
	movl	$0, 12(%eax)
.LVL137:
.L100:
.LBB16:
	.loc 1 1616 0
	movl	48(%ebx), %eax
	movl	(%eax), %esi
.LVL138:
	.loc 1 1617 0
	movb	%dl, 4(%eax)
	.loc 1 1618 0
	movl	$0, 48(%ebx)
	.loc 1 1619 0
	movl	$0, 44(%ebx)
	.loc 1 1620 0
	movl	$0, 4(%ebx)
	.loc 1 1616 0
	addl	$16, %esi
.LVL139:
.L121:
	movb	%dl, -28(%ebp)
.LVL140:
.LBB17:
	.loc 1 1621 0 discriminator 1
	call	sys_arch_protect
.LVL141:
	cmpb	$-12, 12(%ebx)
	jl	.L120
	.loc 1 1621 0 is_stmt 0 discriminator 2
	movb	-28(%ebp), %dl
	movb	%dl, 12(%ebx)
.L120:
	.loc 1 1621 0 discriminator 4
	subl	$12, %esp
.LBE17:
.LBE16:
	.loc 1 1634 0 is_stmt 1 discriminator 4
	xorl	%ebx, %ebx
.LVL142:
.LBB19:
.LBB18:
	.loc 1 1621 0 discriminator 4
	pushl	%eax
	call	sys_arch_unprotect
.LVL143:
.LBE18:
	.loc 1 1623 0 discriminator 4
	addl	$16, %esp
	cmpb	$0, -32(%ebp)
	je	.L141
	.loc 1 1626 0
	subl	$12, %esp
	pushl	%esi
	call	sys_sem_signal
.LVL144:
	addl	$16, %esp
	jmp	.L141
.LVL145:
.L115:
.LBE19:
	.loc 1 1613 0
	movl	%edi, %eax
.LVL146:
	testb	%al, %al
	je	.L123
.LBB20:
	.loc 1 1616 0
	movl	48(%ebx), %eax
	.loc 1 1620 0
	xorl	%edx, %edx
.LVL147:
	.loc 1 1616 0
	movl	(%eax), %esi
.LVL148:
	.loc 1 1617 0
	movb	$0, 4(%eax)
	.loc 1 1618 0
	movl	$0, 48(%ebx)
	.loc 1 1619 0
	movl	$0, 44(%ebx)
	.loc 1 1620 0
	movl	$0, 4(%ebx)
	.loc 1 1616 0
	addl	$16, %esi
.LVL149:
	jmp	.L121
.LVL150:
.L110:
.LBE20:
.LBB21:
	.loc 1 1575 0
	addl	44(%ebx), %edi
	.loc 1 1576 0
	movl	48(%ebx), %eax
	.loc 1 1575 0
	movl	%edi, %ecx
	movl	%edi, 44(%ebx)
	jmp	.L124
.LVL151:
.L141:
.LBE21:
	.loc 1 1635 0
	leal	-12(%ebp), %esp
	movb	%bl, %al
	popl	%ebx
	.cfi_restore 3
	popl	%esi
	.cfi_restore 6
	popl	%edi
	.cfi_restore 7
	popl	%ebp
	.cfi_restore 5
	.cfi_def_cfa 4, 4
	ret
	.cfi_endproc
.LFE46:
	.size	lwip_netconn_do_writemore, .-lwip_netconn_do_writemore
	.section	.text.unlikely.lwip_netconn_do_writemore
.LCOLDE6:
	.section	.text.lwip_netconn_do_writemore
.LHOTE6:
	.section	.text.unlikely.lwip_netconn_do_close_internal,"ax",@progbits
.LCOLDB7:
	.section	.text.lwip_netconn_do_close_internal,"ax",@progbits
.LHOTB7:
	.type	lwip_netconn_do_close_internal, @function
lwip_netconn_do_close_internal:
.LFB36:
	.loc 1 812 0
	.cfi_startproc
.LVL152:
	pushl	%ebp
	.cfi_def_cfa_offset 8
	.cfi_offset 5, -8
	movl	%esp, %ebp
	.cfi_def_cfa_register 5
	pushl	%edi
	pushl	%esi
	pushl	%ebx
	.cfi_offset 7, -12
	.cfi_offset 6, -16
	.cfi_offset 3, -20
	movl	%eax, %ebx
	subl	$28, %esp
	.loc 1 827 0
	movl	8(%eax), %esi
.LVL153:
	.loc 1 828 0
	movl	48(%eax), %eax
.LVL154:
	.loc 1 812 0
	movl	%edx, -32(%ebp)
	.loc 1 828 0
	movb	8(%eax), %al
.LVL155:
	.loc 1 829 0
	movb	%al, %cl
	andl	$1, %ecx
	movb	%cl, -27(%ebp)
.LVL156:
	.loc 1 830 0
	movb	%al, %cl
.LVL157:
	andl	$2, %ecx
	.loc 1 833 0
	cmpb	$3, %al
	.loc 1 830 0
	movb	%cl, -26(%ebp)
.LVL158:
	.loc 1 833 0
	je	.L151
	.loc 1 835 0
	cmpb	$0, -27(%ebp)
	je	.L152
	.loc 1 836 0 discriminator 1
	movl	20(%esi), %eax
.LVL159:
	.loc 1 835 0 discriminator 1
	leal	-5(%eax), %edx
.LVL160:
	cmpl	$1, %edx
	jbe	.L151
	cmpl	$8, %eax
	je	.L151
.L152:
	.loc 1 840 0
	cmpb	$0, -26(%ebp)
	movb	$0, -25(%ebp)
	je	.L153
	.loc 1 840 0 is_stmt 0 discriminator 1
	testb	$16, 30(%esi)
	jne	.L151
.LVL161:
.L153:
	.loc 1 850 0 is_stmt 1
	cmpl	$1, 20(%esi)
	jne	.L154
	.loc 1 851 0
	pushl	%ecx
	pushl	%ecx
	pushl	$0
	pushl	%esi
	call	tcp_accept
.LVL162:
	.loc 1 867 0
	addl	$16, %esp
	cmpb	$0, -25(%ebp)
	jne	.L155
	jmp	.L156
.L154:
	.loc 1 854 0
	cmpb	$0, -27(%ebp)
	je	.L157
	.loc 1 855 0
	pushl	%edi
	pushl	%edi
	pushl	$0
	pushl	%esi
	call	tcp_recv
.LVL163:
	.loc 1 856 0
	popl	%eax
	popl	%edx
	pushl	$0
	pushl	%esi
	call	tcp_accept
.LVL164:
	addl	$16, %esp
.L157:
	.loc 1 858 0
	cmpb	$0, -26(%ebp)
	je	.L158
	.loc 1 859 0
	pushl	%ecx
	pushl	%ecx
	pushl	$0
	pushl	%esi
	call	tcp_sent
.LVL165:
	addl	$16, %esp
.L158:
	.loc 1 861 0
	cmpb	$0, -25(%ebp)
	je	.L156
	.loc 1 862 0
	pushl	%edi
	pushl	$0
	pushl	$0
	pushl	%esi
	call	tcp_poll
.LVL166:
	.loc 1 863 0
	popl	%eax
	popl	%edx
	pushl	$0
	pushl	%esi
	call	tcp_err
.LVL167:
	addl	$16, %esp
.L155:
	.loc 1 897 0
	subl	$12, %esp
	pushl	%esi
	call	tcp_close
.LVL168:
	jmp	.L212
.L156:
	.loc 1 900 0
	movzbl	-26(%ebp), %eax
	pushl	%ecx
	pushl	%eax
	movzbl	-27(%ebp), %eax
	pushl	%eax
	pushl	%esi
	call	tcp_shutdown
.LVL169:
.L212:
	addl	$16, %esp
	.loc 1 902 0
	testb	%al, %al
	.loc 1 900 0
	movl	%eax, %edi
.LVL170:
	.loc 1 902 0
	je	.L160
	.loc 1 912 0
	incb	%al
.LVL171:
	jne	.L160
.LVL172:
.LBB22:
	.loc 1 921 0
	movl	32(%ebx), %edx
	.loc 1 919 0
	movl	$20000, %eax
	testl	%edx, %edx
	cmovle	%eax, %edx
.LVL173:
	movl	%edx, -36(%ebp)
	.loc 1 931 0
	call	sys_now
.LVL174:
	movl	48(%ebx), %ecx
	movl	-36(%ebp), %edx
	subl	12(%ecx), %eax
	cmpl	%eax, %edx
	jg	.L162
.LVL175:
	.loc 1 936 0
	cmpb	$0, -25(%ebp)
	je	.L160
	.loc 1 938 0
	subl	$12, %esp
	.loc 1 939 0
	xorl	%edi, %edi
	.loc 1 938 0
	pushl	%esi
	call	tcp_abort
.LVL176:
	addl	$16, %esp
	jmp	.L160
.LVL177:
.L151:
.LBE22:
	.loc 1 848 0
	pushl	%eax
.LVL178:
	pushl	%eax
	pushl	$0
	pushl	%esi
	call	tcp_arg
.LVL179:
	addl	$16, %esp
	movb	$1, -25(%ebp)
	jmp	.L153
.LVL180:
.L160:
.LBB23:
	.loc 1 949 0
	movl	48(%ebx), %eax
	.loc 1 950 0
	movl	%edi, %edx
	.loc 1 953 0
	testb	%dl, %dl
	.loc 1 949 0
	movl	(%eax), %esi
.LVL181:
	.loc 1 950 0
	movb	%dl, 4(%eax)
	.loc 1 951 0
	movl	$0, 48(%ebx)
	.loc 1 952 0
	movl	$0, 4(%ebx)
	.loc 1 953 0
	jne	.L167
.LVL182:
	.loc 1 954 0
	cmpb	$0, -25(%ebp)
	je	.L164
	.loc 1 959 0
	movl	52(%ebx), %eax
	.loc 1 956 0
	movl	$0, 8(%ebx)
	.loc 1 959 0
	testl	%eax, %eax
	je	.L164
	.loc 1 959 0 is_stmt 0 discriminator 1
	pushl	%edx
	pushl	$0
	pushl	$4
	pushl	%ebx
	call	*%eax
.LVL183:
	addl	$16, %esp
.L164:
	.loc 1 961 0 is_stmt 1
	cmpb	$0, -27(%ebp)
	je	.L166
	.loc 1 962 0
	movl	52(%ebx), %eax
	testl	%eax, %eax
	je	.L167
	.loc 1 962 0 is_stmt 0 discriminator 1
	pushl	%ecx
	pushl	$0
	pushl	$0
	pushl	%ebx
	call	*%eax
.LVL184:
	addl	$16, %esp
.L166:
	.loc 1 964 0 is_stmt 1
	cmpb	$0, -26(%ebp)
	je	.L167
	.loc 1 965 0
	movl	52(%ebx), %eax
	testl	%eax, %eax
	je	.L167
	.loc 1 965 0 is_stmt 0 discriminator 1
	pushl	%edx
	pushl	$0
	pushl	$2
	pushl	%ebx
	call	*%eax
.LVL185:
	addl	$16, %esp
.LVL186:
.L167:
.LBB24:
	.loc 1 968 0 is_stmt 1
	call	sys_arch_protect
.LVL187:
	cmpb	$-12, 12(%ebx)
	jl	.L169
	.loc 1 968 0 is_stmt 0 discriminator 2
	movl	%edi, %ecx
	movb	%cl, 12(%ebx)
.L169:
	.loc 1 968 0 discriminator 4
	subl	$12, %esp
.LBE24:
	.loc 1 976 0 is_stmt 1 discriminator 4
	xorl	%ebx, %ebx
.LVL188:
.LBB25:
	.loc 1 968 0 discriminator 4
	pushl	%eax
	call	sys_arch_unprotect
.LVL189:
.LBE25:
	.loc 1 970 0 discriminator 4
	addl	$16, %esp
	cmpb	$0, -32(%ebp)
	je	.L199
	.loc 1 974 0
	subl	$12, %esp
	.loc 1 949 0
	addl	$16, %esi
.LVL190:
	.loc 1 974 0
	pushl	%esi
	call	sys_sem_signal
.LVL191:
	addl	$16, %esp
	jmp	.L199
.LVL192:
.L162:
.LBE23:
	.loc 1 982 0
	cmpb	$0, -26(%ebp)
	je	.L174
	.loc 1 983 0
	pushl	%ecx
	pushl	%ecx
	pushl	$sent_tcp
	pushl	%esi
	call	tcp_sent
.LVL193:
	addl	$16, %esp
.L174:
	.loc 1 986 0
	pushl	%edx
	pushl	$1
	pushl	$poll_tcp
	pushl	%esi
	call	tcp_poll
.LVL194:
	.loc 1 987 0
	popl	%ecx
	popl	%edi
	pushl	$err_tcp
	pushl	%esi
	call	tcp_err
.LVL195:
	.loc 1 988 0
	popl	%eax
	popl	%edx
	pushl	%ebx
	pushl	%esi
	movb	$-1, %bl
.LVL196:
	call	tcp_arg
.LVL197:
	addl	$16, %esp
.LVL198:
.L199:
	.loc 1 995 0
	leal	-12(%ebp), %esp
	movb	%bl, %al
	popl	%ebx
	.cfi_restore 3
	popl	%esi
	.cfi_restore 6
	popl	%edi
	.cfi_restore 7
	popl	%ebp
	.cfi_restore 5
	.cfi_def_cfa 4, 4
.LVL199:
	ret
	.cfi_endproc
.LFE36:
	.size	lwip_netconn_do_close_internal, .-lwip_netconn_do_close_internal
	.section	.text.unlikely.lwip_netconn_do_close_internal
.LCOLDE7:
	.section	.text.lwip_netconn_do_close_internal
.LHOTE7:
	.section	.text.unlikely.poll_tcp,"ax",@progbits
.LCOLDB8:
	.section	.text.poll_tcp,"ax",@progbits
.LHOTB8:
	.type	poll_tcp, @function
poll_tcp:
.LFB26:
	.loc 1 301 0
	.cfi_startproc
.LVL200:
	pushl	%ebp
	.cfi_def_cfa_offset 8
	.cfi_offset 5, -8
	movl	%esp, %ebp
	.cfi_def_cfa_register 5
	pushl	%ebx
	pushl	%ecx
	.cfi_offset 3, -12
	.loc 1 301 0
	movl	8(%ebp), %ebx
.LVL201:
	.loc 1 307 0
	movl	4(%ebx), %eax
	cmpl	$1, %eax
	jne	.L214
	.loc 1 308 0
	movl	$1, %edx
	movl	%ebx, %eax
	call	lwip_netconn_do_writemore
.LVL202:
	jmp	.L215
.L214:
	.loc 1 309 0
	cmpl	$4, %eax
	jne	.L215
	.loc 1 315 0
	movl	$1, %edx
	movl	%ebx, %eax
	call	lwip_netconn_do_close_internal
.LVL203:
.L215:
	.loc 1 320 0
	movb	40(%ebx), %al
	testb	$16, %al
	je	.L217
	.loc 1 323 0
	movl	8(%ebx), %edx
	testl	%edx, %edx
	je	.L217
	.loc 1 323 0 discriminator 1
	cmpw	$7300, 100(%edx)
	jbe	.L217
	.loc 1 323 0 is_stmt 0 discriminator 2
	cmpw	$9, 102(%edx)
	ja	.L217
	.loc 1 325 0 is_stmt 1
	andl	$-17, %eax
	movb	%al, 40(%ebx)
	.loc 1 326 0
	movl	52(%ebx), %eax
	testl	%eax, %eax
	je	.L217
	.loc 1 326 0 is_stmt 0 discriminator 1
	pushl	%edx
	pushl	$0
	pushl	$2
	pushl	%ebx
	call	*%eax
.LVL204:
	addl	$16, %esp
.L217:
	.loc 1 331 0 is_stmt 1
	xorl	%eax, %eax
	movl	-4(%ebp), %ebx
.LVL205:
	leave
	.cfi_restore 5
	.cfi_restore 3
	.cfi_def_cfa 4, 4
	ret
	.cfi_endproc
.LFE26:
	.size	poll_tcp, .-poll_tcp
	.section	.text.unlikely.poll_tcp
.LCOLDE8:
	.section	.text.poll_tcp
.LHOTE8:
	.section	.text.unlikely.recv_tcp,"ax",@progbits
.LCOLDB9:
	.section	.text.recv_tcp,"ax",@progbits
.LHOTB9:
	.type	recv_tcp, @function
recv_tcp:
.LFB25:
	.loc 1 237 0
	.cfi_startproc
.LVL206:
	pushl	%ebp
	.cfi_def_cfa_offset 8
	.cfi_offset 5, -8
	.loc 1 247 0
	movb	$-6, %al
	.loc 1 237 0
	movl	%esp, %ebp
	.cfi_def_cfa_register 5
	pushl	%edi
	pushl	%esi
	pushl	%ebx
	subl	$28, %esp
	.cfi_offset 7, -12
	.cfi_offset 6, -16
	.cfi_offset 3, -20
	.loc 1 237 0
	movl	8(%ebp), %ebx
.LVL207:
	movl	16(%ebp), %esi
	movl	20(%ebp), %edi
	.loc 1 246 0
	testl	%ebx, %ebx
	je	.L227
	.loc 1 251 0
	leal	20(%ebx), %eax
	subl	$12, %esp
	pushl	%eax
	movl	%eax, -28(%ebp)
	call	aos_queue_is_valid
.LVL208:
	addl	$16, %esp
	testl	%eax, %eax
	jne	.L228
	.loc 1 253 0
	testl	%esi, %esi
	je	.L241
	.loc 1 254 0
	pushl	%ecx
	pushl	%ecx
	movzwl	8(%esi), %eax
	pushl	%eax
	pushl	12(%ebp)
	call	tcp_recved
.LVL209:
	.loc 1 255 0
	movl	%esi, (%esp)
	call	pbuf_free
.LVL210:
	addl	$16, %esp
.L241:
	.loc 1 257 0
	xorl	%eax, %eax
	jmp	.L227
.L228:
	.loc 1 264 0
	movl	%edi, %eax
	testb	%al, %al
	je	.L230
.LBB26:
	.loc 1 265 0 discriminator 1
	call	sys_arch_protect
.LVL211:
	cmpb	$-12, 12(%ebx)
	jl	.L231
	.loc 1 265 0 is_stmt 0 discriminator 2
	movl	%edi, %ecx
	movb	%cl, 12(%ebx)
.L231:
	.loc 1 265 0 discriminator 4
	subl	$12, %esp
	pushl	%eax
	call	sys_arch_unprotect
.LVL212:
	addl	$16, %esp
.L230:
.LBE26:
	.loc 1 271 0 is_stmt 1
	xorl	%edi, %edi
	.loc 1 268 0
	testl	%esi, %esi
	je	.L232
	.loc 1 269 0
	movzwl	8(%esi), %edi
.LVL213:
.L232:
	.loc 1 274 0
	pushl	%edx
	pushl	%edx
	pushl	%esi
	pushl	-28(%ebp)
	call	sys_mbox_trypost
.LVL214:
	addl	$16, %esp
	testb	%al, %al
	movb	%al, -28(%ebp)
	jne	.L236
	.loc 1 282 0
	movl	52(%ebx), %edx
	testl	%edx, %edx
	je	.L241
	.loc 1 282 0 is_stmt 0 discriminator 1
	pushl	%eax
	pushl	%edi
	pushl	$0
	pushl	%ebx
	call	*%edx
.LVL215:
	addl	$16, %esp
	movb	-28(%ebp), %al
	jmp	.L227
.L236:
	.loc 1 276 0 is_stmt 1
	movb	$-1, %al
.LVL216:
.L227:
	.loc 1 286 0
	leal	-12(%ebp), %esp
	popl	%ebx
	.cfi_restore 3
.LVL217:
	popl	%esi
	.cfi_restore 6
	popl	%edi
	.cfi_restore 7
	popl	%ebp
	.cfi_restore 5
	.cfi_def_cfa 4, 4
	ret
	.cfi_endproc
.LFE25:
	.size	recv_tcp, .-recv_tcp
	.section	.text.unlikely.recv_tcp
.LCOLDE9:
	.section	.text.recv_tcp
.LHOTE9:
	.section	.text.unlikely.sent_tcp,"ax",@progbits
.LCOLDB10:
	.section	.text.sent_tcp,"ax",@progbits
.LHOTB10:
	.type	sent_tcp, @function
sent_tcp:
.LFB27:
	.loc 1 342 0
	.cfi_startproc
.LVL218:
	pushl	%ebp
	.cfi_def_cfa_offset 8
	.cfi_offset 5, -8
	movl	%esp, %ebp
	.cfi_def_cfa_register 5
	pushl	%esi
	pushl	%ebx
	.cfi_offset 6, -12
	.cfi_offset 3, -16
	.loc 1 342 0
	movl	8(%ebp), %ebx
.LVL219:
	movl	16(%ebp), %esi
	.loc 1 348 0
	testl	%ebx, %ebx
	je	.L244
	.loc 1 349 0
	movl	4(%ebx), %eax
	cmpl	$1, %eax
	jne	.L245
	.loc 1 350 0
	movl	$1, %edx
	movl	%ebx, %eax
	call	lwip_netconn_do_writemore
.LVL220:
	jmp	.L246
.L245:
	.loc 1 351 0
	cmpl	$4, %eax
	jne	.L246
	.loc 1 352 0
	movl	$1, %edx
	movl	%ebx, %eax
	call	lwip_netconn_do_close_internal
.LVL221:
.L246:
	.loc 1 357 0
	movl	8(%ebx), %eax
	testl	%eax, %eax
	je	.L244
	.loc 1 357 0 discriminator 1
	cmpw	$7300, 100(%eax)
	jbe	.L244
	.loc 1 357 0 is_stmt 0 discriminator 2
	cmpw	$9, 102(%eax)
	ja	.L244
.LVL222:
.LBB29:
.LBB30:
	.loc 1 360 0 is_stmt 1
	movl	52(%ebx), %eax
	.loc 1 359 0
	andb	$-17, 40(%ebx)
	.loc 1 360 0
	testl	%eax, %eax
	je	.L244
	movzwl	%si, %esi
	pushl	%edx
	pushl	%esi
	pushl	$2
	pushl	%ebx
	call	*%eax
.LVL223:
	addl	$16, %esp
.LVL224:
.L244:
.LBE30:
.LBE29:
	.loc 1 365 0
	leal	-8(%ebp), %esp
	xorl	%eax, %eax
	popl	%ebx
	.cfi_restore 3
.LVL225:
	popl	%esi
	.cfi_restore 6
	popl	%ebp
	.cfi_restore 5
	.cfi_def_cfa 4, 4
	ret
	.cfi_endproc
.LFE27:
	.size	sent_tcp, .-sent_tcp
	.section	.text.unlikely.sent_tcp
.LCOLDE10:
	.section	.text.sent_tcp
.LHOTE10:
	.section	.text.unlikely.lwip_netconn_do_newconn,"ax",@progbits
.LCOLDB11:
	.section	.text.lwip_netconn_do_newconn,"ax",@progbits
.LHOTB11:
	.globl	lwip_netconn_do_newconn
	.type	lwip_netconn_do_newconn, @function
lwip_netconn_do_newconn:
.LFB32:
	.loc 1 610 0
	.cfi_startproc
.LVL226:
	pushl	%ebp
	.cfi_def_cfa_offset 8
	.cfi_offset 5, -8
	movl	%esp, %ebp
	.cfi_def_cfa_register 5
	pushl	%esi
	pushl	%ebx
	.cfi_offset 6, -12
	.cfi_offset 3, -16
	.loc 1 610 0
	movl	8(%ebp), %ebx
.LVL227:
	.loc 1 614 0
	movl	(%ebx), %esi
	.loc 1 613 0
	movb	$0, 4(%ebx)
	.loc 1 614 0
	cmpl	$0, 8(%esi)
	jne	.L257
.LVL228:
.LBB34:
.LBB35:
	.loc 1 550 0
	movl	(%esi), %eax
	andl	$240, %eax
	cmpl	$32, %eax
	je	.L259
	cmpl	$64, %eax
	je	.L260
	cmpl	$16, %eax
	jne	.L274
	jmp	.L277
.L260:
	.loc 1 553 0
	movzbl	8(%ebx), %eax
	subl	$12, %esp
	pushl	%eax
	call	raw_new
.LVL229:
	movl	%eax, 8(%esi)
	.loc 1 554 0
	movl	(%ebx), %edx
	addl	$16, %esp
	movl	8(%edx), %eax
	testl	%eax, %eax
	je	.L263
	.loc 1 555 0
	pushl	%ecx
	pushl	%edx
	pushl	$recv_raw
	pushl	%eax
	call	raw_recv
.LVL230:
	jmp	.L276
.LVL231:
.L259:
	.loc 1 561 0
	call	udp_new
.LVL232:
	movl	%eax, 8(%esi)
	.loc 1 562 0
	movl	(%ebx), %edx
	movl	8(%edx), %eax
	testl	%eax, %eax
	je	.L263
	.loc 1 568 0
	cmpl	$34, (%edx)
	jne	.L264
	.loc 1 569 0
	movb	$1, 16(%eax)
.L264:
	.loc 1 571 0
	movl	(%ebx), %eax
	pushl	%edx
	pushl	%eax
	pushl	$recv_udp
	pushl	8(%eax)
	call	udp_recv
.LVL233:
.L276:
	addl	$16, %esp
	jmp	.L263
.LVL234:
.L277:
	.loc 1 577 0
	call	tcp_new
.LVL235:
	movl	%eax, 8(%esi)
	.loc 1 578 0
	movl	(%ebx), %eax
	cmpl	$0, 8(%eax)
	je	.L263
	.loc 1 579 0
	call	setup_tcp
.LVL236:
	jmp	.L263
.L274:
	.loc 1 585 0
	movb	$-6, 4(%ebx)
	jmp	.L257
.LVL237:
.L263:
	.loc 1 588 0
	movl	(%ebx), %eax
	cmpl	$0, 8(%eax)
	jne	.L257
	.loc 1 589 0
	movb	$-1, 4(%ebx)
.LVL238:
.L257:
.LBE35:
.LBE34:
	.loc 1 621 0
	cmpl	$0, (%ebx)
	je	.L255
.LBB36:
	.loc 1 621 0 discriminator 1
	call	sys_arch_protect
.LVL239:
	movl	(%ebx), %edx
	cmpb	$-12, 12(%edx)
	jl	.L267
	.loc 1 621 0 is_stmt 0 discriminator 2
	movb	4(%ebx), %cl
	movb	%cl, 12(%edx)
.L267:
	.loc 1 621 0 discriminator 4
	movl	%eax, 8(%ebp)
.LBE36:
	.loc 1 622 0 is_stmt 1 discriminator 4
	leal	-8(%ebp), %esp
	popl	%ebx
	.cfi_remember_state
	.cfi_restore 3
.LVL240:
	popl	%esi
	.cfi_restore 6
	popl	%ebp
	.cfi_restore 5
	.cfi_def_cfa 4, 4
.LBB37:
	.loc 1 621 0 discriminator 4
	jmp	sys_arch_unprotect
.LVL241:
.L255:
	.cfi_restore_state
.LBE37:
	.loc 1 622 0
	leal	-8(%ebp), %esp
	popl	%ebx
	.cfi_restore 3
.LVL242:
	popl	%esi
	.cfi_restore 6
	popl	%ebp
	.cfi_restore 5
	.cfi_def_cfa 4, 4
	ret
	.cfi_endproc
.LFE32:
	.size	lwip_netconn_do_newconn, .-lwip_netconn_do_newconn
	.section	.text.unlikely.lwip_netconn_do_newconn
.LCOLDE11:
	.section	.text.lwip_netconn_do_newconn
.LHOTE11:
	.section	.text.unlikely.netconn_alloc,"ax",@progbits
.LCOLDB12:
	.section	.text.netconn_alloc,"ax",@progbits
.LHOTB12:
	.globl	netconn_alloc
	.type	netconn_alloc, @function
netconn_alloc:
.LFB33:
	.loc 1 635 0
	.cfi_startproc
.LVL243:
	pushl	%ebp
	.cfi_def_cfa_offset 8
	.cfi_offset 5, -8
	movl	%esp, %ebp
	.cfi_def_cfa_register 5
	pushl	%esi
	pushl	%ebx
	.cfi_offset 6, -12
	.cfi_offset 3, -16
	.loc 1 635 0
	movl	8(%ebp), %esi
	.loc 1 639 0
	subl	$12, %esp
	pushl	$6
	call	memp_malloc
.LVL244:
	movl	%eax, %ebx
.LVL245:
	.loc 1 640 0
	addl	$16, %esp
	.loc 1 641 0
	xorl	%eax, %eax
.LVL246:
	.loc 1 640 0
	testl	%ebx, %ebx
	je	.L279
	.loc 1 649 0
	movl	%esi, %eax
	.loc 1 644 0
	movb	$0, 12(%ebx)
	.loc 1 645 0
	movl	%esi, (%ebx)
	.loc 1 649 0
	andl	$240, %eax
	.loc 1 646 0
	movl	$0, 8(%ebx)
	.loc 1 649 0
	cmpl	$32, %eax
	je	.L281
	cmpl	$64, %eax
	je	.L285
	cmpl	$16, %eax
	jne	.L280
.L281:
	.loc 1 657 0
	movl	$8, %eax
	jmp	.L282
.L285:
	.loc 1 652 0
	movl	$4, %eax
.L282:
.LVL247:
	.loc 1 670 0
	leal	20(%ebx), %esi
	pushl	%ecx
	pushl	%ecx
	pushl	%eax
	pushl	%esi
	call	sys_mbox_new
.LVL248:
	addl	$16, %esp
	testb	%al, %al
	jne	.L280
	.loc 1 674 0
	leal	16(%ebx), %eax
	pushl	%edx
	pushl	%edx
	pushl	$0
	pushl	%eax
	call	sys_sem_new
.LVL249:
	addl	$16, %esp
	testb	%al, %al
	je	.L283
	.loc 1 675 0
	subl	$12, %esp
	pushl	%esi
	call	sys_mbox_free
.LVL250:
	.loc 1 676 0
	addl	$16, %esp
	jmp	.L280
.L283:
	.loc 1 688 0
	movl	12(%ebp), %eax
	.loc 1 681 0
	movl	$0, 24(%ebx)
	.loc 1 683 0
	movl	$0, 4(%ebx)
	.loc 1 686 0
	movl	$-1, 28(%ebx)
	.loc 1 690 0
	movl	$0, 48(%ebx)
	.loc 1 691 0
	movl	$0, 44(%ebx)
	.loc 1 688 0
	movl	%eax, 52(%ebx)
	.loc 1 694 0
	movl	$0, 32(%ebx)
	.loc 1 707 0
	movl	%ebx, %eax
	.loc 1 697 0
	movl	$0, 36(%ebx)
	.loc 1 706 0
	movb	$0, 40(%ebx)
	.loc 1 707 0
	jmp	.L279
.L280:
	.loc 1 709 0
	pushl	%eax
	pushl	%eax
	pushl	%ebx
	pushl	$6
	call	memp_free
.LVL251:
	.loc 1 710 0
	addl	$16, %esp
	xorl	%eax, %eax
.L279:
	.loc 1 711 0
	leal	-8(%ebp), %esp
	popl	%ebx
	.cfi_restore 3
.LVL252:
	popl	%esi
	.cfi_restore 6
	popl	%ebp
	.cfi_restore 5
	.cfi_def_cfa 4, 4
	ret
	.cfi_endproc
.LFE33:
	.size	netconn_alloc, .-netconn_alloc
	.section	.text.unlikely.netconn_alloc
.LCOLDE12:
	.section	.text.netconn_alloc
.LHOTE12:
	.section	.text.unlikely.netconn_free,"ax",@progbits
.LCOLDB13:
	.section	.text.netconn_free,"ax",@progbits
.LHOTB13:
	.globl	netconn_free
	.type	netconn_free, @function
netconn_free:
.LFB34:
	.loc 1 721 0
	.cfi_startproc
.LVL253:
	pushl	%ebp
	.cfi_def_cfa_offset 8
	.cfi_offset 5, -8
	movl	%esp, %ebp
	.cfi_def_cfa_register 5
	pushl	%esi
	pushl	%ebx
	.cfi_offset 6, -12
	.cfi_offset 3, -16
	.loc 1 721 0
	movl	8(%ebp), %ebx
	.loc 1 731 0
	subl	$12, %esp
	leal	16(%ebx), %esi
	pushl	%esi
	call	sys_sem_free
.LVL254:
	.loc 1 732 0
	addl	$16, %esp
	testl	%esi, %esi
	je	.L294
	.loc 1 732 0 discriminator 1
	movl	$0, 16(%ebx)
.L294:
	.loc 1 735 0
	pushl	%eax
	pushl	%eax
	pushl	%ebx
	pushl	$6
	call	memp_free
.LVL255:
	.loc 1 736 0
	addl	$16, %esp
	leal	-8(%ebp), %esp
	popl	%ebx
	.cfi_restore 3
	popl	%esi
	.cfi_restore 6
	popl	%ebp
	.cfi_restore 5
	.cfi_def_cfa 4, 4
	ret
	.cfi_endproc
.LFE34:
	.size	netconn_free, .-netconn_free
	.section	.text.unlikely.netconn_free
.LCOLDE13:
	.section	.text.netconn_free
.LHOTE13:
	.section	.text.unlikely.netconn_drain,"ax",@progbits
.LCOLDB14:
	.section	.text.netconn_drain,"ax",@progbits
.LHOTB14:
	.type	netconn_drain, @function
netconn_drain:
.LFB35:
	.loc 1 748 0
	.cfi_startproc
.LVL256:
	pushl	%ebp
	.cfi_def_cfa_offset 8
	.cfi_offset 5, -8
	movl	%esp, %ebp
	.cfi_def_cfa_register 5
	pushl	%edi
	pushl	%esi
	pushl	%ebx
	.cfi_offset 7, -12
	.cfi_offset 6, -16
	.cfi_offset 3, -20
	movl	%eax, %ebx
	.loc 1 757 0
	leal	20(%ebx), %esi
	.loc 1 748 0
	subl	$56, %esp
	.loc 1 757 0
	pushl	%esi
	.loc 1 748 0
	movl	%gs:20, %eax
	movl	%eax, -28(%ebp)
	xorl	%eax, %eax
.LVL257:
	.loc 1 757 0
	call	aos_queue_is_valid
.LVL258:
	addl	$16, %esp
	testl	%eax, %eax
	je	.L301
	.loc 1 758 0
	leal	-32(%ebp), %edi
.L325:
	pushl	%edx
	pushl	%edx
	pushl	%edi
	pushl	%esi
	call	sys_arch_mbox_tryfetch
.LVL259:
	addl	$16, %esp
	incl	%eax
	je	.L334
	.loc 1 760 0
	movl	(%ebx), %eax
	andl	$240, %eax
	cmpl	$16, %eax
	jne	.L302
	.loc 1 761 0
	movl	-32(%ebp), %eax
	testl	%eax, %eax
	je	.L325
.LVL260:
	.loc 1 764 0
	movl	8(%ebx), %edx
	testl	%edx, %edx
	je	.L304
	.loc 1 765 0
	pushl	%ecx
	pushl	%ecx
	movzwl	8(%eax), %ecx
	movl	%eax, -44(%ebp)
	pushl	%ecx
	pushl	%edx
	call	tcp_recved
.LVL261:
	movl	-44(%ebp), %eax
	addl	$16, %esp
.LVL262:
.L304:
	.loc 1 767 0
	subl	$12, %esp
	pushl	%eax
	call	pbuf_free
.LVL263:
	jmp	.L333
.L302:
	.loc 1 772 0
	subl	$12, %esp
	pushl	-32(%ebp)
	call	netbuf_delete
.LVL264:
.L333:
	addl	$16, %esp
	jmp	.L325
.L334:
	.loc 1 775 0
	subl	$12, %esp
	pushl	%esi
	call	sys_mbox_free
.LVL265:
	.loc 1 776 0
	addl	$16, %esp
	testl	%esi, %esi
	je	.L301
	.loc 1 776 0 discriminator 1
	movl	$0, 20(%ebx)
.L301:
	.loc 1 781 0
	leal	24(%ebx), %esi
	subl	$12, %esp
	pushl	%esi
	call	aos_queue_is_valid
.LVL266:
	addl	$16, %esp
	testl	%eax, %eax
	je	.L299
.L309:
	.loc 1 782 0
	pushl	%eax
	pushl	%eax
	leal	-32(%ebp), %eax
	pushl	%eax
	pushl	%esi
	call	sys_arch_mbox_tryfetch
.LVL267:
	addl	$16, %esp
	incl	%eax
	je	.L335
	.loc 1 783 0
	movl	-32(%ebp), %edi
	cmpl	$netconn_aborted, %edi
	je	.L309
.LVL268:
.LBB38:
	.loc 1 788 0
	movl	%edi, %eax
	call	netconn_drain
.LVL269:
	.loc 1 789 0
	movl	8(%edi), %eax
	testl	%eax, %eax
	je	.L310
	.loc 1 790 0
	subl	$12, %esp
	pushl	%eax
	call	tcp_abort
.LVL270:
	.loc 1 791 0
	movl	$0, 8(%edi)
	addl	$16, %esp
.L310:
	.loc 1 793 0
	subl	$12, %esp
	pushl	%edi
	call	netconn_free
.LVL271:
	addl	$16, %esp
	jmp	.L309
.LVL272:
.L335:
.LBE38:
	.loc 1 796 0
	subl	$12, %esp
	pushl	%esi
	call	sys_mbox_free
.LVL273:
	.loc 1 797 0
	addl	$16, %esp
	testl	%esi, %esi
	je	.L299
	.loc 1 797 0 discriminator 1
	movl	$0, 24(%ebx)
.L299:
	.loc 1 800 0
	movl	-28(%ebp), %eax
	xorl	%gs:20, %eax
	je	.L313
	call	__stack_chk_fail
.LVL274:
.L313:
	leal	-12(%ebp), %esp
	popl	%ebx
	.cfi_restore 3
.LVL275:
	popl	%esi
	.cfi_restore 6
.LVL276:
	popl	%edi
	.cfi_restore 7
	popl	%ebp
	.cfi_restore 5
	.cfi_def_cfa 4, 4
	ret
	.cfi_endproc
.LFE35:
	.size	netconn_drain, .-netconn_drain
	.section	.text.unlikely.netconn_drain
.LCOLDE14:
	.section	.text.netconn_drain
.LHOTE14:
	.section	.text.unlikely.accept_function,"ax",@progbits
.LCOLDB15:
	.section	.text.accept_function,"ax",@progbits
.LHOTB15:
	.type	accept_function, @function
accept_function:
.LFB30:
	.loc 1 469 0
	.cfi_startproc
.LVL277:
	pushl	%ebp
	.cfi_def_cfa_offset 8
	.cfi_offset 5, -8
	movl	%esp, %ebp
	.cfi_def_cfa_register 5
	pushl	%edi
	pushl	%esi
	pushl	%ebx
	subl	$28, %esp
	.cfi_offset 7, -12
	.cfi_offset 6, -16
	.cfi_offset 3, -20
	.loc 1 469 0
	movl	8(%ebp), %ebx
.LVL278:
	movl	16(%ebp), %eax
	.loc 1 475 0
	testl	%ebx, %ebx
	.loc 1 469 0
	movl	%eax, -28(%ebp)
	.loc 1 475 0
	je	.L355
	.loc 1 478 0
	leal	24(%ebx), %esi
	subl	$12, %esp
	pushl	%esi
	call	aos_queue_is_valid
.LVL279:
	addl	$16, %esp
	testl	%eax, %eax
	je	.L355
	.loc 1 483 0
	cmpl	$0, 12(%ebp)
	jne	.L340
	.loc 1 485 0
	pushl	%ecx
	pushl	%ecx
	pushl	$netconn_aborted
	pushl	%esi
	call	sys_mbox_trypost
.LVL280:
	addl	$16, %esp
	testb	%al, %al
	jne	.L355
	.loc 1 487 0
	movl	52(%ebx), %eax
	testl	%eax, %eax
	je	.L355
	.loc 1 487 0 is_stmt 0 discriminator 1
	pushl	%edx
	pushl	$0
	pushl	$0
	pushl	%ebx
	call	*%eax
.LVL281:
	addl	$16, %esp
.L355:
	.loc 1 489 0 is_stmt 1 discriminator 1
	movl	$-6, %esi
	jmp	.L338
.L340:
	.loc 1 494 0
	pushl	%edi
	pushl	%edi
	pushl	52(%ebx)
	pushl	(%ebx)
	call	netconn_alloc
.LVL282:
	.loc 1 495 0
	addl	$16, %esp
	testl	%eax, %eax
	.loc 1 494 0
	movl	%eax, %edi
.LVL283:
	.loc 1 495 0
	jne	.L341
	.loc 1 497 0
	pushl	%ecx
	pushl	%ecx
	pushl	$netconn_aborted
	pushl	%esi
	.loc 1 501 0
	movl	$-1, %esi
	.loc 1 497 0
	call	sys_mbox_trypost
.LVL284:
	addl	$16, %esp
	testb	%al, %al
	je	.L342
	jmp	.L338
.LVL285:
.L341:
	.loc 1 503 0
	movl	12(%ebp), %eax
.LVL286:
	movl	%eax, 8(%edi)
	.loc 1 504 0
	movl	%edi, %eax
	call	setup_tcp
.LVL287:
	.loc 1 507 0
	movb	-28(%ebp), %al
	.loc 1 510 0
	subl	$12, %esp
	.loc 1 507 0
	movb	%al, 12(%edi)
	.loc 1 510 0
	pushl	12(%ebp)
	call	tcp_backlog_delayed
.LVL288:
	.loc 1 512 0
	popl	%eax
	popl	%edx
	pushl	%edi
	pushl	%esi
	call	sys_mbox_trypost
.LVL289:
	addl	$16, %esp
	testb	%al, %al
	movl	%eax, %esi
	je	.L342
.LBB39:
	.loc 1 516 0
	movl	8(%edi), %ebx
.LVL290:
	.loc 1 517 0
	pushl	%ecx
	pushl	%ecx
	pushl	$0
	pushl	%ebx
	call	tcp_arg
.LVL291:
	.loc 1 518 0
	popl	%esi
	popl	%eax
	pushl	$0
	pushl	%ebx
	call	tcp_recv
.LVL292:
	.loc 1 519 0
	popl	%eax
	popl	%edx
	pushl	$0
	pushl	%ebx
	call	tcp_sent
.LVL293:
	.loc 1 520 0
	addl	$12, %esp
	pushl	$0
	pushl	$0
	pushl	%ebx
	call	tcp_poll
.LVL294:
	.loc 1 521 0
	popl	%ecx
	popl	%esi
	pushl	$0
	pushl	%ebx
	.loc 1 528 0
	movl	$-1, %esi
	.loc 1 521 0
	call	tcp_err
.LVL295:
	.loc 1 525 0
	leal	20(%edi), %eax
	.loc 1 523 0
	movl	$0, 8(%edi)
	.loc 1 525 0
	movl	%eax, (%esp)
	call	sys_mbox_free
.LVL296:
	.loc 1 526 0
	movl	$0, 20(%edi)
	.loc 1 527 0
	movl	%edi, (%esp)
	call	netconn_free
.LVL297:
	.loc 1 528 0
	addl	$16, %esp
	jmp	.L338
.LVL298:
.L342:
.LBE39:
	.loc 1 531 0
	movl	52(%ebx), %eax
	testl	%eax, %eax
	je	.L338
	.loc 1 531 0 is_stmt 0 discriminator 1
	pushl	%edx
	pushl	$0
	pushl	$0
	pushl	%ebx
	call	*%eax
.LVL299:
	addl	$16, %esp
.LVL300:
.L338:
	.loc 1 535 0 is_stmt 1
	leal	-12(%ebp), %esp
	movl	%esi, %eax
	popl	%ebx
	.cfi_restore 3
	popl	%esi
	.cfi_restore 6
	popl	%edi
	.cfi_restore 7
	popl	%ebp
	.cfi_restore 5
	.cfi_def_cfa 4, 4
	ret
	.cfi_endproc
.LFE30:
	.size	accept_function, .-accept_function
	.section	.text.unlikely.accept_function
.LCOLDE15:
	.section	.text.accept_function
.LHOTE15:
	.section	.text.unlikely.lwip_netconn_do_delconn,"ax",@progbits
.LCOLDB16:
	.section	.text.lwip_netconn_do_delconn,"ax",@progbits
.LHOTB16:
	.globl	lwip_netconn_do_delconn
	.type	lwip_netconn_do_delconn, @function
lwip_netconn_do_delconn:
.LFB37:
	.loc 1 1006 0
	.cfi_startproc
.LVL301:
	pushl	%ebp
	.cfi_def_cfa_offset 8
	.cfi_offset 5, -8
	movl	%esp, %ebp
	.cfi_def_cfa_register 5
	pushl	%ebx
	pushl	%ecx
	.cfi_offset 3, -12
	.loc 1 1006 0
	movl	8(%ebp), %ebx
.LVL302:
	.loc 1 1009 0
	movl	(%ebx), %eax
	movl	4(%eax), %edx
.LVL303:
	.loc 1 1031 0
	leal	-2(%edx), %ecx
	cmpl	$1, %ecx
	jbe	.L373
	testl	%edx, %edx
	jne	.L359
.L373:
	.loc 1 1032 0
	cmpl	$3, %edx
	jne	.L361
	.loc 1 1033 0
	testb	$4, 40(%eax)
	jne	.L361
.L359:
	.loc 1 1036 0
	movb	$-5, 4(%ebx)
	jmp	.L362
.L361:
	.loc 1 1042 0
	movb	$0, 4(%ebx)
	.loc 1 1044 0
	call	netconn_drain
.LVL304:
	.loc 1 1046 0
	movl	(%ebx), %eax
	movl	8(%eax), %ecx
	testl	%ecx, %ecx
	je	.L363
	.loc 1 1048 0
	movl	(%eax), %edx
	andl	$240, %edx
	cmpl	$32, %edx
	je	.L365
	cmpl	$64, %edx
	je	.L366
	cmpl	$16, %edx
	jne	.L364
	jmp	.L391
.L366:
	.loc 1 1051 0
	subl	$12, %esp
	pushl	%ecx
	call	raw_remove
.LVL305:
	jmp	.L390
.L365:
	.loc 1 1056 0
	movl	$0, 36(%ecx)
	.loc 1 1057 0
	subl	$12, %esp
	pushl	8(%eax)
	call	udp_remove
.LVL306:
.L390:
	.loc 1 1058 0
	addl	$16, %esp
	jmp	.L364
.L391:
	.loc 1 1064 0
	movl	$4, 4(%eax)
	.loc 1 1068 0
	xorl	%edx, %edx
	.loc 1 1065 0
	movb	$3, 8(%ebx)
	.loc 1 1066 0
	movl	%ebx, 48(%eax)
	.loc 1 1068 0
	call	lwip_netconn_do_close_internal
.LVL307:
	testb	%al, %al
	je	.L358
	.loc 1 1070 0
	subl	$12, %esp
	pushl	$lock_tcpip_core
	call	sys_mutex_unlock
.LVL308:
	.loc 1 1071 0
	popl	%eax
	popl	%edx
	pushl	$0
	movl	(%ebx), %eax
	addl	$16, %eax
	pushl	%eax
	call	sys_arch_sem_wait
.LVL309:
	.loc 1 1072 0
	addl	$16, %esp
	movl	$lock_tcpip_core, 8(%ebp)
	.loc 1 1097 0
	movl	-4(%ebp), %ebx
.LVL310:
	leave
	.cfi_remember_state
	.cfi_restore 5
	.cfi_restore 3
	.cfi_def_cfa 4, 4
	.loc 1 1072 0
	jmp	sys_mutex_lock
.LVL311:
.L364:
	.cfi_restore_state
	.loc 1 1085 0
	movl	(%ebx), %eax
	movl	$0, 8(%eax)
.L363:
	.loc 1 1091 0
	movl	(%ebx), %edx
	movl	52(%edx), %eax
	testl	%eax, %eax
	je	.L370
	.loc 1 1091 0 is_stmt 0 discriminator 1
	pushl	%ecx
	pushl	$0
	pushl	$0
	pushl	%edx
	call	*%eax
.LVL312:
	addl	$16, %esp
.L370:
	.loc 1 1092 0 is_stmt 1
	movl	(%ebx), %edx
	movl	52(%edx), %eax
	testl	%eax, %eax
	je	.L362
	.loc 1 1092 0 is_stmt 0 discriminator 1
	pushl	%ecx
	pushl	$0
	pushl	$2
	pushl	%edx
	call	*%eax
.LVL313:
	addl	$16, %esp
.L362:
	.loc 1 1094 0 is_stmt 1
	movl	(%ebx), %eax
	subl	$12, %esp
	addl	$16, %eax
	pushl	%eax
	call	aos_sem_is_valid
.LVL314:
	addl	$16, %esp
	testl	%eax, %eax
	je	.L358
	.loc 1 1095 0
	cmpl	$0, (%ebx)
	je	.L358
.LBB40:
	.loc 1 1095 0 discriminator 1
	call	sys_arch_protect
.LVL315:
	movl	(%ebx), %edx
	cmpb	$-12, 12(%edx)
	jl	.L372
	.loc 1 1095 0 is_stmt 0 discriminator 2
	movb	4(%ebx), %cl
	movb	%cl, 12(%edx)
.L372:
	.loc 1 1095 0 discriminator 4
	movl	%eax, 8(%ebp)
.LBE40:
	.loc 1 1097 0 is_stmt 1 discriminator 4
	movl	-4(%ebp), %ebx
.LVL316:
	leave
	.cfi_remember_state
	.cfi_restore 5
	.cfi_restore 3
	.cfi_def_cfa 4, 4
.LBB41:
	.loc 1 1095 0 discriminator 4
	jmp	sys_arch_unprotect
.LVL317:
.L358:
	.cfi_restore_state
.LBE41:
	.loc 1 1097 0
	movl	-4(%ebp), %ebx
.LVL318:
	leave
	.cfi_restore 5
	.cfi_restore 3
	.cfi_def_cfa 4, 4
	ret
	.cfi_endproc
.LFE37:
	.size	lwip_netconn_do_delconn, .-lwip_netconn_do_delconn
	.section	.text.unlikely.lwip_netconn_do_delconn
.LCOLDE16:
	.section	.text.lwip_netconn_do_delconn
.LHOTE16:
	.section	.text.unlikely.lwip_netconn_do_bind,"ax",@progbits
.LCOLDB17:
	.section	.text.lwip_netconn_do_bind,"ax",@progbits
.LHOTB17:
	.globl	lwip_netconn_do_bind
	.type	lwip_netconn_do_bind, @function
lwip_netconn_do_bind:
.LFB38:
	.loc 1 1108 0
	.cfi_startproc
.LVL319:
	pushl	%ebp
	.cfi_def_cfa_offset 8
	.cfi_offset 5, -8
	movl	%esp, %ebp
	.cfi_def_cfa_register 5
	pushl	%ebx
	pushl	%eax
	.cfi_offset 3, -12
	.loc 1 1108 0
	movl	8(%ebp), %ebx
.LVL320:
	.loc 1 1111 0
	movl	(%ebx), %eax
	movb	12(%eax), %dl
	cmpb	$-12, %dl
	jge	.L393
	.loc 1 1112 0
	movb	%dl, 4(%ebx)
	jmp	.L394
.L393:
	.loc 1 1114 0
	movb	$-6, 4(%ebx)
	.loc 1 1115 0
	movl	8(%eax), %edx
	testl	%edx, %edx
	je	.L394
.LBB42:
	.loc 1 1133 0
	movl	(%eax), %eax
	.loc 1 1116 0
	movl	8(%ebx), %ecx
.LVL321:
	.loc 1 1133 0
	andl	$240, %eax
	cmpl	$32, %eax
	je	.L395
	cmpl	$64, %eax
	je	.L396
	cmpl	$16, %eax
	jne	.L394
	.loc 1 1146 0
	pushl	%eax
	movzwl	12(%ebx), %eax
	pushl	%eax
	pushl	%ecx
	pushl	%edx
	call	tcp_bind
.LVL322:
	jmp	.L404
.LVL323:
.L396:
	.loc 1 1136 0
	pushl	%eax
	pushl	%eax
	pushl	%ecx
	pushl	%edx
	call	raw_bind
.LVL324:
	jmp	.L404
.LVL325:
.L395:
	.loc 1 1141 0
	pushl	%eax
	movzwl	12(%ebx), %eax
	pushl	%eax
	pushl	%ecx
	pushl	%edx
	call	udp_bind
.LVL326:
.L404:
	.loc 1 1146 0
	movb	%al, 4(%ebx)
	.loc 1 1147 0
	addl	$16, %esp
.L394:
.LBE42:
	.loc 1 1154 0
	cmpl	$0, (%ebx)
	je	.L392
.LBB43:
	.loc 1 1154 0 discriminator 1
	call	sys_arch_protect
.LVL327:
	movl	(%ebx), %edx
	cmpb	$-12, 12(%edx)
	jl	.L399
	.loc 1 1154 0 is_stmt 0 discriminator 2
	movb	4(%ebx), %cl
	movb	%cl, 12(%edx)
.L399:
	.loc 1 1154 0 discriminator 4
	movl	%eax, 8(%ebp)
.LBE43:
	.loc 1 1155 0 is_stmt 1 discriminator 4
	movl	-4(%ebp), %ebx
.LVL328:
	leave
	.cfi_remember_state
	.cfi_restore 5
	.cfi_restore 3
	.cfi_def_cfa 4, 4
.LBB44:
	.loc 1 1154 0 discriminator 4
	jmp	sys_arch_unprotect
.LVL329:
.L392:
	.cfi_restore_state
.LBE44:
	.loc 1 1155 0
	movl	-4(%ebp), %ebx
.LVL330:
	leave
	.cfi_restore 5
	.cfi_restore 3
	.cfi_def_cfa 4, 4
	ret
	.cfi_endproc
.LFE38:
	.size	lwip_netconn_do_bind, .-lwip_netconn_do_bind
	.section	.text.unlikely.lwip_netconn_do_bind
.LCOLDE17:
	.section	.text.lwip_netconn_do_bind
.LHOTE17:
	.section	.rodata.str1.1,"aMS",@progbits,1
.LC18:
	.string	"Invalid netconn type"
	.section	.text.unlikely.lwip_netconn_do_connect,"ax",@progbits
.LCOLDB19:
	.section	.text.lwip_netconn_do_connect,"ax",@progbits
.LHOTB19:
	.globl	lwip_netconn_do_connect
	.type	lwip_netconn_do_connect, @function
lwip_netconn_do_connect:
.LFB40:
	.loc 1 1216 0
	.cfi_startproc
.LVL331:
	pushl	%ebp
	.cfi_def_cfa_offset 8
	.cfi_offset 5, -8
	movl	%esp, %ebp
	.cfi_def_cfa_register 5
	pushl	%ebx
	pushl	%eax
	.cfi_offset 3, -12
	.loc 1 1216 0
	movl	8(%ebp), %ebx
.LVL332:
	.loc 1 1219 0
	movl	(%ebx), %eax
	movl	8(%eax), %ecx
	testl	%ecx, %ecx
	jne	.L406
	.loc 1 1221 0
	movb	$-15, 4(%ebx)
	jmp	.L407
.L406:
	.loc 1 1223 0
	movl	(%eax), %edx
	andl	$240, %edx
	cmpl	$32, %edx
	je	.L409
	cmpl	$64, %edx
	je	.L410
	cmpl	$16, %edx
	jne	.L417
	jmp	.L421
.L410:
	.loc 1 1226 0
	pushl	%eax
	pushl	%eax
	pushl	8(%ebx)
	pushl	%ecx
	call	raw_connect
.LVL333:
	jmp	.L420
.L409:
	.loc 1 1231 0
	pushl	%eax
	movzwl	12(%ebx), %eax
	pushl	%eax
	pushl	8(%ebx)
	pushl	%ecx
	call	udp_connect
.LVL334:
.L420:
	movb	%al, 4(%ebx)
	jmp	.L419
.L421:
	.loc 1 1237 0
	movl	4(%eax), %edx
	cmpl	$3, %edx
	jne	.L412
	.loc 1 1238 0
	movb	$-9, 4(%ebx)
	jmp	.L407
.L412:
	.loc 1 1239 0
	testl	%edx, %edx
	je	.L413
	.loc 1 1240 0
	movb	$-10, 4(%ebx)
	jmp	.L407
.L413:
	.loc 1 1242 0
	call	setup_tcp
.LVL335:
	.loc 1 1243 0
	pushl	$lwip_netconn_do_connected
	movzwl	12(%ebx), %eax
	pushl	%eax
	pushl	8(%ebx)
	movl	(%ebx), %eax
	pushl	8(%eax)
	call	tcp_connect
.LVL336:
	.loc 1 1245 0
	addl	$16, %esp
	testb	%al, %al
	.loc 1 1243 0
	movb	%al, 4(%ebx)
	.loc 1 1245 0
	jne	.L407
.LBB45:
	.loc 1 1246 0
	movl	(%ebx), %edx
	movb	40(%edx), %al
.LVL337:
	.loc 1 1247 0
	movl	$3, 4(%edx)
	.loc 1 1248 0
	testb	$2, %al
	je	.L414
	.loc 1 1248 0 is_stmt 0 discriminator 1
	orl	$4, %eax
.LVL338:
	movb	%al, 40(%edx)
.LVL339:
	.loc 1 1250 0 is_stmt 1 discriminator 1
	movb	$-5, 4(%ebx)
	jmp	.L407
.LVL340:
.L414:
	.loc 1 1248 0 discriminator 2
	andl	$-5, %eax
.LVL341:
	.loc 1 1257 0 discriminator 2
	subl	$12, %esp
	.loc 1 1248 0 discriminator 2
	movb	%al, 40(%edx)
.LVL342:
	.loc 1 1252 0 discriminator 2
	movl	(%ebx), %eax
	movl	%ebx, 48(%eax)
	.loc 1 1257 0 discriminator 2
	pushl	$lock_tcpip_core
	call	sys_mutex_unlock
.LVL343:
	.loc 1 1258 0 discriminator 2
	popl	%eax
	popl	%edx
	pushl	$0
	movl	(%ebx), %eax
	addl	$16, %eax
	pushl	%eax
	call	sys_arch_sem_wait
.LVL344:
	.loc 1 1259 0 discriminator 2
	addl	$16, %esp
	movl	$lock_tcpip_core, 8(%ebp)
.LBE45:
	.loc 1 1276 0 discriminator 2
	movl	-4(%ebp), %ebx
.LVL345:
	leave
	.cfi_remember_state
	.cfi_restore 5
	.cfi_restore 3
	.cfi_def_cfa 4, 4
.LBB46:
	.loc 1 1259 0 discriminator 2
	jmp	sys_mutex_lock
.LVL346:
.L417:
	.cfi_restore_state
.LBE46:
	.loc 1 1269 0 discriminator 1
	subl	$12, %esp
	pushl	$.LC18
	call	bk_printf
.LVL347:
	movb	$-6, 4(%ebx)
.L419:
	.loc 1 1270 0 discriminator 1
	addl	$16, %esp
.L407:
	.loc 1 1275 0
	cmpl	$0, (%ebx)
	je	.L405
.LBB47:
	.loc 1 1275 0 discriminator 1
	call	sys_arch_protect
.LVL348:
	movl	(%ebx), %edx
	cmpb	$-12, 12(%edx)
	jl	.L416
	.loc 1 1275 0 is_stmt 0 discriminator 2
	movb	4(%ebx), %cl
	movb	%cl, 12(%edx)
.L416:
	.loc 1 1275 0 discriminator 4
	movl	%eax, 8(%ebp)
.LBE47:
	.loc 1 1276 0 is_stmt 1 discriminator 4
	movl	-4(%ebp), %ebx
.LVL349:
	leave
	.cfi_remember_state
	.cfi_restore 5
	.cfi_restore 3
	.cfi_def_cfa 4, 4
.LBB48:
	.loc 1 1275 0 discriminator 4
	jmp	sys_arch_unprotect
.LVL350:
.L405:
	.cfi_restore_state
.LBE48:
	.loc 1 1276 0
	movl	-4(%ebp), %ebx
.LVL351:
	leave
	.cfi_restore 5
	.cfi_restore 3
	.cfi_def_cfa 4, 4
	ret
	.cfi_endproc
.LFE40:
	.size	lwip_netconn_do_connect, .-lwip_netconn_do_connect
	.section	.text.unlikely.lwip_netconn_do_connect
.LCOLDE19:
	.section	.text.lwip_netconn_do_connect
.LHOTE19:
	.section	.text.unlikely.lwip_netconn_do_disconnect,"ax",@progbits
.LCOLDB20:
	.section	.text.lwip_netconn_do_disconnect,"ax",@progbits
.LHOTB20:
	.globl	lwip_netconn_do_disconnect
	.type	lwip_netconn_do_disconnect, @function
lwip_netconn_do_disconnect:
.LFB41:
	.loc 1 1287 0
	.cfi_startproc
.LVL352:
	pushl	%ebp
	.cfi_def_cfa_offset 8
	.cfi_offset 5, -8
	movl	%esp, %ebp
	.cfi_def_cfa_register 5
	pushl	%ebx
	pushl	%eax
	.cfi_offset 3, -12
	.loc 1 1287 0
	movl	8(%ebp), %ebx
.LVL353:
	.loc 1 1291 0
	movl	(%ebx), %edx
	movl	(%edx), %eax
	andl	$240, %eax
	cmpl	$32, %eax
	jne	.L423
	.loc 1 1292 0
	subl	$12, %esp
	pushl	8(%edx)
	call	udp_disconnect
.LVL354:
	.loc 1 1293 0
	movb	$0, 4(%ebx)
	addl	$16, %esp
	jmp	.L424
.L423:
	.loc 1 1297 0
	movb	$-6, 4(%ebx)
.L424:
	.loc 1 1299 0
	cmpl	$0, (%ebx)
	je	.L422
.LBB49:
	.loc 1 1299 0 discriminator 1
	call	sys_arch_protect
.LVL355:
	movl	(%ebx), %edx
	cmpb	$-12, 12(%edx)
	jl	.L426
	.loc 1 1299 0 is_stmt 0 discriminator 2
	movb	4(%ebx), %cl
	movb	%cl, 12(%edx)
.L426:
	.loc 1 1299 0 discriminator 4
	movl	%eax, 8(%ebp)
.LBE49:
	.loc 1 1300 0 is_stmt 1 discriminator 4
	movl	-4(%ebp), %ebx
.LVL356:
	leave
	.cfi_remember_state
	.cfi_restore 5
	.cfi_restore 3
	.cfi_def_cfa 4, 4
.LBB50:
	.loc 1 1299 0 discriminator 4
	jmp	sys_arch_unprotect
.LVL357:
.L422:
	.cfi_restore_state
.LBE50:
	.loc 1 1300 0
	movl	-4(%ebp), %ebx
.LVL358:
	leave
	.cfi_restore 5
	.cfi_restore 3
	.cfi_def_cfa 4, 4
	ret
	.cfi_endproc
.LFE41:
	.size	lwip_netconn_do_disconnect, .-lwip_netconn_do_disconnect
	.section	.text.unlikely.lwip_netconn_do_disconnect
.LCOLDE20:
	.section	.text.lwip_netconn_do_disconnect
.LHOTE20:
	.section	.text.unlikely.lwip_netconn_do_listen,"ax",@progbits
.LCOLDB21:
	.section	.text.lwip_netconn_do_listen,"ax",@progbits
.LHOTB21:
	.globl	lwip_netconn_do_listen
	.type	lwip_netconn_do_listen, @function
lwip_netconn_do_listen:
.LFB42:
	.loc 1 1311 0
	.cfi_startproc
.LVL359:
	pushl	%ebp
	.cfi_def_cfa_offset 8
	.cfi_offset 5, -8
	movl	%esp, %ebp
	.cfi_def_cfa_register 5
	pushl	%esi
	pushl	%ebx
	.cfi_offset 6, -12
	.cfi_offset 3, -16
	.loc 1 1311 0
	movl	8(%ebp), %ebx
.LVL360:
	.loc 1 1314 0
	movl	(%ebx), %eax
	movb	12(%eax), %dl
	cmpb	$-12, %dl
	jge	.L429
	.loc 1 1315 0
	movb	%dl, 4(%ebx)
	jmp	.L430
.L429:
	.loc 1 1317 0
	movb	$-11, 4(%ebx)
	.loc 1 1318 0
	movl	8(%eax), %edx
	testl	%edx, %edx
	je	.L430
	.loc 1 1319 0
	movl	(%eax), %ecx
	andl	$240, %ecx
	cmpl	$16, %ecx
	jne	.L431
	.loc 1 1320 0
	movl	4(%eax), %ecx
	testl	%ecx, %ecx
	jne	.L432
.LBB51:
	.loc 1 1322 0
	cmpl	$0, 20(%edx)
	je	.L433
	.loc 1 1324 0
	movb	$-6, 4(%ebx)
	jmp	.L430
.L433:
	.loc 1 1339 0
	pushl	%eax
	pushl	%eax
	movzbl	8(%ebx), %eax
	pushl	%eax
	pushl	%edx
	call	tcp_listen_with_backlog
.LVL361:
	.loc 1 1344 0
	addl	$16, %esp
	testl	%eax, %eax
	.loc 1 1339 0
	movl	%eax, %esi
.LVL362:
	.loc 1 1344 0
	jne	.L434
	.loc 1 1346 0
	movb	$-1, 4(%ebx)
	jmp	.L430
.L434:
	.loc 1 1349 0
	movl	(%ebx), %eax
.LVL363:
	subl	$12, %esp
	addl	$20, %eax
	pushl	%eax
	call	aos_queue_is_valid
.LVL364:
	addl	$16, %esp
	testl	%eax, %eax
	je	.L436
	.loc 1 1351 0
	movl	(%ebx), %eax
	subl	$12, %esp
	addl	$20, %eax
	pushl	%eax
	call	sys_mbox_free
.LVL365:
	.loc 1 1352 0
	movl	(%ebx), %eax
	addl	$16, %esp
	cmpl	$-20, %eax
	je	.L436
	.loc 1 1352 0 discriminator 1
	movl	$0, 20(%eax)
.L436:
	.loc 1 1355 0
	movl	(%ebx), %eax
	subl	$12, %esp
	.loc 1 1354 0
	movb	$0, 4(%ebx)
	.loc 1 1355 0
	addl	$24, %eax
	pushl	%eax
	call	aos_queue_is_valid
.LVL366:
	addl	$16, %esp
	testl	%eax, %eax
	jne	.L438
	.loc 1 1356 0
	pushl	%eax
	pushl	%eax
	pushl	$8
	movl	(%ebx), %eax
	addl	$24, %eax
	pushl	%eax
	call	sys_mbox_new
.LVL367:
	addl	$16, %esp
	movb	%al, 4(%ebx)
.L438:
	.loc 1 1358 0
	cmpb	$0, 4(%ebx)
	jne	.L439
	.loc 1 1359 0
	movl	(%ebx), %eax
	.loc 1 1360 0
	movl	%esi, 8(%eax)
	.loc 1 1359 0
	movl	$2, 4(%eax)
	.loc 1 1361 0
	movl	(%ebx), %eax
	pushl	%edx
	pushl	%edx
	pushl	%eax
	pushl	8(%eax)
	call	tcp_arg
.LVL368:
	.loc 1 1362 0
	popl	%ecx
	popl	%esi
.LVL369:
	pushl	$accept_function
	movl	(%ebx), %eax
	pushl	8(%eax)
	call	tcp_accept
.LVL370:
	jmp	.L451
.LVL371:
.L439:
	.loc 1 1365 0
	subl	$12, %esp
	pushl	%esi
	call	tcp_close
.LVL372:
	.loc 1 1366 0
	movl	(%ebx), %eax
	movl	$0, 8(%eax)
.LVL373:
.L451:
	addl	$16, %esp
	jmp	.L430
.LVL374:
.L432:
.LBE51:
	.loc 1 1370 0
	cmpl	$2, %ecx
	jne	.L430
	.loc 1 1372 0
	movb	$0, 4(%ebx)
	.loc 1 1373 0
	movl	8(%eax), %edx
	movb	$1, %cl
	movb	8(%ebx), %al
	testb	%al, %al
	cmove	%ecx, %eax
	movb	%al, 32(%edx)
	jmp	.L430
.L431:
	.loc 1 1376 0
	movb	$-16, 4(%ebx)
.LVL375:
.L430:
	.loc 1 1380 0
	cmpl	$0, (%ebx)
	je	.L428
.LBB52:
	.loc 1 1380 0 discriminator 1
	call	sys_arch_protect
.LVL376:
	movl	(%ebx), %edx
	cmpb	$-12, 12(%edx)
	jl	.L442
	.loc 1 1380 0 is_stmt 0 discriminator 2
	movb	4(%ebx), %cl
	movb	%cl, 12(%edx)
.L442:
	.loc 1 1380 0 discriminator 4
	movl	%eax, 8(%ebp)
.LBE52:
	.loc 1 1381 0 is_stmt 1 discriminator 4
	leal	-8(%ebp), %esp
	popl	%ebx
	.cfi_remember_state
	.cfi_restore 3
.LVL377:
	popl	%esi
	.cfi_restore 6
	popl	%ebp
	.cfi_restore 5
	.cfi_def_cfa 4, 4
.LBB53:
	.loc 1 1380 0 discriminator 4
	jmp	sys_arch_unprotect
.LVL378:
.L428:
	.cfi_restore_state
.LBE53:
	.loc 1 1381 0
	leal	-8(%ebp), %esp
	popl	%ebx
	.cfi_restore 3
.LVL379:
	popl	%esi
	.cfi_restore 6
	popl	%ebp
	.cfi_restore 5
	.cfi_def_cfa 4, 4
	ret
	.cfi_endproc
.LFE42:
	.size	lwip_netconn_do_listen, .-lwip_netconn_do_listen
	.section	.text.unlikely.lwip_netconn_do_listen
.LCOLDE21:
	.section	.text.lwip_netconn_do_listen
.LHOTE21:
	.section	.text.unlikely.lwip_netconn_do_send,"ax",@progbits
.LCOLDB22:
	.section	.text.lwip_netconn_do_send,"ax",@progbits
.LHOTB22:
	.globl	lwip_netconn_do_send
	.type	lwip_netconn_do_send, @function
lwip_netconn_do_send:
.LFB43:
	.loc 1 1392 0
	.cfi_startproc
.LVL380:
	pushl	%ebp
	.cfi_def_cfa_offset 8
	.cfi_offset 5, -8
	movl	%esp, %ebp
	.cfi_def_cfa_register 5
	pushl	%ebx
	.cfi_offset 3, -12
	pushl	%ebx
	.loc 1 1392 0
	movl	8(%ebp), %ebx
.LVL381:
	.loc 1 1395 0
	movl	(%ebx), %edx
	movb	12(%edx), %al
	cmpb	$-12, %al
	jge	.L453
	.loc 1 1396 0
	movb	%al, 4(%ebx)
	jmp	.L454
.L453:
	.loc 1 1398 0
	movb	$-11, 4(%ebx)
	.loc 1 1399 0
	movl	8(%edx), %eax
	testl	%eax, %eax
	je	.L454
	.loc 1 1400 0
	movl	(%edx), %edx
	andl	$240, %edx
	cmpl	$32, %edx
	je	.L455
	cmpl	$64, %edx
	jne	.L454
	.loc 1 1403 0
	movl	8(%ebx), %edx
	movl	%edx, %ecx
	addl	$8, %ecx
	je	.L457
	.loc 1 1403 0 discriminator 1
	cmpl	$0, 8(%edx)
	jne	.L458
.L457:
	.loc 1 1404 0
	pushl	%ecx
	pushl	%ecx
	pushl	(%edx)
	pushl	%eax
	call	raw_send
.LVL382:
	jmp	.L469
.L458:
	.loc 1 1406 0
	subl	$4, %esp
	pushl	%ecx
	pushl	(%edx)
	pushl	%eax
	call	raw_sendto
.LVL383:
	jmp	.L469
.L455:
	.loc 1 1422 0
	movl	8(%ebx), %edx
	cmpl	$0, 8(%edx)
	jne	.L459
	.loc 1 1423 0
	pushl	%ecx
	pushl	%ecx
	pushl	(%edx)
	pushl	%eax
	call	udp_send
.LVL384:
	jmp	.L469
.L459:
	.loc 1 1425 0
	movzwl	12(%edx), %ecx
	pushl	%ecx
	leal	8(%edx), %ecx
	pushl	%ecx
	pushl	(%edx)
	pushl	%eax
	call	udp_sendto
.LVL385:
.L469:
	movb	%al, 4(%ebx)
	addl	$16, %esp
.L454:
	.loc 1 1435 0
	cmpl	$0, (%ebx)
	je	.L452
.LBB54:
	.loc 1 1435 0 discriminator 1
	call	sys_arch_protect
.LVL386:
	movl	(%ebx), %edx
	cmpb	$-12, 12(%edx)
	jl	.L461
	.loc 1 1435 0 is_stmt 0 discriminator 2
	movb	4(%ebx), %cl
	movb	%cl, 12(%edx)
.L461:
	.loc 1 1435 0 discriminator 4
	movl	%eax, 8(%ebp)
.LBE54:
	.loc 1 1436 0 is_stmt 1 discriminator 4
	movl	-4(%ebp), %ebx
.LVL387:
	leave
	.cfi_remember_state
	.cfi_restore 5
	.cfi_restore 3
	.cfi_def_cfa 4, 4
.LBB55:
	.loc 1 1435 0 discriminator 4
	jmp	sys_arch_unprotect
.LVL388:
.L452:
	.cfi_restore_state
.LBE55:
	.loc 1 1436 0
	movl	-4(%ebp), %ebx
.LVL389:
	leave
	.cfi_restore 5
	.cfi_restore 3
	.cfi_def_cfa 4, 4
	ret
	.cfi_endproc
.LFE43:
	.size	lwip_netconn_do_send, .-lwip_netconn_do_send
	.section	.text.unlikely.lwip_netconn_do_send
.LCOLDE22:
	.section	.text.lwip_netconn_do_send
.LHOTE22:
	.section	.text.unlikely.lwip_netconn_do_recv,"ax",@progbits
.LCOLDB23:
	.section	.text.lwip_netconn_do_recv,"ax",@progbits
.LHOTB23:
	.globl	lwip_netconn_do_recv
	.type	lwip_netconn_do_recv, @function
lwip_netconn_do_recv:
.LFB44:
	.loc 1 1447 0
	.cfi_startproc
.LVL390:
	pushl	%ebp
	.cfi_def_cfa_offset 8
	.cfi_offset 5, -8
	movl	%esp, %ebp
	.cfi_def_cfa_register 5
	pushl	%edi
	pushl	%esi
	pushl	%ebx
	subl	$12, %esp
	.cfi_offset 7, -12
	.cfi_offset 6, -16
	.cfi_offset 3, -20
	.loc 1 1447 0
	movl	8(%ebp), %ebx
.LVL391:
	.loc 1 1451 0
	movl	(%ebx), %eax
	.loc 1 1450 0
	movb	$0, 4(%ebx)
	.loc 1 1451 0
	cmpl	$0, 8(%eax)
	jne	.L471
.L474:
	.loc 1 1461 0
	cmpl	$0, (%ebx)
	jne	.L472
	jmp	.L482
.L471:
	.loc 1 1452 0
	movl	(%eax), %eax
	andl	$240, %eax
	cmpl	$16, %eax
	jne	.L474
.LBB56:
	.loc 1 1453 0
	movl	8(%ebx), %edi
.LVL392:
.L476:
.LBB57:
	.loc 1 1455 0
	cmpl	$65535, %edi
	movl	$-1, %esi
	.loc 1 1456 0
	pushl	%eax
	.loc 1 1455 0
	cmovbe	%edi, %esi
.LVL393:
	.loc 1 1456 0
	pushl	%eax
	movzwl	%si, %esi
	pushl	%esi
	movl	(%ebx), %eax
	pushl	8(%eax)
	call	tcp_recved
.LVL394:
.LBE57:
	.loc 1 1458 0
	addl	$16, %esp
	subl	%esi, %edi
.LVL395:
	jne	.L476
	jmp	.L474
.LVL396:
.L472:
.LBE56:
.LBB58:
	.loc 1 1461 0 discriminator 1
	call	sys_arch_protect
.LVL397:
	movl	(%ebx), %edx
	cmpb	$-12, 12(%edx)
	jl	.L477
	.loc 1 1461 0 is_stmt 0 discriminator 2
	movb	4(%ebx), %cl
	movb	%cl, 12(%edx)
.L477:
	.loc 1 1461 0 discriminator 4
	movl	%eax, 8(%ebp)
.LBE58:
	.loc 1 1462 0 is_stmt 1 discriminator 4
	leal	-12(%ebp), %esp
	popl	%ebx
	.cfi_remember_state
	.cfi_restore 3
.LVL398:
	popl	%esi
	.cfi_restore 6
	popl	%edi
	.cfi_restore 7
	popl	%ebp
	.cfi_restore 5
	.cfi_def_cfa 4, 4
.LBB59:
	.loc 1 1461 0 discriminator 4
	jmp	sys_arch_unprotect
.LVL399:
.L482:
	.cfi_restore_state
.LBE59:
	.loc 1 1462 0
	leal	-12(%ebp), %esp
	popl	%ebx
	.cfi_restore 3
.LVL400:
	popl	%esi
	.cfi_restore 6
	popl	%edi
	.cfi_restore 7
	popl	%ebp
	.cfi_restore 5
	.cfi_def_cfa 4, 4
	ret
	.cfi_endproc
.LFE44:
	.size	lwip_netconn_do_recv, .-lwip_netconn_do_recv
	.section	.text.unlikely.lwip_netconn_do_recv
.LCOLDE23:
	.section	.text.lwip_netconn_do_recv
.LHOTE23:
	.section	.text.unlikely.lwip_netconn_do_accepted,"ax",@progbits
.LCOLDB24:
	.section	.text.lwip_netconn_do_accepted,"ax",@progbits
.LHOTB24:
	.globl	lwip_netconn_do_accepted
	.type	lwip_netconn_do_accepted, @function
lwip_netconn_do_accepted:
.LFB45:
	.loc 1 1472 0
	.cfi_startproc
.LVL401:
	pushl	%ebp
	.cfi_def_cfa_offset 8
	.cfi_offset 5, -8
	movl	%esp, %ebp
	.cfi_def_cfa_register 5
	pushl	%ebx
	pushl	%eax
	.cfi_offset 3, -12
	.loc 1 1472 0
	movl	8(%ebp), %ebx
.LVL402:
	.loc 1 1476 0
	movl	(%ebx), %eax
	.loc 1 1475 0
	movb	$0, 4(%ebx)
	.loc 1 1476 0
	movl	8(%eax), %edx
	testl	%edx, %edx
	je	.L484
	.loc 1 1477 0
	movl	(%eax), %eax
	andl	$240, %eax
	cmpl	$16, %eax
	jne	.L484
	.loc 1 1478 0
	subl	$12, %esp
	pushl	%edx
	call	tcp_backlog_accepted
.LVL403:
	addl	$16, %esp
.L484:
	.loc 1 1481 0
	cmpl	$0, (%ebx)
	je	.L483
.LBB60:
	.loc 1 1481 0 discriminator 1
	call	sys_arch_protect
.LVL404:
	movl	(%ebx), %edx
	cmpb	$-12, 12(%edx)
	jl	.L486
	.loc 1 1481 0 is_stmt 0 discriminator 2
	movb	4(%ebx), %cl
	movb	%cl, 12(%edx)
.L486:
	.loc 1 1481 0 discriminator 4
	movl	%eax, 8(%ebp)
.LBE60:
	.loc 1 1482 0 is_stmt 1 discriminator 4
	movl	-4(%ebp), %ebx
.LVL405:
	leave
	.cfi_remember_state
	.cfi_restore 5
	.cfi_restore 3
	.cfi_def_cfa 4, 4
.LBB61:
	.loc 1 1481 0 discriminator 4
	jmp	sys_arch_unprotect
.LVL406:
.L483:
	.cfi_restore_state
.LBE61:
	.loc 1 1482 0
	movl	-4(%ebp), %ebx
.LVL407:
	leave
	.cfi_restore 5
	.cfi_restore 3
	.cfi_def_cfa 4, 4
	ret
	.cfi_endproc
.LFE45:
	.size	lwip_netconn_do_accepted, .-lwip_netconn_do_accepted
	.section	.text.unlikely.lwip_netconn_do_accepted
.LCOLDE24:
	.section	.text.lwip_netconn_do_accepted
.LHOTE24:
	.section	.text.unlikely.lwip_netconn_do_write,"ax",@progbits
.LCOLDB25:
	.section	.text.lwip_netconn_do_write,"ax",@progbits
.LHOTB25:
	.globl	lwip_netconn_do_write
	.type	lwip_netconn_do_write, @function
lwip_netconn_do_write:
.LFB47:
	.loc 1 1646 0
	.cfi_startproc
.LVL408:
	pushl	%ebp
	.cfi_def_cfa_offset 8
	.cfi_offset 5, -8
	movl	%esp, %ebp
	.cfi_def_cfa_register 5
	pushl	%ebx
	pushl	%ecx
	.cfi_offset 3, -12
	.loc 1 1646 0
	movl	8(%ebp), %ebx
.LVL409:
	.loc 1 1649 0
	movl	(%ebx), %eax
	movb	12(%eax), %dl
	cmpb	$-12, %dl
	jge	.L492
	.loc 1 1650 0
	movb	%dl, 4(%ebx)
	jmp	.L493
.L492:
	.loc 1 1652 0
	movl	(%eax), %edx
	andl	$240, %edx
	cmpl	$16, %edx
	jne	.L494
	.loc 1 1654 0
	cmpl	$0, 4(%eax)
	je	.L495
	.loc 1 1656 0
	movb	$-5, 4(%ebx)
	jmp	.L493
.L495:
	.loc 1 1657 0
	cmpl	$0, 8(%eax)
	je	.L496
	.loc 1 1666 0
	xorl	%edx, %edx
	.loc 1 1658 0
	movl	$1, 4(%eax)
	.loc 1 1663 0
	movl	%ebx, 48(%eax)
	.loc 1 1664 0
	movl	$0, 44(%eax)
	.loc 1 1666 0
	call	lwip_netconn_do_writemore
.LVL410:
	testb	%al, %al
	je	.L491
	.loc 1 1668 0
	subl	$12, %esp
	pushl	$lock_tcpip_core
	call	sys_mutex_unlock
.LVL411:
	.loc 1 1669 0
	popl	%eax
	popl	%edx
	pushl	$0
	movl	(%ebx), %eax
	addl	$16, %eax
	pushl	%eax
	call	sys_arch_sem_wait
.LVL412:
	.loc 1 1670 0
	addl	$16, %esp
	movl	$lock_tcpip_core, 8(%ebp)
	.loc 1 1692 0
	movl	-4(%ebp), %ebx
.LVL413:
	leave
	.cfi_remember_state
	.cfi_restore 5
	.cfi_restore 3
	.cfi_def_cfa 4, 4
	.loc 1 1670 0
	jmp	sys_mutex_lock
.LVL414:
.L496:
	.cfi_restore_state
	.loc 1 1680 0
	movb	$-11, 4(%ebx)
	jmp	.L493
.L494:
	.loc 1 1687 0
	movb	$-6, 4(%ebx)
.L493:
.LBB62:
	.loc 1 1691 0
	call	sys_arch_protect
.LVL415:
	movl	(%ebx), %edx
	cmpb	$-12, 12(%edx)
	jl	.L498
	.loc 1 1691 0 is_stmt 0 discriminator 2
	movb	4(%ebx), %cl
	movb	%cl, 12(%edx)
.L498:
	.loc 1 1691 0 discriminator 4
	movl	%eax, 8(%ebp)
.LBE62:
	.loc 1 1692 0 is_stmt 1 discriminator 4
	movl	-4(%ebp), %ebx
.LVL416:
	leave
	.cfi_remember_state
	.cfi_restore 5
	.cfi_restore 3
	.cfi_def_cfa 4, 4
.LBB63:
	.loc 1 1691 0 discriminator 4
	jmp	sys_arch_unprotect
.LVL417:
.L491:
	.cfi_restore_state
.LBE63:
	.loc 1 1692 0
	movl	-4(%ebp), %ebx
.LVL418:
	leave
	.cfi_restore 5
	.cfi_restore 3
	.cfi_def_cfa 4, 4
	ret
	.cfi_endproc
.LFE47:
	.size	lwip_netconn_do_write, .-lwip_netconn_do_write
	.section	.text.unlikely.lwip_netconn_do_write
.LCOLDE25:
	.section	.text.lwip_netconn_do_write
.LHOTE25:
	.section	.text.unlikely.lwip_netconn_do_getaddr,"ax",@progbits
.LCOLDB26:
	.section	.text.lwip_netconn_do_getaddr,"ax",@progbits
.LHOTB26:
	.globl	lwip_netconn_do_getaddr
	.type	lwip_netconn_do_getaddr, @function
lwip_netconn_do_getaddr:
.LFB48:
	.loc 1 1702 0
	.cfi_startproc
.LVL419:
	pushl	%ebp
	.cfi_def_cfa_offset 8
	.cfi_offset 5, -8
	movl	%esp, %ebp
	.cfi_def_cfa_register 5
	pushl	%ebx
	pushl	%edx
	.cfi_offset 3, -12
	.loc 1 1702 0
	movl	8(%ebp), %ebx
.LVL420:
	.loc 1 1705 0
	movl	(%ebx), %eax
	movl	8(%eax), %edx
	testl	%edx, %edx
	je	.L501
	.loc 1 1706 0
	cmpb	$0, 16(%ebx)
	movl	8(%ebx), %ecx
	je	.L502
	.loc 1 1707 0
	movl	(%edx), %edx
	jmp	.L520
.L502:
	.loc 1 1710 0
	movl	4(%edx), %edx
.L520:
	movl	%edx, (%ecx)
	.loc 1 1713 0
	movb	$0, 4(%ebx)
	.loc 1 1714 0
	movl	(%eax), %edx
	andl	$240, %edx
	cmpl	$32, %edx
	je	.L505
	cmpl	$64, %edx
	je	.L506
	cmpl	$16, %edx
	jne	.L504
	jmp	.L522
.L506:
	.loc 1 1717 0
	cmpb	$0, 16(%ebx)
	je	.L501
	.loc 1 1718 0
	movl	8(%eax), %eax
	movl	12(%ebx), %edx
	movzbl	16(%eax), %eax
	jmp	.L521
.L522:
	.loc 1 1740 0
	movb	16(%ebx), %dl
	movl	8(%eax), %eax
	testb	%dl, %dl
	jne	.L509
	.loc 1 1740 0 is_stmt 0 discriminator 1
	cmpl	$1, 20(%eax)
	ja	.L509
.L501:
	.loc 1 1721 0 is_stmt 1
	movb	$-11, 4(%ebx)
	jmp	.L504
.L505:
	.loc 1 1727 0
	cmpb	$0, 16(%ebx)
	movl	8(%eax), %eax
	je	.L508
	.loc 1 1728 0
	movl	12(%ebx), %edx
	movw	18(%eax), %ax
.L521:
	movw	%ax, (%edx)
	jmp	.L504
.L508:
	.loc 1 1730 0
	testb	$4, 16(%eax)
	je	.L501
	.loc 1 1733 0
	movl	12(%ebx), %edx
	movl	20(%eax), %eax
	jmp	.L521
.L509:
	.loc 1 1745 0
	testb	%dl, %dl
	movl	12(%ebx), %ecx
	je	.L510
	.loc 1 1745 0 is_stmt 0 discriminator 1
	movw	26(%eax), %ax
	jmp	.L511
.L510:
	.loc 1 1745 0 discriminator 2
	movl	28(%eax), %eax
.L511:
	.loc 1 1745 0 discriminator 4
	movw	%ax, (%ecx)
.L504:
.LBB64:
	.loc 1 1756 0 is_stmt 1
	call	sys_arch_protect
.LVL421:
	movl	(%ebx), %edx
	cmpb	$-12, 12(%edx)
	jl	.L512
	.loc 1 1756 0 is_stmt 0 discriminator 2
	movb	4(%ebx), %cl
	movb	%cl, 12(%edx)
.L512:
	.loc 1 1756 0 discriminator 4
	movl	%eax, 8(%ebp)
.LBE64:
	.loc 1 1757 0 is_stmt 1 discriminator 4
	popl	%eax
.LVL422:
	popl	%ebx
	.cfi_restore 3
.LVL423:
	popl	%ebp
	.cfi_restore 5
	.cfi_def_cfa 4, 4
.LBB65:
	.loc 1 1756 0 discriminator 4
	jmp	sys_arch_unprotect
.LVL424:
.LBE65:
	.cfi_endproc
.LFE48:
	.size	lwip_netconn_do_getaddr, .-lwip_netconn_do_getaddr
	.section	.text.unlikely.lwip_netconn_do_getaddr
.LCOLDE26:
	.section	.text.lwip_netconn_do_getaddr
.LHOTE26:
	.section	.text.unlikely.lwip_netconn_do_close,"ax",@progbits
.LCOLDB27:
	.section	.text.lwip_netconn_do_close,"ax",@progbits
.LHOTB27:
	.globl	lwip_netconn_do_close
	.type	lwip_netconn_do_close, @function
lwip_netconn_do_close:
.LFB49:
	.loc 1 1768 0
	.cfi_startproc
.LVL425:
	pushl	%ebp
	.cfi_def_cfa_offset 8
	.cfi_offset 5, -8
	movl	%esp, %ebp
	.cfi_def_cfa_register 5
	pushl	%ebx
	pushl	%ecx
	.cfi_offset 3, -12
	.loc 1 1768 0
	movl	8(%ebp), %ebx
.LVL426:
	.loc 1 1772 0
	movl	(%ebx), %eax
.LVL427:
	.loc 1 1775 0
	cmpl	$0, 8(%eax)
	je	.L524
	.loc 1 1775 0 discriminator 1
	movl	(%eax), %edx
	andl	$240, %edx
	cmpl	$16, %edx
	jne	.L524
	.loc 1 1777 0
	movb	8(%ebx), %cl
	.loc 1 1772 0
	movl	4(%eax), %edx
	.loc 1 1777 0
	cmpb	$3, %cl
	je	.L532
	cmpl	$2, %edx
	je	.L524
.L532:
	.loc 1 1779 0
	cmpl	$3, %edx
	jne	.L526
.L524:
	.loc 1 1781 0
	movb	$-11, 4(%ebx)
.LVL428:
	jmp	.L527
.LVL429:
.L526:
	.loc 1 1782 0
	decl	%edx
.LVL430:
	jne	.L528
	.loc 1 1802 0
	movb	$-5, 4(%ebx)
	jmp	.L527
.L528:
	.loc 1 1805 0
	andb	$1, %cl
	je	.L529
	.loc 1 1807 0
	call	netconn_drain
.LVL431:
.L529:
	.loc 1 1811 0
	movl	(%ebx), %eax
	.loc 1 1814 0
	xorl	%edx, %edx
	.loc 1 1811 0
	movl	$4, 4(%eax)
	.loc 1 1812 0
	movl	%ebx, 48(%eax)
	.loc 1 1814 0
	call	lwip_netconn_do_close_internal
.LVL432:
	testb	%al, %al
	je	.L523
	.loc 1 1816 0
	subl	$12, %esp
	pushl	$lock_tcpip_core
	call	sys_mutex_unlock
.LVL433:
	.loc 1 1817 0
	popl	%eax
	popl	%edx
	pushl	$0
	movl	(%ebx), %eax
	addl	$16, %eax
	pushl	%eax
	call	sys_arch_sem_wait
.LVL434:
	.loc 1 1818 0
	addl	$16, %esp
	movl	$lock_tcpip_core, 8(%ebp)
	.loc 1 1833 0
	movl	-4(%ebp), %ebx
.LVL435:
	leave
	.cfi_remember_state
	.cfi_restore 5
	.cfi_restore 3
	.cfi_def_cfa 4, 4
	.loc 1 1818 0
	jmp	sys_mutex_lock
.LVL436:
.L527:
	.cfi_restore_state
.LBB66:
	.loc 1 1832 0
	call	sys_arch_protect
.LVL437:
	movl	(%ebx), %edx
	cmpb	$-12, 12(%edx)
	jl	.L531
	.loc 1 1832 0 is_stmt 0 discriminator 2
	movb	4(%ebx), %cl
	movb	%cl, 12(%edx)
.L531:
	.loc 1 1832 0 discriminator 4
	movl	%eax, 8(%ebp)
.LBE66:
	.loc 1 1833 0 is_stmt 1 discriminator 4
	movl	-4(%ebp), %ebx
.LVL438:
	leave
	.cfi_remember_state
	.cfi_restore 5
	.cfi_restore 3
	.cfi_def_cfa 4, 4
.LBB67:
	.loc 1 1832 0 discriminator 4
	jmp	sys_arch_unprotect
.LVL439:
.L523:
	.cfi_restore_state
.LBE67:
	.loc 1 1833 0
	movl	-4(%ebp), %ebx
.LVL440:
	leave
	.cfi_restore 5
	.cfi_restore 3
	.cfi_def_cfa 4, 4
	ret
	.cfi_endproc
.LFE49:
	.size	lwip_netconn_do_close, .-lwip_netconn_do_close
	.section	.text.unlikely.lwip_netconn_do_close
.LCOLDE27:
	.section	.text.lwip_netconn_do_close
.LHOTE27:
	.section	.text.unlikely.lwip_netconn_do_join_leave_group,"ax",@progbits
.LCOLDB28:
	.section	.text.lwip_netconn_do_join_leave_group,"ax",@progbits
.LHOTB28:
	.globl	lwip_netconn_do_join_leave_group
	.type	lwip_netconn_do_join_leave_group, @function
lwip_netconn_do_join_leave_group:
.LFB50:
	.loc 1 1844 0
	.cfi_startproc
.LVL441:
	pushl	%ebp
	.cfi_def_cfa_offset 8
	.cfi_offset 5, -8
	movl	%esp, %ebp
	.cfi_def_cfa_register 5
	pushl	%ebx
	pushl	%ecx
	.cfi_offset 3, -12
	.loc 1 1844 0
	movl	8(%ebp), %ebx
.LVL442:
	.loc 1 1847 0
	movl	(%ebx), %eax
	movb	12(%eax), %dl
	cmpb	$-12, %dl
	jge	.L541
	.loc 1 1848 0
	movb	%dl, 4(%ebx)
	jmp	.L542
.L541:
	.loc 1 1850 0
	cmpl	$0, 8(%eax)
	je	.L543
	.loc 1 1851 0
	movl	(%eax), %eax
	andl	$240, %eax
	cmpl	$32, %eax
	jne	.L544
	.loc 1 1867 0
	cmpl	$0, 16(%ebx)
	jne	.L545
	.loc 1 1868 0
	pushl	%edx
	pushl	%edx
	pushl	8(%ebx)
	pushl	12(%ebx)
	call	igmp_joingroup
.LVL443:
	jmp	.L549
.L545:
	.loc 1 1871 0
	pushl	%eax
	pushl	%eax
	pushl	8(%ebx)
	pushl	12(%ebx)
	call	igmp_leavegroup
.LVL444:
.L549:
	movb	%al, 4(%ebx)
	addl	$16, %esp
	jmp	.L542
.L544:
	.loc 1 1879 0
	movb	$-6, 4(%ebx)
	jmp	.L542
.L543:
	.loc 1 1883 0
	movb	$-11, 4(%ebx)
.L542:
	.loc 1 1886 0
	cmpl	$0, (%ebx)
	je	.L540
.LBB68:
	.loc 1 1886 0 discriminator 1
	call	sys_arch_protect
.LVL445:
	movl	(%ebx), %edx
	cmpb	$-12, 12(%edx)
	jl	.L547
	.loc 1 1886 0 is_stmt 0 discriminator 2
	movb	4(%ebx), %cl
	movb	%cl, 12(%edx)
.L547:
	.loc 1 1886 0 discriminator 4
	movl	%eax, 8(%ebp)
.LBE68:
	.loc 1 1887 0 is_stmt 1 discriminator 4
	movl	-4(%ebp), %ebx
.LVL446:
	leave
	.cfi_remember_state
	.cfi_restore 5
	.cfi_restore 3
	.cfi_def_cfa 4, 4
.LBB69:
	.loc 1 1886 0 discriminator 4
	jmp	sys_arch_unprotect
.LVL447:
.L540:
	.cfi_restore_state
.LBE69:
	.loc 1 1887 0
	movl	-4(%ebp), %ebx
.LVL448:
	leave
	.cfi_restore 5
	.cfi_restore 3
	.cfi_def_cfa 4, 4
	ret
	.cfi_endproc
.LFE50:
	.size	lwip_netconn_do_join_leave_group, .-lwip_netconn_do_join_leave_group
	.section	.text.unlikely.lwip_netconn_do_join_leave_group
.LCOLDE28:
	.section	.text.lwip_netconn_do_join_leave_group
.LHOTE28:
	.section	.text.unlikely.lwip_netconn_do_gethostbyname,"ax",@progbits
.LCOLDB29:
	.section	.text.lwip_netconn_do_gethostbyname,"ax",@progbits
.LHOTB29:
	.globl	lwip_netconn_do_gethostbyname
	.type	lwip_netconn_do_gethostbyname, @function
lwip_netconn_do_gethostbyname:
.LFB52:
	.loc 1 1924 0
	.cfi_startproc
.LVL449:
	pushl	%ebp
	.cfi_def_cfa_offset 8
	.cfi_offset 5, -8
	movl	%esp, %ebp
	.cfi_def_cfa_register 5
	pushl	%esi
	pushl	%ebx
	.cfi_offset 6, -12
	.cfi_offset 3, -16
	.loc 1 1924 0
	movl	8(%ebp), %ebx
.LVL450:
	.loc 1 1933 0
	subl	$12, %esp
	movl	12(%ebx), %esi
	pushl	$0
	pushl	%ebx
	pushl	$lwip_netconn_do_dns_found
	pushl	4(%ebx)
	pushl	(%ebx)
	call	dns_gethostbyname_addrtype
.LVL451:
	movb	%al, (%esi)
	.loc 1 1935 0
	movl	12(%ebx), %eax
	addl	$32, %esp
	cmpb	$-5, (%eax)
	je	.L550
	.loc 1 1938 0
	movl	8(%ebx), %eax
	movl	%eax, 8(%ebp)
.LVL452:
	.loc 1 1940 0
	leal	-8(%ebp), %esp
	popl	%ebx
	.cfi_remember_state
	.cfi_restore 3
.LVL453:
	popl	%esi
	.cfi_restore 6
	popl	%ebp
	.cfi_restore 5
	.cfi_def_cfa 4, 4
	.loc 1 1938 0
	jmp	sys_sem_signal
.LVL454:
.L550:
	.cfi_restore_state
	.loc 1 1940 0
	leal	-8(%ebp), %esp
	popl	%ebx
	.cfi_restore 3
.LVL455:
	popl	%esi
	.cfi_restore 6
	popl	%ebp
	.cfi_restore 5
	.cfi_def_cfa 4, 4
	ret
	.cfi_endproc
.LFE52:
	.size	lwip_netconn_do_gethostbyname, .-lwip_netconn_do_gethostbyname
	.section	.text.unlikely.lwip_netconn_do_gethostbyname
.LCOLDE29:
	.section	.text.lwip_netconn_do_gethostbyname
.LHOTE29:
	.globl	netconn_aborted
	.section	.bss.netconn_aborted,"aw",@nobits
	.type	netconn_aborted, @object
	.size	netconn_aborted, 1
netconn_aborted:
	.zero	1
	.text
.Letext0:
	.section	.text.unlikely.recv_udp
.Letext_cold0:
	.file 2 "/home/stone/Documents/Ali_IOT/build/compiler/gcc-arm-none-eabi/Linux64/lib/gcc/arm-none-eabi/5.4.1/include/stddef.h"
	.file 3 "././platform/mcu/moc108/include/lwip-2.0.2/arch/cc.h"
	.file 4 "./include/aos/kernel.h"
	.file 5 "./kernel/protocols/net/include/lwip/ip4_addr.h"
	.file 6 "./kernel/protocols/net/include/lwip/ip_addr.h"
	.file 7 "./kernel/protocols/net/include/lwip/err.h"
	.file 8 "./kernel/protocols/net/port/include/arch/sys_arch.h"
	.file 9 "./kernel/protocols/net/include/lwip/pbuf.h"
	.file 10 "./kernel/protocols/net/include/lwip/memp.h"
	.file 11 "./kernel/protocols/net/include/lwip/netif.h"
	.file 12 "./kernel/protocols/net/include/lwip/netbuf.h"
	.file 13 "./kernel/protocols/net/include/lwip/api.h"
	.file 14 "./kernel/protocols/net/include/lwip/ip.h"
	.file 15 "./kernel/protocols/net/include/lwip/tcp.h"
	.file 16 "./kernel/protocols/net/include/lwip/udp.h"
	.file 17 "./kernel/protocols/net/include/lwip/raw.h"
	.file 18 "./kernel/protocols/net/include/lwip/priv/api_msg.h"
	.file 19 "./kernel/protocols/net/include/lwip/prot/ip4.h"
	.file 20 "./include/aos/log.h"
	.file 21 "./kernel/protocols/net/include/lwip/tcpip.h"
	.file 22 "./kernel/protocols/net/include/lwip/sys.h"
	.file 23 "././platform/mcu/moc108/include/driver/uart_pub.h"
	.file 24 "./kernel/protocols/net/include/lwip/igmp.h"
	.file 25 "./kernel/protocols/net/include/lwip/dns.h"
	.section	.note.GNU-stack,"",@progbits
