	.file	"app_button.c"
	.text
.Ltext0:
	.section	.text.unlikely.detection_delay_timeout_handler,"ax",@progbits
.LCOLDB0:
	.section	.text.detection_delay_timeout_handler,"ax",@progbits
.LHOTB0:
	.section	.text.unlikely.detection_delay_timeout_handler
.Ltext_cold0:
	.section	.text.detection_delay_timeout_handler
	.type	detection_delay_timeout_handler, @function
detection_delay_timeout_handler:
.LFB191:
	.file 1 "src/app_button.c"
	.loc 1 4197 0
	.cfi_startproc
.LVL0:
	pushl	%ebp
	.cfi_def_cfa_offset 8
	.cfi_offset 5, -8
	movl	%esp, %ebp
	.cfi_def_cfa_register 5
	pushl	%edi
	pushl	%esi
	pushl	%ebx
	.cfi_offset 7, -12
	.cfi_offset 6, -16
	.cfi_offset 3, -20
	.loc 1 4199 0
	xorl	%edi, %edi
	.loc 1 4197 0
	subl	$12, %esp
.LVL1:
.L2:
	.loc 1 4199 0 discriminator 1
	movl	%edi, %eax
	cmpb	m_button_count, %al
	jnb	.L12
.LBB2:
	.loc 1 4201 0
	movl	%edi, %eax
	.loc 1 4202 0
	movl	$1, %esi
	.loc 1 4201 0
	movzbl	%al, %ebx
	.loc 1 4202 0
	movl	%esi, %eax
	.loc 1 4201 0
	imull	$12, %ebx, %ebx
	addl	mp_buttons, %ebx
.LVL2:
	.loc 1 4202 0
	movzbl	(%ebx), %edx
	movl	%edx, %ecx
	sall	%cl, %eax
	movl	%eax, %ecx
.LVL3:
	.loc 1 4203 0
	movl	m_pin_transition, %eax
.LVL4:
	testl	%eax, %ecx
	je	.L4
.LBB3:
	.loc 1 4207 0
	subl	$12, %esp
	.loc 1 4205 0
	notl	%ecx
.LVL5:
	.loc 1 4207 0
	pushl	%edx
	.loc 1 4205 0
	andl	%ecx, %eax
	movl	%eax, m_pin_transition
	.loc 1 4207 0
	call	nrf_drv_gpiote_in_is_set
.LVL6:
	.loc 1 4208 0
	movzbl	(%ebx), %ecx
	movzbl	%al, %edx
	addl	$16, %esp
	sall	%cl, %esi
	andl	m_pin_state, %esi
	sall	%cl, %edx
	cmpl	%edx, %esi
	jne	.L4
.LVL7:
.LBB4:
	.loc 1 4211 0
	movl	8(%ebx), %esi
	testl	%esi, %esi
	je	.L4
	.loc 1 4213 0
	pushl	%edx
.LVL8:
	pushl	%edx
	cmpb	$1, 1(%ebx)
	sete	%dl
	cmpb	%al, %dl
	sete	%al
.LVL9:
	movzbl	%al, %eax
	pushl	%eax
	pushl	%ecx
	call	*%esi
.LVL10:
	addl	$16, %esp
.L4:
.LBE4:
.LBE3:
.LBE2:
	.loc 1 4199 0 discriminator 2
	incl	%edi
.LVL11:
	jmp	.L2
.LVL12:
.L12:
	.loc 1 4218 0
	leal	-12(%ebp), %esp
	popl	%ebx
	.cfi_restore 3
	popl	%esi
	.cfi_restore 6
	popl	%edi
	.cfi_restore 7
	popl	%ebp
	.cfi_restore 5
	.cfi_def_cfa 4, 4
	ret
	.cfi_endproc
.LFE191:
	.size	detection_delay_timeout_handler, .-detection_delay_timeout_handler
	.section	.text.unlikely.detection_delay_timeout_handler
.LCOLDE0:
	.section	.text.detection_delay_timeout_handler
.LHOTE0:
	.section	.text.unlikely.gpiote_event_handler,"ax",@progbits
.LCOLDB1:
	.section	.text.gpiote_event_handler,"ax",@progbits
.LHOTB1:
	.type	gpiote_event_handler, @function
gpiote_event_handler:
.LFB192:
	.loc 1 4220 0
	.cfi_startproc
.LVL13:
	pushl	%ebp
	.cfi_def_cfa_offset 8
	.cfi_offset 5, -8
	movl	%esp, %ebp
	.cfi_def_cfa_register 5
.LVL14:
	pushl	%ebx
	subl	$16, %esp
	.cfi_offset 3, -12
	.loc 1 4223 0
	pushl	$m_detection_delay_timer_id_data
	call	app_timer_stop
.LVL15:
	.loc 1 4224 0
	addl	$16, %esp
	testl	%eax, %eax
	jne	.L13
	.loc 1 4222 0
	movb	8(%ebp), %cl
	.loc 1 4228 0
	movl	m_pin_transition, %eax
.LVL16:
	.loc 1 4222 0
	movl	$1, %ebx
	sall	%cl, %ebx
	.loc 1 4228 0
	testl	%eax, %ebx
	jne	.L15
	.loc 1 4230 0
	subl	$12, %esp
	pushl	8(%ebp)
	call	nrf_drv_gpiote_in_is_set
.LVL17:
	addl	$16, %esp
	testb	%al, %al
	je	.L16
	.loc 1 4232 0
	orl	%ebx, m_pin_state
	jmp	.L17
.L16:
	.loc 1 4236 0
	movl	%ebx, %eax
	notl	%eax
	andl	%eax, m_pin_state
.L17:
	.loc 1 4239 0
	pushl	%eax
	pushl	$0
	pushl	m_detection_delay
	pushl	$m_detection_delay_timer_id_data
	.loc 1 4238 0
	orl	%ebx, m_pin_transition
	.loc 1 4239 0
	call	app_timer_start
.LVL18:
	addl	$16, %esp
	jmp	.L13
.L15:
	.loc 1 4248 0
	notl	%ebx
	andl	%eax, %ebx
	movl	%ebx, m_pin_transition
.L13:
	.loc 1 4250 0
	movl	-4(%ebp), %ebx
	leave
	.cfi_restore 5
	.cfi_restore 3
	.cfi_def_cfa 4, 4
	ret
	.cfi_endproc
.LFE192:
	.size	gpiote_event_handler, .-gpiote_event_handler
	.section	.text.unlikely.gpiote_event_handler
.LCOLDE1:
	.section	.text.gpiote_event_handler
.LHOTE1:
	.section	.text.unlikely.app_button_init,"ax",@progbits
.LCOLDB2:
	.section	.text.app_button_init,"ax",@progbits
.LHOTB2:
	.globl	app_button_init
	.type	app_button_init, @function
app_button_init:
.LFB193:
	.loc 1 4254 0
	.cfi_startproc
.LVL19:
	pushl	%ebp
	.cfi_def_cfa_offset 8
	.cfi_offset 5, -8
	movl	%esp, %ebp
	.cfi_def_cfa_register 5
	pushl	%edi
	pushl	%esi
	pushl	%ebx
	subl	$28, %esp
	.cfi_offset 7, -12
	.cfi_offset 6, -16
	.cfi_offset 3, -20
	.loc 1 4254 0
	movl	16(%ebp), %edi
	movl	8(%ebp), %esi
	movl	%gs:20, %eax
	movl	%eax, -28(%ebp)
	xorl	%eax, %eax
	movl	12(%ebp), %ebx
	.loc 1 4258 0
	movl	$7, %eax
	.loc 1 4256 0
	cmpl	$4, %edi
	jbe	.L20
	.loc 1 4260 0
	call	nrf_drv_gpiote_is_init
.LVL20:
	testb	%al, %al
	je	.L21
.L23:
	.loc 1 4266 0
	movb	%bl, m_button_count
	.loc 1 4267 0
	movl	%edi, m_detection_delay
	decl	%ebx
	.loc 1 4265 0
	movl	%esi, mp_buttons
	.loc 1 4268 0
	movl	$0, m_pin_state
.LBB5:
	.loc 1 4279 0
	leal	-40(%ebp), %edi
.LBE5:
	.loc 1 4269 0
	movl	$0, m_pin_transition
	.loc 1 4270 0
	jmp	.L22
.L21:
	.loc 1 4262 0
	call	nrf_drv_gpiote_init
.LVL21:
	.loc 1 4263 0
	testl	%eax, %eax
	je	.L23
	jmp	.L20
.LVL22:
.L25:
.LBB6:
	.loc 1 4272 0
	movzbl	%bl, %eax
	.loc 1 4273 0
	movl	$3, -40(%ebp)
	movb	$0, -32(%ebp)
	.loc 1 4272 0
	imull	$12, %eax, %eax
	.loc 1 4273 0
	movb	$0, -31(%ebp)
	decl	%ebx
.LVL23:
	.loc 1 4272 0
	addl	%esi, %eax
.LVL24:
	.loc 1 4278 0
	movl	4(%eax), %edx
	movl	%edx, -36(%ebp)
	.loc 1 4279 0
	pushl	%edx
	pushl	$gpiote_event_handler
	pushl	%edi
	movzbl	(%eax), %eax
.LVL25:
	pushl	%eax
	call	nrf_drv_gpiote_in_init
.LVL26:
	.loc 1 4280 0
	addl	$16, %esp
	testl	%eax, %eax
	jne	.L20
.LVL27:
.L22:
.LBE6:
	.loc 1 4270 0
	cmpb	$-1, %bl
	jne	.L25
	.loc 1 4282 0
	pushl	%eax
	pushl	$detection_delay_timeout_handler
	pushl	$0
	pushl	$m_detection_delay_timer_id
	call	app_timer_create
.LVL28:
	addl	$16, %esp
.LVL29:
.L20:
	.loc 1 4285 0
	movl	-28(%ebp), %ecx
	xorl	%gs:20, %ecx
	je	.L26
	call	__stack_chk_fail
.LVL30:
.L26:
	leal	-12(%ebp), %esp
	popl	%ebx
	.cfi_restore 3
	popl	%esi
	.cfi_restore 6
	popl	%edi
	.cfi_restore 7
	popl	%ebp
	.cfi_restore 5
	.cfi_def_cfa 4, 4
	ret
	.cfi_endproc
.LFE193:
	.size	app_button_init, .-app_button_init
	.section	.text.unlikely.app_button_init
.LCOLDE2:
	.section	.text.app_button_init
.LHOTE2:
	.section	.text.unlikely.app_button_enable,"ax",@progbits
.LCOLDB3:
	.section	.text.app_button_enable,"ax",@progbits
.LHOTB3:
	.globl	app_button_enable
	.type	app_button_enable, @function
app_button_enable:
.LFB194:
	.loc 1 4287 0
	.cfi_startproc
.LVL31:
	pushl	%ebp
	.cfi_def_cfa_offset 8
	.cfi_offset 5, -8
	movl	%esp, %ebp
	.cfi_def_cfa_register 5
	pushl	%ebx
	pushl	%edx
	.cfi_offset 3, -12
	.loc 1 4290 0
	xorl	%ebx, %ebx
.LVL32:
.L32:
	.loc 1 4290 0 is_stmt 0 discriminator 1
	movzbl	m_button_count, %eax
	cmpl	%eax, %ebx
	jnb	.L35
	.loc 1 4292 0 is_stmt 1 discriminator 3
	pushl	%eax
	pushl	%eax
	imull	$12, %ebx, %eax
	addl	mp_buttons, %eax
	pushl	$1
	.loc 1 4290 0 discriminator 3
	incl	%ebx
.LVL33:
	.loc 1 4292 0 discriminator 3
	movzbl	(%eax), %eax
	pushl	%eax
	call	nrf_drv_gpiote_in_event_enable
.LVL34:
	.loc 1 4290 0 discriminator 3
	addl	$16, %esp
	jmp	.L32
.L35:
	.loc 1 4297 0
	xorl	%eax, %eax
	movl	-4(%ebp), %ebx
.LVL35:
	leave
	.cfi_restore 5
	.cfi_restore 3
	.cfi_def_cfa 4, 4
	ret
	.cfi_endproc
.LFE194:
	.size	app_button_enable, .-app_button_enable
	.section	.text.unlikely.app_button_enable
.LCOLDE3:
	.section	.text.app_button_enable
.LHOTE3:
	.section	.text.unlikely.app_button_disable,"ax",@progbits
.LCOLDB4:
	.section	.text.app_button_disable,"ax",@progbits
.LHOTB4:
	.globl	app_button_disable
	.type	app_button_disable, @function
app_button_disable:
.LFB195:
	.loc 1 4299 0
	.cfi_startproc
.LVL36:
	pushl	%ebp
	.cfi_def_cfa_offset 8
	.cfi_offset 5, -8
	movl	%esp, %ebp
	.cfi_def_cfa_register 5
	pushl	%ebx
	pushl	%eax
	.cfi_offset 3, -12
	.loc 1 4302 0
	xorl	%ebx, %ebx
.LVL37:
.L37:
	.loc 1 4302 0 is_stmt 0 discriminator 1
	movzbl	m_button_count, %eax
	cmpl	%eax, %ebx
	jnb	.L40
	.loc 1 4304 0 is_stmt 1 discriminator 3
	imull	$12, %ebx, %eax
	addl	mp_buttons, %eax
	subl	$12, %esp
	.loc 1 4302 0 discriminator 3
	incl	%ebx
.LVL38:
	.loc 1 4304 0 discriminator 3
	movzbl	(%eax), %eax
	pushl	%eax
	call	nrf_drv_gpiote_in_event_disable
.LVL39:
	.loc 1 4302 0 discriminator 3
	addl	$16, %esp
	jmp	.L37
.L40:
	.loc 1 4306 0
	subl	$12, %esp
	pushl	$m_detection_delay_timer_id_data
	call	app_timer_stop
.LVL40:
	.loc 1 4307 0
	movl	-4(%ebp), %ebx
.LVL41:
	leave
	.cfi_restore 5
	.cfi_restore 3
	.cfi_def_cfa 4, 4
	ret
	.cfi_endproc
.LFE195:
	.size	app_button_disable, .-app_button_disable
	.section	.text.unlikely.app_button_disable
.LCOLDE4:
	.section	.text.app_button_disable
.LHOTE4:
	.section	.text.unlikely.app_button_is_pushed,"ax",@progbits
.LCOLDB5:
	.section	.text.app_button_is_pushed,"ax",@progbits
.LHOTB5:
	.globl	app_button_is_pushed
	.type	app_button_is_pushed, @function
app_button_is_pushed:
.LFB196:
	.loc 1 4310 0
	.cfi_startproc
.LVL42:
	pushl	%ebp
	.cfi_def_cfa_offset 8
	.cfi_offset 5, -8
	movl	%esp, %ebp
	.cfi_def_cfa_register 5
	pushl	%ebx
	subl	$16, %esp
	.cfi_offset 3, -12
	.loc 1 4315 0
	movzbl	8(%ebp), %ebx
	imull	$12, %ebx, %ebx
	addl	mp_buttons, %ebx
.LVL43:
	.loc 1 4317 0
	movzbl	(%ebx), %eax
	pushl	%eax
	call	nrf_drv_gpiote_in_is_set
.LVL44:
	.loc 1 4318 0
	addl	$16, %esp
	cmpb	$1, 1(%ebx)
	.loc 1 4319 0
	movl	-4(%ebp), %ebx
.LVL45:
	leave
	.cfi_restore 5
	.cfi_restore 3
	.cfi_def_cfa 4, 4
	.loc 1 4318 0
	sete	%dl
	cmpb	%al, %dl
	sete	%al
.LVL46:
	.loc 1 4319 0
	ret
	.cfi_endproc
.LFE196:
	.size	app_button_is_pushed, .-app_button_is_pushed
	.section	.text.unlikely.app_button_is_pushed
.LCOLDE5:
	.section	.text.app_button_is_pushed
.LHOTE5:
	.section	.bss.m_pin_transition,"aw",@nobits
	.align 4
	.type	m_pin_transition, @object
	.size	m_pin_transition, 4
m_pin_transition:
	.zero	4
	.section	.bss.m_pin_state,"aw",@nobits
	.align 4
	.type	m_pin_state, @object
	.size	m_pin_state, 4
m_pin_state:
	.zero	4
	.section	.rodata.m_detection_delay_timer_id,"a",@progbits
	.align 4
	.type	m_detection_delay_timer_id, @object
	.size	m_detection_delay_timer_id, 4
m_detection_delay_timer_id:
	.long	m_detection_delay_timer_id_data
	.section	.bss.m_detection_delay_timer_id_data,"aw",@nobits
	.align 32
	.type	m_detection_delay_timer_id_data, @object
	.size	m_detection_delay_timer_id_data, 32
m_detection_delay_timer_id_data:
	.zero	32
	.section	.bss.m_detection_delay,"aw",@nobits
	.align 4
	.type	m_detection_delay, @object
	.size	m_detection_delay, 4
m_detection_delay:
	.zero	4
	.section	.bss.m_button_count,"aw",@nobits
	.type	m_button_count, @object
	.size	m_button_count, 1
m_button_count:
	.zero	1
	.section	.bss.mp_buttons,"aw",@nobits
	.align 4
	.type	mp_buttons, @object
	.size	mp_buttons, 4
mp_buttons:
	.zero	4
	.text
.Letext0:
	.section	.text.unlikely.detection_delay_timeout_handler
.Letext_cold0:
	.section	.note.GNU-stack,"",@progbits
