	.file	"app_util_platform.c"
	.text
.Ltext0:
	.section	.text.unlikely.app_util_disable_irq,"ax",@progbits
.LCOLDB0:
	.section	.text.app_util_disable_irq,"ax",@progbits
.LHOTB0:
	.section	.text.unlikely.app_util_disable_irq
.Ltext_cold0:
	.section	.text.app_util_disable_irq
	.globl	app_util_disable_irq
	.type	app_util_disable_irq, @function
app_util_disable_irq:
.LFB125:
	.file 1 "src/app_util_platform.c"
	.loc 1 3075 0
	.cfi_startproc
	pushl	%ebp
	.cfi_def_cfa_offset 8
	.cfi_offset 5, -8
	movl	%esp, %ebp
	.cfi_def_cfa_register 5
.LBB14:
.LBB15:
	.loc 1 113 0
#APP
# 113 "src/app_util_platform.c" 1
	cpsid i
# 0 "" 2
#NO_APP
.LBE15:
.LBE14:
	.loc 1 3077 0
	incl	m_in_critical_region
	.loc 1 3078 0
	popl	%ebp
	.cfi_restore 5
	.cfi_def_cfa 4, 4
	ret
	.cfi_endproc
.LFE125:
	.size	app_util_disable_irq, .-app_util_disable_irq
	.section	.text.unlikely.app_util_disable_irq
.LCOLDE0:
	.section	.text.app_util_disable_irq
.LHOTE0:
	.section	.text.unlikely.app_util_enable_irq,"ax",@progbits
.LCOLDB1:
	.section	.text.app_util_enable_irq,"ax",@progbits
.LHOTB1:
	.globl	app_util_enable_irq
	.type	app_util_enable_irq, @function
app_util_enable_irq:
.LFB126:
	.loc 1 3080 0
	.cfi_startproc
	.loc 1 3082 0
	decl	m_in_critical_region
	.loc 1 3080 0
	pushl	%ebp
	.cfi_def_cfa_offset 8
	.cfi_offset 5, -8
	movl	%esp, %ebp
	.cfi_def_cfa_register 5
	.loc 1 3082 0
	jne	.L3
.LBB16:
.LBB17:
	.loc 1 109 0
#APP
# 109 "src/app_util_platform.c" 1
	cpsie i
# 0 "" 2
#NO_APP
.L3:
.LBE17:
.LBE16:
	.loc 1 3086 0
	popl	%ebp
	.cfi_restore 5
	.cfi_def_cfa 4, 4
	ret
	.cfi_endproc
.LFE126:
	.size	app_util_enable_irq, .-app_util_enable_irq
	.section	.text.unlikely.app_util_enable_irq
.LCOLDE1:
	.section	.text.app_util_enable_irq
.LHOTE1:
	.section	.text.unlikely.app_util_critical_region_enter,"ax",@progbits
.LCOLDB2:
	.section	.text.app_util_critical_region_enter,"ax",@progbits
.LHOTB2:
	.globl	app_util_critical_region_enter
	.type	app_util_critical_region_enter, @function
app_util_critical_region_enter:
.LFB127:
	.loc 1 3088 0
	.cfi_startproc
.LVL0:
	pushl	%ebp
	.cfi_def_cfa_offset 8
	.cfi_offset 5, -8
	movl	%esp, %ebp
	.cfi_def_cfa_register 5
	.loc 1 3091 0
	popl	%ebp
	.cfi_restore 5
	.cfi_def_cfa 4, 4
	.loc 1 3090 0
	jmp	app_util_disable_irq
.LVL1:
	.cfi_endproc
.LFE127:
	.size	app_util_critical_region_enter, .-app_util_critical_region_enter
	.section	.text.unlikely.app_util_critical_region_enter
.LCOLDE2:
	.section	.text.app_util_critical_region_enter
.LHOTE2:
	.section	.text.unlikely.app_util_critical_region_exit,"ax",@progbits
.LCOLDB3:
	.section	.text.app_util_critical_region_exit,"ax",@progbits
.LHOTB3:
	.globl	app_util_critical_region_exit
	.type	app_util_critical_region_exit, @function
app_util_critical_region_exit:
.LFB128:
	.loc 1 3093 0
	.cfi_startproc
.LVL2:
	pushl	%ebp
	.cfi_def_cfa_offset 8
	.cfi_offset 5, -8
	movl	%esp, %ebp
	.cfi_def_cfa_register 5
	.loc 1 3096 0
	popl	%ebp
	.cfi_restore 5
	.cfi_def_cfa 4, 4
	.loc 1 3095 0
	jmp	app_util_enable_irq
.LVL3:
	.cfi_endproc
.LFE128:
	.size	app_util_critical_region_exit, .-app_util_critical_region_exit
	.section	.text.unlikely.app_util_critical_region_exit
.LCOLDE3:
	.section	.text.app_util_critical_region_exit
.LHOTE3:
	.section	.text.unlikely.privilege_level_get,"ax",@progbits
.LCOLDB4:
	.section	.text.privilege_level_get,"ax",@progbits
.LHOTB4:
	.globl	privilege_level_get
	.type	privilege_level_get, @function
privilege_level_get:
.LFB129:
	.loc 1 3098 0
	.cfi_startproc
	pushl	%ebp
	.cfi_def_cfa_offset 8
	.cfi_offset 5, -8
	movl	%esp, %ebp
	.cfi_def_cfa_register 5
.LBB18:
.LBB19:
	.loc 1 128 0
#APP
# 128 "src/app_util_platform.c" 1
	MRS %edx, ipsr
# 0 "" 2
.LVL4:
#NO_APP
.LBE19:
.LBE18:
	.loc 1 3100 0
	andl	$511, %edx
.LVL5:
	movb	$1, %al
	jne	.L12
.LBB20:
.LBB21:
.LBB22:
	.loc 1 118 0
#APP
# 118 "src/app_util_platform.c" 1
	MRS %eax, control
# 0 "" 2
.LVL6:
#NO_APP
.LBE22:
.LBE21:
	.loc 1 3103 0
	andl	$1, %eax
.LVL7:
	xorl	$1, %eax
.L12:
.LBE20:
	.loc 1 3109 0
	popl	%ebp
	.cfi_restore 5
	.cfi_def_cfa 4, 4
	ret
	.cfi_endproc
.LFE129:
	.size	privilege_level_get, .-privilege_level_get
	.section	.text.unlikely.privilege_level_get
.LCOLDE4:
	.section	.text.privilege_level_get
.LHOTE4:
	.section	.text.unlikely.current_int_priority_get,"ax",@progbits
.LCOLDB5:
	.section	.text.current_int_priority_get,"ax",@progbits
.LHOTB5:
	.globl	current_int_priority_get
	.type	current_int_priority_get, @function
current_int_priority_get:
.LFB130:
	.loc 1 3111 0
	.cfi_startproc
	pushl	%ebp
	.cfi_def_cfa_offset 8
	.cfi_offset 5, -8
	movl	%esp, %ebp
	.cfi_def_cfa_register 5
.LBB28:
.LBB29:
	.loc 1 128 0
#APP
# 128 "src/app_util_platform.c" 1
	MRS %edx, ipsr
# 0 "" 2
.LVL8:
#NO_APP
.LBE29:
.LBE28:
	.loc 1 3113 0
	andl	$511, %edx
.LVL9:
	.loc 1 3120 0
	movb	$15, %al
	.loc 1 3113 0
	je	.L17
.LVL10:
.LBB30:
.LBB31:
.LBB32:
	.loc 1 980 0
	movl	%edx, %eax
	subl	$16, %eax
.LVL11:
	jns	.L18
	.loc 1 982 0
	andl	$15, %eax
.LVL12:
	subl	$4, %eax
	movb	-536810216(%eax), %al
	jmp	.L23
.LVL13:
.L18:
	.loc 1 986 0
	movb	-536812544(%eax), %al
.LVL14:
.L23:
	shrb	$5, %al
	movzbl	%al, %eax
.LVL15:
.L17:
.LBE32:
.LBE31:
.LBE30:
	.loc 1 3122 0
	popl	%ebp
	.cfi_restore 5
	.cfi_def_cfa 4, 4
	ret
	.cfi_endproc
.LFE130:
	.size	current_int_priority_get, .-current_int_priority_get
	.section	.text.unlikely.current_int_priority_get
.LCOLDE5:
	.section	.text.current_int_priority_get
.LHOTE5:
	.section	.bss.m_in_critical_region,"aw",@nobits
	.align 4
	.type	m_in_critical_region, @object
	.size	m_in_critical_region, 4
m_in_critical_region:
	.zero	4
	.text
.Letext0:
	.section	.text.unlikely.app_util_disable_irq
.Letext_cold0:
	.section	.note.GNU-stack,"",@progbits
