	.file	"app_uart_fifo.c"
	.text
.Ltext0:
	.section	.text.unlikely.uart_event_handler,"ax",@progbits
.LCOLDB1:
	.section	.text.uart_event_handler,"ax",@progbits
.LHOTB1:
	.section	.text.unlikely.uart_event_handler
.Ltext_cold0:
	.section	.text.uart_event_handler
	.type	uart_event_handler, @function
uart_event_handler:
.LFB208:
	.file 1 "src/app_uart_fifo.c"
	.loc 1 4995 0
	.cfi_startproc
.LVL0:
	pushl	%ebp
	.cfi_def_cfa_offset 8
	.cfi_offset 5, -8
	movl	%esp, %ebp
	.cfi_def_cfa_register 5
	subl	$24, %esp
	.loc 1 4995 0
	movl	8(%ebp), %eax
	movl	%gs:20, %ecx
	movl	%ecx, -12(%ebp)
	xorl	%ecx, %ecx
	.loc 1 4999 0
	movl	(%eax), %edx
	cmpl	$1, %edx
	je	.L3
	jb	.L4
	cmpl	$2, %edx
	jne	.L1
	.loc 1 5007 0
	pushl	%ecx
	jmp	.L9
.L3:
	.loc 1 5002 0
	movl	4(%eax), %eax
	movb	(%eax), %al
	movb	%al, -13(%ebp)
	.loc 1 5003 0
	pushl	%eax
	leal	-13(%ebp), %eax
	pushl	$1
	pushl	%eax
	pushl	$g_buf_queue_uart
	call	krhino_buf_queue_send
.LVL1:
	.loc 1 5004 0
	addl	$12, %esp
.L9:
	.loc 1 5007 0
	pushl	$1
	pushl	$rx_buffer
	pushl	$app_uart_inst
	call	nrf_drv_uart_rx
.LVL2:
	jmp	.L8
.L4:
	.loc 1 5010 0
	pushl	%edx
	pushl	%edx
	pushl	$tx_buffer
	pushl	$m_tx_fifo
	call	app_fifo_get
.LVL3:
	addl	$16, %esp
	testl	%eax, %eax
	jne	.L1
.LVL4:
.LBB4:
.LBB5:
	.loc 1 5012 0
	pushl	%eax
	pushl	$1
	pushl	$tx_buffer
	pushl	$app_uart_inst
	call	nrf_drv_uart_tx
.LVL5:
.L8:
	addl	$16, %esp
.L1:
.LBE5:
.LBE4:
	.loc 1 5021 0
	movl	-12(%ebp), %eax
	xorl	%gs:20, %eax
	je	.L6
	call	__stack_chk_fail
.LVL6:
.L6:
	leave
	.cfi_restore 5
	.cfi_def_cfa 4, 4
	ret
	.cfi_endproc
.LFE208:
	.size	uart_event_handler, .-uart_event_handler
	.section	.text.unlikely.uart_event_handler
.LCOLDE1:
	.section	.text.uart_event_handler
.LHOTE1:
	.section	.rodata.str1.1,"aMS",@progbits,1
.LC2:
	.string	"buf_queue_uart"
	.section	.rodata
	.align 32
.LC0:
	.long	-1
	.long	-1
	.long	-1
	.long	-1
	.long	0
	.long	0
	.long	0
	.long	30801920
	.byte	7
	.byte	1
	.zero	2
	.section	.text.unlikely.app_uart_init,"ax",@progbits
.LCOLDB3:
	.section	.text.app_uart_init,"ax",@progbits
.LHOTB3:
	.globl	app_uart_init
	.type	app_uart_init, @function
app_uart_init:
.LFB209:
	.loc 1 5026 0
	.cfi_startproc
.LVL7:
	pushl	%ebp
	.cfi_def_cfa_offset 8
	.cfi_offset 5, -8
	movl	%esp, %ebp
	.cfi_def_cfa_register 5
	pushl	%edi
	pushl	%esi
	pushl	%ebx
	subl	$60, %esp
	.cfi_offset 7, -12
	.cfi_offset 6, -16
	.cfi_offset 3, -20
	.loc 1 5026 0
	movl	12(%ebp), %esi
	movl	8(%ebp), %ebx
	movl	%gs:20, %eax
	movl	%eax, -28(%ebp)
	xorl	%eax, %eax
	.loc 1 5034 0
	movl	$7, %eax
	.loc 1 5030 0
	testl	%esi, %esi
	je	.L12
	.loc 1 5036 0
	subl	$12, %esp
	pushl	$1
	pushl	$256
	pushl	$g_buf_uart
	pushl	$.LC2
	pushl	$g_buf_queue_uart
	call	krhino_buf_queue_create
.LVL8:
	.loc 1 5038 0
	addl	$32, %esp
	testl	%eax, %eax
	jne	.L12
	.loc 1 5039 0
	pushl	%edi
	movzwl	4(%esi), %eax
.LVL9:
	pushl	%eax
	pushl	(%esi)
	pushl	$m_rx_fifo
	call	app_fifo_init
.LVL10:
	.loc 1 5040 0
	addl	$16, %esp
	testl	%eax, %eax
	jne	.L12
	.loc 1 5041 0
	pushl	%ecx
	movzwl	12(%esi), %eax
.LVL11:
	pushl	%eax
	pushl	8(%esi)
	pushl	$m_tx_fifo
	call	app_fifo_init
.LVL12:
	.loc 1 5042 0
	addl	$16, %esp
	testl	%eax, %eax
	jne	.L12
	.loc 1 5048 0
	movl	24(%ebx), %eax
.LVL13:
	.loc 1 5043 0
	leal	-64(%ebp), %edi
	movl	$.LC0, %esi
	movl	$9, %ecx
	rep movsl
	.loc 1 5048 0
	movl	%eax, -36(%ebp)
	.loc 1 5049 0
	xorl	%eax, %eax
	cmpl	$0, 16(%ebx)
	setne	%al
	.loc 1 5052 0
	cmpb	$1, 20(%ebx)
	.loc 1 5049 0
	movl	%eax, -44(%ebp)
	.loc 1 5051 0
	movl	20(%ebp), %eax
	movb	%al, -32(%ebp)
	.loc 1 5052 0
	sbbl	%eax, %eax
	notl	%eax
	andl	$14, %eax
	movl	%eax, -40(%ebp)
	.loc 1 5053 0
	movl	12(%ebx), %eax
	movl	%eax, -56(%ebp)
	.loc 1 5054 0
	movl	8(%ebx), %eax
	movl	%eax, -52(%ebp)
	.loc 1 5055 0
	movl	(%ebx), %eax
	movl	%eax, -60(%ebp)
	.loc 1 5056 0
	movl	4(%ebx), %eax
	.loc 1 5057 0
	pushl	%edx
	pushl	$uart_event_handler
	.loc 1 5056 0
	movl	%eax, -64(%ebp)
	.loc 1 5057 0
	leal	-64(%ebp), %eax
	pushl	%eax
	pushl	$app_uart_inst
	call	nrf_drv_uart_init
.LVL14:
	.loc 1 5058 0
	addl	$16, %esp
	testl	%eax, %eax
	jne	.L12
	.loc 1 5062 0
	cmpl	$-1, (%ebx)
	.loc 1 5059 0
	movb	$0, m_rx_ovf
	.loc 1 5062 0
	je	.L12
	.loc 1 5064 0
	cmpb	$0, -31(%ebp)
	jne	.L14
	.loc 1 5066 0
	subl	$12, %esp
	pushl	$app_uart_inst
	call	nrf_drv_uart_rx_enable
.LVL15:
	addl	$16, %esp
.L14:
	.loc 1 5068 0
	pushl	%eax
	pushl	$1
	pushl	$rx_buffer
	pushl	$app_uart_inst
	call	nrf_drv_uart_rx
.LVL16:
	addl	$16, %esp
.L12:
	.loc 1 5074 0
	movl	-28(%ebp), %ecx
	xorl	%gs:20, %ecx
	je	.L15
	call	__stack_chk_fail
.LVL17:
.L15:
	leal	-12(%ebp), %esp
	popl	%ebx
	.cfi_restore 3
	popl	%esi
	.cfi_restore 6
	popl	%edi
	.cfi_restore 7
	popl	%ebp
	.cfi_restore 5
	.cfi_def_cfa 4, 4
	ret
	.cfi_endproc
.LFE209:
	.size	app_uart_init, .-app_uart_init
	.section	.text.unlikely.app_uart_init
.LCOLDE3:
	.section	.text.app_uart_init
.LHOTE3:
	.section	.text.unlikely.app_uart_flush,"ax",@progbits
.LCOLDB4:
	.section	.text.app_uart_flush,"ax",@progbits
.LHOTB4:
	.globl	app_uart_flush
	.type	app_uart_flush, @function
app_uart_flush:
.LFB210:
	.loc 1 5076 0
	.cfi_startproc
	pushl	%ebp
	.cfi_def_cfa_offset 8
	.cfi_offset 5, -8
	movl	%esp, %ebp
	.cfi_def_cfa_register 5
	subl	$20, %esp
	.loc 1 5078 0
	pushl	$m_rx_fifo
	call	app_fifo_flush
.LVL18:
	.loc 1 5079 0
	addl	$16, %esp
	testl	%eax, %eax
	jne	.L26
	.loc 1 5080 0
	subl	$12, %esp
	pushl	$m_tx_fifo
	call	app_fifo_flush
.LVL19:
	addl	$16, %esp
.L26:
	.loc 1 5083 0
	leave
	.cfi_restore 5
	.cfi_def_cfa 4, 4
	ret
	.cfi_endproc
.LFE210:
	.size	app_uart_flush, .-app_uart_flush
	.section	.text.unlikely.app_uart_flush
.LCOLDE4:
	.section	.text.app_uart_flush
.LHOTE4:
	.section	.text.unlikely.app_uart_get,"ax",@progbits
.LCOLDB5:
	.section	.text.app_uart_get,"ax",@progbits
.LHOTB5:
	.globl	app_uart_get
	.type	app_uart_get, @function
app_uart_get:
.LFB211:
	.loc 1 5085 0
	.cfi_startproc
.LVL20:
	pushl	%ebp
	.cfi_def_cfa_offset 8
	.cfi_offset 5, -8
	movl	%esp, %ebp
	.cfi_def_cfa_register 5
	pushl	%esi
	pushl	%ebx
	.cfi_offset 6, -12
	.cfi_offset 3, -16
	.loc 1 5088 0
	movb	m_rx_ovf, %bl
.LVL21:
	.loc 1 5089 0
	pushl	%edx
	pushl	%edx
	pushl	8(%ebp)
	pushl	$m_rx_fifo
	call	app_fifo_get
.LVL22:
	.loc 1 5090 0
	addl	$16, %esp
	testb	%bl, %bl
	.loc 1 5089 0
	movl	%eax, %esi
.LVL23:
	.loc 1 5090 0
	je	.L31
.LVL24:
.LBB6:
	.loc 1 5095 0
	pushl	%eax
	pushl	$1
	pushl	$rx_buffer
	pushl	$app_uart_inst
	.loc 1 5092 0
	movb	$0, m_rx_ovf
	.loc 1 5095 0
	call	nrf_drv_uart_rx
.LVL25:
.LBB7:
	.loc 1 5096 0
	addl	$16, %esp
	testl	%eax, %eax
	je	.L31
	.loc 1 5096 0 is_stmt 0 discriminator 1
	subl	$12, %esp
	pushl	%eax
	call	app_error_handler_bare
.LVL26:
	addl	$16, %esp
.L31:
.LBE7:
.LBE6:
	.loc 1 5099 0 is_stmt 1
	leal	-8(%ebp), %esp
	movl	%esi, %eax
	popl	%ebx
	.cfi_restore 3
.LVL27:
	popl	%esi
	.cfi_restore 6
.LVL28:
	popl	%ebp
	.cfi_restore 5
	.cfi_def_cfa 4, 4
	ret
	.cfi_endproc
.LFE211:
	.size	app_uart_get, .-app_uart_get
	.section	.text.unlikely.app_uart_get
.LCOLDE5:
	.section	.text.app_uart_get
.LHOTE5:
	.section	.text.unlikely.app_uart_put,"ax",@progbits
.LCOLDB6:
	.section	.text.app_uart_put,"ax",@progbits
.LHOTB6:
	.globl	app_uart_put
	.type	app_uart_put, @function
app_uart_put:
.LFB212:
	.loc 1 5101 0
	.cfi_startproc
.LVL29:
	pushl	%ebp
	.cfi_def_cfa_offset 8
	.cfi_offset 5, -8
	movl	%esp, %ebp
	.cfi_def_cfa_register 5
	pushl	%ebx
	subl	$12, %esp
	.cfi_offset 3, -12
	.loc 1 5103 0
	movzbl	8(%ebp), %eax
	pushl	%eax
	pushl	$m_tx_fifo
	call	app_fifo_put
.LVL30:
	.loc 1 5104 0
	addl	$16, %esp
	testl	%eax, %eax
	.loc 1 5103 0
	movl	%eax, %ebx
.LVL31:
	.loc 1 5104 0
	jne	.L38
	.loc 1 5106 0
	subl	$12, %esp
	pushl	$app_uart_inst
	call	nrf_drv_uart_tx_in_progress
.LVL32:
	addl	$16, %esp
	testb	%al, %al
	jne	.L38
	.loc 1 5108 0
	pushl	%edx
	pushl	%edx
	pushl	$tx_buffer
	pushl	$m_tx_fifo
	call	app_fifo_get
.LVL33:
	addl	$16, %esp
	testl	%eax, %eax
	jne	.L38
	.loc 1 5110 0
	pushl	%eax
	pushl	$1
	pushl	$tx_buffer
	pushl	$app_uart_inst
	call	nrf_drv_uart_tx
.LVL34:
	addl	$16, %esp
	movl	%eax, %ebx
.LVL35:
.L38:
	.loc 1 5115 0
	movl	%ebx, %eax
	movl	-4(%ebp), %ebx
.LVL36:
	leave
	.cfi_restore 5
	.cfi_restore 3
	.cfi_def_cfa 4, 4
	ret
	.cfi_endproc
.LFE212:
	.size	app_uart_put, .-app_uart_put
	.section	.text.unlikely.app_uart_put
.LCOLDE6:
	.section	.text.app_uart_put
.LHOTE6:
	.section	.text.unlikely.app_uart_putall,"ax",@progbits
.LCOLDB7:
	.section	.text.app_uart_putall,"ax",@progbits
.LHOTB7:
	.globl	app_uart_putall
	.type	app_uart_putall, @function
app_uart_putall:
.LFB213:
	.loc 1 5117 0
	.cfi_startproc
	pushl	%ebp
	.cfi_def_cfa_offset 8
	.cfi_offset 5, -8
	movl	%esp, %ebp
	.cfi_def_cfa_register 5
	pushl	%ebx
	.cfi_offset 3, -12
	.loc 1 5119 0
	xorl	%ebx, %ebx
	.loc 1 5117 0
	subl	$16, %esp
	.loc 1 5121 0
	pushl	$app_uart_inst
	call	nrf_drv_uart_tx_in_progress
.LVL37:
	addl	$16, %esp
	testb	%al, %al
	jne	.L43
	.loc 1 5123 0
	pushl	%edx
	pushl	%edx
	pushl	$tx_buffer
	pushl	$m_tx_fifo
	call	app_fifo_get
.LVL38:
	addl	$16, %esp
	testl	%eax, %eax
	jne	.L43
.LBB10:
.LBB11:
	.loc 1 5125 0
	pushl	%eax
	pushl	$1
	pushl	$tx_buffer
	pushl	$app_uart_inst
	call	nrf_drv_uart_tx
.LVL39:
	addl	$16, %esp
	movl	%eax, %ebx
.L43:
.LVL40:
.LBE11:
.LBE10:
	.loc 1 5130 0
	movl	%ebx, %eax
	movl	-4(%ebp), %ebx
.LVL41:
	leave
	.cfi_restore 5
	.cfi_restore 3
	.cfi_def_cfa 4, 4
	ret
	.cfi_endproc
.LFE213:
	.size	app_uart_putall, .-app_uart_putall
	.section	.text.unlikely.app_uart_putall
.LCOLDE7:
	.section	.text.app_uart_putall
.LHOTE7:
	.section	.text.unlikely.app_uart_close,"ax",@progbits
.LCOLDB8:
	.section	.text.app_uart_close,"ax",@progbits
.LHOTB8:
	.globl	app_uart_close
	.type	app_uart_close, @function
app_uart_close:
.LFB214:
	.loc 1 5132 0
	.cfi_startproc
	pushl	%ebp
	.cfi_def_cfa_offset 8
	.cfi_offset 5, -8
	movl	%esp, %ebp
	.cfi_def_cfa_register 5
	subl	$20, %esp
	.loc 1 5133 0
	pushl	$app_uart_inst
	call	nrf_drv_uart_uninit
.LVL42:
	.loc 1 5135 0
	xorl	%eax, %eax
	leave
	.cfi_restore 5
	.cfi_def_cfa 4, 4
	ret
	.cfi_endproc
.LFE214:
	.size	app_uart_close, .-app_uart_close
	.section	.text.unlikely.app_uart_close
.LCOLDE8:
	.section	.text.app_uart_close
.LHOTE8:
	.section	.text.unlikely.hal_uart_recv,"ax",@progbits
.LCOLDB9:
	.section	.text.hal_uart_recv,"ax",@progbits
.LHOTB9:
	.globl	hal_uart_recv
	.type	hal_uart_recv, @function
hal_uart_recv:
.LFB215:
	.loc 1 5137 0
	.cfi_startproc
.LVL43:
	pushl	%ebp
	.cfi_def_cfa_offset 8
	.cfi_offset 5, -8
	movl	%esp, %ebp
	.cfi_def_cfa_register 5
	pushl	%edi
	pushl	%esi
	pushl	%ebx
	subl	$28, %esp
	.cfi_offset 7, -12
	.cfi_offset 6, -16
	.cfi_offset 3, -20
	.loc 1 5137 0
	movl	12(%ebp), %esi
	movl	%gs:20, %eax
	movl	%eax, -28(%ebp)
	xorl	%eax, %eax
.LVL44:
	orl	$-1, %eax
	.loc 1 5143 0
	testl	%esi, %esi
	je	.L50
	.loc 1 5150 0
	leal	-32(%ebp), %edi
	.loc 1 5143 0
	xorl	%ebx, %ebx
.LVL45:
.L51:
	.loc 1 5148 0 discriminator 1
	cmpl	16(%ebp), %ebx
	je	.L53
	.loc 1 5150 0
	leal	(%esi,%ebx), %eax
	subl	$12, %esp
	pushl	%edi
	pushl	%eax
	pushl	$-1
	pushl	$-1
	pushl	$g_buf_queue_uart
	call	krhino_buf_queue_recv
.LVL46:
	.loc 1 5151 0
	addl	$32, %esp
	testl	%eax, %eax
	je	.L52
.LVL47:
.L53:
	.loc 1 5158 0
	xorl	%eax, %eax
	testl	%ebx, %ebx
	sete	%al
	negl	%eax
	jmp	.L50
.LVL48:
.L52:
	.loc 1 5151 0 discriminator 1
	cmpl	$1, -32(%ebp)
	jne	.L53
.LVL49:
	.loc 1 5148 0 discriminator 2
	incl	%ebx
.LVL50:
	jmp	.L51
.LVL51:
.L50:
	.loc 1 5167 0
	movl	-28(%ebp), %edx
	xorl	%gs:20, %edx
	je	.L55
	call	__stack_chk_fail
.LVL52:
.L55:
	leal	-12(%ebp), %esp
	popl	%ebx
	.cfi_restore 3
	popl	%esi
	.cfi_restore 6
.LVL53:
	popl	%edi
	.cfi_restore 7
	popl	%ebp
	.cfi_restore 5
	.cfi_def_cfa 4, 4
	ret
	.cfi_endproc
.LFE215:
	.size	hal_uart_recv, .-hal_uart_recv
	.section	.text.unlikely.hal_uart_recv
.LCOLDE9:
	.section	.text.hal_uart_recv
.LHOTE9:
	.section	.text.unlikely.hal_uart_recv_II,"ax",@progbits
.LCOLDB10:
	.section	.text.hal_uart_recv_II,"ax",@progbits
.LHOTB10:
	.globl	hal_uart_recv_II
	.type	hal_uart_recv_II, @function
hal_uart_recv_II:
.LFB216:
	.loc 1 5170 0
	.cfi_startproc
.LVL54:
	pushl	%ebp
	.cfi_def_cfa_offset 8
	.cfi_offset 5, -8
	movl	%esp, %ebp
	.cfi_def_cfa_register 5
	pushl	%edi
	pushl	%esi
	pushl	%ebx
	subl	$44, %esp
	.cfi_offset 7, -12
	.cfi_offset 6, -16
	.cfi_offset 3, -20
	.loc 1 5170 0
	movl	12(%ebp), %edi
	movl	20(%ebp), %esi
	movl	%gs:20, %eax
	movl	%eax, -28(%ebp)
	xorl	%eax, %eax
.LVL55:
	orl	$-1, %eax
	.loc 1 5176 0
	testl	%edi, %edi
	je	.L60
	.loc 1 5183 0
	leal	-32(%ebp), %edx
	.loc 1 5176 0
	xorl	%ebx, %ebx
.LVL56:
.L61:
	.loc 1 5181 0 discriminator 1
	cmpl	16(%ebp), %ebx
	je	.L65
	.loc 1 5183 0
	leal	(%edi,%ebx), %eax
	subl	$12, %esp
	movl	%edx, -44(%ebp)
	pushl	%edx
	pushl	%eax
	pushl	$-1
	pushl	$-1
	pushl	$g_buf_queue_uart
	call	krhino_buf_queue_recv
.LVL57:
	.loc 1 5184 0
	addl	$32, %esp
	testl	%eax, %eax
	movl	-44(%ebp), %edx
	je	.L62
.LVL58:
.L65:
	.loc 1 5191 0
	testl	%esi, %esi
	je	.L64
	.loc 1 5192 0
	movl	%ebx, (%esi)
	jmp	.L64
.LVL59:
.L62:
	.loc 1 5184 0 discriminator 1
	cmpl	$1, -32(%ebp)
	jne	.L65
.LVL60:
	.loc 1 5181 0 discriminator 2
	incl	%ebx
.LVL61:
	jmp	.L61
.LVL62:
.L64:
	.loc 1 5193 0
	xorl	%eax, %eax
	testl	%ebx, %ebx
	sete	%al
	negl	%eax
.LVL63:
.L60:
	.loc 1 5202 0
	movl	-28(%ebp), %ecx
	xorl	%gs:20, %ecx
	je	.L67
	call	__stack_chk_fail
.LVL64:
.L67:
	leal	-12(%ebp), %esp
	popl	%ebx
	.cfi_restore 3
	popl	%esi
	.cfi_restore 6
	popl	%edi
	.cfi_restore 7
.LVL65:
	popl	%ebp
	.cfi_restore 5
	.cfi_def_cfa 4, 4
	ret
	.cfi_endproc
.LFE216:
	.size	hal_uart_recv_II, .-hal_uart_recv_II
	.section	.text.unlikely.hal_uart_recv_II
.LCOLDE10:
	.section	.text.hal_uart_recv_II
.LHOTE10:
	.section	.text.unlikely.hal_uart_send,"ax",@progbits
.LCOLDB11:
	.section	.text.hal_uart_send,"ax",@progbits
.LHOTB11:
	.globl	hal_uart_send
	.type	hal_uart_send, @function
hal_uart_send:
.LFB217:
	.loc 1 5204 0
	.cfi_startproc
.LVL66:
	pushl	%ebp
	.cfi_def_cfa_offset 8
	.cfi_offset 5, -8
	movl	%esp, %ebp
	.cfi_def_cfa_register 5
.LVL67:
	pushl	%edi
	pushl	%esi
	pushl	%ebx
	subl	$12, %esp
	.cfi_offset 7, -12
	.cfi_offset 6, -16
	.cfi_offset 3, -20
	movl	12(%ebp), %ebx
	movl	16(%ebp), %edi
	addl	%ebx, %edi
.LVL68:
.L72:
	.loc 1 5208 0 discriminator 1
	cmpl	%edi, %ebx
	je	.L75
.LVL69:
	.loc 1 5211 0 discriminator 3
	pushl	%eax
.LVL70:
	pushl	%eax
	incl	%ebx
.LVL71:
	movzbl	-1(%ebx), %eax
	pushl	%eax
	pushl	$m_tx_fifo
	call	app_fifo_put
.LVL72:
	addl	$16, %esp
	orl	%eax, %esi
.LVL73:
	jmp	.L72
.LVL74:
.L75:
	.loc 1 5213 0
	call	app_uart_putall
.LVL75:
	.loc 1 5215 0
	leal	-12(%ebp), %esp
	movl	%esi, %eax
	popl	%ebx
	.cfi_restore 3
.LVL76:
	popl	%esi
	.cfi_restore 6
.LVL77:
	popl	%edi
	.cfi_restore 7
	popl	%ebp
	.cfi_restore 5
	.cfi_def_cfa 4, 4
	ret
	.cfi_endproc
.LFE217:
	.size	hal_uart_send, .-hal_uart_send
	.section	.text.unlikely.hal_uart_send
.LCOLDE11:
	.section	.text.hal_uart_send
.LHOTE11:
	.section	.bss.m_tx_fifo,"aw",@nobits
	.align 4
	.type	m_tx_fifo, @object
	.size	m_tx_fifo, 16
m_tx_fifo:
	.zero	16
	.section	.bss.m_rx_fifo,"aw",@nobits
	.align 4
	.type	m_rx_fifo, @object
	.size	m_rx_fifo, 16
m_rx_fifo:
	.zero	16
	.section	.bss.m_rx_ovf,"aw",@nobits
	.type	m_rx_ovf, @object
	.size	m_rx_ovf, 1
m_rx_ovf:
	.zero	1
	.section	.bss.rx_buffer,"aw",@nobits
	.type	rx_buffer, @object
	.size	rx_buffer, 1
rx_buffer:
	.zero	1
	.section	.bss.tx_buffer,"aw",@nobits
	.type	tx_buffer, @object
	.size	tx_buffer, 1
tx_buffer:
	.zero	1
	.section	.data.app_uart_inst,"aw",@progbits
	.align 4
	.type	app_uart_inst, @object
	.size	app_uart_inst, 8
app_uart_inst:
	.long	1073750016
	.byte	0
	.zero	3
	.globl	g_buf_uart
	.section	.bss.g_buf_uart,"aw",@nobits
	.align 32
	.type	g_buf_uart, @object
	.size	g_buf_uart, 256
g_buf_uart:
	.zero	256
	.globl	g_buf_queue_uart
	.section	.bss.g_buf_queue_uart,"aw",@nobits
	.align 32
	.type	g_buf_queue_uart, @object
	.size	g_buf_queue_uart, 80
g_buf_queue_uart:
	.zero	80
	.text
.Letext0:
	.section	.text.unlikely.uart_event_handler
.Letext_cold0:
	.section	.note.GNU-stack,"",@progbits
