	.file	"app_uart_fifo_multi_path.c"
	.text
.Ltext0:
	.section	.text.unlikely.app_uart_putall,"ax",@progbits
.LCOLDB0:
	.section	.text.app_uart_putall,"ax",@progbits
.LHOTB0:
	.section	.text.unlikely.app_uart_putall
.Ltext_cold0:
	.section	.text.app_uart_putall
	.globl	app_uart_putall
	.type	app_uart_putall, @function
app_uart_putall:
.LFB0:
	.file 1 "src/app_uart_fifo_multi_path.c"
	.loc 1 35 0
	.cfi_startproc
	pushl	%ebp
	.cfi_def_cfa_offset 8
	.cfi_offset 5, -8
	movl	%esp, %ebp
	.cfi_def_cfa_register 5
	pushl	%ebx
	.cfi_offset 3, -12
	.loc 1 37 0
	xorl	%ebx, %ebx
	.loc 1 35 0
	subl	$16, %esp
.LBB2:
	.loc 1 39 0
	pushl	$app_uart_inst
	call	nrf_drv_uart_tx_in_progress
.LVL0:
	addl	$16, %esp
	testl	%eax, %eax
	jne	.L2
.LBB3:
	.loc 1 41 0
	pushl	%edx
	pushl	%edx
	pushl	$tx_buffer
	pushl	$m_tx_fifo
	call	app_fifo_get
.LVL1:
	addl	$16, %esp
	testl	%eax, %eax
	jne	.L2
.LBB4:
	.loc 1 43 0
	pushl	%eax
	pushl	$1
	pushl	$tx_buffer
	pushl	$app_uart_inst
	call	nrf_drv_uart_tx
.LVL2:
	addl	$16, %esp
	movl	%eax, %ebx
.LVL3:
.L2:
.LBE4:
.LBE3:
.LBE2:
	.loc 1 48 0
	movl	%ebx, %eax
	movl	-4(%ebp), %ebx
.LVL4:
	leave
	.cfi_restore 5
	.cfi_restore 3
	.cfi_def_cfa 4, 4
	ret
	.cfi_endproc
.LFE0:
	.size	app_uart_putall, .-app_uart_putall
	.section	.text.unlikely.app_uart_putall
.LCOLDE0:
	.section	.text.app_uart_putall
.LHOTE0:
	.section	.bss.tx_buffer,"aw",@nobits
	.type	tx_buffer, @object
	.size	tx_buffer, 1
tx_buffer:
	.zero	1
	.section	.bss.m_tx_fifo,"aw",@nobits
	.align 4
	.type	m_tx_fifo, @object
	.size	m_tx_fifo, 8
m_tx_fifo:
	.zero	8
	.section	.data.app_uart_inst,"aw",@progbits
	.align 4
	.type	app_uart_inst, @object
	.size	app_uart_inst, 8
app_uart_inst:
	.long	1073750016
	.byte	0
	.zero	3
	.text
.Letext0:
	.section	.text.unlikely.app_uart_putall
.Letext_cold0:
	.section	.note.GNU-stack,"",@progbits
