	.file	"app_fifo.c"
	.text
.Ltext0:
	.section	.text.unlikely.app_fifo_init,"ax",@progbits
.LCOLDB0:
	.section	.text.app_fifo_init,"ax",@progbits
.LHOTB0:
	.section	.text.unlikely.app_fifo_init
.Ltext_cold0:
	.section	.text.app_fifo_init
	.globl	app_fifo_init
	.type	app_fifo_init, @function
app_fifo_init:
.LFB144:
	.file 1 "src/app_fifo.c"
	.loc 1 3086 0
	.cfi_startproc
.LVL0:
	pushl	%ebp
	.cfi_def_cfa_offset 8
	.cfi_offset 5, -8
	.loc 1 3091 0
	movl	$14, %eax
	.loc 1 3086 0
	movl	%esp, %ebp
	.cfi_def_cfa_register 5
	pushl	%edi
	pushl	%esi
	pushl	%ebx
	.cfi_offset 7, -12
	.cfi_offset 6, -16
	.cfi_offset 3, -20
	.loc 1 3086 0
	movl	12(%ebp), %ebx
	movl	8(%ebp), %ecx
	movl	16(%ebp), %edx
	.loc 1 3087 0
	testl	%ebx, %ebx
	je	.L2
	.loc 1 3093 0
	testw	%dx, %dx
	.loc 1 3095 0
	movl	$9, %eax
	.loc 1 3093 0
	je	.L2
	.loc 1 3093 0 is_stmt 0 discriminator 1
	movzwl	%dx, %esi
	leal	-1(%esi), %edi
	testl	%esi, %edi
	jne	.L2
	.loc 1 3098 0 is_stmt 1
	decl	%edx
	.loc 1 3099 0
	movl	$0, 8(%ecx)
	.loc 1 3097 0
	movl	%ebx, (%ecx)
	.loc 1 3098 0
	movw	%dx, 4(%ecx)
	.loc 1 3100 0
	movl	$0, 12(%ecx)
	.loc 1 3101 0
	xorl	%eax, %eax
.LVL1:
.L2:
	.loc 1 3102 0
	popl	%ebx
	.cfi_restore 3
.LVL2:
	popl	%esi
	.cfi_restore 6
	popl	%edi
	.cfi_restore 7
	popl	%ebp
	.cfi_restore 5
	.cfi_def_cfa 4, 4
	ret
	.cfi_endproc
.LFE144:
	.size	app_fifo_init, .-app_fifo_init
	.section	.text.unlikely.app_fifo_init
.LCOLDE0:
	.section	.text.app_fifo_init
.LHOTE0:
	.section	.text.unlikely.app_fifo_put,"ax",@progbits
.LCOLDB1:
	.section	.text.app_fifo_put,"ax",@progbits
.LHOTB1:
	.globl	app_fifo_put
	.type	app_fifo_put, @function
app_fifo_put:
.LFB145:
	.loc 1 3104 0
	.cfi_startproc
.LVL3:
	pushl	%ebp
	.cfi_def_cfa_offset 8
	.cfi_offset 5, -8
	movl	%esp, %ebp
	.cfi_def_cfa_register 5
	pushl	%esi
	pushl	%ebx
	.cfi_offset 6, -12
	.cfi_offset 3, -16
	.loc 1 3104 0
	movl	8(%ebp), %edx
.LVL4:
	movl	12(%ebp), %ebx
.LBB16:
.LBB17:
	.loc 1 3068 0
	movl	8(%edx), %eax
.LVL5:
.LBE17:
.LBE16:
	.loc 1 3105 0
	movzwl	4(%edx), %esi
.LBB19:
.LBB18:
	.loc 1 3069 0
	movl	12(%edx), %ecx
.LVL6:
.LBE18:
.LBE19:
	.loc 1 3105 0
	subl	%eax, %ecx
	movl	$4, %eax
	cmpl	%ecx, %esi
	jb	.L9
.LVL7:
.LBB20:
.LBB21:
	.loc 1 3073 0
	movl	12(%edx), %eax
	movl	(%edx), %ecx
	andl	%esi, %eax
	movb	%bl, (%ecx,%eax)
	.loc 1 3074 0
	movl	12(%edx), %eax
	incl	%eax
	movl	%eax, 12(%edx)
.LBE21:
.LBE20:
	.loc 1 3108 0
	xorl	%eax, %eax
.LVL8:
.L9:
	.loc 1 3111 0
	popl	%ebx
	.cfi_restore 3
	popl	%esi
	.cfi_restore 6
	popl	%ebp
	.cfi_restore 5
	.cfi_def_cfa 4, 4
	ret
	.cfi_endproc
.LFE145:
	.size	app_fifo_put, .-app_fifo_put
	.section	.text.unlikely.app_fifo_put
.LCOLDE1:
	.section	.text.app_fifo_put
.LHOTE1:
	.section	.text.unlikely.app_fifo_get,"ax",@progbits
.LCOLDB2:
	.section	.text.app_fifo_get,"ax",@progbits
.LHOTB2:
	.globl	app_fifo_get
	.type	app_fifo_get, @function
app_fifo_get:
.LFB146:
	.loc 1 3113 0
	.cfi_startproc
.LVL9:
	pushl	%ebp
	.cfi_def_cfa_offset 8
	.cfi_offset 5, -8
	movl	$5, %eax
	movl	%esp, %ebp
	.cfi_def_cfa_register 5
	pushl	%ebx
	.cfi_offset 3, -12
	.loc 1 3113 0
	movl	8(%ebp), %edx
.LVL10:
.LBB28:
.LBB29:
	.loc 1 3068 0
	movl	8(%edx), %ebx
.LVL11:
	.loc 1 3069 0
	movl	12(%edx), %ecx
.LVL12:
.LBE29:
.LBE28:
	.loc 1 3114 0
	cmpl	%ecx, %ebx
	je	.L14
.LVL13:
.LBB30:
.LBB31:
.LBB32:
.LBB33:
	.loc 1 3078 0
	movzwl	4(%edx), %ecx
	movl	8(%edx), %eax
	andl	%ecx, %eax
	movl	(%edx), %ecx
	movb	(%ecx,%eax), %cl
	movl	12(%ebp), %eax
	movb	%cl, (%eax)
.LVL14:
.LBE33:
.LBE32:
	.loc 1 3083 0
	movl	8(%edx), %eax
	incl	%eax
	movl	%eax, 8(%edx)
.LBE31:
.LBE30:
	.loc 1 3117 0
	xorl	%eax, %eax
.LVL15:
.L14:
	.loc 1 3120 0
	popl	%ebx
	.cfi_restore 3
	popl	%ebp
	.cfi_restore 5
	.cfi_def_cfa 4, 4
	ret
	.cfi_endproc
.LFE146:
	.size	app_fifo_get, .-app_fifo_get
	.section	.text.unlikely.app_fifo_get
.LCOLDE2:
	.section	.text.app_fifo_get
.LHOTE2:
	.section	.text.unlikely.app_fifo_peek,"ax",@progbits
.LCOLDB3:
	.section	.text.app_fifo_peek,"ax",@progbits
.LHOTB3:
	.globl	app_fifo_peek
	.type	app_fifo_peek, @function
app_fifo_peek:
.LFB147:
	.loc 1 3122 0
	.cfi_startproc
.LVL16:
	pushl	%ebp
	.cfi_def_cfa_offset 8
	.cfi_offset 5, -8
	movl	%esp, %ebp
	.cfi_def_cfa_register 5
	pushl	%ebx
	.cfi_offset 3, -12
	.loc 1 3122 0
	movl	8(%ebp), %edx
.LVL17:
	.loc 1 3123 0
	movzwl	12(%ebp), %ecx
.LBB38:
.LBB39:
	.loc 1 3068 0
	movl	8(%edx), %eax
.LVL18:
	.loc 1 3069 0
	movl	12(%edx), %ebx
.LVL19:
.LBE39:
.LBE38:
	.loc 1 3123 0
	subl	%eax, %ebx
	movl	$5, %eax
	cmpl	%ebx, %ecx
	jnb	.L19
.LVL20:
.LBB40:
.LBB41:
	.loc 1 3078 0
	movl	8(%edx), %eax
	addl	%eax, %ecx
	movzwl	4(%edx), %eax
	movl	(%edx), %edx
	andl	%ecx, %eax
	movb	(%edx,%eax), %dl
	movl	16(%ebp), %eax
	movb	%dl, (%eax)
.LBE41:
.LBE40:
	.loc 1 3126 0
	xorl	%eax, %eax
.LVL21:
.L19:
	.loc 1 3129 0
	popl	%ebx
	.cfi_restore 3
	popl	%ebp
	.cfi_restore 5
	.cfi_def_cfa 4, 4
	ret
	.cfi_endproc
.LFE147:
	.size	app_fifo_peek, .-app_fifo_peek
	.section	.text.unlikely.app_fifo_peek
.LCOLDE3:
	.section	.text.app_fifo_peek
.LHOTE3:
	.section	.text.unlikely.app_fifo_flush,"ax",@progbits
.LCOLDB4:
	.section	.text.app_fifo_flush,"ax",@progbits
.LHOTB4:
	.globl	app_fifo_flush
	.type	app_fifo_flush, @function
app_fifo_flush:
.LFB148:
	.loc 1 3131 0
	.cfi_startproc
.LVL22:
	pushl	%ebp
	.cfi_def_cfa_offset 8
	.cfi_offset 5, -8
	movl	%esp, %ebp
	.cfi_def_cfa_register 5
	.loc 1 3131 0
	movl	8(%ebp), %eax
	.loc 1 3132 0
	movl	12(%eax), %edx
	movl	%edx, 8(%eax)
	.loc 1 3134 0
	xorl	%eax, %eax
	popl	%ebp
	.cfi_restore 5
	.cfi_def_cfa 4, 4
	ret
	.cfi_endproc
.LFE148:
	.size	app_fifo_flush, .-app_fifo_flush
	.section	.text.unlikely.app_fifo_flush
.LCOLDE4:
	.section	.text.app_fifo_flush
.LHOTE4:
	.section	.text.unlikely.app_fifo_read,"ax",@progbits
.LCOLDB5:
	.section	.text.app_fifo_read,"ax",@progbits
.LHOTB5:
	.globl	app_fifo_read
	.type	app_fifo_read, @function
app_fifo_read:
.LFB149:
	.loc 1 3136 0
	.cfi_startproc
.LVL23:
	pushl	%ebp
	.cfi_def_cfa_offset 8
	.cfi_offset 5, -8
	movl	%esp, %ebp
	.cfi_def_cfa_register 5
	pushl	%edi
	pushl	%esi
	pushl	%ebx
	pushl	%ecx
	.cfi_offset 7, -12
	.cfi_offset 6, -16
	.cfi_offset 3, -20
	.loc 1 3136 0
	movl	16(%ebp), %ecx
	movl	8(%ebp), %edx
	.loc 1 3140 0
	testl	%ecx, %ecx
	je	.L29
	testl	%edx, %edx
	je	.L29
.LVL24:
.LBB48:
.LBB49:
	.loc 1 3068 0
	movl	8(%edx), %eax
.LVL25:
	.loc 1 3069 0
	movl	12(%edx), %ebx
.LBE49:
.LBE48:
	.loc 1 3144 0
	movl	(%ecx), %esi
.LBB51:
.LBB50:
	.loc 1 3069 0
	subl	%eax, %ebx
.LVL26:
.LBE50:
.LBE51:
	.loc 1 3150 0
	movl	$5, %eax
	.loc 1 3148 0
	testl	%ebx, %ebx
	.loc 1 3147 0
	movl	%ebx, (%ecx)
	.loc 1 3148 0
	je	.L26
	.loc 1 3156 0
	xorl	%eax, %eax
	.loc 1 3152 0
	cmpl	$0, 12(%ebp)
	je	.L26
	.loc 1 3146 0
	cmpl	%ebx, %esi
	cmovbe	%esi, %ebx
.LVL27:
	movl	%ebx, -16(%ebp)
.LVL28:
.L27:
	.loc 1 3158 0
	cmpl	-16(%ebp), %eax
	je	.L34
.LBB52:
.LBB53:
.LBB54:
.LBB55:
	.loc 1 3078 0
	movzwl	4(%edx), %edi
	movl	8(%edx), %esi
.LBE55:
.LBE54:
.LBE53:
.LBE52:
	.loc 1 3160 0
	incl	%eax
.LVL29:
.LBB59:
.LBB58:
.LBB57:
.LBB56:
	.loc 1 3078 0
	andl	%edi, %esi
	movl	(%edx), %edi
	movb	(%edi,%esi), %bl
	movl	12(%ebp), %edi
	movb	%bl, -1(%edi,%eax)
.LVL30:
.LBE56:
.LBE57:
	.loc 1 3083 0
	movl	8(%edx), %esi
	incl	%esi
	movl	%esi, 8(%edx)
	jmp	.L27
.LVL31:
.L34:
.LBE58:
.LBE59:
	.loc 1 3162 0
	movl	%eax, (%ecx)
	.loc 1 3163 0
	xorl	%eax, %eax
.LVL32:
	jmp	.L26
.LVL33:
.L29:
	.loc 1 3142 0
	movl	$14, %eax
.L26:
	.loc 1 3164 0
	popl	%edx
	popl	%ebx
	.cfi_restore 3
	popl	%esi
	.cfi_restore 6
	popl	%edi
	.cfi_restore 7
	popl	%ebp
	.cfi_restore 5
	.cfi_def_cfa 4, 4
	ret
	.cfi_endproc
.LFE149:
	.size	app_fifo_read, .-app_fifo_read
	.section	.text.unlikely.app_fifo_read
.LCOLDE5:
	.section	.text.app_fifo_read
.LHOTE5:
	.section	.text.unlikely.app_fifo_write,"ax",@progbits
.LCOLDB6:
	.section	.text.app_fifo_write,"ax",@progbits
.LHOTB6:
	.globl	app_fifo_write
	.type	app_fifo_write, @function
app_fifo_write:
.LFB150:
	.loc 1 3166 0
	.cfi_startproc
.LVL34:
	pushl	%ebp
	.cfi_def_cfa_offset 8
	.cfi_offset 5, -8
	movl	%esp, %ebp
	.cfi_def_cfa_register 5
	pushl	%edi
	pushl	%esi
	pushl	%ebx
	subl	$8, %esp
	.cfi_offset 7, -12
	.cfi_offset 6, -16
	.cfi_offset 3, -20
	.loc 1 3166 0
	movl	16(%ebp), %eax
	movl	8(%ebp), %edx
	movl	12(%ebp), %esi
	.loc 1 3170 0
	testl	%eax, %eax
	.loc 1 3166 0
	movl	%eax, -16(%ebp)
	.loc 1 3170 0
	je	.L39
	testl	%edx, %edx
	je	.L39
.LVL35:
.LBB64:
.LBB65:
	.loc 1 3068 0
	movl	8(%edx), %eax
.LVL36:
.LBE65:
.LBE64:
	.loc 1 3173 0
	movzwl	4(%edx), %ebx
.LBB67:
.LBB66:
	.loc 1 3069 0
	movl	12(%edx), %edi
.LVL37:
.LBE66:
.LBE67:
	.loc 1 3173 0
	subl	%edi, %eax
	leal	1(%eax,%ebx), %ebx
.LVL38:
	.loc 1 3174 0
	movl	-16(%ebp), %eax
	.loc 1 3178 0
	testl	%ebx, %ebx
	.loc 1 3174 0
	movl	(%eax), %edi
.LVL39:
	.loc 1 3177 0
	movl	%ebx, (%eax)
	.loc 1 3180 0
	movl	$4, %eax
	.loc 1 3178 0
	je	.L36
	.loc 1 3186 0
	xorl	%eax, %eax
	.loc 1 3182 0
	testl	%esi, %esi
	je	.L36
	.loc 1 3176 0
	cmpl	%edi, %ebx
	cmovbe	%ebx, %edi
.LVL40:
	movl	%edi, -20(%ebp)
.LVL41:
.L37:
	.loc 1 3188 0
	cmpl	-20(%ebp), %eax
	je	.L44
.LBB68:
.LBB69:
	.loc 1 3073 0
	movzwl	4(%edx), %edi
	movl	12(%edx), %ebx
.LBE69:
.LBE68:
	.loc 1 3190 0
	incl	%eax
.LVL42:
.LBB71:
.LBB70:
	.loc 1 3073 0
	movb	-1(%esi,%eax), %cl
	andl	%edi, %ebx
	movl	(%edx), %edi
	movb	%cl, (%edi,%ebx)
.LVL43:
	.loc 1 3074 0
	movl	12(%edx), %ebx
	incl	%ebx
	movl	%ebx, 12(%edx)
	jmp	.L37
.LVL44:
.L44:
.LBE70:
.LBE71:
	.loc 1 3192 0
	movl	-16(%ebp), %ecx
	movl	%eax, (%ecx)
	.loc 1 3193 0
	xorl	%eax, %eax
.LVL45:
	jmp	.L36
.LVL46:
.L39:
	.loc 1 3172 0
	movl	$14, %eax
.L36:
	.loc 1 3194 0
	popl	%edx
	popl	%ecx
	popl	%ebx
	.cfi_restore 3
	popl	%esi
	.cfi_restore 6
	popl	%edi
	.cfi_restore 7
	popl	%ebp
	.cfi_restore 5
	.cfi_def_cfa 4, 4
	ret
	.cfi_endproc
.LFE150:
	.size	app_fifo_write, .-app_fifo_write
	.section	.text.unlikely.app_fifo_write
.LCOLDE6:
	.section	.text.app_fifo_write
.LHOTE6:
	.text
.Letext0:
	.section	.text.unlikely.app_fifo_init
.Letext_cold0:
	.section	.note.GNU-stack,"",@progbits
