	.file	"asm.c"
	.text
.Ltext0:
	.section	.text.unlikely.asm_add,"ax",@progbits
.LCOLDB0:
	.section	.text.asm_add,"ax",@progbits
.LHOTB0:
	.section	.text.unlikely.asm_add
.Ltext_cold0:
	.section	.text.asm_add
	.globl	asm_add
	.type	asm_add, @function
asm_add:
.LFB0:
	.file 1 "src/asm.c"
	.loc 1 1 0
	.cfi_startproc
.LVL0:
	pushl	%ebp
	.cfi_def_cfa_offset 8
	.cfi_offset 5, -8
	.loc 1 4 0
	xorl	%edx, %edx
	.loc 1 1 0
	movl	%esp, %ebp
	.cfi_def_cfa_register 5
.LVL1:
	.loc 1 4 0
	movl	8(%ebp), %eax
	.loc 1 6 0
	popl	%ebp
	.cfi_restore 5
	.cfi_def_cfa 4, 4
	.loc 1 4 0
#APP
# 4 "src/asm.c" 1
	add %edx, %eax

# 0 "" 2
.LVL2:
	.loc 1 6 0
#NO_APP
	ret
	.cfi_endproc
.LFE0:
	.size	asm_add, .-asm_add
	.section	.text.unlikely.asm_add
.LCOLDE0:
	.section	.text.asm_add
.LHOTE0:
	.section	.text.unlikely.asm_deref,"ax",@progbits
.LCOLDB1:
	.section	.text.asm_deref,"ax",@progbits
.LHOTB1:
	.globl	asm_deref
	.type	asm_deref, @function
asm_deref:
.LFB1:
	.loc 1 8 0
	.cfi_startproc
.LVL3:
	pushl	%ebp
	.cfi_def_cfa_offset 8
	.cfi_offset 5, -8
	movl	%esp, %ebp
	.cfi_def_cfa_register 5
	.loc 1 10 0
	movl	8(%ebp), %eax
	.loc 1 12 0
	popl	%ebp
	.cfi_restore 5
	.cfi_def_cfa 4, 4
	.loc 1 10 0
#APP
# 10 "src/asm.c" 1
	mov (%eax), %eax
# 0 "" 2
.LVL4:
	.loc 1 12 0
#NO_APP
	ret
	.cfi_endproc
.LFE1:
	.size	asm_deref, .-asm_deref
	.section	.text.unlikely.asm_deref
.LCOLDE1:
	.section	.text.asm_deref
.LHOTE1:
	.section	.text.unlikely.foo,"ax",@progbits
.LCOLDB2:
	.section	.text.foo,"ax",@progbits
.LHOTB2:
	.globl	foo
	.type	foo, @function
foo:
.LFB2:
	.loc 1 14 0
	.cfi_startproc
.LVL5:
	pushl	%ebp
	.cfi_def_cfa_offset 8
	.cfi_offset 5, -8
.LBB4:
.LBB5:
	.loc 1 10 0
#APP
# 10 "src/asm.c" 1
	mov ($0), %eax
# 0 "" 2
.LVL6:
#NO_APP
.LBE5:
.LBE4:
	.loc 1 14 0
	movl	%esp, %ebp
	.cfi_def_cfa_register 5
	.loc 1 16 0
	popl	%ebp
	.cfi_restore 5
	.cfi_def_cfa 4, 4
	ret
	.cfi_endproc
.LFE2:
	.size	foo, .-foo
	.section	.text.unlikely.foo
.LCOLDE2:
	.section	.text.foo
.LHOTE2:
	.text
.Letext0:
	.section	.text.unlikely.asm_add
.Letext_cold0:
	.section	.note.GNU-stack,"",@progbits
