	.file	"atomic_c.c"
	.text
.Ltext0:
	.section	.text.unlikely.atomic_cas,"ax",@progbits
.LCOLDB0:
	.section	.text.atomic_cas,"ax",@progbits
.LHOTB0:
	.section	.text.unlikely.atomic_cas
.Ltext_cold0:
	.section	.text.atomic_cas
	.globl	atomic_cas
	.type	atomic_cas, @function
atomic_cas:
.LFB5:
	.file 1 "src/atomic_c.c"
	.loc 1 49 0
	.cfi_startproc
.LVL0:
	pushl	%ebp
	.cfi_def_cfa_offset 8
	.cfi_offset 5, -8
	movl	%esp, %ebp
	.cfi_def_cfa_register 5
	pushl	%esi
	pushl	%ebx
	.cfi_offset 6, -12
	.cfi_offset 3, -16
	.loc 1 49 0
	movl	8(%ebp), %esi
	xorl	%ebx, %ebx
	.loc 1 52 0
	call	irq_lock
.LVL1:
	.loc 1 53 0
	movl	12(%ebp), %ecx
	cmpl	%ecx, (%esi)
	jne	.L2
	.loc 1 54 0
	movl	16(%ebp), %edx
	.loc 1 55 0
	movl	$1, %ebx
	.loc 1 54 0
	movl	%edx, (%esi)
.LVL2:
.L2:
	.loc 1 57 0
	subl	$12, %esp
	pushl	%eax
	call	irq_unlock
.LVL3:
	.loc 1 59 0
	leal	-8(%ebp), %esp
	movl	%ebx, %eax
	popl	%ebx
	.cfi_restore 3
.LVL4:
	popl	%esi
	.cfi_restore 6
	popl	%ebp
	.cfi_restore 5
	.cfi_def_cfa 4, 4
	ret
	.cfi_endproc
.LFE5:
	.size	atomic_cas, .-atomic_cas
	.section	.text.unlikely.atomic_cas
.LCOLDE0:
	.section	.text.atomic_cas
.LHOTE0:
	.section	.text.unlikely.atomic_add,"ax",@progbits
.LCOLDB1:
	.section	.text.atomic_add,"ax",@progbits
.LHOTB1:
	.globl	atomic_add
	.type	atomic_add, @function
atomic_add:
.LFB6:
	.loc 1 61 0
	.cfi_startproc
.LVL5:
	pushl	%ebp
	.cfi_def_cfa_offset 8
	.cfi_offset 5, -8
	movl	%esp, %ebp
	.cfi_def_cfa_register 5
	pushl	%esi
	pushl	%ebx
	.cfi_offset 6, -12
	.cfi_offset 3, -16
	.loc 1 61 0
	movl	8(%ebp), %esi
	.loc 1 64 0
	call	irq_lock
.LVL6:
	.loc 1 66 0
	movl	12(%ebp), %edx
	.loc 1 67 0
	subl	$12, %esp
	.loc 1 65 0
	movl	(%esi), %ebx
.LVL7:
	.loc 1 66 0
	addl	%ebx, %edx
	movl	%edx, (%esi)
	.loc 1 67 0
	pushl	%eax
	call	irq_unlock
.LVL8:
	.loc 1 69 0
	leal	-8(%ebp), %esp
	movl	%ebx, %eax
	popl	%ebx
	.cfi_restore 3
.LVL9:
	popl	%esi
	.cfi_restore 6
	popl	%ebp
	.cfi_restore 5
	.cfi_def_cfa 4, 4
	ret
	.cfi_endproc
.LFE6:
	.size	atomic_add, .-atomic_add
	.section	.text.unlikely.atomic_add
.LCOLDE1:
	.section	.text.atomic_add
.LHOTE1:
	.section	.text.unlikely.atomic_sub,"ax",@progbits
.LCOLDB2:
	.section	.text.atomic_sub,"ax",@progbits
.LHOTB2:
	.globl	atomic_sub
	.type	atomic_sub, @function
atomic_sub:
.LFB7:
	.loc 1 71 0
	.cfi_startproc
.LVL10:
	pushl	%ebp
	.cfi_def_cfa_offset 8
	.cfi_offset 5, -8
	movl	%esp, %ebp
	.cfi_def_cfa_register 5
	pushl	%esi
	pushl	%ebx
	.cfi_offset 6, -12
	.cfi_offset 3, -16
	.loc 1 71 0
	movl	8(%ebp), %esi
	.loc 1 74 0
	call	irq_lock
.LVL11:
	.loc 1 77 0
	subl	$12, %esp
	.loc 1 75 0
	movl	(%esi), %ebx
.LVL12:
	.loc 1 76 0
	movl	%ebx, %edx
	subl	12(%ebp), %edx
	movl	%edx, (%esi)
	.loc 1 77 0
	pushl	%eax
	call	irq_unlock
.LVL13:
	.loc 1 79 0
	leal	-8(%ebp), %esp
	movl	%ebx, %eax
	popl	%ebx
	.cfi_restore 3
.LVL14:
	popl	%esi
	.cfi_restore 6
	popl	%ebp
	.cfi_restore 5
	.cfi_def_cfa 4, 4
	ret
	.cfi_endproc
.LFE7:
	.size	atomic_sub, .-atomic_sub
	.section	.text.unlikely.atomic_sub
.LCOLDE2:
	.section	.text.atomic_sub
.LHOTE2:
	.section	.text.unlikely.atomic_inc,"ax",@progbits
.LCOLDB3:
	.section	.text.atomic_inc,"ax",@progbits
.LHOTB3:
	.globl	atomic_inc
	.type	atomic_inc, @function
atomic_inc:
.LFB8:
	.loc 1 81 0
	.cfi_startproc
.LVL15:
	pushl	%ebp
	.cfi_def_cfa_offset 8
	.cfi_offset 5, -8
	movl	%esp, %ebp
	.cfi_def_cfa_register 5
	pushl	%esi
	pushl	%ebx
	.cfi_offset 6, -12
	.cfi_offset 3, -16
	.loc 1 81 0
	movl	8(%ebp), %esi
	.loc 1 84 0
	call	irq_lock
.LVL16:
	.loc 1 87 0
	subl	$12, %esp
	.loc 1 85 0
	movl	(%esi), %ebx
.LVL17:
	.loc 1 86 0
	leal	1(%ebx), %edx
	movl	%edx, (%esi)
	.loc 1 87 0
	pushl	%eax
	call	irq_unlock
.LVL18:
	.loc 1 89 0
	leal	-8(%ebp), %esp
	movl	%ebx, %eax
	popl	%ebx
	.cfi_restore 3
.LVL19:
	popl	%esi
	.cfi_restore 6
	popl	%ebp
	.cfi_restore 5
	.cfi_def_cfa 4, 4
	ret
	.cfi_endproc
.LFE8:
	.size	atomic_inc, .-atomic_inc
	.section	.text.unlikely.atomic_inc
.LCOLDE3:
	.section	.text.atomic_inc
.LHOTE3:
	.section	.text.unlikely.atomic_dec,"ax",@progbits
.LCOLDB4:
	.section	.text.atomic_dec,"ax",@progbits
.LHOTB4:
	.globl	atomic_dec
	.type	atomic_dec, @function
atomic_dec:
.LFB9:
	.loc 1 91 0
	.cfi_startproc
.LVL20:
	pushl	%ebp
	.cfi_def_cfa_offset 8
	.cfi_offset 5, -8
	movl	%esp, %ebp
	.cfi_def_cfa_register 5
	pushl	%esi
	pushl	%ebx
	.cfi_offset 6, -12
	.cfi_offset 3, -16
	.loc 1 91 0
	movl	8(%ebp), %esi
	.loc 1 94 0
	call	irq_lock
.LVL21:
	.loc 1 97 0
	subl	$12, %esp
	.loc 1 95 0
	movl	(%esi), %ebx
.LVL22:
	.loc 1 96 0
	leal	-1(%ebx), %edx
	movl	%edx, (%esi)
	.loc 1 97 0
	pushl	%eax
	call	irq_unlock
.LVL23:
	.loc 1 99 0
	leal	-8(%ebp), %esp
	movl	%ebx, %eax
	popl	%ebx
	.cfi_restore 3
.LVL24:
	popl	%esi
	.cfi_restore 6
	popl	%ebp
	.cfi_restore 5
	.cfi_def_cfa 4, 4
	ret
	.cfi_endproc
.LFE9:
	.size	atomic_dec, .-atomic_dec
	.section	.text.unlikely.atomic_dec
.LCOLDE4:
	.section	.text.atomic_dec
.LHOTE4:
	.section	.text.unlikely.atomic_get,"ax",@progbits
.LCOLDB5:
	.section	.text.atomic_get,"ax",@progbits
.LHOTB5:
	.globl	atomic_get
	.type	atomic_get, @function
atomic_get:
.LFB10:
	.loc 1 101 0
	.cfi_startproc
.LVL25:
	pushl	%ebp
	.cfi_def_cfa_offset 8
	.cfi_offset 5, -8
	movl	%esp, %ebp
	.cfi_def_cfa_register 5
	.loc 1 102 0
	movl	8(%ebp), %eax
	.loc 1 103 0
	popl	%ebp
	.cfi_restore 5
	.cfi_def_cfa 4, 4
	.loc 1 102 0
	movl	(%eax), %eax
	.loc 1 103 0
	ret
	.cfi_endproc
.LFE10:
	.size	atomic_get, .-atomic_get
	.section	.text.unlikely.atomic_get
.LCOLDE5:
	.section	.text.atomic_get
.LHOTE5:
	.section	.text.unlikely.atomic_set,"ax",@progbits
.LCOLDB6:
	.section	.text.atomic_set,"ax",@progbits
.LHOTB6:
	.globl	atomic_set
	.type	atomic_set, @function
atomic_set:
.LFB11:
	.loc 1 105 0
	.cfi_startproc
.LVL26:
	pushl	%ebp
	.cfi_def_cfa_offset 8
	.cfi_offset 5, -8
	movl	%esp, %ebp
	.cfi_def_cfa_register 5
	pushl	%esi
	pushl	%ebx
	.cfi_offset 6, -12
	.cfi_offset 3, -16
	.loc 1 105 0
	movl	8(%ebp), %ebx
	.loc 1 108 0
	call	irq_lock
.LVL27:
	.loc 1 110 0
	movl	12(%ebp), %edx
	.loc 1 111 0
	subl	$12, %esp
	.loc 1 109 0
	movl	(%ebx), %esi
.LVL28:
	.loc 1 110 0
	movl	%edx, (%ebx)
	.loc 1 111 0
	pushl	%eax
	call	irq_unlock
.LVL29:
	.loc 1 113 0
	leal	-8(%ebp), %esp
	movl	%esi, %eax
	popl	%ebx
	.cfi_restore 3
	popl	%esi
	.cfi_restore 6
.LVL30:
	popl	%ebp
	.cfi_restore 5
	.cfi_def_cfa 4, 4
	ret
	.cfi_endproc
.LFE11:
	.size	atomic_set, .-atomic_set
	.section	.text.unlikely.atomic_set
.LCOLDE6:
	.section	.text.atomic_set
.LHOTE6:
	.section	.text.unlikely.atomic_clear,"ax",@progbits
.LCOLDB7:
	.section	.text.atomic_clear,"ax",@progbits
.LHOTB7:
	.globl	atomic_clear
	.type	atomic_clear, @function
atomic_clear:
.LFB12:
	.loc 1 115 0
	.cfi_startproc
.LVL31:
	pushl	%ebp
	.cfi_def_cfa_offset 8
	.cfi_offset 5, -8
	movl	%esp, %ebp
	.cfi_def_cfa_register 5
	pushl	%esi
	pushl	%ebx
	.cfi_offset 6, -12
	.cfi_offset 3, -16
	.loc 1 115 0
	movl	8(%ebp), %ebx
	.loc 1 118 0
	call	irq_lock
.LVL32:
	.loc 1 121 0
	subl	$12, %esp
	.loc 1 119 0
	movl	(%ebx), %esi
.LVL33:
	.loc 1 120 0
	movl	$0, (%ebx)
	.loc 1 121 0
	pushl	%eax
	call	irq_unlock
.LVL34:
	.loc 1 123 0
	leal	-8(%ebp), %esp
	movl	%esi, %eax
	popl	%ebx
	.cfi_restore 3
	popl	%esi
	.cfi_restore 6
.LVL35:
	popl	%ebp
	.cfi_restore 5
	.cfi_def_cfa 4, 4
	ret
	.cfi_endproc
.LFE12:
	.size	atomic_clear, .-atomic_clear
	.section	.text.unlikely.atomic_clear
.LCOLDE7:
	.section	.text.atomic_clear
.LHOTE7:
	.section	.text.unlikely.atomic_or,"ax",@progbits
.LCOLDB8:
	.section	.text.atomic_or,"ax",@progbits
.LHOTB8:
	.globl	atomic_or
	.type	atomic_or, @function
atomic_or:
.LFB13:
	.loc 1 125 0
	.cfi_startproc
.LVL36:
	pushl	%ebp
	.cfi_def_cfa_offset 8
	.cfi_offset 5, -8
	movl	%esp, %ebp
	.cfi_def_cfa_register 5
	pushl	%esi
	pushl	%ebx
	.cfi_offset 6, -12
	.cfi_offset 3, -16
	.loc 1 125 0
	movl	8(%ebp), %esi
	.loc 1 128 0
	call	irq_lock
.LVL37:
	.loc 1 130 0
	movl	12(%ebp), %edx
	.loc 1 131 0
	subl	$12, %esp
	.loc 1 129 0
	movl	(%esi), %ebx
.LVL38:
	.loc 1 130 0
	orl	%ebx, %edx
	movl	%edx, (%esi)
	.loc 1 131 0
	pushl	%eax
	call	irq_unlock
.LVL39:
	.loc 1 133 0
	leal	-8(%ebp), %esp
	movl	%ebx, %eax
	popl	%ebx
	.cfi_restore 3
.LVL40:
	popl	%esi
	.cfi_restore 6
	popl	%ebp
	.cfi_restore 5
	.cfi_def_cfa 4, 4
	ret
	.cfi_endproc
.LFE13:
	.size	atomic_or, .-atomic_or
	.section	.text.unlikely.atomic_or
.LCOLDE8:
	.section	.text.atomic_or
.LHOTE8:
	.section	.text.unlikely.atomic_xor,"ax",@progbits
.LCOLDB9:
	.section	.text.atomic_xor,"ax",@progbits
.LHOTB9:
	.globl	atomic_xor
	.type	atomic_xor, @function
atomic_xor:
.LFB14:
	.loc 1 135 0
	.cfi_startproc
.LVL41:
	pushl	%ebp
	.cfi_def_cfa_offset 8
	.cfi_offset 5, -8
	movl	%esp, %ebp
	.cfi_def_cfa_register 5
	pushl	%esi
	pushl	%ebx
	.cfi_offset 6, -12
	.cfi_offset 3, -16
	.loc 1 135 0
	movl	8(%ebp), %esi
	.loc 1 138 0
	call	irq_lock
.LVL42:
	.loc 1 140 0
	movl	12(%ebp), %edx
	.loc 1 141 0
	subl	$12, %esp
	.loc 1 139 0
	movl	(%esi), %ebx
.LVL43:
	.loc 1 140 0
	xorl	%ebx, %edx
	movl	%edx, (%esi)
	.loc 1 141 0
	pushl	%eax
	call	irq_unlock
.LVL44:
	.loc 1 143 0
	leal	-8(%ebp), %esp
	movl	%ebx, %eax
	popl	%ebx
	.cfi_restore 3
.LVL45:
	popl	%esi
	.cfi_restore 6
	popl	%ebp
	.cfi_restore 5
	.cfi_def_cfa 4, 4
	ret
	.cfi_endproc
.LFE14:
	.size	atomic_xor, .-atomic_xor
	.section	.text.unlikely.atomic_xor
.LCOLDE9:
	.section	.text.atomic_xor
.LHOTE9:
	.section	.text.unlikely.atomic_and,"ax",@progbits
.LCOLDB10:
	.section	.text.atomic_and,"ax",@progbits
.LHOTB10:
	.globl	atomic_and
	.type	atomic_and, @function
atomic_and:
.LFB15:
	.loc 1 145 0
	.cfi_startproc
.LVL46:
	pushl	%ebp
	.cfi_def_cfa_offset 8
	.cfi_offset 5, -8
	movl	%esp, %ebp
	.cfi_def_cfa_register 5
	pushl	%esi
	pushl	%ebx
	.cfi_offset 6, -12
	.cfi_offset 3, -16
	.loc 1 145 0
	movl	8(%ebp), %esi
	.loc 1 148 0
	call	irq_lock
.LVL47:
	.loc 1 150 0
	movl	12(%ebp), %edx
	.loc 1 151 0
	subl	$12, %esp
	.loc 1 149 0
	movl	(%esi), %ebx
.LVL48:
	.loc 1 150 0
	andl	%ebx, %edx
	movl	%edx, (%esi)
	.loc 1 151 0
	pushl	%eax
	call	irq_unlock
.LVL49:
	.loc 1 153 0
	leal	-8(%ebp), %esp
	movl	%ebx, %eax
	popl	%ebx
	.cfi_restore 3
.LVL50:
	popl	%esi
	.cfi_restore 6
	popl	%ebp
	.cfi_restore 5
	.cfi_def_cfa 4, 4
	ret
	.cfi_endproc
.LFE15:
	.size	atomic_and, .-atomic_and
	.section	.text.unlikely.atomic_and
.LCOLDE10:
	.section	.text.atomic_and
.LHOTE10:
	.section	.text.unlikely.atomic_nand,"ax",@progbits
.LCOLDB11:
	.section	.text.atomic_nand,"ax",@progbits
.LHOTB11:
	.globl	atomic_nand
	.type	atomic_nand, @function
atomic_nand:
.LFB16:
	.loc 1 155 0
	.cfi_startproc
.LVL51:
	pushl	%ebp
	.cfi_def_cfa_offset 8
	.cfi_offset 5, -8
	movl	%esp, %ebp
	.cfi_def_cfa_register 5
	pushl	%esi
	pushl	%ebx
	.cfi_offset 6, -12
	.cfi_offset 3, -16
	.loc 1 155 0
	movl	8(%ebp), %ebx
	.loc 1 158 0
	call	irq_lock
.LVL52:
	.loc 1 160 0
	movl	12(%ebp), %edx
	.loc 1 161 0
	subl	$12, %esp
	.loc 1 159 0
	movl	(%ebx), %esi
.LVL53:
	.loc 1 160 0
	andl	%esi, %edx
	notl	%edx
	movl	%edx, (%ebx)
	.loc 1 161 0
	pushl	%eax
	call	irq_unlock
.LVL54:
	.loc 1 163 0
	leal	-8(%ebp), %esp
	movl	%esi, %eax
	popl	%ebx
	.cfi_restore 3
	popl	%esi
	.cfi_restore 6
.LVL55:
	popl	%ebp
	.cfi_restore 5
	.cfi_def_cfa 4, 4
	ret
	.cfi_endproc
.LFE16:
	.size	atomic_nand, .-atomic_nand
	.section	.text.unlikely.atomic_nand
.LCOLDE11:
	.section	.text.atomic_nand
.LHOTE11:
	.text
.Letext0:
	.section	.text.unlikely.atomic_cas
.Letext_cold0:
	.section	.note.GNU-stack,"",@progbits
