	.file	"att.c"
	.text
.Ltext0:
	.section	.text.unlikely.att_exec_write_req,"ax",@progbits
.LCOLDB0:
	.section	.text.att_exec_write_req,"ax",@progbits
.LHOTB0:
	.section	.text.unlikely.att_exec_write_req
.Ltext_cold0:
	.section	.text.att_exec_write_req
	.type	att_exec_write_req, @function
att_exec_write_req:
.LFB119:
	.file 1 "src/att.c"
	.loc 1 4929 0
	.cfi_startproc
.LVL0:
	pushl	%ebp
	.cfi_def_cfa_offset 8
	.cfi_offset 5, -8
	.loc 1 4931 0
	movb	$6, %al
	.loc 1 4929 0
	movl	%esp, %ebp
	.cfi_def_cfa_register 5
	.loc 1 4931 0
	popl	%ebp
	.cfi_restore 5
	.cfi_def_cfa 4, 4
	ret
	.cfi_endproc
.LFE119:
	.size	att_exec_write_req, .-att_exec_write_req
	.section	.text.unlikely.att_exec_write_req
.LCOLDE0:
	.section	.text.att_exec_write_req
.LHOTE0:
	.section	.text.unlikely.att_op_get_type,"ax",@progbits
.LCOLDB1:
	.section	.text.att_op_get_type,"ax",@progbits
.LHOTB1:
	.type	att_op_get_type, @function
att_op_get_type:
.LFB136:
	.loc 1 5204 0
	.cfi_startproc
.LVL1:
	pushl	%ebp
	.cfi_def_cfa_offset 8
	.cfi_offset 5, -8
	movb	%al, %cl
	.loc 1 5206 0
	xorl	%edx, %edx
	.loc 1 5204 0
	movl	%esp, %ebp
	.cfi_def_cfa_register 5
.LVL2:
.L6:
	.loc 1 5207 0
	cmpb	%cl, handlers(,%edx,8)
	jne	.L4
	.loc 1 5208 0
	movb	handlers+2(,%edx,8), %al
.LVL3:
	jmp	.L5
.LVL4:
.L4:
	.loc 1 5206 0 discriminator 2
	incl	%edx
.LVL5:
	cmpl	$27, %edx
	jne	.L6
	.loc 1 5211 0
	andl	$64, %eax
.LVL6:
	.loc 1 5214 0
	cmpb	$1, %al
	sbbl	%eax, %eax
	andl	$6, %eax
.L5:
	.loc 1 5215 0
	popl	%ebp
	.cfi_restore 5
	.cfi_def_cfa 4, 4
	ret
	.cfi_endproc
.LFE136:
	.size	att_op_get_type, .-att_op_get_type
	.section	.text.unlikely.att_op_get_type
.LCOLDE1:
	.section	.text.att_op_get_type
.LHOTE1:
	.section	.text.unlikely.find_info_cb,"ax",@progbits
.LCOLDB2:
	.section	.text.find_info_cb,"ax",@progbits
.LHOTB2:
	.type	find_info_cb, @function
find_info_cb:
.LFB95:
	.loc 1 4287 0
	.cfi_startproc
.LVL7:
	pushl	%ebp
	.cfi_def_cfa_offset 8
	.cfi_offset 5, -8
	movl	%esp, %ebp
	.cfi_def_cfa_register 5
	pushl	%edi
	pushl	%esi
	pushl	%ebx
	subl	$28, %esp
	.cfi_offset 7, -12
	.cfi_offset 6, -16
	.cfi_offset 3, -20
	.loc 1 4287 0
	movl	12(%ebp), %ebx
.LVL8:
	movl	8(%ebp), %edi
	.loc 1 4291 0
	cmpl	$0, 8(%ebx)
	.loc 1 4289 0
	movl	(%ebx), %esi
.LVL9:
	.loc 1 4291 0
	jne	.L12
	.loc 1 4292 0
	pushl	%ecx
	pushl	%ecx
	movl	4(%ebx), %eax
	pushl	$1
	addl	$8, %eax
	pushl	%eax
	call	net_buf_simple_add
.LVL10:
	.loc 1 4293 0
	movl	(%edi), %edx
	.loc 1 4292 0
	movl	%eax, 8(%ebx)
	.loc 1 4293 0
	addl	$16, %esp
	cmpb	$1, (%edx)
	sbbl	%edx, %edx
	addl	$2, %edx
	movb	%dl, (%eax)
.L12:
	.loc 1 4296 0
	movl	8(%ebx), %eax
	movb	(%eax), %al
	cmpb	$1, %al
	je	.L15
	cmpb	$2, %al
	je	.L16
	jmp	.L24
.L15:
	.loc 1 4298 0
	movl	(%edi), %edx
	.loc 1 4299 0
	xorl	%eax, %eax
	.loc 1 4298 0
	cmpb	$0, (%edx)
	jne	.L14
	.loc 1 4301 0
	pushl	%edx
	pushl	%edx
	movl	4(%ebx), %eax
	pushl	$4
	addl	$8, %eax
	pushl	%eax
	call	net_buf_simple_add
.LVL11:
	movl	%eax, 12(%ebx)
	.loc 1 4302 0
	movl	16(%edi), %edx
	.loc 1 4299 0
	addl	$16, %esp
	.loc 1 4302 0
	movw	%dx, (%eax)
	.loc 1 4309 0
	movl	(%edi), %edx
	.loc 1 4303 0
	movw	2(%edx), %dx
	movw	%dx, 2(%eax)
	.loc 1 4310 0
	movl	4(%ebx), %edx
	.loc 1 4299 0
	movzwl	74(%esi), %eax
	movzwl	12(%edx), %edx
	subl	%edx, %eax
	cmpl	$4, %eax
	jmp	.L23
.L16:
	.loc 1 4316 0
	movl	(%edi), %edx
	.loc 1 4299 0
	xorl	%eax, %eax
	.loc 1 4316 0
	cmpb	$2, (%edx)
	jne	.L14
	.loc 1 4319 0
	pushl	%eax
	pushl	%eax
	movl	4(%ebx), %eax
	pushl	$18
	addl	$8, %eax
	pushl	%eax
	call	net_buf_simple_add
.LVL12:
	movl	%eax, 12(%ebx)
	.loc 1 4320 0
	movl	16(%edi), %edx
	.loc 1 4299 0
	addl	$16, %esp
	.loc 1 4320 0
	movw	%dx, (%eax)
	.loc 1 4321 0
	movl	(%edi), %edx
	movl	12(%ebx), %eax
	movl	5(%edx), %ecx
	movl	1(%edx), %edi
	movl	%ecx, -28(%ebp)
	movl	9(%edx), %ecx
	movl	13(%edx), %edx
	movl	%edi, 2(%eax)
	movl	-28(%ebp), %edi
	movl	%ecx, 10(%eax)
	movl	%edx, 14(%eax)
	movl	%edi, 6(%eax)
	.loc 1 4329 0
	movl	4(%ebx), %edx
	.loc 1 4299 0
	movzwl	74(%esi), %eax
	movzwl	12(%edx), %edx
	subl	%edx, %eax
	cmpl	$18, %eax
.L23:
	seta	%al
	jmp	.L14
.L24:
	.loc 1 4334 0
	xorl	%eax, %eax
.L14:
	.loc 1 4335 0
	leal	-12(%ebp), %esp
	popl	%ebx
	.cfi_restore 3
.LVL13:
	popl	%esi
	.cfi_restore 6
.LVL14:
	popl	%edi
	.cfi_restore 7
	popl	%ebp
	.cfi_restore 5
	.cfi_def_cfa 4, 4
	ret
	.cfi_endproc
.LFE95:
	.size	find_info_cb, .-find_info_cb
	.section	.text.unlikely.find_info_cb
.LCOLDE2:
	.section	.text.find_info_cb
.LHOTE2:
	.section	.text.unlikely.bt_att_accept,"ax",@progbits
.LCOLDB3:
	.section	.text.bt_att_accept,"ax",@progbits
.LHOTB3:
	.type	bt_att_accept, @function
bt_att_accept:
.LFB145:
	.loc 1 5490 0
	.cfi_startproc
.LVL15:
.LBB64:
	.loc 1 5501 0
	cmpl	$0, bt_req_pool
	jne	.L28
.LBE64:
	.loc 1 5490 0
	pushl	%ebp
	.cfi_def_cfa_offset 8
	.cfi_offset 5, -8
	movl	%esp, %ebp
	.cfi_def_cfa_register 5
	subl	$16, %esp
.LBB65:
	.loc 1 5504 0
	movl	$ops.6022, bt_req_pool+4
	.loc 1 5505 0
	pushl	$0
	pushl	$bt_req_pool+116
	call	atomic_set
.LVL16:
	.loc 1 5506 0
	addl	$12, %esp
	pushl	$1
	pushl	$1
	pushl	$bt_req_pool+168
	call	k_sem_init
.LVL17:
	.loc 1 5508 0
	movl	12(%ebp), %eax
	.loc 1 5509 0
	addl	$16, %esp
	.loc 1 5508 0
	movl	$bt_req_pool, (%eax)
	.loc 1 5509 0
	xorl	%eax, %eax
.LBE65:
	.loc 1 5513 0
	leave
	.cfi_restore 5
	.cfi_def_cfa 4, 4
	ret
.L28:
	movl	$-12, %eax
	ret
	.cfi_endproc
.LFE145:
	.size	bt_att_accept, .-bt_att_accept
	.section	.text.unlikely.bt_att_accept
.LCOLDE3:
	.section	.text.bt_att_accept
.LHOTE3:
	.section	.text.unlikely.att_req_destroy,"ax",@progbits
.LCOLDB4:
	.section	.text.att_req_destroy,"ax",@progbits
.LHOTB4:
	.type	att_req_destroy, @function
att_req_destroy:
.LFB80:
	.loc 1 4056 0
	.cfi_startproc
.LVL18:
	pushl	%ebp
	.cfi_def_cfa_offset 8
	.cfi_offset 5, -8
	movl	%esp, %ebp
	.cfi_def_cfa_register 5
	pushl	%edi
	pushl	%ebx
	.cfi_offset 7, -12
	.cfi_offset 3, -16
	.loc 1 4056 0
	movl	%eax, %ebx
	.loc 1 4058 0
	movl	16(%eax), %eax
.LVL19:
	testl	%eax, %eax
	je	.L32
	.loc 1 4059 0
	subl	$12, %esp
	pushl	%eax
	call	net_buf_unref
.LVL20:
	addl	$16, %esp
.L32:
	.loc 1 4061 0
	movl	8(%ebx), %eax
	testl	%eax, %eax
	je	.L33
	.loc 1 4062 0
	subl	$12, %esp
	pushl	%ebx
	call	*%eax
.LVL21:
	addl	$16, %esp
.L33:
	.loc 1 4064 0
	movl	%ebx, %edi
	movl	$6, %ecx
	xorl	%eax, %eax
	rep stosl
	.loc 1 4065 0
	leal	-8(%ebp), %esp
	popl	%ebx
	.cfi_restore 3
.LVL22:
	popl	%edi
	.cfi_restore 7
	popl	%ebp
	.cfi_restore 5
	.cfi_def_cfa 4, 4
	ret
	.cfi_endproc
.LFE80:
	.size	att_req_destroy, .-att_req_destroy
	.section	.text.unlikely.att_req_destroy
.LCOLDE4:
	.section	.text.att_req_destroy
.LHOTE4:
	.section	.text.unlikely.att_notify,"ax",@progbits
.LCOLDB5:
	.section	.text.att_notify,"ax",@progbits
.LHOTB5:
	.type	att_notify, @function
att_notify:
.LFB133:
	.loc 1 5060 0
	.cfi_startproc
.LVL23:
	pushl	%ebp
	.cfi_def_cfa_offset 8
	.cfi_offset 5, -8
	movl	%esp, %ebp
	.cfi_def_cfa_register 5
.LVL24:
	subl	$20, %esp
	.loc 1 5063 0
	movl	12(%ebp), %eax
	addl	$8, %eax
	pushl	%eax
.LVL25:
	call	net_buf_simple_pull_le16
.LVL26:
	.loc 1 5067 0
	xorl	%eax, %eax
	leave
	.cfi_restore 5
	.cfi_def_cfa 4, 4
	ret
	.cfi_endproc
.LFE133:
	.size	att_notify, .-att_notify
	.section	.text.unlikely.att_notify
.LCOLDE5:
	.section	.text.att_notify
.LHOTE5:
	.section	.text.unlikely.att_req_sent,"ax",@progbits
.LCOLDB6:
	.section	.text.att_req_sent,"ax",@progbits
.LHOTB6:
	.type	att_req_sent, @function
att_req_sent:
.LFB84:
	.loc 1 4092 0
	.cfi_startproc
.LVL27:
	pushl	%ebp
	.cfi_def_cfa_offset 8
	.cfi_offset 5, -8
	movl	%esp, %ebp
	.cfi_def_cfa_register 5
.LVL28:
	pushl	%ebx
	subl	$12, %esp
	.cfi_offset 3, -12
.LBB68:
.LBB69:
	.loc 1 4069 0
	pushl	$4
	pushl	8(%ebp)
	call	bt_l2cap_le_lookup_tx_cid
.LVL29:
	movl	%eax, %ebx
.LVL30:
.LBE69:
.LBE68:
	.loc 1 4095 0
	addl	$168, %eax
	movl	%eax, (%esp)
	call	k_sem_give
.LVL31:
	.loc 1 4096 0
	addl	$16, %esp
	cmpl	$0, 120(%ebx)
	je	.L43
	.loc 1 4097 0
	addl	$132, %ebx
	pushl	%eax
	pushl	%eax
	pushl	$30000
	pushl	%ebx
	call	k_delayed_work_submit
.LVL32:
	addl	$16, %esp
.L43:
	.loc 1 4099 0
	movl	-4(%ebp), %ebx
	leave
	.cfi_restore 5
	.cfi_restore 3
	.cfi_def_cfa 4, 4
	ret
	.cfi_endproc
.LFE84:
	.size	att_req_sent, .-att_req_sent
	.section	.text.unlikely.att_req_sent
.LCOLDE6:
	.section	.text.att_req_sent
.LHOTE6:
	.section	.text.unlikely.read_group_cb,"ax",@progbits
.LCOLDB7:
	.section	.text.read_group_cb,"ax",@progbits
.LHOTB7:
	.type	read_group_cb, @function
read_group_cb:
.LFB112:
	.loc 1 4749 0
	.cfi_startproc
.LVL33:
	pushl	%ebp
	.cfi_def_cfa_offset 8
	.cfi_offset 5, -8
	movl	%esp, %ebp
	.cfi_def_cfa_register 5
	pushl	%edi
	pushl	%esi
	pushl	%ebx
	subl	$52, %esp
	.cfi_offset 7, -12
	.cfi_offset 6, -16
	.cfi_offset 3, -20
	.loc 1 4749 0
	movl	12(%ebp), %ebx
	movl	8(%ebp), %edi
	movl	%gs:20, %eax
	movl	%eax, -28(%ebp)
	xorl	%eax, %eax
.LVL34:
	.loc 1 4751 0
	movl	(%ebx), %esi
.LVL35:
	.loc 1 4752 0
	movl	(%esi), %eax
	.loc 1 4754 0
	movb	$0, -36(%ebp)
	movw	$10240, -34(%ebp)
	.loc 1 4752 0
	movl	%eax, -44(%ebp)
.LVL36:
	.loc 1 4754 0
	leal	-36(%ebp), %eax
.LVL37:
	pushl	%eax
	pushl	(%edi)
	call	bt_uuid_cmp
.LVL38:
	addl	$16, %esp
	testl	%eax, %eax
	je	.L47
	.loc 1 4755 0 discriminator 1
	pushl	%eax
	pushl	%eax
	leal	-32(%ebp), %eax
	movb	$0, -32(%ebp)
	movw	$10241, -30(%ebp)
	pushl	%eax
	pushl	(%edi)
	call	bt_uuid_cmp
.LVL39:
	.loc 1 4754 0 discriminator 1
	addl	$16, %esp
	testl	%eax, %eax
	je	.L47
	.loc 1 4756 0
	movl	16(%ebx), %ecx
	.loc 1 4759 0
	movb	$1, %al
	.loc 1 4756 0
	testl	%ecx, %ecx
	je	.L48
	.loc 1 4756 0 is_stmt 0 discriminator 1
	movl	16(%edi), %edx
	cmpw	2(%ecx), %dx
	jbe	.L48
	.loc 1 4757 0 is_stmt 1
	movw	%dx, 2(%ecx)
	jmp	.L48
.L47:
	.loc 1 4761 0
	pushl	%eax
	pushl	%eax
	pushl	4(%ebx)
	pushl	(%edi)
	call	bt_uuid_cmp
.LVL40:
	addl	$16, %esp
	testl	%eax, %eax
	je	.L49
	.loc 1 4762 0
	movl	$0, 16(%ebx)
	jmp	.L67
.L49:
	.loc 1 4768 0
	movl	12(%ebx), %eax
	movzbl	(%eax), %eax
	testb	%al, %al
	je	.L50
	.loc 1 4769 0 discriminator 1
	movl	8(%ebx), %ecx
	.loc 1 4768 0 discriminator 1
	movzwl	74(%esi), %edx
	movzwl	12(%ecx), %ecx
	subl	%ecx, %edx
	cmpl	%eax, %edx
	jl	.L68
.L50:
	.loc 1 4772 0
	pushl	%ecx
	pushl	%ecx
	movl	8(%ebx), %eax
	pushl	$4
	addl	$8, %eax
	pushl	%eax
	call	net_buf_simple_add
.LVL41:
	.loc 1 4773 0
	movl	16(%edi), %ecx
	.loc 1 4772 0
	movl	%eax, 16(%ebx)
	.loc 1 4775 0
	movw	74(%esi), %si
.LVL42:
	.loc 1 4773 0
	movw	%cx, (%eax)
	.loc 1 4774 0
	movw	%cx, 2(%eax)
	.loc 1 4776 0
	movl	8(%ebx), %ecx
	movzwl	12(%ecx), %eax
	.loc 1 4775 0
	movl	$0, (%esp)
	subl	%eax, %esi
	movzwl	%si, %esi
	pushl	%esi
	addl	8(%ecx), %eax
	pushl	%eax
	pushl	%edi
	pushl	-44(%ebp)
	call	*4(%edi)
.LVL43:
	.loc 1 4777 0
	addl	$32, %esp
	testl	%eax, %eax
	js	.L68
	.loc 1 4780 0
	movl	12(%ebx), %ecx
	movzbl	(%ecx), %edx
	testb	%dl, %dl
	jne	.L52
	.loc 1 4781 0
	leal	4(%eax), %edx
	movb	%dl, (%ecx)
	jmp	.L53
.L52:
	.loc 1 4782 0
	leal	4(%eax), %ecx
	cmpl	%ecx, %edx
	je	.L53
	.loc 1 4783 0
	movl	8(%ebx), %eax
.LVL44:
	subw	$4, 12(%eax)
.LVL45:
.L68:
	.loc 1 4785 0
	xorl	%eax, %eax
	jmp	.L48
.LVL46:
.L53:
	.loc 1 4788 0
	pushl	%edx
	pushl	%edx
	pushl	%eax
	movl	8(%ebx), %eax
.LVL47:
	addl	$8, %eax
	pushl	%eax
.LVL48:
	call	net_buf_simple_add
.LVL49:
	.loc 1 4789 0
	addl	$16, %esp
.L67:
	movb	$1, %al
.L48:
	.loc 1 4790 0
	movl	-28(%ebp), %edi
	xorl	%gs:20, %edi
	je	.L54
	call	__stack_chk_fail
.LVL50:
.L54:
	leal	-12(%ebp), %esp
	popl	%ebx
	.cfi_restore 3
.LVL51:
	popl	%esi
	.cfi_restore 6
	popl	%edi
	.cfi_restore 7
	popl	%ebp
	.cfi_restore 5
	.cfi_def_cfa 4, 4
	ret
	.cfi_endproc
.LFE112:
	.size	read_group_cb, .-read_group_cb
	.section	.text.unlikely.read_group_cb
.LCOLDE7:
	.section	.text.read_group_cb
.LHOTE7:
	.section	.text.unlikely.find_type_cb,"ax",@progbits
.LCOLDB8:
	.section	.text.find_type_cb,"ax",@progbits
.LHOTB8:
	.type	find_type_cb, @function
find_type_cb:
.LFB98:
	.loc 1 4382 0
	.cfi_startproc
.LVL52:
	pushl	%ebp
	.cfi_def_cfa_offset 8
	.cfi_offset 5, -8
	movl	%esp, %ebp
	.cfi_def_cfa_register 5
	pushl	%edi
	pushl	%esi
	pushl	%ebx
	subl	$68, %esp
	.cfi_offset 7, -12
	.cfi_offset 6, -16
	.cfi_offset 3, -20
	.loc 1 4382 0
	movl	12(%ebp), %edi
	movl	8(%ebp), %ebx
	movl	%gs:20, %eax
	movl	%eax, -28(%ebp)
	xorl	%eax, %eax
.LVL53:
	.loc 1 4384 0
	movl	(%edi), %esi
.LVL54:
	.loc 1 4385 0
	movl	(%esi), %eax
	.loc 1 4388 0
	movb	$0, -52(%ebp)
	movw	$10241, -50(%ebp)
	.loc 1 4385 0
	movl	%eax, -60(%ebp)
.LVL55:
	.loc 1 4388 0
	leal	-52(%ebp), %eax
.LVL56:
	pushl	%eax
	pushl	(%ebx)
	call	bt_uuid_cmp
.LVL57:
	addl	$16, %esp
	testl	%eax, %eax
	jne	.L70
.LVL58:
.L73:
	.loc 1 4389 0
	movl	$0, 8(%edi)
	jmp	.L79
.LVL59:
.L70:
	.loc 1 4394 0
	leal	-48(%ebp), %eax
	pushl	%ecx
	pushl	%ecx
	movb	$0, -48(%ebp)
	movw	$10240, -46(%ebp)
	pushl	%eax
	pushl	(%ebx)
	call	bt_uuid_cmp
.LVL60:
	addl	$16, %esp
	testl	%eax, %eax
	je	.L72
	.loc 1 4395 0
	movl	8(%edi), %edx
	.loc 1 4398 0
	movb	$1, %al
	.loc 1 4395 0
	testl	%edx, %edx
	je	.L71
	.loc 1 4395 0 is_stmt 0 discriminator 1
	movl	16(%ebx), %ecx
	cmpw	2(%edx), %cx
	jbe	.L71
	.loc 1 4396 0 is_stmt 1
	movw	%cx, 2(%edx)
	jmp	.L71
.L72:
	.loc 1 4401 0
	movl	4(%edi), %eax
	movzwl	74(%esi), %ecx
	movzwl	12(%eax), %eax
	subl	%eax, %ecx
	.loc 1 4402 0
	xorl	%eax, %eax
	.loc 1 4401 0
	cmpl	$3, %ecx
	jbe	.L71
	.loc 1 4404 0
	leal	-44(%ebp), %esi
.LVL61:
	subl	$12, %esp
	pushl	$0
	pushl	$16
	pushl	%esi
	pushl	%ebx
	pushl	-60(%ebp)
	call	*4(%ebx)
.LVL62:
	.loc 1 4405 0
	addl	$32, %esp
	testl	%eax, %eax
	js	.L73
	.loc 1 4411 0
	movzbl	16(%edi), %ecx
	cmpl	%ecx, %eax
	jne	.L73
	.loc 1 4411 0 is_stmt 0 discriminator 1
	pushl	%edx
	pushl	%eax
	pushl	%esi
	pushl	12(%edi)
	call	memcmp
.LVL63:
	addl	$16, %esp
	testl	%eax, %eax
	jne	.L73
	.loc 1 4417 0 is_stmt 1
	movb	$0, 17(%edi)
	.loc 1 4418 0
	pushl	%eax
	pushl	%eax
	movl	4(%edi), %eax
	pushl	$4
	addl	$8, %eax
	pushl	%eax
	call	net_buf_simple_add
.LVL64:
	.loc 1 4419 0
	movl	16(%ebx), %edx
	.loc 1 4418 0
	movl	%eax, 8(%edi)
	.loc 1 4421 0
	addl	$16, %esp
	.loc 1 4419 0
	movw	%dx, (%eax)
	.loc 1 4420 0
	movw	%dx, 2(%eax)
.L79:
	.loc 1 4421 0
	movb	$1, %al
.L71:
	.loc 1 4422 0
	movl	-28(%ebp), %esi
	xorl	%gs:20, %esi
	je	.L74
	call	__stack_chk_fail
.LVL65:
.L74:
	leal	-12(%ebp), %esp
	popl	%ebx
	.cfi_restore 3
	popl	%esi
	.cfi_restore 6
	popl	%edi
	.cfi_restore 7
.LVL66:
	popl	%ebp
	.cfi_restore 5
	.cfi_def_cfa 4, 4
	ret
	.cfi_endproc
.LFE98:
	.size	find_type_cb, .-find_type_cb
	.section	.text.unlikely.find_type_cb
.LCOLDE8:
	.section	.text.find_type_cb
.LHOTE8:
	.section	.text.unlikely.bt_att_connected,"ax",@progbits
.LCOLDB9:
	.section	.text.bt_att_connected,"ax",@progbits
.LHOTB9:
	.type	bt_att_connected, @function
bt_att_connected:
.LFB142:
	.loc 1 5402 0
	.cfi_startproc
.LVL67:
	pushl	%ebp
	.cfi_def_cfa_offset 8
	.cfi_offset 5, -8
	movl	%esp, %ebp
	.cfi_def_cfa_register 5
	pushl	%ebx
	subl	$12, %esp
	.cfi_offset 3, -12
	.loc 1 5402 0
	movl	8(%ebp), %ebx
.LVL68:
	.loc 1 5420 0
	leal	132(%ebx), %eax
	.loc 1 5418 0
	movw	$23, 74(%ebx)
	.loc 1 5419 0
	movw	$23, 54(%ebx)
	.loc 1 5420 0
	pushl	$att_timeout
	pushl	%eax
	call	k_delayed_work_init
.LVL69:
	.loc 1 5422 0
	movl	(%ebx), %eax
.LBB70:
.LBB71:
	.loc 1 73 0
	movl	$0, 124(%ebx)
.LBE71:
.LBE70:
	.loc 1 5422 0
	addl	$16, %esp
.LBB73:
.LBB72:
	.loc 1 76 0
	movl	$0, 128(%ebx)
.LVL70:
.LBE72:
.LBE73:
	.loc 1 5423 0
	movl	-4(%ebp), %ebx
.LVL71:
	.loc 1 5422 0
	movl	%eax, 8(%ebp)
.LVL72:
	.loc 1 5423 0
	leave
	.cfi_restore 5
	.cfi_restore 3
	.cfi_def_cfa 4, 4
	.loc 1 5422 0
	jmp	bt_gatt_connected
.LVL73:
	.cfi_endproc
.LFE142:
	.size	bt_att_connected, .-bt_att_connected
	.section	.text.unlikely.bt_att_connected
.LCOLDE9:
	.section	.text.bt_att_connected
.LHOTE9:
	.section	.text.unlikely.check_perm,"ax",@progbits
.LCOLDB10:
	.section	.text.check_perm,"ax",@progbits
.LHOTB10:
	.type	check_perm, @function
check_perm:
.LFB102:
	.loc 1 4512 0
	.cfi_startproc
.LVL74:
	pushl	%ebp
	.cfi_def_cfa_offset 8
	.cfi_offset 5, -8
	.loc 1 4513 0
	testb	$1, %cl
	.loc 1 4512 0
	movl	%esp, %ebp
	.cfi_def_cfa_register 5
	pushl	%ebx
	.cfi_offset 3, -12
	.loc 1 4513 0
	je	.L83
	.loc 1 4513 0 is_stmt 0 discriminator 1
	testb	$21, 18(%edx)
	.loc 1 4515 0 is_stmt 1 discriminator 1
	movb	$2, %bl
	.loc 1 4513 0 discriminator 1
	je	.L84
	.loc 1 4514 0
	cmpl	$0, 4(%edx)
	je	.L84
.L83:
	.loc 1 4517 0
	testb	$2, %cl
	je	.L85
	.loc 1 4517 0 is_stmt 0 discriminator 1
	testb	$42, 18(%edx)
	.loc 1 4519 0 is_stmt 1 discriminator 1
	movb	$3, %bl
	.loc 1 4517 0 discriminator 1
	je	.L84
	.loc 1 4518 0
	cmpl	$0, 8(%edx)
	je	.L84
.L85:
.LVL75:
.LBB76:
.LBB77:
	.loc 1 4521 0
	andb	18(%edx), %cl
.LVL76:
	.loc 1 4522 0
	testb	$48, %cl
	je	.L86
	.loc 1 4523 0
	cmpb	$2, 8(%eax)
	.loc 1 4524 0
	movb	$5, %bl
	.loc 1 4523 0
	jbe	.L84
.L86:
	.loc 1 4527 0
	movb	%cl, %bl
	andb	$12, %bl
	je	.L84
	.loc 1 4529 0
	cmpb	$1, 10(%eax)
	sbbl	%ebx, %ebx
	andl	$15, %ebx
.LVL77:
.L84:
.LBE77:
.LBE76:
	.loc 1 4533 0
	movb	%bl, %al
.LVL78:
	popl	%ebx
	.cfi_restore 3
	popl	%ebp
	.cfi_restore 5
	.cfi_def_cfa 4, 4
	ret
	.cfi_endproc
.LFE102:
	.size	check_perm, .-check_perm
	.section	.text.unlikely.check_perm
.LCOLDE10:
	.section	.text.check_perm
.LHOTE10:
	.section	.text.unlikely.read_type_cb,"ax",@progbits
.LCOLDB11:
	.section	.text.read_type_cb,"ax",@progbits
.LHOTB11:
	.type	read_type_cb, @function
read_type_cb:
.LFB104:
	.loc 1 4551 0
	.cfi_startproc
.LVL79:
	pushl	%ebp
	.cfi_def_cfa_offset 8
	.cfi_offset 5, -8
	movl	%esp, %ebp
	.cfi_def_cfa_register 5
	pushl	%edi
	pushl	%esi
	pushl	%ebx
	subl	$36, %esp
	.cfi_offset 7, -12
	.cfi_offset 6, -16
	.cfi_offset 3, -20
	.loc 1 4551 0
	movl	12(%ebp), %ebx
.LVL80:
	movl	8(%ebp), %esi
	.loc 1 4553 0
	movl	(%ebx), %edi
.LVL81:
	.loc 1 4554 0
	movl	(%edi), %eax
	.loc 1 4556 0
	pushl	4(%ebx)
	pushl	(%esi)
	.loc 1 4554 0
	movl	%eax, -28(%ebp)
.LVL82:
	.loc 1 4556 0
	call	bt_uuid_cmp
.LVL83:
	addl	$16, %esp
	testl	%eax, %eax
	.loc 1 4557 0
	movb	$1, %dl
	.loc 1 4556 0
	jne	.L109
	.loc 1 4560 0
	movl	-28(%ebp), %eax
	movl	$21, %ecx
	movl	%esi, %edx
	call	check_perm
.LVL84:
	.loc 1 4561 0
	testb	%al, %al
	.loc 1 4560 0
	movb	%al, 20(%ebx)
	.loc 1 4561 0
	je	.L110
	.loc 1 4562 0
	movl	12(%ebx), %eax
	movb	(%eax), %dl
	testb	%dl, %dl
	je	.L109
	.loc 1 4563 0
	movb	$0, 20(%ebx)
	.loc 1 4565 0
	xorl	%edx, %edx
	jmp	.L109
.L110:
	.loc 1 4567 0
	movb	$0, 20(%ebx)
	movb	%al, -29(%ebp)
	.loc 1 4568 0
	pushl	%ecx
	pushl	%ecx
	movl	8(%ebx), %eax
	pushl	$2
	addl	$8, %eax
	pushl	%eax
	call	net_buf_simple_add
.LVL85:
	.loc 1 4569 0
	movl	16(%esi), %ecx
	.loc 1 4568 0
	movl	%eax, 16(%ebx)
	.loc 1 4569 0
	movw	%cx, (%eax)
	.loc 1 4571 0
	movl	8(%ebx), %eax
	.loc 1 4570 0
	movw	74(%edi), %cx
	.loc 1 4571 0
	movzwl	12(%eax), %eax
	.loc 1 4570 0
	movl	$0, (%esp)
	subl	%eax, %ecx
	movzwl	%cx, %ecx
	pushl	%ecx
	movl	8(%ebx), %ecx
	addl	8(%ecx), %eax
	pushl	%eax
	pushl	%esi
	pushl	-28(%ebp)
	call	*4(%esi)
.LVL86:
	.loc 1 4572 0
	addl	$32, %esp
	testl	%eax, %eax
	movb	-29(%ebp), %dl
	jns	.L111
.LVL87:
.LBB80:
.LBB81:
	.loc 1 4537 0
	leal	255(%eax), %ecx
	.loc 1 4538 0
	negl	%eax
.LVL88:
	cmpl	$254, %ecx
	movb	$14, %cl
	cmova	%ecx, %eax
.LVL89:
.LBE81:
.LBE80:
	.loc 1 4573 0
	movb	%al, 20(%ebx)
	.loc 1 4574 0
	jmp	.L109
.LVL90:
.L111:
	.loc 1 4576 0
	movl	12(%ebx), %esi
	movzbl	(%esi), %ecx
	testb	%cl, %cl
	jne	.L113
	.loc 1 4577 0
	leal	2(%eax), %edx
	movb	%dl, (%esi)
	jmp	.L114
.L113:
	.loc 1 4578 0
	leal	2(%eax), %esi
	cmpl	%esi, %ecx
	je	.L114
	.loc 1 4579 0
	movl	8(%ebx), %eax
.LVL91:
	subw	$2, 12(%eax)
	.loc 1 4580 0
	jmp	.L109
.LVL92:
.L114:
	.loc 1 4582 0
	pushl	%edx
	pushl	%edx
	pushl	%eax
	movl	8(%ebx), %eax
.LVL93:
	addl	$8, %eax
	pushl	%eax
.LVL94:
	call	net_buf_simple_add
.LVL95:
	.loc 1 4583 0
	movl	8(%ebx), %edx
	movzwl	74(%edi), %eax
	addl	$16, %esp
	movzwl	12(%edx), %edx
	subl	%edx, %eax
	movl	12(%ebx), %edx
	movzbl	(%edx), %edx
	cmpl	%edx, %eax
	setg	%dl
.L109:
	.loc 1 4585 0
	leal	-12(%ebp), %esp
	movb	%dl, %al
	popl	%ebx
	.cfi_restore 3
.LVL96:
	popl	%esi
	.cfi_restore 6
	popl	%edi
	.cfi_restore 7
.LVL97:
	popl	%ebp
	.cfi_restore 5
	.cfi_def_cfa 4, 4
	ret
	.cfi_endproc
.LFE104:
	.size	read_type_cb, .-read_type_cb
	.section	.text.unlikely.read_type_cb
.LCOLDE11:
	.section	.text.read_type_cb
.LHOTE11:
	.section	.text.unlikely.att_cb.isra.3,"ax",@progbits
.LCOLDB12:
	.section	.text.att_cb.isra.3,"ax",@progbits
.LHOTB12:
	.type	att_cb.isra.3, @function
att_cb.isra.3:
.LFB154:
	.loc 1 4106 0
	.cfi_startproc
.LVL98:
	pushl	%ebp
	.cfi_def_cfa_offset 8
	.cfi_offset 5, -8
	.loc 1 4108 0
	movzbl	(%eax), %eax
	.loc 1 4106 0
	movl	%esp, %ebp
	.cfi_def_cfa_register 5
	.loc 1 4108 0
	call	att_op_get_type
.LVL99:
	decl	%eax
	cmpb	$4, %al
	ja	.L123
	movzbl	%al, %eax
	movl	CSWTCH.47(,%eax,4), %eax
	jmp	.L122
.L123:
	movl	$att_pdu_sent, %eax
.L122:
	.loc 1 4119 0
	popl	%ebp
	.cfi_restore 5
	.cfi_def_cfa 4, 4
	ret
	.cfi_endproc
.LFE154:
	.size	att_cb.isra.3, .-att_cb.isra.3
	.section	.text.unlikely.att_cb.isra.3
.LCOLDE12:
	.section	.text.att_cb.isra.3
.LHOTE12:
	.section	.text.unlikely.uuid_create,"ax",@progbits
.LCOLDB13:
	.section	.text.uuid_create,"ax",@progbits
.LHOTB13:
	.type	uuid_create, @function
uuid_create:
.LFB101:
	.loc 1 4479 0
	.cfi_startproc
.LVL100:
	pushl	%ebp
	.cfi_def_cfa_offset 8
	.cfi_offset 5, -8
	movl	%esp, %ebp
	.cfi_def_cfa_register 5
	pushl	%edi
	pushl	%esi
	pushl	%ebx
	subl	$12, %esp
	.cfi_offset 7, -12
	.cfi_offset 6, -16
	.cfi_offset 3, -20
	.loc 1 4480 0
	movl	12(%edx), %ecx
	cmpw	$2, %cx
	je	.L127
	cmpw	$16, %cx
	jne	.L133
.LVL101:
.LBB84:
.LBB85:
	.loc 1 4494 0
	movb	$2, (%eax)
	.loc 1 4495 0
	incl	%eax
.LVL102:
	movzwl	12(%edx), %ecx
	movl	8(%edx), %esi
	movl	%eax, %edi
	rep movsb
	jmp	.L132
.LVL103:
.L127:
.LBE85:
.LBE84:
	.loc 1 4489 0
	subl	$12, %esp
	addl	$8, %edx
.LVL104:
	.loc 1 4482 0
	movb	$0, (%eax)
	.loc 1 4489 0
	pushl	%edx
	movl	%eax, %ebx
	call	net_buf_simple_pull_le16
.LVL105:
	.loc 1 4491 0
	addl	$16, %esp
	.loc 1 4489 0
	movw	%ax, 2(%ebx)
.LVL106:
.L132:
.LBB87:
.LBB86:
	.loc 1 4495 0
	movb	$1, %al
	jmp	.L126
.LVL107:
.L133:
.LBE86:
.LBE87:
	.loc 1 4507 0
	xorl	%eax, %eax
.LVL108:
.L126:
	.loc 1 4509 0
	leal	-12(%ebp), %esp
	popl	%ebx
	.cfi_restore 3
	popl	%esi
	.cfi_restore 6
	popl	%edi
	.cfi_restore 7
	popl	%ebp
	.cfi_restore 5
	.cfi_def_cfa 4, 4
	ret
	.cfi_endproc
.LFE101:
	.size	uuid_create, .-uuid_create
	.section	.text.unlikely.uuid_create
.LCOLDE13:
	.section	.text.uuid_create
.LHOTE13:
	.section	.text.unlikely.att_is_connected,"ax",@progbits
.LCOLDB14:
	.section	.text.att_is_connected,"ax",@progbits
.LHOTB14:
	.type	att_is_connected, @function
att_is_connected:
.LFB89:
	.loc 1 4168 0
	.cfi_startproc
.LVL109:
	.loc 1 4169 0
	movl	(%eax), %edx
	cmpb	$3, 12(%edx)
	jne	.L136
.LVL110:
	.loc 1 4168 0 discriminator 2
	pushl	%ebp
	.cfi_def_cfa_offset 8
	.cfi_offset 5, -8
	.loc 1 4170 0 discriminator 2
	addl	$116, %eax
.LVL111:
	.loc 1 4168 0 discriminator 2
	movl	%esp, %ebp
	.cfi_def_cfa_register 5
	subl	$20, %esp
.LBB90:
.LBB91:
	.loc 1 850 0 discriminator 2
	pushl	%eax
	call	atomic_get
.LVL112:
	sarl	$2, %eax
.LBE91:
.LBE90:
	addl	$16, %esp
	andl	$1, %eax
	.loc 1 4171 0 discriminator 2
	leave
	.cfi_restore 5
	.cfi_def_cfa 4, 4
	.loc 1 4169 0 discriminator 2
	xorl	$1, %eax
	andl	$1, %eax
	.loc 1 4171 0 discriminator 2
	ret
.LVL113:
.L136:
	.loc 1 4169 0
	movl	$1, %eax
.LVL114:
	andl	$1, %eax
	.loc 1 4171 0
	ret
	.cfi_endproc
.LFE89:
	.size	att_is_connected, .-att_is_connected
	.section	.text.unlikely.att_is_connected
.LCOLDE14:
	.section	.text.att_is_connected
.LHOTE14:
	.section	.text.unlikely.att_send_req,"ax",@progbits
.LCOLDB15:
	.section	.text.att_send_req,"ax",@progbits
.LHOTB15:
	.type	att_send_req, @function
att_send_req:
.LFB90:
	.loc 1 4173 0
	.cfi_startproc
.LVL115:
	pushl	%ebp
	.cfi_def_cfa_offset 8
	.cfi_offset 5, -8
	movl	%esp, %ebp
	.cfi_def_cfa_register 5
	pushl	%edi
	pushl	%esi
	pushl	%ebx
	.cfi_offset 7, -12
	.cfi_offset 6, -16
	.cfi_offset 3, -20
	.loc 1 4176 0
	leal	168(%eax), %edi
	.loc 1 4173 0
	movl	%eax, %esi
	movl	%edx, %ebx
	subl	$20, %esp
	.loc 1 4175 0
	movl	%edx, 120(%eax)
	.loc 1 4176 0
	pushl	$-1
	pushl	%edi
	call	k_sem_take
.LVL116:
	.loc 1 4177 0
	movl	%esi, %eax
	call	att_is_connected
.LVL117:
	addl	$16, %esp
	testb	%al, %al
	jne	.L140
	.loc 1 4179 0
	subl	$12, %esp
	pushl	%edi
	call	k_sem_give
.LVL118:
	.loc 1 4180 0
	addl	$16, %esp
	movl	$-57, %eax
	jmp	.L141
.L140:
	.loc 1 4182 0
	movl	16(%ebx), %edi
.LVL119:
.LBB94:
.LBB95:
	.loc 1 2748 0
	subl	$12, %esp
.LBE95:
.LBE94:
	.loc 1 4182 0
	leal	8(%edi), %eax
.LVL120:
.LBB97:
.LBB96:
	.loc 1 2748 0
	pushl	%eax
	call	net_buf_simple_headroom
.LVL121:
	movw	%ax, 12(%ebx)
	.loc 1 2749 0
	movl	12(%edi), %eax
	movw	%ax, 14(%ebx)
.LVL122:
.LBE96:
.LBE97:
	.loc 1 4183 0
	movl	16(%ebx), %ebx
.LVL123:
	movl	8(%ebx), %eax
	call	att_cb.isra.3
.LVL124:
	movl	%eax, %edi
	movl	%ebx, (%esp)
	call	net_buf_ref
.LVL125:
	pushl	%edi
	pushl	%eax
	pushl	$4
	pushl	(%esi)
	call	bt_l2cap_send_cb
.LVL126:
	.loc 1 4185 0
	addl	$32, %esp
	xorl	%eax, %eax
.L141:
	.loc 1 4186 0
	leal	-12(%ebp), %esp
	popl	%ebx
	.cfi_restore 3
	popl	%esi
	.cfi_restore 6
.LVL127:
	popl	%edi
	.cfi_restore 7
	popl	%ebp
	.cfi_restore 5
	.cfi_def_cfa 4, 4
	ret
	.cfi_endproc
.LFE90:
	.size	att_send_req, .-att_send_req
	.section	.text.unlikely.att_send_req
.LCOLDE15:
	.section	.text.att_send_req
.LHOTE15:
	.section	.text.unlikely.att_handle_rsp,"ax",@progbits
.LCOLDB16:
	.section	.text.att_handle_rsp,"ax",@progbits
.LHOTB16:
	.type	att_handle_rsp, @function
att_handle_rsp:
.LFB92:
	.loc 1 4204 0
	.cfi_startproc
.LVL128:
	pushl	%ebp
	.cfi_def_cfa_offset 8
	.cfi_offset 5, -8
	movl	%esp, %ebp
	.cfi_def_cfa_register 5
	pushl	%edi
	pushl	%esi
	pushl	%ebx
	.cfi_offset 7, -12
	.cfi_offset 6, -16
	.cfi_offset 3, -20
	movl	%eax, %ebx
	movl	%edx, %edi
	movl	%ecx, %esi
	subl	$40, %esp
	.loc 1 4204 0
	movl	8(%ebp), %eax
.LVL129:
	movl	%eax, -28(%ebp)
	.loc 1 4207 0
	leal	132(%ebx), %eax
	pushl	%eax
	call	k_delayed_work_cancel
.LVL130:
	.loc 1 4208 0
	movl	120(%ebx), %eax
	addl	$16, %esp
	testl	%eax, %eax
	je	.L144
	.loc 1 4212 0
	movl	16(%eax), %eax
	testl	%eax, %eax
	je	.L145
	.loc 1 4213 0
	subl	$12, %esp
	pushl	%eax
	call	net_buf_unref
.LVL131:
	.loc 1 4214 0
	movl	120(%ebx), %eax
	addl	$16, %esp
	movl	$0, 16(%eax)
.L145:
	.loc 1 4218 0
	movl	120(%ebx), %eax
	.loc 1 4222 0
	subl	$12, %esp
	movzwl	%si, %esi
	.loc 1 4218 0
	movl	4(%eax), %edx
.LVL132:
	.loc 1 4219 0
	movl	$0, 4(%eax)
	.loc 1 4222 0
	pushl	%eax
	movzbl	-28(%ebp), %eax
	pushl	%esi
	pushl	%edi
	pushl	%eax
	pushl	(%ebx)
	call	*%edx
.LVL133:
	.loc 1 4223 0
	movl	120(%ebx), %eax
	addl	$32, %esp
	cmpl	$0, 4(%eax)
	jne	.L146
	.loc 1 4224 0
	call	att_req_destroy
.LVL134:
.L146:
	.loc 1 4226 0
	movl	$0, 120(%ebx)
.L144:
.LVL135:
	movl	124(%ebx), %edx
.LVL136:
.LBB104:
.LBB105:
.LBB106:
.LBB107:
	.loc 1 171 0
	testl	%edx, %edx
	je	.L152
.LVL137:
.LBB108:
.LBB109:
	.loc 1 162 0
	cmpl	128(%ebx), %edx
	.loc 1 161 0
	movl	(%edx), %eax
	movl	%eax, 124(%ebx)
	.loc 1 162 0
	jne	.L148
	.loc 1 163 0
	movl	%eax, 128(%ebx)
.L148:
.LVL138:
.LBE109:
.LBE108:
.LBE107:
.LBE106:
	.loc 1 4195 0
	movl	%ebx, %eax
	call	att_send_req
.LVL139:
.L152:
.LBE105:
.LBE104:
	.loc 1 4232 0
	leal	-12(%ebp), %esp
	xorl	%eax, %eax
	popl	%ebx
	.cfi_restore 3
.LVL140:
	popl	%esi
	.cfi_restore 6
	popl	%edi
	.cfi_restore 7
.LVL141:
	popl	%ebp
	.cfi_restore 5
	.cfi_def_cfa 4, 4
	ret
	.cfi_endproc
.LFE92:
	.size	att_handle_rsp, .-att_handle_rsp
	.section	.text.unlikely.att_handle_rsp
.LCOLDE16:
	.section	.text.att_handle_rsp
.LHOTE16:
	.section	.text.unlikely.att_confirm,"ax",@progbits
.LCOLDB17:
	.section	.text.att_confirm,"ax",@progbits
.LHOTB17:
	.type	att_confirm, @function
att_confirm:
.LFB135:
	.loc 1 5083 0
	.cfi_startproc
.LVL142:
	pushl	%ebp
	.cfi_def_cfa_offset 8
	.cfi_offset 5, -8
	movl	%esp, %ebp
	.cfi_def_cfa_register 5
	.loc 1 5083 0
	movl	12(%ebp), %edx
	movl	8(%ebp), %eax
	.loc 1 5085 0
	movzwl	12(%edx), %ecx
	movl	8(%edx), %edx
	movl	$0, 8(%ebp)
.LVL143:
	.loc 1 5086 0
	popl	%ebp
	.cfi_restore 5
	.cfi_def_cfa 4, 4
	.loc 1 5085 0
	jmp	att_handle_rsp
.LVL144:
	.cfi_endproc
.LFE135:
	.size	att_confirm, .-att_confirm
	.section	.text.unlikely.att_confirm
.LCOLDE17:
	.section	.text.att_confirm
.LHOTE17:
	.section	.text.unlikely.att_handle_exec_write_rsp,"ax",@progbits
.LCOLDB18:
	.section	.text.att_handle_exec_write_rsp,"ax",@progbits
.LHOTB18:
	.type	att_handle_exec_write_rsp, @function
att_handle_exec_write_rsp:
.LFB164:
	.cfi_startproc
	pushl	%ebp
	.cfi_def_cfa_offset 8
	.cfi_offset 5, -8
	movl	%esp, %ebp
	.cfi_def_cfa_register 5
	popl	%ebp
	.cfi_restore 5
	.cfi_def_cfa 4, 4
	jmp	att_confirm
	.cfi_endproc
.LFE164:
	.size	att_handle_exec_write_rsp, .-att_handle_exec_write_rsp
	.section	.text.unlikely.att_handle_exec_write_rsp
.LCOLDE18:
	.section	.text.att_handle_exec_write_rsp
.LHOTE18:
	.section	.text.unlikely.att_handle_prepare_write_rsp,"ax",@progbits
.LCOLDB19:
	.section	.text.att_handle_prepare_write_rsp,"ax",@progbits
.LHOTB19:
	.type	att_handle_prepare_write_rsp, @function
att_handle_prepare_write_rsp:
.LFB166:
	.cfi_startproc
	pushl	%ebp
	.cfi_def_cfa_offset 8
	.cfi_offset 5, -8
	movl	%esp, %ebp
	.cfi_def_cfa_register 5
	popl	%ebp
	.cfi_restore 5
	.cfi_def_cfa 4, 4
	jmp	att_confirm
	.cfi_endproc
.LFE166:
	.size	att_handle_prepare_write_rsp, .-att_handle_prepare_write_rsp
	.section	.text.unlikely.att_handle_prepare_write_rsp
.LCOLDE19:
	.section	.text.att_handle_prepare_write_rsp
.LHOTE19:
	.section	.text.unlikely.att_handle_write_rsp,"ax",@progbits
.LCOLDB20:
	.section	.text.att_handle_write_rsp,"ax",@progbits
.LHOTB20:
	.type	att_handle_write_rsp, @function
att_handle_write_rsp:
.LFB168:
	.cfi_startproc
	pushl	%ebp
	.cfi_def_cfa_offset 8
	.cfi_offset 5, -8
	movl	%esp, %ebp
	.cfi_def_cfa_register 5
	popl	%ebp
	.cfi_restore 5
	.cfi_def_cfa 4, 4
	jmp	att_confirm
	.cfi_endproc
.LFE168:
	.size	att_handle_write_rsp, .-att_handle_write_rsp
	.section	.text.unlikely.att_handle_write_rsp
.LCOLDE20:
	.section	.text.att_handle_write_rsp
.LHOTE20:
	.section	.text.unlikely.att_handle_read_mult_rsp,"ax",@progbits
.LCOLDB21:
	.section	.text.att_handle_read_mult_rsp,"ax",@progbits
.LHOTB21:
	.type	att_handle_read_mult_rsp, @function
att_handle_read_mult_rsp:
.LFB170:
	.cfi_startproc
	pushl	%ebp
	.cfi_def_cfa_offset 8
	.cfi_offset 5, -8
	movl	%esp, %ebp
	.cfi_def_cfa_register 5
	popl	%ebp
	.cfi_restore 5
	.cfi_def_cfa 4, 4
	jmp	att_confirm
	.cfi_endproc
.LFE170:
	.size	att_handle_read_mult_rsp, .-att_handle_read_mult_rsp
	.section	.text.unlikely.att_handle_read_mult_rsp
.LCOLDE21:
	.section	.text.att_handle_read_mult_rsp
.LHOTE21:
	.section	.text.unlikely.att_handle_read_blob_rsp,"ax",@progbits
.LCOLDB22:
	.section	.text.att_handle_read_blob_rsp,"ax",@progbits
.LHOTB22:
	.type	att_handle_read_blob_rsp, @function
att_handle_read_blob_rsp:
.LFB172:
	.cfi_startproc
	pushl	%ebp
	.cfi_def_cfa_offset 8
	.cfi_offset 5, -8
	movl	%esp, %ebp
	.cfi_def_cfa_register 5
	popl	%ebp
	.cfi_restore 5
	.cfi_def_cfa 4, 4
	jmp	att_confirm
	.cfi_endproc
.LFE172:
	.size	att_handle_read_blob_rsp, .-att_handle_read_blob_rsp
	.section	.text.unlikely.att_handle_read_blob_rsp
.LCOLDE22:
	.section	.text.att_handle_read_blob_rsp
.LHOTE22:
	.section	.text.unlikely.att_handle_read_rsp,"ax",@progbits
.LCOLDB23:
	.section	.text.att_handle_read_rsp,"ax",@progbits
.LHOTB23:
	.type	att_handle_read_rsp, @function
att_handle_read_rsp:
.LFB174:
	.cfi_startproc
	pushl	%ebp
	.cfi_def_cfa_offset 8
	.cfi_offset 5, -8
	movl	%esp, %ebp
	.cfi_def_cfa_register 5
	popl	%ebp
	.cfi_restore 5
	.cfi_def_cfa 4, 4
	jmp	att_confirm
	.cfi_endproc
.LFE174:
	.size	att_handle_read_rsp, .-att_handle_read_rsp
	.section	.text.unlikely.att_handle_read_rsp
.LCOLDE23:
	.section	.text.att_handle_read_rsp
.LHOTE23:
	.section	.text.unlikely.att_handle_read_type_rsp,"ax",@progbits
.LCOLDB24:
	.section	.text.att_handle_read_type_rsp,"ax",@progbits
.LHOTB24:
	.type	att_handle_read_type_rsp, @function
att_handle_read_type_rsp:
.LFB176:
	.cfi_startproc
	pushl	%ebp
	.cfi_def_cfa_offset 8
	.cfi_offset 5, -8
	movl	%esp, %ebp
	.cfi_def_cfa_register 5
	popl	%ebp
	.cfi_restore 5
	.cfi_def_cfa 4, 4
	jmp	att_confirm
	.cfi_endproc
.LFE176:
	.size	att_handle_read_type_rsp, .-att_handle_read_type_rsp
	.section	.text.unlikely.att_handle_read_type_rsp
.LCOLDE24:
	.section	.text.att_handle_read_type_rsp
.LHOTE24:
	.section	.text.unlikely.att_handle_find_type_rsp,"ax",@progbits
.LCOLDB25:
	.section	.text.att_handle_find_type_rsp,"ax",@progbits
.LHOTB25:
	.type	att_handle_find_type_rsp, @function
att_handle_find_type_rsp:
.LFB178:
	.cfi_startproc
	pushl	%ebp
	.cfi_def_cfa_offset 8
	.cfi_offset 5, -8
	movl	%esp, %ebp
	.cfi_def_cfa_register 5
	popl	%ebp
	.cfi_restore 5
	.cfi_def_cfa 4, 4
	jmp	att_confirm
	.cfi_endproc
.LFE178:
	.size	att_handle_find_type_rsp, .-att_handle_find_type_rsp
	.section	.text.unlikely.att_handle_find_type_rsp
.LCOLDE25:
	.section	.text.att_handle_find_type_rsp
.LHOTE25:
	.section	.text.unlikely.att_handle_find_info_rsp,"ax",@progbits
.LCOLDB26:
	.section	.text.att_handle_find_info_rsp,"ax",@progbits
.LHOTB26:
	.type	att_handle_find_info_rsp, @function
att_handle_find_info_rsp:
.LFB180:
	.cfi_startproc
	pushl	%ebp
	.cfi_def_cfa_offset 8
	.cfi_offset 5, -8
	movl	%esp, %ebp
	.cfi_def_cfa_register 5
	popl	%ebp
	.cfi_restore 5
	.cfi_def_cfa 4, 4
	jmp	att_confirm
	.cfi_endproc
.LFE180:
	.size	att_handle_find_info_rsp, .-att_handle_find_info_rsp
	.section	.text.unlikely.att_handle_find_info_rsp
.LCOLDE26:
	.section	.text.att_handle_find_info_rsp
.LHOTE26:
	.section	.text.unlikely.att_mtu_rsp,"ax",@progbits
.LCOLDB27:
	.section	.text.att_mtu_rsp,"ax",@progbits
.LHOTB27:
	.type	att_mtu_rsp, @function
att_mtu_rsp:
.LFB93:
	.loc 1 4234 0
	.cfi_startproc
.LVL145:
	.loc 1 4234 0
	pushl	%ebp
	.cfi_def_cfa_offset 8
	.cfi_offset 5, -8
	movl	%esp, %ebp
	.cfi_def_cfa_register 5
	pushl	%esi
	pushl	%ebx
	.cfi_offset 6, -12
	.cfi_offset 3, -16
	.loc 1 4234 0
	movl	8(%ebp), %eax
	movl	12(%ebp), %ebx
	.loc 1 4237 0
	testl	%eax, %eax
	je	.L181
	.loc 1 4240 0
	movl	8(%ebx), %edx
.LVL146:
	.loc 1 4241 0
	movw	(%edx), %cx
.LVL147:
	.loc 1 4243 0
	cmpw	$22, %cx
	ja	.L182
.LVL148:
.LBB112:
.LBB113:
	.loc 1 4244 0
	movl	$4, 8(%ebp)
.LVL149:
	xorl	%ecx, %ecx
.LVL150:
	xorl	%edx, %edx
.LVL151:
	jmp	.L184
.LVL152:
.L182:
.LBE113:
.LBE112:
	.loc 1 4248 0
	cmpw	$65, %cx
	movl	$65, %esi
	cmova	%esi, %ecx
.LVL153:
	movw	%cx, 54(%eax)
	.loc 1 4249 0
	movw	%cx, 74(%eax)
	.loc 1 4251 0
	movzwl	12(%ebx), %ecx
	movl	$0, 8(%ebp)
.LVL154:
.L184:
	.loc 1 4252 0
	popl	%ebx
	.cfi_remember_state
	.cfi_restore 3
.LVL155:
	popl	%esi
	.cfi_restore 6
	popl	%ebp
	.cfi_restore 5
	.cfi_def_cfa 4, 4
	.loc 1 4251 0
	jmp	att_handle_rsp
.LVL156:
.L181:
	.cfi_restore_state
	.loc 1 4252 0
	popl	%ebx
	.cfi_restore 3
.LVL157:
	xorl	%eax, %eax
.LVL158:
	popl	%esi
	.cfi_restore 6
	popl	%ebp
	.cfi_restore 5
	.cfi_def_cfa 4, 4
	ret
	.cfi_endproc
.LFE93:
	.size	att_mtu_rsp, .-att_mtu_rsp
	.section	.text.unlikely.att_mtu_rsp
.LCOLDE27:
	.section	.text.att_mtu_rsp
.LHOTE27:
	.section	.text.unlikely.att_error_rsp,"ax",@progbits
.LCOLDB28:
	.section	.text.att_error_rsp,"ax",@progbits
.LHOTB28:
	.type	att_error_rsp, @function
att_error_rsp:
.LFB123:
	.loc 1 4986 0
	.cfi_startproc
.LVL159:
	pushl	%ebp
	.cfi_def_cfa_offset 8
	.cfi_offset 5, -8
	movl	%esp, %ebp
	.cfi_def_cfa_register 5
	pushl	%esi
	pushl	%ebx
	.cfi_offset 6, -12
	.cfi_offset 3, -16
	.loc 1 4989 0
	movl	12(%ebp), %eax
	.loc 1 4986 0
	movl	8(%ebp), %esi
	.loc 1 4989 0
	movl	8(%eax), %ecx
.LVL160:
	.loc 1 4991 0
	movl	120(%esi), %eax
	testl	%eax, %eax
	je	.L192
	.loc 1 4995 0
	movl	16(%eax), %edx
	testl	%edx, %edx
	je	.L187
.LVL161:
.LBB118:
.LBB119:
	.loc 1 2754 0
	movzwl	12(%eax), %ebx
	leal	16(%edx,%ebx), %ebx
	movl	%ebx, 8(%edx)
	.loc 1 2755 0
	movw	14(%eax), %bx
	movw	%bx, 12(%edx)
.LVL162:
.L187:
.LBE119:
.LBE118:
	.loc 1 4999 0
	cmpb	$0, 20(%eax)
	.loc 1 4998 0
	movzbl	3(%ecx), %ebx
.LVL163:
	.loc 1 4999 0
	jne	.L186
.LBB120:
.LBB121:
	.loc 1 4963 0
	cmpb	$5, %bl
.LBE121:
.LBE120:
	.loc 1 5002 0
	movl	(%esi), %edx
.LVL164:
.LBB123:
.LBB122:
	.loc 1 4963 0
	je	.L188
	cmpb	$15, %bl
	jne	.L186
	.loc 1 4965 0
	cmpb	$1, 8(%edx)
	jbe	.L193
	jmp	.L186
.L188:
	.loc 1 4970 0
	movb	8(%edx), %al
	cmpb	$1, %al
	jbe	.L193
	.loc 1 4972 0
	cmpb	$2, %al
	je	.L194
	.loc 1 4974 0
	cmpb	$3, %al
	jne	.L186
	.loc 1 4975 0
	movl	$4, %eax
	jmp	.L190
.L193:
	.loc 1 4967 0
	movl	$2, %eax
	jmp	.L190
.L194:
	.loc 1 4973 0
	movl	$3, %eax
.L190:
.LVL165:
.LVL166:
	.loc 1 4983 0
	pushl	%ecx
	pushl	%ecx
	pushl	%eax
	pushl	%edx
	call	bt_conn_security
.LVL167:
.LBE122:
.LBE123:
	.loc 1 5002 0
	addl	$16, %esp
	testl	%eax, %eax
	je	.L201
	jmp	.L186
.LVL168:
.L192:
	.loc 1 4992 0
	movl	$14, %ebx
.LVL169:
.L186:
	.loc 1 5009 0
	movl	%ebx, 8(%ebp)
	.loc 1 5012 0
	leal	-8(%ebp), %esp
	.loc 1 5009 0
	movl	%esi, %eax
	xorl	%ecx, %ecx
	xorl	%edx, %edx
	.loc 1 5012 0
	popl	%ebx
	.cfi_remember_state
	.cfi_restore 3
.LVL170:
	popl	%esi
	.cfi_restore 6
	popl	%ebp
	.cfi_restore 5
	.cfi_def_cfa 4, 4
	.loc 1 5009 0
	jmp	att_handle_rsp
.LVL171:
.L201:
	.cfi_restore_state
	.loc 1 5003 0
	movl	120(%esi), %eax
	movb	$1, 20(%eax)
	.loc 1 5012 0
	leal	-8(%ebp), %esp
	xorl	%eax, %eax
	popl	%ebx
	.cfi_restore 3
.LVL172:
	popl	%esi
	.cfi_restore 6
	popl	%ebp
	.cfi_restore 5
	.cfi_def_cfa 4, 4
	ret
	.cfi_endproc
.LFE123:
	.size	att_error_rsp, .-att_error_rsp
	.section	.text.unlikely.att_error_rsp
.LCOLDE28:
	.section	.text.att_error_rsp
.LHOTE28:
	.section	.text.unlikely.att_reset,"ax",@progbits
.LCOLDB29:
	.section	.text.att_reset,"ax",@progbits
.LHOTB29:
	.type	att_reset, @function
att_reset:
.LFB140:
	.loc 1 5331 0
	.cfi_startproc
.LVL173:
	pushl	%ebp
	.cfi_def_cfa_offset 8
	.cfi_offset 5, -8
	movl	%esp, %ebp
	.cfi_def_cfa_register 5
	pushl	%edi
	pushl	%esi
	pushl	%ebx
	.cfi_offset 7, -12
	.cfi_offset 6, -16
	.cfi_offset 3, -20
	movl	%eax, %ebx
	.loc 1 5334 0
	addl	$116, %eax
.LVL174:
	.loc 1 5331 0
	subl	$20, %esp
.LBB144:
.LBB145:
	.loc 1 875 0
	pushl	$4
	pushl	%eax
	call	atomic_or
.LVL175:
.LBE145:
.LBE144:
	.loc 1 5336 0
	leal	168(%ebx), %eax
	movl	%eax, (%esp)
	call	k_sem_give
.LVL176:
	movl	124(%ebx), %esi
.LVL177:
	.loc 1 5344 0
	addl	$16, %esp
	testl	%esi, %esi
	jne	.L203
.LVL178:
.L207:
	.loc 1 5377 0
	cmpl	$0, 120(%ebx)
.LBB146:
.LBB147:
	.loc 1 73 0
	movl	$0, 124(%ebx)
	.loc 1 76 0
	movl	$0, 128(%ebx)
.LVL179:
.LBE147:
.LBE146:
	.loc 1 5377 0
	je	.L202
	.loc 1 5380 0
	subl	$12, %esp
	xorl	%ecx, %ecx
	xorl	%edx, %edx
	pushl	$14
	movl	%ebx, %eax
	call	att_handle_rsp
.LVL180:
	addl	$16, %esp
	jmp	.L202
.LVL181:
.L203:
.LBB148:
.LBB149:
.LBB150:
	.loc 1 96 0
	movl	(%esi), %edi
.LVL182:
.L208:
.LBE150:
.LBE149:
.LBE148:
	.loc 1 5367 0
	movl	4(%esi), %eax
	testl	%eax, %eax
	je	.L206
	.loc 1 5368 0
	subl	$12, %esp
	pushl	%esi
	pushl	$0
	pushl	$0
	pushl	$14
	pushl	$0
	call	*%eax
.LVL183:
	addl	$32, %esp
.L206:
	.loc 1 5374 0
	movl	%esi, %eax
	call	att_req_destroy
.LVL184:
	.loc 1 5364 0
	testl	%edi, %edi
	je	.L207
.LVL185:
.LBB151:
.LBB152:
.LBB153:
	.loc 1 96 0
	movl	%edi, %esi
.LBE153:
.LBE152:
.LBE151:
	.loc 1 5362 0
	movl	(%edi), %edi
.LVL186:
	jmp	.L208
.LVL187:
.L202:
	.loc 1 5383 0
	leal	-12(%ebp), %esp
	popl	%ebx
	.cfi_restore 3
.LVL188:
	popl	%esi
	.cfi_restore 6
	popl	%edi
	.cfi_restore 7
	popl	%ebp
	.cfi_restore 5
	.cfi_def_cfa 4, 4
	ret
	.cfi_endproc
.LFE140:
	.size	att_reset, .-att_reset
	.section	.text.unlikely.att_reset
.LCOLDE29:
	.section	.text.att_reset
.LHOTE29:
	.section	.text.unlikely.bt_att_disconnected,"ax",@progbits
.LCOLDB30:
	.section	.text.bt_att_disconnected,"ax",@progbits
.LHOTB30:
	.type	bt_att_disconnected, @function
bt_att_disconnected:
.LFB143:
	.loc 1 5425 0
	.cfi_startproc
.LVL189:
	pushl	%ebp
	.cfi_def_cfa_offset 8
	.cfi_offset 5, -8
	movl	%esp, %ebp
	.cfi_def_cfa_register 5
	pushl	%edi
	pushl	%ebx
	.cfi_offset 7, -12
	.cfi_offset 3, -16
	.loc 1 5425 0
	movl	8(%ebp), %ebx
.LVL190:
	.loc 1 5441 0
	movl	%ebx, %eax
	.loc 1 5443 0
	movl	%ebx, %edi
	.loc 1 5441 0
	call	att_reset
.LVL191:
	.loc 1 5442 0
	subl	$12, %esp
	pushl	(%ebx)
	call	bt_gatt_disconnected
.LVL192:
	.loc 1 5443 0
	movl	$45, %ecx
	xorl	%eax, %eax
	.loc 1 5444 0
	addl	$16, %esp
	.loc 1 5443 0
	rep stosl
	.loc 1 5444 0
	leal	-8(%ebp), %esp
	popl	%ebx
	.cfi_restore 3
	popl	%edi
	.cfi_restore 7
	popl	%ebp
	.cfi_restore 5
	.cfi_def_cfa 4, 4
	ret
	.cfi_endproc
.LFE143:
	.size	bt_att_disconnected, .-bt_att_disconnected
	.section	.text.unlikely.bt_att_disconnected
.LCOLDE30:
	.section	.text.bt_att_disconnected
.LHOTE30:
	.section	.text.unlikely.att_timeout,"ax",@progbits
.LCOLDB31:
	.section	.text.att_timeout,"ax",@progbits
.LHOTB31:
	.type	att_timeout, @function
att_timeout:
.LFB141:
	.loc 1 5385 0
	.cfi_startproc
.LVL193:
	pushl	%ebp
	.cfi_def_cfa_offset 8
	.cfi_offset 5, -8
	movl	%esp, %ebp
	.cfi_def_cfa_register 5
	pushl	%ebx
	pushl	%eax
	.cfi_offset 3, -12
	.loc 1 5385 0
	movl	8(%ebp), %ebx
.LVL194:
	.loc 1 5395 0
	leal	-132(%ebx), %eax
.LVL195:
	call	att_reset
.LVL196:
	.loc 1 5396 0
	subl	$12, %esp
	pushl	-132(%ebx)
	call	bt_gatt_disconnected
.LVL197:
	.loc 1 5397 0
	movl	$0, -132(%ebx)
	.loc 1 5400 0
	addl	$16, %esp
	movl	-4(%ebp), %ebx
.LVL198:
	leave
	.cfi_restore 5
	.cfi_restore 3
	.cfi_def_cfa 4, 4
	ret
	.cfi_endproc
.LFE141:
	.size	att_timeout, .-att_timeout
	.section	.text.unlikely.att_timeout
.LCOLDE31:
	.section	.text.att_timeout
.LHOTE31:
	.section	.text.unlikely.bt_att_encrypt_change,"ax",@progbits
.LCOLDB32:
	.section	.text.bt_att_encrypt_change,"ax",@progbits
.LHOTB32:
	.type	bt_att_encrypt_change, @function
bt_att_encrypt_change:
.LFB144:
	.loc 1 5447 0
	.cfi_startproc
.LVL199:
	pushl	%ebp
	.cfi_def_cfa_offset 8
	.cfi_offset 5, -8
	movl	%esp, %ebp
	.cfi_def_cfa_register 5
	pushl	%edi
	pushl	%esi
	pushl	%ebx
	subl	$12, %esp
	.cfi_offset 7, -12
	.cfi_offset 6, -16
	.cfi_offset 3, -20
	.loc 1 5464 0
	cmpb	$0, 12(%ebp)
	.loc 1 5447 0
	movl	8(%ebp), %ebx
.LVL200:
	.loc 1 5464 0
	je	.L222
.LVL201:
.LBB156:
.LBB157:
	.loc 1 5465 0
	movl	$5, 8(%ebp)
.LVL202:
.LBE157:
.LBE156:
	.loc 1 5488 0
	leal	-12(%ebp), %esp
.LBB160:
.LBB158:
	.loc 1 5465 0
	movl	%ebx, %eax
	xorl	%ecx, %ecx
	xorl	%edx, %edx
.LBE158:
.LBE160:
	.loc 1 5488 0
	popl	%ebx
	.cfi_remember_state
	.cfi_restore 3
.LVL203:
	popl	%esi
	.cfi_restore 6
	popl	%edi
	.cfi_restore 7
	popl	%ebp
	.cfi_restore 5
	.cfi_def_cfa 4, 4
.LBB161:
.LBB159:
	.loc 1 5465 0
	jmp	att_handle_rsp
.LVL204:
.L222:
	.cfi_restore_state
.LBE159:
.LBE161:
	.loc 1 5462 0
	movl	(%ebx), %esi
	.loc 1 5470 0
	cmpb	$1, 8(%esi)
	je	.L221
	.loc 1 5473 0
	movl	120(%ebx), %eax
	testl	%eax, %eax
	je	.L221
	.loc 1 5473 0 is_stmt 0 discriminator 1
	cmpb	$0, 20(%eax)
	je	.L221
	.loc 1 5476 0 is_stmt 1
	leal	168(%ebx), %edi
	pushl	%eax
.LVL205:
	pushl	%eax
	pushl	$-1
	pushl	%edi
	call	k_sem_take
.LVL206:
	.loc 1 5477 0
	movl	%ebx, %eax
	call	att_is_connected
.LVL207:
	addl	$16, %esp
	testb	%al, %al
	jne	.L224
	.loc 1 5479 0
	movl	%edi, 8(%ebp)
	.loc 1 5488 0
	leal	-12(%ebp), %esp
	popl	%ebx
	.cfi_remember_state
	.cfi_restore 3
.LVL208:
	popl	%esi
	.cfi_restore 6
	popl	%edi
	.cfi_restore 7
.LVL209:
	popl	%ebp
	.cfi_restore 5
	.cfi_def_cfa 4, 4
	.loc 1 5479 0
	jmp	k_sem_give
.LVL210:
.L224:
	.cfi_restore_state
	.loc 1 5483 0
	movl	120(%ebx), %eax
	movl	16(%eax), %edi
	movl	8(%edi), %eax
	call	att_cb.isra.3
.LVL211:
	pushl	%eax
	pushl	%edi
	pushl	$4
	pushl	%esi
	call	bt_l2cap_send_cb
.LVL212:
	.loc 1 5485 0
	movl	120(%ebx), %eax
	addl	$16, %esp
	movl	$0, 16(%eax)
.L221:
	.loc 1 5488 0
	leal	-12(%ebp), %esp
	popl	%ebx
	.cfi_restore 3
.LVL213:
	popl	%esi
	.cfi_restore 6
	popl	%edi
	.cfi_restore 7
	popl	%ebp
	.cfi_restore 5
	.cfi_def_cfa 4, 4
	ret
	.cfi_endproc
.LFE144:
	.size	bt_att_encrypt_change, .-bt_att_encrypt_change
	.section	.text.unlikely.bt_att_encrypt_change
.LCOLDE32:
	.section	.text.bt_att_encrypt_change
.LHOTE32:
	.section	.text.unlikely.att_prepare_write_req,"ax",@progbits
.LCOLDB33:
	.section	.text.att_prepare_write_req,"ax",@progbits
.LHOTB33:
	.type	att_prepare_write_req, @function
att_prepare_write_req:
.LFB162:
	.cfi_startproc
	pushl	%ebp
	.cfi_def_cfa_offset 8
	.cfi_offset 5, -8
	movb	$6, %al
	movl	%esp, %ebp
	.cfi_def_cfa_register 5
	popl	%ebp
	.cfi_restore 5
	.cfi_def_cfa 4, 4
	ret
	.cfi_endproc
.LFE162:
	.size	att_prepare_write_req, .-att_prepare_write_req
	.section	.text.unlikely.att_prepare_write_req
.LCOLDE33:
	.section	.text.att_prepare_write_req
.LHOTE33:
	.section	.text.unlikely.att_chan_get,"ax",@progbits
.LCOLDB34:
	.section	.text.att_chan_get,"ax",@progbits
.LHOTB34:
	.type	att_chan_get, @function
att_chan_get:
.LFB138:
	.loc 1 5275 0
	.cfi_startproc
.LVL214:
	.loc 1 5278 0
	cmpb	$3, 12(%eax)
	jne	.L240
.LVL215:
	.loc 1 5275 0
	pushl	%ebp
	.cfi_def_cfa_offset 8
	.cfi_offset 5, -8
	movl	%esp, %ebp
	.cfi_def_cfa_register 5
	pushl	%ebx
	subl	$12, %esp
	.cfi_offset 3, -12
.LBB166:
.LBB167:
	.loc 1 5284 0
	pushl	$4
	pushl	%eax
	call	bt_l2cap_le_lookup_rx_cid
.LVL216:
	.loc 1 5285 0
	addl	$16, %esp
	testl	%eax, %eax
	.loc 1 5284 0
	movl	%eax, %ebx
.LVL217:
	.loc 1 5285 0
	jne	.L241
.LVL218:
.L234:
.LBE167:
.LBE166:
	.loc 1 5281 0
	xorl	%eax, %eax
	jmp	.L233
.LVL219:
.L241:
.LBB171:
.LBB170:
	.loc 1 5298 0
	leal	116(%eax), %eax
.LVL220:
.LBB168:
.LBB169:
	.loc 1 850 0
	subl	$12, %esp
	pushl	%eax
	call	atomic_get
.LVL221:
.LBE169:
.LBE168:
	.loc 1 5298 0
	addl	$16, %esp
	testb	$4, %al
	jne	.L234
	movl	%ebx, %eax
.LVL222:
.L233:
.LBE170:
.LBE171:
	.loc 1 5305 0
	movl	-4(%ebp), %ebx
.LVL223:
	leave
	.cfi_restore 5
	.cfi_restore 3
	.cfi_def_cfa 4, 4
	ret
.LVL224:
.L240:
	.loc 1 5281 0
	xorl	%eax, %eax
.LVL225:
	.loc 1 5305 0
	ret
	.cfi_endproc
.LFE138:
	.size	att_chan_get, .-att_chan_get
	.section	.text.unlikely.att_chan_get
.LCOLDE34:
	.section	.text.att_chan_get
.LHOTE34:
	.section	.text.unlikely.att_pdu_sent,"ax",@progbits
.LCOLDB35:
	.section	.text.att_pdu_sent,"ax",@progbits
.LHOTB35:
	.type	att_pdu_sent, @function
att_pdu_sent:
.LFB85:
	.loc 1 4101 0
	.cfi_startproc
.LVL226:
	pushl	%ebp
	.cfi_def_cfa_offset 8
	.cfi_offset 5, -8
	movl	%esp, %ebp
	.cfi_def_cfa_register 5
.LVL227:
	subl	$16, %esp
.LBB174:
.LBB175:
	.loc 1 4069 0
	pushl	$4
	pushl	8(%ebp)
	call	bt_l2cap_le_lookup_tx_cid
.LVL228:
.LBE175:
.LBE174:
	.loc 1 4104 0
	addl	$168, %eax
	addl	$16, %esp
	movl	%eax, 8(%ebp)
	.loc 1 4105 0
	leave
	.cfi_restore 5
	.cfi_def_cfa 4, 4
	.loc 1 4104 0
	jmp	k_sem_give
.LVL229:
	.cfi_endproc
.LFE85:
	.size	att_pdu_sent, .-att_pdu_sent
	.section	.text.unlikely.att_pdu_sent
.LCOLDE35:
	.section	.text.att_pdu_sent
.LHOTE35:
	.section	.text.unlikely.att_rsp_sent,"ax",@progbits
.LCOLDB36:
	.section	.text.att_rsp_sent,"ax",@progbits
.LHOTB36:
	.type	att_rsp_sent, @function
att_rsp_sent:
.LFB182:
	.cfi_startproc
	pushl	%ebp
	.cfi_def_cfa_offset 8
	.cfi_offset 5, -8
	movl	%esp, %ebp
	.cfi_def_cfa_register 5
	popl	%ebp
	.cfi_restore 5
	.cfi_def_cfa 4, 4
	jmp	att_pdu_sent
	.cfi_endproc
.LFE182:
	.size	att_rsp_sent, .-att_rsp_sent
	.section	.text.unlikely.att_rsp_sent
.LCOLDE36:
	.section	.text.att_rsp_sent
.LHOTE36:
	.section	.text.unlikely.att_cfm_sent,"ax",@progbits
.LCOLDB37:
	.section	.text.att_cfm_sent,"ax",@progbits
.LHOTB37:
	.type	att_cfm_sent, @function
att_cfm_sent:
.LFB184:
	.cfi_startproc
	pushl	%ebp
	.cfi_def_cfa_offset 8
	.cfi_offset 5, -8
	movl	%esp, %ebp
	.cfi_def_cfa_register 5
	popl	%ebp
	.cfi_restore 5
	.cfi_def_cfa 4, 4
	jmp	att_pdu_sent
	.cfi_endproc
.LFE184:
	.size	att_cfm_sent, .-att_cfm_sent
	.section	.text.unlikely.att_cfm_sent
.LCOLDE37:
	.section	.text.att_cfm_sent
.LHOTE37:
	.section	.text.unlikely.write_cb,"ax",@progbits
.LCOLDB38:
	.section	.text.write_cb,"ax",@progbits
.LHOTB38:
	.type	write_cb, @function
write_cb:
.LFB115:
	.loc 1 4863 0
	.cfi_startproc
.LVL230:
	.loc 1 4863 0
	pushl	%ebp
	.cfi_def_cfa_offset 8
	.cfi_offset 5, -8
	.loc 1 4867 0
	movl	$42, %ecx
	.loc 1 4863 0
	movl	%esp, %ebp
	.cfi_def_cfa_register 5
	pushl	%edi
	pushl	%esi
	pushl	%ebx
	subl	$28, %esp
	.cfi_offset 7, -12
	.cfi_offset 6, -16
	.cfi_offset 3, -20
	.loc 1 4863 0
	movl	12(%ebp), %ebx
.LVL231:
	movl	8(%ebp), %esi
	.loc 1 4867 0
	movl	(%ebx), %edi
	movl	%esi, %edx
	movl	%edi, %eax
	call	check_perm
.LVL232:
	.loc 1 4869 0
	xorl	%edx, %edx
	.loc 1 4868 0
	testb	%al, %al
	.loc 1 4867 0
	movb	%al, 20(%ebx)
	.loc 1 4868 0
	jne	.L249
	movb	%al, -25(%ebp)
	.loc 1 4871 0
	pushl	%eax
	pushl	%eax
	movzwl	18(%ebx), %eax
	pushl	$0
	pushl	%eax
	movzbl	16(%ebx), %eax
	pushl	%eax
	pushl	12(%ebx)
	pushl	%esi
	pushl	%edi
	call	*8(%esi)
.LVL233:
	.loc 1 4873 0
	addl	$32, %esp
	testl	%eax, %eax
	movb	-25(%ebp), %dl
	js	.L250
	.loc 1 4873 0 is_stmt 0 discriminator 1
	movzbl	16(%ebx), %ecx
	cmpl	%ecx, %eax
	je	.L251
.L250:
.LVL234:
.LBB178:
.LBB179:
	.loc 1 4537 0 is_stmt 1
	leal	255(%eax), %ecx
	.loc 1 4538 0
	negl	%eax
.LVL235:
	cmpl	$254, %ecx
	movb	$14, %cl
	cmova	%ecx, %eax
.LVL236:
.LBE179:
.LBE178:
	.loc 1 4874 0
	movb	%al, 20(%ebx)
	.loc 1 4875 0
	jmp	.L249
.LVL237:
.L251:
	.loc 1 4877 0
	movb	$0, 20(%ebx)
	.loc 1 4878 0
	movb	$1, %dl
.LVL238:
.L249:
	.loc 1 4879 0
	leal	-12(%ebp), %esp
	movb	%dl, %al
	popl	%ebx
	.cfi_restore 3
.LVL239:
	popl	%esi
	.cfi_restore 6
	popl	%edi
	.cfi_restore 7
	popl	%ebp
	.cfi_restore 5
	.cfi_def_cfa 4, 4
	ret
	.cfi_endproc
.LFE115:
	.size	write_cb, .-write_cb
	.section	.text.unlikely.write_cb
.LCOLDE38:
	.section	.text.write_cb
.LHOTE38:
	.section	.text.unlikely.read_cb,"ax",@progbits
.LCOLDB39:
	.section	.text.read_cb,"ax",@progbits
.LHOTB39:
	.type	read_cb, @function
read_cb:
.LFB107:
	.loc 1 4648 0
	.cfi_startproc
.LVL240:
	pushl	%ebp
	.cfi_def_cfa_offset 8
	.cfi_offset 5, -8
	movl	%esp, %ebp
	.cfi_def_cfa_register 5
	pushl	%edi
	pushl	%esi
	pushl	%ebx
	subl	$36, %esp
	.cfi_offset 7, -12
	.cfi_offset 6, -16
	.cfi_offset 3, -20
	.loc 1 4648 0
	movl	12(%ebp), %ebx
.LVL241:
	.loc 1 4654 0
	movl	8(%ebx), %eax
	.loc 1 4650 0
	movl	(%ebx), %edi
.LVL242:
	.loc 1 4654 0
	addl	$8, %eax
	.loc 1 4651 0
	movl	(%edi), %esi
.LVL243:
	.loc 1 4654 0
	pushl	$0
	pushl	%eax
	call	net_buf_simple_add
.LVL244:
	.loc 1 4656 0
	movl	8(%ebp), %edx
	.loc 1 4654 0
	movl	%eax, 12(%ebx)
	.loc 1 4656 0
	movl	$21, %ecx
	.loc 1 4655 0
	movb	$0, 16(%ebx)
	.loc 1 4656 0
	movl	%esi, %eax
	call	check_perm
.LVL245:
	.loc 1 4657 0
	addl	$16, %esp
	.loc 1 4658 0
	xorl	%edx, %edx
	.loc 1 4657 0
	testb	%al, %al
	.loc 1 4656 0
	movb	%al, 16(%ebx)
	.loc 1 4657 0
	jne	.L257
	.loc 1 4660 0
	movzwl	4(%ebx), %ecx
	movb	%al, -25(%ebp)
	subl	$12, %esp
	.loc 1 4661 0
	movl	8(%ebx), %eax
	movzwl	12(%eax), %eax
	.loc 1 4660 0
	pushl	%ecx
	movw	74(%edi), %cx
	movl	8(%ebx), %edi
.LVL246:
	subl	%eax, %ecx
	movzwl	%cx, %ecx
	pushl	%ecx
	addl	8(%edi), %eax
	pushl	%eax
	movl	8(%ebp), %eax
	pushl	8(%ebp)
	pushl	%esi
	call	*4(%eax)
.LVL247:
	.loc 1 4662 0
	addl	$32, %esp
	testl	%eax, %eax
	movb	-25(%ebp), %dl
	jns	.L258
.LVL248:
.LBB182:
.LBB183:
	.loc 1 4537 0
	leal	255(%eax), %ecx
	.loc 1 4538 0
	negl	%eax
.LVL249:
	cmpl	$254, %ecx
	movb	$14, %cl
	cmova	%ecx, %eax
.LVL250:
.LBE183:
.LBE182:
	.loc 1 4663 0
	movb	%al, 16(%ebx)
	.loc 1 4664 0
	jmp	.L257
.LVL251:
.L258:
	.loc 1 4666 0
	pushl	%edx
	pushl	%edx
	pushl	%eax
	movl	8(%ebx), %eax
.LVL252:
	addl	$8, %eax
	pushl	%eax
.LVL253:
	call	net_buf_simple_add
.LVL254:
	.loc 1 4667 0
	addl	$16, %esp
	movb	$1, %dl
.L257:
	.loc 1 4668 0
	leal	-12(%ebp), %esp
	movb	%dl, %al
	popl	%ebx
	.cfi_restore 3
.LVL255:
	popl	%esi
	.cfi_restore 6
.LVL256:
	popl	%edi
	.cfi_restore 7
	popl	%ebp
	.cfi_restore 5
	.cfi_def_cfa 4, 4
	ret
	.cfi_endproc
.LFE107:
	.size	read_cb, .-read_cb
	.section	.text.unlikely.read_cb
.LCOLDE39:
	.section	.text.read_cb
.LHOTE39:
	.section	.text.unlikely.bt_att_create_pdu,"ax",@progbits
.LCOLDB40:
	.section	.text.bt_att_create_pdu,"ax",@progbits
.LHOTB40:
	.globl	bt_att_create_pdu
	.type	bt_att_create_pdu, @function
bt_att_create_pdu:
.LFB139:
	.loc 1 5307 0
	.cfi_startproc
.LVL257:
	pushl	%ebp
	.cfi_def_cfa_offset 8
	.cfi_offset 5, -8
	movl	%esp, %ebp
	.cfi_def_cfa_register 5
	pushl	%esi
	pushl	%ebx
	.cfi_offset 6, -12
	.cfi_offset 3, -16
	.loc 1 5311 0
	movl	8(%ebp), %eax
	.loc 1 5307 0
	movl	12(%ebp), %esi
	.loc 1 5311 0
	call	att_chan_get
.LVL258:
	.loc 1 5314 0
	xorl	%edx, %edx
	.loc 1 5312 0
	testl	%eax, %eax
	je	.L264
	.loc 1 5317 0
	movl	16(%ebp), %ebx
	movzwl	74(%eax), %eax
.LVL259:
	leal	1(%ebx), %ecx
	cmpl	%eax, %ecx
	ja	.L264
	.loc 1 5323 0
	pushl	%eax
	pushl	%eax
	pushl	$0
	pushl	$0
	call	bt_l2cap_create_pdu
.LVL260:
	.loc 1 5326 0
	popl	%edx
	.loc 1 5323 0
	movl	%eax, %ebx
.LVL261:
	.loc 1 5326 0
	leal	8(%eax), %eax
.LVL262:
	popl	%ecx
	pushl	$1
	pushl	%eax
	call	net_buf_simple_add
.LVL263:
	.loc 1 5327 0
	movl	%esi, %ecx
	.loc 1 5328 0
	addl	$16, %esp
	movl	%ebx, %edx
	.loc 1 5327 0
	movb	%cl, (%eax)
.LVL264:
.L264:
	.loc 1 5329 0
	leal	-8(%ebp), %esp
	movl	%edx, %eax
	popl	%ebx
	.cfi_restore 3
	popl	%esi
	.cfi_restore 6
	popl	%ebp
	.cfi_restore 5
	.cfi_def_cfa 4, 4
	ret
	.cfi_endproc
.LFE139:
	.size	bt_att_create_pdu, .-bt_att_create_pdu
	.section	.text.unlikely.bt_att_create_pdu
.LCOLDE40:
	.section	.text.bt_att_create_pdu
.LHOTE40:
	.section	.text.unlikely.att_indicate,"ax",@progbits
.LCOLDB41:
	.section	.text.att_indicate,"ax",@progbits
.LHOTB41:
	.type	att_indicate, @function
att_indicate:
.LFB134:
	.loc 1 5069 0
	.cfi_startproc
.LVL265:
	pushl	%ebp
	.cfi_def_cfa_offset 8
	.cfi_offset 5, -8
	movl	%esp, %ebp
	.cfi_def_cfa_register 5
	pushl	%ebx
	subl	$16, %esp
	.cfi_offset 3, -12
	.loc 1 5070 0
	movl	8(%ebp), %eax
	movl	(%eax), %ebx
.LVL266:
	.loc 1 5072 0
	movl	12(%ebp), %eax
	addl	$8, %eax
	pushl	%eax
	call	net_buf_simple_pull_le16
.LVL267:
	.loc 1 5075 0
	addl	$12, %esp
	pushl	$0
	pushl	$30
	pushl	%ebx
	call	bt_att_create_pdu
.LVL268:
	.loc 1 5076 0
	addl	$16, %esp
	testl	%eax, %eax
	je	.L269
	.loc 1 5079 0
	pushl	$att_cfm_sent
	pushl	%eax
	pushl	$4
	pushl	%ebx
	call	bt_l2cap_send_cb
.LVL269:
	.loc 1 5080 0
	addl	$16, %esp
.L269:
	.loc 1 5081 0
	xorl	%eax, %eax
	movl	-4(%ebp), %ebx
.LVL270:
	leave
	.cfi_restore 5
	.cfi_restore 3
	.cfi_def_cfa 4, 4
	ret
	.cfi_endproc
.LFE134:
	.size	att_indicate, .-att_indicate
	.section	.text.unlikely.att_indicate
.LCOLDE41:
	.section	.text.att_indicate
.LHOTE41:
	.section	.text.unlikely.att_mtu_req,"ax",@progbits
.LCOLDB42:
	.section	.text.att_mtu_req,"ax",@progbits
.LHOTB42:
	.type	att_mtu_req, @function
att_mtu_req:
.LFB88:
	.loc 1 4139 0
	.cfi_startproc
.LVL271:
	pushl	%ebp
	.cfi_def_cfa_offset 8
	.cfi_offset 5, -8
	movl	%esp, %ebp
	.cfi_def_cfa_register 5
	pushl	%edi
	pushl	%esi
	pushl	%ebx
	subl	$28, %esp
	.cfi_offset 7, -12
	.cfi_offset 6, -16
	.cfi_offset 3, -20
	.loc 1 4146 0
	movl	12(%ebp), %eax
	.loc 1 4139 0
	movl	8(%ebp), %esi
.LVL272:
	.loc 1 4146 0
	movl	8(%eax), %eax
.LVL273:
	movw	(%eax), %bx
.LVL274:
	.loc 1 4149 0
	movb	$4, %al
.LVL275:
	.loc 1 4148 0
	cmpw	$22, %bx
	jbe	.L275
	.loc 1 4140 0
	movl	(%esi), %edi
	.loc 1 4151 0
	pushl	%edx
.LVL276:
	pushl	$2
	pushl	$3
	pushl	%edi
	call	bt_att_create_pdu
.LVL277:
	movl	%eax, %edx
.LVL278:
	.loc 1 4152 0
	addl	$16, %esp
	.loc 1 4153 0
	movb	$14, %al
.LVL279:
	.loc 1 4152 0
	testl	%edx, %edx
	je	.L275
.LVL280:
	.loc 1 4157 0
	pushl	%eax
	pushl	%eax
	leal	8(%edx), %eax
	pushl	$2
	movl	%edx, -28(%ebp)
	pushl	%eax
	call	net_buf_simple_add
.LVL281:
	.loc 1 4159 0
	movl	-28(%ebp), %edx
	.loc 1 4158 0
	movw	$65, (%eax)
	.loc 1 4159 0
	pushl	$att_rsp_sent
	pushl	%edx
	pushl	$4
	pushl	%edi
	call	bt_l2cap_send_cb
.LVL282:
	.loc 1 4160 0
	movl	$65, %eax
	addl	$32, %esp
	cmpw	$65, %bx
	cmova	%eax, %ebx
.LVL283:
	.loc 1 4163 0
	xorl	%eax, %eax
	.loc 1 4160 0
	movw	%bx, 54(%esi)
	.loc 1 4161 0
	movw	%bx, 74(%esi)
.LVL284:
.L275:
	.loc 1 4164 0
	leal	-12(%ebp), %esp
	popl	%ebx
	.cfi_restore 3
	popl	%esi
	.cfi_restore 6
	popl	%edi
	.cfi_restore 7
	popl	%ebp
	.cfi_restore 5
	.cfi_def_cfa 4, 4
	ret
	.cfi_endproc
.LFE88:
	.size	att_mtu_req, .-att_mtu_req
	.section	.text.unlikely.att_mtu_req
.LCOLDE42:
	.section	.text.att_mtu_req
.LHOTE42:
	.section	.text.unlikely.send_err_rsp.part.8,"ax",@progbits
.LCOLDB43:
	.section	.text.send_err_rsp.part.8,"ax",@progbits
.LHOTB43:
	.type	send_err_rsp.part.8, @function
send_err_rsp.part.8:
.LFB159:
	.loc 1 4120 0
	.cfi_startproc
.LVL285:
	pushl	%ebp
	.cfi_def_cfa_offset 8
	.cfi_offset 5, -8
	movl	%esp, %ebp
	.cfi_def_cfa_register 5
	pushl	%edi
	pushl	%esi
	pushl	%ebx
	.cfi_offset 7, -12
	.cfi_offset 6, -16
	.cfi_offset 3, -20
	movl	%eax, %ebx
	movl	%ecx, %esi
	subl	$32, %esp
	.loc 1 4120 0
	movl	8(%ebp), %eax
.LVL286:
	movl	%edx, -28(%ebp)
	.loc 1 4128 0
	pushl	$4
	pushl	$1
	pushl	%ebx
	.loc 1 4120 0
	movl	%eax, -32(%ebp)
	.loc 1 4128 0
	call	bt_att_create_pdu
.LVL287:
	.loc 1 4129 0
	addl	$16, %esp
	testl	%eax, %eax
	je	.L280
	movl	%eax, %edi
.LVL288:
	.loc 1 4132 0
	pushl	%eax
	pushl	%eax
	leal	8(%edi), %eax
	pushl	$4
	pushl	%eax
	call	net_buf_simple_add
.LVL289:
	.loc 1 4133 0
	movb	-28(%ebp), %dl
	.loc 1 4135 0
	movb	-32(%ebp), %cl
	.loc 1 4134 0
	movw	%si, 1(%eax)
	.loc 1 4133 0
	movb	%dl, (%eax)
	.loc 1 4135 0
	movb	%cl, 3(%eax)
	.loc 1 4136 0
	pushl	$att_rsp_sent
	pushl	%edi
	pushl	$4
	pushl	%ebx
	call	bt_l2cap_send_cb
.LVL290:
	addl	$32, %esp
.LVL291:
.L280:
	.loc 1 4137 0
	leal	-12(%ebp), %esp
	popl	%ebx
	.cfi_restore 3
.LVL292:
	popl	%esi
	.cfi_restore 6
	popl	%edi
	.cfi_restore 7
	popl	%ebp
	.cfi_restore 5
	.cfi_def_cfa 4, 4
	ret
	.cfi_endproc
.LFE159:
	.size	send_err_rsp.part.8, .-send_err_rsp.part.8
	.section	.text.unlikely.send_err_rsp.part.8
.LCOLDE43:
	.section	.text.send_err_rsp.part.8
.LHOTE43:
	.section	.text.unlikely.bt_att_recv,"ax",@progbits
.LCOLDB44:
	.section	.text.bt_att_recv,"ax",@progbits
.LHOTB44:
	.type	bt_att_recv, @function
bt_att_recv:
.LFB137:
	.loc 1 5217 0
	.cfi_startproc
.LVL293:
	pushl	%ebp
	.cfi_def_cfa_offset 8
	.cfi_offset 5, -8
	movl	%esp, %ebp
	.cfi_def_cfa_register 5
	pushl	%edi
	pushl	%esi
	pushl	%ebx
	subl	$28, %esp
	.cfi_offset 7, -12
	.cfi_offset 6, -16
	.cfi_offset 3, -20
	.loc 1 5217 0
	movl	12(%ebp), %edx
	movl	8(%ebp), %esi
.LVL294:
	.loc 1 5229 0
	cmpw	$0, 12(%edx)
	je	.L286
	.loc 1 5234 0
	leal	8(%edx), %eax
.LVL295:
	.loc 1 5225 0
	movl	8(%edx), %edi
	.loc 1 5234 0
	pushl	%ecx
.LVL296:
	pushl	%ecx
	pushl	$1
	.loc 1 5235 0
	xorl	%ebx, %ebx
	.loc 1 5234 0
	pushl	%eax
	movl	%edx, -28(%ebp)
	call	net_buf_simple_pull
.LVL297:
	.loc 1 5238 0
	movb	(%edi), %cl
	.loc 1 5235 0
	movl	-28(%ebp), %edx
	.loc 1 5238 0
	addl	$16, %esp
.LVL298:
.L292:
	cmpb	handlers(,%ebx,8), %cl
	jne	.L289
.LVL299:
	.loc 1 5263 0
	movzbl	handlers+1(,%ebx,8), %ecx
	.loc 1 5265 0
	movb	$4, %al
	.loc 1 5263 0
	cmpw	%cx, 12(%edx)
	jb	.L290
	.loc 1 5267 0
	pushl	%eax
	pushl	%eax
	pushl	%edx
	pushl	%esi
	call	*handlers+4(,%ebx,8)
.LVL300:
	addl	$16, %esp
	jmp	.L290
.LVL301:
.L289:
	.loc 1 5237 0
	incl	%ebx
.LVL302:
	.loc 1 5235 0
	cmpl	$27, %ebx
	jne	.L292
	jmp	.L314
.LVL303:
.L290:
	.loc 1 5269 0
	cmpb	$1, handlers+2(,%ebx,8)
	jne	.L286
	testb	%al, %al
	je	.L286
	.loc 1 5271 0
	movzbl	(%edi), %edx
.LVL304:
.LBB188:
.LBB189:
	.loc 1 4125 0
	testb	%dl, %dl
	je	.L286
	movzbl	%al, %eax
	xorl	%ecx, %ecx
	movl	%eax, 8(%ebp)
.LVL305:
.L313:
	movl	(%esi), %eax
.LBE189:
.LBE188:
	.loc 1 5273 0
	leal	-12(%ebp), %esp
	popl	%ebx
	.cfi_remember_state
	.cfi_restore 3
	popl	%esi
	.cfi_restore 6
.LVL306:
	popl	%edi
	.cfi_restore 7
.LVL307:
	popl	%ebp
	.cfi_restore 5
	.cfi_def_cfa 4, 4
.LBB191:
.LBB190:
	jmp	send_err_rsp.part.8
.LVL308:
.L314:
	.cfi_restore_state
.LBE190:
.LBE191:
	.loc 1 5245 0
	movzbl	%cl, %ebx
.LVL309:
	movb	%cl, -28(%ebp)
	movl	%ebx, %eax
	call	att_op_get_type
.LVL310:
	testb	%al, %al
	movb	-28(%ebp), %cl
	je	.L286
.LVL311:
.LBB192:
.LBB193:
	.loc 1 4125 0
	testb	%cl, %cl
	je	.L286
	movl	$6, 8(%ebp)
.LVL312:
	xorl	%ecx, %ecx
.LVL313:
	movl	%ebx, %edx
	jmp	.L313
.LVL314:
.L286:
.LBE193:
.LBE192:
	.loc 1 5273 0
	leal	-12(%ebp), %esp
	popl	%ebx
	.cfi_restore 3
	popl	%esi
	.cfi_restore 6
.LVL315:
	popl	%edi
	.cfi_restore 7
	popl	%ebp
	.cfi_restore 5
	.cfi_def_cfa 4, 4
	ret
	.cfi_endproc
.LFE137:
	.size	bt_att_recv, .-bt_att_recv
	.section	.text.unlikely.bt_att_recv
.LCOLDE44:
	.section	.text.bt_att_recv
.LHOTE44:
	.section	.text.unlikely.att_write_rsp.part.9,"ax",@progbits
.LCOLDB45:
	.section	.text.att_write_rsp.part.9,"ax",@progbits
.LHOTB45:
	.type	att_write_rsp.part.9, @function
att_write_rsp.part.9:
.LFB160:
	.loc 1 4880 0
	.cfi_startproc
.LVL316:
	pushl	%ebp
	.cfi_def_cfa_offset 8
	.cfi_offset 5, -8
	movl	%esp, %ebp
	.cfi_def_cfa_register 5
	pushl	%edi
	pushl	%esi
	pushl	%ebx
	.cfi_offset 7, -12
	.cfi_offset 6, -16
	.cfi_offset 3, -20
	movl	%eax, %ebx
	subl	$76, %esp
	.loc 1 4880 0
	movl	8(%ebp), %eax
.LVL317:
	movl	%ecx, -64(%ebp)
	movl	%edx, -60(%ebp)
	.loc 1 4888 0
	leal	-52(%ebp), %edx
.LVL318:
	movl	$6, %ecx
.LVL319:
	.loc 1 4880 0
	movl	12(%ebp), %esi
	movl	%eax, -68(%ebp)
	movl	16(%ebp), %eax
	.loc 1 4888 0
	movl	%edx, %edi
	.loc 1 4880 0
	movl	%eax, -72(%ebp)
	movl	20(%ebp), %eax
	movl	%eax, -76(%ebp)
	movl	%gs:20, %eax
	movl	%eax, -28(%ebp)
	xorl	%eax, %eax
	.loc 1 4889 0
	cmpb	$0, -64(%ebp)
	.loc 1 4888 0
	rep stosl
	.loc 1 4889 0
	jne	.L316
.L320:
	.loc 1 4896 0
	movb	-60(%ebp), %al
	.loc 1 4901 0
	movzwl	-68(%ebp), %edi
	.loc 1 4895 0
	movl	%ebx, -52(%ebp)
	.loc 1 4897 0
	movw	%si, -34(%ebp)
	.loc 1 4900 0
	movb	$1, -32(%ebp)
	.loc 1 4896 0
	movb	%al, -44(%ebp)
	.loc 1 4898 0
	movl	-72(%ebp), %eax
	movl	%eax, -40(%ebp)
	.loc 1 4899 0
	movb	-76(%ebp), %al
	movb	%al, -36(%ebp)
	.loc 1 4901 0
	leal	-52(%ebp), %eax
	pushl	%eax
	pushl	$write_cb
	pushl	%edi
	pushl	%edi
	call	bt_gatt_foreach_attr
.LVL320:
	.loc 1 4902 0
	movb	-32(%ebp), %dl
	addl	$16, %esp
	testb	%dl, %dl
	jne	.L317
	jmp	.L331
.L316:
	.loc 1 4890 0
	pushl	%eax
	movzbl	-64(%ebp), %eax
	pushl	$0
	pushl	%eax
	pushl	%ebx
	call	bt_att_create_pdu
.LVL321:
	.loc 1 4891 0
	addl	$16, %esp
	testl	%eax, %eax
	.loc 1 4890 0
	movl	%eax, -48(%ebp)
	.loc 1 4892 0
	movb	$14, %dl
	.loc 1 4891 0
	jne	.L320
	jmp	.L319
.L317:
	.loc 1 4903 0
	cmpb	$0, -64(%ebp)
	je	.L321
	.loc 1 4904 0
	subl	$12, %esp
	pushl	-48(%ebp)
	call	net_buf_unref
.LVL322:
.LBB196:
.LBB197:
	.loc 1 4125 0
	addl	$16, %esp
	cmpb	$0, -60(%ebp)
	jne	.L322
.LVL323:
.L323:
.LBE197:
.LBE196:
	.loc 1 4907 0
	xorl	%edx, %edx
	jmp	.L319
.LVL324:
.L322:
.LBB199:
.LBB198:
	movzbl	-32(%ebp), %eax
	movzbl	-60(%ebp), %edx
	subl	$12, %esp
	movl	%edi, %ecx
	pushl	%eax
	movl	%ebx, %eax
	call	send_err_rsp.part.8
.LVL325:
	addl	$16, %esp
.LVL326:
.L321:
.LBE198:
.LBE199:
	cmpb	$24, -60(%ebp)
	jne	.L323
	movb	-32(%ebp), %dl
	jmp	.L319
.L331:
	.loc 1 4909 0
	movl	-48(%ebp), %eax
	movb	%dl, -60(%ebp)
	testl	%eax, %eax
	je	.L323
	.loc 1 4910 0
	pushl	$att_rsp_sent
	pushl	%eax
	pushl	$4
	pushl	%ebx
	call	bt_l2cap_send_cb
.LVL327:
	movb	-60(%ebp), %dl
	addl	$16, %esp
.L319:
	.loc 1 4914 0
	movl	-28(%ebp), %esi
	xorl	%gs:20, %esi
	movb	%dl, %al
	je	.L324
	call	__stack_chk_fail
.LVL328:
.L324:
	leal	-12(%ebp), %esp
	popl	%ebx
	.cfi_restore 3
.LVL329:
	popl	%esi
	.cfi_restore 6
	popl	%edi
	.cfi_restore 7
	popl	%ebp
	.cfi_restore 5
	.cfi_def_cfa 4, 4
	ret
	.cfi_endproc
.LFE160:
	.size	att_write_rsp.part.9, .-att_write_rsp.part.9
	.section	.text.unlikely.att_write_rsp.part.9
.LCOLDE45:
	.section	.text.att_write_rsp.part.9
.LHOTE45:
	.section	.text.unlikely.att_signed_write_cmd,"ax",@progbits
.LCOLDB46:
	.section	.text.att_signed_write_cmd,"ax",@progbits
.LHOTB46:
	.type	att_signed_write_cmd, @function
att_signed_write_cmd:
.LFB121:
	.loc 1 4941 0
	.cfi_startproc
.LVL330:
	pushl	%ebp
	.cfi_def_cfa_offset 8
	.cfi_offset 5, -8
	movl	%esp, %ebp
	.cfi_def_cfa_register 5
	pushl	%edi
	pushl	%esi
	pushl	%ebx
	subl	$36, %esp
	.cfi_offset 7, -12
	.cfi_offset 6, -16
	.cfi_offset 3, -20
	.loc 1 4941 0
	movl	12(%ebp), %ebx
	.loc 1 4942 0
	movl	8(%ebp), %eax
	movl	(%eax), %edi
.LVL331:
	.loc 1 4947 0
	movl	8(%ebx), %eax
	.loc 1 4949 0
	leal	8(%ebx), %esi
.LVL332:
	.loc 1 4947 0
	movw	(%eax), %ax
.LVL333:
	.loc 1 4949 0
	pushl	$1
.LVL334:
	pushl	%esi
	.loc 1 4947 0
	movw	%ax, -26(%ebp)
.LVL335:
	.loc 1 4949 0
	call	net_buf_simple_push
.LVL336:
	.loc 1 4950 0
	popl	%eax
	popl	%edx
	pushl	%ebx
	pushl	%edi
	call	bt_smp_sign_verify
.LVL337:
	movl	%eax, %ecx
.LVL338:
	.loc 1 4951 0
	addl	$16, %esp
	.loc 1 4953 0
	xorl	%eax, %eax
.LVL339:
	.loc 1 4951 0
	testl	%ecx, %ecx
	jne	.L333
	.loc 1 4955 0
	pushl	%eax
	pushl	%eax
	pushl	$1
	pushl	%esi
	call	net_buf_simple_pull
.LVL340:
	.loc 1 4956 0
	popl	%edx
	popl	%ecx
	pushl	$2
	pushl	%esi
	call	net_buf_simple_pull
.LVL341:
.LBB202:
.LBB203:
	.loc 1 4885 0
	addl	$16, %esp
	cmpw	$0, -26(%ebp)
	.loc 1 4886 0
	movb	$1, %al
	.loc 1 4885 0
	je	.L333
	movb	12(%ebx), %al
	movzwl	-26(%ebp), %esi
.LVL342:
	xorl	%ecx, %ecx
	xorl	%edx, %edx
	subl	$12, %eax
	movzbl	%al, %eax
	pushl	%eax
.LVL343:
	pushl	8(%ebx)
	movl	%edi, %eax
	pushl	$0
	pushl	%esi
	call	att_write_rsp.part.9
.LVL344:
	addl	$16, %esp
.LVL345:
.L333:
.LBE203:
.LBE202:
	.loc 1 4959 0
	leal	-12(%ebp), %esp
	popl	%ebx
	.cfi_restore 3
	popl	%esi
	.cfi_restore 6
	popl	%edi
	.cfi_restore 7
.LVL346:
	popl	%ebp
	.cfi_restore 5
	.cfi_def_cfa 4, 4
	ret
	.cfi_endproc
.LFE121:
	.size	att_signed_write_cmd, .-att_signed_write_cmd
	.section	.text.unlikely.att_signed_write_cmd
.LCOLDE46:
	.section	.text.att_signed_write_cmd
.LHOTE46:
	.section	.text.unlikely.att_write_cmd,"ax",@progbits
.LCOLDB47:
	.section	.text.att_write_cmd,"ax",@progbits
.LHOTB47:
	.type	att_write_cmd, @function
att_write_cmd:
.LFB120:
	.loc 1 4933 0
	.cfi_startproc
.LVL347:
	pushl	%ebp
	.cfi_def_cfa_offset 8
	.cfi_offset 5, -8
	movl	%esp, %ebp
	.cfi_def_cfa_register 5
	pushl	%esi
	pushl	%ebx
	.cfi_offset 6, -12
	.cfi_offset 3, -16
	.loc 1 4934 0
	movl	8(%ebp), %eax
	.loc 1 4933 0
	movl	12(%ebp), %esi
	.loc 1 4936 0
	subl	$12, %esp
	.loc 1 4934 0
	movl	(%eax), %ebx
.LVL348:
	.loc 1 4936 0
	leal	8(%esi), %eax
	pushl	%eax
	call	net_buf_simple_pull_le16
.LVL349:
	movzwl	%ax, %edx
.LVL350:
.LBB206:
.LBB207:
	.loc 1 4885 0
	addl	$16, %esp
	movb	$1, %al
	testw	%dx, %dx
	je	.L339
	movzbl	12(%esi), %eax
	xorl	%ecx, %ecx
	pushl	%eax
.LVL351:
	pushl	8(%esi)
	movl	%ebx, %eax
	pushl	$0
	pushl	%edx
	xorl	%edx, %edx
.LVL352:
	call	att_write_rsp.part.9
.LVL353:
	addl	$16, %esp
.L339:
.LVL354:
.LBE207:
.LBE206:
	.loc 1 4939 0
	leal	-8(%ebp), %esp
	popl	%ebx
	.cfi_restore 3
.LVL355:
	popl	%esi
	.cfi_restore 6
	popl	%ebp
	.cfi_restore 5
	.cfi_def_cfa 4, 4
	ret
	.cfi_endproc
.LFE120:
	.size	att_write_cmd, .-att_write_cmd
	.section	.text.unlikely.att_write_cmd
.LCOLDE47:
	.section	.text.att_write_cmd
.LHOTE47:
	.section	.text.unlikely.att_write_req,"ax",@progbits
.LCOLDB48:
	.section	.text.att_write_req,"ax",@progbits
.LHOTB48:
	.type	att_write_req, @function
att_write_req:
.LFB117:
	.loc 1 4916 0
	.cfi_startproc
.LVL356:
	pushl	%ebp
	.cfi_def_cfa_offset 8
	.cfi_offset 5, -8
	movl	%esp, %ebp
	.cfi_def_cfa_register 5
	pushl	%esi
	pushl	%ebx
	.cfi_offset 6, -12
	.cfi_offset 3, -16
	.loc 1 4917 0
	movl	8(%ebp), %eax
	.loc 1 4916 0
	movl	12(%ebp), %esi
	.loc 1 4919 0
	subl	$12, %esp
	.loc 1 4917 0
	movl	(%eax), %ebx
.LVL357:
	.loc 1 4919 0
	leal	8(%esi), %eax
	pushl	%eax
	call	net_buf_simple_pull_le16
.LVL358:
	movzwl	%ax, %edx
.LVL359:
.LBB210:
.LBB211:
	.loc 1 4885 0
	addl	$16, %esp
	movb	$1, %al
	testw	%dx, %dx
	je	.L345
	movzbl	12(%esi), %eax
	movl	$19, %ecx
	pushl	%eax
.LVL360:
	pushl	8(%esi)
	movl	%ebx, %eax
	pushl	$0
	pushl	%edx
	movl	$18, %edx
.LVL361:
	call	att_write_rsp.part.9
.LVL362:
	addl	$16, %esp
.L345:
.LVL363:
.LBE211:
.LBE210:
	.loc 1 4923 0
	leal	-8(%ebp), %esp
	popl	%ebx
	.cfi_restore 3
.LVL364:
	popl	%esi
	.cfi_restore 6
	popl	%ebp
	.cfi_restore 5
	.cfi_def_cfa 4, 4
	ret
	.cfi_endproc
.LFE117:
	.size	att_write_req, .-att_write_req
	.section	.text.unlikely.att_write_req
.LCOLDE48:
	.section	.text.att_write_req
.LHOTE48:
	.section	.text.unlikely.att_read_group_req,"ax",@progbits
.LCOLDB49:
	.section	.text.att_read_group_req,"ax",@progbits
.LHOTB49:
	.type	att_read_group_req, @function
att_read_group_req:
.LFB114:
	.loc 1 4820 0
	.cfi_startproc
.LVL365:
	pushl	%ebp
	.cfi_def_cfa_offset 8
	.cfi_offset 5, -8
	movl	%esp, %ebp
	.cfi_def_cfa_register 5
	pushl	%edi
	pushl	%esi
	pushl	%ebx
	subl	$92, %esp
	.cfi_offset 7, -12
	.cfi_offset 6, -16
	.cfi_offset 3, -20
	.loc 1 4820 0
	movl	8(%ebp), %eax
	movl	12(%ebp), %edx
	movl	%eax, -100(%ebp)
	movl	%gs:20, %eax
	movl	%eax, -28(%ebp)
	xorl	%eax, %eax
.LVL366:
	.loc 1 4829 0
	movl	12(%edx), %eax
	cmpw	$6, %ax
	je	.L364
	cmpw	$20, %ax
	.loc 1 4830 0
	movb	$4, %bl
	.loc 1 4829 0
	jne	.L351
.L364:
	.loc 1 4821 0
	movl	-100(%ebp), %eax
	.loc 1 4835 0
	movl	%edx, -96(%ebp)
	.loc 1 4837 0
	movb	$14, %bl
	.loc 1 4821 0
	movl	(%eax), %edi
	.loc 1 4832 0
	movl	8(%edx), %eax
.LVL367:
	.loc 1 4833 0
	movw	(%eax), %cx
	.loc 1 4834 0
	movw	2(%eax), %ax
.LVL368:
	.loc 1 4835 0
	pushl	%esi
.LVL369:
	pushl	%esi
	.loc 1 4836 0
	leal	-46(%ebp), %esi
	.loc 1 4835 0
	pushl	$4
	.loc 1 4834 0
	movw	%ax, -90(%ebp)
	.loc 1 4835 0
	leal	8(%edx), %eax
	.loc 1 4833 0
	movl	%ecx, -104(%ebp)
.LVL370:
	.loc 1 4835 0
	pushl	%eax
	call	net_buf_simple_pull
.LVL371:
	.loc 1 4836 0
	movl	-96(%ebp), %edx
	movl	%esi, %eax
	call	uuid_create
.LVL372:
	addl	$16, %esp
	testb	%al, %al
	movl	-104(%ebp), %ecx
	je	.L351
.LVL373:
.LBB222:
.LBB223:
	.loc 1 4257 0
	testw	%cx, %cx
	je	.L362
	cmpw	$0, -90(%ebp)
	je	.L362
	.loc 1 4265 0
	cmpw	-90(%ebp), %cx
	ja	.L353
.LBE223:
.LBE222:
	.loc 1 4840 0
	movzwl	%cx, %eax
	.loc 1 4845 0
	movb	$0, -76(%ebp)
	movw	$10240, -74(%ebp)
	.loc 1 4840 0
	movl	%eax, -96(%ebp)
.LVL374:
	.loc 1 4845 0
	pushl	%eax
	pushl	%eax
	leal	-76(%ebp), %eax
	pushl	%eax
	pushl	%esi
	call	bt_uuid_cmp
.LVL375:
	addl	$16, %esp
	testl	%eax, %eax
	jne	.L358
.L355:
.LVL376:
.LBB225:
.LBB226:
	.loc 1 4794 0
	movl	-100(%ebp), %eax
	.loc 1 4796 0
	leal	-68(%ebp), %edi
	movl	$5, %ecx
	.loc 1 4800 0
	movb	$14, %bl
	.loc 1 4794 0
	movl	(%eax), %esi
.LVL377:
	.loc 1 4796 0
	xorl	%eax, %eax
	rep stosl
	.loc 1 4797 0
	pushl	%ecx
	pushl	$1
	pushl	$17
	pushl	%esi
	call	bt_att_create_pdu
.LVL378:
	.loc 1 4799 0
	addl	$16, %esp
	testl	%eax, %eax
	.loc 1 4797 0
	movl	%eax, -60(%ebp)
	.loc 1 4799 0
	jne	.L378
.LVL379:
.L351:
.LBE226:
.LBE225:
	.loc 1 4852 0
	movl	-28(%ebp), %edi
	xorl	%gs:20, %edi
	movb	%bl, %al
	je	.L359
	call	__stack_chk_fail
.LVL380:
.L362:
.LBB231:
.LBB224:
	.loc 1 4259 0
	xorl	%ecx, %ecx
.LVL381:
.L353:
.LBE224:
.LBE231:
.LBB232:
.LBB233:
	subl	$12, %esp
	movzwl	%cx, %ecx
	pushl	$1
.LVL382:
.L377:
	movl	$16, %edx
	movl	%edi, %eax
	call	send_err_rsp.part.8
.LVL383:
.L376:
.LBE233:
.LBE232:
.LBB234:
.LBB229:
	.loc 1 4816 0
	addl	$16, %esp
	.loc 1 4817 0
	xorl	%ebx, %ebx
	jmp	.L351
.L358:
.LBE229:
.LBE234:
	.loc 1 4846 0 discriminator 1
	leal	-72(%ebp), %eax
	pushl	%ebx
	pushl	%ebx
	movb	$0, -72(%ebp)
	movw	$10241, -70(%ebp)
	pushl	%eax
	pushl	%esi
	call	bt_uuid_cmp
.LVL384:
	.loc 1 4845 0 discriminator 1
	addl	$16, %esp
	testl	%eax, %eax
	je	.L355
.LVL385:
.LBB235:
.LBB236:
	subl	$12, %esp
	movl	-96(%ebp), %ecx
	pushl	$16
	jmp	.L377
.LVL386:
.L378:
.LBE236:
.LBE235:
.LBB237:
.LBB230:
	.loc 1 4803 0
	leal	-46(%ebp), %edx
.LVL387:
	.loc 1 4804 0
	addl	$8, %eax
	.loc 1 4802 0
	movl	-100(%ebp), %edi
	.loc 1 4803 0
	movl	%edx, -64(%ebp)
.LVL388:
	.loc 1 4804 0
	pushl	%edx
	pushl	%edx
	pushl	$1
	pushl	%eax
	.loc 1 4802 0
	movl	%edi, -68(%ebp)
	.loc 1 4804 0
	call	net_buf_simple_add
.LVL389:
	movl	%eax, -56(%ebp)
	.loc 1 4805 0
	movb	$0, (%eax)
	.loc 1 4809 0
	leal	-68(%ebp), %eax
	.loc 1 4806 0
	movl	$0, -52(%ebp)
	.loc 1 4809 0
	pushl	%eax
	movzwl	-90(%ebp), %eax
	pushl	$read_group_cb
	pushl	%eax
	pushl	-96(%ebp)
	call	bt_gatt_foreach_attr
.LVL390:
	.loc 1 4810 0
	movl	-56(%ebp), %eax
	addl	$32, %esp
	movb	(%eax), %bl
	testb	%bl, %bl
	jne	.L357
	.loc 1 4811 0
	subl	$12, %esp
	pushl	-60(%ebp)
	call	net_buf_unref
.LVL391:
.LBB227:
.LBB228:
	movl	-96(%ebp), %ecx
	movl	$16, %edx
	movl	%esi, %eax
	movl	$10, (%esp)
	call	send_err_rsp.part.8
.LVL392:
	addl	$16, %esp
	jmp	.L351
.L357:
.LBE228:
.LBE227:
	.loc 1 4816 0
	pushl	$att_rsp_sent
	pushl	-60(%ebp)
	pushl	$4
	pushl	%esi
	call	bt_l2cap_send_cb
.LVL393:
	jmp	.L376
.LVL394:
.L359:
.LBE230:
.LBE237:
	.loc 1 4852 0
	leal	-12(%ebp), %esp
	popl	%ebx
	.cfi_restore 3
	popl	%esi
	.cfi_restore 6
	popl	%edi
	.cfi_restore 7
	popl	%ebp
	.cfi_restore 5
	.cfi_def_cfa 4, 4
	ret
	.cfi_endproc
.LFE114:
	.size	att_read_group_req, .-att_read_group_req
	.section	.text.unlikely.att_read_group_req
.LCOLDE49:
	.section	.text.att_read_group_req
.LHOTE49:
	.section	.text.unlikely.att_read_mult_req,"ax",@progbits
.LCOLDB50:
	.section	.text.att_read_mult_req,"ax",@progbits
.LHOTB50:
	.type	att_read_mult_req, @function
att_read_mult_req:
.LFB111:
	.loc 1 4716 0
	.cfi_startproc
.LVL395:
	pushl	%ebp
	.cfi_def_cfa_offset 8
	.cfi_offset 5, -8
	.loc 1 4720 0
	movl	$5, %ecx
	.loc 1 4716 0
	movl	%esp, %ebp
	.cfi_def_cfa_register 5
	pushl	%edi
	pushl	%esi
	pushl	%ebx
	.cfi_offset 7, -12
	.cfi_offset 6, -16
	.cfi_offset 3, -20
	.loc 1 4720 0
	leal	-48(%ebp), %edi
	.loc 1 4716 0
	subl	$64, %esp
	.loc 1 4716 0
	movl	8(%ebp), %edx
	movl	12(%ebp), %esi
	movl	%gs:20, %eax
	movl	%eax, -28(%ebp)
	xorl	%eax, %eax
	.loc 1 4720 0
	rep stosl
	.loc 1 4717 0
	movl	(%edx), %ebx
	.loc 1 4721 0
	pushl	$0
	pushl	$15
	.loc 1 4717 0
	movl	%edx, -60(%ebp)
.LVL396:
	.loc 1 4721 0
	pushl	%ebx
	call	bt_att_create_pdu
.LVL397:
	.loc 1 4722 0
	addl	$16, %esp
	testl	%eax, %eax
	.loc 1 4721 0
	movl	%eax, -40(%ebp)
	.loc 1 4723 0
	movb	$14, %cl
	.loc 1 4722 0
	je	.L380
	.loc 1 4725 0
	movl	-60(%ebp), %edx
	movl	%edx, -48(%ebp)
	.loc 1 4727 0
	leal	8(%esi), %edx
.L381:
	.loc 1 4726 0
	cmpw	$1, 12(%esi)
	jbe	.L388
	.loc 1 4727 0
	subl	$12, %esp
	movl	%edx, -60(%ebp)
	pushl	%edx
	call	net_buf_simple_pull_le16
.LVL398:
	.loc 1 4730 0
	movzwl	%ax, %edi
	leal	-48(%ebp), %eax
.LVL399:
	.loc 1 4729 0
	movb	$1, -32(%ebp)
	.loc 1 4730 0
	pushl	%eax
	pushl	$read_cb
	pushl	%edi
	pushl	%edi
	call	bt_gatt_foreach_attr
.LVL400:
	.loc 1 4731 0
	addl	$32, %esp
	cmpb	$0, -32(%ebp)
	movl	-60(%ebp), %edx
	je	.L381
	.loc 1 4732 0
	subl	$12, %esp
	pushl	-40(%ebp)
	call	net_buf_unref
.LVL401:
.LBB238:
.LBB239:
	movzbl	-32(%ebp), %eax
	movl	%edi, %ecx
	movl	$14, %edx
	movl	%eax, (%esp)
	movl	%ebx, %eax
	call	send_err_rsp.part.8
.LVL402:
	jmp	.L387
.LVL403:
.L388:
.LBE239:
.LBE238:
	.loc 1 4738 0
	pushl	$att_rsp_sent
	pushl	-40(%ebp)
	pushl	$4
	pushl	%ebx
	call	bt_l2cap_send_cb
.LVL404:
.L387:
	.loc 1 4739 0
	addl	$16, %esp
	xorl	%ecx, %ecx
.L380:
	.loc 1 4740 0
	movl	-28(%ebp), %esi
	xorl	%gs:20, %esi
	movb	%cl, %al
	je	.L383
	call	__stack_chk_fail
.LVL405:
.L383:
	leal	-12(%ebp), %esp
	popl	%ebx
	.cfi_restore 3
.LVL406:
	popl	%esi
	.cfi_restore 6
	popl	%edi
	.cfi_restore 7
	popl	%ebp
	.cfi_restore 5
	.cfi_def_cfa 4, 4
	ret
	.cfi_endproc
.LFE111:
	.size	att_read_mult_req, .-att_read_mult_req
	.section	.text.unlikely.att_read_mult_req
.LCOLDE50:
	.section	.text.att_read_mult_req
.LHOTE50:
	.section	.text.unlikely.att_read_rsp,"ax",@progbits
.LCOLDB51:
	.section	.text.att_read_rsp,"ax",@progbits
.LHOTB51:
	.type	att_read_rsp, @function
att_read_rsp:
.LFB108:
	.loc 1 4671 0
	.cfi_startproc
.LVL407:
	pushl	%ebp
	.cfi_def_cfa_offset 8
	.cfi_offset 5, -8
	movl	%esp, %ebp
	.cfi_def_cfa_register 5
	pushl	%edi
	pushl	%esi
	pushl	%ebx
	.cfi_offset 7, -12
	.cfi_offset 6, -16
	.cfi_offset 3, -20
	movl	%eax, %esi
	.loc 1 4675 0
	movl	$1, %edi
	.loc 1 4671 0
	subl	$60, %esp
	.loc 1 4671 0
	movl	8(%ebp), %eax
.LVL408:
	movl	%edx, -60(%ebp)
	movl	%eax, -64(%ebp)
	movl	12(%ebp), %eax
	movl	%eax, -68(%ebp)
	movl	%gs:20, %eax
	movl	%eax, -28(%ebp)
	xorl	%eax, %eax
.LVL409:
	.loc 1 4674 0
	cmpw	$0, -64(%ebp)
	je	.L390
	.loc 1 4677 0
	leal	-48(%ebp), %edi
	movl	%ecx, %edx
.LVL410:
	movl	$5, %ecx
.LVL411:
	.loc 1 4672 0
	movl	(%esi), %ebx
	.loc 1 4678 0
	movzbl	%dl, %edx
	.loc 1 4677 0
	rep stosl
	.loc 1 4678 0
	pushl	%eax
.LVL412:
	pushl	$0
	.loc 1 4680 0
	movl	$14, %edi
	.loc 1 4678 0
	pushl	%edx
	pushl	%ebx
	call	bt_att_create_pdu
.LVL413:
	.loc 1 4679 0
	addl	$16, %esp
	testl	%eax, %eax
	.loc 1 4678 0
	movl	%eax, -40(%ebp)
	.loc 1 4679 0
	je	.L390
	.loc 1 4683 0
	movl	-68(%ebp), %eax
	.loc 1 4682 0
	movl	%esi, -48(%ebp)
	.loc 1 4685 0
	movzwl	-64(%ebp), %esi
.LVL414:
	.loc 1 4684 0
	movb	$1, -32(%ebp)
	.loc 1 4683 0
	movw	%ax, -44(%ebp)
	.loc 1 4685 0
	leal	-48(%ebp), %eax
.LVL415:
	pushl	%eax
	pushl	$read_cb
	pushl	%esi
	pushl	%esi
	call	bt_gatt_foreach_attr
.LVL416:
	.loc 1 4686 0
	movl	-32(%ebp), %edi
	addl	$16, %esp
	movl	%edi, %eax
	testb	%al, %al
	je	.L391
	.loc 1 4687 0
	subl	$12, %esp
	pushl	-40(%ebp)
	.loc 1 4689 0
	xorl	%edi, %edi
	.loc 1 4687 0
	call	net_buf_unref
.LVL417:
.LBB242:
.LBB243:
	.loc 1 4125 0
	addl	$16, %esp
	cmpb	$0, -60(%ebp)
	je	.L390
	movzbl	-32(%ebp), %eax
	movzbl	-60(%ebp), %edx
	subl	$12, %esp
	movl	%esi, %ecx
	pushl	%eax
	movl	%ebx, %eax
	call	send_err_rsp.part.8
.LVL418:
	jmp	.L398
.LVL419:
.L391:
.LBE243:
.LBE242:
	.loc 1 4691 0
	pushl	$att_rsp_sent
	pushl	-40(%ebp)
	pushl	$4
	pushl	%ebx
	call	bt_l2cap_send_cb
.LVL420:
.L398:
	.loc 1 4692 0
	addl	$16, %esp
.LVL421:
.L390:
	.loc 1 4693 0
	movl	-28(%ebp), %ecx
	xorl	%gs:20, %ecx
	movl	%edi, %eax
	je	.L392
	call	__stack_chk_fail
.LVL422:
.L392:
	leal	-12(%ebp), %esp
	popl	%ebx
	.cfi_restore 3
	popl	%esi
	.cfi_restore 6
	popl	%edi
	.cfi_restore 7
	popl	%ebp
	.cfi_restore 5
	.cfi_def_cfa 4, 4
	ret
	.cfi_endproc
.LFE108:
	.size	att_read_rsp, .-att_read_rsp
	.section	.text.unlikely.att_read_rsp
.LCOLDE51:
	.section	.text.att_read_rsp
.LHOTE51:
	.section	.text.unlikely.att_read_blob_req,"ax",@progbits
.LCOLDB52:
	.section	.text.att_read_blob_req,"ax",@progbits
.LHOTB52:
	.type	att_read_blob_req, @function
att_read_blob_req:
.LFB110:
	.loc 1 4705 0
	.cfi_startproc
.LVL423:
	pushl	%ebp
	.cfi_def_cfa_offset 8
	.cfi_offset 5, -8
	movl	%esp, %ebp
	.cfi_def_cfa_register 5
	.loc 1 4708 0
	movl	12(%ebp), %edx
	.loc 1 4705 0
	movl	8(%ebp), %eax
	.loc 1 4708 0
	movl	8(%edx), %edx
.LVL424:
	.loc 1 4712 0
	movzwl	2(%edx), %ecx
	movl	%ecx, 12(%ebp)
.LVL425:
	movzwl	(%edx), %edx
.LVL426:
	movl	$13, %ecx
.LVL427:
	movl	%edx, 8(%ebp)
.LVL428:
	movl	$12, %edx
	.loc 1 4714 0
	popl	%ebp
	.cfi_restore 5
	.cfi_def_cfa 4, 4
	.loc 1 4712 0
	jmp	att_read_rsp
.LVL429:
	.cfi_endproc
.LFE110:
	.size	att_read_blob_req, .-att_read_blob_req
	.section	.text.unlikely.att_read_blob_req
.LCOLDE52:
	.section	.text.att_read_blob_req
.LHOTE52:
	.section	.text.unlikely.att_read_req,"ax",@progbits
.LCOLDB53:
	.section	.text.att_read_req,"ax",@progbits
.LHOTB53:
	.type	att_read_req, @function
att_read_req:
.LFB109:
	.loc 1 4695 0
	.cfi_startproc
.LVL430:
	pushl	%ebp
	.cfi_def_cfa_offset 8
	.cfi_offset 5, -8
	.loc 1 4701 0
	movl	$11, %ecx
	.loc 1 4695 0
	movl	%esp, %ebp
	.cfi_def_cfa_register 5
	.loc 1 4695 0
	movl	12(%ebp), %edx
.LVL431:
	.loc 1 4701 0
	movl	$0, 12(%ebp)
.LVL432:
	.loc 1 4695 0
	movl	8(%ebp), %eax
	.loc 1 4699 0
	movl	8(%edx), %edx
.LVL433:
	.loc 1 4701 0
	movzwl	(%edx), %edx
	movl	%edx, 8(%ebp)
.LVL434:
	movl	$10, %edx
	.loc 1 4703 0
	popl	%ebp
	.cfi_restore 5
	.cfi_def_cfa 4, 4
	.loc 1 4701 0
	jmp	att_read_rsp
.LVL435:
	.cfi_endproc
.LFE109:
	.size	att_read_req, .-att_read_req
	.section	.text.unlikely.att_read_req
.LCOLDE53:
	.section	.text.att_read_req
.LHOTE53:
	.section	.text.unlikely.att_read_type_req,"ax",@progbits
.LCOLDB54:
	.section	.text.att_read_type_req,"ax",@progbits
.LHOTB54:
	.type	att_read_type_req, @function
att_read_type_req:
.LFB106:
	.loc 1 4613 0
	.cfi_startproc
.LVL436:
	pushl	%ebp
	.cfi_def_cfa_offset 8
	.cfi_offset 5, -8
	movl	%esp, %ebp
	.cfi_def_cfa_register 5
	pushl	%edi
	pushl	%esi
	pushl	%ebx
	subl	$76, %esp
	.cfi_offset 7, -12
	.cfi_offset 6, -16
	.cfi_offset 3, -20
	.loc 1 4613 0
	movl	12(%ebp), %edi
	movl	8(%ebp), %esi
	movl	%gs:20, %eax
	movl	%eax, -28(%ebp)
	xorl	%eax, %eax
.LVL437:
	.loc 1 4622 0
	movl	12(%edi), %eax
	cmpw	$6, %ax
	je	.L416
	cmpw	$20, %ax
	.loc 1 4623 0
	movb	$4, %dl
	.loc 1 4622 0
	jne	.L404
.L416:
	.loc 1 4614 0
	movl	(%esi), %eax
	movl	%eax, -80(%ebp)
	.loc 1 4625 0
	movl	8(%edi), %eax
.LVL438:
	.loc 1 4626 0
	movzwl	(%eax), %ebx
.LVL439:
	.loc 1 4627 0
	movw	2(%eax), %ax
.LVL440:
	.loc 1 4628 0
	pushl	%ecx
.LVL441:
	pushl	%ecx
	pushl	$4
	.loc 1 4627 0
	movw	%ax, -74(%ebp)
.LVL442:
	.loc 1 4628 0
	leal	8(%edi), %eax
.LVL443:
	pushl	%eax
	call	net_buf_simple_pull
.LVL444:
	.loc 1 4629 0
	leal	-46(%ebp), %eax
	movl	%edi, %edx
	call	uuid_create
.LVL445:
	addl	$16, %esp
	testb	%al, %al
	.loc 1 4630 0
	movb	$14, %dl
	.loc 1 4629 0
	je	.L404
.LVL446:
.LBB252:
.LBB253:
	.loc 1 4257 0
	testw	%bx, %bx
	je	.L414
	cmpw	$0, -74(%ebp)
	je	.L414
	.loc 1 4265 0
	cmpw	-74(%ebp), %bx
	ja	.L406
	jmp	.L427
.LVL447:
.L408:
.LBE253:
.LBE252:
.LBB255:
.LBB256:
	.loc 1 4609 0
	pushl	$att_rsp_sent
	pushl	-64(%ebp)
	pushl	$4
	pushl	-80(%ebp)
	movb	%dl, -74(%ebp)
.LVL448:
	call	bt_l2cap_send_cb
.LVL449:
	movb	-74(%ebp), %dl
	addl	$16, %esp
.LVL450:
.L404:
.LBE256:
.LBE255:
	.loc 1 4639 0
	movl	-28(%ebp), %ecx
	xorl	%gs:20, %ecx
	movb	%dl, %al
	je	.L411
	call	__stack_chk_fail
.LVL451:
.L414:
.LBB260:
.LBB254:
	.loc 1 4259 0
	xorl	%ebx, %ebx
.LVL452:
.L406:
.LBE254:
.LBE260:
.LBB261:
.LBB262:
	subl	$12, %esp
	movzwl	%bx, %ecx
	pushl	$1
.LVL453:
.L426:
	movl	-80(%ebp), %eax
	movl	$8, %edx
	call	send_err_rsp.part.8
.LVL454:
.LBE262:
.LBE261:
	.loc 1 4636 0
	addl	$16, %esp
	xorl	%edx, %edx
	jmp	.L404
.LVL455:
.L427:
.LBB263:
.LBB259:
	.loc 1 4589 0
	movl	(%esi), %eax
	.loc 1 4591 0
	leal	-72(%ebp), %edi
	movl	$6, %ecx
	movb	%dl, -75(%ebp)
.LVL456:
	.loc 1 4589 0
	movl	%eax, -80(%ebp)
.LVL457:
	.loc 1 4591 0
	xorl	%eax, %eax
.LVL458:
	rep stosl
	.loc 1 4592 0
	pushl	%eax
	pushl	$1
	pushl	$9
	pushl	-80(%ebp)
	call	bt_att_create_pdu
.LVL459:
	.loc 1 4594 0
	addl	$16, %esp
	testl	%eax, %eax
	.loc 1 4592 0
	movl	%eax, -64(%ebp)
	.loc 1 4594 0
	je	.L428
	.loc 1 4599 0
	addl	$8, %eax
	.loc 1 4597 0
	movl	%esi, -72(%ebp)
	.loc 1 4599 0
	pushl	%edx
	.loc 1 4598 0
	leal	-46(%ebp), %esi
.LVL460:
	.loc 1 4599 0
	pushl	%edx
	pushl	$1
	pushl	%eax
	.loc 1 4598 0
	movl	%esi, -68(%ebp)
	.loc 1 4599 0
	call	net_buf_simple_add
.LVL461:
	movl	%eax, -60(%ebp)
	.loc 1 4600 0
	movb	$0, (%eax)
	.loc 1 4602 0
	leal	-72(%ebp), %eax
	.loc 1 4601 0
	movb	$10, -52(%ebp)
	.loc 1 4602 0
	pushl	%eax
	movzwl	-74(%ebp), %eax
	pushl	$read_type_cb
	pushl	%eax
	pushl	%ebx
	call	bt_gatt_foreach_attr
.LVL462:
	.loc 1 4603 0
	movb	-52(%ebp), %dl
	addl	$32, %esp
	testb	%dl, %dl
	je	.L408
	.loc 1 4604 0
	subl	$12, %esp
	pushl	-64(%ebp)
	call	net_buf_unref
.LVL463:
.LBB257:
.LBB258:
	movzbl	-52(%ebp), %eax
	movl	%ebx, %ecx
	movl	%eax, (%esp)
	jmp	.L426
.LVL464:
.L428:
	movb	-75(%ebp), %dl
	jmp	.L404
.LVL465:
.L411:
.LBE258:
.LBE257:
.LBE259:
.LBE263:
	.loc 1 4639 0
	leal	-12(%ebp), %esp
	popl	%ebx
	.cfi_restore 3
	popl	%esi
	.cfi_restore 6
	popl	%edi
	.cfi_restore 7
	popl	%ebp
	.cfi_restore 5
	.cfi_def_cfa 4, 4
	ret
	.cfi_endproc
.LFE106:
	.size	att_read_type_req, .-att_read_type_req
	.section	.text.unlikely.att_read_type_req
.LCOLDE54:
	.section	.text.att_read_type_req
.LHOTE54:
	.section	.text.unlikely.att_find_type_req,"ax",@progbits
.LCOLDB55:
	.section	.text.att_find_type_req,"ax",@progbits
.LHOTB55:
	.type	att_find_type_req, @function
att_find_type_req:
.LFB100:
	.loc 1 4452 0
	.cfi_startproc
.LVL466:
	pushl	%ebp
	.cfi_def_cfa_offset 8
	.cfi_offset 5, -8
	movl	%esp, %ebp
	.cfi_def_cfa_register 5
	pushl	%edi
	pushl	%esi
	pushl	%ebx
	subl	$84, %esp
	.cfi_offset 7, -12
	.cfi_offset 6, -16
	.cfi_offset 3, -20
	.loc 1 4452 0
	movl	12(%ebp), %edx
	movl	8(%ebp), %ebx
	movl	%gs:20, %eax
	movl	%eax, -28(%ebp)
	xorl	%eax, %eax
	.loc 1 4457 0
	movl	8(%edx), %eax
	.loc 1 4453 0
	movl	(%ebx), %esi
.LVL467:
	.loc 1 4461 0
	movl	%edx, -76(%ebp)
	.loc 1 4458 0
	movw	(%eax), %di
.LVL468:
	.loc 1 4459 0
	movw	2(%eax), %cx
	.loc 1 4460 0
	movw	4(%eax), %ax
.LVL469:
	.loc 1 4461 0
	pushl	$6
.LVL470:
	.loc 1 4459 0
	movw	%cx, -58(%ebp)
.LVL471:
	.loc 1 4460 0
	movw	%ax, -68(%ebp)
.LVL472:
	.loc 1 4461 0
	leal	8(%edx), %eax
.LVL473:
	pushl	%eax
	call	net_buf_simple_pull
.LVL474:
.LBB274:
.LBB275:
	.loc 1 4257 0
	addl	$16, %esp
.LBE275:
.LBE274:
	.loc 1 4461 0
	movl	%eax, -72(%ebp)
.LVL475:
.LBB279:
.LBB276:
	.loc 1 4257 0
	testw	%di, %di
.LBE276:
.LBE279:
	.loc 1 4463 0
	movzwl	%di, %eax
.LVL476:
	movl	%eax, -64(%ebp)
.LVL477:
.LBB280:
.LBB277:
	.loc 1 4257 0
	je	.L438
	cmpw	$0, -58(%ebp)
	je	.L438
	.loc 1 4265 0
	cmpw	-58(%ebp), %di
	movl	-76(%ebp), %edx
	ja	.L430
.LVL478:
.LBE277:
.LBE280:
	.loc 1 4468 0
	cmpw	$10240, -68(%ebp)
	je	.L447
.LVL479:
.LBB281:
.LBB282:
	subl	$12, %esp
	pushl	$10
	jmp	.L446
.LVL480:
.L447:
.LBE282:
.LBE281:
.LBB283:
.LBB284:
	.loc 1 4429 0
	leal	-48(%ebp), %edi
.LVL481:
	xorl	%eax, %eax
.LVL482:
	movl	$5, %ecx
	.loc 1 4427 0
	movl	(%ebx), %esi
.LVL483:
.LBE284:
.LBE283:
	.loc 1 4474 0
	movl	12(%edx), %edx
.LBB289:
.LBB287:
	.loc 1 4429 0
	rep stosl
	.loc 1 4430 0
	pushl	%eax
	pushl	$0
	pushl	$7
	pushl	%esi
.LBE287:
.LBE289:
	.loc 1 4474 0
	movl	%edx, -68(%ebp)
.LVL484:
.LBB290:
.LBB288:
	.loc 1 4430 0
	call	bt_att_create_pdu
.LVL485:
	.loc 1 4431 0
	addl	$16, %esp
	testl	%eax, %eax
	.loc 1 4430 0
	movl	%eax, -44(%ebp)
	.loc 1 4432 0
	movb	$14, %cl
	.loc 1 4431 0
	je	.L432
	.loc 1 4438 0
	movl	-72(%ebp), %eax
	.loc 1 4439 0
	movl	-68(%ebp), %edx
	.loc 1 4434 0
	movl	%ebx, -48(%ebp)
	.loc 1 4435 0
	movl	$0, -40(%ebp)
	.loc 1 4440 0
	movb	$10, -31(%ebp)
	.loc 1 4438 0
	movl	%eax, -36(%ebp)
	.loc 1 4441 0
	leal	-48(%ebp), %eax
	.loc 1 4439 0
	movb	%dl, -32(%ebp)
	.loc 1 4441 0
	pushl	%eax
	movzwl	-58(%ebp), %eax
	pushl	$find_type_cb
	pushl	%eax
	pushl	-64(%ebp)
	call	bt_gatt_foreach_attr
.LVL486:
	.loc 1 4442 0
	movb	-31(%ebp), %cl
	addl	$16, %esp
	testb	%cl, %cl
	je	.L434
	.loc 1 4443 0
	subl	$12, %esp
	pushl	-44(%ebp)
	call	net_buf_unref
.LVL487:
.LBB285:
.LBB286:
	movzbl	-31(%ebp), %eax
	movl	%eax, (%esp)
.LVL488:
.L446:
	movl	-64(%ebp), %ecx
	jmp	.L445
.LVL489:
.L434:
.LBE286:
.LBE285:
	.loc 1 4448 0
	pushl	$att_rsp_sent
	pushl	-44(%ebp)
	pushl	$4
	pushl	%esi
	movb	%cl, -58(%ebp)
.LVL490:
	call	bt_l2cap_send_cb
.LVL491:
	movb	-58(%ebp), %cl
	addl	$16, %esp
.LVL492:
.L432:
.LBE288:
.LBE290:
	.loc 1 4475 0
	movl	-28(%ebp), %ebx
	xorl	%gs:20, %ebx
	movb	%cl, %al
	je	.L437
	call	__stack_chk_fail
.LVL493:
.L438:
.LBB291:
.LBB278:
	.loc 1 4259 0
	xorl	%edi, %edi
.LVL494:
.L430:
.LBE278:
.LBE291:
.LBB292:
.LBB293:
	subl	$12, %esp
	movzwl	%di, %ecx
	pushl	$1
.LVL495:
.L445:
	movl	$6, %edx
	movl	%esi, %eax
	call	send_err_rsp.part.8
.LVL496:
.LBE293:
.LBE292:
	.loc 1 4466 0
	addl	$16, %esp
	xorl	%ecx, %ecx
	jmp	.L432
.LVL497:
.L437:
	.loc 1 4475 0
	leal	-12(%ebp), %esp
	popl	%ebx
	.cfi_restore 3
	popl	%esi
	.cfi_restore 6
	popl	%edi
	.cfi_restore 7
	popl	%ebp
	.cfi_restore 5
	.cfi_def_cfa 4, 4
	ret
	.cfi_endproc
.LFE100:
	.size	att_find_type_req, .-att_find_type_req
	.section	.text.unlikely.att_find_type_req
.LCOLDE55:
	.section	.text.att_find_type_req
.LHOTE55:
	.section	.text.unlikely.att_find_info_req,"ax",@progbits
.LCOLDB56:
	.section	.text.att_find_info_req,"ax",@progbits
.LHOTB56:
	.type	att_find_info_req, @function
att_find_info_req:
.LFB97:
	.loc 1 4358 0
	.cfi_startproc
.LVL498:
	pushl	%ebp
	.cfi_def_cfa_offset 8
	.cfi_offset 5, -8
	movl	%esp, %ebp
	.cfi_def_cfa_register 5
	pushl	%edi
	pushl	%esi
	pushl	%ebx
	subl	$60, %esp
	.cfi_offset 7, -12
	.cfi_offset 6, -16
	.cfi_offset 3, -20
	.loc 1 4358 0
	movl	8(%ebp), %edx
	movl	%gs:20, %eax
	movl	%eax, -28(%ebp)
	xorl	%eax, %eax
	.loc 1 4362 0
	movl	12(%ebp), %eax
	.loc 1 4359 0
	movl	(%edx), %esi
.LVL499:
	.loc 1 4362 0
	movl	8(%eax), %eax
.LVL500:
	.loc 1 4363 0
	movzwl	(%eax), %ebx
.LVL501:
	.loc 1 4364 0
	movw	2(%eax), %ax
.LVL502:
	movw	%ax, -58(%ebp)
.LVL503:
.LBB302:
.LBB303:
	.loc 1 4257 0
	testw	%bx, %bx
	je	.L456
	testw	%ax, %ax
	je	.L456
	.loc 1 4265 0
	cmpw	%ax, %bx
	ja	.L449
.LBE303:
.LBE302:
.LBB305:
.LBB306:
	.loc 1 4341 0
	leal	-44(%ebp), %edi
	xorl	%eax, %eax
.LVL504:
	movl	$4, %ecx
	movl	%edx, -64(%ebp)
.LVL505:
	rep stosl
	.loc 1 4342 0
	pushl	%eax
.LVL506:
	pushl	$0
	pushl	$5
	pushl	%esi
	call	bt_att_create_pdu
.LVL507:
	.loc 1 4343 0
	addl	$16, %esp
	testl	%eax, %eax
	.loc 1 4342 0
	movl	%eax, -40(%ebp)
	.loc 1 4344 0
	movb	$14, %cl
	.loc 1 4343 0
	movl	-64(%ebp), %edx
	je	.L454
	.loc 1 4347 0
	leal	-44(%ebp), %eax
	.loc 1 4346 0
	movl	%edx, -44(%ebp)
	.loc 1 4347 0
	pushl	%eax
	movzwl	-58(%ebp), %eax
	pushl	$find_info_cb
	pushl	%eax
	pushl	%ebx
	call	bt_gatt_foreach_attr
.LVL508:
	.loc 1 4348 0
	addl	$16, %esp
	cmpl	$0, -36(%ebp)
	jne	.L451
	.loc 1 4349 0
	subl	$12, %esp
	pushl	-40(%ebp)
	call	net_buf_unref
.LVL509:
.LBB307:
.LBB308:
	movl	$10, (%esp)
	movl	%ebx, %ecx
	jmp	.L464
.LVL510:
.L451:
.LBE308:
.LBE307:
	.loc 1 4354 0
	pushl	$att_rsp_sent
	pushl	-40(%ebp)
	pushl	$4
	pushl	%esi
	call	bt_l2cap_send_cb
.LVL511:
.L463:
	addl	$16, %esp
	.loc 1 4355 0
	xorl	%ecx, %ecx
.L454:
.LVL512:
.LBE306:
.LBE305:
	.loc 1 4372 0
	movl	-28(%ebp), %edi
	xorl	%gs:20, %edi
	movb	%cl, %al
	je	.L455
	call	__stack_chk_fail
.LVL513:
.L456:
.LBB309:
.LBB304:
	.loc 1 4259 0
	xorl	%ebx, %ebx
.LVL514:
.L449:
.LBE304:
.LBE309:
.LBB310:
.LBB311:
	subl	$12, %esp
	movzwl	%bx, %ecx
	pushl	$1
.LVL515:
.L464:
	movl	$4, %edx
	movl	%esi, %eax
	call	send_err_rsp.part.8
.LVL516:
	jmp	.L463
.L455:
.LBE311:
.LBE310:
	.loc 1 4372 0
	leal	-12(%ebp), %esp
	popl	%ebx
	.cfi_restore 3
	popl	%esi
	.cfi_restore 6
.LVL517:
	popl	%edi
	.cfi_restore 7
	popl	%ebp
	.cfi_restore 5
	.cfi_def_cfa 4, 4
	ret
	.cfi_endproc
.LFE97:
	.size	att_find_info_req, .-att_find_info_req
	.section	.text.unlikely.att_find_info_req
.LCOLDE56:
	.section	.text.att_find_info_req
.LHOTE56:
	.section	.text.unlikely.bt_att_init,"ax",@progbits
.LCOLDB57:
	.section	.text.bt_att_init,"ax",@progbits
.LHOTB57:
	.globl	bt_att_init
	.type	bt_att_init, @function
bt_att_init:
.LFB146:
	.loc 1 5515 0
	.cfi_startproc
	pushl	%ebp
	.cfi_def_cfa_offset 8
	.cfi_offset 5, -8
	movl	%esp, %ebp
	.cfi_def_cfa_register 5
	subl	$20, %esp
	.loc 1 5520 0
	pushl	$chan.6031
	call	bt_l2cap_le_fixed_chan_register
.LVL518:
	.loc 1 5521 0
	addl	$16, %esp
	.loc 1 5522 0
	leave
	.cfi_restore 5
	.cfi_def_cfa 4, 4
	.loc 1 5521 0
	jmp	bt_gatt_init
.LVL519:
	.cfi_endproc
.LFE146:
	.size	bt_att_init, .-bt_att_init
	.section	.text.unlikely.bt_att_init
.LCOLDE57:
	.section	.text.bt_att_init
.LHOTE57:
	.section	.text.unlikely.bt_att_get_mtu,"ax",@progbits
.LCOLDB58:
	.section	.text.bt_att_get_mtu,"ax",@progbits
.LHOTB58:
	.globl	bt_att_get_mtu
	.type	bt_att_get_mtu, @function
bt_att_get_mtu:
.LFB147:
	.loc 1 5524 0
	.cfi_startproc
.LVL520:
	pushl	%ebp
	.cfi_def_cfa_offset 8
	.cfi_offset 5, -8
	movl	%esp, %ebp
	.cfi_def_cfa_register 5
	subl	$8, %esp
	.loc 1 5526 0
	movl	8(%ebp), %eax
	call	att_chan_get
.LVL521:
	xorl	%edx, %edx
	.loc 1 5527 0
	testl	%eax, %eax
	je	.L468
	.loc 1 5530 0
	movw	74(%eax), %dx
.L468:
	.loc 1 5531 0
	movl	%edx, %eax
.LVL522:
	leave
	.cfi_restore 5
	.cfi_def_cfa 4, 4
	ret
	.cfi_endproc
.LFE147:
	.size	bt_att_get_mtu, .-bt_att_get_mtu
	.section	.text.unlikely.bt_att_get_mtu
.LCOLDE58:
	.section	.text.bt_att_get_mtu
.LHOTE58:
	.section	.text.unlikely.bt_att_send,"ax",@progbits
.LCOLDB59:
	.section	.text.bt_att_send,"ax",@progbits
.LHOTB59:
	.globl	bt_att_send
	.type	bt_att_send, @function
bt_att_send:
.LFB148:
	.loc 1 5533 0
	.cfi_startproc
.LVL523:
	pushl	%ebp
	.cfi_def_cfa_offset 8
	.cfi_offset 5, -8
	movl	%esp, %ebp
	.cfi_def_cfa_register 5
	pushl	%edi
	pushl	%esi
	pushl	%ebx
	subl	$12, %esp
	.cfi_offset 7, -12
	.cfi_offset 6, -16
	.cfi_offset 3, -20
	.loc 1 5536 0
	cmpl	$0, 8(%ebp)
	.loc 1 5533 0
	movl	12(%ebp), %ebx
	.loc 1 5536 0
	je	.L476
	testl	%ebx, %ebx
	je	.L476
	.loc 1 5539 0
	movl	8(%ebp), %eax
	call	att_chan_get
.LVL524:
	movl	%eax, %edi
.LVL525:
	.loc 1 5541 0
	movl	$-57, %eax
.LVL526:
	.loc 1 5540 0
	testl	%edi, %edi
	je	.L473
	.loc 1 5543 0
	leal	168(%edi), %esi
	pushl	%edx
	pushl	%edx
	pushl	$-1
	pushl	%esi
	call	k_sem_take
.LVL527:
	.loc 1 5544 0
	movl	%edi, %eax
	call	att_is_connected
.LVL528:
	addl	$16, %esp
	testb	%al, %al
	jne	.L474
	.loc 1 5546 0
	subl	$12, %esp
	pushl	%esi
	call	k_sem_give
.LVL529:
	.loc 1 5547 0
	addl	$16, %esp
	movl	$-57, %eax
	jmp	.L473
.L474:
.LVL530:
	.loc 1 5551 0
	movl	8(%ebx), %eax
	cmpb	$-46, (%eax)
	jne	.L475
.LBB312:
	.loc 1 5553 0
	pushl	%eax
.LVL531:
	pushl	%eax
	pushl	%ebx
	pushl	8(%ebp)
	call	bt_smp_sign
.LVL532:
	.loc 1 5554 0
	addl	$16, %esp
	testl	%eax, %eax
	.loc 1 5553 0
	movl	%eax, %edi
.LVL533:
	.loc 1 5554 0
	je	.L475
	.loc 1 5556 0
	subl	$12, %esp
	pushl	%esi
	call	k_sem_give
.LVL534:
	.loc 1 5557 0
	addl	$16, %esp
	movl	%edi, %eax
	jmp	.L473
.LVL535:
.L475:
.LBE312:
	.loc 1 5560 0
	movl	8(%ebx), %eax
	call	att_cb.isra.3
.LVL536:
	pushl	%eax
	pushl	%ebx
	pushl	$4
	pushl	8(%ebp)
	call	bt_l2cap_send_cb
.LVL537:
	.loc 1 5561 0
	addl	$16, %esp
	xorl	%eax, %eax
	jmp	.L473
.LVL538:
.L476:
	.loc 1 5537 0
	movl	$-22, %eax
.L473:
	.loc 1 5562 0
	leal	-12(%ebp), %esp
	popl	%ebx
	.cfi_restore 3
	popl	%esi
	.cfi_restore 6
	popl	%edi
	.cfi_restore 7
	popl	%ebp
	.cfi_restore 5
	.cfi_def_cfa 4, 4
	ret
	.cfi_endproc
.LFE148:
	.size	bt_att_send, .-bt_att_send
	.section	.text.unlikely.bt_att_send
.LCOLDE59:
	.section	.text.bt_att_send
.LHOTE59:
	.section	.text.unlikely.bt_att_req_send,"ax",@progbits
.LCOLDB60:
	.section	.text.bt_att_req_send,"ax",@progbits
.LHOTB60:
	.globl	bt_att_req_send
	.type	bt_att_req_send, @function
bt_att_req_send:
.LFB149:
	.loc 1 5564 0
	.cfi_startproc
.LVL539:
	pushl	%ebp
	.cfi_def_cfa_offset 8
	.cfi_offset 5, -8
	movl	%esp, %ebp
	.cfi_def_cfa_register 5
	pushl	%ebx
	.cfi_offset 3, -12
	pushl	%ebx
	.loc 1 5564 0
	movl	8(%ebp), %eax
	movl	12(%ebp), %ebx
	.loc 1 5567 0
	testl	%eax, %eax
	je	.L486
	testl	%ebx, %ebx
	je	.L486
	.loc 1 5570 0
	call	att_chan_get
.LVL540:
	.loc 1 5571 0
	testl	%eax, %eax
	je	.L487
	.loc 1 5574 0
	cmpl	$0, 120(%eax)
	je	.L484
.LVL541:
.LBB315:
.LBB316:
	.loc 1 119 0
	movl	128(%eax), %edx
	.loc 1 116 0
	movl	$0, (%ebx)
	.loc 1 119 0
	testl	%edx, %edx
	jne	.L485
	.loc 1 120 0
	movl	%ebx, 128(%eax)
	.loc 1 121 0
	movl	%ebx, 124(%eax)
	jmp	.L489
.L485:
	.loc 1 123 0
	movl	%ebx, (%edx)
	.loc 1 124 0
	movl	%ebx, 128(%eax)
.L489:
.LBE316:
.LBE315:
	.loc 1 5576 0
	xorl	%eax, %eax
.LVL542:
	jmp	.L483
.LVL543:
.L484:
	.loc 1 5579 0
	popl	%ecx
	.loc 1 5578 0
	movl	%ebx, %edx
	.loc 1 5579 0
	popl	%ebx
	.cfi_remember_state
	.cfi_restore 3
	popl	%ebp
	.cfi_restore 5
	.cfi_def_cfa 4, 4
	.loc 1 5578 0
	jmp	att_send_req
.LVL544:
.L486:
	.cfi_restore_state
	.loc 1 5568 0
	movl	$-22, %eax
	jmp	.L483
.LVL545:
.L487:
	.loc 1 5572 0
	movl	$-57, %eax
.LVL546:
.L483:
	.loc 1 5579 0
	popl	%edx
	popl	%ebx
	.cfi_restore 3
	popl	%ebp
	.cfi_restore 5
	.cfi_def_cfa 4, 4
	ret
	.cfi_endproc
.LFE149:
	.size	bt_att_req_send, .-bt_att_req_send
	.section	.text.unlikely.bt_att_req_send
.LCOLDE60:
	.section	.text.bt_att_req_send
.LHOTE60:
	.section	.text.unlikely.bt_att_req_cancel,"ax",@progbits
.LCOLDB61:
	.section	.text.bt_att_req_cancel,"ax",@progbits
.LHOTB61:
	.globl	bt_att_req_cancel
	.type	bt_att_req_cancel, @function
bt_att_req_cancel:
.LFB150:
	.loc 1 5581 0
	.cfi_startproc
.LVL547:
	pushl	%ebp
	.cfi_def_cfa_offset 8
	.cfi_offset 5, -8
	movl	%esp, %ebp
	.cfi_def_cfa_register 5
	pushl	%ebx
	pushl	%ecx
	.cfi_offset 3, -12
	.loc 1 5581 0
	movl	8(%ebp), %eax
	movl	12(%ebp), %ebx
	.loc 1 5584 0
	testl	%eax, %eax
	je	.L490
	testl	%ebx, %ebx
	je	.L490
	.loc 1 5587 0
	call	att_chan_get
.LVL548:
	.loc 1 5588 0
	testl	%eax, %eax
	je	.L490
	.loc 1 5591 0
	cmpl	120(%eax), %ebx
	jne	.L495
	.loc 1 5592 0
	movl	$0, 120(%eax)
	jmp	.L496
.L495:
.LVL549:
	movl	124(%eax), %edx
.LVL550:
.LBB325:
.LBB326:
	.loc 1 197 0
	xorl	%ecx, %ecx
.LVL551:
.L497:
	.loc 1 201 0
	testl	%edx, %edx
	je	.L496
	.loc 1 202 0
	cmpl	%edx, %ebx
	jne	.L498
.LVL552:
.LBB327:
.LBB328:
	.loc 1 177 0
	testl	%ecx, %ecx
	movl	(%ebx), %edx
.LVL553:
	jne	.L499
	.loc 1 179 0
	cmpl	128(%eax), %ebx
	.loc 1 178 0
	movl	%edx, 124(%eax)
	.loc 1 179 0
	jne	.L501
	.loc 1 180 0
	movl	%edx, 128(%eax)
	jmp	.L501
.L499:
	.loc 1 184 0
	cmpl	128(%eax), %ebx
	.loc 1 183 0
	movl	%edx, (%ecx)
	.loc 1 184 0
	jne	.L501
	.loc 1 185 0
	movl	%ecx, 128(%eax)
.L501:
	.loc 1 188 0
	movl	$0, (%ebx)
	jmp	.L496
.LVL554:
.L498:
.LBE328:
.LBE327:
.LBB329:
.LBB330:
.LBB331:
	.loc 1 96 0
	movl	%edx, %ecx
	movl	(%edx), %edx
.LVL555:
	jmp	.L497
.LVL556:
.L496:
.LBE331:
.LBE330:
.LBE329:
.LBE326:
.LBE325:
	.loc 1 5599 0
	popl	%edx
	.loc 1 5598 0
	movl	%ebx, %eax
.LVL557:
	.loc 1 5599 0
	popl	%ebx
	.cfi_remember_state
	.cfi_restore 3
	popl	%ebp
	.cfi_restore 5
	.cfi_def_cfa 4, 4
	.loc 1 5598 0
	jmp	att_req_destroy
.LVL558:
.L490:
	.cfi_restore_state
	.loc 1 5599 0
	popl	%eax
	popl	%ebx
	.cfi_restore 3
	popl	%ebp
	.cfi_restore 5
	.cfi_def_cfa 4, 4
	ret
	.cfi_endproc
.LFE150:
	.size	bt_att_req_cancel, .-bt_att_req_cancel
	.section	.text.unlikely.bt_att_req_cancel
.LCOLDE61:
	.section	.text.bt_att_req_cancel
.LHOTE61:
	.section	.rodata.CSWTCH.47,"a",@progbits
	.align 4
	.type	CSWTCH.47, @object
	.size	CSWTCH.47, 20
CSWTCH.47:
	.long	att_req_sent
	.long	att_rsp_sent
	.long	att_pdu_sent
	.long	att_cfm_sent
	.long	att_req_sent
	.section	.data.ops.6022,"aw",@progbits
	.align 4
	.type	ops.6022, @object
	.size	ops.6022, 20
ops.6022:
	.long	bt_att_connected
	.long	bt_att_disconnected
	.long	bt_att_encrypt_change
	.zero	4
	.long	bt_att_recv
	.section	.data.chan.6031,"aw",@progbits
	.align 4
	.type	chan.6031, @object
	.size	chan.6031, 12
chan.6031:
	.value	4
	.zero	2
	.long	bt_att_accept
	.zero	4
	.section	.rodata.handlers,"a",@progbits
	.align 32
	.type	handlers, @object
	.size	handlers, 216
handlers:
	.byte	1
	.byte	4
	.byte	2
	.zero	1
	.long	att_error_rsp
	.byte	2
	.byte	2
	.byte	1
	.zero	1
	.long	att_mtu_req
	.byte	3
	.byte	2
	.byte	2
	.zero	1
	.long	att_mtu_rsp
	.byte	4
	.byte	4
	.byte	1
	.zero	1
	.long	att_find_info_req
	.byte	5
	.byte	1
	.byte	2
	.zero	1
	.long	att_handle_find_info_rsp
	.byte	6
	.byte	6
	.byte	1
	.zero	1
	.long	att_find_type_req
	.byte	7
	.byte	0
	.byte	2
	.zero	1
	.long	att_handle_find_type_rsp
	.byte	8
	.byte	4
	.byte	1
	.zero	1
	.long	att_read_type_req
	.byte	9
	.byte	1
	.byte	2
	.zero	1
	.long	att_handle_read_type_rsp
	.byte	10
	.byte	2
	.byte	1
	.zero	1
	.long	att_read_req
	.byte	11
	.byte	0
	.byte	2
	.zero	1
	.long	att_handle_read_rsp
	.byte	12
	.byte	4
	.byte	1
	.zero	1
	.long	att_read_blob_req
	.byte	13
	.byte	0
	.byte	2
	.zero	1
	.long	att_handle_read_blob_rsp
	.byte	14
	.byte	4
	.byte	1
	.zero	1
	.long	att_read_mult_req
	.byte	15
	.byte	0
	.byte	2
	.zero	1
	.long	att_handle_read_mult_rsp
	.byte	16
	.byte	4
	.byte	1
	.zero	1
	.long	att_read_group_req
	.byte	18
	.byte	2
	.byte	1
	.zero	1
	.long	att_write_req
	.byte	19
	.byte	0
	.byte	2
	.zero	1
	.long	att_handle_write_rsp
	.byte	22
	.byte	4
	.byte	1
	.zero	1
	.long	att_prepare_write_req
	.byte	23
	.byte	4
	.byte	2
	.zero	1
	.long	att_handle_prepare_write_rsp
	.byte	24
	.byte	1
	.byte	1
	.zero	1
	.long	att_exec_write_req
	.byte	25
	.byte	0
	.byte	2
	.zero	1
	.long	att_handle_exec_write_rsp
	.byte	27
	.byte	2
	.byte	3
	.zero	1
	.long	att_notify
	.byte	29
	.byte	2
	.byte	5
	.zero	1
	.long	att_indicate
	.byte	30
	.byte	0
	.byte	4
	.zero	1
	.long	att_confirm
	.byte	82
	.byte	2
	.byte	0
	.zero	1
	.long	att_write_cmd
	.byte	-46
	.byte	14
	.byte	0
	.zero	1
	.long	att_signed_write_cmd
	.section	.bss.bt_req_pool,"aw",@nobits
	.align 32
	.type	bt_req_pool, @object
	.size	bt_req_pool, 180
bt_req_pool:
	.zero	180
	.text
.Letext0:
	.section	.text.unlikely.att_exec_write_req
.Letext_cold0:
	.section	.note.GNU-stack,"",@progbits
