	.file	"board.c"
	.text
.Ltext0:
	.section	.text.unlikely.key_proc_work,"ax",@progbits
.LCOLDB0:
	.section	.text.key_proc_work,"ax",@progbits
.LHOTB0:
	.section	.text.unlikely.key_proc_work
.Ltext_cold0:
	.section	.text.key_proc_work
	.type	key_proc_work, @function
key_proc_work:
.LFB23:
	.file 1 "board/mk3060/board.c"
	.loc 1 115 0
	.cfi_startproc
.LVL0:
	pushl	%ebp
	.cfi_def_cfa_offset 8
	.cfi_offset 5, -8
	movl	%esp, %ebp
	.cfi_def_cfa_register 5
	subl	$16, %esp
	.loc 1 116 0
	pushl	$0
	pushl	$key_poll_func
	call	aos_schedule_call
.LVL1:
	.loc 1 117 0
	addl	$16, %esp
	leave
	.cfi_restore 5
	.cfi_def_cfa 4, 4
	ret
	.cfi_endproc
.LFE23:
	.size	key_proc_work, .-key_proc_work
	.section	.text.unlikely.key_proc_work
.LCOLDE0:
	.section	.text.key_proc_work
.LHOTE0:
	.section	.text.unlikely.handle_elink_key,"ax",@progbits
.LCOLDB1:
	.section	.text.handle_elink_key,"ax",@progbits
.LHOTB1:
	.type	handle_elink_key, @function
handle_elink_key:
.LFB24:
	.loc 1 120 0
	.cfi_startproc
.LVL2:
	pushl	%ebp
	.cfi_def_cfa_offset 8
	.cfi_offset 5, -8
	movl	%esp, %ebp
	.cfi_def_cfa_register 5
	subl	$32, %esp
	.loc 1 120 0
	movl	%gs:20, %eax
	movl	%eax, -12(%ebp)
	xorl	%eax, %eax
	.loc 1 123 0
	leal	-16(%ebp), %eax
	pushl	%eax
	pushl	$gpio_key_boot
	call	hal_gpio_input_get
.LVL3:
	.loc 1 124 0
	addl	$16, %esp
	cmpl	$0, -16(%ebp)
	jne	.L3
	.loc 1 124 0 is_stmt 0 discriminator 1
	movl	elink_time+4, %eax
	orl	elink_time, %eax
	jne	.L3
.LVL4:
.LBB4:
.LBB5:
	.loc 1 125 0 is_stmt 1
	call	aos_now_ms
.LVL5:
	.loc 1 126 0
	subl	$12, %esp
	.loc 1 125 0
	movl	%eax, elink_time
	movl	%edx, elink_time+4
	.loc 1 126 0
	pushl	$0
	pushl	$0
	pushl	$0
	pushl	$key_proc_work
	pushl	$0
	call	aos_loop_schedule_work
.LVL6:
	addl	$32, %esp
.LVL7:
.L3:
.LBE5:
.LBE4:
	.loc 1 128 0
	movl	-12(%ebp), %eax
	xorl	%gs:20, %eax
	je	.L5
	call	__stack_chk_fail
.LVL8:
.L5:
	leave
	.cfi_restore 5
	.cfi_def_cfa 4, 4
	ret
	.cfi_endproc
.LFE24:
	.size	handle_elink_key, .-handle_elink_key
	.section	.text.unlikely.handle_elink_key
.LCOLDE1:
	.section	.text.handle_elink_key
.LHOTE1:
	.section	.text.unlikely.key_poll_func,"ax",@progbits
.LCOLDB2:
	.section	.text.key_poll_func,"ax",@progbits
.LHOTB2:
	.type	key_poll_func, @function
key_poll_func:
.LFB22:
	.loc 1 89 0
	.cfi_startproc
.LVL9:
	pushl	%ebp
	.cfi_def_cfa_offset 8
	.cfi_offset 5, -8
	movl	%esp, %ebp
	.cfi_def_cfa_register 5
	subl	$32, %esp
	.loc 1 89 0
	movl	%gs:20, %eax
	movl	%eax, -12(%ebp)
	xorl	%eax, %eax
	.loc 1 93 0
	leal	-16(%ebp), %eax
	pushl	%eax
	pushl	$gpio_key_boot
	call	hal_gpio_input_get
.LVL10:
	.loc 1 95 0
	addl	$16, %esp
	cmpl	$0, -16(%ebp)
	jne	.L9
.L15:
	.loc 1 96 0
	pushl	%eax
	pushl	$0
	pushl	$key_poll_func
	pushl	$10
	call	aos_post_delayed_action
.LVL11:
	jmp	.L23
.L9:
.LVL12:
.LBB8:
.LBB9:
	.loc 1 98 0
	call	aos_now_ms
.LVL13:
	subl	elink_time, %eax
	sbbl	elink_time+4, %edx
.LVL14:
	.loc 1 99 0
	cmpl	$0, %edx
	ja	.L18
	cmpl	$6000, %eax
	jbe	.L11
.L18:
	.loc 1 100 0
	movl	$0, elink_time
	.loc 1 101 0
	pushl	%ecx
	.loc 1 100 0
	movl	$0, elink_time+4
	.loc 1 101 0
	pushl	$4
	jmp	.L22
.L11:
	.loc 1 102 0
	cmpl	$0, %edx
	ja	.L19
	cmpl	$2000, %eax
	jbe	.L13
.L19:
	.loc 1 103 0
	movl	$0, elink_time
	.loc 1 104 0
	pushl	%edx
	.loc 1 103 0
	movl	$0, elink_time+4
	.loc 1 104 0
	pushl	$3
	jmp	.L22
.L13:
	.loc 1 105 0
	cmpl	$0, %edx
	ja	.L20
	cmpl	$40, %eax
	jbe	.L15
.L20:
.LVL15:
	.loc 1 107 0
	pushl	%eax
	pushl	$2
	.loc 1 106 0
	movl	$0, elink_time
	movl	$0, elink_time+4
.L22:
	.loc 1 107 0
	pushl	$13
	pushl	$513
	call	aos_post_event
.LVL16:
.L23:
	addl	$16, %esp
.LBE9:
.LBE8:
	.loc 1 112 0
	movl	-12(%ebp), %eax
	xorl	%gs:20, %eax
	je	.L17
	call	__stack_chk_fail
.LVL17:
.L17:
	leave
	.cfi_restore 5
	.cfi_def_cfa 4, 4
	ret
	.cfi_endproc
.LFE22:
	.size	key_poll_func, .-key_poll_func
	.section	.text.unlikely.key_poll_func
.LCOLDE2:
	.section	.text.key_poll_func
.LHOTE2:
	.section	.rodata.str1.1,"aMS",@progbits,1
.LC3:
	.string	"Enter QC mode\r"
	.section	.text.unlikely.board_init,"ax",@progbits
.LCOLDB4:
	.section	.text.board_init,"ax",@progbits
.LHOTB4:
	.globl	board_init
	.type	board_init, @function
board_init:
.LFB26:
	.loc 1 160 0
	.cfi_startproc
	pushl	%ebp
	.cfi_def_cfa_offset 8
	.cfi_offset 5, -8
	movl	%esp, %ebp
	.cfi_def_cfa_register 5
	pushl	%ebx
	subl	$32, %esp
	.cfi_offset 3, -12
	.loc 1 161 0
	movb	$7, gpio_key_boot
.LBB12:
.LBB13:
	.loc 1 133 0
	movl	$1, -16(%ebp)
	.loc 1 137 0
	pushl	$gpio_key_boot
	.loc 1 136 0
	movl	$2, gpio_key_boot+4
.LBE13:
.LBE12:
	.loc 1 160 0
	movl	%gs:20, %eax
	movl	%eax, -12(%ebp)
	xorl	%eax, %eax
.LBB15:
.LBB14:
	.loc 1 137 0
	call	hal_gpio_init
.LVL18:
	.loc 1 138 0
	popl	%ecx
	popl	%ebx
	leal	-16(%ebp), %ebx
	pushl	%ebx
	pushl	$gpio_key_boot
	call	hal_gpio_input_get
.LVL19:
	.loc 1 140 0
	addl	$16, %esp
	cmpl	$0, -16(%ebp)
	jne	.L26
	.loc 1 147 0
	subl	$12, %esp
	.loc 1 144 0
	movl	$1, -16(%ebp)
	.loc 1 145 0
	movb	$1, gpio_key_status
	.loc 1 147 0
	pushl	$gpio_key_status
	.loc 1 146 0
	movl	$2, gpio_key_status+4
	.loc 1 147 0
	call	hal_gpio_init
.LVL20:
	.loc 1 148 0
	popl	%eax
	popl	%edx
	pushl	%ebx
	pushl	$gpio_key_status
	call	hal_gpio_input_get
.LVL21:
	.loc 1 149 0
	addl	$16, %esp
	cmpl	$0, -16(%ebp)
	jne	.L26
	.loc 1 154 0
	subl	$12, %esp
	pushl	$.LC3
	call	puts
.LVL22:
	.loc 1 155 0
	call	qc_test
.LVL23:
	addl	$16, %esp
.L26:
.LBE14:
.LBE15:
	.loc 1 164 0
	subl	$12, %esp
	pushl	$gpio_key_boot
	call	hal_gpio_clear_irq
.LVL24:
	.loc 1 165 0
	pushl	$0
	pushl	$handle_elink_key
	pushl	$2
	pushl	$gpio_key_boot
	call	hal_gpio_enable_irq
.LVL25:
	.loc 1 166 0
	addl	$32, %esp
	movl	-12(%ebp), %eax
	xorl	%gs:20, %eax
	je	.L28
	call	__stack_chk_fail
.LVL26:
.L28:
	movl	-4(%ebp), %ebx
	leave
	.cfi_restore 5
	.cfi_restore 3
	.cfi_def_cfa 4, 4
	ret
	.cfi_endproc
.LFE26:
	.size	board_init, .-board_init
	.section	.text.unlikely.board_init
.LCOLDE4:
	.section	.text.board_init
.LHOTE4:
	.section	.bss.gpio_key_status,"aw",@nobits
	.align 4
	.type	gpio_key_status, @object
	.size	gpio_key_status, 12
gpio_key_status:
	.zero	12
	.section	.bss.gpio_key_boot,"aw",@nobits
	.align 4
	.type	gpio_key_boot, @object
	.size	gpio_key_boot, 12
gpio_key_boot:
	.zero	12
	.section	.bss.elink_time,"aw",@nobits
	.align 8
	.type	elink_time, @object
	.size	elink_time, 8
elink_time:
	.zero	8
	.globl	hal_partitions
	.section	.rodata.str1.1
.LC5:
	.string	"Bootloader"
.LC6:
	.string	"Application"
.LC7:
	.string	"OTA Storage"
.LC8:
	.string	"PARAMETER1"
.LC9:
	.string	"PARAMETER2"
.LC10:
	.string	"PARAMETER3"
.LC11:
	.string	"PARAMETER4"
.LC12:
	.string	"spiffs"
	.section	.rodata.hal_partitions,"a",@progbits
	.align 32
	.type	hal_partitions, @object
	.size	hal_partitions, 220
hal_partitions:
	.long	0
	.long	.LC5
	.long	0
	.long	65536
	.long	1
	.long	0
	.long	.LC6
	.long	77824
	.long	843776
	.long	3
	.zero	20
	.long	0
	.long	.LC7
	.long	750080
	.long	843776
	.long	3
	.zero	20
	.long	0
	.long	.LC8
	.long	65536
	.long	4096
	.long	3
	.long	0
	.long	.LC9
	.long	69632
	.long	4096
	.long	3
	.long	0
	.long	.LC10
	.long	73728
	.long	4096
	.long	3
	.long	0
	.long	.LC11
	.long	53248
	.long	4096
	.long	3
	.zero	20
	.long	0
	.long	.LC12
	.long	1593856
	.long	262144
	.long	3
	.text
.Letext0:
	.section	.text.unlikely.key_proc_work
.Letext_cold0:
	.file 2 "/home/stone/Documents/Ali_IOT/build/compiler/gcc-arm-none-eabi/Linux64/arm-none-eabi/include/machine/_default_types.h"
	.file 3 "/home/stone/Documents/Ali_IOT/build/compiler/gcc-arm-none-eabi/Linux64/arm-none-eabi/include/sys/_stdint.h"
	.file 4 "./include/hal/soc/flash.h"
	.file 5 "./include/hal/soc/gpio.h"
	.file 6 "./include/aos/log.h"
	.file 7 "./include/aos/yloop.h"
	.file 8 "./include/aos/kernel.h"
	.file 9 "<built-in>"
	.section	.note.GNU-stack,"",@progbits
