	.file	"boards.c"
	.text
.Ltext0:
	.section	.text.unlikely.bsp_board_led_state_get,"ax",@progbits
.LCOLDB0:
	.section	.text.bsp_board_led_state_get,"ax",@progbits
.LHOTB0:
	.section	.text.unlikely.bsp_board_led_state_get
.Ltext_cold0:
	.section	.text.bsp_board_led_state_get
	.globl	bsp_board_led_state_get
	.type	bsp_board_led_state_get, @function
bsp_board_led_state_get:
.LFB157:
	.file 1 "src/boards.c"
	.loc 1 3529 0
	.cfi_startproc
.LVL0:
	pushl	%ebp
	.cfi_def_cfa_offset 8
	.cfi_offset 5, -8
	movl	%esp, %ebp
	.cfi_def_cfa_register 5
	.loc 1 3532 0
	movl	8(%ebp), %eax
	movzbl	m_board_led_list(%eax), %ecx
.LVL1:
	movl	$1342177280, %eax
.LBB22:
.LBB23:
.LBB24:
.LBB25:
	.loc 1 3280 0
	cmpl	$31, %ecx
	jbe	.L2
	.loc 1 3286 0
	andl	$31, %ecx
.LVL2:
	.loc 1 3287 0
	movl	$1342178048, %eax
.L2:
.LVL3:
.LBE25:
.LBE24:
.LBB26:
.LBB27:
	.loc 1 3465 0
	movl	1284(%eax), %eax
.LVL4:
.LBE27:
.LBE26:
.LBE23:
.LBE22:
	.loc 1 3542 0
	popl	%ebp
	.cfi_restore 5
	.cfi_def_cfa 4, 4
	.loc 1 3537 0
	shrl	%cl, %eax
	andl	$1, %eax
	xorl	$1, %eax
	andl	$1, %eax
	.loc 1 3542 0
	ret
	.cfi_endproc
.LFE157:
	.size	bsp_board_led_state_get, .-bsp_board_led_state_get
	.section	.text.unlikely.bsp_board_led_state_get
.LCOLDE0:
	.section	.text.bsp_board_led_state_get
.LHOTE0:
	.section	.text.unlikely.bsp_board_led_on,"ax",@progbits
.LCOLDB1:
	.section	.text.bsp_board_led_on,"ax",@progbits
.LHOTB1:
	.globl	bsp_board_led_on
	.type	bsp_board_led_on, @function
bsp_board_led_on:
.LFB158:
	.loc 1 3544 0
	.cfi_startproc
.LVL5:
	pushl	%ebp
	.cfi_def_cfa_offset 8
	.cfi_offset 5, -8
	movl	$1342177280, %edx
	movl	%esp, %ebp
	.cfi_def_cfa_register 5
	.loc 1 3546 0
	movl	8(%ebp), %eax
	movzbl	m_board_led_list(%eax), %ecx
.LVL6:
.LBB36:
.LBB37:
.LBB38:
.LBB39:
.LBB40:
	.loc 1 3280 0
	cmpl	$31, %ecx
	jbe	.L8
	.loc 1 3286 0
	andl	$31, %ecx
.LVL7:
	.loc 1 3287 0
	movl	$1342178048, %edx
.L8:
.LVL8:
.LBE40:
.LBE39:
	.loc 1 3407 0
	movl	$1, %eax
	sall	%cl, %eax
.LVL9:
.LBB41:
.LBB42:
	.loc 1 3477 0
	movl	%eax, 1292(%edx)
.LVL10:
.LBE42:
.LBE41:
.LBE38:
.LBE37:
.LBE36:
	.loc 1 3547 0
	popl	%ebp
	.cfi_restore 5
	.cfi_def_cfa 4, 4
	ret
	.cfi_endproc
.LFE158:
	.size	bsp_board_led_on, .-bsp_board_led_on
	.section	.text.unlikely.bsp_board_led_on
.LCOLDE1:
	.section	.text.bsp_board_led_on
.LHOTE1:
	.section	.text.unlikely.bsp_board_led_off,"ax",@progbits
.LCOLDB2:
	.section	.text.bsp_board_led_off,"ax",@progbits
.LHOTB2:
	.globl	bsp_board_led_off
	.type	bsp_board_led_off, @function
bsp_board_led_off:
.LFB159:
	.loc 1 3549 0
	.cfi_startproc
.LVL11:
	pushl	%ebp
	.cfi_def_cfa_offset 8
	.cfi_offset 5, -8
	movl	$1342177280, %edx
	movl	%esp, %ebp
	.cfi_def_cfa_register 5
	.loc 1 3551 0
	movl	8(%ebp), %eax
	movzbl	m_board_led_list(%eax), %ecx
.LVL12:
.LBB51:
.LBB52:
.LBB53:
.LBB54:
.LBB55:
	.loc 1 3280 0
	cmpl	$31, %ecx
	jbe	.L13
	.loc 1 3286 0
	andl	$31, %ecx
.LVL13:
	.loc 1 3287 0
	movl	$1342178048, %edx
.L13:
.LVL14:
.LBE55:
.LBE54:
	.loc 1 3402 0
	movl	$1, %eax
	sall	%cl, %eax
.LVL15:
.LBB56:
.LBB57:
	.loc 1 3473 0
	movl	%eax, 1288(%edx)
.LVL16:
.LBE57:
.LBE56:
.LBE53:
.LBE52:
.LBE51:
	.loc 1 3552 0
	popl	%ebp
	.cfi_restore 5
	.cfi_def_cfa 4, 4
	ret
	.cfi_endproc
.LFE159:
	.size	bsp_board_led_off, .-bsp_board_led_off
	.section	.text.unlikely.bsp_board_led_off
.LCOLDE2:
	.section	.text.bsp_board_led_off
.LHOTE2:
	.section	.text.unlikely.bsp_board_leds_off,"ax",@progbits
.LCOLDB3:
	.section	.text.bsp_board_leds_off,"ax",@progbits
.LHOTB3:
	.globl	bsp_board_leds_off
	.type	bsp_board_leds_off, @function
bsp_board_leds_off:
.LFB160:
	.loc 1 3554 0
	.cfi_startproc
.LVL17:
	pushl	%ebp
	.cfi_def_cfa_offset 8
	.cfi_offset 5, -8
	movl	%esp, %ebp
	.cfi_def_cfa_register 5
	.loc 1 3558 0
	pushl	$0
	call	bsp_board_led_off
.LVL18:
	pushl	$1
	call	bsp_board_led_off
.LVL19:
	pushl	$2
	call	bsp_board_led_off
.LVL20:
	pushl	$3
	call	bsp_board_led_off
.LVL21:
	.loc 1 3560 0
	addl	$16, %esp
	leave
	.cfi_restore 5
	.cfi_def_cfa 4, 4
	ret
	.cfi_endproc
.LFE160:
	.size	bsp_board_leds_off, .-bsp_board_leds_off
	.section	.text.unlikely.bsp_board_leds_off
.LCOLDE3:
	.section	.text.bsp_board_leds_off
.LHOTE3:
	.section	.text.unlikely.bsp_board_leds_on,"ax",@progbits
.LCOLDB4:
	.section	.text.bsp_board_leds_on,"ax",@progbits
.LHOTB4:
	.globl	bsp_board_leds_on
	.type	bsp_board_leds_on, @function
bsp_board_leds_on:
.LFB161:
	.loc 1 3562 0
	.cfi_startproc
.LVL22:
	pushl	%ebp
	.cfi_def_cfa_offset 8
	.cfi_offset 5, -8
	movl	%esp, %ebp
	.cfi_def_cfa_register 5
	.loc 1 3566 0
	pushl	$0
	call	bsp_board_led_on
.LVL23:
	pushl	$1
	call	bsp_board_led_on
.LVL24:
	pushl	$2
	call	bsp_board_led_on
.LVL25:
	pushl	$3
	call	bsp_board_led_on
.LVL26:
	.loc 1 3568 0
	addl	$16, %esp
	leave
	.cfi_restore 5
	.cfi_def_cfa 4, 4
	ret
	.cfi_endproc
.LFE161:
	.size	bsp_board_leds_on, .-bsp_board_leds_on
	.section	.text.unlikely.bsp_board_leds_on
.LCOLDE4:
	.section	.text.bsp_board_leds_on
.LHOTE4:
	.section	.text.unlikely.bsp_board_led_invert,"ax",@progbits
.LCOLDB5:
	.section	.text.bsp_board_led_invert,"ax",@progbits
.LHOTB5:
	.globl	bsp_board_led_invert
	.type	bsp_board_led_invert, @function
bsp_board_led_invert:
.LFB162:
	.loc 1 3570 0
	.cfi_startproc
.LVL27:
	pushl	%ebp
	.cfi_def_cfa_offset 8
	.cfi_offset 5, -8
	movl	$1342177280, %edx
	movl	%esp, %ebp
	.cfi_def_cfa_register 5
	pushl	%ebx
	.cfi_offset 3, -12
	.loc 1 3572 0
	movl	8(%ebp), %eax
	movzbl	m_board_led_list(%eax), %ecx
.LVL28:
.LBB62:
.LBB63:
.LBB64:
.LBB65:
	.loc 1 3280 0
	cmpl	$31, %ecx
	jbe	.L22
	.loc 1 3286 0
	andl	$31, %ecx
.LVL29:
	.loc 1 3287 0
	movl	$1342178048, %edx
.L22:
.LVL30:
.LBE65:
.LBE64:
	.loc 1 3412 0
	movl	1284(%edx), %ebx
.LVL31:
	.loc 1 3413 0
	movl	$1, %eax
	sall	%cl, %eax
	movl	%ebx, %ecx
.LVL32:
	notl	%ecx
	andl	%eax, %ecx
	.loc 1 3414 0
	andl	%ebx, %eax
	.loc 1 3413 0
	movl	%ecx, 1288(%edx)
	.loc 1 3414 0
	movl	%eax, 1292(%edx)
.LVL33:
.LBE63:
.LBE62:
	.loc 1 3573 0
	popl	%ebx
	.cfi_restore 3
	popl	%ebp
	.cfi_restore 5
	.cfi_def_cfa 4, 4
	ret
	.cfi_endproc
.LFE162:
	.size	bsp_board_led_invert, .-bsp_board_led_invert
	.section	.text.unlikely.bsp_board_led_invert
.LCOLDE5:
	.section	.text.bsp_board_led_invert
.LHOTE5:
	.section	.text.unlikely.bsp_board_leds_init,"ax",@progbits
.LCOLDB6:
	.section	.text.bsp_board_leds_init,"ax",@progbits
.LHOTB6:
	.globl	bsp_board_leds_init
	.type	bsp_board_leds_init, @function
bsp_board_leds_init:
.LFB163:
	.loc 1 3575 0
	.cfi_startproc
.LVL34:
	pushl	%ebp
	.cfi_def_cfa_offset 8
	.cfi_offset 5, -8
	.loc 1 3577 0
	xorl	%edx, %edx
	.loc 1 3575 0
	movl	%esp, %ebp
	.cfi_def_cfa_register 5
	pushl	%ebx
	.cfi_offset 3, -12
.LVL35:
.L28:
	.loc 1 3579 0 discriminator 3
	movzbl	m_board_led_list(%edx), %eax
.LVL36:
.LBB72:
.LBB73:
.LBB74:
.LBB75:
.LBB76:
	.loc 1 3282 0 discriminator 3
	movl	$1342177280, %ecx
	.loc 1 3280 0 discriminator 3
	cmpl	$31, %eax
	jbe	.L27
	.loc 1 3286 0
	andl	$31, %eax
.LVL37:
	.loc 1 3287 0
	movl	$1342178048, %ecx
.L27:
.LVL38:
.LBE76:
.LBE75:
.LBE74:
.LBE73:
.LBE72:
	.loc 1 3577 0
	incl	%edx
.LVL39:
.LBB81:
.LBB79:
.LBB77:
	.loc 1 3315 0
	addl	$448, %eax
.LVL40:
.LBE77:
.LBE79:
.LBE81:
	.loc 1 3577 0
	cmpl	$4, %edx
.LBB82:
.LBB80:
.LBB78:
	.loc 1 3315 0
	movl	$3, (%ecx,%eax,4)
.LVL41:
.LBE78:
.LBE80:
.LBE82:
	.loc 1 3577 0
	jne	.L28
	.loc 1 3582 0
	popl	%ebx
	.cfi_restore 3
	popl	%ebp
	.cfi_restore 5
	.cfi_def_cfa 4, 4
	.loc 1 3581 0
	jmp	bsp_board_leds_off
.LVL42:
	.cfi_endproc
.LFE163:
	.size	bsp_board_leds_init, .-bsp_board_leds_init
	.section	.text.unlikely.bsp_board_leds_init
.LCOLDE6:
	.section	.text.bsp_board_leds_init
.LHOTE6:
	.section	.text.unlikely.bsp_board_led_idx_to_pin,"ax",@progbits
.LCOLDB7:
	.section	.text.bsp_board_led_idx_to_pin,"ax",@progbits
.LHOTB7:
	.globl	bsp_board_led_idx_to_pin
	.type	bsp_board_led_idx_to_pin, @function
bsp_board_led_idx_to_pin:
.LFB164:
	.loc 1 3584 0
	.cfi_startproc
.LVL43:
	pushl	%ebp
	.cfi_def_cfa_offset 8
	.cfi_offset 5, -8
	movl	%esp, %ebp
	.cfi_def_cfa_register 5
	.loc 1 3586 0
	movl	8(%ebp), %eax
	.loc 1 3587 0
	popl	%ebp
	.cfi_restore 5
	.cfi_def_cfa 4, 4
	.loc 1 3586 0
	movzbl	m_board_led_list(%eax), %eax
	.loc 1 3587 0
	ret
	.cfi_endproc
.LFE164:
	.size	bsp_board_led_idx_to_pin, .-bsp_board_led_idx_to_pin
	.section	.text.unlikely.bsp_board_led_idx_to_pin
.LCOLDE7:
	.section	.text.bsp_board_led_idx_to_pin
.LHOTE7:
	.section	.text.unlikely.bsp_board_pin_to_led_idx,"ax",@progbits
.LCOLDB8:
	.section	.text.bsp_board_pin_to_led_idx,"ax",@progbits
.LHOTB8:
	.globl	bsp_board_pin_to_led_idx
	.type	bsp_board_pin_to_led_idx, @function
bsp_board_pin_to_led_idx:
.LFB165:
	.loc 1 3589 0
	.cfi_startproc
.LVL44:
	pushl	%ebp
	.cfi_def_cfa_offset 8
	.cfi_offset 5, -8
	.loc 1 3592 0
	xorl	%eax, %eax
	.loc 1 3589 0
	movl	%esp, %ebp
	.cfi_def_cfa_register 5
	.loc 1 3589 0
	movl	8(%ebp), %edx
	.loc 1 3594 0
	cmpl	$13, %edx
	je	.L35
.LVL45:
	cmpl	$14, %edx
	.loc 1 3592 0
	movl	$1, %eax
	.loc 1 3594 0
	je	.L35
.LVL46:
	cmpl	$15, %edx
	.loc 1 3592 0
	movl	$2, %eax
	.loc 1 3594 0
	je	.L35
.LVL47:
	.loc 1 3590 0
	xorl	%eax, %eax
	cmpl	$16, %edx
	sete	%al
	leal	-1(,%eax,4), %eax
.LVL48:
.L35:
	.loc 1 3601 0
	popl	%ebp
	.cfi_restore 5
	.cfi_def_cfa 4, 4
	ret
	.cfi_endproc
.LFE165:
	.size	bsp_board_pin_to_led_idx, .-bsp_board_pin_to_led_idx
	.section	.text.unlikely.bsp_board_pin_to_led_idx
.LCOLDE8:
	.section	.text.bsp_board_pin_to_led_idx
.LHOTE8:
	.section	.text.unlikely.bsp_board_button_state_get,"ax",@progbits
.LCOLDB9:
	.section	.text.bsp_board_button_state_get,"ax",@progbits
.LHOTB9:
	.globl	bsp_board_button_state_get
	.type	bsp_board_button_state_get, @function
bsp_board_button_state_get:
.LFB166:
	.loc 1 3604 0
	.cfi_startproc
.LVL49:
	pushl	%ebp
	.cfi_def_cfa_offset 8
	.cfi_offset 5, -8
	movl	%esp, %ebp
	.cfi_def_cfa_register 5
	.loc 1 3607 0
	movl	8(%ebp), %eax
	movzbl	m_board_btn_list(%eax), %ecx
.LVL50:
	movl	$1342177280, %eax
.LBB89:
.LBB90:
.LBB91:
.LBB92:
	.loc 1 3280 0
	cmpl	$31, %ecx
	jbe	.L42
	.loc 1 3286 0
	andl	$31, %ecx
.LVL51:
	.loc 1 3287 0
	movl	$1342178048, %eax
.L42:
.LVL52:
.LBE92:
.LBE91:
.LBB93:
.LBB94:
	.loc 1 3461 0
	movl	1296(%eax), %eax
.LVL53:
.LBE94:
.LBE93:
.LBE90:
.LBE89:
	.loc 1 3617 0
	popl	%ebp
	.cfi_restore 5
	.cfi_def_cfa 4, 4
	.loc 1 3612 0
	shrl	%cl, %eax
	andl	$1, %eax
	xorl	$1, %eax
	andl	$1, %eax
	.loc 1 3617 0
	ret
	.cfi_endproc
.LFE166:
	.size	bsp_board_button_state_get, .-bsp_board_button_state_get
	.section	.text.unlikely.bsp_board_button_state_get
.LCOLDE9:
	.section	.text.bsp_board_button_state_get
.LHOTE9:
	.section	.text.unlikely.bsp_board_buttons_init,"ax",@progbits
.LCOLDB10:
	.section	.text.bsp_board_buttons_init,"ax",@progbits
.LHOTB10:
	.globl	bsp_board_buttons_init
	.type	bsp_board_buttons_init, @function
bsp_board_buttons_init:
.LFB167:
	.loc 1 3619 0
	.cfi_startproc
.LVL54:
	pushl	%ebp
	.cfi_def_cfa_offset 8
	.cfi_offset 5, -8
	.loc 1 3621 0
	xorl	%edx, %edx
	.loc 1 3619 0
	movl	%esp, %ebp
	.cfi_def_cfa_register 5
	pushl	%ebx
	.cfi_offset 3, -12
.LVL55:
.L48:
	.loc 1 3623 0 discriminator 3
	movzbl	m_board_btn_list(%edx), %eax
.LVL56:
.LBB101:
.LBB102:
.LBB103:
.LBB104:
.LBB105:
	.loc 1 3282 0 discriminator 3
	movl	$1342177280, %ecx
	.loc 1 3280 0 discriminator 3
	cmpl	$31, %eax
	jbe	.L47
	.loc 1 3286 0
	andl	$31, %eax
.LVL57:
	.loc 1 3287 0
	movl	$1342178048, %ecx
.L47:
.LVL58:
.LBE105:
.LBE104:
.LBE103:
.LBE102:
.LBE101:
	.loc 1 3621 0
	incl	%edx
.LVL59:
.LBB110:
.LBB108:
.LBB106:
	.loc 1 3315 0
	addl	$448, %eax
.LVL60:
.LBE106:
.LBE108:
.LBE110:
	.loc 1 3621 0
	cmpl	$4, %edx
.LBB111:
.LBB109:
.LBB107:
	.loc 1 3315 0
	movl	$12, (%ecx,%eax,4)
.LVL61:
.LBE107:
.LBE109:
.LBE111:
	.loc 1 3621 0
	jne	.L48
	.loc 1 3625 0
	popl	%ebx
	.cfi_restore 3
	popl	%ebp
	.cfi_restore 5
	.cfi_def_cfa 4, 4
	ret
	.cfi_endproc
.LFE167:
	.size	bsp_board_buttons_init, .-bsp_board_buttons_init
	.section	.text.unlikely.bsp_board_buttons_init
.LCOLDE10:
	.section	.text.bsp_board_buttons_init
.LHOTE10:
	.section	.text.unlikely.bsp_board_pin_to_button_idx,"ax",@progbits
.LCOLDB11:
	.section	.text.bsp_board_pin_to_button_idx,"ax",@progbits
.LHOTB11:
	.globl	bsp_board_pin_to_button_idx
	.type	bsp_board_pin_to_button_idx, @function
bsp_board_pin_to_button_idx:
.LFB168:
	.loc 1 3627 0
	.cfi_startproc
.LVL62:
	pushl	%ebp
	.cfi_def_cfa_offset 8
	.cfi_offset 5, -8
	.loc 1 3630 0
	xorl	%eax, %eax
	.loc 1 3627 0
	movl	%esp, %ebp
	.cfi_def_cfa_register 5
	.loc 1 3627 0
	movl	8(%ebp), %edx
	.loc 1 3632 0
	cmpl	$11, %edx
	je	.L53
.LVL63:
	cmpl	$12, %edx
	.loc 1 3630 0
	movl	$1, %eax
	.loc 1 3632 0
	je	.L53
.LVL64:
	cmpl	$24, %edx
	.loc 1 3630 0
	movl	$2, %eax
	.loc 1 3632 0
	je	.L53
.LVL65:
	.loc 1 3629 0
	xorl	%eax, %eax
	cmpl	$25, %edx
	sete	%al
	leal	-1(,%eax,4), %eax
.LVL66:
.L53:
	.loc 1 3639 0
	popl	%ebp
	.cfi_restore 5
	.cfi_def_cfa 4, 4
	ret
	.cfi_endproc
.LFE168:
	.size	bsp_board_pin_to_button_idx, .-bsp_board_pin_to_button_idx
	.section	.text.unlikely.bsp_board_pin_to_button_idx
.LCOLDE11:
	.section	.text.bsp_board_pin_to_button_idx
.LHOTE11:
	.section	.text.unlikely.bsp_board_button_idx_to_pin,"ax",@progbits
.LCOLDB12:
	.section	.text.bsp_board_button_idx_to_pin,"ax",@progbits
.LHOTB12:
	.globl	bsp_board_button_idx_to_pin
	.type	bsp_board_button_idx_to_pin, @function
bsp_board_button_idx_to_pin:
.LFB169:
	.loc 1 3641 0
	.cfi_startproc
.LVL67:
	pushl	%ebp
	.cfi_def_cfa_offset 8
	.cfi_offset 5, -8
	movl	%esp, %ebp
	.cfi_def_cfa_register 5
	.loc 1 3643 0
	movl	8(%ebp), %eax
	.loc 1 3644 0
	popl	%ebp
	.cfi_restore 5
	.cfi_def_cfa 4, 4
	.loc 1 3643 0
	movzbl	m_board_btn_list(%eax), %eax
	.loc 1 3644 0
	ret
	.cfi_endproc
.LFE169:
	.size	bsp_board_button_idx_to_pin, .-bsp_board_button_idx_to_pin
	.section	.text.unlikely.bsp_board_button_idx_to_pin
.LCOLDE12:
	.section	.text.bsp_board_button_idx_to_pin
.LHOTE12:
	.section	.rodata.m_board_btn_list,"a",@progbits
	.align 4
	.type	m_board_btn_list, @object
	.size	m_board_btn_list, 4
m_board_btn_list:
	.byte	11
	.byte	12
	.byte	24
	.byte	25
	.section	.rodata.m_board_led_list,"a",@progbits
	.align 4
	.type	m_board_led_list, @object
	.size	m_board_led_list, 4
m_board_led_list:
	.byte	13
	.byte	14
	.byte	15
	.byte	16
	.text
.Letext0:
	.section	.text.unlikely.bsp_board_led_state_get
.Letext_cold0:
	.section	.note.GNU-stack,"",@progbits
