	.file	"bsp.c"
	.text
.Ltext0:
	.section	.text.unlikely.nrf_gpio_cfg_sense_set,"ax",@progbits
.LCOLDB0:
	.section	.text.nrf_gpio_cfg_sense_set,"ax",@progbits
.LHOTB0:
	.section	.text.unlikely.nrf_gpio_cfg_sense_set
.Ltext_cold0:
	.section	.text.nrf_gpio_cfg_sense_set
	.type	nrf_gpio_cfg_sense_set, @function
nrf_gpio_cfg_sense_set:
.LFB135:
	.file 1 "src/bsp.c"
	.loc 1 3376 0
	.cfi_startproc
.LVL0:
	pushl	%ebp
	.cfi_def_cfa_offset 8
	.cfi_offset 5, -8
.LBB4:
.LBB5:
	.loc 1 3280 0
	cmpl	$31, %eax
	movl	$1342177280, %ecx
.LBE5:
.LBE4:
	.loc 1 3376 0
	movl	%esp, %ebp
	.cfi_def_cfa_register 5
.LBB7:
.LBB6:
	.loc 1 3280 0
	jbe	.L2
	.loc 1 3286 0
	andl	$31, %eax
.LVL1:
	.loc 1 3287 0
	movl	$1342178048, %ecx
.L2:
.LVL2:
	leal	(%ecx,%eax,4), %eax
.LVL3:
.LBE6:
.LBE7:
	.loc 1 3379 0
	sall	$16, %edx
.LVL4:
	.loc 1 3378 0
	movl	1792(%eax), %ecx
	andl	$-196609, %ecx
	movl	%ecx, 1792(%eax)
	.loc 1 3379 0
	movl	1792(%eax), %ecx
	orl	%ecx, %edx
	movl	%edx, 1792(%eax)
	.loc 1 3380 0
	popl	%ebp
	.cfi_restore 5
	.cfi_def_cfa 4, 4
	ret
	.cfi_endproc
.LFE135:
	.size	nrf_gpio_cfg_sense_set, .-nrf_gpio_cfg_sense_set
	.section	.text.unlikely.nrf_gpio_cfg_sense_set
.LCOLDE0:
	.section	.text.nrf_gpio_cfg_sense_set
.LHOTE0:
	.section	.text.unlikely.alert_timer_handler,"ax",@progbits
.LCOLDB1:
	.section	.text.alert_timer_handler,"ax",@progbits
.LHOTB1:
	.type	alert_timer_handler, @function
alert_timer_handler:
.LFB179:
	.loc 1 4122 0
	.cfi_startproc
.LVL5:
	pushl	%ebp
	.cfi_def_cfa_offset 8
	.cfi_offset 5, -8
	movl	%esp, %ebp
	.cfi_def_cfa_register 5
	.loc 1 4124 0
	movl	$2, 8(%ebp)
.LVL6:
	.loc 1 4125 0
	popl	%ebp
	.cfi_restore 5
	.cfi_def_cfa 4, 4
	.loc 1 4124 0
	jmp	bsp_board_led_invert
.LVL7:
	.cfi_endproc
.LFE179:
	.size	alert_timer_handler, .-alert_timer_handler
	.section	.text.unlikely.alert_timer_handler
.LCOLDE1:
	.section	.text.alert_timer_handler
.LHOTE1:
	.section	.text.unlikely.leds_off,"ax",@progbits
.LCOLDB2:
	.section	.text.leds_off,"ax",@progbits
.LHOTB2:
	.type	leds_off, @function
leds_off:
.LFB176:
	.loc 1 3883 0
	.cfi_startproc
	.loc 1 3884 0
	cmpb	$0, m_alert_on
	je	.L10
.LVL8:
	.loc 1 3883 0 discriminator 1
	pushl	%ebp
	.cfi_def_cfa_offset 8
	.cfi_offset 5, -8
	movl	%esp, %ebp
	.cfi_def_cfa_register 5
	subl	$20, %esp
.LBB8:
	.loc 1 3891 0 discriminator 1
	pushl	$0
	call	bsp_board_led_off
.LVL9:
	movl	$1, (%esp)
	call	bsp_board_led_off
.LVL10:
	movl	$3, (%esp)
	call	bsp_board_led_off
.LVL11:
	addl	$16, %esp
.LBE8:
	.loc 1 3899 0 discriminator 1
	leave
	.cfi_restore 5
	.cfi_def_cfa 4, 4
	ret
.LVL12:
.L10:
	.loc 1 3897 0
	jmp	bsp_board_leds_off
.LVL13:
	.cfi_endproc
.LFE176:
	.size	leds_off, .-leds_off
	.section	.text.unlikely.leds_off
.LCOLDE2:
	.section	.text.leds_off
.LHOTE2:
	.globl	__udivdi3
	.section	.text.unlikely.bsp_led_indication,"ax",@progbits
.LCOLDB3:
	.section	.text.bsp_led_indication,"ax",@progbits
.LHOTB3:
	.type	bsp_led_indication, @function
bsp_led_indication:
.LFB177:
	.loc 1 3901 0
	.cfi_startproc
.LVL14:
	pushl	%ebp
	.cfi_def_cfa_offset 8
	.cfi_offset 5, -8
	movl	%esp, %ebp
	.cfi_def_cfa_register 5
	pushl	%ebx
	.cfi_offset 3, -12
	movl	%eax, %ebx
	subl	$20, %esp
	.loc 1 3904 0
	cmpb	$0, m_leds_clear
	je	.L15
	.loc 1 3906 0
	movb	$0, m_leds_clear
	.loc 1 3909 0
	call	leds_off
.LVL15:
.L15:
	.loc 1 3902 0
	xorl	%eax, %eax
	.loc 1 3911 0
	cmpl	$23, %ebx
	ja	.L16
	jmp	*.L18(,%ebx,4)
	.section	.rodata.bsp_led_indication,"a",@progbits
	.align 4
	.align 4
.L18:
	.long	.L17
	.long	.L19
	.long	.L19
	.long	.L20
	.long	.L21
	.long	.L22
	.long	.L23
	.long	.L24
	.long	.L27
	.long	.L28
	.long	.L27
	.long	.L28
	.long	.L29
	.long	.L30
	.long	.L30
	.long	.L30
	.long	.L30
	.long	.L30
	.long	.L31
	.long	.L32
	.long	.L33
	.long	.L34
	.long	.L35
	.long	.L35
	.section	.text.bsp_led_indication
.L17:
	.loc 1 3914 0
	call	leds_off
.LVL16:
	.loc 1 3915 0
	movl	$0, m_stable_state
	jmp	.L59
.L19:
	.loc 1 3919 0
	subl	$12, %esp
	pushl	$0
	call	bsp_board_led_state_get
.LVL17:
	addl	$16, %esp
	testb	%al, %al
	je	.L36
	.loc 1 3921 0
	subl	$12, %esp
	pushl	$0
	call	bsp_board_led_off
.LVL18:
	.loc 1 3922 0
	addl	$16, %esp
	movl	$4000, %edx
	cmpl	$2, %ebx
	movl	$1800, %eax
	jmp	.L57
.L36:
	.loc 1 3928 0
	subl	$12, %esp
	pushl	$0
	call	bsp_board_led_on
.LVL19:
	.loc 1 3929 0
	addl	$16, %esp
	movl	$400, %edx
	cmpl	$2, %ebx
	movl	$200, %eax
.L57:
	cmovne	%edx, %eax
.LVL20:
	.loc 1 3934 0
	pushl	%edx
	xorl	%edx, %edx
	shldl	$15, %eax, %edx
	sall	$15, %eax
.LVL21:
	pushl	$0
	.loc 1 3933 0
	movl	%ebx, m_stable_state
	.loc 1 3934 0
	addl	$500, %eax
.LVL22:
	pushl	%ebx
	pushl	%ebx
	adcl	$0, %edx
	pushl	$0
	pushl	$1000
	pushl	%edx
	pushl	%eax
	call	__udivdi3
.LVL23:
	jmp	.L60
.LVL24:
.L20:
	.loc 1 3939 0
	subl	$12, %esp
	pushl	$0
	call	bsp_board_led_state_get
.LVL25:
	addl	$16, %esp
	testb	%al, %al
	je	.L38
	.loc 1 3941 0
	subl	$12, %esp
	pushl	$0
	call	bsp_board_led_off
.LVL26:
	addl	$16, %esp
	.loc 1 3942 0
	movl	$800, %eax
	jmp	.L39
.L38:
	.loc 1 3949 0
	subl	$12, %esp
	pushl	$0
	call	bsp_board_led_on
.LVL27:
	addl	$16, %esp
	.loc 1 3950 0
	movl	$200, %eax
.L39:
.LVL28:
	.loc 1 3956 0
	pushl	%edx
	xorl	%edx, %edx
	pushl	$0
	shldl	$15, %eax, %edx
.LVL29:
	sall	$15, %eax
.LVL30:
	pushl	%ebx
	pushl	%ebx
	addl	$500, %eax
	pushl	$0
	pushl	$1000
	adcl	$0, %edx
	.loc 1 3955 0
	movl	$3, m_stable_state
	.loc 1 3956 0
	pushl	%edx
	pushl	%eax
	call	__udivdi3
.LVL31:
.L60:
	addl	$24, %esp
	pushl	%eax
.L62:
	pushl	$m_leds_timer_id_data
	call	app_timer_start
.LVL32:
	.loc 1 3959 0
	addl	$16, %esp
	jmp	.L16
.LVL33:
.L21:
	.loc 1 3961 0
	subl	$12, %esp
	pushl	$0
	call	bsp_board_led_state_get
.LVL34:
	addl	$16, %esp
	testb	%al, %al
	je	.L40
	.loc 1 3963 0
	subl	$12, %esp
	pushl	$0
	call	bsp_board_led_off
.LVL35:
	addl	$16, %esp
	.loc 1 3964 0
	movl	$4000, %eax
	jmp	.L41
.LVL36:
.L40:
	.loc 1 3970 0
	subl	$12, %esp
	pushl	$0
	call	bsp_board_led_on
.LVL37:
	addl	$16, %esp
	.loc 1 3971 0
	movl	$400, %eax
.LVL38:
.L41:
	.loc 1 3976 0
	pushl	%edx
	xorl	%edx, %edx
	pushl	$0
	shldl	$15, %eax, %edx
.LVL39:
	sall	$15, %eax
.LVL40:
	pushl	%ebx
	pushl	%ebx
	addl	$500, %eax
	pushl	$0
	pushl	$1000
	adcl	$0, %edx
	.loc 1 3975 0
	movl	$4, m_stable_state
	.loc 1 3976 0
	pushl	%edx
	pushl	%eax
	call	__udivdi3
.LVL41:
	jmp	.L60
.LVL42:
.L22:
	.loc 1 3981 0
	subl	$12, %esp
	pushl	$0
	call	bsp_board_led_state_get
.LVL43:
	addl	$16, %esp
	testb	%al, %al
	je	.L42
	.loc 1 3983 0
	subl	$12, %esp
	pushl	$0
	call	bsp_board_led_off
.LVL44:
	jmp	.L58
.L42:
	.loc 1 3991 0
	subl	$12, %esp
	pushl	$0
	call	bsp_board_led_on
.LVL45:
.L58:
	addl	$16, %esp
.LVL46:
	.loc 1 3997 0
	movl	$5, m_stable_state
	.loc 1 3998 0
	pushl	%eax
	pushl	$0
	pushl	$6554
	jmp	.L62
.LVL47:
.L23:
	.loc 1 4003 0
	subl	$12, %esp
	pushl	$0
	call	bsp_board_led_invert
.LVL48:
	.loc 1 4004 0
	movl	$6, m_stable_state
	jmp	.L63
.L24:
	.loc 1 4011 0
	subl	$12, %esp
	pushl	$0
	call	bsp_board_led_on
.LVL49:
	.loc 1 4012 0
	movl	$7, m_stable_state
	jmp	.L64
.L27:
	.loc 1 4036 0
	subl	$12, %esp
	.loc 1 4033 0
	movb	$1, m_leds_clear
	.loc 1 4036 0
	pushl	$1
	call	bsp_board_led_invert
.LVL50:
.L63:
	.loc 1 4037 0
	addl	$12, %esp
	pushl	$0
	pushl	$3277
	jmp	.L62
.L28:
	.loc 1 4045 0
	subl	$12, %esp
	.loc 1 4042 0
	movb	$1, m_leds_clear
	.loc 1 4045 0
	pushl	$1
	call	bsp_board_led_invert
.LVL51:
	.loc 1 4046 0
	addl	$12, %esp
	pushl	$0
	pushl	$16384
	jmp	.L62
.L29:
	.loc 1 4051 0
	call	bsp_board_leds_on
.LVL52:
	.loc 1 4052 0
	movl	$12, m_stable_state
	jmp	.L59
.L30:
	.loc 1 4059 0
	subl	$12, %esp
	pushl	$m_alert_timer_id_data
	call	app_timer_stop
.LVL53:
	.loc 1 4060 0
	movl	$17, %edx
.LVL54:
	.loc 1 4061 0
	addl	$16, %esp
	subl	%ebx, %edx
.LVL55:
	je	.L44
	testl	%eax, %eax
	jne	.L44
	.loc 1 4063 0
	cmpl	$1, %edx
	je	.L45
	.loc 1 4066 0
	imull	$200, %edx, %eax
.LVL56:
.LVL57:
	.loc 1 4065 0
	pushl	%edx
.LVL58:
	pushl	$0
	pushl	%ebx
	pushl	%ebx
	pushl	$0
	pushl	$1000
	cltd
	shldl	$15, %eax, %edx
	sall	$15, %eax
	addl	$500, %eax
	adcl	$0, %edx
	pushl	%edx
	pushl	%eax
	call	__udivdi3
.LVL59:
	addl	$24, %esp
	pushl	%eax
	pushl	$m_alert_timer_id_data
	call	app_timer_start
.LVL60:
	addl	$16, %esp
.L45:
	.loc 1 4070 0
	subl	$12, %esp
	movl	%eax, -12(%ebp)
.LVL61:
	pushl	$2
	call	bsp_board_led_on
.LVL62:
	.loc 1 4071 0
	movb	$1, m_alert_on
	jmp	.L61
.LVL63:
.L44:
	.loc 1 4077 0
	subl	$12, %esp
	movl	%eax, -12(%ebp)
	pushl	$2
	call	bsp_board_led_off
.LVL64:
	.loc 1 4078 0
	movb	$0, m_alert_on
.LVL65:
.L61:
	addl	$16, %esp
	movl	-12(%ebp), %eax
	jmp	.L16
.LVL66:
.L31:
	.loc 1 4084 0
	call	leds_off
.LVL67:
	.loc 1 4085 0
	movl	$18, m_stable_state
	jmp	.L59
.L32:
	.loc 1 4088 0
	call	leds_off
.LVL68:
	.loc 1 4089 0
	subl	$12, %esp
	pushl	$0
	call	bsp_board_led_on
.LVL69:
	.loc 1 4090 0
	movl	$19, m_stable_state
	jmp	.L64
.L33:
	.loc 1 4093 0
	call	leds_off
.LVL70:
	.loc 1 4094 0
	subl	$12, %esp
	pushl	$1
	call	bsp_board_led_on
.LVL71:
	.loc 1 4095 0
	movl	$20, m_stable_state
	jmp	.L64
.L34:
	.loc 1 4098 0
	call	leds_off
.LVL72:
	.loc 1 4099 0
	subl	$12, %esp
	pushl	$0
	call	bsp_board_led_on
.LVL73:
	.loc 1 4100 0
	movl	$1, (%esp)
	call	bsp_board_led_on
.LVL74:
	.loc 1 4101 0
	movl	$21, m_stable_state
.L64:
	.loc 1 4102 0
	addl	$16, %esp
	jmp	.L59
.L35:
	.loc 1 4105 0
	call	bsp_board_leds_on
.LVL75:
	.loc 1 4106 0
	movl	%ebx, m_stable_state
.L59:
	.loc 1 3902 0
	xorl	%eax, %eax
.LVL76:
.L16:
	.loc 1 4112 0
	movl	-4(%ebp), %ebx
	leave
	.cfi_restore 5
	.cfi_restore 3
	.cfi_def_cfa 4, 4
	ret
	.cfi_endproc
.LFE177:
	.size	bsp_led_indication, .-bsp_led_indication
	.section	.text.unlikely.bsp_led_indication
.LCOLDE3:
	.section	.text.bsp_led_indication
.LHOTE3:
	.section	.text.unlikely.bsp_button_event_handler,"ax",@progbits
.LCOLDB4:
	.section	.text.bsp_button_event_handler,"ax",@progbits
.LHOTB4:
	.type	bsp_button_event_handler, @function
bsp_button_event_handler:
.LFB174:
	.loc 1 3837 0
	.cfi_startproc
.LVL77:
	pushl	%ebp
	.cfi_def_cfa_offset 8
	.cfi_offset 5, -8
	movl	%esp, %ebp
	.cfi_def_cfa_register 5
	pushl	%edi
	pushl	%esi
	pushl	%ebx
	subl	$40, %esp
	.cfi_offset 7, -12
	.cfi_offset 6, -16
	.cfi_offset 3, -20
	.loc 1 3837 0
	movl	8(%ebp), %edi
	movl	12(%ebp), %edx
	.loc 1 3843 0
	movl	%edi, %eax
	.loc 1 3837 0
	movl	%edx, -28(%ebp)
	.loc 1 3843 0
	movzbl	%al, %eax
	pushl	%eax
	call	bsp_board_pin_to_button_idx
.LVL78:
	.loc 1 3844 0
	addl	$16, %esp
	cmpl	$3, %eax
	ja	.L65
	.loc 1 3846 0
	movl	-28(%ebp), %edx
	movl	%eax, %ebx
	cmpb	$1, %dl
	je	.L68
	jb	.L69
	cmpb	$2, %dl
	jne	.L65
	.loc 1 3868 0
	imull	$12, %eax, %ebx
	movl	m_events_list+4(%ebx), %esi
.LVL79:
	jmp	.L74
.LVL80:
.L68:
	.loc 1 3849 0
	imull	$12, %eax, %eax
.LVL81:
	.loc 1 3850 0
	cmpl	$0, m_events_list+4(%eax)
	.loc 1 3849 0
	movl	m_events_list(%eax), %esi
.LVL82:
	.loc 1 3850 0
	je	.L72
	.loc 1 3852 0
	pushl	%eax
	pushl	$current_long_push_pin_no.5717
	pushl	$32768
	pushl	$m_button_timer_id_data
	call	app_timer_start
.LVL83:
	.loc 1 3853 0
	addl	$16, %esp
	testl	%eax, %eax
	jne	.L72
	.loc 1 3855 0
	movl	%edi, %eax
.LVL84:
	movb	%al, current_long_push_pin_no.5717
.L72:
	.loc 1 3858 0
	imull	$12, %ebx, %eax
	movl	m_events_list+8(%eax), %eax
	movl	%eax, release_event_at_push.5718(,%ebx,4)
	.loc 1 3859 0
	jmp	.L74
.LVL85:
.L69:
	.loc 1 3861 0
	subl	$12, %esp
	pushl	$m_button_timer_id_data
	call	app_timer_stop
.LVL86:
	.loc 1 3862 0
	imull	$12, %ebx, %eax
	addl	$16, %esp
	movl	m_events_list+8(%eax), %esi
	cmpl	%esi, release_event_at_push.5718(,%ebx,4)
	jne	.L65
.LVL87:
.L74:
	.loc 1 3871 0
	testl	%esi, %esi
	je	.L65
	.loc 1 3871 0 is_stmt 0 discriminator 1
	movl	m_registered_callback, %eax
	testl	%eax, %eax
	je	.L65
	.loc 1 3875 0 is_stmt 1
	movl	%esi, 8(%ebp)
	.loc 1 3877 0
	leal	-12(%ebp), %esp
	popl	%ebx
	.cfi_remember_state
	.cfi_restore 3
	popl	%esi
	.cfi_restore 6
.LVL88:
	popl	%edi
	.cfi_restore 7
	popl	%ebp
	.cfi_restore 5
	.cfi_def_cfa 4, 4
	.loc 1 3875 0
	jmp	*%eax
.LVL89:
.L65:
	.cfi_restore_state
	.loc 1 3877 0
	leal	-12(%ebp), %esp
	popl	%ebx
	.cfi_restore 3
	popl	%esi
	.cfi_restore 6
	popl	%edi
	.cfi_restore 7
	popl	%ebp
	.cfi_restore 5
	.cfi_def_cfa 4, 4
	ret
	.cfi_endproc
.LFE174:
	.size	bsp_button_event_handler, .-bsp_button_event_handler
	.section	.text.unlikely.bsp_button_event_handler
.LCOLDE4:
	.section	.text.bsp_button_event_handler
.LHOTE4:
	.section	.text.unlikely.button_timer_handler,"ax",@progbits
.LCOLDB5:
	.section	.text.button_timer_handler,"ax",@progbits
.LHOTB5:
	.type	button_timer_handler, @function
button_timer_handler:
.LFB175:
	.loc 1 3879 0
	.cfi_startproc
.LVL90:
	pushl	%ebp
	.cfi_def_cfa_offset 8
	.cfi_offset 5, -8
	movl	%esp, %ebp
	.cfi_def_cfa_register 5
	subl	$16, %esp
	.loc 1 3880 0
	movl	8(%ebp), %eax
	pushl	$2
	movzbl	(%eax), %eax
	pushl	%eax
	call	bsp_button_event_handler
.LVL91:
	.loc 1 3881 0
	addl	$16, %esp
	leave
	.cfi_restore 5
	.cfi_def_cfa 4, 4
	ret
	.cfi_endproc
.LFE175:
	.size	button_timer_handler, .-button_timer_handler
	.section	.text.unlikely.button_timer_handler
.LCOLDE5:
	.section	.text.button_timer_handler
.LHOTE5:
	.section	.text.unlikely.leds_timer_handler,"ax",@progbits
.LCOLDB6:
	.section	.text.leds_timer_handler,"ax",@progbits
.LHOTB6:
	.type	leds_timer_handler, @function
leds_timer_handler:
.LFB178:
	.loc 1 4114 0
	.cfi_startproc
.LVL92:
	.loc 1 4116 0
	testb	$1, m_indication_type
	.loc 1 4114 0
	pushl	%ebp
	.cfi_def_cfa_offset 8
	.cfi_offset 5, -8
	movl	%esp, %ebp
	.cfi_def_cfa_register 5
	.loc 1 4116 0
	je	.L86
.LVL93:
	.loc 1 4120 0
	popl	%ebp
	.cfi_remember_state
	.cfi_restore 5
	.cfi_def_cfa 4, 4
.LBB11:
.LBB12:
	.loc 1 4118 0
	movl	m_stable_state, %eax
	jmp	bsp_led_indication
.LVL94:
.L86:
	.cfi_restore_state
.LBE12:
.LBE11:
	.loc 1 4120 0
	popl	%ebp
	.cfi_restore 5
	.cfi_def_cfa 4, 4
	ret
	.cfi_endproc
.LFE178:
	.size	leds_timer_handler, .-leds_timer_handler
	.section	.text.unlikely.leds_timer_handler
.LCOLDE6:
	.section	.text.leds_timer_handler
.LHOTE6:
	.section	.text.unlikely.bsp_button_is_pressed,"ax",@progbits
.LCOLDB7:
	.section	.text.bsp_button_is_pressed,"ax",@progbits
.LHOTB7:
	.globl	bsp_button_is_pressed
	.type	bsp_button_is_pressed, @function
bsp_button_is_pressed:
.LFB173:
	.loc 1 3833 0
	.cfi_startproc
.LVL95:
	pushl	%ebp
	.cfi_def_cfa_offset 8
	.cfi_offset 5, -8
	movl	%esp, %ebp
	.cfi_def_cfa_register 5
	.loc 1 3835 0
	popl	%ebp
	.cfi_restore 5
	.cfi_def_cfa 4, 4
	.loc 1 3834 0
	jmp	bsp_board_button_state_get
.LVL96:
	.cfi_endproc
.LFE173:
	.size	bsp_button_is_pressed, .-bsp_button_is_pressed
	.section	.text.unlikely.bsp_button_is_pressed
.LCOLDE7:
	.section	.text.bsp_button_is_pressed
.LHOTE7:
	.section	.text.unlikely.bsp_indication_set,"ax",@progbits
.LCOLDB8:
	.section	.text.bsp_indication_set,"ax",@progbits
.LHOTB8:
	.globl	bsp_indication_set
	.type	bsp_indication_set, @function
bsp_indication_set:
.LFB180:
	.loc 1 4127 0
	.cfi_startproc
.LVL97:
	.loc 1 4129 0
	testb	$1, m_indication_type
	.loc 1 4127 0
	pushl	%ebp
	.cfi_def_cfa_offset 8
	.cfi_offset 5, -8
	movl	%esp, %ebp
	.cfi_def_cfa_register 5
	.loc 1 4127 0
	movl	8(%ebp), %eax
	.loc 1 4129 0
	je	.L92
	.loc 1 4134 0
	popl	%ebp
	.cfi_remember_state
	.cfi_restore 5
	.cfi_def_cfa 4, 4
	.loc 1 4131 0
	jmp	bsp_led_indication
.LVL98:
.L92:
	.cfi_restore_state
	.loc 1 4134 0
	xorl	%eax, %eax
.LVL99:
	popl	%ebp
	.cfi_restore 5
	.cfi_def_cfa 4, 4
	ret
	.cfi_endproc
.LFE180:
	.size	bsp_indication_set, .-bsp_indication_set
	.section	.text.unlikely.bsp_indication_set
.LCOLDE8:
	.section	.text.bsp_indication_set
.LHOTE8:
	.section	.text.unlikely.bsp_event_to_button_action_assign,"ax",@progbits
.LCOLDB9:
	.section	.text.bsp_event_to_button_action_assign,"ax",@progbits
.LHOTB9:
	.globl	bsp_event_to_button_action_assign
	.type	bsp_event_to_button_action_assign, @function
bsp_event_to_button_action_assign:
.LFB182:
	.loc 1 4181 0
	.cfi_startproc
.LVL100:
	pushl	%ebp
	.cfi_def_cfa_offset 8
	.cfi_offset 5, -8
	.loc 1 4207 0
	movl	$7, %eax
	.loc 1 4181 0
	movl	%esp, %ebp
	.cfi_def_cfa_register 5
	pushl	%ebx
	.cfi_offset 3, -12
	.loc 1 4181 0
	movl	8(%ebp), %edx
	movl	12(%ebp), %ebx
	movl	16(%ebp), %ecx
	.loc 1 4183 0
	cmpl	$3, %edx
	ja	.L95
.LVL101:
.LBB15:
.LBB16:
	.loc 1 4185 0
	cmpl	$1, %ecx
	jne	.L96
	.loc 1 4187 0
	xorl	%ecx, %ecx
	cmpb	$1, %bl
	jne	.L96
.LVL102:
	leal	14(%edx), %ecx
.LVL103:
	jmp	.L97
.LVL104:
.L96:
	.loc 1 4189 0
	cmpb	$1, %bl
	je	.L97
	jb	.L98
	cmpb	$2, %bl
	jne	.L106
	.loc 1 4195 0
	imull	$12, %edx, %edx
	movl	%ecx, m_events_list+4(%edx)
	jmp	.L105
.LVL105:
.L97:
	.loc 1 4192 0
	imull	$12, %edx, %edx
.LVL106:
	movl	%ecx, m_events_list(%edx)
	jmp	.L105
.LVL107:
.L98:
	.loc 1 4198 0
	imull	$12, %edx, %edx
.LVL108:
	movl	%ecx, m_events_list+8(%edx)
.L105:
	.loc 1 4182 0
	xorl	%eax, %eax
	jmp	.L95
.LVL109:
.L106:
	.loc 1 4201 0
	movl	$7, %eax
.LVL110:
.L95:
.LBE16:
.LBE15:
	.loc 1 4210 0
	popl	%ebx
	.cfi_restore 3
	popl	%ebp
	.cfi_restore 5
	.cfi_def_cfa 4, 4
	ret
	.cfi_endproc
.LFE182:
	.size	bsp_event_to_button_action_assign, .-bsp_event_to_button_action_assign
	.section	.text.unlikely.bsp_event_to_button_action_assign
.LCOLDE9:
	.section	.text.bsp_event_to_button_action_assign
.LHOTE9:
	.section	.text.unlikely.bsp_init,"ax",@progbits
.LCOLDB10:
	.section	.text.bsp_init,"ax",@progbits
.LHOTB10:
	.globl	bsp_init
	.type	bsp_init, @function
bsp_init:
.LFB181:
	.loc 1 4136 0
	.cfi_startproc
.LVL111:
	pushl	%ebp
	.cfi_def_cfa_offset 8
	.cfi_offset 5, -8
	movl	%esp, %ebp
	.cfi_def_cfa_register 5
	pushl	%esi
	pushl	%ebx
	.cfi_offset 6, -12
	.cfi_offset 3, -16
	xorl	%ebx, %ebx
	subl	$16, %esp
	.loc 1 4136 0
	movl	8(%ebp), %esi
	.loc 1 4139 0
	movl	12(%ebp), %eax
	movl	%eax, m_registered_callback
	.loc 1 4137 0
	xorl	%eax, %eax
	.loc 1 4140 0
	testl	$2, %esi
	.loc 1 4138 0
	movl	%esi, m_indication_type
	.loc 1 4140 0
	je	.L108
.LVL112:
.L109:
.LBB17:
	.loc 1 4143 0 discriminator 1
	cmpl	$3, %ebx
	ja	.L116
	testl	%eax, %eax
	jne	.L116
	.loc 1 4145 0 discriminator 3
	pushl	$1
	pushl	$1
	pushl	%ebx
	.loc 1 4143 0 discriminator 3
	incl	%ebx
.LVL113:
	.loc 1 4145 0 discriminator 3
	call	bsp_event_to_button_action_assign
.LVL114:
	.loc 1 4143 0 discriminator 3
	addl	$12, %esp
	jmp	.L109
.LVL115:
.L116:
	.loc 1 4147 0
	testl	%eax, %eax
	jne	.L108
.LVL116:
	.loc 1 4149 0
	pushl	%ebx
	pushl	$1638
	pushl	$4
	pushl	$app_buttons
	call	app_button_init
.LVL117:
	.loc 1 4153 0
	addl	$16, %esp
	testl	%eax, %eax
	jne	.L108
	.loc 1 4155 0
	call	app_button_enable
.LVL118:
	.loc 1 4157 0
	testl	%eax, %eax
	jne	.L108
	.loc 1 4159 0
	pushl	%ecx
	pushl	$button_timer_handler
	pushl	$0
	pushl	$m_button_timer_id
	call	app_timer_create
.LVL119:
	addl	$16, %esp
.LVL120:
.L108:
.LBE17:
	.loc 1 4164 0
	andl	$1, %esi
	je	.L113
	movl	%eax, -12(%ebp)
	.loc 1 4166 0
	call	bsp_board_leds_init
.LVL121:
	movl	-12(%ebp), %eax
.L113:
	.loc 1 4168 0
	testl	%eax, %eax
	jne	.L114
	.loc 1 4170 0
	pushl	%edx
	pushl	$leds_timer_handler
	pushl	$0
	pushl	$m_leds_timer_id
	call	app_timer_create
.LVL122:
	.loc 1 4173 0
	addl	$16, %esp
	testl	%eax, %eax
	jne	.L114
.LVL123:
	.loc 1 4175 0
	pushl	%eax
	pushl	$alert_timer_handler
	pushl	$1
	pushl	$m_alert_timer_id
	call	app_timer_create
.LVL124:
	addl	$16, %esp
.LVL125:
.L114:
	.loc 1 4179 0
	leal	-8(%ebp), %esp
	popl	%ebx
	.cfi_restore 3
	popl	%esi
	.cfi_restore 6
	popl	%ebp
	.cfi_restore 5
	.cfi_def_cfa 4, 4
	ret
	.cfi_endproc
.LFE181:
	.size	bsp_init, .-bsp_init
	.section	.text.unlikely.bsp_init
.LCOLDE10:
	.section	.text.bsp_init
.LHOTE10:
	.section	.text.unlikely.bsp_buttons_enable,"ax",@progbits
.LCOLDB11:
	.section	.text.bsp_buttons_enable,"ax",@progbits
.LHOTB11:
	.globl	bsp_buttons_enable
	.type	bsp_buttons_enable, @function
bsp_buttons_enable:
.LFB183:
	.loc 1 4212 0
	.cfi_startproc
	pushl	%ebp
	.cfi_def_cfa_offset 8
	.cfi_offset 5, -8
	movl	%esp, %ebp
	.cfi_def_cfa_register 5
	.loc 1 4214 0
	popl	%ebp
	.cfi_restore 5
	.cfi_def_cfa 4, 4
	.loc 1 4213 0
	jmp	app_button_enable
.LVL126:
	.cfi_endproc
.LFE183:
	.size	bsp_buttons_enable, .-bsp_buttons_enable
	.section	.text.unlikely.bsp_buttons_enable
.LCOLDE11:
	.section	.text.bsp_buttons_enable
.LHOTE11:
	.section	.text.unlikely.bsp_buttons_disable,"ax",@progbits
.LCOLDB12:
	.section	.text.bsp_buttons_disable,"ax",@progbits
.LHOTB12:
	.globl	bsp_buttons_disable
	.type	bsp_buttons_disable, @function
bsp_buttons_disable:
.LFB184:
	.loc 1 4216 0
	.cfi_startproc
	pushl	%ebp
	.cfi_def_cfa_offset 8
	.cfi_offset 5, -8
	movl	%esp, %ebp
	.cfi_def_cfa_register 5
	.loc 1 4218 0
	popl	%ebp
	.cfi_restore 5
	.cfi_def_cfa 4, 4
	.loc 1 4217 0
	jmp	app_button_disable
.LVL127:
	.cfi_endproc
.LFE184:
	.size	bsp_buttons_disable, .-bsp_buttons_disable
	.section	.text.unlikely.bsp_buttons_disable
.LCOLDE12:
	.section	.text.bsp_buttons_disable
.LHOTE12:
	.section	.text.unlikely.bsp_wakeup_button_enable,"ax",@progbits
.LCOLDB13:
	.section	.text.bsp_wakeup_button_enable,"ax",@progbits
.LHOTB13:
	.globl	bsp_wakeup_button_enable
	.type	bsp_wakeup_button_enable, @function
bsp_wakeup_button_enable:
.LFB185:
	.loc 1 4220 0
	.cfi_startproc
.LVL128:
	pushl	%ebp
	.cfi_def_cfa_offset 8
	.cfi_offset 5, -8
	movl	%esp, %ebp
	.cfi_def_cfa_register 5
	subl	$20, %esp
	.loc 1 4221 0
	pushl	8(%ebp)
	call	bsp_board_button_idx_to_pin
.LVL129:
	movl	$3, %edx
	call	nrf_gpio_cfg_sense_set
.LVL130:
	.loc 1 4224 0
	xorl	%eax, %eax
	leave
	.cfi_restore 5
	.cfi_def_cfa 4, 4
	ret
	.cfi_endproc
.LFE185:
	.size	bsp_wakeup_button_enable, .-bsp_wakeup_button_enable
	.section	.text.unlikely.bsp_wakeup_button_enable
.LCOLDE13:
	.section	.text.bsp_wakeup_button_enable
.LHOTE13:
	.section	.text.unlikely.bsp_wakeup_button_disable,"ax",@progbits
.LCOLDB14:
	.section	.text.bsp_wakeup_button_disable,"ax",@progbits
.LHOTB14:
	.globl	bsp_wakeup_button_disable
	.type	bsp_wakeup_button_disable, @function
bsp_wakeup_button_disable:
.LFB186:
	.loc 1 4226 0
	.cfi_startproc
.LVL131:
	pushl	%ebp
	.cfi_def_cfa_offset 8
	.cfi_offset 5, -8
	movl	%esp, %ebp
	.cfi_def_cfa_register 5
	subl	$20, %esp
	.loc 1 4227 0
	pushl	8(%ebp)
	call	bsp_board_button_idx_to_pin
.LVL132:
	xorl	%edx, %edx
	call	nrf_gpio_cfg_sense_set
.LVL133:
	.loc 1 4230 0
	xorl	%eax, %eax
	leave
	.cfi_restore 5
	.cfi_def_cfa 4, 4
	ret
	.cfi_endproc
.LFE186:
	.size	bsp_wakeup_button_disable, .-bsp_wakeup_button_disable
	.section	.text.unlikely.bsp_wakeup_button_disable
.LCOLDE14:
	.section	.text.bsp_wakeup_button_disable
.LHOTE14:
	.section	.bss.release_event_at_push.5718,"aw",@nobits
	.align 4
	.type	release_event_at_push.5718, @object
	.size	release_event_at_push.5718, 16
release_event_at_push.5718:
	.zero	16
	.section	.bss.current_long_push_pin_no.5717,"aw",@nobits
	.type	current_long_push_pin_no.5717, @object
	.size	current_long_push_pin_no.5717, 1
current_long_push_pin_no.5717:
	.zero	1
	.section	.rodata.app_buttons,"a",@progbits
	.align 32
	.type	app_buttons, @object
	.size	app_buttons, 48
app_buttons:
	.byte	11
	.byte	0
	.zero	2
	.long	3
	.long	bsp_button_event_handler
	.byte	12
	.byte	0
	.zero	2
	.long	3
	.long	bsp_button_event_handler
	.byte	24
	.byte	0
	.zero	2
	.long	3
	.long	bsp_button_event_handler
	.byte	25
	.byte	0
	.zero	2
	.long	3
	.long	bsp_button_event_handler
	.section	.rodata.m_button_timer_id,"a",@progbits
	.align 4
	.type	m_button_timer_id, @object
	.size	m_button_timer_id, 4
m_button_timer_id:
	.long	m_button_timer_id_data
	.section	.bss.m_button_timer_id_data,"aw",@nobits
	.align 32
	.type	m_button_timer_id_data, @object
	.size	m_button_timer_id_data, 32
m_button_timer_id_data:
	.zero	32
	.section	.bss.m_events_list,"aw",@nobits
	.align 32
	.type	m_events_list, @object
	.size	m_events_list, 48
m_events_list:
	.zero	48
	.section	.bss.m_registered_callback,"aw",@nobits
	.align 4
	.type	m_registered_callback, @object
	.size	m_registered_callback, 4
m_registered_callback:
	.zero	4
	.section	.rodata.m_alert_timer_id,"a",@progbits
	.align 4
	.type	m_alert_timer_id, @object
	.size	m_alert_timer_id, 4
m_alert_timer_id:
	.long	m_alert_timer_id_data
	.section	.bss.m_alert_timer_id_data,"aw",@nobits
	.align 32
	.type	m_alert_timer_id_data, @object
	.size	m_alert_timer_id_data, 32
m_alert_timer_id_data:
	.zero	32
	.section	.rodata.m_leds_timer_id,"a",@progbits
	.align 4
	.type	m_leds_timer_id, @object
	.size	m_leds_timer_id, 4
m_leds_timer_id:
	.long	m_leds_timer_id_data
	.section	.bss.m_leds_timer_id_data,"aw",@nobits
	.align 32
	.type	m_leds_timer_id_data, @object
	.size	m_leds_timer_id_data, 32
m_leds_timer_id_data:
	.zero	32
	.section	.bss.m_alert_on,"aw",@nobits
	.type	m_alert_on, @object
	.size	m_alert_on, 1
m_alert_on:
	.zero	1
	.section	.bss.m_indication_type,"aw",@nobits
	.align 4
	.type	m_indication_type, @object
	.size	m_indication_type, 4
m_indication_type:
	.zero	4
	.section	.bss.m_leds_clear,"aw",@nobits
	.type	m_leds_clear, @object
	.size	m_leds_clear, 1
m_leds_clear:
	.zero	1
	.section	.bss.m_stable_state,"aw",@nobits
	.align 4
	.type	m_stable_state, @object
	.size	m_stable_state, 4
m_stable_state:
	.zero	4
	.text
.Letext0:
	.section	.text.unlikely.nrf_gpio_cfg_sense_set
.Letext_cold0:
	.section	.note.GNU-stack,"",@progbits
