	.file	"ca.c"
	.text
.Ltext0:
	.section	.rodata.str1.1,"aMS",@progbits,1
.LC0:
	.ascii	"-----BEGIN CERTIFICATE-----\r\nMIIDdTCCAl2gAwIBAgILBAAAAAABF"
	.ascii	"Utaw5QwDQYJKoZIhvcNAQEFBQAwVzELMAkG\r\nA1UEBhMCQkUxGTAXBgNVB"
	.ascii	"AoTEEdsb2JhbFNpZ24gbnYtc2ExEDAOBgNVBAsTB1Jv\r\nb3QgQ0ExGzAZB"
	.ascii	"gNVBAMTEkdsb2JhbFNpZ24gUm9vdCBDQTAeFw05ODA5MDExMjAw\r\nMDBaF"
	.ascii	"w0yODAxMjgxMjAwMDBaMFcxCzAJBgNVBAYTAkJFMRkwFwYDVQQKExBHbG9i\r"
	.ascii	"\nYWxTaWduIG52LXNhMRAwDgYDVQQLEwdSb290IENBMRswGQYDVQQDExJHbG"
	.ascii	"9iYWxT\r\naWduIFJvb3QgQ0EwggEiMA0GCSqGSIb3DQEBAQUAA4IBDwAwgg"
	.ascii	"EKAoIBAQDaDuaZ\r\njc6j40+Kfvvxi4Mla+pIH/EqsLmVEQS98GPR4mdmzx"
	.ascii	"zdzxtIK+6NiY6arymAZavp\r\nxy0Sy6scTHAHoT0KMM0VjU/43dSMUBUc71"
	.ascii	"DuxC73/OlS8pF94G3VNTCOXkNz8kHp\r\n1Wrjsok6Vjk4bwY8iGlbKk3Fp1"
	.ascii	"S4bInMm/k8yuX9ifUSPJJ4ltbcdG6TRGHRjcdG\r\nsnUOhugZitVtbNV4Fp"
	.ascii	"Wi6cgKOOvyJBNPc1STE4U6G7weNLWLBYy5d4ux2x8gkasJ\r\nU26Qzns3dL"
	.ascii	"lwR5EiUWMWea6xrkEmCMgZK9FGqkjWZCrXgzT/LCrBbBlDSgeF59N8\r\n9i"
	.ascii	"Fo7+ryUp9/k5DPAgMBAAGjQjBAMA4GA1UdDwEB/wQEAwIBBjAPBgNVHRMBAf"
	.ascii	"8E\r\nBTADAQH/MB0GA1UdDgQWBBRge2YaRQ2XyolQL30EzTSo//z9SzANBg"
	.ascii	"kqhkiG9w0B\r\nAQUFAAOCAQEA1nPnfE920I2/7LqivjTFKDK1fPxsnCwrvQ"
	.ascii	"meU79rXqoRSLblCKOz\r\nyj1hTdNGCbM+w6DjY1Ub8rrvrTnhQ7k4o+Yvii"
	.ascii	"Y776BQVvnGCv04zcQLcFGUl5gE\r\n38Nfl"
	.string	"NUVyRRBnMRddWQVDf9VMOyGj/8N7yy5Y0b2qvzfvGn9LhJIZJrglfCm7ymP\r\nAbEVtQwdpf5pLGkkeB6zpxxxYu7KyJesF12KwvhHhm4qxFYxldBniYUr+WymXUad\r\nDKqC5JlR3XC321Y9YeRq4VzW9v493kHMB65jUr9TU/Qr6cf9tveCX4XSQRjbgbME\r\nHMUfpIBvFSDJ3gyICh3WZlXi/EjJKSZp4A==\r\n-----END CERTIFICATE-----"
	.section	.text.unlikely.iotx_ca_get,"ax",@progbits
.LCOLDB1:
	.section	.text.iotx_ca_get,"ax",@progbits
.LHOTB1:
	.section	.text.unlikely.iotx_ca_get
.Ltext_cold0:
	.section	.text.iotx_ca_get
	.globl	iotx_ca_get
	.type	iotx_ca_get, @function
iotx_ca_get:
.LFB0:
	.file 1 "framework/protocol/linkkit/iotkit/iotkit-system/src/ca.c"
	.loc 1 51 0
	.cfi_startproc
	pushl	%ebp
	.cfi_def_cfa_offset 8
	.cfi_offset 5, -8
	.loc 1 57 0
	movl	$.LC0, %eax
	.loc 1 51 0
	movl	%esp, %ebp
	.cfi_def_cfa_register 5
	.loc 1 57 0
	popl	%ebp
	.cfi_restore 5
	.cfi_def_cfa 4, 4
	ret
	.cfi_endproc
.LFE0:
	.size	iotx_ca_get, .-iotx_ca_get
	.section	.text.unlikely.iotx_ca_get
.LCOLDE1:
	.section	.text.iotx_ca_get
.LHOTE1:
	.text
.Letext0:
	.section	.text.unlikely.iotx_ca_get
.Letext_cold0:
	.section	.note.GNU-stack,"",@progbits
