	.file	"cipher.c"
	.text
.Ltext0:
	.section	.text.unlikely.mbedtls_cipher_get_block_size,"ax",@progbits
.LCOLDB0:
	.section	.text.mbedtls_cipher_get_block_size,"ax",@progbits
.LHOTB0:
	.section	.text.unlikely.mbedtls_cipher_get_block_size
.Ltext_cold0:
	.section	.text.mbedtls_cipher_get_block_size
	.type	mbedtls_cipher_get_block_size, @function
mbedtls_cipher_get_block_size:
.LFB0:
	.file 1 "./security/mbedtls/include/mbedtls/cipher.h"
	.loc 1 341 0
	.cfi_startproc
.LVL0:
	pushl	%ebp
	.cfi_def_cfa_offset 8
	.cfi_offset 5, -8
	.loc 1 342 0
	testl	%eax, %eax
	.loc 1 341 0
	movl	%esp, %ebp
	.cfi_def_cfa_register 5
	.loc 1 342 0
	je	.L3
	.loc 1 342 0 discriminator 1
	movl	(%eax), %edx
	.loc 1 343 0 discriminator 1
	xorl	%eax, %eax
.LVL1:
	.loc 1 342 0 discriminator 1
	testl	%edx, %edx
	je	.L2
	.loc 1 345 0
	movl	24(%edx), %eax
	jmp	.L2
.LVL2:
.L3:
	.loc 1 343 0
	xorl	%eax, %eax
.LVL3:
.L2:
	.loc 1 346 0
	popl	%ebp
	.cfi_restore 5
	.cfi_def_cfa 4, 4
	ret
	.cfi_endproc
.LFE0:
	.size	mbedtls_cipher_get_block_size, .-mbedtls_cipher_get_block_size
	.section	.text.unlikely.mbedtls_cipher_get_block_size
.LCOLDE0:
	.section	.text.mbedtls_cipher_get_block_size
.LHOTE0:
	.section	.text.unlikely.get_no_padding,"ax",@progbits
.LCOLDB1:
	.section	.text.get_no_padding,"ax",@progbits
.LHOTB1:
	.type	get_no_padding, @function
get_no_padding:
.LFB19:
	.file 2 "security/mbedtls/src/cipher.c"
	.loc 2 624 0
	.cfi_startproc
.LVL4:
	pushl	%ebp
	.cfi_def_cfa_offset 8
	.cfi_offset 5, -8
	movl	%esp, %ebp
	.cfi_def_cfa_register 5
	.loc 2 625 0
	cmpl	$0, 8(%ebp)
	.loc 2 624 0
	movl	16(%ebp), %eax
	.loc 2 625 0
	je	.L9
	testl	%eax, %eax
	je	.L9
	.loc 2 628 0
	movl	12(%ebp), %edx
	movl	%edx, (%eax)
	.loc 2 630 0
	xorl	%eax, %eax
	jmp	.L8
.LVL5:
.L9:
	.loc 2 626 0
	movl	$-24832, %eax
.LVL6:
.L8:
	.loc 2 631 0
	popl	%ebp
	.cfi_restore 5
	.cfi_def_cfa 4, 4
	ret
	.cfi_endproc
.LFE19:
	.size	get_no_padding, .-get_no_padding
	.section	.text.unlikely.get_no_padding
.LCOLDE1:
	.section	.text.get_no_padding
.LHOTE1:
	.section	.text.unlikely.mbedtls_cipher_list,"ax",@progbits
.LCOLDB2:
	.section	.text.mbedtls_cipher_list,"ax",@progbits
.LHOTB2:
	.globl	mbedtls_cipher_list
	.type	mbedtls_cipher_list, @function
mbedtls_cipher_list:
.LFB8:
	.loc 2 75 0
	.cfi_startproc
	.loc 2 79 0
	cmpl	$0, supported_init
	.loc 2 75 0
	pushl	%ebp
	.cfi_def_cfa_offset 8
	.cfi_offset 5, -8
	movl	%esp, %ebp
	.cfi_def_cfa_register 5
	.loc 2 79 0
	jne	.L12
	movl	$mbedtls_cipher_supported, %eax
	movl	$mbedtls_cipher_definitions, %edx
.L13:
.LVL7:
	.loc 2 84 0
	movl	(%edx), %ecx
	testl	%ecx, %ecx
	je	.L16
	.loc 2 85 0
	addl	$4, %eax
.LVL8:
	addl	$8, %edx
.LVL9:
	movl	%ecx, -4(%eax)
	jmp	.L13
.L16:
	.loc 2 87 0
	movl	$0, (%eax)
	.loc 2 89 0
	movl	$1, supported_init
.LVL10:
.L12:
	.loc 2 93 0
	movl	$mbedtls_cipher_supported, %eax
	popl	%ebp
	.cfi_restore 5
	.cfi_def_cfa 4, 4
	ret
	.cfi_endproc
.LFE8:
	.size	mbedtls_cipher_list, .-mbedtls_cipher_list
	.section	.text.unlikely.mbedtls_cipher_list
.LCOLDE2:
	.section	.text.mbedtls_cipher_list
.LHOTE2:
	.section	.text.unlikely.mbedtls_cipher_info_from_type,"ax",@progbits
.LCOLDB3:
	.section	.text.mbedtls_cipher_info_from_type,"ax",@progbits
.LHOTB3:
	.globl	mbedtls_cipher_info_from_type
	.type	mbedtls_cipher_info_from_type, @function
mbedtls_cipher_info_from_type:
.LFB9:
	.loc 2 96 0
	.cfi_startproc
.LVL11:
	pushl	%ebp
	.cfi_def_cfa_offset 8
	.cfi_offset 5, -8
	.loc 2 99 0
	movl	$mbedtls_cipher_definitions, %edx
	.loc 2 96 0
	movl	%esp, %ebp
	.cfi_def_cfa_register 5
	.loc 2 96 0
	movl	8(%ebp), %ecx
.LVL12:
.L18:
	.loc 2 99 0 discriminator 1
	movl	4(%edx), %eax
	testl	%eax, %eax
	je	.L19
	.loc 2 100 0
	cmpl	%ecx, (%edx)
	je	.L19
	.loc 2 99 0 discriminator 2
	addl	$8, %edx
.LVL13:
	jmp	.L18
.LVL14:
.L19:
	.loc 2 104 0
	popl	%ebp
	.cfi_restore 5
	.cfi_def_cfa 4, 4
	ret
	.cfi_endproc
.LFE9:
	.size	mbedtls_cipher_info_from_type, .-mbedtls_cipher_info_from_type
	.section	.text.unlikely.mbedtls_cipher_info_from_type
.LCOLDE3:
	.section	.text.mbedtls_cipher_info_from_type
.LHOTE3:
	.section	.text.unlikely.mbedtls_cipher_info_from_string,"ax",@progbits
.LCOLDB4:
	.section	.text.mbedtls_cipher_info_from_string,"ax",@progbits
.LHOTB4:
	.globl	mbedtls_cipher_info_from_string
	.type	mbedtls_cipher_info_from_string, @function
mbedtls_cipher_info_from_string:
.LFB10:
	.loc 2 107 0
	.cfi_startproc
.LVL15:
	pushl	%ebp
	.cfi_def_cfa_offset 8
	.cfi_offset 5, -8
	movl	%esp, %ebp
	.cfi_def_cfa_register 5
	pushl	%edi
	pushl	%esi
	pushl	%ebx
	.cfi_offset 7, -12
	.cfi_offset 6, -16
	.cfi_offset 3, -20
	.loc 2 111 0
	xorl	%ebx, %ebx
	movl	$mbedtls_cipher_definitions, %esi
	.loc 2 107 0
	subl	$12, %esp
	.loc 2 107 0
	movl	8(%ebp), %edi
	.loc 2 110 0
	testl	%edi, %edi
	je	.L23
.L24:
.LVL16:
	.loc 2 113 0 discriminator 1
	movl	4(%esi), %ebx
	testl	%ebx, %ebx
	je	.L23
	.loc 2 114 0
	pushl	%eax
	pushl	%eax
	pushl	%edi
	pushl	12(%ebx)
	call	strcmp
.LVL17:
	addl	$16, %esp
	testl	%eax, %eax
	je	.L23
	.loc 2 113 0 discriminator 2
	addl	$8, %esi
.LVL18:
	jmp	.L24
.LVL19:
.L23:
	.loc 2 118 0
	leal	-12(%ebp), %esp
	movl	%ebx, %eax
	popl	%ebx
	.cfi_restore 3
	popl	%esi
	.cfi_restore 6
	popl	%edi
	.cfi_restore 7
	popl	%ebp
	.cfi_restore 5
	.cfi_def_cfa 4, 4
	ret
	.cfi_endproc
.LFE10:
	.size	mbedtls_cipher_info_from_string, .-mbedtls_cipher_info_from_string
	.section	.text.unlikely.mbedtls_cipher_info_from_string
.LCOLDE4:
	.section	.text.mbedtls_cipher_info_from_string
.LHOTE4:
	.section	.text.unlikely.mbedtls_cipher_info_from_values,"ax",@progbits
.LCOLDB5:
	.section	.text.mbedtls_cipher_info_from_values,"ax",@progbits
.LHOTB5:
	.globl	mbedtls_cipher_info_from_values
	.type	mbedtls_cipher_info_from_values, @function
mbedtls_cipher_info_from_values:
.LFB11:
	.loc 2 123 0
	.cfi_startproc
.LVL20:
	pushl	%ebp
	.cfi_def_cfa_offset 8
	.cfi_offset 5, -8
	.loc 2 126 0
	movl	$mbedtls_cipher_definitions, %edx
	.loc 2 123 0
	movl	%esp, %ebp
	.cfi_def_cfa_register 5
	pushl	%ebx
	.cfi_offset 3, -12
	.loc 2 123 0
	movl	8(%ebp), %ecx
.LVL21:
.L32:
	.loc 2 126 0 discriminator 1
	movl	4(%edx), %eax
	testl	%eax, %eax
	je	.L34
	.loc 2 127 0
	movl	28(%eax), %ebx
	cmpl	%ecx, (%ebx)
	jne	.L33
	.loc 2 127 0 is_stmt 0 discriminator 1
	movl	12(%ebp), %ebx
	cmpl	%ebx, 8(%eax)
	jne	.L33
	.loc 2 128 0 is_stmt 1
	movl	16(%ebp), %ebx
	cmpl	%ebx, 4(%eax)
	je	.L34
.L33:
	.loc 2 126 0 discriminator 2
	addl	$8, %edx
.LVL22:
	jmp	.L32
.LVL23:
.L34:
	.loc 2 133 0
	popl	%ebx
	.cfi_restore 3
	popl	%ebp
	.cfi_restore 5
	.cfi_def_cfa 4, 4
	ret
	.cfi_endproc
.LFE11:
	.size	mbedtls_cipher_info_from_values, .-mbedtls_cipher_info_from_values
	.section	.text.unlikely.mbedtls_cipher_info_from_values
.LCOLDE5:
	.section	.text.mbedtls_cipher_info_from_values
.LHOTE5:
	.section	.text.unlikely.mbedtls_cipher_init,"ax",@progbits
.LCOLDB6:
	.section	.text.mbedtls_cipher_init,"ax",@progbits
.LHOTB6:
	.globl	mbedtls_cipher_init
	.type	mbedtls_cipher_init, @function
mbedtls_cipher_init:
.LFB12:
	.loc 2 136 0
	.cfi_startproc
.LVL24:
	pushl	%ebp
	.cfi_def_cfa_offset 8
	.cfi_offset 5, -8
	.loc 2 137 0
	movl	$16, %ecx
	xorl	%eax, %eax
	.loc 2 136 0
	movl	%esp, %ebp
	.cfi_def_cfa_register 5
	pushl	%edi
	.cfi_offset 7, -12
	.loc 2 137 0
	movl	8(%ebp), %edi
	rep stosl
	.loc 2 138 0
	popl	%edi
	.cfi_restore 7
	popl	%ebp
	.cfi_restore 5
	.cfi_def_cfa 4, 4
	ret
	.cfi_endproc
.LFE12:
	.size	mbedtls_cipher_init, .-mbedtls_cipher_init
	.section	.text.unlikely.mbedtls_cipher_init
.LCOLDE6:
	.section	.text.mbedtls_cipher_init
.LHOTE6:
	.section	.text.unlikely.mbedtls_cipher_free,"ax",@progbits
.LCOLDB7:
	.section	.text.mbedtls_cipher_free,"ax",@progbits
.LHOTB7:
	.globl	mbedtls_cipher_free
	.type	mbedtls_cipher_free, @function
mbedtls_cipher_free:
.LFB13:
	.loc 2 141 0
	.cfi_startproc
.LVL25:
	pushl	%ebp
	.cfi_def_cfa_offset 8
	.cfi_offset 5, -8
	movl	%esp, %ebp
	.cfi_def_cfa_register 5
	pushl	%ebx
	pushl	%eax
	.cfi_offset 3, -12
	.loc 2 141 0
	movl	8(%ebp), %ebx
	.loc 2 142 0
	testl	%ebx, %ebx
	je	.L39
	.loc 2 153 0
	movl	60(%ebx), %eax
	testl	%eax, %eax
	je	.L41
	.loc 2 154 0
	movl	(%ebx), %edx
	subl	$12, %esp
	movl	28(%edx), %edx
	pushl	%eax
	call	*24(%edx)
.LVL26:
	addl	$16, %esp
.L41:
	leal	64(%ebx), %eax
.L42:
.LVL27:
.LBB5:
.LBB6:
	.loc 2 69 0
	cmpl	%eax, %ebx
	je	.L39
.LVL28:
	movb	$0, (%ebx)
	incl	%ebx
.LVL29:
	jmp	.L42
.LVL30:
.L39:
.LBE6:
.LBE5:
	.loc 2 157 0
	movl	-4(%ebp), %ebx
	leave
	.cfi_restore 5
	.cfi_restore 3
	.cfi_def_cfa 4, 4
	ret
	.cfi_endproc
.LFE13:
	.size	mbedtls_cipher_free, .-mbedtls_cipher_free
	.section	.text.unlikely.mbedtls_cipher_free
.LCOLDE7:
	.section	.text.mbedtls_cipher_free
.LHOTE7:
	.section	.text.unlikely.mbedtls_cipher_setkey,"ax",@progbits
.LCOLDB8:
	.section	.text.mbedtls_cipher_setkey,"ax",@progbits
.LHOTB8:
	.globl	mbedtls_cipher_setkey
	.type	mbedtls_cipher_setkey, @function
mbedtls_cipher_setkey:
.LFB15:
	.loc 2 187 0
	.cfi_startproc
.LVL31:
	pushl	%ebp
	.cfi_def_cfa_offset 8
	.cfi_offset 5, -8
	movl	%esp, %ebp
	.cfi_def_cfa_register 5
	pushl	%edi
	pushl	%esi
	movl	8(%ebp), %eax
	pushl	%ebx
	.cfi_offset 7, -12
	.cfi_offset 6, -16
	.cfi_offset 3, -20
	.loc 2 187 0
	movl	12(%ebp), %edi
	movl	16(%ebp), %ecx
	movl	20(%ebp), %ebx
	.loc 2 188 0
	testl	%eax, %eax
	je	.L51
	.loc 2 188 0 discriminator 1
	movl	(%eax), %edx
	.loc 2 188 0 discriminator 1
	testl	%edx, %edx
	je	.L51
	.loc 2 191 0
	testb	$2, 20(%edx)
	jne	.L53
	.loc 2 191 0 is_stmt 0 discriminator 1
	cmpl	%ecx, 8(%edx)
	jne	.L51
.L53:
	.loc 2 203 0 is_stmt 1
	cmpl	$1, %ebx
	.loc 2 197 0
	movl	%ecx, 4(%eax)
	.loc 2 198 0
	movl	%ebx, 8(%eax)
	.loc 2 203 0
	je	.L54
.LVL32:
	.loc 2 204 0 discriminator 1
	movl	4(%edx), %esi
	subl	$3, %esi
	andl	$-3, %esi
	jne	.L55
.L54:
	.loc 2 207 0
	movl	28(%edx), %edx
	movl	%ecx, 16(%ebp)
	movl	%edi, 12(%ebp)
.LVL33:
	movl	60(%eax), %eax
	movl	%eax, 8(%ebp)
.LVL34:
	movl	12(%edx), %eax
	jmp	.L63
.LVL35:
.L55:
	.loc 2 211 0
	testl	%ebx, %ebx
	jne	.L51
	.loc 2 212 0
	movl	28(%edx), %edx
	movl	%ecx, 16(%ebp)
	movl	%edi, 12(%ebp)
	movl	60(%eax), %eax
.LVL36:
	movl	%eax, 8(%ebp)
.LVL37:
	movl	16(%edx), %eax
.L63:
	.loc 2 216 0
	popl	%ebx
	.cfi_remember_state
	.cfi_restore 3
.LVL38:
	popl	%esi
	.cfi_restore 6
	popl	%edi
	.cfi_restore 7
.LVL39:
	popl	%ebp
	.cfi_restore 5
	.cfi_def_cfa 4, 4
	.loc 2 212 0
	jmp	*%eax
.LVL40:
.L51:
	.cfi_restore_state
	.loc 2 216 0
	popl	%ebx
	.cfi_restore 3
.LVL41:
	movl	$-24832, %eax
.LVL42:
	popl	%esi
	.cfi_restore 6
	popl	%edi
	.cfi_restore 7
.LVL43:
	popl	%ebp
	.cfi_restore 5
	.cfi_def_cfa 4, 4
	ret
	.cfi_endproc
.LFE15:
	.size	mbedtls_cipher_setkey, .-mbedtls_cipher_setkey
	.section	.text.unlikely.mbedtls_cipher_setkey
.LCOLDE8:
	.section	.text.mbedtls_cipher_setkey
.LHOTE8:
	.section	.text.unlikely.mbedtls_cipher_set_iv,"ax",@progbits
.LCOLDB9:
	.section	.text.mbedtls_cipher_set_iv,"ax",@progbits
.LHOTB9:
	.globl	mbedtls_cipher_set_iv
	.type	mbedtls_cipher_set_iv, @function
mbedtls_cipher_set_iv:
.LFB16:
	.loc 2 220 0
	.cfi_startproc
.LVL44:
	pushl	%ebp
	.cfi_def_cfa_offset 8
	.cfi_offset 5, -8
	.loc 2 224 0
	movl	$-24832, %eax
	.loc 2 220 0
	movl	%esp, %ebp
	.cfi_def_cfa_register 5
	pushl	%edi
	pushl	%esi
	pushl	%ebx
	.cfi_offset 7, -12
	.cfi_offset 6, -16
	.cfi_offset 3, -20
	.loc 2 220 0
	movl	8(%ebp), %ebx
	movl	12(%ebp), %esi
	movl	16(%ebp), %ecx
	.loc 2 223 0
	testl	%ebx, %ebx
	je	.L65
	.loc 2 223 0 discriminator 1
	movl	(%ebx), %edx
	testl	%edx, %edx
	je	.L68
	testl	%esi, %esi
	je	.L68
	.loc 2 227 0
	cmpl	$16, %ecx
	.loc 2 228 0
	movl	$-24704, %eax
	.loc 2 227 0
	ja	.L65
	.loc 2 230 0
	testb	$1, 20(%edx)
	jne	.L70
	.loc 2 234 0
	movl	16(%edx), %edx
.LVL45:
	.loc 2 224 0
	movl	$-24832, %eax
	.loc 2 237 0
	cmpl	%edx, %ecx
	jnb	.L66
	jmp	.L65
.LVL46:
.L70:
	movl	%ecx, %edx
.LVL47:
.L66:
	.loc 2 241 0
	leal	40(%ebx), %eax
	movl	%edx, %ecx
.LVL48:
	movl	%eax, %edi
	.loc 2 244 0
	xorl	%eax, %eax
	.loc 2 241 0
	rep movsb
	.loc 2 242 0
	movl	%edx, 56(%ebx)
	.loc 2 244 0
	jmp	.L65
.LVL49:
.L68:
	.loc 2 224 0
	movl	$-24832, %eax
.LVL50:
.L65:
	.loc 2 245 0
	popl	%ebx
	.cfi_restore 3
.LVL51:
	popl	%esi
	.cfi_restore 6
	popl	%edi
	.cfi_restore 7
	popl	%ebp
	.cfi_restore 5
	.cfi_def_cfa 4, 4
	ret
	.cfi_endproc
.LFE16:
	.size	mbedtls_cipher_set_iv, .-mbedtls_cipher_set_iv
	.section	.text.unlikely.mbedtls_cipher_set_iv
.LCOLDE9:
	.section	.text.mbedtls_cipher_set_iv
.LHOTE9:
	.section	.text.unlikely.mbedtls_cipher_reset,"ax",@progbits
.LCOLDB10:
	.section	.text.mbedtls_cipher_reset,"ax",@progbits
.LHOTB10:
	.globl	mbedtls_cipher_reset
	.type	mbedtls_cipher_reset, @function
mbedtls_cipher_reset:
.LFB17:
	.loc 2 248 0
	.cfi_startproc
.LVL52:
	pushl	%ebp
	.cfi_def_cfa_offset 8
	.cfi_offset 5, -8
	.loc 2 250 0
	movl	$-24832, %eax
	.loc 2 248 0
	movl	%esp, %ebp
	.cfi_def_cfa_register 5
	.loc 2 248 0
	movl	8(%ebp), %edx
	.loc 2 249 0
	testl	%edx, %edx
	je	.L74
	.loc 2 249 0 discriminator 1
	cmpl	$0, (%edx)
	je	.L74
	.loc 2 255 0
	movl	60(%edx), %eax
	.loc 2 252 0
	movl	$0, 36(%edx)
	.loc 2 255 0
	movl	$1, 4(%eax)
	.loc 2 258 0
	xorl	%eax, %eax
.L74:
	.loc 2 259 0
	popl	%ebp
	.cfi_restore 5
	.cfi_def_cfa 4, 4
	ret
	.cfi_endproc
.LFE17:
	.size	mbedtls_cipher_reset, .-mbedtls_cipher_reset
	.section	.text.unlikely.mbedtls_cipher_reset
.LCOLDE10:
	.section	.text.mbedtls_cipher_reset
.LHOTE10:
	.section	.text.unlikely.mbedtls_cipher_update,"ax",@progbits
.LCOLDB11:
	.section	.text.mbedtls_cipher_update,"ax",@progbits
.LHOTB11:
	.globl	mbedtls_cipher_update
	.type	mbedtls_cipher_update, @function
mbedtls_cipher_update:
.LFB18:
	.loc 2 280 0
	.cfi_startproc
.LVL53:
	pushl	%ebp
	.cfi_def_cfa_offset 8
	.cfi_offset 5, -8
	movl	%esp, %ebp
	.cfi_def_cfa_register 5
	pushl	%edi
	pushl	%esi
	pushl	%ebx
	subl	$44, %esp
	.cfi_offset 7, -12
	.cfi_offset 6, -16
	.cfi_offset 3, -20
	.loc 2 280 0
	movl	12(%ebp), %eax
	movl	8(%ebp), %ebx
	movl	%eax, -36(%ebp)
	movl	16(%ebp), %eax
	.loc 2 284 0
	testl	%ebx, %ebx
	.loc 2 280 0
	movl	%eax, -32(%ebp)
	movl	20(%ebp), %eax
	movl	%eax, -40(%ebp)
	movl	24(%ebp), %eax
	movl	%eax, -44(%ebp)
	.loc 2 284 0
	jne	.L79
.LVL54:
.L81:
	.loc 2 286 0
	movl	$-24832, %eax
	jmp	.L99
.LVL55:
.L79:
	.loc 2 284 0 discriminator 1
	cmpl	$0, -44(%ebp)
	movl	(%ebx), %ecx
	je	.L81
	testl	%ecx, %ecx
	je	.L81
	.loc 2 289 0
	movl	-44(%ebp), %eax
	movl	$0, (%eax)
	.loc 2 290 0
	movl	%ebx, %eax
	call	mbedtls_cipher_get_block_size
.LVL56:
	.loc 2 292 0
	movl	4(%ecx), %esi
	.loc 2 290 0
	movl	%eax, -28(%ebp)
.LVL57:
	.loc 2 292 0
	cmpl	$1, %esi
	jne	.L82
	.loc 2 294 0
	movl	-32(%ebp), %edi
	cmpl	%edi, %eax
	jne	.L92
	.loc 2 297 0
	movl	-44(%ebp), %eax
.LVL58:
	movl	-28(%ebp), %edi
	movl	%edi, (%eax)
	.loc 2 299 0
	movl	28(%ecx), %eax
	movl	-40(%ebp), %ecx
	movl	%ecx, 20(%ebp)
	movl	-36(%ebp), %ecx
	movl	%ecx, 16(%ebp)
	movl	8(%ebx), %edx
	movl	%edx, 12(%ebp)
	movl	60(%ebx), %edx
	movl	%edx, 8(%ebp)
	movl	4(%eax), %eax
	.loc 2 460 0
	leal	-12(%ebp), %esp
	popl	%ebx
	.cfi_remember_state
	.cfi_restore 3
	popl	%esi
	.cfi_restore 6
	popl	%edi
	.cfi_restore 7
	popl	%ebp
	.cfi_restore 5
	.cfi_def_cfa 4, 4
	.loc 2 299 0
	jmp	*%eax
.LVL59:
.L82:
	.cfi_restore_state
	.loc 2 317 0
	cmpl	$0, -28(%ebp)
	.loc 2 319 0
	movl	$-25472, %eax
.LVL60:
	.loc 2 317 0
	je	.L99
	.loc 2 322 0
	movl	-40(%ebp), %ecx
	cmpl	%ecx, -36(%ebp)
	jne	.L83
	.loc 2 322 0 is_stmt 0 discriminator 1
	cmpl	$0, 36(%ebx)
	jne	.L81
	.loc 2 323 0 is_stmt 1
	movl	-32(%ebp), %eax
	xorl	%edx, %edx
	divl	-28(%ebp)
	testl	%edx, %edx
	jne	.L81
.L83:
	.loc 2 329 0
	cmpl	$2, %esi
	.loc 2 459 0
	movl	$-24704, %eax
	.loc 2 329 0
	jne	.L99
.LVL61:
.LBB7:
	.loc 2 336 0
	movl	8(%ebx), %edx
	movl	36(%ebx), %eax
	testl	%edx, %edx
	jne	.L84
	.loc 2 336 0 is_stmt 0 discriminator 1
	movl	-28(%ebp), %edx
	subl	%eax, %edx
	cmpl	%edx, -32(%ebp)
	ja	.L86
	jmp	.L85
.L84:
	.loc 2 337 0 is_stmt 1
	decl	%edx
	jne	.L86
	.loc 2 338 0
	movl	-28(%ebp), %edx
	subl	36(%ebx), %edx
	cmpl	%edx, -32(%ebp)
	jnb	.L86
.L85:
	.loc 2 341 0
	leal	20(%ebx,%eax), %eax
	movl	-36(%ebp), %esi
	movl	-32(%ebp), %ecx
	movl	%eax, %edi
	.loc 2 344 0
	movl	-32(%ebp), %eax
	.loc 2 341 0
	rep movsb
	.loc 2 344 0
	addl	%eax, 36(%ebx)
	jmp	.L91
.L86:
	.loc 2 351 0
	testl	%eax, %eax
	je	.L87
	.loc 2 353 0
	movl	-28(%ebp), %edi
	.loc 2 355 0
	movl	-36(%ebp), %esi
	.loc 2 353 0
	subl	%eax, %edi
	.loc 2 355 0
	leal	20(%ebx,%eax), %eax
	.loc 2 353 0
	movl	%edi, -48(%ebp)
.LVL62:
	.loc 2 355 0
	movl	-48(%ebp), %ecx
	movl	%eax, %edi
.LVL63:
	rep movsb
.LVL64:
	.loc 2 358 0
	pushl	%edx
	pushl	%edx
	.loc 2 360 0
	leal	20(%ebx), %edx
	.loc 2 358 0
	movl	(%ebx), %eax
	movl	28(%eax), %eax
	pushl	-40(%ebp)
	pushl	%edx
	.loc 2 359 0
	leal	40(%ebx), %edx
	.loc 2 358 0
	pushl	%edx
	pushl	-28(%ebp)
	pushl	8(%ebx)
	pushl	60(%ebx)
	call	*8(%eax)
.LVL65:
	addl	$32, %esp
	testl	%eax, %eax
	jne	.L99
.LVL66:
	.loc 2 365 0
	movl	-28(%ebp), %edi
	movl	-44(%ebp), %eax
.LVL67:
	.loc 2 369 0
	movl	%esi, -36(%ebp)
.LVL68:
	.loc 2 366 0
	addl	%edi, -40(%ebp)
.LVL69:
	.loc 2 370 0
	movl	-48(%ebp), %esi
	subl	%esi, -32(%ebp)
.LVL70:
	.loc 2 365 0
	addl	%edi, (%eax)
	.loc 2 367 0
	movl	$0, 36(%ebx)
.LVL71:
.L87:
	.loc 2 376 0
	cmpl	$0, -32(%ebp)
	je	.L91
	.loc 2 383 0
	movl	-32(%ebp), %eax
	xorl	%edx, %edx
	divl	-28(%ebp)
.LVL72:
	.loc 2 384 0
	testl	%edx, %edx
	jne	.L88
	.loc 2 384 0 is_stmt 0 discriminator 1
	cmpl	$0, 8(%ebx)
	cmove	-28(%ebp), %edx
.LVL73:
.L88:
	.loc 2 387 0 is_stmt 1
	movl	-32(%ebp), %eax
	movl	-36(%ebp), %esi
	movl	%edx, %ecx
	subl	%edx, %eax
	movl	%eax, -28(%ebp)
.LVL74:
	leal	20(%ebx), %eax
	addl	-28(%ebp), %esi
	movl	%eax, %edi
	rep movsb
	.loc 2 390 0
	addl	%edx, 36(%ebx)
.LVL75:
	.loc 2 397 0
	cmpl	$0, -28(%ebp)
	jne	.L89
.LVL76:
.L91:
	.loc 2 408 0
	xorl	%eax, %eax
	jmp	.L99
.LVL77:
.L92:
.LBE7:
	.loc 2 295 0
	movl	$-25216, %eax
.LVL78:
	jmp	.L99
.LVL79:
.L89:
.LBB8:
	.loc 2 399 0
	pushl	%eax
	pushl	%eax
	.loc 2 400 0
	leal	40(%ebx), %edx
	.loc 2 399 0
	movl	(%ebx), %eax
	movl	28(%eax), %eax
	pushl	-40(%ebp)
	pushl	-36(%ebp)
	pushl	%edx
	pushl	-28(%ebp)
	pushl	8(%ebx)
	pushl	60(%ebx)
	call	*8(%eax)
.LVL80:
	addl	$32, %esp
	testl	%eax, %eax
	jne	.L99
	.loc 2 405 0
	movl	-44(%ebp), %esi
	movl	-28(%ebp), %edi
	addl	%edi, (%esi)
.LVL81:
.L99:
.LBE8:
	.loc 2 460 0
	leal	-12(%ebp), %esp
	popl	%ebx
	.cfi_restore 3
	popl	%esi
	.cfi_restore 6
	popl	%edi
	.cfi_restore 7
	popl	%ebp
	.cfi_restore 5
	.cfi_def_cfa 4, 4
	ret
	.cfi_endproc
.LFE18:
	.size	mbedtls_cipher_update, .-mbedtls_cipher_update
	.section	.text.unlikely.mbedtls_cipher_update
.LCOLDE11:
	.section	.text.mbedtls_cipher_update
.LHOTE11:
	.section	.text.unlikely.mbedtls_cipher_finish,"ax",@progbits
.LCOLDB12:
	.section	.text.mbedtls_cipher_finish,"ax",@progbits
.LHOTB12:
	.globl	mbedtls_cipher_finish
	.type	mbedtls_cipher_finish, @function
mbedtls_cipher_finish:
.LFB20:
	.loc 2 636 0
	.cfi_startproc
.LVL82:
	pushl	%ebp
	.cfi_def_cfa_offset 8
	.cfi_offset 5, -8
	movl	%esp, %ebp
	.cfi_def_cfa_register 5
	pushl	%edi
	pushl	%esi
	pushl	%ebx
	subl	$28, %esp
	.cfi_offset 7, -12
	.cfi_offset 6, -16
	.cfi_offset 3, -20
	.loc 2 636 0
	movl	8(%ebp), %ebx
	movl	12(%ebp), %edi
	movl	16(%ebp), %esi
	.loc 2 637 0
	testl	%ebx, %ebx
	je	.L112
	.loc 2 637 0 discriminator 1
	movl	(%ebx), %edx
	testl	%edx, %edx
	je	.L112
	testl	%esi, %esi
	je	.L112
	.loc 2 642 0
	movl	4(%edx), %eax
	.loc 2 640 0
	movl	$0, (%esi)
	.loc 2 644 0
	leal	-5(%eax), %ecx
	cmpl	$2, %ecx
	jbe	.L113
	cmpl	$3, %eax
	je	.L113
	.loc 2 650 0
	cmpl	$1, %eax
	jne	.L104
.L106:
.LBB14:
.LBB15:
	.loc 2 686 0
	cmpl	$1, 36(%ebx)
	sbbl	%eax, %eax
	notl	%eax
	andl	$-25216, %eax
.LBE15:
.LBE14:
	jmp	.L103
.L104:
	.loc 2 659 0
	cmpl	$2, %eax
	jne	.L115
.LVL83:
.LBB21:
.LBB18:
	.loc 2 663 0
	cmpl	$1, 8(%ebx)
	jne	.L105
	.loc 2 666 0
	movl	12(%ebx), %ecx
	.loc 2 666 0
	testl	%ecx, %ecx
	je	.L106
	.loc 2 674 0
	movl	36(%ebx), %eax
	movl	%eax, -28(%ebp)
.LVL84:
.LBB16:
.LBB17:
	.loc 1 379 0
	movl	56(%ebx), %eax
	testl	%eax, %eax
	jne	.L108
	.loc 1 382 0
	movl	16(%edx), %eax
.L108:
.LVL85:
.LBE17:
.LBE16:
	.loc 2 674 0
	pushl	%edx
	pushl	-28(%ebp)
	pushl	%eax
	leal	20(%ebx), %eax
	pushl	%eax
	call	*%ecx
.LVL86:
	addl	$16, %esp
	jmp	.L109
.L105:
	.loc 2 677 0
	movl	%ebx, %eax
	call	mbedtls_cipher_get_block_size
.LVL87:
	movl	36(%ebx), %edx
	cmpl	%edx, %eax
	je	.L109
	.loc 2 683 0
	cmpl	$0, 12(%ebx)
	jne	.L116
	testl	%edx, %edx
	je	.L113
	jmp	.L116
.L109:
	.loc 2 690 0
	movl	%ebx, %eax
	call	mbedtls_cipher_get_block_size
.LVL88:
	pushl	%edx
	pushl	%edx
	.loc 2 692 0
	leal	20(%ebx), %ecx
	.loc 2 690 0
	movl	(%ebx), %edx
	movl	28(%edx), %edx
	pushl	%edi
	pushl	%ecx
	.loc 2 691 0
	leal	40(%ebx), %ecx
	.loc 2 690 0
	pushl	%ecx
	pushl	%eax
	pushl	8(%ebx)
	pushl	60(%ebx)
	call	*8(%edx)
.LVL89:
	addl	$32, %esp
	testl	%eax, %eax
	jne	.L103
	.loc 2 698 0
	cmpl	$0, 8(%ebx)
	.loc 2 699 0
	movl	%ebx, %eax
.LVL90:
	.loc 2 698 0
	jne	.L110
.LVL91:
	.loc 2 699 0
	call	mbedtls_cipher_get_block_size
.LVL92:
	movl	%esi, 16(%ebp)
	movl	%edi, 8(%ebp)
	movl	%eax, 12(%ebp)
	movl	16(%ebx), %eax
.LBE18:
.LBE21:
	.loc 2 711 0
	leal	-12(%ebp), %esp
	popl	%ebx
	.cfi_remember_state
	.cfi_restore 3
.LVL93:
	popl	%esi
	.cfi_restore 6
.LVL94:
	popl	%edi
	.cfi_restore 7
.LVL95:
	popl	%ebp
	.cfi_restore 5
	.cfi_def_cfa 4, 4
.LBB22:
.LBB19:
	.loc 2 699 0
	jmp	*%eax
.LVL96:
.L110:
	.cfi_restore_state
	.loc 2 703 0
	call	mbedtls_cipher_get_block_size
.LVL97:
	movl	%eax, (%esi)
	jmp	.L113
.LVL98:
.L112:
.LBE19:
.LBE22:
	.loc 2 638 0
	movl	$-24832, %eax
	jmp	.L103
.L113:
	.loc 2 655 0
	xorl	%eax, %eax
	jmp	.L103
.L115:
	.loc 2 710 0
	movl	$-24704, %eax
	jmp	.L103
.LVL99:
.L116:
.LBB23:
.LBB20:
	.loc 2 686 0
	movl	$-25216, %eax
.LVL100:
.L103:
.LBE20:
.LBE23:
	.loc 2 711 0
	leal	-12(%ebp), %esp
	popl	%ebx
	.cfi_restore 3
	popl	%esi
	.cfi_restore 6
	popl	%edi
	.cfi_restore 7
	popl	%ebp
	.cfi_restore 5
	.cfi_def_cfa 4, 4
	ret
	.cfi_endproc
.LFE20:
	.size	mbedtls_cipher_finish, .-mbedtls_cipher_finish
	.section	.text.unlikely.mbedtls_cipher_finish
.LCOLDE12:
	.section	.text.mbedtls_cipher_finish
.LHOTE12:
	.section	.text.unlikely.mbedtls_cipher_set_padding_mode,"ax",@progbits
.LCOLDB13:
	.section	.text.mbedtls_cipher_set_padding_mode,"ax",@progbits
.LHOTB13:
	.globl	mbedtls_cipher_set_padding_mode
	.type	mbedtls_cipher_set_padding_mode, @function
mbedtls_cipher_set_padding_mode:
.LFB21:
	.loc 2 715 0
	.cfi_startproc
.LVL101:
	pushl	%ebp
	.cfi_def_cfa_offset 8
	.cfi_offset 5, -8
	.loc 2 719 0
	movl	$-24832, %eax
	.loc 2 715 0
	movl	%esp, %ebp
	.cfi_def_cfa_register 5
	.loc 2 715 0
	movl	8(%ebp), %edx
	.loc 2 716 0
	testl	%edx, %edx
	je	.L129
	.loc 2 717 0 discriminator 1
	movl	(%edx), %ecx
	.loc 2 716 0 discriminator 1
	cmpl	$2, 4(%ecx)
	jne	.L129
	.loc 2 722 0
	cmpl	$4, 12(%ebp)
	.loc 2 754 0
	movl	$-24704, %eax
	.loc 2 722 0
	jne	.L129
	.loc 2 749 0
	movl	$0, 12(%edx)
	.loc 2 750 0
	movl	$get_no_padding, 16(%edx)
	.loc 2 757 0
	xorl	%eax, %eax
.L129:
	.loc 2 758 0
	popl	%ebp
	.cfi_restore 5
	.cfi_def_cfa 4, 4
	ret
	.cfi_endproc
.LFE21:
	.size	mbedtls_cipher_set_padding_mode, .-mbedtls_cipher_set_padding_mode
	.section	.text.unlikely.mbedtls_cipher_set_padding_mode
.LCOLDE13:
	.section	.text.mbedtls_cipher_set_padding_mode
.LHOTE13:
	.section	.text.unlikely.mbedtls_cipher_setup,"ax",@progbits
.LCOLDB14:
	.section	.text.mbedtls_cipher_setup,"ax",@progbits
.LHOTB14:
	.globl	mbedtls_cipher_setup
	.type	mbedtls_cipher_setup, @function
mbedtls_cipher_setup:
.LFB14:
	.loc 2 160 0
	.cfi_startproc
.LVL102:
	pushl	%ebp
	.cfi_def_cfa_offset 8
	.cfi_offset 5, -8
	movl	%esp, %ebp
	.cfi_def_cfa_register 5
	pushl	%edi
	pushl	%esi
	pushl	%ebx
	subl	$12, %esp
	.cfi_offset 7, -12
	.cfi_offset 6, -16
	.cfi_offset 3, -20
	.loc 2 160 0
	movl	12(%ebp), %esi
	movl	8(%ebp), %ebx
	.loc 2 161 0
	testl	%esi, %esi
	je	.L138
	testl	%ebx, %ebx
	je	.L138
	.loc 2 164 0
	xorl	%eax, %eax
	movl	$16, %ecx
	movl	%ebx, %edi
	rep stosl
	.loc 2 166 0
	movl	28(%esi), %eax
	call	*20(%eax)
.LVL103:
	.loc 2 166 0
	testl	%eax, %eax
	.loc 2 166 0
	movl	%eax, 60(%ebx)
	.loc 2 167 0
	movl	$-24960, %edx
	.loc 2 166 0
	je	.L137
	.loc 2 169 0
	movl	%esi, (%ebx)
	.loc 2 178 0
	pushl	%eax
	pushl	%eax
	pushl	$4
	pushl	%ebx
	call	mbedtls_cipher_set_padding_mode
.LVL104:
	.loc 2 182 0
	addl	$16, %esp
	xorl	%edx, %edx
	jmp	.L137
.L138:
	.loc 2 162 0
	movl	$-24832, %edx
.L137:
	.loc 2 183 0
	leal	-12(%ebp), %esp
	movl	%edx, %eax
	popl	%ebx
	.cfi_restore 3
	popl	%esi
	.cfi_restore 6
	popl	%edi
	.cfi_restore 7
	popl	%ebp
	.cfi_restore 5
	.cfi_def_cfa 4, 4
	ret
	.cfi_endproc
.LFE14:
	.size	mbedtls_cipher_setup, .-mbedtls_cipher_setup
	.section	.text.unlikely.mbedtls_cipher_setup
.LCOLDE14:
	.section	.text.mbedtls_cipher_setup
.LHOTE14:
	.section	.text.unlikely.mbedtls_cipher_crypt,"ax",@progbits
.LCOLDB15:
	.section	.text.mbedtls_cipher_crypt,"ax",@progbits
.LHOTB15:
	.globl	mbedtls_cipher_crypt
	.type	mbedtls_cipher_crypt, @function
mbedtls_cipher_crypt:
.LFB22:
	.loc 2 824 0
	.cfi_startproc
.LVL105:
	pushl	%ebp
	.cfi_def_cfa_offset 8
	.cfi_offset 5, -8
	movl	%esp, %ebp
	.cfi_def_cfa_register 5
	pushl	%edi
	pushl	%esi
	pushl	%ebx
	subl	$44, %esp
	.cfi_offset 7, -12
	.cfi_offset 6, -16
	.cfi_offset 3, -20
	.loc 2 824 0
	movl	8(%ebp), %esi
	movl	20(%ebp), %eax
	.loc 2 828 0
	pushl	16(%ebp)
	pushl	12(%ebp)
	.loc 2 824 0
	movl	28(%ebp), %edi
	movl	32(%ebp), %ebx
	.loc 2 828 0
	pushl	%esi
	.loc 2 824 0
	movl	%eax, -44(%ebp)
	movl	%gs:20, %eax
	movl	%eax, -28(%ebp)
	xorl	%eax, %eax
	.loc 2 828 0
	call	mbedtls_cipher_set_iv
.LVL106:
	addl	$12, %esp
	testl	%eax, %eax
	jne	.L142
	.loc 2 831 0
	pushl	%esi
	call	mbedtls_cipher_reset
.LVL107:
	testl	%eax, %eax
	popl	%edx
	jne	.L142
	.loc 2 834 0
	subl	$12, %esp
	pushl	%ebx
	pushl	%edi
	pushl	24(%ebp)
	pushl	-44(%ebp)
	pushl	%esi
	call	mbedtls_cipher_update
.LVL108:
	addl	$32, %esp
	testl	%eax, %eax
	jne	.L142
.LVL109:
	.loc 2 837 0
	pushl	%eax
	addl	(%ebx), %edi
	leal	-32(%ebp), %eax
	pushl	%eax
	pushl	%edi
	pushl	%esi
	call	mbedtls_cipher_finish
.LVL110:
	addl	$16, %esp
	testl	%eax, %eax
	jne	.L142
	.loc 2 840 0
	movl	-32(%ebp), %edx
	addl	%edx, (%ebx)
.L142:
	.loc 2 843 0
	movl	-28(%ebp), %ecx
	xorl	%gs:20, %ecx
	je	.L143
	call	__stack_chk_fail
.LVL111:
.L143:
	leal	-12(%ebp), %esp
	popl	%ebx
	.cfi_restore 3
	popl	%esi
	.cfi_restore 6
	popl	%edi
	.cfi_restore 7
	popl	%ebp
	.cfi_restore 5
	.cfi_def_cfa 4, 4
	ret
	.cfi_endproc
.LFE22:
	.size	mbedtls_cipher_crypt, .-mbedtls_cipher_crypt
	.section	.text.unlikely.mbedtls_cipher_crypt
.LCOLDE15:
	.section	.text.mbedtls_cipher_crypt
.LHOTE15:
	.section	.bss.supported_init,"aw",@nobits
	.align 4
	.type	supported_init, @object
	.size	supported_init, 4
supported_init:
	.zero	4
	.text
.Letext0:
	.section	.text.unlikely.mbedtls_cipher_get_block_size
.Letext_cold0:
	.file 3 "/home/stone/Documents/Ali_IOT/build/compiler/gcc-arm-none-eabi/Linux64/arm-none-eabi/include/machine/_default_types.h"
	.file 4 "/home/stone/Documents/Ali_IOT/build/compiler/gcc-arm-none-eabi/Linux64/lib/gcc/arm-none-eabi/5.4.1/include/stddef.h"
	.file 5 "./security/mbedtls/include/mbedtls/cipher_internal.h"
	.file 6 "/home/stone/Documents/Ali_IOT/build/compiler/gcc-arm-none-eabi/Linux64/arm-none-eabi/include/sys/_stdint.h"
	.file 7 "./security/mbedtls/include/mbedtls/aes_alt.h"
	.file 8 "/home/stone/Documents/Ali_IOT/build/compiler/gcc-arm-none-eabi/Linux64/arm-none-eabi/include/string.h"
	.section	.note.GNU-stack,"",@progbits
