	.file	"cJSON.c"
	.text
.Ltext0:
	.section	.text.unlikely.parse_hex4,"ax",@progbits
.LCOLDB0:
	.section	.text.parse_hex4,"ax",@progbits
.LHOTB0:
	.section	.text.unlikely.parse_hex4
.Ltext_cold0:
	.section	.text.parse_hex4
	.type	parse_hex4, @function
parse_hex4:
.LFB14:
	.file 1 "utility/cjson/cJSON.c"
	.loc 1 458 0
	.cfi_startproc
.LVL0:
	pushl	%ebp
	.cfi_def_cfa_offset 8
	.cfi_offset 5, -8
	.loc 1 459 0
	xorl	%edx, %edx
	.loc 1 458 0
	movl	%esp, %ebp
	.cfi_def_cfa_register 5
	pushl	%edi
	.cfi_offset 7, -12
	movl	%eax, %edi
	pushl	%esi
	pushl	%ebx
	.cfi_offset 6, -16
	.cfi_offset 3, -20
	.loc 1 462 0
	xorl	%ebx, %ebx
.LVL1:
.L7:
	.loc 1 464 0
	movzbl	(%edi,%ebx), %ecx
	leal	-48(%ecx), %esi
	movl	%esi, %eax
	cmpb	$9, %al
	ja	.L2
	.loc 1 465 0
	leal	-48(%edx,%ecx), %edx
.LVL2:
	jmp	.L3
.L2:
	.loc 1 466 0
	leal	-65(%ecx), %esi
	movl	%esi, %eax
	cmpb	$5, %al
	ja	.L4
	.loc 1 467 0
	leal	-55(%edx,%ecx), %edx
.LVL3:
	jmp	.L3
.L4:
	.loc 1 468 0
	leal	-97(%ecx), %esi
	movl	%esi, %eax
	cmpb	$5, %al
	ja	.L8
	.loc 1 469 0
	leal	-87(%edx,%ecx), %edx
.LVL4:
.L3:
	.loc 1 475 0
	movl	%edx, %ecx
	sall	$4, %ecx
	cmpl	$3, %ebx
	cmovne	%ecx, %edx
.LVL5:
	.loc 1 462 0
	incl	%ebx
.LVL6:
	cmpl	$4, %ebx
	jne	.L7
	movl	%edx, %eax
	jmp	.L5
.L8:
	.loc 1 471 0
	xorl	%eax, %eax
.L5:
	.loc 1 480 0
	popl	%ebx
	.cfi_restore 3
.LVL7:
	popl	%esi
	.cfi_restore 6
	popl	%edi
	.cfi_restore 7
.LVL8:
	popl	%ebp
	.cfi_restore 5
	.cfi_def_cfa 4, 4
	ret
	.cfi_endproc
.LFE14:
	.size	parse_hex4, .-parse_hex4
	.section	.text.unlikely.parse_hex4
.LCOLDE0:
	.section	.text.parse_hex4
.LHOTE0:
	.section	.text.unlikely.parse_string,"ax",@progbits
.LCOLDB1:
	.section	.text.parse_string,"ax",@progbits
.LHOTB1:
	.type	parse_string, @function
parse_string:
.LFB16:
	.loc 1 583 0
	.cfi_startproc
.LVL9:
	pushl	%ebp
	.cfi_def_cfa_offset 8
	.cfi_offset 5, -8
	movl	%esp, %ebp
	.cfi_def_cfa_register 5
	pushl	%edi
	pushl	%esi
	pushl	%ebx
	subl	$44, %esp
	.cfi_offset 7, -12
	.cfi_offset 6, -16
	.cfi_offset 3, -20
	.loc 1 583 0
	movl	%eax, -48(%ebp)
	.loc 1 584 0
	movl	%edx, %eax
.LVL10:
	movl	8(%eax), %eax
	.loc 1 583 0
	movl	%edx, -32(%ebp)
	.loc 1 584 0
	movl	(%edx), %edx
.LVL11:
	leal	1(%edx,%eax), %esi
.LVL12:
	.loc 1 592 0
	addl	%edx, %eax
	cmpb	$34, (%eax)
	jne	.L18
.LBB31:
	.loc 1 601 0
	movl	-32(%ebp), %edi
	movl	%esi, -28(%ebp)
	movl	4(%edi), %ebx
	movl	%ebx, %edi
	xorl	%ebx, %ebx
.LVL13:
.L16:
	movl	-28(%ebp), %ecx
	subl	%edx, %ecx
	cmpl	%edi, %ecx
	jnb	.L18
	.loc 1 601 0 is_stmt 0 discriminator 1
	movl	-28(%ebp), %ecx
	movb	(%ecx), %cl
	cmpb	$34, %cl
	je	.L64
	.loc 1 603 0 is_stmt 1
	cmpb	$92, %cl
	jne	.L17
	.loc 1 604 0
	incl	-28(%ebp)
.LVL14:
	movl	-28(%ebp), %ecx
	subl	%edx, %ecx
	cmpl	%ecx, %edi
	jbe	.L18
	.loc 1 608 0
	incl	%ebx
.LVL15:
.L17:
	.loc 1 611 0
	incl	-28(%ebp)
.LVL16:
	jmp	.L16
.LVL17:
.L64:
	.loc 1 620 0 discriminator 1
	movl	-28(%ebp), %edx
	subl	$12, %esp
	subl	%eax, %edx
	movl	%edx, %eax
.LVL18:
	subl	%ebx, %eax
	incl	%eax
	pushl	%eax
.LVL19:
	movl	-32(%ebp), %eax
	call	*16(%eax)
.LVL20:
	.loc 1 621 0 discriminator 1
	addl	$16, %esp
	testl	%eax, %eax
	.loc 1 620 0 discriminator 1
	movl	%eax, -40(%ebp)
.LVL21:
	movl	%eax, %ebx
.LVL22:
	.loc 1 621 0 discriminator 1
	je	.L18
.LVL23:
.L20:
.LBE31:
	.loc 1 629 0
	cmpl	-28(%ebp), %esi
	jnb	.L65
	.loc 1 630 0
	movb	(%esi), %al
	cmpb	$92, %al
	je	.L21
.LVL24:
	.loc 1 631 0
	movb	%al, (%ebx)
	incl	%esi
.LVL25:
	incl	%ebx
.LVL26:
	jmp	.L20
.L21:
.LVL27:
.LBB32:
	.loc 1 635 0
	movl	-28(%ebp), %edx
	subl	%esi, %edx
	testl	%edx, %edx
	jle	.L23
	.loc 1 638 0
	movb	1(%esi), %al
	cmpb	$102, %al
	je	.L24
	ja	.L25
	cmpb	$47, %al
	je	.L26
	ja	.L27
	cmpb	$34, %al
	je	.L26
	jmp	.L23
.L27:
	cmpb	$92, %al
	je	.L26
	cmpb	$98, %al
	jne	.L23
.LVL28:
	.loc 1 640 0
	movb	$8, (%ebx)
	jmp	.L63
.LVL29:
.L25:
	.loc 1 638 0
	cmpb	$114, %al
	je	.L29
	ja	.L30
	cmpb	$110, %al
	jne	.L23
.LVL30:
	.loc 1 646 0
	movb	$10, (%ebx)
	jmp	.L63
.LVL31:
.L30:
	.loc 1 638 0
	cmpb	$116, %al
	je	.L32
	cmpb	$117, %al
	je	.L33
	jmp	.L23
.L24:
.LVL32:
	.loc 1 643 0
	movb	$12, (%ebx)
.LVL33:
.L63:
	incl	%ebx
	.loc 1 634 0
	movl	$2, %edx
	.loc 1 644 0
	jmp	.L34
.LVL34:
.L29:
	.loc 1 649 0
	movb	$13, (%ebx)
	jmp	.L63
.LVL35:
.L32:
	.loc 1 652 0
	movb	$9, (%ebx)
	jmp	.L63
.LVL36:
.L26:
	.loc 1 657 0
	movb	%al, (%ebx)
	jmp	.L63
.LVL37:
.L33:
.LBB33:
.LBB34:
	.loc 1 494 0
	cmpl	$5, %edx
	jle	.L23
	.loc 1 500 0
	leal	2(%esi), %eax
	call	parse_hex4
.LVL38:
	movl	%eax, %ecx
.LVL39:
	.loc 1 503 0
	leal	-56320(%eax), %eax
.LVL40:
	cmpl	$1023, %eax
	jbe	.L23
	.loc 1 507 0
	leal	-55296(%ecx), %eax
	cmpl	$1023, %eax
	ja	.L35
.LVL41:
.LBB35:
	.loc 1 512 0
	movl	-28(%ebp), %edx
	leal	6(%esi), %eax
.LVL42:
	subl	%eax, %edx
	cmpl	$5, %edx
	jle	.L23
	.loc 1 517 0
	cmpb	$92, 6(%esi)
	jne	.L23
	cmpb	$117, 7(%esi)
	jne	.L23
	.loc 1 523 0
	leal	8(%esi), %eax
.LVL43:
	movl	%ecx, -36(%ebp)
	call	parse_hex4
.LVL44:
	.loc 1 525 0
	leal	-56320(%eax), %edx
	cmpl	$1023, %edx
	ja	.L23
	.loc 1 532 0
	movl	-36(%ebp), %ecx
	andl	$1023, %eax
.LVL45:
	andl	$1023, %ecx
	movl	%ecx, %edx
.LVL46:
	sall	$10, %edx
	orl	%edx, %eax
	.loc 1 510 0
	movl	$12, %edx
	.loc 1 532 0
	leal	65536(%eax), %ecx
.LVL47:
	jmp	.L36
.LVL48:
.L35:
.LBE35:
	.loc 1 541 0
	cmpl	$127, %ecx
	.loc 1 534 0
	movl	$6, %edx
	.loc 1 541 0
	jbe	.L45
	.loc 1 544 0
	cmpl	$2047, %ecx
	jbe	.L46
.LVL49:
.L36:
	.loc 1 548 0
	cmpl	$65535, %ecx
	jbe	.L47
	.loc 1 552 0
	cmpl	$1114111, %ecx
	ja	.L23
	.loc 1 555 0
	movb	$-16, -41(%ebp)
	.loc 1 554 0
	movb	$4, -36(%ebp)
	jmp	.L37
.LVL50:
.L45:
	.loc 1 492 0
	movb	$0, -41(%ebp)
	.loc 1 543 0
	movb	$1, -36(%ebp)
	jmp	.L37
.L46:
	.loc 1 547 0
	movb	$-64, -41(%ebp)
	.loc 1 546 0
	movb	$2, -36(%ebp)
	jmp	.L37
.LVL51:
.L47:
	.loc 1 551 0
	movb	$-32, -41(%ebp)
	.loc 1 550 0
	movb	$3, -36(%ebp)
.LVL52:
.L37:
	.loc 1 562 0
	movb	-36(%ebp), %al
	decl	%eax
	movb	%al, -42(%ebp)
.LVL53:
.L38:
	cmpb	$0, -42(%ebp)
	je	.L66
	.loc 1 564 0
	movzbl	-42(%ebp), %eax
	.loc 1 562 0
	decb	-42(%ebp)
.LVL54:
	.loc 1 564 0
	movl	%eax, %edi
	movb	%cl, %al
.LVL55:
	.loc 1 565 0
	shrl	$6, %ecx
.LVL56:
	.loc 1 564 0
	andl	$63, %eax
	orl	$-128, %eax
	movb	%al, (%ebx,%edi)
	jmp	.L38
.L66:
	.loc 1 568 0
	cmpb	$1, -36(%ebp)
	je	.L40
	.loc 1 569 0
	movb	-41(%ebp), %al
	orl	%ecx, %eax
	jmp	.L62
.L40:
	.loc 1 571 0
	movb	%cl, %al
	andl	$127, %eax
.L62:
	.loc 1 573 0
	movzbl	-36(%ebp), %ecx
.LVL57:
	.loc 1 571 0
	movb	%al, (%ebx)
	.loc 1 573 0
	addl	%ecx, %ebx
.LVL58:
.L34:
.LBE34:
.LBE33:
	.loc 1 672 0
	addl	%edx, %esi
.LVL59:
	jmp	.L20
.LVL60:
.L65:
.LBE32:
	.loc 1 681 0
	movl	-48(%ebp), %eax
	.loc 1 688 0
	movl	-32(%ebp), %esi
.LVL61:
	.loc 1 682 0
	movl	-40(%ebp), %edi
	.loc 1 677 0
	movb	$0, (%ebx)
	.loc 1 681 0
	movl	$16, 12(%eax)
	.loc 1 682 0
	movl	%edi, 16(%eax)
	.loc 1 688 0
	movl	-28(%ebp), %eax
	subl	(%esi), %eax
	incl	%eax
	movl	%eax, 8(%esi)
	.loc 1 690 0
	movl	$1, %eax
	jmp	.L43
.LVL62:
.L23:
	.loc 1 695 0
	movl	-32(%ebp), %eax
	subl	$12, %esp
	pushl	-40(%ebp)
	call	*20(%eax)
.LVL63:
	addl	$16, %esp
	jmp	.L44
.LVL64:
.L18:
	.loc 1 700 0
	xorl	%eax, %eax
	.loc 1 697 0
	testl	%esi, %esi
	je	.L43
.LVL65:
.L44:
	.loc 1 698 0
	movl	%esi, %eax
	movl	-32(%ebp), %esi
.LVL66:
	subl	(%esi), %eax
.LVL67:
	movl	%eax, 8(%esi)
	.loc 1 700 0
	xorl	%eax, %eax
.L43:
	.loc 1 701 0
	leal	-12(%ebp), %esp
	popl	%ebx
	.cfi_restore 3
	popl	%esi
	.cfi_restore 6
	popl	%edi
	.cfi_restore 7
	popl	%ebp
	.cfi_restore 5
	.cfi_def_cfa 4, 4
.LVL68:
	ret
	.cfi_endproc
.LFE16:
	.size	parse_string, .-parse_string
	.section	.text.unlikely.parse_string
.LCOLDE1:
	.section	.text.parse_string
.LHOTE1:
	.section	.text.unlikely.buffer_skip_whitespace,"ax",@progbits
.LCOLDB2:
	.section	.text.buffer_skip_whitespace,"ax",@progbits
.LHOTB2:
	.type	buffer_skip_whitespace, @function
buffer_skip_whitespace:
.LFB19:
	.loc 1 825 0
	.cfi_startproc
.LVL69:
	.loc 1 826 0
	testl	%eax, %eax
	je	.L74
	.loc 1 825 0 discriminator 1
	pushl	%ebp
	.cfi_def_cfa_offset 8
	.cfi_offset 5, -8
	movl	%eax, %ecx
	movl	%esp, %ebp
	.cfi_def_cfa_register 5
	pushl	%ebx
	.cfi_offset 3, -12
	.loc 1 826 0 discriminator 1
	movl	(%eax), %ebx
	.loc 1 827 0 discriminator 1
	xorl	%eax, %eax
.LVL70:
	.loc 1 826 0 discriminator 1
	testl	%ebx, %ebx
	je	.L68
	.loc 1 829 0
	movl	4(%ecx), %eax
.L69:
	movl	8(%ecx), %edx
	cmpl	%eax, %edx
	jb	.L70
.L73:
	.loc 1 832 0
	cmpl	%eax, %edx
	jne	.L78
	.loc 1 833 0
	decl	%edx
	movl	%edx, 8(%ecx)
	jmp	.L78
.L70:
	.loc 1 829 0 discriminator 2
	cmpb	$32, (%ebx,%edx)
	ja	.L73
	.loc 1 830 0
	incl	%edx
	movl	%edx, 8(%ecx)
	jmp	.L69
.L78:
	.loc 1 833 0
	movl	%ecx, %eax
	jmp	.L68
.LVL71:
.L74:
	.cfi_def_cfa 4, 4
	.cfi_restore 3
	.cfi_restore 5
	.loc 1 827 0
	xorl	%eax, %eax
.LVL72:
	ret
.LVL73:
.L68:
	.cfi_def_cfa 5, 8
	.cfi_offset 3, -12
	.cfi_offset 5, -8
	.loc 1 836 0
	popl	%ebx
	.cfi_restore 3
	popl	%ebp
	.cfi_restore 5
	.cfi_def_cfa 4, 4
	ret
	.cfi_endproc
.LFE19:
	.size	buffer_skip_whitespace, .-buffer_skip_whitespace
	.section	.text.unlikely.buffer_skip_whitespace
.LCOLDE2:
	.section	.text.buffer_skip_whitespace
.LHOTE2:
	.section	.text.unlikely.get_array_item,"ax",@progbits
.LCOLDB3:
	.section	.text.get_array_item,"ax",@progbits
.LHOTB3:
	.type	get_array_item, @function
get_array_item:
.LFB35:
	.loc 1 1456 0
	.cfi_startproc
.LVL74:
	pushl	%ebp
	.cfi_def_cfa_offset 8
	.cfi_offset 5, -8
	.loc 1 1459 0
	testl	%eax, %eax
	.loc 1 1456 0
	movl	%esp, %ebp
	.cfi_def_cfa_register 5
	.loc 1 1459 0
	je	.L84
	.loc 1 1462 0
	movl	8(%eax), %eax
.LVL75:
.L81:
	.loc 1 1463 0
	testl	%eax, %eax
	je	.L80
	testl	%edx, %edx
	je	.L80
	.loc 1 1464 0
	decl	%edx
.LVL76:
	.loc 1 1465 0
	movl	(%eax), %eax
.LVL77:
	jmp	.L81
.LVL78:
.L84:
	.loc 1 1460 0
	xorl	%eax, %eax
.LVL79:
.L80:
	.loc 1 1469 0
	popl	%ebp
	.cfi_restore 5
	.cfi_def_cfa 4, 4
	ret
	.cfi_endproc
.LFE35:
	.size	get_array_item, .-get_array_item
	.section	.text.unlikely.get_array_item
.LCOLDE3:
	.section	.text.get_array_item
.LHOTE3:
	.section	.text.unlikely.update_offset,"ax",@progbits
.LCOLDB4:
	.section	.text.update_offset,"ax",@progbits
.LHOTB4:
	.type	update_offset, @function
update_offset:
.LFB12:
	.loc 1 393 0
	.cfi_startproc
.LVL80:
	.loc 1 395 0
	testl	%eax, %eax
	je	.L100
	.loc 1 393 0 discriminator 1
	pushl	%ebp
	.cfi_def_cfa_offset 8
	.cfi_offset 5, -8
	movl	%eax, %edx
	movl	%esp, %ebp
	.cfi_def_cfa_register 5
	pushl	%edi
	pushl	%ebx
	.cfi_offset 7, -12
	.cfi_offset 3, -16
	.loc 1 395 0 discriminator 1
	movl	(%eax), %edi
	testl	%edi, %edi
	je	.L90
	.loc 1 397 0
	movl	8(%eax), %ebx
.LVL81:
	.loc 1 399 0
	orl	$-1, %ecx
	xorl	%eax, %eax
.LVL82:
	addl	%ebx, %edi
.LVL83:
	repnz scasb
.LVL84:
	movl	%ecx, %eax
	notl	%eax
	leal	-1(%ebx,%eax), %eax
	movl	%eax, 8(%edx)
.L90:
	.loc 1 400 0
	popl	%ebx
	.cfi_restore 3
	popl	%edi
	.cfi_restore 7
	popl	%ebp
	.cfi_restore 5
	.cfi_def_cfa 4, 4
.LVL85:
.L100:
	ret
	.cfi_endproc
.LFE12:
	.size	update_offset, .-update_offset
	.section	.text.unlikely.update_offset
.LCOLDE4:
	.section	.text.update_offset
.LHOTE4:
	.section	.text.unlikely.ensure,"ax",@progbits
.LCOLDB5:
	.section	.text.ensure,"ax",@progbits
.LHOTB5:
	.type	ensure, @function
ensure:
.LFB11:
	.loc 1 327 0
	.cfi_startproc
.LVL86:
	.loc 1 331 0
	testl	%eax, %eax
	je	.L110
	.loc 1 331 0 discriminator 1
	movl	(%eax), %ecx
	testl	%ecx, %ecx
	je	.L122
	.loc 1 327 0
	pushl	%ebp
	.cfi_def_cfa_offset 8
	.cfi_offset 5, -8
	movl	%esp, %ebp
	.cfi_def_cfa_register 5
	pushl	%edi
	pushl	%esi
	pushl	%ebx
	subl	$28, %esp
	.cfi_offset 7, -12
	.cfi_offset 6, -16
	.cfi_offset 3, -20
	.loc 1 334 0
	movl	4(%eax), %ebx
	testl	%ebx, %ebx
	je	.L103
	.loc 1 334 0 is_stmt 0 discriminator 1
	cmpl	8(%eax), %ebx
	jbe	.L113
.L103:
	.loc 1 339 0 is_stmt 1
	testl	%edx, %edx
	js	.L113
	.loc 1 344 0
	movl	8(%eax), %esi
	leal	1(%esi,%edx), %edx
.LVL87:
	.loc 1 345 0
	cmpl	%edx, %ebx
	jb	.L104
	.loc 1 346 0
	addl	%esi, %ecx
	jmp	.L102
.L104:
	.loc 1 348 0
	cmpl	$0, 16(%eax)
	jne	.L113
	.loc 1 352 0
	cmpl	$1073741823, %edx
	jbe	.L105
	.loc 1 354 0
	testl	%edx, %edx
	.loc 1 355 0
	movl	$2147483647, -28(%ebp)
	.loc 1 354 0
	jns	.L106
	jmp	.L113
.L105:
	.loc 1 359 0
	leal	(%edx,%edx), %edi
	movl	%edi, -28(%ebp)
.LVL88:
.L106:
	movl	%eax, %ebx
.LVL89:
	.loc 1 361 0
	movl	32(%eax), %eax
.LVL90:
	testl	%eax, %eax
	je	.L107
.LVL91:
	.loc 1 363 0
	pushl	%edx
	pushl	%edx
	pushl	-28(%ebp)
	pushl	%ecx
	call	*%eax
.LVL92:
	.loc 1 364 0
	addl	$16, %esp
	testl	%eax, %eax
	jne	.L108
	jmp	.L123
.LVL93:
.L107:
	.loc 1 373 0
	subl	$12, %esp
	pushl	-28(%ebp)
	call	*24(%ebx)
.LVL94:
	.loc 1 374 0
	addl	$16, %esp
	testl	%eax, %eax
	jne	.L109
.L123:
	.loc 1 375 0
	subl	$12, %esp
	pushl	(%ebx)
	call	*28(%ebx)
.LVL95:
	.loc 1 376 0
	movl	$0, 4(%ebx)
	.loc 1 377 0
	movl	$0, (%ebx)
	.loc 1 379 0
	addl	$16, %esp
	jmp	.L113
.LVL96:
.L109:
	.loc 1 382 0
	movl	8(%ebx), %edi
	movl	(%ebx), %esi
.LVL97:
	.loc 1 383 0
	subl	$12, %esp
	.loc 1 382 0
	movl	%eax, -32(%ebp)
	leal	1(%edi), %ecx
	movl	%eax, %edi
	rep movsb
	.loc 1 383 0
	pushl	(%ebx)
	call	*28(%ebx)
.LVL98:
	movl	-32(%ebp), %eax
	addl	$16, %esp
.LVL99:
.L108:
	.loc 1 386 0
	movl	%eax, (%ebx)
	.loc 1 388 0
	addl	8(%ebx), %eax
.LVL100:
	.loc 1 385 0
	movl	-28(%ebp), %esi
	.loc 1 388 0
	movl	%eax, %ecx
	.loc 1 385 0
	movl	%esi, 4(%ebx)
	.loc 1 388 0
	jmp	.L102
.LVL101:
.L110:
	.cfi_def_cfa 4, 4
	.cfi_restore 3
	.cfi_restore 5
	.cfi_restore 6
	.cfi_restore 7
	.loc 1 332 0
	xorl	%ecx, %ecx
.L122:
	.loc 1 389 0
	movl	%ecx, %eax
.LVL102:
	ret
.LVL103:
.L113:
	.cfi_def_cfa 5, 8
	.cfi_offset 3, -20
	.cfi_offset 5, -8
	.cfi_offset 6, -16
	.cfi_offset 7, -12
	.loc 1 332 0
	xorl	%ecx, %ecx
.L102:
	.loc 1 389 0
	leal	-12(%ebp), %esp
	movl	%ecx, %eax
	popl	%ebx
	.cfi_restore 3
	popl	%esi
	.cfi_restore 6
	popl	%edi
	.cfi_restore 7
	popl	%ebp
	.cfi_restore 5
	.cfi_def_cfa 4, 4
	ret
	.cfi_endproc
.LFE11:
	.size	ensure, .-ensure
	.section	.text.unlikely.ensure
.LCOLDE5:
	.section	.text.ensure
.LHOTE5:
	.section	.rodata.str1.1,"aMS",@progbits,1
.LC6:
	.string	"\"\""
.LC7:
	.string	"u%04x"
	.section	.text.unlikely.print_string_ptr,"ax",@progbits
.LCOLDB8:
	.section	.text.print_string_ptr,"ax",@progbits
.LHOTB8:
	.type	print_string_ptr, @function
print_string_ptr:
.LFB17:
	.loc 1 705 0
	.cfi_startproc
.LVL104:
	.loc 1 713 0
	testl	%edx, %edx
	je	.L171
	.loc 1 705 0
	pushl	%ebp
	.cfi_def_cfa_offset 8
	.cfi_offset 5, -8
	movl	%esp, %ebp
	.cfi_def_cfa_register 5
	pushl	%edi
	pushl	%esi
	pushl	%ebx
	.cfi_offset 7, -12
	.cfi_offset 6, -16
	.cfi_offset 3, -20
	movl	%eax, %esi
	movl	%edx, %eax
.LVL105:
	subl	$28, %esp
	.loc 1 717 0
	testl	%esi, %esi
	je	.L127
	movl	%esi, %edx
.LVL106:
	xorl	%edi, %edi
	jmp	.L128
.L127:
	.loc 1 718 0
	movl	$3, %edx
	call	ensure
.LVL107:
	.loc 1 719 0
	testl	%eax, %eax
	jne	.L172
.LVL108:
.L129:
	.loc 1 714 0
	xorl	%eax, %eax
.LVL109:
	jmp	.L126
.LVL110:
.L172:
	.loc 1 721 0
	pushl	%ebx
	pushl	%ebx
	pushl	$.LC6
	pushl	%eax
	call	strcpy
.LVL111:
	.loc 1 723 0
	addl	$16, %esp
	jmp	.L169
.LVL112:
.L134:
	.loc 1 728 0
	cmpb	$13, %cl
	ja	.L131
	cmpb	$12, %cl
	jb	.L173
.L132:
	.loc 1 737 0
	incl	%edi
.LVL113:
.L133:
	.loc 1 727 0 discriminator 2
	incl	%edx
.LVL114:
.L128:
	.loc 1 727 0 is_stmt 0 discriminator 1
	movb	(%edx), %cl
	testb	%cl, %cl
	jne	.L134
	jmp	.L174
.L173:
	.loc 1 728 0 is_stmt 1
	leal	-8(%ecx), %ebx
	cmpb	$2, %bl
	ja	.L130
	jmp	.L132
.L131:
	cmpb	$34, %cl
	je	.L132
	cmpb	$92, %cl
	je	.L132
.L130:
	.loc 1 742 0
	leal	5(%edi), %ebx
	cmpb	$31, %cl
	cmovbe	%ebx, %edi
.LVL115:
	jmp	.L133
.LVL116:
.L174:
	.loc 1 747 0
	subl	%esi, %edx
.LVL117:
	leal	(%edx,%edi), %ecx
	.loc 1 749 0
	leal	3(%ecx), %edx
	.loc 1 747 0
	movl	%ecx, -28(%ebp)
.LVL118:
	.loc 1 749 0
	call	ensure
.LVL119:
	.loc 1 750 0
	testl	%eax, %eax
	.loc 1 749 0
	movl	%eax, %ebx
.LVL120:
	.loc 1 750 0
	je	.L129
	leal	1(%eax), %edx
	.loc 1 754 0
	testl	%edi, %edi
	.loc 1 755 0
	movb	$34, (%eax)
	.loc 1 756 0
	movl	%edx, %edi
.LVL121:
	.loc 1 754 0
	jne	.L136
	.loc 1 756 0
	movl	-28(%ebp), %ecx
	rep movsb
.LVL122:
	jmp	.L170
.LVL123:
.L148:
	.loc 1 767 0
	cmpb	$31, %dl
	seta	%al
	cmpb	$34, %dl
	setne	%cl
	testb	%cl, %al
	je	.L137
	cmpb	$92, %dl
	je	.L137
	.loc 1 769 0
	movb	%dl, (%edi)
	movl	%edi, %edx
.LVL124:
.L138:
	.loc 1 766 0 discriminator 2
	leal	1(%edx), %edi
	incl	%esi
.LVL125:
.L136:
	.loc 1 766 0 is_stmt 0 discriminator 1
	movb	(%esi), %dl
	testb	%dl, %dl
	jne	.L148
	jmp	.L170
.L137:
	.loc 1 772 0 is_stmt 1
	movb	$92, (%edi)
	.loc 1 773 0
	movzbl	(%esi), %eax
	.loc 1 772 0
	leal	1(%edi), %edx
.LVL126:
	.loc 1 773 0
	cmpb	$12, %al
	je	.L140
	ja	.L141
	cmpb	$9, %al
	je	.L142
	cmpb	$10, %al
	je	.L143
	cmpb	$8, %al
	jne	.L139
	.loc 1 781 0
	movb	$98, 1(%edi)
	.loc 1 782 0
	jmp	.L138
.L141:
	.loc 1 773 0
	cmpb	$34, %al
	je	.L145
	cmpb	$92, %al
	je	.L146
	cmpb	$13, %al
	jne	.L139
	.loc 1 790 0
	movb	$114, 1(%edi)
	.loc 1 791 0
	jmp	.L138
.L146:
	.loc 1 775 0
	movb	$92, 1(%edi)
	.loc 1 776 0
	jmp	.L138
.L145:
	.loc 1 778 0
	movb	$34, 1(%edi)
	.loc 1 779 0
	jmp	.L138
.L140:
	.loc 1 784 0
	movb	$102, 1(%edi)
	.loc 1 785 0
	jmp	.L138
.L143:
	.loc 1 787 0
	movb	$110, 1(%edi)
	.loc 1 788 0
	jmp	.L138
.L142:
	.loc 1 793 0
	movb	$116, 1(%edi)
	.loc 1 794 0
	jmp	.L138
.L139:
	.loc 1 797 0
	pushl	%ecx
	pushl	%eax
	pushl	$.LC7
	pushl	%edx
	call	sprintf
.LVL127:
	.loc 1 798 0
	leal	5(%edi), %edx
.LVL128:
	.loc 1 799 0
	addl	$16, %esp
	jmp	.L138
.LVL129:
.L170:
	.loc 1 803 0
	movl	-28(%ebp), %eax
	movb	$34, 1(%ebx,%eax)
.LVL130:
	.loc 1 804 0
	movb	$0, 2(%ebx,%eax)
.LVL131:
.L169:
	.loc 1 806 0
	movl	$1, %eax
.L126:
	.loc 1 807 0
	leal	-12(%ebp), %esp
	popl	%ebx
	.cfi_restore 3
	popl	%esi
	.cfi_restore 6
	popl	%edi
	.cfi_restore 7
	popl	%ebp
	.cfi_restore 5
	.cfi_def_cfa 4, 4
	ret
.LVL132:
.L171:
	.loc 1 714 0
	xorl	%eax, %eax
.LVL133:
	.loc 1 807 0
	ret
	.cfi_endproc
.LFE17:
	.size	print_string_ptr, .-print_string_ptr
	.section	.text.unlikely.print_string_ptr
.LCOLDE8:
	.section	.text.print_string_ptr
.LHOTE8:
	.section	.text.unlikely.get_object_item,"ax",@progbits
.LCOLDB9:
	.section	.text.get_object_item,"ax",@progbits
.LHOTB9:
	.type	get_object_item, @function
get_object_item:
.LFB37:
	.loc 1 1480 0
	.cfi_startproc
.LVL134:
	.loc 1 1483 0
	testl	%eax, %eax
	je	.L207
	testl	%edx, %edx
	je	.L207
	.loc 1 1480 0
	pushl	%ebp
	.cfi_def_cfa_offset 8
	.cfi_offset 5, -8
	movl	%esp, %ebp
	.cfi_def_cfa_register 5
	pushl	%edi
	pushl	%esi
	pushl	%ebx
	subl	$28, %esp
	.cfi_offset 7, -12
	.cfi_offset 6, -16
	.cfi_offset 3, -20
	.loc 1 1487 0
	testl	%ecx, %ecx
	movl	%edx, -32(%ebp)
	.loc 1 1486 0
	movl	8(%eax), %esi
.LVL135:
	.loc 1 1487 0
	je	.L180
.LVL136:
.L181:
	.loc 1 1488 0
	testl	%esi, %esi
	jne	.L208
.L182:
	.loc 1 1484 0
	xorl	%eax, %eax
	jmp	.L205
.L208:
	.loc 1 1488 0 discriminator 1
	pushl	%eax
	pushl	%eax
	pushl	24(%esi)
	pushl	-32(%ebp)
	call	strcmp
.LVL137:
	addl	$16, %esp
	testl	%eax, %eax
	je	.L185
	.loc 1 1489 0
	movl	(%esi), %esi
.LVL138:
	jmp	.L181
.L210:
	.loc 1 1492 0 discriminator 1
	movl	24(%esi), %eax
.LBB42:
.LBB43:
	.loc 1 92 0 discriminator 1
	testl	%eax, %eax
.LBE43:
.LBE42:
	.loc 1 1492 0 discriminator 1
	movl	%eax, -28(%ebp)
.LVL139:
.LBB54:
.LBB52:
	.loc 1 92 0 discriminator 1
	jne	.L209
.LVL140:
.L184:
.LBE52:
.LBE54:
	.loc 1 1497 0
	movl	(%esi), %esi
.LVL141:
.L180:
	.loc 1 1492 0
	testl	%esi, %esi
	jne	.L210
	jmp	.L182
.LVL142:
.L209:
.LBB55:
.LBB53:
	.loc 1 95 0
	cmpl	%eax, -32(%ebp)
	je	.L185
	movl	-32(%ebp), %edi
.LVL143:
.L186:
.LBB44:
	.loc 1 98 0
	movzbl	(%edi), %ebx
.LVL144:
	.loc 1 98 0
	call	__locale_ctype_ptr
.LVL145:
	movb	1(%eax,%ebx), %al
	leal	32(%ebx), %ecx
	andl	$3, %eax
	decb	%al
.LBE44:
.LBB45:
	.loc 1 98 0
	movl	-28(%ebp), %eax
.LBE45:
.LBB46:
	.loc 1 98 0
	cmove	%ecx, %ebx
.LVL146:
	movl	%ebx, -36(%ebp)
.LBE46:
.LBB47:
	.loc 1 98 0
	movzbl	(%eax), %ebx
.LVL147:
	.loc 1 98 0
	call	__locale_ctype_ptr
.LVL148:
	movb	1(%eax,%ebx), %cl
	leal	32(%ebx), %eax
	andl	$3, %ecx
	decb	%cl
	cmove	%eax, %ebx
.LVL149:
.LBE47:
	.loc 1 98 0
	cmpl	%ebx, -36(%ebp)
	jne	.L211
	.loc 1 99 0
	cmpb	$0, (%edi)
	je	.L185
	.loc 1 98 0
	incl	%edi
.LVL150:
	incl	-28(%ebp)
.LVL151:
	jmp	.L186
.LVL152:
.L211:
.LBB48:
	.loc 1 103 0
	movzbl	(%edi), %ebx
.LVL153:
	.loc 1 103 0
	call	__locale_ctype_ptr
.LVL154:
	movb	1(%eax,%ebx), %al
	leal	32(%ebx), %edi
.LVL155:
	andl	$3, %eax
	decb	%al
.LBE48:
.LBB49:
	.loc 1 103 0
	movl	-28(%ebp), %eax
.LBE49:
.LBB50:
	.loc 1 103 0
	cmovne	%ebx, %edi
.LBE50:
.LBB51:
	.loc 1 103 0
	movzbl	(%eax), %ebx
.LVL156:
	.loc 1 103 0
	call	__locale_ctype_ptr
.LVL157:
	movb	1(%eax,%ebx), %cl
	leal	32(%ebx), %eax
	andl	$3, %ecx
	decb	%cl
	cmove	%eax, %ebx
.LVL158:
.LBE51:
.LBE53:
.LBE55:
	.loc 1 1492 0
	cmpl	%ebx, %edi
	jne	.L184
.L185:
	movl	%esi, %eax
.L205:
	.loc 1 1502 0
	leal	-12(%ebp), %esp
	popl	%ebx
	.cfi_restore 3
	popl	%esi
	.cfi_restore 6
.LVL159:
	popl	%edi
	.cfi_restore 7
	popl	%ebp
	.cfi_restore 5
	.cfi_def_cfa 4, 4
.LVL160:
	ret
.LVL161:
.L207:
	.loc 1 1484 0
	xorl	%eax, %eax
.LVL162:
	.loc 1 1502 0
	ret
	.cfi_endproc
.LFE37:
	.size	get_object_item, .-get_object_item
	.section	.text.unlikely.get_object_item
.LCOLDE9:
	.section	.text.get_object_item
.LHOTE9:
	.section	.text.unlikely.cJSON_New_Item.isra.0,"ax",@progbits
.LCOLDB10:
	.section	.text.cJSON_New_Item.isra.0,"ax",@progbits
.LHOTB10:
	.type	cJSON_New_Item.isra.0, @function
cJSON_New_Item.isra.0:
.LFB89:
	.loc 1 177 0
	.cfi_startproc
.LVL163:
	pushl	%ebp
	.cfi_def_cfa_offset 8
	.cfi_offset 5, -8
	movl	%esp, %ebp
	.cfi_def_cfa_register 5
	pushl	%edi
	subl	$16, %esp
	.cfi_offset 7, -12
	.loc 1 179 0
	pushl	$36
	call	*%eax
.LVL164:
	.loc 1 180 0
	addl	$16, %esp
	testl	%eax, %eax
	.loc 1 179 0
	movl	%eax, %edx
.LVL165:
	.loc 1 180 0
	je	.L213
	.loc 1 181 0
	movl	$9, %ecx
	xorl	%eax, %eax
.LVL166:
	movl	%edx, %edi
	rep stosl
.L213:
	.loc 1 184 0
	movl	%edx, %eax
	movl	-4(%ebp), %edi
	leave
	.cfi_restore 5
	.cfi_restore 7
	.cfi_def_cfa 4, 4
	ret
	.cfi_endproc
.LFE89:
	.size	cJSON_New_Item.isra.0, .-cJSON_New_Item.isra.0
	.section	.text.unlikely.cJSON_New_Item.isra.0
.LCOLDE10:
	.section	.text.cJSON_New_Item.isra.0
.LHOTE10:
	.section	.rodata.str1.1
.LC11:
	.string	"null"
.LC12:
	.string	"false"
.LC13:
	.string	"true"
.LC15:
	.string	"%1.15g"
.LC16:
	.string	"%lg"
.LC17:
	.string	"%1.17g"
	.section	.text.unlikely.print_value,"ax",@progbits
.LCOLDB19:
	.section	.text.print_value,"ax",@progbits
.LHOTB19:
	.type	print_value, @function
print_value:
.LFB29:
	.loc 1 1066 0
	.cfi_startproc
.LVL167:
	pushl	%ebp
	.cfi_def_cfa_offset 8
	.cfi_offset 5, -8
	movl	%esp, %ebp
	.cfi_def_cfa_register 5
	pushl	%edi
	pushl	%esi
	pushl	%ebx
	.cfi_offset 7, -12
	.cfi_offset 6, -16
	.cfi_offset 3, -20
	movl	%eax, %ebx
	subl	$76, %esp
	.loc 1 1066 0
	movl	%gs:20, %eax
	movl	%eax, -28(%ebp)
	xorl	%eax, %eax
.LVL168:
	.loc 1 1069 0
	testl	%ebx, %ebx
	je	.L268
	testl	%edx, %edx
	movl	%edx, %esi
	sete	%al
	je	.L268
.LVL169:
.LBB69:
.LBB70:
	.loc 1 1072 0
	movzbl	12(%ebx), %edi
	cmpl	$8, %edi
	je	.L222
	jg	.L223
	cmpl	$2, %edi
	je	.L224
	cmpl	$4, %edi
	je	.L225
	cmpl	$1, %edi
	jne	.L268
	jmp	.L328
.L223:
	cmpl	$32, %edi
	je	.L227
	jg	.L228
	cmpl	$16, %edi
	jne	.L268
.LVL170:
.LBB71:
.LBB72:
	.loc 1 812 0
	movl	16(%ebx), %eax
	call	print_string_ptr
.LVL171:
	movl	%eax, %edi
.LVL172:
	jmp	.L221
.LVL173:
.L228:
.LBE72:
.LBE71:
	.loc 1 1072 0
	cmpl	$64, %edi
	je	.L230
	addl	$-128, %edi
	je	.L231
	jmp	.L268
.L225:
	.loc 1 1074 0
	movl	$5, %edx
.LVL174:
	movl	%esi, %eax
	call	ensure
.LVL175:
	.loc 1 1075 0
	testl	%eax, %eax
	je	.L268
	.loc 1 1077 0
	pushl	%edi
	pushl	%edi
	pushl	$.LC11
	jmp	.L327
.LVL176:
.L328:
	.loc 1 1081 0
	movl	$6, %edx
.LVL177:
	movl	%esi, %eax
	call	ensure
.LVL178:
	.loc 1 1082 0
	testl	%eax, %eax
	je	.L268
.LVL179:
	.loc 1 1084 0
	pushl	%esi
	pushl	%esi
	pushl	$.LC12
	pushl	%eax
	call	strcpy
.LVL180:
	jmp	.L325
.LVL181:
.L224:
	.loc 1 1088 0
	movl	$5, %edx
.LVL182:
	movl	%esi, %eax
	call	ensure
.LVL183:
	.loc 1 1089 0
	testl	%eax, %eax
	je	.L268
.LVL184:
	.loc 1 1091 0
	pushl	%ebx
	pushl	%ebx
	pushl	$.LC13
.L327:
	pushl	%eax
	call	strcpy
.LVL185:
	addl	$16, %esp
	jmp	.L324
.LVL186:
.L222:
.LBB73:
.LBB74:
	.loc 1 406 0
	fldl	28(%ebx)
.LVL187:
	leal	-54(%ebp), %edi
	.loc 1 417 0
	fldz
.LVL188:
	fld	%st(1)
	fmul	%st(1), %st
	fucomip	%st(1), %st
	fstp	%st(0)
	jp	.L334
	je	.L322
	fstp	%st(0)
	jmp	.L273
.L334:
	fstp	%st(0)
.L273:
	.loc 1 418 0
	pushl	%ecx
.LVL189:
	pushl	%ecx
	movl	$4, %ebx
.LVL190:
	pushl	$.LC11
	pushl	%edi
	call	strcpy
.LVL191:
	addl	$16, %esp
	jmp	.L238
.LVL192:
.L322:
.LVL193:
	.loc 1 421 0
	pushl	%edx
.LVL194:
	pushl	%edx
	fstl	(%esp)
	pushl	$.LC15
	pushl	%edi
	fstpl	-80(%ebp)
	call	sprintf
.LVL195:
	movl	%eax, %ebx
.LVL196:
	.loc 1 424 0
	leal	-64(%ebp), %eax
.LVL197:
	addl	$12, %esp
	pushl	%eax
	pushl	$.LC16
	pushl	%edi
	call	sscanf
.LVL198:
	addl	$16, %esp
	decl	%eax
	fldl	-80(%ebp)
	jne	.L236
	fldl	-64(%ebp)
	fxch	%st(1)
	fucomi	%st(1), %st
	fstp	%st(1)
	jp	.L236
	je	.L335
.L236:
	.loc 1 426 0
	pushl	%eax
	pushl	%eax
	fstpl	(%esp)
	pushl	$.LC17
	pushl	%edi
	call	sprintf
.LVL199:
	addl	$16, %esp
	movl	%eax, %ebx
	jmp	.L235
.LVL200:
.L335:
	fstp	%st(0)
.L235:
	.loc 1 431 0
	cmpl	$25, %ebx
	ja	.L268
.LVL201:
.L238:
	.loc 1 435 0
	movl	%ebx, %edx
	movl	%esi, %eax
	call	ensure
.LVL202:
	.loc 1 436 0
	xorl	%edx, %edx
	testl	%eax, %eax
	.loc 1 435 0
	movl	%eax, -80(%ebp)
.LVL203:
	.loc 1 436 0
	je	.L268
.LVL204:
.L241:
	.loc 1 441 0
	cmpl	%edx, %ebx
	je	.L329
	.loc 1 442 0
	movb	(%edi,%edx), %cl
	.loc 1 443 0
	movb	$46, %al
	cmpb	$46, %cl
	cmove	%eax, %ecx
	movl	-80(%ebp), %eax
	movb	%cl, (%eax,%edx)
	.loc 1 441 0
	incl	%edx
.LVL205:
	jmp	.L241
.L329:
	.loc 1 449 0
	movl	-80(%ebp), %eax
	movb	$0, (%eax,%ebx)
	.loc 1 451 0
	addl	%ebx, 8(%esi)
	jmp	.L324
.LVL206:
.L231:
.LBE74:
.LBE73:
.LBB75:
	.loc 1 1099 0
	movl	16(%ebx), %edi
	testl	%edi, %edi
	jne	.L245
	.loc 1 1100 0
	movl	16(%edx), %edi
	testl	%edi, %edi
	jne	.L268
	.loc 1 1101 0
	subl	$12, %esp
	pushl	(%edx)
	call	*28(%edx)
.LVL207:
.L325:
	addl	$16, %esp
	jmp	.L221
.LVL208:
.L245:
	.loc 1 1105 0
	orl	$-1, %ecx
	repnz scasb
	.loc 1 1106 0
	movl	%esi, %eax
	.loc 1 1105 0
	notl	%ecx
.LVL209:
	.loc 1 1106 0
	movl	%ecx, %edx
.LVL210:
	movl	%ecx, -80(%ebp)
	call	ensure
.LVL211:
	.loc 1 1107 0
	testl	%eax, %eax
	je	.L268
	.loc 1 1109 0
	movl	16(%ebx), %esi
.LVL212:
	movl	%eax, %edi
	movl	-80(%ebp), %ecx
	rep movsb
.LVL213:
.L324:
	.loc 1 1110 0
	movl	$1, %edi
	jmp	.L221
.LVL214:
.L227:
.LBE75:
.LBB76:
.LBB77:
	.loc 1 1219 0
	movl	$1, %edx
.LVL215:
	movl	%esi, %eax
	movl	8(%ebx), %ebx
.LVL216:
	call	ensure
.LVL217:
	.loc 1 1220 0
	testl	%eax, %eax
	je	.L268
	.loc 1 1223 0
	movb	$91, (%eax)
	.loc 1 1224 0
	incl	8(%esi)
	.loc 1 1225 0
	incl	12(%esi)
.LVL218:
.L246:
	.loc 1 1227 0
	testl	%ebx, %ebx
	je	.L330
	.loc 1 1228 0
	movl	%esi, %edx
	movl	%ebx, %eax
	call	print_value
.LVL219:
	testl	%eax, %eax
	je	.L268
	.loc 1 1230 0
	movl	%esi, %eax
	call	update_offset
.LVL220:
	.loc 1 1231 0
	cmpl	$0, (%ebx)
	je	.L247
	.loc 1 1232 0
	cmpl	$1, 20(%esi)
	.loc 1 1233 0
	movl	%esi, %eax
	.loc 1 1232 0
	sbbl	%edi, %edi
	addl	$2, %edi
.LVL221:
	.loc 1 1233 0
	leal	1(%edi), %edx
	call	ensure
.LVL222:
	.loc 1 1234 0
	testl	%eax, %eax
	je	.L268
.LVL223:
	.loc 1 1236 0
	movb	$44, (%eax)
	.loc 1 1237 0
	cmpl	$0, 20(%esi)
	.loc 1 1236 0
	leal	1(%eax), %edx
.LVL224:
	.loc 1 1237 0
	je	.L250
	.loc 1 1238 0
	leal	2(%eax), %edx
.LVL225:
	movb	$32, 1(%eax)
.L250:
	.loc 1 1239 0
	movb	$0, (%edx)
	.loc 1 1240 0
	addl	%edi, 8(%esi)
.LVL226:
.L247:
	.loc 1 1242 0
	movl	(%ebx), %ebx
.LVL227:
	jmp	.L246
.L330:
	.loc 1 1245 0
	movl	$2, %edx
	movl	%esi, %eax
	call	ensure
.LVL228:
	.loc 1 1246 0
	testl	%eax, %eax
	je	.L268
.LVL229:
	.loc 1 1248 0
	movb	$93, (%eax)
	jmp	.L326
.LVL230:
.L230:
.LBE77:
.LBE76:
.LBB78:
.LBB79:
	.loc 1 1362 0
	cmpl	$1, 20(%edx)
	.loc 1 1363 0
	movl	%esi, %eax
	movl	8(%ebx), %ebx
.LVL231:
	.loc 1 1362 0
	sbbl	%edi, %edi
	addl	$2, %edi
.LVL232:
	.loc 1 1363 0
	leal	1(%edi), %edx
.LVL233:
	call	ensure
.LVL234:
	.loc 1 1364 0
	testl	%eax, %eax
	je	.L268
.LVL235:
	.loc 1 1367 0
	movb	$123, (%eax)
	.loc 1 1368 0
	incl	12(%esi)
	.loc 1 1369 0
	cmpl	$0, 20(%esi)
	je	.L253
.LVL236:
	.loc 1 1370 0
	movb	$10, 1(%eax)
.LVL237:
.L253:
	.loc 1 1371 0
	addl	%edi, 8(%esi)
.L254:
	.loc 1 1373 0
	testl	%ebx, %ebx
	je	.L331
	.loc 1 1374 0
	cmpl	$0, 20(%esi)
	je	.L255
.LBB80:
	.loc 1 1376 0
	movl	12(%esi), %edx
	movl	%esi, %eax
	call	ensure
.LVL238:
	.loc 1 1377 0
	testl	%eax, %eax
	je	.L268
	xorl	%edx, %edx
.LVL239:
.L256:
	.loc 1 1379 0
	movl	12(%esi), %ecx
	cmpl	%ecx, %edx
	jnb	.L332
.LVL240:
	.loc 1 1380 0
	movb	$9, (%eax,%edx)
	.loc 1 1379 0
	incl	%edx
.LVL241:
	jmp	.L256
.L332:
	.loc 1 1381 0
	addl	%ecx, 8(%esi)
.LVL242:
.L255:
.LBE80:
	.loc 1 1385 0
	movl	24(%ebx), %eax
	movl	%esi, %edx
	call	print_string_ptr
.LVL243:
	testl	%eax, %eax
	je	.L268
	.loc 1 1387 0
	movl	%esi, %eax
	call	update_offset
.LVL244:
	.loc 1 1389 0
	cmpl	$1, 20(%esi)
	.loc 1 1390 0
	movl	%esi, %eax
	.loc 1 1389 0
	sbbl	%edi, %edi
.LVL245:
	addl	$2, %edi
.LVL246:
	.loc 1 1390 0
	movl	%edi, %edx
	call	ensure
.LVL247:
	.loc 1 1391 0
	testl	%eax, %eax
	je	.L268
.LVL248:
	.loc 1 1393 0
	movb	$58, (%eax)
	.loc 1 1394 0
	cmpl	$0, 20(%esi)
	je	.L259
.LVL249:
	.loc 1 1395 0
	movb	$9, 1(%eax)
.LVL250:
.L259:
	.loc 1 1396 0
	addl	%edi, 8(%esi)
	.loc 1 1399 0
	movl	%esi, %edx
	movl	%ebx, %eax
	call	print_value
.LVL251:
	testl	%eax, %eax
	je	.L268
	.loc 1 1401 0
	movl	%esi, %eax
	call	update_offset
.LVL252:
	.loc 1 1404 0
	xorl	%edx, %edx
	cmpl	$0, 20(%esi)
	setne	%dl
	xorl	%eax, %eax
	cmpl	$0, (%ebx)
	setne	%al
	leal	(%edx,%eax), %edi
.LVL253:
	.loc 1 1405 0
	movl	%esi, %eax
	leal	1(%edi), %edx
	call	ensure
.LVL254:
	.loc 1 1406 0
	testl	%eax, %eax
	je	.L268
	.loc 1 1408 0
	cmpl	$0, (%ebx)
	je	.L260
.LVL255:
	.loc 1 1409 0
	movb	$44, (%eax)
	incl	%eax
.LVL256:
.L260:
	.loc 1 1411 0
	cmpl	$0, 20(%esi)
	je	.L261
.LVL257:
	.loc 1 1412 0
	movb	$10, (%eax)
	incl	%eax
.LVL258:
.L261:
	.loc 1 1413 0
	movb	$0, (%eax)
	.loc 1 1414 0
	addl	%edi, 8(%esi)
	.loc 1 1416 0
	movl	(%ebx), %ebx
.LVL259:
	jmp	.L254
.LVL260:
.L331:
	.loc 1 1419 0
	cmpl	$0, 20(%esi)
	movl	$2, %edx
	je	.L263
	movl	12(%esi), %eax
	leal	1(%eax), %edx
.L263:
	movl	%esi, %eax
	call	ensure
.LVL261:
	.loc 1 1420 0
	testl	%eax, %eax
	je	.L268
	.loc 1 1422 0
	cmpl	$0, 20(%esi)
	movl	%eax, %edx
	je	.L264
.LVL262:
.L265:
.LBB81:
	.loc 1 1424 0
	movl	12(%esi), %ecx
	movl	%edx, %ebx
	subl	%eax, %ebx
.LVL263:
	decl	%ecx
	cmpl	%ecx, %ebx
	jnb	.L333
	.loc 1 1425 0
	incl	%edx
.LVL264:
	movb	$9, -1(%edx)
.LVL265:
	jmp	.L265
.LVL266:
.L333:
	.loc 1 1424 0
	movl	%edx, %eax
.LVL267:
.L264:
.LBE81:
	.loc 1 1427 0
	movb	$125, (%eax)
.LVL268:
.L326:
	.loc 1 1428 0
	movb	$0, 1(%eax)
	.loc 1 1429 0
	decl	12(%esi)
	jmp	.L324
.LVL269:
.L268:
.LBE79:
.LBE78:
	.loc 1 1123 0
	xorl	%edi, %edi
.L221:
.LBE70:
.LBE69:
	.loc 1 1125 0
	movl	-28(%ebp), %ecx
	xorl	%gs:20, %ecx
	movl	%edi, %eax
	je	.L267
	call	__stack_chk_fail
.LVL270:
.L267:
	leal	-12(%ebp), %esp
	popl	%ebx
	.cfi_restore 3
	popl	%esi
	.cfi_restore 6
	popl	%edi
	.cfi_restore 7
	popl	%ebp
	.cfi_restore 5
	.cfi_def_cfa 4, 4
	ret
	.cfi_endproc
.LFE29:
	.size	print_value, .-print_value
	.section	.text.unlikely.print_value
.LCOLDE19:
	.section	.text.print_value
.LHOTE19:
	.section	.text.unlikely.create_reference.constprop.10,"ax",@progbits
.LCOLDB20:
	.section	.text.create_reference.constprop.10,"ax",@progbits
.LHOTB20:
	.type	create_reference.constprop.10, @function
create_reference.constprop.10:
.LFB101:
	.loc 1 1527 0
	.cfi_startproc
.LVL271:
	.loc 1 1530 0
	testl	%eax, %eax
	je	.L338
	.loc 1 1527 0
	pushl	%ebp
	.cfi_def_cfa_offset 8
	.cfi_offset 5, -8
	movl	%esp, %ebp
	.cfi_def_cfa_register 5
	pushl	%edi
	pushl	%esi
	.cfi_offset 7, -12
	.cfi_offset 6, -16
	movl	%eax, %esi
	.loc 1 1533 0
	movl	global_hooks, %eax
.LVL272:
	call	cJSON_New_Item.isra.0
.LVL273:
	movl	%eax, %edx
.LVL274:
	.loc 1 1535 0
	xorl	%eax, %eax
.LVL275:
	.loc 1 1534 0
	testl	%edx, %edx
	je	.L337
	.loc 1 1537 0
	movl	$9, %ecx
	movl	%edx, %edi
	.loc 1 1540 0
	movl	%edx, %eax
	.loc 1 1537 0
	rep movsl
.LVL276:
	.loc 1 1538 0
	movl	$0, 24(%edx)
	.loc 1 1540 0
	movl	$0, 4(%edx)
	movl	$0, (%edx)
	.loc 1 1539 0
	orl	$256, 12(%edx)
	jmp	.L337
.LVL277:
.L338:
	.cfi_def_cfa 4, 4
	.cfi_restore 5
	.cfi_restore 6
	.cfi_restore 7
	.loc 1 1531 0
	xorl	%eax, %eax
.LVL278:
	ret
.LVL279:
.L337:
	.cfi_def_cfa 5, 8
	.cfi_offset 5, -8
	.cfi_offset 6, -16
	.cfi_offset 7, -12
	.loc 1 1542 0
	popl	%esi
	.cfi_restore 6
	popl	%edi
	.cfi_restore 7
	popl	%ebp
	.cfi_restore 5
	.cfi_def_cfa 4, 4
	ret
	.cfi_endproc
.LFE101:
	.size	create_reference.constprop.10, .-create_reference.constprop.10
	.section	.text.unlikely.create_reference.constprop.10
.LCOLDE20:
	.section	.text.create_reference.constprop.10
.LHOTE20:
	.section	.text.unlikely.cJSON_strdup.isra.1.constprop.11,"ax",@progbits
.LCOLDB21:
	.section	.text.cJSON_strdup.isra.1.constprop.11,"ax",@progbits
.LHOTB21:
	.type	cJSON_strdup.isra.1.constprop.11, @function
cJSON_strdup.isra.1.constprop.11:
.LFB100:
	.loc 1 135 0
	.cfi_startproc
.LVL280:
	.loc 1 140 0
	testl	%eax, %eax
	je	.L344
	.loc 1 135 0
	pushl	%ebp
	.cfi_def_cfa_offset 8
	.cfi_offset 5, -8
	.loc 1 143 0
	orl	$-1, %ecx
	.loc 1 135 0
	movl	%esp, %ebp
	.cfi_def_cfa_register 5
	pushl	%edi
	pushl	%esi
	pushl	%ebx
	.cfi_offset 7, -12
	.cfi_offset 6, -16
	.cfi_offset 3, -20
	movl	%eax, %esi
	.loc 1 143 0
	xorl	%eax, %eax
.LVL281:
	movl	%esi, %edi
	.loc 1 135 0
	subl	$24, %esp
	.loc 1 143 0
	repnz scasb
.LVL282:
	movl	%ecx, %ebx
	notl	%ebx
.LVL283:
	.loc 1 144 0
	pushl	%ebx
	call	*global_hooks
.LVL284:
	movl	%eax, %edx
.LVL285:
	.loc 1 145 0
	addl	$16, %esp
	.loc 1 146 0
	xorl	%eax, %eax
.LVL286:
	.loc 1 145 0
	testl	%edx, %edx
	je	.L343
	.loc 1 147 0
	movl	%edx, %edi
	movl	%ebx, %ecx
	movl	%edx, %eax
	rep movsb
	jmp	.L343
.LVL287:
.L344:
	.cfi_def_cfa 4, 4
	.cfi_restore 3
	.cfi_restore 5
	.cfi_restore 6
	.cfi_restore 7
	.loc 1 141 0
	xorl	%eax, %eax
.LVL288:
	ret
.LVL289:
.L343:
	.cfi_def_cfa 5, 8
	.cfi_offset 3, -20
	.cfi_offset 5, -8
	.cfi_offset 6, -16
	.cfi_offset 7, -12
	.loc 1 150 0
	leal	-12(%ebp), %esp
	popl	%ebx
	.cfi_restore 3
.LVL290:
	popl	%esi
	.cfi_restore 6
	popl	%edi
	.cfi_restore 7
	popl	%ebp
	.cfi_restore 5
	.cfi_def_cfa 4, 4
	ret
	.cfi_endproc
.LFE100:
	.size	cJSON_strdup.isra.1.constprop.11, .-cJSON_strdup.isra.1.constprop.11
	.section	.text.unlikely.cJSON_strdup.isra.1.constprop.11
.LCOLDE21:
	.section	.text.cJSON_strdup.isra.1.constprop.11
.LHOTE21:
	.section	.text.unlikely.print.constprop.12,"ax",@progbits
.LCOLDB22:
	.section	.text.print.constprop.12,"ax",@progbits
.LHOTB22:
	.type	print.constprop.12, @function
print.constprop.12:
.LFB99:
	.loc 1 919 0
	.cfi_startproc
.LVL291:
	pushl	%ebp
	.cfi_def_cfa_offset 8
	.cfi_offset 5, -8
	.loc 1 924 0
	movl	$9, %ecx
	.loc 1 919 0
	movl	%esp, %ebp
	.cfi_def_cfa_register 5
	pushl	%edi
	pushl	%esi
	pushl	%ebx
	.cfi_offset 7, -12
	.cfi_offset 6, -16
	.cfi_offset 3, -20
	.loc 1 924 0
	leal	-64(%ebp), %edi
	.loc 1 919 0
	movl	%edx, %ebx
	.loc 1 927 0
	movl	$global_hooks, %esi
	.loc 1 919 0
	subl	$88, %esp
	.loc 1 919 0
	movl	%eax, -76(%ebp)
	movl	%gs:20, %eax
	movl	%eax, -28(%ebp)
	xorl	%eax, %eax
.LVL292:
	.loc 1 924 0
	rep stosl
	.loc 1 927 0
	pushl	$256
	.loc 1 929 0
	leal	-40(%ebp), %edi
	.loc 1 927 0
	call	*global_hooks
.LVL293:
	.loc 1 930 0
	addl	$16, %esp
	testl	%eax, %eax
	.loc 1 929 0
	movl	$3, %ecx
	.loc 1 927 0
	movl	%eax, -64(%ebp)
	.loc 1 928 0
	movl	%ebx, -44(%ebp)
	.loc 1 929 0
	rep movsl
	.loc 1 930 0
	je	.L349
	.loc 1 934 0
	movl	-76(%ebp), %eax
	leal	-64(%ebp), %edx
	call	print_value
.LVL294:
	testl	%eax, %eax
	je	.L349
	.loc 1 936 0
	leal	-64(%ebp), %eax
	call	update_offset
.LVL295:
	.loc 1 939 0
	movl	global_hooks+8, %eax
	testl	%eax, %eax
	je	.L350
	.loc 1 940 0
	pushl	%edx
	pushl	%edx
	pushl	-60(%ebp)
	pushl	-64(%ebp)
	call	*%eax
.LVL296:
	.loc 1 942 0
	addl	$16, %esp
	testl	%eax, %eax
	.loc 1 941 0
	movl	$0, -64(%ebp)
	.loc 1 942 0
	jne	.L351
	jmp	.L349
.LVL297:
.L350:
	.loc 1 945 0
	movl	-56(%ebp), %eax
	subl	$12, %esp
	incl	%eax
	pushl	%eax
	call	*global_hooks
.LVL298:
	.loc 1 946 0
	addl	$16, %esp
	testl	%eax, %eax
	.loc 1 945 0
	movl	%eax, %ebx
.LVL299:
	.loc 1 946 0
	je	.L349
	.loc 1 948 0
	movl	-56(%ebp), %eax
.LVL300:
	movl	-60(%ebp), %ecx
	movl	%ebx, %edi
	movl	-64(%ebp), %esi
	leal	1(%eax), %edx
	cmpl	%ecx, %edx
	cmovbe	%edx, %ecx
	.loc 1 952 0
	subl	$12, %esp
	.loc 1 948 0
	rep movsb
	.loc 1 949 0
	movl	-56(%ebp), %edx
	movb	$0, (%ebx,%edx)
	.loc 1 952 0
	pushl	-64(%ebp)
	call	*global_hooks+4
.LVL301:
	addl	$16, %esp
	movl	%ebx, %eax
	jmp	.L351
.LVL302:
.L349:
.LDL1:
	.loc 1 958 0
	movl	-64(%ebp), %eax
	testl	%eax, %eax
	je	.L352
	.loc 1 959 0
	subl	$12, %esp
	pushl	%eax
	call	*global_hooks+4
.LVL303:
	addl	$16, %esp
.L352:
	.loc 1 964 0
	xorl	%eax, %eax
.LVL304:
.L351:
	.loc 1 965 0
	movl	-28(%ebp), %esi
	xorl	%gs:20, %esi
	je	.L353
	call	__stack_chk_fail
.LVL305:
.L353:
	leal	-12(%ebp), %esp
	popl	%ebx
	.cfi_restore 3
	popl	%esi
	.cfi_restore 6
	popl	%edi
	.cfi_restore 7
	popl	%ebp
	.cfi_restore 5
	.cfi_def_cfa 4, 4
.LVL306:
	ret
	.cfi_endproc
.LFE99:
	.size	print.constprop.12, .-print.constprop.12
	.section	.text.unlikely.print.constprop.12
.LCOLDE22:
	.section	.text.print.constprop.12
.LHOTE22:
	.section	.text.unlikely.cJSON_GetErrorPtr,"ax",@progbits
.LCOLDB23:
	.section	.text.cJSON_GetErrorPtr,"ax",@progbits
.LHOTB23:
	.globl	cJSON_GetErrorPtr
	.type	cJSON_GetErrorPtr, @function
cJSON_GetErrorPtr:
.LFB1:
	.loc 1 72 0
	.cfi_startproc
	pushl	%ebp
	.cfi_def_cfa_offset 8
	.cfi_offset 5, -8
	.loc 1 73 0
	movl	global_error+4, %eax
	addl	global_error, %eax
	.loc 1 72 0
	movl	%esp, %ebp
	.cfi_def_cfa_register 5
	.loc 1 74 0
	popl	%ebp
	.cfi_restore 5
	.cfi_def_cfa 4, 4
	ret
	.cfi_endproc
.LFE1:
	.size	cJSON_GetErrorPtr, .-cJSON_GetErrorPtr
	.section	.text.unlikely.cJSON_GetErrorPtr
.LCOLDE23:
	.section	.text.cJSON_GetErrorPtr
.LHOTE23:
	.section	.rodata.str1.1
.LC24:
	.string	"%i.%i.%i"
	.section	.text.unlikely.cJSON_Version,"ax",@progbits
.LCOLDB25:
	.section	.text.cJSON_Version,"ax",@progbits
.LHOTB25:
	.globl	cJSON_Version
	.type	cJSON_Version, @function
cJSON_Version:
.LFB2:
	.loc 1 82 0
	.cfi_startproc
	pushl	%ebp
	.cfi_def_cfa_offset 8
	.cfi_offset 5, -8
	movl	%esp, %ebp
	.cfi_def_cfa_register 5
	subl	$20, %esp
	.loc 1 84 0
	pushl	$0
	pushl	$6
	pushl	$1
	pushl	$.LC24
	pushl	$version.3854
	call	sprintf
.LVL307:
	.loc 1 87 0
	movl	$version.3854, %eax
	leave
	.cfi_restore 5
	.cfi_def_cfa 4, 4
	ret
	.cfi_endproc
.LFE2:
	.size	cJSON_Version, .-cJSON_Version
	.section	.text.unlikely.cJSON_Version
.LCOLDE25:
	.section	.text.cJSON_Version
.LHOTE25:
	.section	.text.unlikely.cJSON_InitHooks,"ax",@progbits
.LCOLDB26:
	.section	.text.cJSON_InitHooks,"ax",@progbits
.LHOTB26:
	.globl	cJSON_InitHooks
	.type	cJSON_InitHooks, @function
cJSON_InitHooks:
.LFB5:
	.loc 1 153 0
	.cfi_startproc
.LVL308:
	pushl	%ebp
	.cfi_def_cfa_offset 8
	.cfi_offset 5, -8
	.loc 1 156 0
	movl	$malloc, global_hooks
	.loc 1 153 0
	movl	%esp, %ebp
	.cfi_def_cfa_register 5
	.loc 1 153 0
	movl	8(%ebp), %eax
	.loc 1 154 0
	testl	%eax, %eax
	jne	.L375
	.loc 1 157 0
	movl	$free, global_hooks+4
	jmp	.L386
.L375:
	.loc 1 163 0
	movl	(%eax), %edx
	testl	%edx, %edx
	je	.L377
	.loc 1 164 0
	movl	%edx, global_hooks
.L377:
	.loc 1 167 0
	movl	4(%eax), %eax
	.loc 1 166 0
	movl	$free, global_hooks+4
	.loc 1 167 0
	testl	%eax, %eax
	je	.L378
	.loc 1 168 0
	movl	%eax, global_hooks+4
.L378:
	.loc 1 172 0
	cmpl	$malloc, global_hooks
	.loc 1 171 0
	movl	$0, global_hooks+8
	.loc 1 172 0
	jne	.L374
	.loc 1 172 0 is_stmt 0 discriminator 1
	cmpl	$free, global_hooks+4
	jne	.L374
.L386:
	.loc 1 173 0 is_stmt 1
	movl	$realloc, global_hooks+8
.L374:
	.loc 1 174 0
	popl	%ebp
	.cfi_restore 5
	.cfi_def_cfa 4, 4
	ret
	.cfi_endproc
.LFE5:
	.size	cJSON_InitHooks, .-cJSON_InitHooks
	.section	.text.unlikely.cJSON_InitHooks
.LCOLDE26:
	.section	.text.cJSON_InitHooks
.LHOTE26:
	.section	.text.unlikely.cJSON_Delete,"ax",@progbits
.LCOLDB27:
	.section	.text.cJSON_Delete,"ax",@progbits
.LHOTB27:
	.globl	cJSON_Delete
	.type	cJSON_Delete, @function
cJSON_Delete:
.LFB7:
	.loc 1 188 0
	.cfi_startproc
.LVL309:
	pushl	%ebp
	.cfi_def_cfa_offset 8
	.cfi_offset 5, -8
	movl	%esp, %ebp
	.cfi_def_cfa_register 5
	pushl	%esi
	pushl	%ebx
	.cfi_offset 6, -12
	.cfi_offset 3, -16
	movl	8(%ebp), %ebx
.LVL310:
.L388:
	.loc 1 190 0
	testl	%ebx, %ebx
	je	.L403
	.loc 1 192 0
	testb	$1, 13(%ebx)
	.loc 1 191 0
	movl	(%ebx), %esi
.LVL311:
	.loc 1 192 0
	jne	.L389
	.loc 1 192 0 is_stmt 0 discriminator 1
	movl	8(%ebx), %eax
	testl	%eax, %eax
	je	.L389
	.loc 1 193 0 is_stmt 1
	subl	$12, %esp
	pushl	%eax
	call	cJSON_Delete
.LVL312:
	addl	$16, %esp
.L389:
	.loc 1 194 0
	testb	$1, 13(%ebx)
	jne	.L390
	.loc 1 194 0 is_stmt 0 discriminator 1
	movl	16(%ebx), %eax
	testl	%eax, %eax
	je	.L390
	.loc 1 196 0 is_stmt 1
	subl	$12, %esp
	pushl	%eax
	call	*global_hooks+4
.LVL313:
	addl	$16, %esp
.L390:
	.loc 1 199 0
	testb	$2, 13(%ebx)
	jne	.L391
	.loc 1 199 0 is_stmt 0 discriminator 1
	movl	24(%ebx), %eax
	testl	%eax, %eax
	je	.L391
	.loc 1 201 0 is_stmt 1
	subl	$12, %esp
	pushl	%eax
	call	*global_hooks+4
.LVL314:
	addl	$16, %esp
.L391:
	.loc 1 204 0
	subl	$12, %esp
	pushl	%ebx
	.loc 1 205 0
	movl	%esi, %ebx
.LVL315:
	.loc 1 204 0
	call	*global_hooks+4
.LVL316:
	addl	$16, %esp
	jmp	.L388
.LVL317:
.L403:
	.loc 1 207 0
	leal	-8(%ebp), %esp
	popl	%ebx
	.cfi_restore 3
.LVL318:
	popl	%esi
	.cfi_restore 6
	popl	%ebp
	.cfi_restore 5
	.cfi_def_cfa 4, 4
	ret
	.cfi_endproc
.LFE7:
	.size	cJSON_Delete, .-cJSON_Delete
	.section	.text.unlikely.cJSON_Delete
.LCOLDE27:
	.section	.text.cJSON_Delete
.LHOTE27:
	.section	.text.unlikely.parse_value,"ax",@progbits
.LCOLDB30:
	.section	.text.parse_value,"ax",@progbits
.LHOTB30:
	.type	parse_value, @function
parse_value:
.LFB28:
	.loc 1 1022 0
	.cfi_startproc
.LVL319:
	pushl	%ebp
	.cfi_def_cfa_offset 8
	.cfi_offset 5, -8
	movl	%esp, %ebp
	.cfi_def_cfa_register 5
	pushl	%edi
	pushl	%esi
	pushl	%ebx
	subl	$124, %esp
	.cfi_offset 7, -12
	.cfi_offset 6, -16
	.cfi_offset 3, -20
	.loc 1 1022 0
	movl	%eax, -112(%ebp)
	movl	%gs:20, %eax
	movl	%eax, -28(%ebp)
	xorl	%eax, %eax
.LVL320:
	.loc 1 1023 0
	testl	%edx, %edx
	je	.L500
	.loc 1 1023 0 discriminator 1
	movl	(%edx), %esi
	movl	%edx, %ebx
	testl	%esi, %esi
	je	.L500
	.loc 1 1029 0 discriminator 1
	movl	8(%edx), %edi
	leal	4(%edi), %eax
	movl	%eax, -120(%ebp)
	movl	4(%edx), %eax
	cmpl	%eax, -120(%ebp)
	movl	%eax, -116(%ebp)
	ja	.L406
	.loc 1 1029 0 is_stmt 0 discriminator 2
	pushl	%eax
	leal	(%esi,%edi), %eax
	pushl	$4
	pushl	$.LC11
	pushl	%eax
	call	strncmp
.LVL321:
	addl	$16, %esp
	testl	%eax, %eax
	jne	.L406
	.loc 1 1030 0 is_stmt 1
	movl	-112(%ebp), %eax
	movl	$4, 12(%eax)
	jmp	.L502
.L406:
	.loc 1 1035 0 discriminator 1
	leal	5(%edi), %edx
	cmpl	%edx, -116(%ebp)
	movl	%edx, -124(%ebp)
	jb	.L408
	.loc 1 1035 0 is_stmt 0 discriminator 2
	leal	(%esi,%edi), %eax
	pushl	%ecx
	pushl	$5
	pushl	$.LC12
	pushl	%eax
	call	strncmp
.LVL322:
	addl	$16, %esp
	testl	%eax, %eax
	movl	-124(%ebp), %edx
	jne	.L408
	.loc 1 1036 0 is_stmt 1
	movl	-112(%ebp), %eax
	movl	$1, 12(%eax)
	.loc 1 1037 0
	movl	%edx, 8(%ebx)
	jmp	.L501
.L408:
	.loc 1 1041 0 discriminator 1
	movl	-116(%ebp), %ecx
	cmpl	%ecx, -120(%ebp)
	ja	.L409
	.loc 1 1041 0 is_stmt 0 discriminator 2
	leal	(%esi,%edi), %eax
	pushl	%edx
	pushl	$4
	pushl	$.LC13
	pushl	%eax
	call	strncmp
.LVL323:
	addl	$16, %esp
	testl	%eax, %eax
	jne	.L409
	.loc 1 1042 0 is_stmt 1
	movl	-112(%ebp), %eax
	movl	$2, 12(%eax)
	.loc 1 1043 0
	movl	$1, 20(%eax)
.L502:
	.loc 1 1044 0
	movl	-120(%ebp), %eax
	movl	%eax, 8(%ebx)
	jmp	.L501
.L409:
	.loc 1 1048 0 discriminator 1
	cmpl	-116(%ebp), %edi
	jnb	.L500
	.loc 1 1048 0 is_stmt 0 discriminator 2
	cmpb	$34, (%esi,%edi)
	jne	.L410
	.loc 1 1049 0 is_stmt 1
	movl	-112(%ebp), %eax
	movl	%ebx, %edx
	call	parse_string
.LVL324:
	jmp	.L407
.L410:
	.loc 1 1051 0 discriminator 2
	leal	(%esi,%edi), %edx
	movb	(%edx), %al
	leal	-48(%eax), %ecx
	cmpb	$9, %cl
	jbe	.L451
	cmpb	$45, %al
	jne	.L411
.L451:
.LVL325:
	movl	-116(%ebp), %eax
.LBB90:
.LBB91:
	.loc 1 240 0
	movl	$0, -96(%ebp)
.LVL326:
	xorl	%esi, %esi
	subl	%edi, %eax
	movl	%eax, %edi
.LVL327:
.L419:
	.loc 1 252 0
	movb	(%edx,%esi), %al
	cmpb	$57, %al
	ja	.L414
	cmpb	$48, %al
	jnb	.L415
	cmpb	$45, %al
	je	.L415
	cmpb	$46, %al
	je	.L416
	cmpb	$43, %al
	jmp	.L498
.L414:
	cmpb	$69, %al
	je	.L415
	cmpb	$101, %al
.L498:
	jne	.L413
.L415:
	.loc 1 267 0
	movb	%al, -92(%ebp,%esi)
	jmp	.L417
.L416:
	.loc 1 271 0
	movb	$46, -92(%ebp,%esi)
.L417:
	.loc 1 251 0
	incl	%esi
.LVL328:
	.loc 1 251 0
	cmpl	$63, %esi
	je	.L413
	cmpl	%edi, %esi
	jne	.L419
.L413:
	.loc 1 279 0
	movb	$0, -92(%ebp,%esi)
	.loc 1 281 0
	pushl	%eax
	leal	-92(%ebp), %esi
.LVL329:
	pushl	%eax
	leal	-96(%ebp), %eax
	pushl	%eax
	pushl	%esi
	call	strtod
.LVL330:
	.loc 1 282 0
	movl	-96(%ebp), %edx
	addl	$16, %esp
	.loc 1 283 0
	xorl	%eax, %eax
	.loc 1 282 0
	cmpl	%esi, %edx
	je	.L508
	.loc 1 286 0
	movl	-112(%ebp), %eax
	fstl	28(%eax)
	.loc 1 289 0
	fldl	.LC28
.LVL331:
	fxch	%st(1)
	fucomi	%st(1), %st
	fstp	%st(1)
	jb	.L490
	fstp	%st(0)
	.loc 1 290 0
	movl	$2147483647, 20(%eax)
	jmp	.L424
.L490:
	.loc 1 291 0
	flds	.LC29
	fucomip	%st(1), %st
	jb	.L491
	fstp	%st(0)
	.loc 1 292 0
	movl	-112(%ebp), %eax
.LVL332:
	movl	$-2147483648, 20(%eax)
	jmp	.L424
.LVL333:
.L491:
	.loc 1 294 0
	fnstcw	-106(%ebp)
.LVL334:
	movw	-106(%ebp), %ax
	orb	$12, %ah
	movw	%ax, -108(%ebp)
	movl	-112(%ebp), %eax
	fldcw	-108(%ebp)
	fistpl	20(%eax)
	fldcw	-106(%ebp)
.L424:
	.loc 1 296 0
	movl	-112(%ebp), %eax
	.loc 1 298 0
	subl	%esi, %edx
	.loc 1 296 0
	movl	$8, 12(%eax)
	.loc 1 298 0
	addl	%edx, 8(%ebx)
	jmp	.L501
.LVL335:
.L411:
.LBE91:
.LBE90:
	.loc 1 1055 0 discriminator 2
	cmpb	$91, (%edx)
	jne	.L427
.LVL336:
.LBB92:
.LBB93:
	.loc 1 1133 0
	movl	12(%ebx), %eax
	cmpl	$999, %eax
	ja	.L500
	.loc 1 1136 0
	incl	%eax
	movl	%eax, 12(%ebx)
	.loc 1 1138 0
	cmpb	$91, (%edx)
	jne	.L500
	.loc 1 1143 0
	incl	%edi
	.loc 1 1144 0
	movl	%ebx, %eax
	.loc 1 1143 0
	movl	%edi, 8(%ebx)
	.loc 1 1144 0
	call	buffer_skip_whitespace
.LVL337:
	.loc 1 1145 0
	movl	8(%ebx), %eax
	cmpl	4(%ebx), %eax
	jnb	.L436
	movl	(%ebx), %edx
	cmpb	$93, (%edx,%eax)
	je	.L504
	.loc 1 1157 0
	decl	%eax
	.loc 1 1131 0
	xorl	%edx, %edx
	.loc 1 1130 0
	xorl	%edi, %edi
	.loc 1 1157 0
	movl	%eax, 8(%ebx)
.LVL338:
.L435:
.LBB94:
	.loc 1 1161 0
	movl	16(%ebx), %eax
	movl	%edx, -116(%ebp)
.LVL339:
	call	cJSON_New_Item.isra.0
.LVL340:
	.loc 1 1162 0
	testl	%eax, %eax
	.loc 1 1161 0
	movl	%eax, %esi
.LVL341:
	.loc 1 1162 0
	je	.L439
	.loc 1 1167 0
	testl	%edi, %edi
	je	.L448
	.loc 1 1172 0
	movl	-116(%ebp), %edx
	movl	%eax, (%edx)
	.loc 1 1173 0
	movl	%edx, 4(%eax)
.LVL342:
	jmp	.L433
.LVL343:
.L448:
	.loc 1 1167 0
	movl	%eax, %edi
.LVL344:
.L433:
	.loc 1 1178 0
	incl	8(%ebx)
	.loc 1 1179 0
	movl	%ebx, %eax
.LVL345:
	call	buffer_skip_whitespace
.LVL346:
	.loc 1 1180 0
	movl	%ebx, %edx
	movl	%esi, %eax
	call	parse_value
.LVL347:
	testl	%eax, %eax
	je	.L444
	.loc 1 1183 0
	movl	%ebx, %eax
	call	buffer_skip_whitespace
.LVL348:
.LBE94:
	.loc 1 1184 0
	movl	8(%ebx), %eax
	cmpl	4(%ebx), %eax
	jnb	.L444
	movl	%esi, %edx
	movl	(%ebx), %esi
.LVL349:
	cmpb	$44, (%esi,%eax)
	je	.L435
	.loc 1 1186 0
	cmpb	$93, (%esi,%eax)
	jne	.L444
	jmp	.L430
.LVL350:
.L504:
	.loc 1 1130 0
	xorl	%edi, %edi
.LVL351:
.L430:
	.loc 1 1193 0
	movl	-112(%ebp), %eax
	.loc 1 1191 0
	decl	12(%ebx)
	.loc 1 1193 0
	movl	$32, 12(%eax)
	jmp	.L499
.L432:
.LVL352:
.L427:
.LBE93:
.LBE92:
	.loc 1 1058 0 discriminator 2
	cmpb	$123, (%edx)
	jne	.L500
.LVL353:
.LBB95:
.LBB96:
	.loc 1 1261 0
	movl	12(%ebx), %eax
	cmpl	$999, %eax
	ja	.L500
	.loc 1 1264 0
	incl	%eax
	movl	%eax, 12(%ebx)
	.loc 1 1266 0
	cmpb	$123, (%edx)
	jne	.L500
	.loc 1 1270 0
	incl	%edi
	.loc 1 1271 0
	movl	%ebx, %eax
	.loc 1 1270 0
	movl	%edi, 8(%ebx)
	.loc 1 1271 0
	call	buffer_skip_whitespace
.LVL354:
	.loc 1 1272 0
	movl	8(%ebx), %eax
	cmpl	4(%ebx), %eax
	jnb	.L436
	movl	(%ebx), %edx
	cmpb	$125, (%edx,%eax)
	je	.L505
	.loc 1 1283 0
	decl	%eax
	.loc 1 1259 0
	xorl	%edx, %edx
	.loc 1 1258 0
	xorl	%edi, %edi
	.loc 1 1283 0
	movl	%eax, 8(%ebx)
	jmp	.L442
.LVL355:
.L436:
	.loc 1 1278 0
	decl	%eax
	movl	%eax, 8(%ebx)
	jmp	.L500
.LVL356:
.L507:
.LBB97:
	.loc 1 1293 0
	testl	%edi, %edi
	je	.L450
	.loc 1 1298 0
	movl	-116(%ebp), %edx
	movl	%eax, (%edx)
	.loc 1 1299 0
	movl	%edx, 4(%eax)
.LVL357:
.L440:
	.loc 1 1304 0
	incl	8(%ebx)
	.loc 1 1305 0
	movl	%ebx, %eax
.LVL358:
	call	buffer_skip_whitespace
.LVL359:
	.loc 1 1306 0
	movl	%ebx, %edx
	movl	%esi, %eax
	call	parse_string
.LVL360:
	testl	%eax, %eax
	je	.L444
	.loc 1 1309 0
	movl	%ebx, %eax
	call	buffer_skip_whitespace
.LVL361:
	.loc 1 1312 0
	movl	16(%esi), %eax
	.loc 1 1316 0
	movl	$0, 16(%esi)
	.loc 1 1312 0
	movl	%eax, 24(%esi)
	.loc 1 1318 0
	movl	8(%ebx), %eax
	.loc 1 1318 0
	cmpl	4(%ebx), %eax
	jnb	.L444
	.loc 1 1318 0
	movl	(%ebx), %edx
	cmpb	$58, (%edx,%eax)
	jne	.L444
	.loc 1 1323 0
	incl	%eax
	movl	%eax, 8(%ebx)
	.loc 1 1324 0
	movl	%ebx, %eax
	call	buffer_skip_whitespace
.LVL362:
	.loc 1 1325 0
	movl	%ebx, %edx
	movl	%esi, %eax
	call	parse_value
.LVL363:
	testl	%eax, %eax
	je	.L444
	.loc 1 1328 0
	movl	%ebx, %eax
	call	buffer_skip_whitespace
.LVL364:
.LBE97:
	.loc 1 1329 0
	movl	8(%ebx), %eax
	cmpl	4(%ebx), %eax
	jnb	.L444
	movl	%esi, %edx
	movl	(%ebx), %esi
.LVL365:
	cmpb	$44, (%esi,%eax)
	jne	.L506
.LVL366:
.L442:
.LBB98:
	.loc 1 1287 0
	movl	16(%ebx), %eax
	movl	%edx, -116(%ebp)
.LVL367:
	call	cJSON_New_Item.isra.0
.LVL368:
	.loc 1 1288 0
	testl	%eax, %eax
	.loc 1 1287 0
	movl	%eax, %esi
.LVL369:
	.loc 1 1288 0
	jne	.L507
	jmp	.L439
.L450:
	.loc 1 1293 0
	movl	%eax, %edi
.LVL370:
	jmp	.L440
.LVL371:
.L506:
.LBE98:
	.loc 1 1331 0
	cmpb	$125, (%esi,%eax)
	jne	.L444
	jmp	.L437
.LVL372:
.L505:
	.loc 1 1258 0
	xorl	%edi, %edi
.LVL373:
.L437:
	.loc 1 1338 0
	movl	-112(%ebp), %eax
	.loc 1 1336 0
	decl	12(%ebx)
	.loc 1 1338 0
	movl	$64, 12(%eax)
.LVL374:
.L499:
	.loc 1 1339 0
	movl	%edi, 8(%eax)
	.loc 1 1341 0
	incl	8(%ebx)
.L501:
	.loc 1 1342 0
	movl	$1, %eax
	jmp	.L407
.L439:
.LVL375:
	.loc 1 1345 0
	testl	%edi, %edi
	je	.L500
.LVL376:
.L444:
	.loc 1 1346 0
	subl	$12, %esp
	pushl	%edi
	call	cJSON_Delete
.LVL377:
	addl	$16, %esp
.LVL378:
.L500:
	.loc 1 1348 0
	xorl	%eax, %eax
	jmp	.L407
.LVL379:
.L508:
	fstp	%st(0)
.LVL380:
.L407:
.LBE96:
.LBE95:
	.loc 1 1062 0
	movl	-28(%ebp), %ecx
	xorl	%gs:20, %ecx
	je	.L495
	call	__stack_chk_fail
.LVL381:
.L495:
	leal	-12(%ebp), %esp
	popl	%ebx
	.cfi_restore 3
	popl	%esi
	.cfi_restore 6
	popl	%edi
	.cfi_restore 7
	popl	%ebp
	.cfi_restore 5
	.cfi_def_cfa 4, 4
.LVL382:
	ret
	.cfi_endproc
.LFE28:
	.size	parse_value, .-parse_value
	.section	.text.unlikely.parse_value
.LCOLDE30:
	.section	.text.parse_value
.LHOTE30:
	.section	.text.unlikely.cJSON_SetNumberHelper,"ax",@progbits
.LCOLDB31:
	.section	.text.cJSON_SetNumberHelper,"ax",@progbits
.LHOTB31:
	.globl	cJSON_SetNumberHelper
	.type	cJSON_SetNumberHelper, @function
cJSON_SetNumberHelper:
.LFB10:
	.loc 1 304 0
	.cfi_startproc
.LVL383:
	pushl	%ebp
	.cfi_def_cfa_offset 8
	.cfi_offset 5, -8
	movl	%esp, %ebp
	.cfi_def_cfa_register 5
	pushl	%eax
	.loc 1 304 0
	movl	8(%ebp), %eax
	fldl	12(%ebp)
	.loc 1 305 0
	fldl	.LC28
	fxch	%st(1)
	fucomi	%st(1), %st
	fstp	%st(1)
	jb	.L517
	.loc 1 306 0
	movl	$2147483647, 20(%eax)
	jmp	.L512
.L517:
	.loc 1 307 0
	flds	.LC29
	fucomip	%st(1), %st
	jb	.L518
	.loc 1 308 0
	movl	$-2147483648, 20(%eax)
	jmp	.L512
.L518:
	.loc 1 310 0
	fnstcw	-2(%ebp)
	movw	-2(%ebp), %dx
	orb	$12, %dh
	movw	%dx, -4(%ebp)
	fldcw	-4(%ebp)
	fistl	20(%eax)
	fldcw	-2(%ebp)
.L512:
	.loc 1 312 0
	fstl	28(%eax)
	.loc 1 313 0
	leave
	.cfi_restore 5
	.cfi_def_cfa 4, 4
	ret
	.cfi_endproc
.LFE10:
	.size	cJSON_SetNumberHelper, .-cJSON_SetNumberHelper
	.section	.text.unlikely.cJSON_SetNumberHelper
.LCOLDE31:
	.section	.text.cJSON_SetNumberHelper
.LHOTE31:
	.section	.rodata.str1.1
.LC32:
	.string	"\357\273\277"
	.section	.text.unlikely.cJSON_ParseWithOpts,"ax",@progbits
.LCOLDB33:
	.section	.text.cJSON_ParseWithOpts,"ax",@progbits
.LHOTB33:
	.globl	cJSON_ParseWithOpts
	.type	cJSON_ParseWithOpts, @function
cJSON_ParseWithOpts:
.LFB21:
	.loc 1 852 0
	.cfi_startproc
.LVL384:
	pushl	%ebp
	.cfi_def_cfa_offset 8
	.cfi_offset 5, -8
	.loc 1 853 0
	movl	$7, %ecx
	.loc 1 852 0
	movl	%esp, %ebp
	.cfi_def_cfa_register 5
	pushl	%edi
	pushl	%esi
	pushl	%ebx
	.cfi_offset 7, -12
	.cfi_offset 6, -16
	.cfi_offset 3, -20
	.loc 1 853 0
	leal	-56(%ebp), %edi
	.loc 1 852 0
	subl	$60, %esp
	.loc 1 852 0
	movl	8(%ebp), %eax
	movl	12(%ebp), %ebx
	.loc 1 857 0
	movl	$0, global_error
	.loc 1 858 0
	movl	$0, global_error+4
	.loc 1 852 0
	movl	%eax, -60(%ebp)
	movl	%gs:20, %eax
	movl	%eax, -28(%ebp)
	xorl	%eax, %eax
	.loc 1 860 0
	cmpl	$0, -60(%ebp)
	.loc 1 853 0
	rep stosl
.LVL385:
	.loc 1 860 0
	je	.L521
	.loc 1 863 0
	movl	-60(%ebp), %eax
	.loc 1 864 0
	movl	-60(%ebp), %edi
	orl	$-1, %ecx
	.loc 1 866 0
	movl	$global_hooks, %esi
	.loc 1 863 0
	movl	%eax, -56(%ebp)
	.loc 1 864 0
	xorl	%eax, %eax
	repnz scasb
.LVL386:
	.loc 1 868 0
	movl	global_hooks, %eax
	.loc 1 866 0
	leal	-40(%ebp), %edi
	.loc 1 864 0
	notl	%ecx
	movl	%ecx, -52(%ebp)
	.loc 1 866 0
	movl	$3, %ecx
	rep movsl
	.loc 1 868 0
	call	cJSON_New_Item.isra.0
.LVL387:
	.loc 1 869 0
	testl	%eax, %eax
	.loc 1 868 0
	movl	%eax, %esi
.LVL388:
	.loc 1 869 0
	je	.L522
.LVL389:
.LBB102:
.LBB103:
	.loc 1 841 0
	movl	-56(%ebp), %eax
.LVL390:
	.loc 1 842 0
	xorl	%edx, %edx
	.loc 1 841 0
	testl	%eax, %eax
	je	.L523
	.loc 1 841 0
	cmpl	$0, -48(%ebp)
	jne	.L523
	.loc 1 844 0
	cmpl	$4, -52(%ebp)
	.loc 1 847 0
	leal	-56(%ebp), %edx
.LVL391:
	.loc 1 844 0
	jbe	.L523
.LVL392:
	pushl	%edx
	pushl	$3
	pushl	$.LC32
	pushl	%eax
	call	strncmp
.LVL393:
	addl	$16, %esp
	testl	%eax, %eax
	.loc 1 847 0
	leal	-56(%ebp), %edx
.LVL394:
	.loc 1 844 0
	jne	.L523
	.loc 1 845 0
	movl	$3, -48(%ebp)
.LVL395:
.L523:
.LBE103:
.LBE102:
	.loc 1 872 0
	movl	%edx, %eax
	call	buffer_skip_whitespace
.LVL396:
	movl	%eax, %edx
	movl	%esi, %eax
	call	parse_value
.LVL397:
	testl	%eax, %eax
	je	.L524
	.loc 1 878 0
	cmpl	$0, 16(%ebp)
	jne	.L525
.L527:
	.loc 1 883 0
	testl	%ebx, %ebx
	je	.L548
	.loc 1 884 0
	movl	-48(%ebp), %eax
	addl	-56(%ebp), %eax
	movl	%eax, (%ebx)
	jmp	.L548
.L525:
	.loc 1 879 0
	leal	-56(%ebp), %eax
	call	buffer_skip_whitespace
.LVL398:
	.loc 1 880 0
	movl	-48(%ebp), %eax
	cmpl	-52(%ebp), %eax
	jnb	.L524
	.loc 1 880 0 is_stmt 0 discriminator 1
	movl	-56(%ebp), %edx
	cmpb	$0, (%edx,%eax)
	jne	.L524
	jmp	.L527
.L548:
	.loc 1 884 0 is_stmt 1
	movl	%esi, %eax
	jmp	.L521
.L524:
	.loc 1 890 0
	subl	$12, %esp
	pushl	%esi
	call	cJSON_Delete
.LVL399:
	addl	$16, %esp
.L522:
.LVL400:
.LBB104:
	.loc 1 897 0
	movl	-48(%ebp), %eax
	movl	-52(%ebp), %edx
	cmpl	%edx, %eax
	jb	.L528
	.loc 1 900 0
	leal	-1(%edx), %eax
	testl	%edx, %edx
	movl	$0, %edx
	cmove	%edx, %eax
.L528:
.LVL401:
	.loc 1 902 0
	testl	%ebx, %ebx
	je	.L529
	.loc 1 903 0
	movl	-60(%ebp), %esi
.LVL402:
	leal	(%esi,%eax), %edx
	movl	%edx, (%ebx)
.L529:
	.loc 1 905 0
	movl	-60(%ebp), %ebx
	movl	%eax, global_error+4
.LVL403:
.LBE104:
	.loc 1 908 0
	xorl	%eax, %eax
.LBB105:
	.loc 1 905 0
	movl	%ebx, global_error
.L521:
.LBE105:
	.loc 1 909 0
	movl	-28(%ebp), %ebx
	xorl	%gs:20, %ebx
	je	.L530
	call	__stack_chk_fail
.LVL404:
.L530:
	leal	-12(%ebp), %esp
	popl	%ebx
	.cfi_restore 3
	popl	%esi
	.cfi_restore 6
	popl	%edi
	.cfi_restore 7
	popl	%ebp
	.cfi_restore 5
	.cfi_def_cfa 4, 4
	ret
	.cfi_endproc
.LFE21:
	.size	cJSON_ParseWithOpts, .-cJSON_ParseWithOpts
	.section	.text.unlikely.cJSON_ParseWithOpts
.LCOLDE33:
	.section	.text.cJSON_ParseWithOpts
.LHOTE33:
	.section	.text.unlikely.cJSON_Parse,"ax",@progbits
.LCOLDB34:
	.section	.text.cJSON_Parse,"ax",@progbits
.LHOTB34:
	.globl	cJSON_Parse
	.type	cJSON_Parse, @function
cJSON_Parse:
.LFB22:
	.loc 1 913 0
	.cfi_startproc
.LVL405:
	pushl	%ebp
	.cfi_def_cfa_offset 8
	.cfi_offset 5, -8
	movl	%esp, %ebp
	.cfi_def_cfa_register 5
	subl	$12, %esp
	.loc 1 914 0
	pushl	$0
	pushl	$0
	pushl	8(%ebp)
	call	cJSON_ParseWithOpts
.LVL406:
	.loc 1 915 0
	leave
	.cfi_restore 5
	.cfi_def_cfa 4, 4
	ret
	.cfi_endproc
.LFE22:
	.size	cJSON_Parse, .-cJSON_Parse
	.section	.text.unlikely.cJSON_Parse
.LCOLDE34:
	.section	.text.cJSON_Parse
.LHOTE34:
	.section	.text.unlikely.cJSON_Print,"ax",@progbits
.LCOLDB35:
	.section	.text.cJSON_Print,"ax",@progbits
.LHOTB35:
	.globl	cJSON_Print
	.type	cJSON_Print, @function
cJSON_Print:
.LFB24:
	.loc 1 969 0
	.cfi_startproc
.LVL407:
	pushl	%ebp
	.cfi_def_cfa_offset 8
	.cfi_offset 5, -8
	.loc 1 970 0
	movl	$1, %edx
	.loc 1 969 0
	movl	%esp, %ebp
	.cfi_def_cfa_register 5
	.loc 1 970 0
	movl	8(%ebp), %eax
	.loc 1 971 0
	popl	%ebp
	.cfi_restore 5
	.cfi_def_cfa 4, 4
	.loc 1 970 0
	jmp	print.constprop.12
.LVL408:
	.cfi_endproc
.LFE24:
	.size	cJSON_Print, .-cJSON_Print
	.section	.text.unlikely.cJSON_Print
.LCOLDE35:
	.section	.text.cJSON_Print
.LHOTE35:
	.section	.text.unlikely.cJSON_PrintUnformatted,"ax",@progbits
.LCOLDB36:
	.section	.text.cJSON_PrintUnformatted,"ax",@progbits
.LHOTB36:
	.globl	cJSON_PrintUnformatted
	.type	cJSON_PrintUnformatted, @function
cJSON_PrintUnformatted:
.LFB25:
	.loc 1 974 0
	.cfi_startproc
.LVL409:
	pushl	%ebp
	.cfi_def_cfa_offset 8
	.cfi_offset 5, -8
	.loc 1 975 0
	xorl	%edx, %edx
	.loc 1 974 0
	movl	%esp, %ebp
	.cfi_def_cfa_register 5
	.loc 1 975 0
	movl	8(%ebp), %eax
	.loc 1 976 0
	popl	%ebp
	.cfi_restore 5
	.cfi_def_cfa 4, 4
	.loc 1 975 0
	jmp	print.constprop.12
.LVL410:
	.cfi_endproc
.LFE25:
	.size	cJSON_PrintUnformatted, .-cJSON_PrintUnformatted
	.section	.text.unlikely.cJSON_PrintUnformatted
.LCOLDE36:
	.section	.text.cJSON_PrintUnformatted
.LHOTE36:
	.section	.text.unlikely.cJSON_PrintBuffered,"ax",@progbits
.LCOLDB37:
	.section	.text.cJSON_PrintBuffered,"ax",@progbits
.LHOTB37:
	.globl	cJSON_PrintBuffered
	.type	cJSON_PrintBuffered, @function
cJSON_PrintBuffered:
.LFB26:
	.loc 1 979 0
	.cfi_startproc
.LVL411:
	pushl	%ebp
	.cfi_def_cfa_offset 8
	.cfi_offset 5, -8
	.loc 1 980 0
	movl	$9, %ecx
	.loc 1 979 0
	movl	%esp, %ebp
	.cfi_def_cfa_register 5
	pushl	%edi
	pushl	%esi
	pushl	%ebx
	.cfi_offset 7, -12
	.cfi_offset 6, -16
	.cfi_offset 3, -20
	.loc 1 980 0
	leal	-64(%ebp), %edi
	.loc 1 979 0
	subl	$76, %esp
	.loc 1 979 0
	movl	8(%ebp), %eax
	movl	12(%ebp), %ebx
	movl	%eax, -76(%ebp)
	movl	%gs:20, %eax
	movl	%eax, -28(%ebp)
	xorl	%eax, %eax
	.loc 1 982 0
	testl	%ebx, %ebx
	.loc 1 980 0
	rep stosl
	.loc 1 982 0
	js	.L565
	.loc 1 985 0
	subl	$12, %esp
	movl	$global_hooks, %esi
	pushl	%ebx
	call	*global_hooks
.LVL412:
	.loc 1 986 0
	addl	$16, %esp
	testl	%eax, %eax
	.loc 1 985 0
	movl	%eax, -64(%ebp)
	.loc 1 986 0
	je	.L565
	.loc 1 992 0
	movl	16(%ebp), %eax
	.loc 1 995 0
	leal	-64(%ebp), %edx
	.loc 1 989 0
	movl	%ebx, -60(%ebp)
	.loc 1 990 0
	movl	$0, -56(%ebp)
	.loc 1 991 0
	movl	$0, -48(%ebp)
	.loc 1 993 0
	leal	-40(%ebp), %edi
	movl	$3, %ecx
	.loc 1 992 0
	movl	%eax, -44(%ebp)
	.loc 1 995 0
	movl	-76(%ebp), %eax
	.loc 1 993 0
	rep movsl
	.loc 1 995 0
	call	print_value
.LVL413:
	testl	%eax, %eax
	.loc 1 1000 0
	movl	-64(%ebp), %edx
	.loc 1 995 0
	jne	.L557
	.loc 1 996 0
	subl	$12, %esp
	pushl	%edx
	call	*global_hooks+4
.LVL414:
	.loc 1 997 0
	addl	$16, %esp
.L565:
	xorl	%edx, %edx
.L557:
	.loc 1 1001 0
	movl	-28(%ebp), %esi
	xorl	%gs:20, %esi
	movl	%edx, %eax
	je	.L560
	call	__stack_chk_fail
.LVL415:
.L560:
	leal	-12(%ebp), %esp
	popl	%ebx
	.cfi_restore 3
	popl	%esi
	.cfi_restore 6
	popl	%edi
	.cfi_restore 7
	popl	%ebp
	.cfi_restore 5
	.cfi_def_cfa 4, 4
	ret
	.cfi_endproc
.LFE26:
	.size	cJSON_PrintBuffered, .-cJSON_PrintBuffered
	.section	.text.unlikely.cJSON_PrintBuffered
.LCOLDE37:
	.section	.text.cJSON_PrintBuffered
.LHOTE37:
	.section	.text.unlikely.cJSON_PrintPreallocated,"ax",@progbits
.LCOLDB38:
	.section	.text.cJSON_PrintPreallocated,"ax",@progbits
.LHOTB38:
	.globl	cJSON_PrintPreallocated
	.type	cJSON_PrintPreallocated, @function
cJSON_PrintPreallocated:
.LFB27:
	.loc 1 1004 0
	.cfi_startproc
.LVL416:
	pushl	%ebp
	.cfi_def_cfa_offset 8
	.cfi_offset 5, -8
	.loc 1 1005 0
	movl	$9, %ecx
	.loc 1 1004 0
	movl	%esp, %ebp
	.cfi_def_cfa_register 5
	pushl	%edi
	pushl	%esi
	pushl	%ebx
	.cfi_offset 7, -12
	.cfi_offset 6, -16
	.cfi_offset 3, -20
	.loc 1 1005 0
	leal	-64(%ebp), %edi
	.loc 1 1004 0
	subl	$76, %esp
	.loc 1 1004 0
	movl	8(%ebp), %eax
	movl	16(%ebp), %edx
	movl	12(%ebp), %ebx
	movl	%eax, -76(%ebp)
	movl	%gs:20, %eax
	movl	%eax, -28(%ebp)
	xorl	%eax, %eax
	.loc 1 1005 0
	rep stosl
	.loc 1 1007 0
	movl	%edx, %eax
	shrl	$31, %eax
	jne	.L569
	testl	%ebx, %ebx
	je	.L569
	.loc 1 1014 0
	movl	20(%ebp), %eax
	.loc 1 1011 0
	movl	%edx, -60(%ebp)
	.loc 1 1017 0
	leal	-64(%ebp), %edx
	.loc 1 1015 0
	leal	-40(%ebp), %edi
	.loc 1 1010 0
	movl	%ebx, -64(%ebp)
	.loc 1 1013 0
	movl	$1, -48(%ebp)
	.loc 1 1015 0
	movl	$global_hooks, %esi
	movl	$3, %ecx
	.loc 1 1014 0
	movl	%eax, -44(%ebp)
	.loc 1 1017 0
	movl	-76(%ebp), %eax
	.loc 1 1015 0
	rep movsl
	.loc 1 1017 0
	call	print_value
.LVL417:
	jmp	.L567
.L569:
	.loc 1 1008 0
	xorl	%eax, %eax
.L567:
	.loc 1 1018 0
	movl	-28(%ebp), %esi
	xorl	%gs:20, %esi
	je	.L568
	call	__stack_chk_fail
.LVL418:
.L568:
	addl	$76, %esp
	popl	%ebx
	.cfi_restore 3
	popl	%esi
	.cfi_restore 6
	popl	%edi
	.cfi_restore 7
	popl	%ebp
	.cfi_restore 5
	.cfi_def_cfa 4, 4
	ret
	.cfi_endproc
.LFE27:
	.size	cJSON_PrintPreallocated, .-cJSON_PrintPreallocated
	.section	.text.unlikely.cJSON_PrintPreallocated
.LCOLDE38:
	.section	.text.cJSON_PrintPreallocated
.LHOTE38:
	.section	.text.unlikely.cJSON_GetArraySize,"ax",@progbits
.LCOLDB39:
	.section	.text.cJSON_GetArraySize,"ax",@progbits
.LHOTB39:
	.globl	cJSON_GetArraySize
	.type	cJSON_GetArraySize, @function
cJSON_GetArraySize:
.LFB34:
	.loc 1 1436 0
	.cfi_startproc
.LVL419:
	pushl	%ebp
	.cfi_def_cfa_offset 8
	.cfi_offset 5, -8
	.loc 1 1441 0
	xorl	%eax, %eax
	.loc 1 1436 0
	movl	%esp, %ebp
	.cfi_def_cfa_register 5
	.loc 1 1436 0
	movl	8(%ebp), %edx
	.loc 1 1440 0
	testl	%edx, %edx
	je	.L572
	.loc 1 1443 0
	movl	8(%edx), %edx
.LVL420:
.L573:
	.loc 1 1445 0
	testl	%edx, %edx
	je	.L572
	.loc 1 1446 0
	incl	%eax
.LVL421:
	.loc 1 1447 0
	movl	(%edx), %edx
.LVL422:
	jmp	.L573
.LVL423:
.L572:
	.loc 1 1453 0
	popl	%ebp
	.cfi_restore 5
	.cfi_def_cfa 4, 4
	ret
	.cfi_endproc
.LFE34:
	.size	cJSON_GetArraySize, .-cJSON_GetArraySize
	.section	.text.unlikely.cJSON_GetArraySize
.LCOLDE39:
	.section	.text.cJSON_GetArraySize
.LHOTE39:
	.section	.text.unlikely.cJSON_GetArrayItem,"ax",@progbits
.LCOLDB40:
	.section	.text.cJSON_GetArrayItem,"ax",@progbits
.LHOTB40:
	.globl	cJSON_GetArrayItem
	.type	cJSON_GetArrayItem, @function
cJSON_GetArrayItem:
.LFB36:
	.loc 1 1472 0
	.cfi_startproc
.LVL424:
	pushl	%ebp
	.cfi_def_cfa_offset 8
	.cfi_offset 5, -8
	movl	%esp, %ebp
	.cfi_def_cfa_register 5
	.loc 1 1472 0
	movl	12(%ebp), %edx
	movl	8(%ebp), %eax
	.loc 1 1473 0
	testl	%edx, %edx
	js	.L578
	.loc 1 1477 0
	popl	%ebp
	.cfi_remember_state
	.cfi_restore 5
	.cfi_def_cfa 4, 4
	.loc 1 1476 0
	jmp	get_array_item
.LVL425:
.L578:
	.cfi_restore_state
	.loc 1 1477 0
	xorl	%eax, %eax
.LVL426:
	popl	%ebp
	.cfi_restore 5
	.cfi_def_cfa 4, 4
	ret
	.cfi_endproc
.LFE36:
	.size	cJSON_GetArrayItem, .-cJSON_GetArrayItem
	.section	.text.unlikely.cJSON_GetArrayItem
.LCOLDE40:
	.section	.text.cJSON_GetArrayItem
.LHOTE40:
	.section	.text.unlikely.cJSON_GetObjectItem,"ax",@progbits
.LCOLDB41:
	.section	.text.cJSON_GetObjectItem,"ax",@progbits
.LHOTB41:
	.globl	cJSON_GetObjectItem
	.type	cJSON_GetObjectItem, @function
cJSON_GetObjectItem:
.LFB38:
	.loc 1 1505 0
	.cfi_startproc
.LVL427:
	pushl	%ebp
	.cfi_def_cfa_offset 8
	.cfi_offset 5, -8
	.loc 1 1506 0
	xorl	%ecx, %ecx
	.loc 1 1505 0
	movl	%esp, %ebp
	.cfi_def_cfa_register 5
	.loc 1 1506 0
	movl	12(%ebp), %edx
	movl	8(%ebp), %eax
	.loc 1 1507 0
	popl	%ebp
	.cfi_restore 5
	.cfi_def_cfa 4, 4
	.loc 1 1506 0
	jmp	get_object_item
.LVL428:
	.cfi_endproc
.LFE38:
	.size	cJSON_GetObjectItem, .-cJSON_GetObjectItem
	.section	.text.unlikely.cJSON_GetObjectItem
.LCOLDE41:
	.section	.text.cJSON_GetObjectItem
.LHOTE41:
	.section	.text.unlikely.cJSON_GetObjectItemCaseSensitive,"ax",@progbits
.LCOLDB42:
	.section	.text.cJSON_GetObjectItemCaseSensitive,"ax",@progbits
.LHOTB42:
	.globl	cJSON_GetObjectItemCaseSensitive
	.type	cJSON_GetObjectItemCaseSensitive, @function
cJSON_GetObjectItemCaseSensitive:
.LFB39:
	.loc 1 1510 0
	.cfi_startproc
.LVL429:
	pushl	%ebp
	.cfi_def_cfa_offset 8
	.cfi_offset 5, -8
	.loc 1 1511 0
	movl	$1, %ecx
	.loc 1 1510 0
	movl	%esp, %ebp
	.cfi_def_cfa_register 5
	.loc 1 1511 0
	movl	12(%ebp), %edx
	movl	8(%ebp), %eax
	.loc 1 1512 0
	popl	%ebp
	.cfi_restore 5
	.cfi_def_cfa 4, 4
	.loc 1 1511 0
	jmp	get_object_item
.LVL430:
	.cfi_endproc
.LFE39:
	.size	cJSON_GetObjectItemCaseSensitive, .-cJSON_GetObjectItemCaseSensitive
	.section	.text.unlikely.cJSON_GetObjectItemCaseSensitive
.LCOLDE42:
	.section	.text.cJSON_GetObjectItemCaseSensitive
.LHOTE42:
	.section	.text.unlikely.cJSON_HasObjectItem,"ax",@progbits
.LCOLDB43:
	.section	.text.cJSON_HasObjectItem,"ax",@progbits
.LHOTB43:
	.globl	cJSON_HasObjectItem
	.type	cJSON_HasObjectItem, @function
cJSON_HasObjectItem:
.LFB40:
	.loc 1 1515 0
	.cfi_startproc
.LVL431:
	pushl	%ebp
	.cfi_def_cfa_offset 8
	.cfi_offset 5, -8
	movl	%esp, %ebp
	.cfi_def_cfa_register 5
	subl	$16, %esp
	.loc 1 1516 0
	pushl	12(%ebp)
	pushl	8(%ebp)
	call	cJSON_GetObjectItem
.LVL432:
	addl	$16, %esp
	testl	%eax, %eax
	setne	%al
	.loc 1 1517 0
	leave
	.cfi_restore 5
	.cfi_def_cfa 4, 4
	.loc 1 1516 0
	movzbl	%al, %eax
	.loc 1 1517 0
	ret
	.cfi_endproc
.LFE40:
	.size	cJSON_HasObjectItem, .-cJSON_HasObjectItem
	.section	.text.unlikely.cJSON_HasObjectItem
.LCOLDE43:
	.section	.text.cJSON_HasObjectItem
.LHOTE43:
	.section	.text.unlikely.cJSON_AddItemToArray,"ax",@progbits
.LCOLDB44:
	.section	.text.cJSON_AddItemToArray,"ax",@progbits
.LHOTB44:
	.globl	cJSON_AddItemToArray
	.type	cJSON_AddItemToArray, @function
cJSON_AddItemToArray:
.LFB43:
	.loc 1 1546 0
	.cfi_startproc
.LVL433:
	pushl	%ebp
	.cfi_def_cfa_offset 8
	.cfi_offset 5, -8
	movl	%esp, %ebp
	.cfi_def_cfa_register 5
	.loc 1 1546 0
	movl	12(%ebp), %edx
	movl	8(%ebp), %ecx
	.loc 1 1549 0
	testl	%edx, %edx
	je	.L586
	testl	%ecx, %ecx
	je	.L586
.LVL434:
.LBB110:
.LBB111:
	.loc 1 1552 0
	movl	8(%ecx), %eax
.LVL435:
	.loc 1 1554 0
	testl	%eax, %eax
	jne	.L591
	.loc 1 1556 0
	movl	%edx, 8(%ecx)
	jmp	.L586
.LVL436:
.L591:
	.loc 1 1559 0
	movl	(%eax), %ecx
	testl	%ecx, %ecx
	je	.L593
	movl	%ecx, %eax
.LVL437:
	jmp	.L591
.LVL438:
.L593:
.LBB112:
.LBB113:
	.loc 1 1522 0
	movl	%edx, (%eax)
	.loc 1 1523 0
	movl	%eax, 4(%edx)
.LVL439:
.L586:
.LBE113:
.LBE112:
.LBE111:
.LBE110:
	.loc 1 1563 0
	popl	%ebp
	.cfi_restore 5
	.cfi_def_cfa 4, 4
	ret
	.cfi_endproc
.LFE43:
	.size	cJSON_AddItemToArray, .-cJSON_AddItemToArray
	.section	.text.unlikely.cJSON_AddItemToArray
.LCOLDE44:
	.section	.text.cJSON_AddItemToArray
.LHOTE44:
	.section	.text.unlikely.cJSON_AddItemToObjectCS,"ax",@progbits
.LCOLDB45:
	.section	.text.cJSON_AddItemToObjectCS,"ax",@progbits
.LHOTB45:
	.globl	cJSON_AddItemToObjectCS
	.type	cJSON_AddItemToObjectCS, @function
cJSON_AddItemToObjectCS:
.LFB45:
	.loc 1 1585 0
	.cfi_startproc
.LVL440:
	pushl	%ebp
	.cfi_def_cfa_offset 8
	.cfi_offset 5, -8
	movl	%esp, %ebp
	.cfi_def_cfa_register 5
	pushl	%edi
	pushl	%esi
	pushl	%ebx
	subl	$12, %esp
	.cfi_offset 7, -12
	.cfi_offset 6, -16
	.cfi_offset 3, -20
	.loc 1 1585 0
	movl	16(%ebp), %ebx
	movl	8(%ebp), %edi
	movl	12(%ebp), %esi
	.loc 1 1586 0
	testl	%ebx, %ebx
	je	.L594
	testl	%esi, %esi
	je	.L594
.LVL441:
.LBB116:
.LBB117:
	.loc 1 1588 0
	testb	$2, 13(%ebx)
	jne	.L596
	movl	24(%ebx), %eax
	testl	%eax, %eax
	je	.L596
	.loc 1 1589 0
	subl	$12, %esp
	pushl	%eax
	call	*global_hooks+4
.LVL442:
	addl	$16, %esp
.L596:
	.loc 1 1590 0
	movl	%esi, 24(%ebx)
	.loc 1 1591 0
	orl	$512, 12(%ebx)
	.loc 1 1592 0
	movl	%ebx, 12(%ebp)
	movl	%edi, 8(%ebp)
.LBE117:
.LBE116:
	.loc 1 1593 0
	leal	-12(%ebp), %esp
	popl	%ebx
	.cfi_remember_state
	.cfi_restore 3
.LVL443:
	popl	%esi
	.cfi_restore 6
.LVL444:
	popl	%edi
	.cfi_restore 7
.LVL445:
	popl	%ebp
	.cfi_restore 5
	.cfi_def_cfa 4, 4
.LBB119:
.LBB118:
	.loc 1 1592 0
	jmp	cJSON_AddItemToArray
.LVL446:
.L594:
	.cfi_restore_state
.LBE118:
.LBE119:
	.loc 1 1593 0
	leal	-12(%ebp), %esp
	popl	%ebx
	.cfi_restore 3
	popl	%esi
	.cfi_restore 6
	popl	%edi
	.cfi_restore 7
	popl	%ebp
	.cfi_restore 5
	.cfi_def_cfa 4, 4
	ret
	.cfi_endproc
.LFE45:
	.size	cJSON_AddItemToObjectCS, .-cJSON_AddItemToObjectCS
	.section	.text.unlikely.cJSON_AddItemToObjectCS
.LCOLDE45:
	.section	.text.cJSON_AddItemToObjectCS
.LHOTE45:
	.section	.text.unlikely.cJSON_AddItemToObject,"ax",@progbits
.LCOLDB46:
	.section	.text.cJSON_AddItemToObject,"ax",@progbits
.LHOTB46:
	.globl	cJSON_AddItemToObject
	.type	cJSON_AddItemToObject, @function
cJSON_AddItemToObject:
.LFB44:
	.loc 1 1566 0
	.cfi_startproc
.LVL447:
	pushl	%ebp
	.cfi_def_cfa_offset 8
	.cfi_offset 5, -8
	movl	%esp, %ebp
	.cfi_def_cfa_register 5
	pushl	%ebx
	pushl	%ecx
	.cfi_offset 3, -12
	.loc 1 1566 0
	movl	16(%ebp), %ebx
	.loc 1 1567 0
	testl	%ebx, %ebx
	je	.L601
	.loc 1 1571 0
	movl	12(%ebp), %eax
	call	cJSON_strdup.isra.1.constprop.11
.LVL448:
	pushl	%edx
	pushl	%ebx
	pushl	%eax
	pushl	8(%ebp)
	call	cJSON_AddItemToObjectCS
.LVL449:
	.loc 1 1573 0
	andl	$-513, 12(%ebx)
	addl	$16, %esp
.L601:
	.loc 1 1574 0
	movl	-4(%ebp), %ebx
	leave
	.cfi_restore 5
	.cfi_restore 3
	.cfi_def_cfa 4, 4
	ret
	.cfi_endproc
.LFE44:
	.size	cJSON_AddItemToObject, .-cJSON_AddItemToObject
	.section	.text.unlikely.cJSON_AddItemToObject
.LCOLDE46:
	.section	.text.cJSON_AddItemToObject
.LHOTE46:
	.section	.text.unlikely.cJSON_AddItemReferenceToArray,"ax",@progbits
.LCOLDB47:
	.section	.text.cJSON_AddItemReferenceToArray,"ax",@progbits
.LHOTB47:
	.globl	cJSON_AddItemReferenceToArray
	.type	cJSON_AddItemReferenceToArray, @function
cJSON_AddItemReferenceToArray:
.LFB46:
	.loc 1 1599 0
	.cfi_startproc
.LVL450:
	pushl	%ebp
	.cfi_def_cfa_offset 8
	.cfi_offset 5, -8
	movl	%esp, %ebp
	.cfi_def_cfa_register 5
	pushl	%ebx
	pushl	%ecx
	.cfi_offset 3, -12
	.loc 1 1599 0
	movl	8(%ebp), %ebx
	movl	12(%ebp), %eax
	.loc 1 1600 0
	testl	%ebx, %ebx
	je	.L607
	.loc 1 1603 0
	call	create_reference.constprop.10
.LVL451:
	movl	%ebx, 8(%ebp)
	movl	%eax, 12(%ebp)
	.loc 1 1604 0
	popl	%edx
	popl	%ebx
	.cfi_remember_state
	.cfi_restore 3
	popl	%ebp
	.cfi_restore 5
	.cfi_def_cfa 4, 4
	.loc 1 1603 0
	jmp	cJSON_AddItemToArray
.LVL452:
.L607:
	.cfi_restore_state
	.loc 1 1604 0
	popl	%eax
	popl	%ebx
	.cfi_restore 3
	popl	%ebp
	.cfi_restore 5
	.cfi_def_cfa 4, 4
	ret
	.cfi_endproc
.LFE46:
	.size	cJSON_AddItemReferenceToArray, .-cJSON_AddItemReferenceToArray
	.section	.text.unlikely.cJSON_AddItemReferenceToArray
.LCOLDE47:
	.section	.text.cJSON_AddItemReferenceToArray
.LHOTE47:
	.section	.text.unlikely.cJSON_AddItemReferenceToObject,"ax",@progbits
.LCOLDB48:
	.section	.text.cJSON_AddItemReferenceToObject,"ax",@progbits
.LHOTB48:
	.globl	cJSON_AddItemReferenceToObject
	.type	cJSON_AddItemReferenceToObject, @function
cJSON_AddItemReferenceToObject:
.LFB47:
	.loc 1 1607 0
	.cfi_startproc
.LVL453:
	pushl	%ebp
	.cfi_def_cfa_offset 8
	.cfi_offset 5, -8
	movl	%esp, %ebp
	.cfi_def_cfa_register 5
	pushl	%esi
	pushl	%ebx
	.cfi_offset 6, -12
	.cfi_offset 3, -16
	.loc 1 1607 0
	movl	8(%ebp), %ebx
	movl	12(%ebp), %esi
	movl	16(%ebp), %eax
	.loc 1 1608 0
	testl	%ebx, %ebx
	je	.L610
	testl	%esi, %esi
	je	.L610
	.loc 1 1611 0
	call	create_reference.constprop.10
.LVL454:
	movl	%esi, 12(%ebp)
	movl	%ebx, 8(%ebp)
	movl	%eax, 16(%ebp)
	.loc 1 1612 0
	popl	%ebx
	.cfi_remember_state
	.cfi_restore 3
	popl	%esi
	.cfi_restore 6
	popl	%ebp
	.cfi_restore 5
	.cfi_def_cfa 4, 4
	.loc 1 1611 0
	jmp	cJSON_AddItemToObject
.LVL455:
.L610:
	.cfi_restore_state
	.loc 1 1612 0
	popl	%ebx
	.cfi_restore 3
.LVL456:
	popl	%esi
	.cfi_restore 6
.LVL457:
	popl	%ebp
	.cfi_restore 5
	.cfi_def_cfa 4, 4
	ret
	.cfi_endproc
.LFE47:
	.size	cJSON_AddItemReferenceToObject, .-cJSON_AddItemReferenceToObject
	.section	.text.unlikely.cJSON_AddItemReferenceToObject
.LCOLDE48:
	.section	.text.cJSON_AddItemReferenceToObject
.LHOTE48:
	.section	.text.unlikely.cJSON_DetachItemViaPointer,"ax",@progbits
.LCOLDB49:
	.section	.text.cJSON_DetachItemViaPointer,"ax",@progbits
.LHOTB49:
	.globl	cJSON_DetachItemViaPointer
	.type	cJSON_DetachItemViaPointer, @function
cJSON_DetachItemViaPointer:
.LFB48:
	.loc 1 1615 0
	.cfi_startproc
.LVL458:
	pushl	%ebp
	.cfi_def_cfa_offset 8
	.cfi_offset 5, -8
	movl	%esp, %ebp
	.cfi_def_cfa_register 5
	pushl	%ebx
	.cfi_offset 3, -12
	.loc 1 1615 0
	movl	8(%ebp), %edx
	movl	12(%ebp), %eax
	.loc 1 1616 0
	testl	%edx, %edx
	je	.L618
	testl	%eax, %eax
	je	.L618
	.loc 1 1619 0
	movl	4(%eax), %ebx
	testl	%ebx, %ebx
	je	.L615
	.loc 1 1621 0
	movl	(%eax), %ecx
	movl	%ecx, (%ebx)
.L615:
	.loc 1 1623 0
	movl	(%eax), %ecx
	testl	%ecx, %ecx
	je	.L616
	.loc 1 1625 0
	movl	%ebx, 4(%ecx)
.L616:
	.loc 1 1628 0
	cmpl	8(%edx), %eax
	jne	.L617
	.loc 1 1630 0
	movl	%ecx, 8(%edx)
.L617:
	.loc 1 1633 0
	movl	$0, 4(%eax)
	.loc 1 1634 0
	movl	$0, (%eax)
	.loc 1 1636 0
	jmp	.L614
.LVL459:
.L618:
	.loc 1 1617 0
	xorl	%eax, %eax
.LVL460:
.L614:
	.loc 1 1637 0
	popl	%ebx
	.cfi_restore 3
	popl	%ebp
	.cfi_restore 5
	.cfi_def_cfa 4, 4
	ret
	.cfi_endproc
.LFE48:
	.size	cJSON_DetachItemViaPointer, .-cJSON_DetachItemViaPointer
	.section	.text.unlikely.cJSON_DetachItemViaPointer
.LCOLDE49:
	.section	.text.cJSON_DetachItemViaPointer
.LHOTE49:
	.section	.text.unlikely.cJSON_DetachItemFromArray,"ax",@progbits
.LCOLDB50:
	.section	.text.cJSON_DetachItemFromArray,"ax",@progbits
.LHOTB50:
	.globl	cJSON_DetachItemFromArray
	.type	cJSON_DetachItemFromArray, @function
cJSON_DetachItemFromArray:
.LFB49:
	.loc 1 1640 0
	.cfi_startproc
.LVL461:
	pushl	%ebp
	.cfi_def_cfa_offset 8
	.cfi_offset 5, -8
	movl	%esp, %ebp
	.cfi_def_cfa_register 5
	.loc 1 1640 0
	movl	12(%ebp), %edx
	movl	8(%ebp), %ecx
	.loc 1 1641 0
	testl	%edx, %edx
	js	.L627
	.loc 1 1644 0
	movl	%ecx, %eax
	call	get_array_item
.LVL462:
	movl	%eax, 12(%ebp)
	movl	%ecx, 8(%ebp)
	.loc 1 1645 0
	popl	%ebp
	.cfi_remember_state
	.cfi_restore 5
	.cfi_def_cfa 4, 4
	.loc 1 1644 0
	jmp	cJSON_DetachItemViaPointer
.LVL463:
.L627:
	.cfi_restore_state
	.loc 1 1645 0
	xorl	%eax, %eax
	popl	%ebp
	.cfi_restore 5
	.cfi_def_cfa 4, 4
	ret
	.cfi_endproc
.LFE49:
	.size	cJSON_DetachItemFromArray, .-cJSON_DetachItemFromArray
	.section	.text.unlikely.cJSON_DetachItemFromArray
.LCOLDE50:
	.section	.text.cJSON_DetachItemFromArray
.LHOTE50:
	.section	.text.unlikely.cJSON_DeleteItemFromArray,"ax",@progbits
.LCOLDB51:
	.section	.text.cJSON_DeleteItemFromArray,"ax",@progbits
.LHOTB51:
	.globl	cJSON_DeleteItemFromArray
	.type	cJSON_DeleteItemFromArray, @function
cJSON_DeleteItemFromArray:
.LFB50:
	.loc 1 1648 0
	.cfi_startproc
.LVL464:
	pushl	%ebp
	.cfi_def_cfa_offset 8
	.cfi_offset 5, -8
	movl	%esp, %ebp
	.cfi_def_cfa_register 5
	subl	$8, %esp
	.loc 1 1649 0
	pushl	12(%ebp)
	pushl	8(%ebp)
	call	cJSON_DetachItemFromArray
.LVL465:
	popl	%edx
	popl	%ecx
	movl	%eax, 8(%ebp)
	.loc 1 1650 0
	leave
	.cfi_restore 5
	.cfi_def_cfa 4, 4
	.loc 1 1649 0
	jmp	cJSON_Delete
.LVL466:
	.cfi_endproc
.LFE50:
	.size	cJSON_DeleteItemFromArray, .-cJSON_DeleteItemFromArray
	.section	.text.unlikely.cJSON_DeleteItemFromArray
.LCOLDE51:
	.section	.text.cJSON_DeleteItemFromArray
.LHOTE51:
	.section	.text.unlikely.cJSON_DetachItemFromObject,"ax",@progbits
.LCOLDB52:
	.section	.text.cJSON_DetachItemFromObject,"ax",@progbits
.LHOTB52:
	.globl	cJSON_DetachItemFromObject
	.type	cJSON_DetachItemFromObject, @function
cJSON_DetachItemFromObject:
.LFB51:
	.loc 1 1653 0
	.cfi_startproc
.LVL467:
	pushl	%ebp
	.cfi_def_cfa_offset 8
	.cfi_offset 5, -8
	movl	%esp, %ebp
	.cfi_def_cfa_register 5
	pushl	%ebx
	subl	$12, %esp
	.cfi_offset 3, -12
	.loc 1 1653 0
	movl	8(%ebp), %ebx
	.loc 1 1654 0
	pushl	12(%ebp)
	pushl	%ebx
	call	cJSON_GetObjectItem
.LVL468:
	.loc 1 1656 0
	movl	%ebx, 8(%ebp)
	addl	$16, %esp
	movl	%eax, 12(%ebp)
	.loc 1 1657 0
	movl	-4(%ebp), %ebx
	leave
	.cfi_restore 5
	.cfi_restore 3
	.cfi_def_cfa 4, 4
	.loc 1 1656 0
	jmp	cJSON_DetachItemViaPointer
.LVL469:
	.cfi_endproc
.LFE51:
	.size	cJSON_DetachItemFromObject, .-cJSON_DetachItemFromObject
	.section	.text.unlikely.cJSON_DetachItemFromObject
.LCOLDE52:
	.section	.text.cJSON_DetachItemFromObject
.LHOTE52:
	.section	.text.unlikely.cJSON_DetachItemFromObjectCaseSensitive,"ax",@progbits
.LCOLDB53:
	.section	.text.cJSON_DetachItemFromObjectCaseSensitive,"ax",@progbits
.LHOTB53:
	.globl	cJSON_DetachItemFromObjectCaseSensitive
	.type	cJSON_DetachItemFromObjectCaseSensitive, @function
cJSON_DetachItemFromObjectCaseSensitive:
.LFB52:
	.loc 1 1660 0
	.cfi_startproc
.LVL470:
	pushl	%ebp
	.cfi_def_cfa_offset 8
	.cfi_offset 5, -8
	movl	%esp, %ebp
	.cfi_def_cfa_register 5
	pushl	%ebx
	subl	$12, %esp
	.cfi_offset 3, -12
	.loc 1 1660 0
	movl	8(%ebp), %ebx
	.loc 1 1661 0
	pushl	12(%ebp)
	pushl	%ebx
	call	cJSON_GetObjectItemCaseSensitive
.LVL471:
	.loc 1 1663 0
	movl	%ebx, 8(%ebp)
	addl	$16, %esp
	movl	%eax, 12(%ebp)
	.loc 1 1664 0
	movl	-4(%ebp), %ebx
	leave
	.cfi_restore 5
	.cfi_restore 3
	.cfi_def_cfa 4, 4
	.loc 1 1663 0
	jmp	cJSON_DetachItemViaPointer
.LVL472:
	.cfi_endproc
.LFE52:
	.size	cJSON_DetachItemFromObjectCaseSensitive, .-cJSON_DetachItemFromObjectCaseSensitive
	.section	.text.unlikely.cJSON_DetachItemFromObjectCaseSensitive
.LCOLDE53:
	.section	.text.cJSON_DetachItemFromObjectCaseSensitive
.LHOTE53:
	.section	.text.unlikely.cJSON_DeleteItemFromObject,"ax",@progbits
.LCOLDB54:
	.section	.text.cJSON_DeleteItemFromObject,"ax",@progbits
.LHOTB54:
	.globl	cJSON_DeleteItemFromObject
	.type	cJSON_DeleteItemFromObject, @function
cJSON_DeleteItemFromObject:
.LFB53:
	.loc 1 1667 0
	.cfi_startproc
.LVL473:
	pushl	%ebp
	.cfi_def_cfa_offset 8
	.cfi_offset 5, -8
	movl	%esp, %ebp
	.cfi_def_cfa_register 5
	subl	$16, %esp
	.loc 1 1668 0
	pushl	12(%ebp)
	pushl	8(%ebp)
	call	cJSON_DetachItemFromObject
.LVL474:
	addl	$16, %esp
	movl	%eax, 8(%ebp)
	.loc 1 1669 0
	leave
	.cfi_restore 5
	.cfi_def_cfa 4, 4
	.loc 1 1668 0
	jmp	cJSON_Delete
.LVL475:
	.cfi_endproc
.LFE53:
	.size	cJSON_DeleteItemFromObject, .-cJSON_DeleteItemFromObject
	.section	.text.unlikely.cJSON_DeleteItemFromObject
.LCOLDE54:
	.section	.text.cJSON_DeleteItemFromObject
.LHOTE54:
	.section	.text.unlikely.cJSON_DeleteItemFromObjectCaseSensitive,"ax",@progbits
.LCOLDB55:
	.section	.text.cJSON_DeleteItemFromObjectCaseSensitive,"ax",@progbits
.LHOTB55:
	.globl	cJSON_DeleteItemFromObjectCaseSensitive
	.type	cJSON_DeleteItemFromObjectCaseSensitive, @function
cJSON_DeleteItemFromObjectCaseSensitive:
.LFB54:
	.loc 1 1672 0
	.cfi_startproc
.LVL476:
	pushl	%ebp
	.cfi_def_cfa_offset 8
	.cfi_offset 5, -8
	movl	%esp, %ebp
	.cfi_def_cfa_register 5
	subl	$16, %esp
	.loc 1 1673 0
	pushl	12(%ebp)
	pushl	8(%ebp)
	call	cJSON_DetachItemFromObjectCaseSensitive
.LVL477:
	addl	$16, %esp
	movl	%eax, 8(%ebp)
	.loc 1 1674 0
	leave
	.cfi_restore 5
	.cfi_def_cfa 4, 4
	.loc 1 1673 0
	jmp	cJSON_Delete
.LVL478:
	.cfi_endproc
.LFE54:
	.size	cJSON_DeleteItemFromObjectCaseSensitive, .-cJSON_DeleteItemFromObjectCaseSensitive
	.section	.text.unlikely.cJSON_DeleteItemFromObjectCaseSensitive
.LCOLDE55:
	.section	.text.cJSON_DeleteItemFromObjectCaseSensitive
.LHOTE55:
	.section	.text.unlikely.cJSON_InsertItemInArray,"ax",@progbits
.LCOLDB56:
	.section	.text.cJSON_InsertItemInArray,"ax",@progbits
.LHOTB56:
	.globl	cJSON_InsertItemInArray
	.type	cJSON_InsertItemInArray, @function
cJSON_InsertItemInArray:
.LFB55:
	.loc 1 1678 0
	.cfi_startproc
.LVL479:
	pushl	%ebp
	.cfi_def_cfa_offset 8
	.cfi_offset 5, -8
	movl	%esp, %ebp
	.cfi_def_cfa_register 5
	pushl	%ebx
	.cfi_offset 3, -12
	.loc 1 1678 0
	movl	12(%ebp), %edx
	movl	8(%ebp), %ebx
	movl	16(%ebp), %ecx
	.loc 1 1681 0
	testl	%edx, %edx
	js	.L639
	.loc 1 1684 0
	movl	%ebx, %eax
	call	get_array_item
.LVL480:
	.loc 1 1685 0
	testl	%eax, %eax
	jne	.L641
	.loc 1 1686 0
	movl	%ebx, 8(%ebp)
	movl	%ecx, 12(%ebp)
	.loc 1 1697 0
	popl	%ebx
	.cfi_remember_state
	.cfi_restore 3
	popl	%ebp
	.cfi_restore 5
	.cfi_def_cfa 4, 4
	.loc 1 1686 0
	jmp	cJSON_AddItemToArray
.LVL481:
.L641:
	.cfi_restore_state
	.loc 1 1693 0
	cmpl	8(%ebx), %eax
	.loc 1 1691 0
	movl	4(%eax), %edx
	.loc 1 1690 0
	movl	%eax, (%ecx)
	.loc 1 1691 0
	movl	%edx, 4(%ecx)
	.loc 1 1692 0
	movl	%ecx, 4(%eax)
	.loc 1 1693 0
	jne	.L642
	.loc 1 1694 0
	movl	%ecx, 8(%ebx)
	jmp	.L639
.L642:
	.loc 1 1696 0
	movl	4(%ecx), %eax
.LVL482:
	movl	%ecx, (%eax)
.LVL483:
.L639:
	.loc 1 1697 0
	popl	%ebx
	.cfi_restore 3
	popl	%ebp
	.cfi_restore 5
	.cfi_def_cfa 4, 4
	ret
	.cfi_endproc
.LFE55:
	.size	cJSON_InsertItemInArray, .-cJSON_InsertItemInArray
	.section	.text.unlikely.cJSON_InsertItemInArray
.LCOLDE56:
	.section	.text.cJSON_InsertItemInArray
.LHOTE56:
	.section	.text.unlikely.cJSON_ReplaceItemViaPointer,"ax",@progbits
.LCOLDB57:
	.section	.text.cJSON_ReplaceItemViaPointer,"ax",@progbits
.LHOTB57:
	.globl	cJSON_ReplaceItemViaPointer
	.type	cJSON_ReplaceItemViaPointer, @function
cJSON_ReplaceItemViaPointer:
.LFB56:
	.loc 1 1700 0
	.cfi_startproc
.LVL484:
	pushl	%ebp
	.cfi_def_cfa_offset 8
	.cfi_offset 5, -8
	movl	%esp, %ebp
	.cfi_def_cfa_register 5
	pushl	%esi
	pushl	%ebx
	.cfi_offset 6, -12
	.cfi_offset 3, -16
	.loc 1 1700 0
	movl	16(%ebp), %ecx
	movl	12(%ebp), %edx
	movl	8(%ebp), %esi
	.loc 1 1701 0
	testl	%ecx, %ecx
	sete	%bl
	testl	%edx, %edx
	sete	%al
	orb	%al, %bl
	jne	.L649
	testl	%esi, %esi
	je	.L649
	.loc 1 1704 0
	cmpl	%edx, %ecx
	.loc 1 1705 0
	movl	$1, %eax
	.loc 1 1704 0
	je	.L645
.LVL485:
.LBB122:
.LBB123:
	.loc 1 1707 0
	movl	(%edx), %eax
	.loc 1 1708 0
	movl	4(%edx), %ebx
	.loc 1 1710 0
	testl	%eax, %eax
	.loc 1 1707 0
	movl	%eax, (%ecx)
	.loc 1 1708 0
	movl	%ebx, 4(%ecx)
	.loc 1 1710 0
	je	.L646
	.loc 1 1711 0
	movl	%ecx, 4(%eax)
.LVL486:
.L646:
	.loc 1 1712 0
	movl	4(%ecx), %eax
	testl	%eax, %eax
	je	.L647
	.loc 1 1713 0
	movl	%ecx, (%eax)
.L647:
	.loc 1 1714 0
	cmpl	8(%esi), %edx
	jne	.L648
	.loc 1 1715 0
	movl	%ecx, 8(%esi)
.L648:
	.loc 1 1719 0
	subl	$12, %esp
	.loc 1 1717 0
	movl	$0, (%edx)
	.loc 1 1718 0
	movl	$0, 4(%edx)
	.loc 1 1719 0
	pushl	%edx
	call	cJSON_Delete
.LVL487:
	addl	$16, %esp
	movl	$1, %eax
	jmp	.L645
.LVL488:
.L649:
.LBE123:
.LBE122:
	.loc 1 1702 0
	xorl	%eax, %eax
.LVL489:
.L645:
	.loc 1 1722 0
	leal	-8(%ebp), %esp
	popl	%ebx
	.cfi_restore 3
	popl	%esi
	.cfi_restore 6
	popl	%ebp
	.cfi_restore 5
	.cfi_def_cfa 4, 4
	ret
	.cfi_endproc
.LFE56:
	.size	cJSON_ReplaceItemViaPointer, .-cJSON_ReplaceItemViaPointer
	.section	.text.unlikely.cJSON_ReplaceItemViaPointer
.LCOLDE57:
	.section	.text.cJSON_ReplaceItemViaPointer
.LHOTE57:
	.section	.text.unlikely.cJSON_ReplaceItemInArray,"ax",@progbits
.LCOLDB58:
	.section	.text.cJSON_ReplaceItemInArray,"ax",@progbits
.LHOTB58:
	.globl	cJSON_ReplaceItemInArray
	.type	cJSON_ReplaceItemInArray, @function
cJSON_ReplaceItemInArray:
.LFB57:
	.loc 1 1725 0
	.cfi_startproc
.LVL490:
	pushl	%ebp
	.cfi_def_cfa_offset 8
	.cfi_offset 5, -8
	movl	%esp, %ebp
	.cfi_def_cfa_register 5
	pushl	%ebx
	pushl	%ecx
	.cfi_offset 3, -12
	.loc 1 1725 0
	movl	12(%ebp), %edx
	movl	8(%ebp), %ecx
	movl	16(%ebp), %ebx
	.loc 1 1726 0
	testl	%edx, %edx
	js	.L658
	.loc 1 1729 0
	movl	%ecx, %eax
	call	get_array_item
.LVL491:
	movl	%ebx, 16(%ebp)
	movl	%eax, 12(%ebp)
	movl	%ecx, 8(%ebp)
	.loc 1 1730 0
	popl	%edx
	popl	%ebx
	.cfi_remember_state
	.cfi_restore 3
	popl	%ebp
	.cfi_restore 5
	.cfi_def_cfa 4, 4
	.loc 1 1729 0
	jmp	cJSON_ReplaceItemViaPointer
.LVL492:
.L658:
	.cfi_restore_state
	.loc 1 1730 0
	popl	%eax
	popl	%ebx
	.cfi_restore 3
	popl	%ebp
	.cfi_restore 5
	.cfi_def_cfa 4, 4
	ret
	.cfi_endproc
.LFE57:
	.size	cJSON_ReplaceItemInArray, .-cJSON_ReplaceItemInArray
	.section	.text.unlikely.cJSON_ReplaceItemInArray
.LCOLDE58:
	.section	.text.cJSON_ReplaceItemInArray
.LHOTE58:
	.section	.text.unlikely.cJSON_CreateNull,"ax",@progbits
.LCOLDB59:
	.section	.text.cJSON_CreateNull,"ax",@progbits
.LHOTB59:
	.globl	cJSON_CreateNull
	.type	cJSON_CreateNull, @function
cJSON_CreateNull:
.LFB61:
	.loc 1 1760 0
	.cfi_startproc
	pushl	%ebp
	.cfi_def_cfa_offset 8
	.cfi_offset 5, -8
	movl	%esp, %ebp
	.cfi_def_cfa_register 5
	subl	$8, %esp
	.loc 1 1761 0
	movl	global_hooks, %eax
	call	cJSON_New_Item.isra.0
.LVL493:
	.loc 1 1762 0
	testl	%eax, %eax
	je	.L662
	.loc 1 1763 0
	movl	$4, 12(%eax)
.L662:
	.loc 1 1766 0
	leave
	.cfi_restore 5
	.cfi_def_cfa 4, 4
	ret
	.cfi_endproc
.LFE61:
	.size	cJSON_CreateNull, .-cJSON_CreateNull
	.section	.text.unlikely.cJSON_CreateNull
.LCOLDE59:
	.section	.text.cJSON_CreateNull
.LHOTE59:
	.section	.text.unlikely.cJSON_CreateTrue,"ax",@progbits
.LCOLDB60:
	.section	.text.cJSON_CreateTrue,"ax",@progbits
.LHOTB60:
	.globl	cJSON_CreateTrue
	.type	cJSON_CreateTrue, @function
cJSON_CreateTrue:
.LFB62:
	.loc 1 1769 0
	.cfi_startproc
	pushl	%ebp
	.cfi_def_cfa_offset 8
	.cfi_offset 5, -8
	movl	%esp, %ebp
	.cfi_def_cfa_register 5
	subl	$8, %esp
	.loc 1 1770 0
	movl	global_hooks, %eax
	call	cJSON_New_Item.isra.0
.LVL494:
	.loc 1 1771 0
	testl	%eax, %eax
	je	.L668
	.loc 1 1772 0
	movl	$2, 12(%eax)
.L668:
	.loc 1 1775 0
	leave
	.cfi_restore 5
	.cfi_def_cfa 4, 4
	ret
	.cfi_endproc
.LFE62:
	.size	cJSON_CreateTrue, .-cJSON_CreateTrue
	.section	.text.unlikely.cJSON_CreateTrue
.LCOLDE60:
	.section	.text.cJSON_CreateTrue
.LHOTE60:
	.section	.text.unlikely.cJSON_CreateFalse,"ax",@progbits
.LCOLDB61:
	.section	.text.cJSON_CreateFalse,"ax",@progbits
.LHOTB61:
	.globl	cJSON_CreateFalse
	.type	cJSON_CreateFalse, @function
cJSON_CreateFalse:
.LFB63:
	.loc 1 1778 0
	.cfi_startproc
	pushl	%ebp
	.cfi_def_cfa_offset 8
	.cfi_offset 5, -8
	movl	%esp, %ebp
	.cfi_def_cfa_register 5
	subl	$8, %esp
	.loc 1 1779 0
	movl	global_hooks, %eax
	call	cJSON_New_Item.isra.0
.LVL495:
	.loc 1 1780 0
	testl	%eax, %eax
	je	.L674
	.loc 1 1781 0
	movl	$1, 12(%eax)
.L674:
	.loc 1 1784 0
	leave
	.cfi_restore 5
	.cfi_def_cfa 4, 4
	ret
	.cfi_endproc
.LFE63:
	.size	cJSON_CreateFalse, .-cJSON_CreateFalse
	.section	.text.unlikely.cJSON_CreateFalse
.LCOLDE61:
	.section	.text.cJSON_CreateFalse
.LHOTE61:
	.section	.text.unlikely.cJSON_CreateBool,"ax",@progbits
.LCOLDB62:
	.section	.text.cJSON_CreateBool,"ax",@progbits
.LHOTB62:
	.globl	cJSON_CreateBool
	.type	cJSON_CreateBool, @function
cJSON_CreateBool:
.LFB64:
	.loc 1 1787 0
	.cfi_startproc
.LVL496:
	pushl	%ebp
	.cfi_def_cfa_offset 8
	.cfi_offset 5, -8
	movl	%esp, %ebp
	.cfi_def_cfa_register 5
	subl	$8, %esp
	.loc 1 1788 0
	movl	global_hooks, %eax
	call	cJSON_New_Item.isra.0
.LVL497:
	.loc 1 1789 0
	testl	%eax, %eax
	je	.L680
	.loc 1 1790 0
	cmpl	$1, 8(%ebp)
	sbbl	%edx, %edx
	addl	$2, %edx
	movl	%edx, 12(%eax)
.L680:
	.loc 1 1793 0
	leave
	.cfi_restore 5
	.cfi_def_cfa 4, 4
	ret
	.cfi_endproc
.LFE64:
	.size	cJSON_CreateBool, .-cJSON_CreateBool
	.section	.text.unlikely.cJSON_CreateBool
.LCOLDE62:
	.section	.text.cJSON_CreateBool
.LHOTE62:
	.section	.text.unlikely.cJSON_CreateNumber,"ax",@progbits
.LCOLDB63:
	.section	.text.cJSON_CreateNumber,"ax",@progbits
.LHOTB63:
	.globl	cJSON_CreateNumber
	.type	cJSON_CreateNumber, @function
cJSON_CreateNumber:
.LFB65:
	.loc 1 1796 0
	.cfi_startproc
.LVL498:
	pushl	%ebp
	.cfi_def_cfa_offset 8
	.cfi_offset 5, -8
	movl	%esp, %ebp
	.cfi_def_cfa_register 5
	subl	$24, %esp
	.loc 1 1797 0
	movl	global_hooks, %eax
	.loc 1 1796 0
	fldl	8(%ebp)
	fstpl	-24(%ebp)
	.loc 1 1797 0
	call	cJSON_New_Item.isra.0
.LVL499:
	.loc 1 1798 0
	testl	%eax, %eax
	je	.L700
	.loc 1 1800 0
	fldl	-24(%ebp)
	.loc 1 1799 0
	movl	$8, 12(%eax)
	.loc 1 1800 0
	fstl	28(%eax)
	.loc 1 1803 0
	fldl	.LC28
	fxch	%st(1)
	fucomi	%st(1), %st
	fstp	%st(1)
	jb	.L698
	fstp	%st(0)
	.loc 1 1804 0
	movl	$2147483647, 20(%eax)
	jmp	.L700
.L698:
	.loc 1 1805 0
	flds	.LC29
	fucomip	%st(1), %st
	jb	.L699
	fstp	%st(0)
	.loc 1 1806 0
	movl	$-2147483648, 20(%eax)
	jmp	.L700
.L699:
	.loc 1 1808 0
	fnstcw	-10(%ebp)
	movw	-10(%ebp), %dx
	orb	$12, %dh
	movw	%dx, -12(%ebp)
	fldcw	-12(%ebp)
	fistpl	20(%eax)
	fldcw	-10(%ebp)
.L700:
	.loc 1 1812 0
	leave
	.cfi_restore 5
	.cfi_def_cfa 4, 4
	ret
	.cfi_endproc
.LFE65:
	.size	cJSON_CreateNumber, .-cJSON_CreateNumber
	.section	.text.unlikely.cJSON_CreateNumber
.LCOLDE63:
	.section	.text.cJSON_CreateNumber
.LHOTE63:
	.section	.text.unlikely.cJSON_CreateString,"ax",@progbits
.LCOLDB64:
	.section	.text.cJSON_CreateString,"ax",@progbits
.LHOTB64:
	.globl	cJSON_CreateString
	.type	cJSON_CreateString, @function
cJSON_CreateString:
.LFB66:
	.loc 1 1815 0
	.cfi_startproc
.LVL500:
	pushl	%ebp
	.cfi_def_cfa_offset 8
	.cfi_offset 5, -8
	movl	%esp, %ebp
	.cfi_def_cfa_register 5
	pushl	%ebx
	pushl	%eax
	.cfi_offset 3, -12
	.loc 1 1816 0
	movl	global_hooks, %eax
	call	cJSON_New_Item.isra.0
.LVL501:
	xorl	%edx, %edx
	.loc 1 1817 0
	testl	%eax, %eax
	je	.L703
	movl	%eax, %ebx
	.loc 1 1818 0
	movl	$16, 12(%eax)
	.loc 1 1819 0
	movl	8(%ebp), %eax
.LVL502:
	call	cJSON_strdup.isra.1.constprop.11
.LVL503:
	.loc 1 1820 0
	testl	%eax, %eax
	.loc 1 1819 0
	movl	%eax, 16(%ebx)
	movl	%ebx, %edx
	.loc 1 1820 0
	jne	.L703
	.loc 1 1821 0
	subl	$12, %esp
	pushl	%ebx
	call	cJSON_Delete
.LVL504:
	.loc 1 1822 0
	addl	$16, %esp
	xorl	%edx, %edx
.LVL505:
.L703:
	.loc 1 1827 0
	movl	%edx, %eax
	movl	-4(%ebp), %ebx
	leave
	.cfi_restore 5
	.cfi_restore 3
	.cfi_def_cfa 4, 4
	ret
	.cfi_endproc
.LFE66:
	.size	cJSON_CreateString, .-cJSON_CreateString
	.section	.text.unlikely.cJSON_CreateString
.LCOLDE64:
	.section	.text.cJSON_CreateString
.LHOTE64:
	.section	.text.unlikely.cJSON_CreateRaw,"ax",@progbits
.LCOLDB65:
	.section	.text.cJSON_CreateRaw,"ax",@progbits
.LHOTB65:
	.globl	cJSON_CreateRaw
	.type	cJSON_CreateRaw, @function
cJSON_CreateRaw:
.LFB67:
	.loc 1 1830 0
	.cfi_startproc
.LVL506:
	pushl	%ebp
	.cfi_def_cfa_offset 8
	.cfi_offset 5, -8
	movl	%esp, %ebp
	.cfi_def_cfa_register 5
	pushl	%ebx
	pushl	%eax
	.cfi_offset 3, -12
	.loc 1 1831 0
	movl	global_hooks, %eax
	call	cJSON_New_Item.isra.0
.LVL507:
	xorl	%edx, %edx
	.loc 1 1832 0
	testl	%eax, %eax
	je	.L708
	movl	%eax, %ebx
	.loc 1 1833 0
	movl	$128, 12(%eax)
	.loc 1 1834 0
	movl	8(%ebp), %eax
.LVL508:
	call	cJSON_strdup.isra.1.constprop.11
.LVL509:
	.loc 1 1835 0
	testl	%eax, %eax
	.loc 1 1834 0
	movl	%eax, 16(%ebx)
	movl	%ebx, %edx
	.loc 1 1835 0
	jne	.L708
	.loc 1 1836 0
	subl	$12, %esp
	pushl	%ebx
	call	cJSON_Delete
.LVL510:
	.loc 1 1837 0
	addl	$16, %esp
	xorl	%edx, %edx
.LVL511:
.L708:
	.loc 1 1842 0
	movl	%edx, %eax
	movl	-4(%ebp), %ebx
	leave
	.cfi_restore 5
	.cfi_restore 3
	.cfi_def_cfa 4, 4
	ret
	.cfi_endproc
.LFE67:
	.size	cJSON_CreateRaw, .-cJSON_CreateRaw
	.section	.text.unlikely.cJSON_CreateRaw
.LCOLDE65:
	.section	.text.cJSON_CreateRaw
.LHOTE65:
	.section	.text.unlikely.cJSON_CreateArray,"ax",@progbits
.LCOLDB66:
	.section	.text.cJSON_CreateArray,"ax",@progbits
.LHOTB66:
	.globl	cJSON_CreateArray
	.type	cJSON_CreateArray, @function
cJSON_CreateArray:
.LFB68:
	.loc 1 1845 0
	.cfi_startproc
	pushl	%ebp
	.cfi_def_cfa_offset 8
	.cfi_offset 5, -8
	movl	%esp, %ebp
	.cfi_def_cfa_register 5
	subl	$8, %esp
	.loc 1 1846 0
	movl	global_hooks, %eax
	call	cJSON_New_Item.isra.0
.LVL512:
	.loc 1 1847 0
	testl	%eax, %eax
	je	.L713
	.loc 1 1848 0
	movl	$32, 12(%eax)
.L713:
	.loc 1 1851 0
	leave
	.cfi_restore 5
	.cfi_def_cfa 4, 4
	ret
	.cfi_endproc
.LFE68:
	.size	cJSON_CreateArray, .-cJSON_CreateArray
	.section	.text.unlikely.cJSON_CreateArray
.LCOLDE66:
	.section	.text.cJSON_CreateArray
.LHOTE66:
	.section	.text.unlikely.cJSON_CreateObject,"ax",@progbits
.LCOLDB67:
	.section	.text.cJSON_CreateObject,"ax",@progbits
.LHOTB67:
	.globl	cJSON_CreateObject
	.type	cJSON_CreateObject, @function
cJSON_CreateObject:
.LFB69:
	.loc 1 1854 0
	.cfi_startproc
	pushl	%ebp
	.cfi_def_cfa_offset 8
	.cfi_offset 5, -8
	movl	%esp, %ebp
	.cfi_def_cfa_register 5
	subl	$8, %esp
	.loc 1 1855 0
	movl	global_hooks, %eax
	call	cJSON_New_Item.isra.0
.LVL513:
	.loc 1 1856 0
	testl	%eax, %eax
	je	.L719
	.loc 1 1857 0
	movl	$64, 12(%eax)
.L719:
	.loc 1 1860 0
	leave
	.cfi_restore 5
	.cfi_def_cfa 4, 4
	ret
	.cfi_endproc
.LFE69:
	.size	cJSON_CreateObject, .-cJSON_CreateObject
	.section	.text.unlikely.cJSON_CreateObject
.LCOLDE67:
	.section	.text.cJSON_CreateObject
.LHOTE67:
	.section	.text.unlikely.cJSON_CreateIntArray,"ax",@progbits
.LCOLDB68:
	.section	.text.cJSON_CreateIntArray,"ax",@progbits
.LHOTB68:
	.globl	cJSON_CreateIntArray
	.type	cJSON_CreateIntArray, @function
cJSON_CreateIntArray:
.LFB70:
	.loc 1 1864 0
	.cfi_startproc
.LVL514:
	pushl	%ebp
	.cfi_def_cfa_offset 8
	.cfi_offset 5, -8
	movl	%esp, %ebp
	.cfi_def_cfa_register 5
	pushl	%edi
	pushl	%esi
	pushl	%ebx
	subl	$12, %esp
	.cfi_offset 7, -12
	.cfi_offset 6, -16
	.cfi_offset 3, -20
	.loc 1 1870 0
	movl	12(%ebp), %eax
	shrl	$31, %eax
	jne	.L732
	cmpl	$0, 8(%ebp)
	je	.L732
	.loc 1 1873 0
	call	cJSON_CreateArray
.LVL515:
	.loc 1 1867 0
	xorl	%edi, %edi
	.loc 1 1873 0
	movl	%eax, %ebx
.LVL516:
	.loc 1 1874 0
	xorl	%esi, %esi
.LVL517:
.L726:
	.loc 1 1874 0 is_stmt 0 discriminator 1
	testl	%ebx, %ebx
	je	.L733
	cmpl	12(%ebp), %esi
	jnb	.L733
	.loc 1 1875 0 is_stmt 1
	movl	8(%ebp), %eax
	subl	$16, %esp
	fildl	(%eax,%esi,4)
	fstpl	(%esp)
	call	cJSON_CreateNumber
.LVL518:
	.loc 1 1876 0
	addl	$16, %esp
	testl	%eax, %eax
	jne	.L727
	.loc 1 1877 0
	subl	$12, %esp
	pushl	%ebx
	call	cJSON_Delete
.LVL519:
	.loc 1 1878 0
	addl	$16, %esp
	jmp	.L732
.LVL520:
.L727:
	.loc 1 1880 0
	testl	%esi, %esi
	jne	.L728
	.loc 1 1881 0
	movl	%eax, 8(%ebx)
	jmp	.L729
.L728:
.LVL521:
.LBB124:
.LBB125:
	.loc 1 1522 0
	movl	%eax, (%edi)
	.loc 1 1523 0
	movl	%edi, 4(%eax)
.LVL522:
.L729:
.LBE125:
.LBE124:
	.loc 1 1874 0 discriminator 2
	incl	%esi
.LVL523:
	movl	%eax, %edi
	jmp	.L726
.LVL524:
.L733:
	.loc 1 1873 0
	movl	%ebx, %eax
	jmp	.L725
.LVL525:
.L732:
	.loc 1 1871 0
	xorl	%eax, %eax
.L725:
	.loc 1 1888 0
	leal	-12(%ebp), %esp
	popl	%ebx
	.cfi_restore 3
	popl	%esi
	.cfi_restore 6
	popl	%edi
	.cfi_restore 7
	popl	%ebp
	.cfi_restore 5
	.cfi_def_cfa 4, 4
	ret
	.cfi_endproc
.LFE70:
	.size	cJSON_CreateIntArray, .-cJSON_CreateIntArray
	.section	.text.unlikely.cJSON_CreateIntArray
.LCOLDE68:
	.section	.text.cJSON_CreateIntArray
.LHOTE68:
	.section	.text.unlikely.cJSON_CreateFloatArray,"ax",@progbits
.LCOLDB69:
	.section	.text.cJSON_CreateFloatArray,"ax",@progbits
.LHOTB69:
	.globl	cJSON_CreateFloatArray
	.type	cJSON_CreateFloatArray, @function
cJSON_CreateFloatArray:
.LFB71:
	.loc 1 1891 0
	.cfi_startproc
.LVL526:
	pushl	%ebp
	.cfi_def_cfa_offset 8
	.cfi_offset 5, -8
	movl	%esp, %ebp
	.cfi_def_cfa_register 5
	pushl	%edi
	pushl	%esi
	pushl	%ebx
	subl	$12, %esp
	.cfi_offset 7, -12
	.cfi_offset 6, -16
	.cfi_offset 3, -20
	.loc 1 1897 0
	movl	12(%ebp), %eax
	shrl	$31, %eax
	jne	.L746
	cmpl	$0, 8(%ebp)
	je	.L746
	.loc 1 1900 0
	call	cJSON_CreateArray
.LVL527:
	.loc 1 1894 0
	xorl	%edi, %edi
	.loc 1 1900 0
	movl	%eax, %ebx
.LVL528:
	.loc 1 1902 0
	xorl	%esi, %esi
.LVL529:
.L740:
	.loc 1 1902 0 is_stmt 0 discriminator 1
	testl	%ebx, %ebx
	je	.L747
	cmpl	12(%ebp), %esi
	jnb	.L747
	.loc 1 1903 0 is_stmt 1
	movl	8(%ebp), %eax
	subl	$16, %esp
	flds	(%eax,%esi,4)
	fstpl	(%esp)
	call	cJSON_CreateNumber
.LVL530:
	.loc 1 1904 0
	addl	$16, %esp
	testl	%eax, %eax
	jne	.L741
	.loc 1 1905 0
	subl	$12, %esp
	pushl	%ebx
	call	cJSON_Delete
.LVL531:
	.loc 1 1906 0
	addl	$16, %esp
	jmp	.L746
.LVL532:
.L741:
	.loc 1 1908 0
	testl	%esi, %esi
	jne	.L742
	.loc 1 1909 0
	movl	%eax, 8(%ebx)
	jmp	.L743
.L742:
.LVL533:
.LBB126:
.LBB127:
	.loc 1 1522 0
	movl	%eax, (%edi)
	.loc 1 1523 0
	movl	%edi, 4(%eax)
.LVL534:
.L743:
.LBE127:
.LBE126:
	.loc 1 1902 0 discriminator 2
	incl	%esi
.LVL535:
	movl	%eax, %edi
	jmp	.L740
.LVL536:
.L747:
	.loc 1 1900 0
	movl	%ebx, %eax
	jmp	.L739
.LVL537:
.L746:
	.loc 1 1898 0
	xorl	%eax, %eax
.L739:
	.loc 1 1916 0
	leal	-12(%ebp), %esp
	popl	%ebx
	.cfi_restore 3
	popl	%esi
	.cfi_restore 6
	popl	%edi
	.cfi_restore 7
	popl	%ebp
	.cfi_restore 5
	.cfi_def_cfa 4, 4
	ret
	.cfi_endproc
.LFE71:
	.size	cJSON_CreateFloatArray, .-cJSON_CreateFloatArray
	.section	.text.unlikely.cJSON_CreateFloatArray
.LCOLDE69:
	.section	.text.cJSON_CreateFloatArray
.LHOTE69:
	.section	.text.unlikely.cJSON_CreateDoubleArray,"ax",@progbits
.LCOLDB70:
	.section	.text.cJSON_CreateDoubleArray,"ax",@progbits
.LHOTB70:
	.globl	cJSON_CreateDoubleArray
	.type	cJSON_CreateDoubleArray, @function
cJSON_CreateDoubleArray:
.LFB72:
	.loc 1 1919 0
	.cfi_startproc
.LVL538:
	pushl	%ebp
	.cfi_def_cfa_offset 8
	.cfi_offset 5, -8
	movl	%esp, %ebp
	.cfi_def_cfa_register 5
	pushl	%edi
	pushl	%esi
	pushl	%ebx
	subl	$12, %esp
	.cfi_offset 7, -12
	.cfi_offset 6, -16
	.cfi_offset 3, -20
	.loc 1 1925 0
	movl	12(%ebp), %eax
	shrl	$31, %eax
	jne	.L760
	cmpl	$0, 8(%ebp)
	je	.L760
	.loc 1 1928 0
	call	cJSON_CreateArray
.LVL539:
	.loc 1 1922 0
	xorl	%edi, %edi
	.loc 1 1928 0
	movl	%eax, %ebx
.LVL540:
	.loc 1 1930 0
	xorl	%esi, %esi
.LVL541:
.L754:
	.loc 1 1930 0 is_stmt 0 discriminator 1
	testl	%ebx, %ebx
	je	.L761
	cmpl	12(%ebp), %esi
	jnb	.L761
	.loc 1 1931 0 is_stmt 1
	pushl	%eax
	pushl	%eax
	movl	8(%ebp), %eax
	pushl	4(%eax,%esi,8)
	pushl	(%eax,%esi,8)
	call	cJSON_CreateNumber
.LVL542:
	.loc 1 1932 0
	addl	$16, %esp
	testl	%eax, %eax
	jne	.L755
	.loc 1 1933 0
	subl	$12, %esp
	pushl	%ebx
	call	cJSON_Delete
.LVL543:
	.loc 1 1934 0
	addl	$16, %esp
	jmp	.L760
.LVL544:
.L755:
	.loc 1 1936 0
	testl	%esi, %esi
	jne	.L756
	.loc 1 1937 0
	movl	%eax, 8(%ebx)
	jmp	.L757
.L756:
.LVL545:
.LBB128:
.LBB129:
	.loc 1 1522 0
	movl	%eax, (%edi)
	.loc 1 1523 0
	movl	%edi, 4(%eax)
.LVL546:
.L757:
.LBE129:
.LBE128:
	.loc 1 1930 0 discriminator 2
	incl	%esi
.LVL547:
	movl	%eax, %edi
	jmp	.L754
.LVL548:
.L761:
	.loc 1 1928 0
	movl	%ebx, %eax
	jmp	.L753
.LVL549:
.L760:
	.loc 1 1926 0
	xorl	%eax, %eax
.L753:
	.loc 1 1944 0
	leal	-12(%ebp), %esp
	popl	%ebx
	.cfi_restore 3
	popl	%esi
	.cfi_restore 6
	popl	%edi
	.cfi_restore 7
	popl	%ebp
	.cfi_restore 5
	.cfi_def_cfa 4, 4
	ret
	.cfi_endproc
.LFE72:
	.size	cJSON_CreateDoubleArray, .-cJSON_CreateDoubleArray
	.section	.text.unlikely.cJSON_CreateDoubleArray
.LCOLDE70:
	.section	.text.cJSON_CreateDoubleArray
.LHOTE70:
	.section	.text.unlikely.cJSON_CreateStringArray,"ax",@progbits
.LCOLDB71:
	.section	.text.cJSON_CreateStringArray,"ax",@progbits
.LHOTB71:
	.globl	cJSON_CreateStringArray
	.type	cJSON_CreateStringArray, @function
cJSON_CreateStringArray:
.LFB73:
	.loc 1 1947 0
	.cfi_startproc
.LVL550:
	pushl	%ebp
	.cfi_def_cfa_offset 8
	.cfi_offset 5, -8
	movl	%esp, %ebp
	.cfi_def_cfa_register 5
	pushl	%edi
	pushl	%esi
	pushl	%ebx
	subl	$12, %esp
	.cfi_offset 7, -12
	.cfi_offset 6, -16
	.cfi_offset 3, -20
	.loc 1 1953 0
	movl	12(%ebp), %eax
	shrl	$31, %eax
	jne	.L774
	cmpl	$0, 8(%ebp)
	je	.L774
	.loc 1 1956 0
	call	cJSON_CreateArray
.LVL551:
	.loc 1 1950 0
	xorl	%edi, %edi
	.loc 1 1956 0
	movl	%eax, %ebx
.LVL552:
	.loc 1 1958 0
	xorl	%esi, %esi
.LVL553:
.L768:
	.loc 1 1958 0 is_stmt 0 discriminator 1
	testl	%ebx, %ebx
	je	.L775
	cmpl	12(%ebp), %esi
	jnb	.L775
	.loc 1 1959 0 is_stmt 1
	movl	8(%ebp), %eax
	subl	$12, %esp
	pushl	(%eax,%esi,4)
	call	cJSON_CreateString
.LVL554:
	.loc 1 1960 0
	addl	$16, %esp
	testl	%eax, %eax
	jne	.L769
	.loc 1 1961 0
	subl	$12, %esp
	pushl	%ebx
	call	cJSON_Delete
.LVL555:
	.loc 1 1962 0
	addl	$16, %esp
	jmp	.L774
.LVL556:
.L769:
	.loc 1 1964 0
	testl	%esi, %esi
	jne	.L770
	.loc 1 1965 0
	movl	%eax, 8(%ebx)
	jmp	.L771
.L770:
.LVL557:
.LBB130:
.LBB131:
	.loc 1 1522 0
	movl	%eax, (%edi)
	.loc 1 1523 0
	movl	%edi, 4(%eax)
.LVL558:
.L771:
.LBE131:
.LBE130:
	.loc 1 1958 0 discriminator 2
	incl	%esi
.LVL559:
	movl	%eax, %edi
	jmp	.L768
.LVL560:
.L775:
	.loc 1 1956 0
	movl	%ebx, %eax
	jmp	.L767
.LVL561:
.L774:
	.loc 1 1954 0
	xorl	%eax, %eax
.L767:
	.loc 1 1972 0
	leal	-12(%ebp), %esp
	popl	%ebx
	.cfi_restore 3
	popl	%esi
	.cfi_restore 6
	popl	%edi
	.cfi_restore 7
	popl	%ebp
	.cfi_restore 5
	.cfi_def_cfa 4, 4
	ret
	.cfi_endproc
.LFE73:
	.size	cJSON_CreateStringArray, .-cJSON_CreateStringArray
	.section	.text.unlikely.cJSON_CreateStringArray
.LCOLDE71:
	.section	.text.cJSON_CreateStringArray
.LHOTE71:
	.section	.text.unlikely.cJSON_Duplicate,"ax",@progbits
.LCOLDB72:
	.section	.text.cJSON_Duplicate,"ax",@progbits
.LHOTB72:
	.globl	cJSON_Duplicate
	.type	cJSON_Duplicate, @function
cJSON_Duplicate:
.LFB74:
	.loc 1 1976 0
	.cfi_startproc
.LVL562:
	pushl	%ebp
	.cfi_def_cfa_offset 8
	.cfi_offset 5, -8
	movl	%esp, %ebp
	.cfi_def_cfa_register 5
	pushl	%edi
	pushl	%esi
	pushl	%ebx
	subl	$12, %esp
	.cfi_offset 7, -12
	.cfi_offset 6, -16
	.cfi_offset 3, -20
	.loc 1 1976 0
	movl	8(%ebp), %esi
	.loc 1 1983 0
	testl	%esi, %esi
	je	.L815
	.loc 1 1986 0
	movl	global_hooks, %eax
	call	cJSON_New_Item.isra.0
.LVL563:
	.loc 1 1987 0
	testl	%eax, %eax
	.loc 1 1986 0
	movl	%eax, %ebx
.LVL564:
	.loc 1 1987 0
	je	.L815
	.loc 1 1990 0
	movl	12(%esi), %eax
.LVL565:
	.loc 1 1992 0
	fldl	28(%esi)
	.loc 1 1990 0
	andb	$254, %ah
	movl	%eax, 12(%ebx)
	.loc 1 1991 0
	movl	20(%esi), %eax
	.loc 1 1992 0
	fstpl	28(%ebx)
	.loc 1 1991 0
	movl	%eax, 20(%ebx)
	.loc 1 1993 0
	movl	16(%esi), %eax
	testl	%eax, %eax
	jne	.L782
.L786:
	.loc 1 1998 0
	movl	24(%esi), %eax
	testl	%eax, %eax
	jne	.L783
	jmp	.L784
.L782:
	.loc 1 1994 0
	call	cJSON_strdup.isra.1.constprop.11
.LVL566:
	.loc 1 1995 0
	testl	%eax, %eax
	.loc 1 1994 0
	movl	%eax, 16(%ebx)
	.loc 1 1995 0
	jne	.L786
	jmp	.L785
.L783:
	.loc 1 1999 0
	testb	$2, 13(%esi)
	jne	.L789
	.loc 1 1999 0 is_stmt 0 discriminator 2
	call	cJSON_strdup.isra.1.constprop.11
.LVL567:
.L789:
	.loc 1 2000 0 is_stmt 1 discriminator 4
	testl	%eax, %eax
	.loc 1 1999 0 discriminator 4
	movl	%eax, 24(%ebx)
	.loc 1 2000 0 discriminator 4
	je	.L785
.L784:
	.loc 1 2004 0
	cmpl	$0, 12(%ebp)
	movl	%ebx, %eax
	je	.L806
.LVL568:
	.loc 1 2007 0
	movl	8(%esi), %esi
.LVL569:
	.loc 1 1979 0
	xorl	%edi, %edi
	.loc 1 2008 0
	jmp	.L790
.LVL570:
.L793:
	.loc 1 2009 0
	pushl	%eax
	pushl	%eax
	pushl	$1
	pushl	%esi
	call	cJSON_Duplicate
.LVL571:
	.loc 1 2010 0
	addl	$16, %esp
	testl	%eax, %eax
	je	.L785
	.loc 1 2012 0
	testl	%edi, %edi
	je	.L791
	.loc 1 2014 0
	movl	%eax, (%edi)
	.loc 1 2015 0
	movl	%edi, 4(%eax)
.LVL572:
.L792:
	.loc 1 2022 0
	movl	(%esi), %esi
.LVL573:
	movl	%eax, %edi
.LVL574:
.L790:
	.loc 1 2008 0
	testl	%esi, %esi
	jne	.L793
	jmp	.L816
.LVL575:
.L791:
	.loc 1 2019 0
	movl	%eax, 8(%ebx)
.LVL576:
	jmp	.L792
.LVL577:
.L816:
	movl	%ebx, %eax
	jmp	.L806
.LVL578:
.L785:
	.loc 1 2029 0
	subl	$12, %esp
	pushl	%ebx
	call	cJSON_Delete
.LVL579:
	addl	$16, %esp
.LVL580:
.L815:
	.loc 1 2031 0
	xorl	%eax, %eax
.L806:
	.loc 1 2032 0
	leal	-12(%ebp), %esp
	popl	%ebx
	.cfi_restore 3
	popl	%esi
	.cfi_restore 6
	popl	%edi
	.cfi_restore 7
	popl	%ebp
	.cfi_restore 5
	.cfi_def_cfa 4, 4
	ret
	.cfi_endproc
.LFE74:
	.size	cJSON_Duplicate, .-cJSON_Duplicate
	.section	.text.unlikely.cJSON_Duplicate
.LCOLDE72:
	.section	.text.cJSON_Duplicate
.LHOTE72:
	.section	.text.unlikely.cJSON_Minify,"ax",@progbits
.LCOLDB73:
	.section	.text.cJSON_Minify,"ax",@progbits
.LHOTB73:
	.globl	cJSON_Minify
	.type	cJSON_Minify, @function
cJSON_Minify:
.LFB75:
	.loc 1 2035 0
	.cfi_startproc
.LVL581:
	pushl	%ebp
	.cfi_def_cfa_offset 8
	.cfi_offset 5, -8
	movl	%esp, %ebp
	.cfi_def_cfa_register 5
	pushl	%esi
	pushl	%ebx
	.cfi_offset 6, -12
	.cfi_offset 3, -16
	.loc 1 2035 0
	movl	8(%ebp), %ebx
.LVL582:
	.loc 1 2038 0
	testl	%ebx, %ebx
	movl	%ebx, %eax
	je	.L817
.LVL583:
.L819:
	.loc 1 2041 0
	movb	(%eax), %dl
	testb	%dl, %dl
	je	.L854
	.loc 1 2042 0
	cmpb	$32, %dl
	je	.L853
	.loc 1 2044 0
	cmpb	$9, %dl
	je	.L853
	.loc 1 2047 0
	cmpb	$13, %dl
	je	.L853
	.loc 1 2049 0
	cmpb	$10, %dl
	jne	.L824
.L853:
	.loc 1 2050 0
	incl	%eax
.LVL584:
	jmp	.L819
.L824:
	.loc 1 2051 0
	cmpb	$47, %dl
	jne	.L825
	.loc 1 2051 0 is_stmt 0 discriminator 1
	movb	1(%eax), %cl
	cmpb	$47, %cl
	jne	.L826
.L827:
	.loc 1 2053 0 is_stmt 1
	movb	(%eax), %dl
	testb	%dl, %dl
	je	.L819
	cmpb	$10, %dl
	je	.L819
	.loc 1 2054 0
	incl	%eax
.LVL585:
	jmp	.L827
.L826:
	.loc 1 2055 0 discriminator 1
	cmpb	$42, %cl
	jne	.L830
.L831:
	.loc 1 2057 0
	movb	(%eax), %dl
	testb	%dl, %dl
	jne	.L832
.L834:
	.loc 1 2059 0
	addl	$2, %eax
.LVL586:
	jmp	.L819
.L832:
	.loc 1 2057 0 discriminator 1
	cmpb	$42, %dl
	je	.L855
.L833:
	.loc 1 2058 0
	incl	%eax
.LVL587:
	jmp	.L831
.L855:
	.loc 1 2057 0 discriminator 2
	cmpb	$47, 1(%eax)
	jne	.L833
	jmp	.L834
.L825:
	.loc 1 2060 0
	cmpb	$34, %dl
	jne	.L830
	.loc 1 2062 0
	leal	1(%ebx), %esi
.LVL588:
	leal	1(%eax), %edx
.LVL589:
	movb	$34, (%ebx)
.L835:
	.loc 1 2063 0
	movb	(%edx), %cl
	leal	1(%esi), %ebx
	leal	1(%edx), %eax
	testb	%cl, %cl
	je	.L840
	cmpb	$34, %cl
	je	.L840
	.loc 1 2064 0
	cmpb	$92, %cl
	jne	.L836
.LVL590:
	.loc 1 2065 0
	movb	$92, (%esi)
	movl	%eax, %edx
.LVL591:
	movl	%ebx, %esi
.LVL592:
.L836:
	.loc 1 2066 0
	movb	(%edx), %al
	incl	%esi
.LVL593:
	incl	%edx
.LVL594:
	movb	%al, -1(%esi)
	jmp	.L835
.L840:
.LVL595:
	.loc 1 2068 0
	movb	%cl, (%esi)
	jmp	.L819
.L830:
.LVL596:
	.loc 1 2071 0
	movb	%dl, (%ebx)
	incl	%eax
.LVL597:
	incl	%ebx
.LVL598:
	jmp	.L819
.L854:
	.loc 1 2076 0
	movb	$0, (%ebx)
.L817:
	.loc 1 2077 0
	popl	%ebx
	.cfi_restore 3
.LVL599:
	popl	%esi
	.cfi_restore 6
	popl	%ebp
	.cfi_restore 5
	.cfi_def_cfa 4, 4
	ret
	.cfi_endproc
.LFE75:
	.size	cJSON_Minify, .-cJSON_Minify
	.section	.text.unlikely.cJSON_Minify
.LCOLDE73:
	.section	.text.cJSON_Minify
.LHOTE73:
	.section	.text.unlikely.cJSON_IsInvalid,"ax",@progbits
.LCOLDB74:
	.section	.text.cJSON_IsInvalid,"ax",@progbits
.LHOTB74:
	.globl	cJSON_IsInvalid
	.type	cJSON_IsInvalid, @function
cJSON_IsInvalid:
.LFB76:
	.loc 1 2080 0
	.cfi_startproc
.LVL600:
	pushl	%ebp
	.cfi_def_cfa_offset 8
	.cfi_offset 5, -8
	xorl	%eax, %eax
	movl	%esp, %ebp
	.cfi_def_cfa_register 5
	.loc 1 2080 0
	movl	8(%ebp), %edx
	.loc 1 2081 0
	testl	%edx, %edx
	je	.L857
	.loc 1 2084 0
	xorl	%eax, %eax
	cmpb	$0, 12(%edx)
	sete	%al
.L857:
	.loc 1 2085 0
	popl	%ebp
	.cfi_restore 5
	.cfi_def_cfa 4, 4
	ret
	.cfi_endproc
.LFE76:
	.size	cJSON_IsInvalid, .-cJSON_IsInvalid
	.section	.text.unlikely.cJSON_IsInvalid
.LCOLDE74:
	.section	.text.cJSON_IsInvalid
.LHOTE74:
	.section	.text.unlikely.cJSON_IsFalse,"ax",@progbits
.LCOLDB75:
	.section	.text.cJSON_IsFalse,"ax",@progbits
.LHOTB75:
	.globl	cJSON_IsFalse
	.type	cJSON_IsFalse, @function
cJSON_IsFalse:
.LFB77:
	.loc 1 2088 0
	.cfi_startproc
.LVL601:
	pushl	%ebp
	.cfi_def_cfa_offset 8
	.cfi_offset 5, -8
	xorl	%eax, %eax
	movl	%esp, %ebp
	.cfi_def_cfa_register 5
	.loc 1 2088 0
	movl	8(%ebp), %edx
	.loc 1 2089 0
	testl	%edx, %edx
	je	.L862
	.loc 1 2092 0
	xorl	%eax, %eax
	cmpb	$1, 12(%edx)
	sete	%al
.L862:
	.loc 1 2093 0
	popl	%ebp
	.cfi_restore 5
	.cfi_def_cfa 4, 4
	ret
	.cfi_endproc
.LFE77:
	.size	cJSON_IsFalse, .-cJSON_IsFalse
	.section	.text.unlikely.cJSON_IsFalse
.LCOLDE75:
	.section	.text.cJSON_IsFalse
.LHOTE75:
	.section	.text.unlikely.cJSON_IsTrue,"ax",@progbits
.LCOLDB76:
	.section	.text.cJSON_IsTrue,"ax",@progbits
.LHOTB76:
	.globl	cJSON_IsTrue
	.type	cJSON_IsTrue, @function
cJSON_IsTrue:
.LFB78:
	.loc 1 2096 0
	.cfi_startproc
.LVL602:
	pushl	%ebp
	.cfi_def_cfa_offset 8
	.cfi_offset 5, -8
	xorl	%eax, %eax
	movl	%esp, %ebp
	.cfi_def_cfa_register 5
	.loc 1 2096 0
	movl	8(%ebp), %edx
	.loc 1 2097 0
	testl	%edx, %edx
	je	.L867
	.loc 1 2100 0
	xorl	%eax, %eax
	cmpb	$2, 12(%edx)
	sete	%al
.L867:
	.loc 1 2101 0
	popl	%ebp
	.cfi_restore 5
	.cfi_def_cfa 4, 4
	ret
	.cfi_endproc
.LFE78:
	.size	cJSON_IsTrue, .-cJSON_IsTrue
	.section	.text.unlikely.cJSON_IsTrue
.LCOLDE76:
	.section	.text.cJSON_IsTrue
.LHOTE76:
	.section	.text.unlikely.cJSON_IsBool,"ax",@progbits
.LCOLDB77:
	.section	.text.cJSON_IsBool,"ax",@progbits
.LHOTB77:
	.globl	cJSON_IsBool
	.type	cJSON_IsBool, @function
cJSON_IsBool:
.LFB79:
	.loc 1 2105 0
	.cfi_startproc
.LVL603:
	pushl	%ebp
	.cfi_def_cfa_offset 8
	.cfi_offset 5, -8
	xorl	%eax, %eax
	movl	%esp, %ebp
	.cfi_def_cfa_register 5
	.loc 1 2105 0
	movl	8(%ebp), %edx
	.loc 1 2106 0
	testl	%edx, %edx
	je	.L872
	.loc 1 2109 0
	xorl	%eax, %eax
	testb	$3, 12(%edx)
	setne	%al
.L872:
	.loc 1 2110 0
	popl	%ebp
	.cfi_restore 5
	.cfi_def_cfa 4, 4
	ret
	.cfi_endproc
.LFE79:
	.size	cJSON_IsBool, .-cJSON_IsBool
	.section	.text.unlikely.cJSON_IsBool
.LCOLDE77:
	.section	.text.cJSON_IsBool
.LHOTE77:
	.section	.text.unlikely.cJSON_IsNull,"ax",@progbits
.LCOLDB78:
	.section	.text.cJSON_IsNull,"ax",@progbits
.LHOTB78:
	.globl	cJSON_IsNull
	.type	cJSON_IsNull, @function
cJSON_IsNull:
.LFB80:
	.loc 1 2112 0
	.cfi_startproc
.LVL604:
	pushl	%ebp
	.cfi_def_cfa_offset 8
	.cfi_offset 5, -8
	xorl	%eax, %eax
	movl	%esp, %ebp
	.cfi_def_cfa_register 5
	.loc 1 2112 0
	movl	8(%ebp), %edx
	.loc 1 2113 0
	testl	%edx, %edx
	je	.L877
	.loc 1 2116 0
	xorl	%eax, %eax
	cmpb	$4, 12(%edx)
	sete	%al
.L877:
	.loc 1 2117 0
	popl	%ebp
	.cfi_restore 5
	.cfi_def_cfa 4, 4
	ret
	.cfi_endproc
.LFE80:
	.size	cJSON_IsNull, .-cJSON_IsNull
	.section	.text.unlikely.cJSON_IsNull
.LCOLDE78:
	.section	.text.cJSON_IsNull
.LHOTE78:
	.section	.text.unlikely.cJSON_IsNumber,"ax",@progbits
.LCOLDB79:
	.section	.text.cJSON_IsNumber,"ax",@progbits
.LHOTB79:
	.globl	cJSON_IsNumber
	.type	cJSON_IsNumber, @function
cJSON_IsNumber:
.LFB81:
	.loc 1 2120 0
	.cfi_startproc
.LVL605:
	pushl	%ebp
	.cfi_def_cfa_offset 8
	.cfi_offset 5, -8
	xorl	%eax, %eax
	movl	%esp, %ebp
	.cfi_def_cfa_register 5
	.loc 1 2120 0
	movl	8(%ebp), %edx
	.loc 1 2121 0
	testl	%edx, %edx
	je	.L882
	.loc 1 2124 0
	xorl	%eax, %eax
	cmpb	$8, 12(%edx)
	sete	%al
.L882:
	.loc 1 2125 0
	popl	%ebp
	.cfi_restore 5
	.cfi_def_cfa 4, 4
	ret
	.cfi_endproc
.LFE81:
	.size	cJSON_IsNumber, .-cJSON_IsNumber
	.section	.text.unlikely.cJSON_IsNumber
.LCOLDE79:
	.section	.text.cJSON_IsNumber
.LHOTE79:
	.section	.text.unlikely.cJSON_IsString,"ax",@progbits
.LCOLDB80:
	.section	.text.cJSON_IsString,"ax",@progbits
.LHOTB80:
	.globl	cJSON_IsString
	.type	cJSON_IsString, @function
cJSON_IsString:
.LFB82:
	.loc 1 2128 0
	.cfi_startproc
.LVL606:
	pushl	%ebp
	.cfi_def_cfa_offset 8
	.cfi_offset 5, -8
	xorl	%eax, %eax
	movl	%esp, %ebp
	.cfi_def_cfa_register 5
	.loc 1 2128 0
	movl	8(%ebp), %edx
	.loc 1 2129 0
	testl	%edx, %edx
	je	.L887
	.loc 1 2132 0
	xorl	%eax, %eax
	cmpb	$16, 12(%edx)
	sete	%al
.L887:
	.loc 1 2133 0
	popl	%ebp
	.cfi_restore 5
	.cfi_def_cfa 4, 4
	ret
	.cfi_endproc
.LFE82:
	.size	cJSON_IsString, .-cJSON_IsString
	.section	.text.unlikely.cJSON_IsString
.LCOLDE80:
	.section	.text.cJSON_IsString
.LHOTE80:
	.section	.text.unlikely.cJSON_IsArray,"ax",@progbits
.LCOLDB81:
	.section	.text.cJSON_IsArray,"ax",@progbits
.LHOTB81:
	.globl	cJSON_IsArray
	.type	cJSON_IsArray, @function
cJSON_IsArray:
.LFB83:
	.loc 1 2136 0
	.cfi_startproc
.LVL607:
	pushl	%ebp
	.cfi_def_cfa_offset 8
	.cfi_offset 5, -8
	xorl	%eax, %eax
	movl	%esp, %ebp
	.cfi_def_cfa_register 5
	.loc 1 2136 0
	movl	8(%ebp), %edx
	.loc 1 2137 0
	testl	%edx, %edx
	je	.L892
	.loc 1 2140 0
	xorl	%eax, %eax
	cmpb	$32, 12(%edx)
	sete	%al
.L892:
	.loc 1 2141 0
	popl	%ebp
	.cfi_restore 5
	.cfi_def_cfa 4, 4
	ret
	.cfi_endproc
.LFE83:
	.size	cJSON_IsArray, .-cJSON_IsArray
	.section	.text.unlikely.cJSON_IsArray
.LCOLDE81:
	.section	.text.cJSON_IsArray
.LHOTE81:
	.section	.text.unlikely.cJSON_IsObject,"ax",@progbits
.LCOLDB82:
	.section	.text.cJSON_IsObject,"ax",@progbits
.LHOTB82:
	.globl	cJSON_IsObject
	.type	cJSON_IsObject, @function
cJSON_IsObject:
.LFB84:
	.loc 1 2144 0
	.cfi_startproc
.LVL608:
	pushl	%ebp
	.cfi_def_cfa_offset 8
	.cfi_offset 5, -8
	xorl	%eax, %eax
	movl	%esp, %ebp
	.cfi_def_cfa_register 5
	.loc 1 2144 0
	movl	8(%ebp), %edx
	.loc 1 2145 0
	testl	%edx, %edx
	je	.L897
	.loc 1 2148 0
	xorl	%eax, %eax
	cmpb	$64, 12(%edx)
	sete	%al
.L897:
	.loc 1 2149 0
	popl	%ebp
	.cfi_restore 5
	.cfi_def_cfa 4, 4
	ret
	.cfi_endproc
.LFE84:
	.size	cJSON_IsObject, .-cJSON_IsObject
	.section	.text.unlikely.cJSON_IsObject
.LCOLDE82:
	.section	.text.cJSON_IsObject
.LHOTE82:
	.section	.text.unlikely.cJSON_IsRaw,"ax",@progbits
.LCOLDB83:
	.section	.text.cJSON_IsRaw,"ax",@progbits
.LHOTB83:
	.globl	cJSON_IsRaw
	.type	cJSON_IsRaw, @function
cJSON_IsRaw:
.LFB85:
	.loc 1 2152 0
	.cfi_startproc
.LVL609:
	pushl	%ebp
	.cfi_def_cfa_offset 8
	.cfi_offset 5, -8
	xorl	%eax, %eax
	movl	%esp, %ebp
	.cfi_def_cfa_register 5
	.loc 1 2152 0
	movl	8(%ebp), %edx
	.loc 1 2153 0
	testl	%edx, %edx
	je	.L902
	.loc 1 2156 0
	xorl	%eax, %eax
	cmpb	$-128, 12(%edx)
	sete	%al
.L902:
	.loc 1 2157 0
	popl	%ebp
	.cfi_restore 5
	.cfi_def_cfa 4, 4
	ret
	.cfi_endproc
.LFE85:
	.size	cJSON_IsRaw, .-cJSON_IsRaw
	.section	.text.unlikely.cJSON_IsRaw
.LCOLDE83:
	.section	.text.cJSON_IsRaw
.LHOTE83:
	.section	.text.unlikely.cJSON_Compare,"ax",@progbits
.LCOLDB84:
	.section	.text.cJSON_Compare,"ax",@progbits
.LHOTB84:
	.globl	cJSON_Compare
	.type	cJSON_Compare, @function
cJSON_Compare:
.LFB86:
	.loc 1 2160 0
	.cfi_startproc
.LVL610:
	pushl	%ebp
	.cfi_def_cfa_offset 8
	.cfi_offset 5, -8
	movl	%esp, %ebp
	.cfi_def_cfa_register 5
	pushl	%edi
	pushl	%esi
	pushl	%ebx
	subl	$12, %esp
	.cfi_offset 7, -12
	.cfi_offset 6, -16
	.cfi_offset 3, -20
	.loc 1 2160 0
	movl	8(%ebp), %ebx
	movl	12(%ebp), %esi
	.loc 1 2161 0
	testl	%ebx, %ebx
	je	.L910
	testl	%esi, %esi
	jne	.L907
.L910:
	.loc 1 2162 0
	xorl	%eax, %eax
	jmp	.L909
.L907:
	.loc 1 2161 0 discriminator 1
	movl	12(%ebx), %ecx
	movl	12(%esi), %eax
	xorl	%ecx, %eax
	testb	%al, %al
	jne	.L910
	.loc 1 2161 0 is_stmt 0 discriminator 2
	pushl	%ebx
	call	cJSON_IsInvalid
.LVL611:
	testl	%eax, %eax
	popl	%edx
	jne	.L910
	.loc 1 2165 0 is_stmt 1
	movzbl	%cl, %edx
	cmpl	$8, %edx
	je	.L911
	jg	.L912
	cmpl	$1, %edx
	jl	.L909
	cmpl	$2, %edx
	jle	.L911
	cmpl	$4, %edx
	jmp	.L985
.L912:
	cmpl	$32, %edx
	je	.L911
	jg	.L913
	cmpl	$16, %edx
	jmp	.L985
.L913:
	cmpl	$64, %edx
	je	.L911
	cmpl	$128, %edx
.L985:
	jne	.L909
.L911:
	.loc 1 2181 0
	cmpl	%esi, %ebx
	je	.L930
	.loc 1 2184 0
	cmpl	$8, %edx
	je	.L916
	jg	.L917
	cmpl	$1, %edx
	jl	.L909
	cmpl	$2, %edx
	jle	.L930
	cmpl	$4, %edx
	je	.L930
	jmp	.L909
.L917:
	cmpl	$32, %edx
	je	.L918
	jg	.L919
	cmpl	$16, %edx
	jmp	.L987
.L919:
	cmpl	$64, %edx
	je	.L921
	addl	$-128, %edx
.L987:
	je	.L920
	jmp	.L909
.L916:
	.loc 1 2162 0
	fldl	28(%ebx)
	xorl	%eax, %eax
	movl	$0, %edx
	fldl	28(%esi)
	fucomip	%st(1), %st
	fstp	%st(0)
	setnp	%al
	cmovne	%edx, %eax
	jmp	.L909
.L920:
	.loc 1 2198 0
	movl	16(%ebx), %eax
	testl	%eax, %eax
	je	.L910
	.loc 1 2198 0 discriminator 1
	movl	16(%esi), %edx
	testl	%edx, %edx
	je	.L910
	.loc 1 2200 0
	pushl	%edi
	pushl	%edi
	pushl	%edx
	pushl	%eax
	call	strcmp
.LVL612:
	addl	$16, %esp
	.loc 1 2162 0
	testl	%eax, %eax
	jmp	.L988
.L918:
.LBB132:
	.loc 1 2206 0
	movl	8(%ebx), %edi
.LVL613:
	.loc 1 2207 0
	movl	8(%esi), %ebx
.LVL614:
.L922:
	.loc 1 2209 0
	testl	%edi, %edi
	je	.L931
	testl	%ebx, %ebx
	je	.L931
	.loc 1 2210 0
	pushl	%esi
	pushl	16(%ebp)
	pushl	%ebx
	pushl	%edi
	call	cJSON_Compare
.LVL615:
	addl	$16, %esp
	testl	%eax, %eax
	je	.L910
	.loc 1 2213 0
	movl	(%edi), %edi
.LVL616:
	.loc 1 2214 0
	movl	(%ebx), %ebx
.LVL617:
	jmp	.L922
.L931:
.LBE132:
	.loc 1 2162 0
	cmpl	%ebx, %edi
.LVL618:
.L988:
	sete	%al
	movzbl	%al, %eax
.LBB133:
	jmp	.L909
.L921:
.LVL619:
.LBE133:
.LBB134:
	.loc 1 2227 0 discriminator 1
	movl	8(%ebx), %edi
.LVL620:
.L925:
	.loc 1 2227 0 discriminator 5
	testl	%edi, %edi
	je	.L989
	.loc 1 2229 0
	movl	24(%edi), %edx
	movl	16(%ebp), %ecx
	movl	%esi, %eax
	call	get_object_item
.LVL621:
	.loc 1 2230 0
	testl	%eax, %eax
	je	.L910
	.loc 1 2233 0
	pushl	%ecx
	pushl	16(%ebp)
	pushl	%eax
	pushl	%edi
	call	cJSON_Compare
.LVL622:
	addl	$16, %esp
	testl	%eax, %eax
	je	.L910
	.loc 1 2227 0 discriminator 6
	movl	(%edi), %edi
.LVL623:
	jmp	.L925
.L989:
.LVL624:
	.loc 1 2239 0 discriminator 1
	movl	8(%esi), %esi
.LVL625:
.L927:
	.loc 1 2239 0 discriminator 5
	testl	%esi, %esi
	je	.L930
	.loc 1 2240 0
	movl	24(%esi), %edx
	movl	16(%ebp), %ecx
	movl	%ebx, %eax
	call	get_object_item
.LVL626:
	.loc 1 2241 0
	testl	%eax, %eax
	je	.L910
	.loc 1 2244 0
	pushl	%edx
	pushl	16(%ebp)
	pushl	%eax
	pushl	%esi
	call	cJSON_Compare
.LVL627:
	addl	$16, %esp
	testl	%eax, %eax
	je	.L910
	.loc 1 2239 0 discriminator 6
	movl	(%esi), %esi
.LVL628:
	jmp	.L927
.LVL629:
.L930:
.LBE134:
	.loc 1 2189 0
	movl	$1, %eax
.L909:
	.loc 1 2254 0
	leal	-12(%ebp), %esp
	popl	%ebx
	.cfi_restore 3
	popl	%esi
	.cfi_restore 6
	popl	%edi
	.cfi_restore 7
	popl	%ebp
	.cfi_restore 5
	.cfi_def_cfa 4, 4
	ret
	.cfi_endproc
.LFE86:
	.size	cJSON_Compare, .-cJSON_Compare
	.section	.text.unlikely.cJSON_Compare
.LCOLDE84:
	.section	.text.cJSON_Compare
.LHOTE84:
	.section	.text.unlikely.cJSON_malloc,"ax",@progbits
.LCOLDB85:
	.section	.text.cJSON_malloc,"ax",@progbits
.LHOTB85:
	.globl	cJSON_malloc
	.type	cJSON_malloc, @function
cJSON_malloc:
.LFB87:
	.loc 1 2257 0
	.cfi_startproc
.LVL630:
	pushl	%ebp
	.cfi_def_cfa_offset 8
	.cfi_offset 5, -8
	movl	%esp, %ebp
	.cfi_def_cfa_register 5
	.loc 1 2259 0
	popl	%ebp
	.cfi_restore 5
	.cfi_def_cfa 4, 4
	.loc 1 2258 0
	jmp	*global_hooks
.LVL631:
	.cfi_endproc
.LFE87:
	.size	cJSON_malloc, .-cJSON_malloc
	.section	.text.unlikely.cJSON_malloc
.LCOLDE85:
	.section	.text.cJSON_malloc
.LHOTE85:
	.section	.text.unlikely.cJSON_free,"ax",@progbits
.LCOLDB86:
	.section	.text.cJSON_free,"ax",@progbits
.LHOTB86:
	.globl	cJSON_free
	.type	cJSON_free, @function
cJSON_free:
.LFB88:
	.loc 1 2262 0
	.cfi_startproc
.LVL632:
	pushl	%ebp
	.cfi_def_cfa_offset 8
	.cfi_offset 5, -8
	movl	%esp, %ebp
	.cfi_def_cfa_register 5
	.loc 1 2264 0
	popl	%ebp
	.cfi_restore 5
	.cfi_def_cfa 4, 4
	.loc 1 2263 0
	jmp	*global_hooks+4
.LVL633:
	.cfi_endproc
.LFE88:
	.size	cJSON_free, .-cJSON_free
	.section	.text.unlikely.cJSON_free
.LCOLDE86:
	.section	.text.cJSON_free
.LHOTE86:
	.section	.text.unlikely.replace_item_in_object.part.9,"ax",@progbits
.LCOLDB87:
	.section	.text.replace_item_in_object.part.9,"ax",@progbits
.LHOTB87:
	.type	replace_item_in_object.part.9, @function
replace_item_in_object.part.9:
.LFB98:
	.loc 1 1732 0
	.cfi_startproc
.LVL634:
	pushl	%ebp
	.cfi_def_cfa_offset 8
	.cfi_offset 5, -8
	movl	%esp, %ebp
	.cfi_def_cfa_register 5
	pushl	%edi
	pushl	%esi
	pushl	%ebx
	.cfi_offset 7, -12
	.cfi_offset 6, -16
	.cfi_offset 3, -20
	movl	%eax, %esi
	movl	%edx, %edi
	movl	%ecx, %ebx
	subl	$12, %esp
	.loc 1 1738 0
	testb	$2, 13(%ecx)
	jne	.L995
	movl	24(%ecx), %eax
.LVL635:
	testl	%eax, %eax
	je	.L995
	.loc 1 1739 0
	subl	$12, %esp
	pushl	%eax
	call	cJSON_free
.LVL636:
	addl	$16, %esp
.L995:
	.loc 1 1740 0
	movl	%edi, %eax
	call	cJSON_strdup.isra.1.constprop.11
.LVL637:
	.loc 1 1741 0
	andl	$-513, 12(%ebx)
	.loc 1 1743 0
	movl	8(%ebp), %ecx
	movl	%edi, %edx
	.loc 1 1740 0
	movl	%eax, 24(%ebx)
	.loc 1 1743 0
	movl	%esi, %eax
	call	get_object_item
.LVL638:
	pushl	%edx
	pushl	%ebx
	pushl	%eax
	pushl	%esi
	call	cJSON_ReplaceItemViaPointer
.LVL639:
	.loc 1 1746 0
	leal	-12(%ebp), %esp
	movl	$1, %eax
	popl	%ebx
	.cfi_restore 3
.LVL640:
	popl	%esi
	.cfi_restore 6
.LVL641:
	popl	%edi
	.cfi_restore 7
.LVL642:
	popl	%ebp
	.cfi_restore 5
	.cfi_def_cfa 4, 4
	ret
	.cfi_endproc
.LFE98:
	.size	replace_item_in_object.part.9, .-replace_item_in_object.part.9
	.section	.text.unlikely.replace_item_in_object.part.9
.LCOLDE87:
	.section	.text.replace_item_in_object.part.9
.LHOTE87:
	.section	.text.unlikely.cJSON_ReplaceItemInObject,"ax",@progbits
.LCOLDB88:
	.section	.text.cJSON_ReplaceItemInObject,"ax",@progbits
.LHOTB88:
	.globl	cJSON_ReplaceItemInObject
	.type	cJSON_ReplaceItemInObject, @function
cJSON_ReplaceItemInObject:
.LFB59:
	.loc 1 1749 0
	.cfi_startproc
.LVL643:
	pushl	%ebp
	.cfi_def_cfa_offset 8
	.cfi_offset 5, -8
	movl	%esp, %ebp
	.cfi_def_cfa_register 5
	.loc 1 1749 0
	movl	16(%ebp), %ecx
	movl	8(%ebp), %eax
.LVL644:
	movl	12(%ebp), %edx
.LVL645:
.LBB137:
.LBB138:
	.loc 1 1734 0
	testl	%ecx, %ecx
	je	.L1000
	testl	%edx, %edx
	je	.L1000
	movl	$0, 8(%ebp)
.LVL646:
.LBE138:
.LBE137:
	.loc 1 1751 0
	popl	%ebp
	.cfi_remember_state
	.cfi_restore 5
	.cfi_def_cfa 4, 4
.LBB140:
.LBB139:
	jmp	replace_item_in_object.part.9
.LVL647:
.L1000:
	.cfi_restore_state
.LBE139:
.LBE140:
	popl	%ebp
	.cfi_restore 5
	.cfi_def_cfa 4, 4
	ret
	.cfi_endproc
.LFE59:
	.size	cJSON_ReplaceItemInObject, .-cJSON_ReplaceItemInObject
	.section	.text.unlikely.cJSON_ReplaceItemInObject
.LCOLDE88:
	.section	.text.cJSON_ReplaceItemInObject
.LHOTE88:
	.section	.text.unlikely.cJSON_ReplaceItemInObjectCaseSensitive,"ax",@progbits
.LCOLDB89:
	.section	.text.cJSON_ReplaceItemInObjectCaseSensitive,"ax",@progbits
.LHOTB89:
	.globl	cJSON_ReplaceItemInObjectCaseSensitive
	.type	cJSON_ReplaceItemInObjectCaseSensitive, @function
cJSON_ReplaceItemInObjectCaseSensitive:
.LFB60:
	.loc 1 1754 0
	.cfi_startproc
.LVL648:
	pushl	%ebp
	.cfi_def_cfa_offset 8
	.cfi_offset 5, -8
	movl	%esp, %ebp
	.cfi_def_cfa_register 5
	.loc 1 1754 0
	movl	16(%ebp), %ecx
	movl	8(%ebp), %eax
.LVL649:
	movl	12(%ebp), %edx
.LVL650:
.LBB143:
.LBB144:
	.loc 1 1734 0
	testl	%ecx, %ecx
	je	.L1003
	testl	%edx, %edx
	je	.L1003
	movl	$1, 8(%ebp)
.LVL651:
.LBE144:
.LBE143:
	.loc 1 1756 0
	popl	%ebp
	.cfi_remember_state
	.cfi_restore 5
	.cfi_def_cfa 4, 4
.LBB146:
.LBB145:
	jmp	replace_item_in_object.part.9
.LVL652:
.L1003:
	.cfi_restore_state
.LBE145:
.LBE146:
	popl	%ebp
	.cfi_restore 5
	.cfi_def_cfa 4, 4
	ret
	.cfi_endproc
.LFE60:
	.size	cJSON_ReplaceItemInObjectCaseSensitive, .-cJSON_ReplaceItemInObjectCaseSensitive
	.section	.text.unlikely.cJSON_ReplaceItemInObjectCaseSensitive
.LCOLDE89:
	.section	.text.cJSON_ReplaceItemInObjectCaseSensitive
.LHOTE89:
	.section	.bss.version.3854,"aw",@nobits
	.align 4
	.type	version.3854, @object
	.size	version.3854, 15
version.3854:
	.zero	15
	.section	.data.global_hooks,"aw",@progbits
	.align 4
	.type	global_hooks, @object
	.size	global_hooks, 12
global_hooks:
	.long	aos_malloc
	.long	aos_free
	.long	aos_realloc
	.section	.bss.global_error,"aw",@nobits
	.align 4
	.type	global_error, @object
	.size	global_error, 8
global_error:
	.zero	8
	.section	.rodata.cst8,"aM",@progbits,8
	.align 8
.LC28:
	.long	4290772992
	.long	1105199103
	.section	.rodata.cst4,"aM",@progbits,4
	.align 4
.LC29:
	.long	3472883712
	.text
.Letext0:
	.section	.text.unlikely.parse_hex4
.Letext_cold0:
	.file 2 "./utility/cjson/include/cJSON.h"
	.file 3 "/home/stone/Documents/Ali_IOT/build/compiler/gcc-arm-none-eabi/Linux64/lib/gcc/arm-none-eabi/5.4.1/include/stddef.h"
	.file 4 "/home/stone/Documents/Ali_IOT/build/compiler/gcc-arm-none-eabi/Linux64/arm-none-eabi/include/string.h"
	.file 5 "/home/stone/Documents/Ali_IOT/build/compiler/gcc-arm-none-eabi/Linux64/arm-none-eabi/include/stdio.h"
	.file 6 "/home/stone/Documents/Ali_IOT/build/compiler/gcc-arm-none-eabi/Linux64/arm-none-eabi/include/ctype.h"
	.file 7 "/home/stone/Documents/Ali_IOT/build/compiler/gcc-arm-none-eabi/Linux64/arm-none-eabi/include/stdlib.h"
	.file 8 "<built-in>"
	.section	.note.GNU-stack,"",@progbits
