	.file	"class_interface.c"
	.text
.Ltext0:
	.section	.rodata.str1.1,"aMS",@progbits,1
.LC0:
	.string	"constructed"
.LC1:
	.string	"%s %s @%p\n"
	.section	.text.unlikely.new_object,"ax",@progbits
.LCOLDB2:
	.section	.text.new_object,"ax",@progbits
.LHOTB2:
	.section	.text.unlikely.new_object
.Ltext_cold0:
	.section	.text.new_object
	.globl	new_object
	.type	new_object, @function
new_object:
.LFB18:
	.file 1 "framework/protocol/linkkit/iotkit/iotkit-system/src/class_interface.c"
	.loc 1 25 0
	.cfi_startproc
.LVL0:
	pushl	%ebp
	.cfi_def_cfa_offset 8
	.cfi_offset 5, -8
	movl	%esp, %ebp
	.cfi_def_cfa_register 5
	pushl	%esi
	pushl	%ebx
	subl	$20, %esp
	.cfi_offset 6, -12
	.cfi_offset 3, -16
	.loc 1 25 0
	movl	8(%ebp), %esi
	movl	%gs:20, %eax
	movl	%eax, -12(%ebp)
	xorl	%eax, %eax
.LVL1:
	.loc 1 28 0
	pushl	(%esi)
	pushl	$28
	pushl	$__func__.3292
	call	LITE_malloc_internal
.LVL2:
	movl	%eax, %ebx
.LVL3:
	.loc 1 30 0
	addl	$16, %esp
	xorl	%eax, %eax
.LVL4:
	testl	%ebx, %ebx
	je	.L2
	.loc 1 32 0
	movl	%esi, (%ebx)
	.loc 1 34 0
	cmpl	$0, 8(%esi)
	je	.L3
.LBB2:
	.loc 1 37 0
	leal	12(%ebp), %eax
	movl	%eax, -16(%ebp)
	.loc 1 38 0
	pushl	%eax
	pushl	%eax
	leal	-16(%ebp), %eax
	pushl	%eax
	pushl	%ebx
	call	*8(%esi)
.LVL5:
	addl	$16, %esp
	movl	%eax, %ebx
.LVL6:
.L3:
.LBE2:
	.loc 1 42 0
	pushl	%ebx
	pushl	$.LC0
	pushl	4(%esi)
	pushl	$.LC1
	call	printf
.LVL7:
	.loc 1 44 0
	addl	$16, %esp
	movl	%ebx, %eax
.L2:
	.loc 1 45 0
	movl	-12(%ebp), %edx
	xorl	%gs:20, %edx
	je	.L4
	call	__stack_chk_fail
.LVL8:
.L4:
	leal	-8(%ebp), %esp
	popl	%ebx
	.cfi_restore 3
.LVL9:
	popl	%esi
	.cfi_restore 6
.LVL10:
	popl	%ebp
	.cfi_restore 5
	.cfi_def_cfa 4, 4
	ret
	.cfi_endproc
.LFE18:
	.size	new_object, .-new_object
	.section	.text.unlikely.new_object
.LCOLDE2:
	.section	.text.new_object
.LHOTE2:
	.section	.rodata.str1.1
.LC3:
	.string	"destructed"
.LC4:
	.string	"_object"
.LC5:
	.string	"%s == NULL! LITE_free(%s) aborted."
	.section	.text.unlikely.delete_object,"ax",@progbits
.LCOLDB6:
	.section	.text.delete_object,"ax",@progbits
.LHOTB6:
	.globl	delete_object
	.type	delete_object, @function
delete_object:
.LFB19:
	.loc 1 48 0
	.cfi_startproc
.LVL11:
	pushl	%ebp
	.cfi_def_cfa_offset 8
	.cfi_offset 5, -8
	movl	%esp, %ebp
	.cfi_def_cfa_register 5
	pushl	%esi
	pushl	%ebx
	.cfi_offset 6, -12
	.cfi_offset 3, -16
	.loc 1 48 0
	movl	8(%ebp), %ebx
.LVL12:
	.loc 1 51 0
	testl	%ebx, %ebx
	je	.L9
	.loc 1 51 0 is_stmt 0 discriminator 1
	movl	(%ebx), %eax
	testl	%eax, %eax
	je	.L9
	.loc 1 51 0 discriminator 2
	movl	12(%eax), %eax
	testl	%eax, %eax
	je	.L9
	.loc 1 52 0 is_stmt 1
	subl	$12, %esp
	pushl	%ebx
	call	*%eax
.LVL13:
	.loc 1 54 0
	pushl	%eax
	.loc 1 52 0
	movl	%eax, %esi
.LVL14:
	.loc 1 54 0
	pushl	$.LC3
	movl	(%ebx), %eax
.LVL15:
	pushl	4(%eax)
	pushl	$.LC1
	call	printf
.LVL16:
	.loc 1 56 0
	addl	$32, %esp
	testl	%esi, %esi
	jne	.L11
	.loc 1 56 0 is_stmt 0 discriminator 1
	pushl	%eax
	pushl	%eax
	pushl	$.LC4
	pushl	$.LC4
	pushl	$.LC5
	pushl	$2
	pushl	$56
	pushl	$__FUNCTION__.3298
	call	LITE_syslog
.LVL17:
	addl	$32, %esp
	jmp	.L9
.L11:
	.loc 1 56 0 discriminator 2
	movl	%esi, 8(%ebp)
.LVL18:
	.loc 1 58 0 is_stmt 1 discriminator 2
	leal	-8(%ebp), %esp
	popl	%ebx
	.cfi_remember_state
	.cfi_restore 3
.LVL19:
	popl	%esi
	.cfi_restore 6
.LVL20:
	popl	%ebp
	.cfi_restore 5
	.cfi_def_cfa 4, 4
	.loc 1 56 0 discriminator 2
	jmp	LITE_free_internal
.LVL21:
.L9:
	.cfi_restore_state
	.loc 1 58 0
	leal	-8(%ebp), %esp
	popl	%ebx
	.cfi_restore 3
.LVL22:
	popl	%esi
	.cfi_restore 6
	popl	%ebp
	.cfi_restore 5
	.cfi_def_cfa 4, 4
	ret
	.cfi_endproc
.LFE19:
	.size	delete_object, .-delete_object
	.section	.text.unlikely.delete_object
.LCOLDE6:
	.section	.text.delete_object
.LHOTE6:
	.section	.rodata.__FUNCTION__.3298,"a",@progbits
	.align 4
	.type	__FUNCTION__.3298, @object
	.size	__FUNCTION__.3298, 14
__FUNCTION__.3298:
	.string	"delete_object"
	.section	.rodata.__func__.3292,"a",@progbits
	.align 4
	.type	__func__.3292, @object
	.size	__func__.3292, 11
__func__.3292:
	.string	"new_object"
	.text
.Letext0:
	.section	.text.unlikely.new_object
.Letext_cold0:
	.file 2 "/home/stone/Documents/Ali_IOT/build/compiler/gcc-arm-none-eabi/Linux64/lib/gcc/arm-none-eabi/5.4.1/include/stddef.h"
	.file 3 "/home/stone/Documents/Ali_IOT/build/compiler/gcc-arm-none-eabi/Linux64/lib/gcc/arm-none-eabi/5.4.1/include/stdarg.h"
	.file 4 "/home/stone/Documents/Ali_IOT/build/compiler/gcc-arm-none-eabi/Linux64/arm-none-eabi/include/stdio.h"
	.file 5 "./framework/protocol/linkkit/iotkit/iotkit-system/class_interface.h"
	.file 6 "./framework/protocol/linkkit/iotkit/base/utils/LITE-utils/src/lite-utils.h"
	.file 7 "./framework/protocol/linkkit/iotkit/base/log/LITE-log/lite-log.h"
	.section	.note.GNU-stack,"",@progbits
