	.file	"cmac_mode.c"
	.text
.Ltext0:
	.section	.text.unlikely.gf_double,"ax",@progbits
.LCOLDB0:
	.section	.text.gf_double,"ax",@progbits
.LHOTB0:
	.section	.text.unlikely.gf_double
.Ltext_cold0:
	.section	.text.gf_double
	.globl	gf_double
	.type	gf_double, @function
gf_double:
.LFB0:
	.file 1 "src/cmac_mode.c"
	.loc 1 87 0
	.cfi_startproc
.LVL0:
	pushl	%ebp
	.cfi_def_cfa_offset 8
	.cfi_offset 5, -8
	.loc 1 89 0
	movl	$16, %edx
	.loc 1 87 0
	movl	%esp, %ebp
	.cfi_def_cfa_register 5
	pushl	%ebx
	.cfi_offset 3, -12
	.loc 1 87 0
	movl	12(%ebp), %ebx
.LVL1:
	.loc 1 89 0
	movb	(%ebx), %al
	sarb	$7, %al
	andl	$-121, %eax
.LVL2:
.L4:
	.loc 1 92 0
	movzbl	-1(%ebx,%edx), %ecx
	addl	%ecx, %ecx
	xorl	%ecx, %eax
	movl	8(%ebp), %ecx
	movb	%al, -1(%ecx,%edx)
	.loc 1 93 0
	decl	%edx
.LVL3:
	je	.L1
.LVL4:
	.loc 1 96 0
	movb	(%ebx,%edx), %al
	shrb	$7, %al
.LVL5:
	.loc 1 97 0
	jmp	.L4
.LVL6:
.L1:
	.loc 1 98 0
	popl	%ebx
	.cfi_restore 3
	popl	%ebp
	.cfi_restore 5
	.cfi_def_cfa 4, 4
	ret
	.cfi_endproc
.LFE0:
	.size	gf_double, .-gf_double
	.section	.text.unlikely.gf_double
.LCOLDE0:
	.section	.text.gf_double
.LHOTE0:
	.section	.text.unlikely.tc_cmac_erase,"ax",@progbits
.LCOLDB1:
	.section	.text.tc_cmac_erase,"ax",@progbits
.LHOTB1:
	.globl	tc_cmac_erase
	.type	tc_cmac_erase, @function
tc_cmac_erase:
.LFB2:
	.loc 1 116 0
	.cfi_startproc
.LVL7:
	pushl	%ebp
	.cfi_def_cfa_offset 8
	.cfi_offset 5, -8
	xorl	%eax, %eax
	movl	%esp, %ebp
	.cfi_def_cfa_register 5
	subl	$8, %esp
	.loc 1 116 0
	movl	8(%ebp), %edx
	.loc 1 117 0
	testl	%edx, %edx
	je	.L9
	.loc 1 120 0
	pushl	%eax
	pushl	$84
	pushl	$0
	pushl	%edx
	call	_set
.LVL8:
	.loc 1 121 0
	addl	$16, %esp
	movl	$1, %eax
.L9:
	.loc 1 122 0
	leave
	.cfi_restore 5
	.cfi_def_cfa 4, 4
	ret
	.cfi_endproc
.LFE2:
	.size	tc_cmac_erase, .-tc_cmac_erase
	.section	.text.unlikely.tc_cmac_erase
.LCOLDE1:
	.section	.text.tc_cmac_erase
.LHOTE1:
	.section	.text.unlikely.tc_cmac_init,"ax",@progbits
.LCOLDB2:
	.section	.text.tc_cmac_init,"ax",@progbits
.LHOTB2:
	.globl	tc_cmac_init
	.type	tc_cmac_init, @function
tc_cmac_init:
.LFB3:
	.loc 1 124 0
	.cfi_startproc
.LVL9:
	pushl	%ebp
	.cfi_def_cfa_offset 8
	.cfi_offset 5, -8
	xorl	%eax, %eax
	movl	%esp, %ebp
	.cfi_def_cfa_register 5
	pushl	%ebx
	pushl	%edx
	.cfi_offset 3, -12
	.loc 1 124 0
	movl	8(%ebp), %ebx
	.loc 1 125 0
	testl	%ebx, %ebx
	je	.L14
	.loc 1 128 0
	pushl	%eax
	pushl	$16
	pushl	$0
	pushl	%ebx
	call	_set
.LVL10:
	.loc 1 129 0
	leal	48(%ebx), %eax
	addl	$12, %esp
	pushl	$16
	pushl	$0
	pushl	%eax
	call	_set
.LVL11:
	.loc 1 130 0
	movl	$0, 68(%ebx)
	.loc 1 131 0
	movl	$0, 76(%ebx)
	.loc 1 132 0
	addl	$16, %esp
	.loc 1 131 0
	movl	$65536, 80(%ebx)
	.loc 1 132 0
	movl	$1, %eax
.L14:
	.loc 1 133 0
	movl	-4(%ebp), %ebx
	leave
	.cfi_restore 5
	.cfi_restore 3
	.cfi_def_cfa 4, 4
	ret
	.cfi_endproc
.LFE3:
	.size	tc_cmac_init, .-tc_cmac_init
	.section	.text.unlikely.tc_cmac_init
.LCOLDE2:
	.section	.text.tc_cmac_init
.LHOTE2:
	.section	.text.unlikely.tc_cmac_setup,"ax",@progbits
.LCOLDB3:
	.section	.text.tc_cmac_setup,"ax",@progbits
.LHOTB3:
	.globl	tc_cmac_setup
	.type	tc_cmac_setup, @function
tc_cmac_setup:
.LFB1:
	.loc 1 100 0
	.cfi_startproc
.LVL12:
	pushl	%ebp
	.cfi_def_cfa_offset 8
	.cfi_offset 5, -8
	movl	%esp, %ebp
	.cfi_def_cfa_register 5
	pushl	%edi
	pushl	%esi
	pushl	%ebx
	subl	$12, %esp
	.cfi_offset 7, -12
	.cfi_offset 6, -16
	.cfi_offset 3, -20
	.loc 1 100 0
	movl	8(%ebp), %ebx
	movl	12(%ebp), %edi
	movl	16(%ebp), %esi
	.loc 1 101 0
	testl	%ebx, %ebx
	je	.L20
	testl	%edi, %edi
	je	.L20
	.loc 1 105 0
	pushl	%eax
	pushl	$84
	pushl	$0
	pushl	%ebx
	call	_set
.LVL13:
	.loc 1 106 0
	movl	%esi, 72(%ebx)
	.loc 1 107 0
	popl	%edx
	popl	%ecx
	pushl	%edi
	pushl	%esi
	.loc 1 110 0
	leal	16(%ebx), %esi
	.loc 1 107 0
	call	tc_aes128_set_encrypt_key
.LVL14:
	.loc 1 108 0
	addl	$12, %esp
	pushl	$16
	pushl	$0
	pushl	%ebx
	call	_set
.LVL15:
	.loc 1 109 0
	addl	$12, %esp
	pushl	72(%ebx)
	pushl	%ebx
	pushl	%ebx
	call	tc_aes_encrypt
.LVL16:
	.loc 1 110 0
	popl	%edi
	popl	%eax
	pushl	%ebx
	pushl	%esi
	call	gf_double
.LVL17:
	.loc 1 111 0
	popl	%eax
	leal	32(%ebx), %eax
	popl	%edx
	pushl	%esi
	pushl	%eax
	call	gf_double
.LVL18:
	.loc 1 112 0
	movl	%ebx, (%esp)
	call	tc_cmac_init
.LVL19:
	.loc 1 113 0
	addl	$16, %esp
	movl	$1, %eax
	jmp	.L19
.L20:
	.loc 1 103 0
	xorl	%eax, %eax
.L19:
	.loc 1 114 0
	leal	-12(%ebp), %esp
	popl	%ebx
	.cfi_restore 3
	popl	%esi
	.cfi_restore 6
	popl	%edi
	.cfi_restore 7
	popl	%ebp
	.cfi_restore 5
	.cfi_def_cfa 4, 4
	ret
	.cfi_endproc
.LFE1:
	.size	tc_cmac_setup, .-tc_cmac_setup
	.section	.text.unlikely.tc_cmac_setup
.LCOLDE3:
	.section	.text.tc_cmac_setup
.LHOTE3:
	.section	.text.unlikely.tc_cmac_update,"ax",@progbits
.LCOLDB4:
	.section	.text.tc_cmac_update,"ax",@progbits
.LHOTB4:
	.globl	tc_cmac_update
	.type	tc_cmac_update, @function
tc_cmac_update:
.LFB4:
	.loc 1 135 0
	.cfi_startproc
.LVL20:
	pushl	%ebp
	.cfi_def_cfa_offset 8
	.cfi_offset 5, -8
	.loc 1 138 0
	xorl	%eax, %eax
	.loc 1 135 0
	movl	%esp, %ebp
	.cfi_def_cfa_register 5
	pushl	%edi
	pushl	%esi
	pushl	%ebx
	subl	$12, %esp
	.cfi_offset 7, -12
	.cfi_offset 6, -16
	.cfi_offset 3, -20
	.loc 1 135 0
	movl	8(%ebp), %ebx
	movl	16(%ebp), %esi
	.loc 1 137 0
	testl	%ebx, %ebx
	je	.L23
	.loc 1 140 0
	testl	%esi, %esi
	je	.L45
	.loc 1 138 0
	xorl	%eax, %eax
	.loc 1 143 0
	cmpl	$0, 12(%ebp)
	je	.L23
	.loc 1 146 0
	movl	80(%ebx), %ecx
	movl	76(%ebx), %edx
	movl	%ecx, %edi
	orl	%edx, %edi
	je	.L23
	.loc 1 149 0
	movl	%edx, %eax
	movl	%ecx, %edx
	addl	$-1, %eax
	movl	%eax, 76(%ebx)
	.loc 1 150 0
	movl	68(%ebx), %eax
	.loc 1 149 0
	adcl	$-1, %edx
	movl	%edx, 80(%ebx)
	.loc 1 150 0
	testl	%eax, %eax
	je	.L25
.LBB2:
	.loc 1 151 0
	movl	$16, %edx
	subl	%eax, %edx
	leal	48(%eax), %eax
	.loc 1 152 0
	cmpl	%edx, %esi
	.loc 1 151 0
	movl	%edx, %edi
.LVL21:
	.loc 1 152 0
	jnb	.L26
	.loc 1 153 0
	addl	%ebx, %eax
	pushl	%esi
	pushl	12(%ebp)
	pushl	%esi
	pushl	%eax
	call	_copy
.LVL22:
	.loc 1 154 0
	addl	%esi, 68(%ebx)
	jmp	.L46
.LVL23:
.L26:
	.loc 1 157 0
	addl	%ebx, %eax
	pushl	%edx
	pushl	12(%ebp)
	pushl	%edx
	pushl	%eax
	.loc 1 161 0
	subl	%edi, %esi
	.loc 1 157 0
	call	_copy
.LVL24:
	.loc 1 162 0
	addl	%edi, 12(%ebp)
	.loc 1 163 0
	movl	$0, 68(%ebx)
.LVL25:
	addl	$16, %esp
	.loc 1 164 0
	xorl	%eax, %eax
.LVL26:
.L27:
	.loc 1 165 0 discriminator 3
	movb	48(%ebx,%eax), %dl
	xorb	%dl, (%ebx,%eax)
	.loc 1 164 0 discriminator 3
	incl	%eax
.LVL27:
	cmpl	$16, %eax
	jne	.L27
	.loc 1 167 0
	pushl	%edx
	pushl	72(%ebx)
	pushl	%ebx
	pushl	%ebx
	call	tc_aes_encrypt
.LVL28:
	addl	$16, %esp
.LVL29:
.L25:
.LBE2:
	movl	%esi, %edi
.LVL30:
.L28:
	movl	%esi, %ecx
	subl	%edi, %ecx
	addl	12(%ebp), %ecx
.LVL31:
	.loc 1 169 0
	cmpl	$16, %edi
	jbe	.L47
	xorl	%eax, %eax
.L29:
.LVL32:
	.loc 1 171 0 discriminator 3
	movb	(%ecx,%eax), %dl
	xorb	%dl, (%ebx,%eax)
	.loc 1 170 0 discriminator 3
	incl	%eax
.LVL33:
	cmpl	$16, %eax
	jne	.L29
.LVL34:
	.loc 1 173 0
	pushl	%eax
	pushl	72(%ebx)
	.loc 1 175 0
	subl	$16, %edi
.LVL35:
	.loc 1 173 0
	pushl	%ebx
	pushl	%ebx
	call	tc_aes_encrypt
.LVL36:
	.loc 1 175 0
	addl	$16, %esp
	jmp	.L28
.LVL37:
.L47:
	.loc 1 177 0
	testl	%edi, %edi
	je	.L45
	.loc 1 178 0
	leal	48(%ebx), %eax
	pushl	%edi
	pushl	%ecx
	pushl	%edi
	pushl	%eax
	call	_copy
.LVL38:
	.loc 1 179 0
	movl	%edi, 68(%ebx)
.LVL39:
.L46:
	addl	$16, %esp
.L45:
	.loc 1 181 0
	movl	$1, %eax
.L23:
	.loc 1 182 0
	leal	-12(%ebp), %esp
	popl	%ebx
	.cfi_restore 3
	popl	%esi
	.cfi_restore 6
	popl	%edi
	.cfi_restore 7
	popl	%ebp
	.cfi_restore 5
	.cfi_def_cfa 4, 4
	ret
	.cfi_endproc
.LFE4:
	.size	tc_cmac_update, .-tc_cmac_update
	.section	.text.unlikely.tc_cmac_update
.LCOLDE4:
	.section	.text.tc_cmac_update
.LHOTE4:
	.section	.text.unlikely.tc_cmac_final,"ax",@progbits
.LCOLDB5:
	.section	.text.tc_cmac_final,"ax",@progbits
.LHOTB5:
	.globl	tc_cmac_final
	.type	tc_cmac_final, @function
tc_cmac_final:
.LFB5:
	.loc 1 184 0
	.cfi_startproc
.LVL40:
	pushl	%ebp
	.cfi_def_cfa_offset 8
	.cfi_offset 5, -8
	movl	%esp, %ebp
	.cfi_def_cfa_register 5
	pushl	%esi
	pushl	%ebx
	.cfi_offset 6, -12
	.cfi_offset 3, -16
	.loc 1 184 0
	movl	8(%ebp), %esi
	movl	12(%ebp), %ebx
	.loc 1 187 0
	testl	%esi, %esi
	je	.L53
	testl	%ebx, %ebx
	je	.L53
	.loc 1 191 0
	movl	68(%ebx), %eax
	.loc 1 192 0
	leal	16(%ebx), %ecx
	.loc 1 191 0
	cmpl	$16, %eax
	je	.L51
.LVL41:
.LBB3:
	.loc 1 195 0
	pushl	%edx
	movl	$16, %edx
	subl	%eax, %edx
.LVL42:
	leal	48(%ebx,%eax), %eax
	pushl	%edx
	pushl	$0
	pushl	%eax
	call	_set
.LVL43:
	.loc 1 196 0
	movl	68(%ebx), %eax
	.loc 1 197 0
	leal	32(%ebx), %ecx
.LVL44:
	addl	$16, %esp
	.loc 1 196 0
	movb	$-128, 48(%ebx,%eax)
.LVL45:
.L51:
.LBE3:
	.loc 1 199 0
	xorl	%eax, %eax
.LVL46:
.L52:
	.loc 1 200 0 discriminator 3
	movb	(%ebx,%eax), %dl
	xorb	48(%ebx,%eax), %dl
	xorb	(%ecx,%eax), %dl
	movb	%dl, (%ebx,%eax)
	.loc 1 199 0 discriminator 3
	incl	%eax
.LVL47:
	cmpl	$16, %eax
	jne	.L52
.LVL48:
	.loc 1 202 0
	pushl	%eax
	pushl	72(%ebx)
	pushl	%ebx
	pushl	%esi
	call	tc_aes_encrypt
.LVL49:
	.loc 1 203 0
	movl	%ebx, (%esp)
	call	tc_cmac_erase
.LVL50:
	.loc 1 204 0
	addl	$16, %esp
	movl	$1, %eax
	jmp	.L49
.LVL51:
.L53:
	.loc 1 189 0
	xorl	%eax, %eax
.LVL52:
.L49:
	.loc 1 205 0
	leal	-8(%ebp), %esp
	popl	%ebx
	.cfi_restore 3
	popl	%esi
	.cfi_restore 6
	popl	%ebp
	.cfi_restore 5
	.cfi_def_cfa 4, 4
	ret
	.cfi_endproc
.LFE5:
	.size	tc_cmac_final, .-tc_cmac_final
	.section	.text.unlikely.tc_cmac_final
.LCOLDE5:
	.section	.text.tc_cmac_final
.LHOTE5:
	.globl	gf_wrap
	.section	.rodata.gf_wrap,"a",@progbits
	.type	gf_wrap, @object
	.size	gf_wrap, 1
gf_wrap:
	.byte	-121
	.text
.Letext0:
	.section	.text.unlikely.gf_double
.Letext_cold0:
	.section	.note.GNU-stack,"",@progbits
