	.file	"cntr.c"
	.text
.Ltext0:
	.section	.text.unlikely.cntr_init,"ax",@progbits
.LCOLDB0:
	.section	.text.cntr_init,"ax",@progbits
.LHOTB0:
	.section	.text.unlikely.cntr_init
.Ltext_cold0:
	.section	.text.cntr_init
	.globl	cntr_init
	.type	cntr_init, @function
cntr_init:
.LFB184:
	.file 1 "src/cntr.c"
	.loc 1 5332 0
	.cfi_startproc
	pushl	%ebp
	.cfi_def_cfa_offset 8
	.cfi_offset 5, -8
	.loc 1 5333 0
	movl	$0, 1073788168
	.loc 1 5334 0
	movl	$196608, 1073787716
	.loc 1 5336 0
	movl	$196608, 1073787652
	.loc 1 5332 0
	movl	%esp, %ebp
	.cfi_def_cfa_register 5
	.loc 1 5338 0
	popl	%ebp
	.cfi_restore 5
	.cfi_def_cfa 4, 4
	ret
	.cfi_endproc
.LFE184:
	.size	cntr_init, .-cntr_init
	.section	.text.unlikely.cntr_init
.LCOLDE0:
	.section	.text.cntr_init
.LHOTE0:
	.section	.text.unlikely.cntr_start,"ax",@progbits
.LCOLDB1:
	.section	.text.cntr_start,"ax",@progbits
.LHOTB1:
	.globl	cntr_start
	.type	cntr_start, @function
cntr_start:
.LFB185:
	.loc 1 5340 0
	.cfi_startproc
	.loc 1 5341 0
	movb	_refcount, %dl
	.loc 1 5340 0
	pushl	%ebp
	.cfi_def_cfa_offset 8
	.cfi_offset 5, -8
	movl	%esp, %ebp
	.cfi_def_cfa_register 5
	.loc 1 5341 0
	leal	1(%edx), %eax
	testb	%dl, %dl
	movb	%al, _refcount
	movl	$1, %eax
	jne	.L4
	.loc 1 5344 0
	movl	$1, 1073786880
	.loc 1 5345 0
	xorl	%eax, %eax
.L4:
	.loc 1 5346 0
	popl	%ebp
	.cfi_restore 5
	.cfi_def_cfa 4, 4
	ret
	.cfi_endproc
.LFE185:
	.size	cntr_start, .-cntr_start
	.section	.text.unlikely.cntr_start
.LCOLDE1:
	.section	.text.cntr_start
.LHOTE1:
	.section	.text.unlikely.cntr_stop,"ax",@progbits
.LCOLDB2:
	.section	.text.cntr_stop,"ax",@progbits
.LHOTB2:
	.globl	cntr_stop
	.type	cntr_stop, @function
cntr_stop:
.LFB186:
	.loc 1 5348 0
	.cfi_startproc
	.loc 1 5350 0
	movb	_refcount, %al
	.loc 1 5348 0
	pushl	%ebp
	.cfi_def_cfa_offset 8
	.cfi_offset 5, -8
	movl	%esp, %ebp
	.cfi_def_cfa_register 5
	.loc 1 5350 0
	leal	-1(%eax), %edx
	movl	$1, %eax
	testb	%dl, %dl
	movb	%dl, _refcount
	jne	.L10
	.loc 1 5353 0
	movl	$1, 1073786884
	.loc 1 5354 0
	xorl	%eax, %eax
.L10:
	.loc 1 5355 0
	popl	%ebp
	.cfi_restore 5
	.cfi_def_cfa 4, 4
	ret
	.cfi_endproc
.LFE186:
	.size	cntr_stop, .-cntr_stop
	.section	.text.unlikely.cntr_stop
.LCOLDE2:
	.section	.text.cntr_stop
.LHOTE2:
	.section	.text.unlikely.cntr_cnt_get,"ax",@progbits
.LCOLDB3:
	.section	.text.cntr_cnt_get,"ax",@progbits
.LHOTB3:
	.globl	cntr_cnt_get
	.type	cntr_cnt_get, @function
cntr_cnt_get:
.LFB187:
	.loc 1 5357 0
	.cfi_startproc
	pushl	%ebp
	.cfi_def_cfa_offset 8
	.cfi_offset 5, -8
	.loc 1 5358 0
	movl	1073788164, %eax
	.loc 1 5357 0
	movl	%esp, %ebp
	.cfi_def_cfa_register 5
	.loc 1 5359 0
	popl	%ebp
	.cfi_restore 5
	.cfi_def_cfa 4, 4
	ret
	.cfi_endproc
.LFE187:
	.size	cntr_cnt_get, .-cntr_cnt_get
	.section	.text.unlikely.cntr_cnt_get
.LCOLDE3:
	.section	.text.cntr_cnt_get
.LHOTE3:
	.section	.text.unlikely.cntr_cmp_set,"ax",@progbits
.LCOLDB4:
	.section	.text.cntr_cmp_set,"ax",@progbits
.LHOTB4:
	.globl	cntr_cmp_set
	.type	cntr_cmp_set, @function
cntr_cmp_set:
.LFB188:
	.loc 1 5361 0
	.cfi_startproc
.LVL0:
	pushl	%ebp
	.cfi_def_cfa_offset 8
	.cfi_offset 5, -8
	movl	%esp, %ebp
	.cfi_def_cfa_register 5
	.loc 1 5362 0
	movzbl	8(%ebp), %eax
	movl	12(%ebp), %edx
	addl	$336, %eax
	movl	%edx, 1073786880(,%eax,4)
.LVL1:
	.loc 1 5363 0
	popl	%ebp
	.cfi_restore 5
	.cfi_def_cfa 4, 4
	ret
	.cfi_endproc
.LFE188:
	.size	cntr_cmp_set, .-cntr_cmp_set
	.section	.text.unlikely.cntr_cmp_set
.LCOLDE4:
	.section	.text.cntr_cmp_set
.LHOTE4:
	.section	.bss._refcount,"aw",@nobits
	.type	_refcount, @object
	.size	_refcount, 1
_refcount:
	.zero	1
	.text
.Letext0:
	.section	.text.unlikely.cntr_init
.Letext_cold0:
	.section	.note.GNU-stack,"",@progbits
