	.file	"component_init.c"
	.text
.Ltext0:
	.section	.text.unlikely.aos_components_init,"ax",@progbits
.LCOLDB0:
	.section	.text.aos_components_init,"ax",@progbits
.LHOTB0:
	.section	.text.unlikely.aos_components_init
.Ltext_cold0:
	.section	.text.aos_components_init
	.globl	aos_components_init
	.type	aos_components_init, @function
aos_components_init:
.LFB16:
	.file 1 "out/mqttapp@mk3060/auto_component/component_init.c"
	.loc 1 7 0
	.cfi_startproc
	pushl	%ebp
	.cfi_def_cfa_offset 8
	.cfi_offset 5, -8
	movl	%esp, %ebp
	.cfi_def_cfa_register 5
	.loc 1 8 0
	popl	%ebp
	.cfi_restore 5
	.cfi_def_cfa 4, 4
	ret
	.cfi_endproc
.LFE16:
	.size	aos_components_init, .-aos_components_init
	.section	.text.unlikely.aos_components_init
.LCOLDE0:
	.section	.text.aos_components_init
.LHOTE0:
	.text
.Letext0:
	.section	.text.unlikely.aos_components_init
.Letext_cold0:
	.file 2 "./include/aos/log.h"
	.section	.note.GNU-stack,"",@progbits
