	.file	"conn.c"
	.text
.Ltext0:
	.section	.text.unlikely.notify_connected,"ax",@progbits
.LCOLDB0:
	.section	.text.notify_connected,"ax",@progbits
.LHOTB0:
	.section	.text.unlikely.notify_connected
.Ltext_cold0:
	.section	.text.notify_connected
	.type	notify_connected, @function
notify_connected:
.LFB81:
	.file 1 "src/conn.c"
	.loc 1 3877 0
	.cfi_startproc
.LVL0:
	pushl	%ebp
	.cfi_def_cfa_offset 8
	.cfi_offset 5, -8
	movl	%esp, %ebp
	.cfi_def_cfa_register 5
	pushl	%esi
	pushl	%ebx
	.cfi_offset 6, -12
	.cfi_offset 3, -16
	.loc 1 3879 0
	movl	callback_list, %ebx
.LVL1:
	.loc 1 3877 0
	movl	%eax, %esi
.LVL2:
.L2:
	.loc 1 3879 0 discriminator 1
	testl	%ebx, %ebx
	je	.L10
	.loc 1 3880 0
	movl	(%ebx), %eax
	testl	%eax, %eax
	je	.L3
	.loc 1 3881 0
	pushl	%edx
	pushl	%edx
	movzbl	11(%esi), %edx
	pushl	%edx
	pushl	%esi
	call	*%eax
.LVL3:
	addl	$16, %esp
.L3:
	.loc 1 3879 0 discriminator 2
	movl	24(%ebx), %ebx
.LVL4:
	jmp	.L2
.L10:
	.loc 1 3884 0
	leal	-8(%ebp), %esp
	popl	%ebx
	.cfi_restore 3
.LVL5:
	popl	%esi
	.cfi_restore 6
.LVL6:
	popl	%ebp
	.cfi_restore 5
	.cfi_def_cfa 4, 4
	ret
	.cfi_endproc
.LFE81:
	.size	notify_connected, .-notify_connected
	.section	.text.unlikely.notify_connected
.LCOLDE0:
	.section	.text.notify_connected
.LHOTE0:
	.section	.text.unlikely.bt_conn_reset_rx_state,"ax",@progbits
.LCOLDB1:
	.section	.text.bt_conn_reset_rx_state,"ax",@progbits
.LHOTB1:
	.type	bt_conn_reset_rx_state, @function
bt_conn_reset_rx_state:
.LFB94:
	.loc 1 4094 0
	.cfi_startproc
.LVL7:
	.loc 1 4095 0
	cmpw	$0, 14(%eax)
	je	.L15
	.loc 1 4094 0
	pushl	%ebp
	.cfi_def_cfa_offset 8
	.cfi_offset 5, -8
	movl	%esp, %ebp
	.cfi_def_cfa_register 5
	pushl	%ebx
	.cfi_offset 3, -12
	movl	%eax, %ebx
.LVL8:
	subl	$16, %esp
.LBB53:
.LBB54:
	.loc 1 4098 0
	pushl	16(%eax)
	call	net_buf_unref
.LVL9:
	.loc 1 4099 0
	movl	$0, 16(%ebx)
	.loc 1 4102 0
	movw	$0, 14(%ebx)
	addl	$16, %esp
.LBE54:
.LBE53:
	.loc 1 4103 0
	movl	-4(%ebp), %ebx
.LVL10:
	leave
	.cfi_restore 5
	.cfi_restore 3
	.cfi_def_cfa 4, 4
.LVL11:
.L15:
	ret
	.cfi_endproc
.LFE94:
	.size	bt_conn_reset_rx_state, .-bt_conn_reset_rx_state
	.section	.text.unlikely.bt_conn_reset_rx_state
.LCOLDE1:
	.section	.text.bt_conn_reset_rx_state
.LHOTE1:
	.section	.text.unlikely.bt_conn_get_pkts,"ax",@progbits
.LCOLDB2:
	.section	.text.bt_conn_get_pkts,"ax",@progbits
.LHOTB2:
	.globl	bt_conn_get_pkts
	.type	bt_conn_get_pkts, @function
bt_conn_get_pkts:
.LFB79:
	.loc 1 3856 0
	.cfi_startproc
.LVL12:
	pushl	%ebp
	.cfi_def_cfa_offset 8
	.cfi_offset 5, -8
	.loc 1 3858 0
	movl	$bt_dev+132, %eax
	.loc 1 3856 0
	movl	%esp, %ebp
	.cfi_def_cfa_register 5
	.loc 1 3858 0
	popl	%ebp
	.cfi_restore 5
	.cfi_def_cfa 4, 4
	ret
	.cfi_endproc
.LFE79:
	.size	bt_conn_get_pkts, .-bt_conn_get_pkts
	.section	.text.unlikely.bt_conn_get_pkts
.LCOLDE2:
	.section	.text.bt_conn_get_pkts
.LHOTE2:
	.section	.text.unlikely.notify_le_param_updated,"ax",@progbits
.LCOLDB3:
	.section	.text.notify_le_param_updated,"ax",@progbits
.LHOTB3:
	.globl	notify_le_param_updated
	.type	notify_le_param_updated, @function
notify_le_param_updated:
.LFB83:
	.loc 1 3895 0
	.cfi_startproc
.LVL13:
	pushl	%ebp
	.cfi_def_cfa_offset 8
	.cfi_offset 5, -8
	movl	%esp, %ebp
	.cfi_def_cfa_register 5
	pushl	%esi
	pushl	%ebx
	.cfi_offset 6, -12
	.cfi_offset 3, -16
	.loc 1 3895 0
	movl	8(%ebp), %esi
	.loc 1 3897 0
	movl	callback_list, %ebx
.LVL14:
.L19:
	.loc 1 3897 0 is_stmt 0 discriminator 1
	testl	%ebx, %ebx
	je	.L26
	.loc 1 3898 0 is_stmt 1
	movl	12(%ebx), %eax
	testl	%eax, %eax
	je	.L20
	.loc 1 3899 0
	movzwl	94(%esi), %edx
	pushl	%edx
	movzwl	92(%esi), %edx
	pushl	%edx
	movzwl	86(%esi), %edx
	pushl	%edx
	pushl	%esi
	call	*%eax
.LVL15:
	addl	$16, %esp
.L20:
	.loc 1 3897 0 discriminator 2
	movl	24(%ebx), %ebx
.LVL16:
	jmp	.L19
.L26:
	.loc 1 3904 0
	leal	-8(%ebp), %esp
	popl	%ebx
	.cfi_restore 3
.LVL17:
	popl	%esi
	.cfi_restore 6
	popl	%ebp
	.cfi_restore 5
	.cfi_def_cfa 4, 4
	ret
	.cfi_endproc
.LFE83:
	.size	notify_le_param_updated, .-notify_le_param_updated
	.section	.text.unlikely.notify_le_param_updated
.LCOLDE3:
	.section	.text.notify_le_param_updated
.LHOTE3:
	.section	.text.unlikely.le_param_req,"ax",@progbits
.LCOLDB4:
	.section	.text.le_param_req,"ax",@progbits
.LHOTB4:
	.globl	le_param_req
	.type	le_param_req, @function
le_param_req:
.LFB84:
	.loc 1 3907 0
	.cfi_startproc
.LVL18:
	pushl	%ebp
	.cfi_def_cfa_offset 8
	.cfi_offset 5, -8
	movl	%esp, %ebp
	.cfi_def_cfa_register 5
	pushl	%edi
	pushl	%esi
	pushl	%ebx
	subl	$24, %esp
	.cfi_offset 7, -12
	.cfi_offset 6, -16
	.cfi_offset 3, -20
	.loc 1 3907 0
	movl	12(%ebp), %esi
	.loc 1 3909 0
	pushl	%esi
	call	bt_le_conn_params_valid
.LVL19:
	addl	$16, %esp
	testb	%al, %al
	.loc 1 3914 0
	movl	callback_list, %edi
	movb	%al, %bl
	.loc 1 3909 0
	jne	.L37
.L32:
	.loc 1 3911 0
	xorl	%ebx, %ebx
	jmp	.L29
.LVL20:
.L34:
	.loc 1 3915 0
	movl	8(%edi), %eax
	testl	%eax, %eax
	jne	.L31
.L33:
	.loc 1 3914 0
	movl	24(%edi), %edi
.LVL21:
.L37:
	.loc 1 3914 0 is_stmt 0 discriminator 1
	testl	%edi, %edi
	jne	.L34
	jmp	.L29
.L31:
	.loc 1 3918 0 is_stmt 1
	pushl	%edx
	pushl	%edx
	pushl	%esi
	pushl	8(%ebp)
	call	*%eax
.LVL22:
	addl	$16, %esp
	testb	%al, %al
	je	.L32
	.loc 1 3923 0
	subl	$12, %esp
	pushl	%esi
	call	bt_le_conn_params_valid
.LVL23:
	addl	$16, %esp
	testb	%al, %al
	jne	.L33
	jmp	.L32
.LVL24:
.L29:
	.loc 1 3932 0
	leal	-12(%ebp), %esp
	movb	%bl, %al
	popl	%ebx
	.cfi_restore 3
	popl	%esi
	.cfi_restore 6
	popl	%edi
	.cfi_restore 7
	popl	%ebp
	.cfi_restore 5
	.cfi_def_cfa 4, 4
	ret
	.cfi_endproc
.LFE84:
	.size	le_param_req, .-le_param_req
	.section	.text.unlikely.le_param_req
.LCOLDE4:
	.section	.text.le_param_req
.LHOTE4:
	.section	.text.unlikely.bt_conn_identity_resolved,"ax",@progbits
.LCOLDB5:
	.section	.text.bt_conn_identity_resolved,"ax",@progbits
.LHOTB5:
	.globl	bt_conn_identity_resolved
	.type	bt_conn_identity_resolved, @function
bt_conn_identity_resolved:
.LFB87:
	.loc 1 3982 0
	.cfi_startproc
.LVL25:
	pushl	%ebp
	.cfi_def_cfa_offset 8
	.cfi_offset 5, -8
	movl	%esp, %ebp
	.cfi_def_cfa_register 5
	pushl	%edi
	pushl	%esi
	pushl	%ebx
	subl	$28, %esp
	.cfi_offset 7, -12
	.cfi_offset 6, -16
	.cfi_offset 3, -20
	.loc 1 3982 0
	movl	8(%ebp), %ebx
	.loc 1 3990 0
	movl	callback_list, %esi
	.loc 1 3986 0
	cmpb	$0, 3(%ebx)
	leal	78(%ebx), %edi
	leal	71(%ebx), %eax
	.loc 1 3992 0
	leal	64(%ebx), %edx
	.loc 1 3986 0
	cmovne	%eax, %edi
.LVL26:
.L44:
	.loc 1 3990 0 discriminator 1
	testl	%esi, %esi
	je	.L51
	.loc 1 3991 0
	movl	16(%esi), %eax
	testl	%eax, %eax
	je	.L45
	.loc 1 3992 0
	movl	%edx, -28(%ebp)
	pushl	%ecx
	pushl	%edx
	pushl	%edi
	pushl	%ebx
	call	*%eax
.LVL27:
	movl	-28(%ebp), %edx
	addl	$16, %esp
.L45:
	.loc 1 3990 0 discriminator 2
	movl	24(%esi), %esi
.LVL28:
	jmp	.L44
.L51:
	.loc 1 3995 0
	leal	-12(%ebp), %esp
	popl	%ebx
	.cfi_restore 3
	popl	%esi
	.cfi_restore 6
.LVL29:
	popl	%edi
	.cfi_restore 7
.LVL30:
	popl	%ebp
	.cfi_restore 5
	.cfi_def_cfa 4, 4
	ret
	.cfi_endproc
.LFE87:
	.size	bt_conn_identity_resolved, .-bt_conn_identity_resolved
	.section	.text.unlikely.bt_conn_identity_resolved
.LCOLDE5:
	.section	.text.bt_conn_identity_resolved
.LHOTE5:
	.section	.text.unlikely.bt_conn_le_start_encryption,"ax",@progbits
.LCOLDB6:
	.section	.text.bt_conn_le_start_encryption,"ax",@progbits
.LHOTB6:
	.globl	bt_conn_le_start_encryption
	.type	bt_conn_le_start_encryption, @function
bt_conn_le_start_encryption:
.LFB88:
	.loc 1 3998 0
	.cfi_startproc
.LVL31:
	pushl	%ebp
	.cfi_def_cfa_offset 8
	.cfi_offset 5, -8
	movl	%esp, %ebp
	.cfi_def_cfa_register 5
	pushl	%edi
	pushl	%esi
	pushl	%ebx
	subl	$36, %esp
	.cfi_offset 7, -12
	.cfi_offset 6, -16
	.cfi_offset 3, -20
	.loc 1 3998 0
	movl	12(%ebp), %eax
	movl	16(%ebp), %edx
	.loc 1 4001 0
	pushl	$28
	pushl	$8217
	.loc 1 3998 0
	movl	8(%ebp), %edi
	movl	20(%ebp), %esi
	movl	%eax, -40(%ebp)
	movl	24(%ebp), %eax
	movl	%edx, -36(%ebp)
	movl	%eax, -32(%ebp)
	movl	28(%ebp), %eax
	movl	%eax, -28(%ebp)
	.loc 1 4001 0
	call	bt_hci_cmd_create
.LVL32:
	.loc 1 4002 0
	addl	$16, %esp
	testl	%eax, %eax
	je	.L53
	movl	%eax, %ebx
.LVL33:
	.loc 1 4005 0
	pushl	%eax
	pushl	%eax
	leal	8(%ebx), %eax
	pushl	$28
	pushl	%eax
	call	net_buf_simple_add
.LVL34:
	.loc 1 4006 0
	movl	(%edi), %edx
	.loc 1 4007 0
	movl	-36(%ebp), %ecx
	.loc 1 4009 0
	addl	$12, %eax
.LVL35:
	.loc 1 4008 0
	movw	%si, -2(%eax)
	.loc 1 4010 0
	addl	$16, %esp
	.loc 1 4009 0
	movl	-32(%ebp), %esi
	.loc 1 4006 0
	movw	%dx, -12(%eax)
	.loc 1 4007 0
	movl	-40(%ebp), %edx
	movl	%ecx, -6(%eax)
	.loc 1 4009 0
	movl	-28(%ebp), %ecx
	.loc 1 4007 0
	movl	%edx, -10(%eax)
	.loc 1 4010 0
	cmpl	$15, -28(%ebp)
	.loc 1 4009 0
	movl	%eax, %edi
	rep movsb
	.loc 1 4010 0
	ja	.L54
	.loc 1 4011 0
	movl	$16, %ecx
	subl	-28(%ebp), %ecx
	xorl	%eax, %eax
.LVL36:
	rep stosb
.L54:
	.loc 1 4013 0
	movl	%ebx, 12(%ebp)
	movl	$0, 16(%ebp)
	movl	$8217, 8(%ebp)
	.loc 1 4016 0
	leal	-12(%ebp), %esp
	popl	%ebx
	.cfi_remember_state
	.cfi_restore 3
.LVL37:
	popl	%esi
	.cfi_restore 6
	popl	%edi
	.cfi_restore 7
	popl	%ebp
	.cfi_restore 5
	.cfi_def_cfa 4, 4
	.loc 1 4013 0
	jmp	bt_hci_cmd_send_sync
.LVL38:
.L53:
	.cfi_restore_state
	.loc 1 4016 0
	leal	-12(%ebp), %esp
	movl	$-55, %eax
.LVL39:
	popl	%ebx
	.cfi_restore 3
	popl	%esi
	.cfi_restore 6
	popl	%edi
	.cfi_restore 7
	popl	%ebp
	.cfi_restore 5
	.cfi_def_cfa 4, 4
	ret
	.cfi_endproc
.LFE88:
	.size	bt_conn_le_start_encryption, .-bt_conn_le_start_encryption
	.section	.text.unlikely.bt_conn_le_start_encryption
.LCOLDE6:
	.section	.text.bt_conn_le_start_encryption
.LHOTE6:
	.section	.text.unlikely.bt_conn_enc_key_size,"ax",@progbits
.LCOLDB7:
	.section	.text.bt_conn_enc_key_size,"ax",@progbits
.LHOTB7:
	.globl	bt_conn_enc_key_size
	.type	bt_conn_enc_key_size, @function
bt_conn_enc_key_size:
.LFB89:
	.loc 1 4018 0
	.cfi_startproc
.LVL40:
	pushl	%ebp
	.cfi_def_cfa_offset 8
	.cfi_offset 5, -8
	movl	%esp, %ebp
	.cfi_def_cfa_register 5
	.loc 1 4018 0
	movl	8(%ebp), %edx
	.loc 1 4019 0
	movb	10(%edx), %al
	testb	%al, %al
	je	.L57
	.loc 1 4046 0
	movl	104(%edx), %edx
	.loc 1 4020 0
	xorl	%eax, %eax
	.loc 1 4046 0
	testl	%edx, %edx
	je	.L57
	.loc 1 4046 0 is_stmt 0 discriminator 1
	movb	7(%edx), %al
.L57:
	.loc 1 4049 0 is_stmt 1 discriminator 1
	popl	%ebp
	.cfi_restore 5
	.cfi_def_cfa 4, 4
	ret
	.cfi_endproc
.LFE89:
	.size	bt_conn_enc_key_size, .-bt_conn_enc_key_size
	.section	.text.unlikely.bt_conn_enc_key_size
.LCOLDE7:
	.section	.text.bt_conn_enc_key_size
.LHOTE7:
	.section	.text.unlikely.bt_conn_security_changed,"ax",@progbits
.LCOLDB8:
	.section	.text.bt_conn_security_changed,"ax",@progbits
.LHOTB8:
	.globl	bt_conn_security_changed
	.type	bt_conn_security_changed, @function
bt_conn_security_changed:
.LFB90:
	.loc 1 4051 0
	.cfi_startproc
.LVL41:
	pushl	%ebp
	.cfi_def_cfa_offset 8
	.cfi_offset 5, -8
	movl	%esp, %ebp
	.cfi_def_cfa_register 5
	pushl	%esi
	pushl	%ebx
	.cfi_offset 6, -12
	.cfi_offset 3, -16
	.loc 1 4051 0
	movl	8(%ebp), %esi
	.loc 1 4053 0
	movl	callback_list, %ebx
.LVL42:
.L64:
	.loc 1 4053 0 is_stmt 0 discriminator 1
	testl	%ebx, %ebx
	je	.L71
	.loc 1 4054 0 is_stmt 1
	movl	20(%ebx), %eax
	testl	%eax, %eax
	je	.L65
	.loc 1 4055 0
	pushl	%edx
	pushl	%edx
	movzbl	8(%esi), %edx
	pushl	%edx
	pushl	%esi
	call	*%eax
.LVL43:
	addl	$16, %esp
.L65:
	.loc 1 4053 0 discriminator 2
	movl	24(%ebx), %ebx
.LVL44:
	jmp	.L64
.L71:
	.loc 1 4058 0
	leal	-8(%ebp), %esp
	popl	%ebx
	.cfi_restore 3
.LVL45:
	popl	%esi
	.cfi_restore 6
	popl	%ebp
	.cfi_restore 5
	.cfi_def_cfa 4, 4
	ret
	.cfi_endproc
.LFE90:
	.size	bt_conn_security_changed, .-bt_conn_security_changed
	.section	.text.unlikely.bt_conn_security_changed
.LCOLDE8:
	.section	.text.bt_conn_security_changed
.LHOTE8:
	.section	.text.unlikely.bt_conn_security,"ax",@progbits
.LCOLDB9:
	.section	.text.bt_conn_security,"ax",@progbits
.LHOTB9:
	.globl	bt_conn_security
	.type	bt_conn_security, @function
bt_conn_security:
.LFB92:
	.loc 1 4069 0
	.cfi_startproc
.LVL46:
	pushl	%ebp
	.cfi_def_cfa_offset 8
	.cfi_offset 5, -8
	movl	%esp, %ebp
	.cfi_def_cfa_register 5
	pushl	%ebx
	pushl	%eax
	.cfi_offset 3, -12
	.loc 1 4069 0
	movl	8(%ebp), %ebx
	movl	12(%ebp), %edx
	.loc 1 4072 0
	movl	$-57, %eax
	.loc 1 4071 0
	cmpb	$3, 12(%ebx)
	jne	.L73
	.loc 1 4078 0
	cmpb	%dl, 8(%ebx)
	jb	.L74
.L75:
	.loc 1 4079 0
	xorl	%eax, %eax
	jmp	.L73
.L74:
	.loc 1 4078 0 discriminator 1
	cmpb	9(%ebx), %dl
	jbe	.L75
.LBB57:
.LBB58:
	.loc 1 4061 0
	cmpb	$1, 3(%ebx)
.LBE58:
.LBE57:
	.loc 1 4081 0
	movb	%dl, 9(%ebx)
.LVL47:
.LBB61:
.LBB59:
	.loc 1 4061 0
	jne	.L83
	.loc 1 4063 0
	subl	$12, %esp
	pushl	%ebx
	call	bt_smp_send_security_req
.LVL48:
.LBE59:
.LBE61:
	.loc 1 4083 0
	addl	$16, %esp
	testl	%eax, %eax
	jne	.L76
	jmp	.L75
.LVL49:
.L83:
.LBB62:
.LBB60:
	.loc 1 4065 0
	movl	$-22, %eax
.LVL50:
.L76:
.LBE60:
.LBE62:
	.loc 1 4084 0
	movb	8(%ebx), %dl
	movb	%dl, 9(%ebx)
.L73:
	.loc 1 4087 0
	movl	-4(%ebp), %ebx
	leave
	.cfi_restore 5
	.cfi_restore 3
	.cfi_def_cfa 4, 4
	ret
	.cfi_endproc
.LFE92:
	.size	bt_conn_security, .-bt_conn_security
	.section	.text.unlikely.bt_conn_security
.LCOLDE9:
	.section	.text.bt_conn_security
.LHOTE9:
	.section	.text.unlikely.bt_conn_cb_register,"ax",@progbits
.LCOLDB10:
	.section	.text.bt_conn_cb_register,"ax",@progbits
.LHOTB10:
	.globl	bt_conn_cb_register
	.type	bt_conn_cb_register, @function
bt_conn_cb_register:
.LFB93:
	.loc 1 4089 0
	.cfi_startproc
.LVL51:
	pushl	%ebp
	.cfi_def_cfa_offset 8
	.cfi_offset 5, -8
	.loc 1 4090 0
	movl	callback_list, %edx
	.loc 1 4089 0
	movl	%esp, %ebp
	.cfi_def_cfa_register 5
	.loc 1 4089 0
	movl	8(%ebp), %eax
	.loc 1 4090 0
	movl	%edx, 24(%eax)
	.loc 1 4091 0
	movl	%eax, callback_list
	.loc 1 4092 0
	popl	%ebp
	.cfi_restore 5
	.cfi_def_cfa 4, 4
	ret
	.cfi_endproc
.LFE93:
	.size	bt_conn_cb_register, .-bt_conn_cb_register
	.section	.text.unlikely.bt_conn_cb_register
.LCOLDE10:
	.section	.text.bt_conn_cb_register
.LHOTE10:
	.section	.text.unlikely.bt_conn_recv,"ax",@progbits
.LCOLDB11:
	.section	.text.bt_conn_recv,"ax",@progbits
.LHOTB11:
	.globl	bt_conn_recv
	.type	bt_conn_recv, @function
bt_conn_recv:
.LFB95:
	.loc 1 4105 0
	.cfi_startproc
.LVL52:
	pushl	%ebp
	.cfi_def_cfa_offset 8
	.cfi_offset 5, -8
	movl	%esp, %ebp
	.cfi_def_cfa_register 5
	pushl	%edi
	pushl	%esi
	pushl	%ebx
	subl	$12, %esp
	.cfi_offset 7, -12
	.cfi_offset 6, -16
	.cfi_offset 3, -20
	.loc 1 4105 0
	movl	16(%ebp), %eax
	movl	8(%ebp), %ebx
	movl	12(%ebp), %esi
	.loc 1 4109 0
	cmpb	$1, %al
	je	.L89
	cmpb	$2, %al
	jne	.L100
.LVL53:
	.loc 1 4114 0
	cmpw	$0, 14(%ebx)
	.loc 1 4112 0
	movl	8(%esi), %eax
	movw	(%eax), %di
.LVL54:
	.loc 1 4114 0
	je	.L91
	.loc 1 4116 0
	movl	%ebx, %eax
	call	bt_conn_reset_rx_state
.LVL55:
.L91:
	.loc 1 4118 0
	leal	4(%edi), %eax
	subl	12(%esi), %eax
	.loc 1 4120 0
	testw	%ax, %ax
	.loc 1 4118 0
	movw	%ax, 14(%ebx)
	.loc 1 4120 0
	je	.L92
	.loc 1 4121 0
	movl	%esi, 16(%ebx)
	.loc 1 4122 0
	jmp	.L87
.LVL56:
.L89:
	.loc 1 4126 0
	movw	14(%ebx), %ax
	testw	%ax, %ax
	je	.L100
	.loc 1 4132 0
	movzwl	12(%esi), %edi
	cmpw	%di, %ax
	jb	.L100
	.loc 1 4139 0
	movl	16(%ebx), %eax
	subl	$12, %esp
	addl	$8, %eax
	pushl	%eax
	call	net_buf_simple_tailroom
.LVL57:
	addl	$16, %esp
	cmpl	%eax, %edi
	ja	.L100
	.loc 1 4145 0
	pushl	%eax
	movzwl	12(%esi), %eax
	pushl	%eax
	pushl	8(%esi)
	movl	16(%ebx), %eax
	addl	$8, %eax
	pushl	%eax
	call	net_buf_simple_add_mem
.LVL58:
	.loc 1 4146 0
	movl	12(%esi), %eax
	subw	%ax, 14(%ebx)
	.loc 1 4147 0
	movl	%esi, (%esp)
	call	net_buf_unref
.LVL59:
	.loc 1 4148 0
	addl	$16, %esp
	cmpw	$0, 14(%ebx)
	jne	.L87
	.loc 1 4151 0
	movl	16(%ebx), %esi
.LVL60:
	.loc 1 4155 0
	movw	$0, 14(%ebx)
	.loc 1 4152 0
	movl	$0, 16(%ebx)
	.loc 1 4156 0
	jmp	.L92
.LVL61:
.L100:
	.loc 1 4159 0
	movl	%ebx, %eax
	call	bt_conn_reset_rx_state
.LVL62:
	jmp	.L102
.LVL63:
.L92:
	.loc 1 4164 0
	movl	8(%esi), %eax
	.loc 1 4165 0
	movzwl	12(%esi), %edx
	movzwl	(%eax), %eax
	addl	$4, %eax
	cmpl	%edx, %eax
	je	.L96
.LVL64:
.L102:
	.loc 1 4167 0
	movl	%esi, 8(%ebp)
	.loc 1 4172 0
	leal	-12(%ebp), %esp
	popl	%ebx
	.cfi_remember_state
	.cfi_restore 3
	popl	%esi
	.cfi_restore 6
	popl	%edi
	.cfi_restore 7
	popl	%ebp
	.cfi_restore 5
	.cfi_def_cfa 4, 4
	.loc 1 4167 0
	jmp	net_buf_unref
.LVL65:
.L96:
	.cfi_restore_state
	.loc 1 4171 0
	movl	%esi, 12(%ebp)
.LVL66:
	movl	%ebx, 8(%ebp)
	.loc 1 4172 0
	leal	-12(%ebp), %esp
	popl	%ebx
	.cfi_remember_state
	.cfi_restore 3
	popl	%esi
	.cfi_restore 6
.LVL67:
	popl	%edi
	.cfi_restore 7
	popl	%ebp
	.cfi_restore 5
	.cfi_def_cfa 4, 4
	.loc 1 4171 0
	jmp	bt_l2cap_recv
.LVL68:
.L87:
	.cfi_restore_state
	.loc 1 4172 0
	leal	-12(%ebp), %esp
	popl	%ebx
	.cfi_restore 3
	popl	%esi
	.cfi_restore 6
	popl	%edi
	.cfi_restore 7
	popl	%ebp
	.cfi_restore 5
	.cfi_def_cfa 4, 4
	ret
	.cfi_endproc
.LFE95:
	.size	bt_conn_recv, .-bt_conn_recv
	.section	.text.unlikely.bt_conn_recv
.LCOLDE11:
	.section	.text.bt_conn_recv
.LHOTE11:
	.section	.text.unlikely.bt_conn_send_cb,"ax",@progbits
.LCOLDB12:
	.section	.text.bt_conn_send_cb,"ax",@progbits
.LHOTB12:
	.globl	bt_conn_send_cb
	.type	bt_conn_send_cb, @function
bt_conn_send_cb:
.LFB96:
	.loc 1 4175 0
	.cfi_startproc
.LVL69:
	pushl	%ebp
	.cfi_def_cfa_offset 8
	.cfi_offset 5, -8
	movl	%esp, %ebp
	.cfi_def_cfa_register 5
	pushl	%esi
	pushl	%ebx
	.cfi_offset 6, -12
	.cfi_offset 3, -16
	.loc 1 4175 0
	movl	12(%ebp), %ebx
	movl	8(%ebp), %esi
	.loc 1 4178 0
	subl	$12, %esp
	movzbl	6(%ebx), %eax
	pushl	%eax
	call	net_buf_pool_get
.LVL70:
	.loc 1 4179 0
	addl	$16, %esp
	cmpw	$3, 18(%eax)
	ja	.L104
	.loc 1 4181 0
	subl	$12, %esp
	pushl	%ebx
	call	net_buf_unref
.LVL71:
	.loc 1 4182 0
	addl	$16, %esp
	movl	$-22, %eax
	jmp	.L105
.LVL72:
.L104:
	.loc 1 4184 0
	cmpb	$3, 12(%esi)
	je	.L106
	.loc 1 4186 0
	subl	$12, %esp
	pushl	%ebx
	call	net_buf_unref
.LVL73:
	.loc 1 4187 0
	addl	$16, %esp
	movl	$-57, %eax
	jmp	.L105
.LVL74:
.L106:
	.loc 1 4189 0
	movzwl	14(%ebx), %eax
.LVL75:
	movl	16(%ebp), %edx
	.loc 1 4190 0
	addl	$40, %esi
	.loc 1 4189 0
	leal	19(%ebx,%eax), %eax
	andl	$-4, %eax
	movl	%edx, (%eax)
	.loc 1 4190 0
	pushl	%eax
	pushl	%eax
	pushl	%ebx
	pushl	%esi
	call	net_buf_put
.LVL76:
	.loc 1 4191 0
	movl	$g_poll_sem, (%esp)
	call	k_sem_give
.LVL77:
	.loc 1 4192 0
	addl	$16, %esp
	xorl	%eax, %eax
.L105:
	.loc 1 4193 0
	leal	-8(%ebp), %esp
	popl	%ebx
	.cfi_restore 3
	popl	%esi
	.cfi_restore 6
	popl	%ebp
	.cfi_restore 5
	.cfi_def_cfa 4, 4
	ret
	.cfi_endproc
.LFE96:
	.size	bt_conn_send_cb, .-bt_conn_send_cb
	.section	.text.unlikely.bt_conn_send_cb
.LCOLDE12:
	.section	.text.bt_conn_send_cb
.LHOTE12:
	.section	.text.unlikely.bt_conn_notify_tx,"ax",@progbits
.LCOLDB13:
	.section	.text.bt_conn_notify_tx,"ax",@progbits
.LHOTB13:
	.globl	bt_conn_notify_tx
	.type	bt_conn_notify_tx, @function
bt_conn_notify_tx:
.LFB98:
	.loc 1 4202 0
	.cfi_startproc
.LVL78:
	pushl	%ebp
	.cfi_def_cfa_offset 8
	.cfi_offset 5, -8
	movl	%esp, %ebp
	.cfi_def_cfa_register 5
	pushl	%edi
	pushl	%esi
	pushl	%ebx
	subl	$12, %esp
	.cfi_offset 7, -12
	.cfi_offset 6, -16
	.cfi_offset 3, -20
	.loc 1 4202 0
	movl	8(%ebp), %esi
	.loc 1 4205 0
	leal	28(%esi), %edi
.L111:
	pushl	%eax
	pushl	%eax
	pushl	$0
	pushl	%edi
	call	k_queue_get
.LVL79:
	addl	$16, %esp
	testl	%eax, %eax
	movl	%eax, %ebx
.LVL80:
	je	.L118
	.loc 1 4206 0
	movl	4(%ebx), %eax
.LVL81:
	testl	%eax, %eax
	je	.L110
	.loc 1 4207 0
	subl	$12, %esp
	pushl	%esi
	call	*%eax
.LVL82:
	addl	$16, %esp
.L110:
.LVL83:
.LBB69:
.LBB70:
.LBB71:
.LBB72:
	.loc 1 109 0
	cmpl	$0, free_tx+4
	.loc 1 107 0
	movl	free_tx, %eax
.LBE72:
.LBE71:
	.loc 1 4196 0
	movl	$0, 4(%ebx)
.LVL84:
.LBB74:
.LBB73:
	.loc 1 107 0
	movl	%eax, (%ebx)
	.loc 1 108 0
	movl	%ebx, free_tx
	.loc 1 109 0
	jne	.L111
	.loc 1 110 0
	movl	%ebx, free_tx+4
	jmp	.L111
.LVL85:
.L118:
.LBE73:
.LBE74:
.LBE70:
.LBE69:
	.loc 1 4211 0
	leal	-12(%ebp), %esp
	popl	%ebx
	.cfi_restore 3
	popl	%esi
	.cfi_restore 6
	popl	%edi
	.cfi_restore 7
	popl	%ebp
	.cfi_restore 5
	.cfi_def_cfa 4, 4
	ret
	.cfi_endproc
.LFE98:
	.size	bt_conn_notify_tx, .-bt_conn_notify_tx
	.section	.text.unlikely.bt_conn_notify_tx
.LCOLDE13:
	.section	.text.bt_conn_notify_tx
.LHOTE13:
	.section	.text.unlikely.send_frag,"ax",@progbits
.LCOLDB14:
	.section	.text.send_frag,"ax",@progbits
.LHOTB14:
	.type	send_frag, @function
send_frag:
.LFB102:
	.loc 1 4263 0
	.cfi_startproc
.LVL86:
	pushl	%ebp
	.cfi_def_cfa_offset 8
	.cfi_offset 5, -8
	movl	%esp, %ebp
	.cfi_def_cfa_register 5
	pushl	%edi
	pushl	%esi
	pushl	%ebx
	.cfi_offset 7, -12
	.cfi_offset 6, -16
	.cfi_offset 3, -20
	movl	%eax, %esi
	movl	%edx, %edi
	movl	%ecx, %ebx
	subl	$36, %esp
	.loc 1 4263 0
	movl	8(%ebp), %eax
.LVL87:
	.loc 1 4269 0
	pushl	$-1
	pushl	$bt_dev+132
	.loc 1 4263 0
	movl	%eax, -28(%ebp)
	.loc 1 4269 0
	call	k_sem_take
.LVL88:
.LBB105:
.LBB106:
	.loc 1 4216 0
	movl	$conns+60, (%esp)
	call	atomic_get
.LVL89:
	addl	$16, %esp
	testl	%eax, %eax
	je	.L120
	.loc 1 4219 0
	movb	conns+12, %al
	subl	$3, %eax
	cmpb	$1, %al
	ja	.L120
	.loc 1 4221 0
	subl	$12, %esp
	pushl	$conns
	call	bt_conn_notify_tx
.LVL90:
	addl	$16, %esp
.L120:
.LVL91:
.LBE106:
.LBE105:
	.loc 1 4271 0
	cmpb	$3, 12(%esi)
	jne	.L122
	.loc 1 4274 0
	pushl	%eax
	pushl	%eax
	leal	8(%edi), %eax
	pushl	$4
	.loc 1 4275 0
	sall	$12, %ebx
	.loc 1 4274 0
	pushl	%eax
	call	net_buf_simple_push
.LVL92:
	.loc 1 4275 0
	orl	(%esi), %ebx
.LBB107:
.LBB108:
.LBB109:
.LBB110:
	.loc 1 162 0
	addl	$16, %esp
.LBE110:
.LBE109:
.LBE108:
.LBE107:
	.loc 1 4275 0
	movw	%bx, (%eax)
	.loc 1 4276 0
	movl	12(%edi), %ecx
	leal	-4(%ecx), %edx
	movw	%dx, 2(%eax)
.LVL93:
.LBB116:
.LBB117:
	.loc 1 2815 0
	movzwl	14(%edi), %eax
.LVL94:
	leal	19(%edi,%eax), %eax
	andl	$-4, %eax
.LVL95:
.LBE117:
.LBE116:
	.loc 1 4277 0
	movl	(%eax), %edx
.LVL96:
.LBB118:
.LBB119:
	.loc 1 3034 0
	movb	$2, (%eax)
.LVL97:
.LBE119:
.LBE118:
.LBB120:
.LBB115:
.LBB112:
.LBB111:
	.loc 1 160 0
	movl	free_tx, %ebx
.LVL98:
	.loc 1 162 0
	cmpl	free_tx+4, %ebx
	.loc 1 161 0
	movl	(%ebx), %eax
	movl	%eax, free_tx
	.loc 1 162 0
	jne	.L123
	.loc 1 163 0
	movl	%eax, free_tx+4
.L123:
.LVL99:
.LBE111:
.LBE112:
	.loc 1 4238 0
	movl	%edx, 4(%ebx)
	.loc 1 4239 0
	call	irq_lock
.LVL100:
.LBB113:
.LBB114:
	.loc 1 119 0
	movl	24(%esi), %edx
	.loc 1 116 0
	movl	$0, (%ebx)
	.loc 1 119 0
	testl	%edx, %edx
	jne	.L124
	.loc 1 120 0
	movl	%ebx, 24(%esi)
	.loc 1 121 0
	movl	%ebx, 20(%esi)
	jmp	.L125
.L124:
	.loc 1 123 0
	movl	%ebx, (%edx)
	.loc 1 124 0
	movl	%ebx, 24(%esi)
.L125:
.LVL101:
.LBE114:
.LBE113:
	.loc 1 4241 0
	subl	$12, %esp
	pushl	%eax
	call	irq_unlock
.LVL102:
.LBE115:
.LBE120:
	.loc 1 4280 0
	movl	%edi, (%esp)
	call	bt_send
.LVL103:
	.loc 1 4281 0
	addl	$16, %esp
	testl	%eax, %eax
	.loc 1 4287 0
	movb	$1, %dl
	.loc 1 4281 0
	je	.L126
.LVL104:
.LBB121:
.LBB122:
	.loc 1 4247 0
	call	irq_lock
.LVL105:
	movl	20(%esi), %edx
.LVL106:
.LBB123:
.LBB124:
	.loc 1 197 0
	xorl	%ecx, %ecx
.LVL107:
.L127:
	.loc 1 201 0
	testl	%edx, %edx
	je	.L133
	.loc 1 202 0
	cmpl	%edx, %ebx
	jne	.L128
.LVL108:
.LBB125:
.LBB126:
	.loc 1 177 0
	testl	%ecx, %ecx
	movl	(%ebx), %edx
.LVL109:
	jne	.L129
	.loc 1 179 0
	cmpl	24(%esi), %ebx
	.loc 1 178 0
	movl	%edx, 20(%esi)
	.loc 1 179 0
	jne	.L131
	.loc 1 180 0
	movl	%edx, 24(%esi)
	jmp	.L131
.L129:
	.loc 1 184 0
	cmpl	24(%esi), %ebx
	.loc 1 183 0
	movl	%edx, (%ecx)
	.loc 1 184 0
	jne	.L131
	.loc 1 185 0
	movl	%ecx, 24(%esi)
.L131:
	.loc 1 188 0
	movl	$0, (%ebx)
	jmp	.L133
.LVL110:
.L128:
.LBE126:
.LBE125:
.LBB127:
.LBB128:
.LBB129:
	.loc 1 96 0
	movl	%edx, %ecx
	movl	(%edx), %edx
.LVL111:
	jmp	.L127
.LVL112:
.L133:
.LBE129:
.LBE128:
.LBE127:
.LBE124:
.LBE123:
	.loc 1 4249 0
	subl	$12, %esp
	pushl	%eax
	call	irq_unlock
.LVL113:
.LBB130:
.LBB131:
.LBB132:
.LBB133:
	.loc 1 109 0
	addl	$16, %esp
	cmpl	$0, free_tx+4
	.loc 1 107 0
	movl	free_tx, %eax
.LBE133:
.LBE132:
	.loc 1 4196 0
	movl	$0, 4(%ebx)
.LVL114:
.LBB135:
.LBB134:
	.loc 1 107 0
	movl	%eax, (%ebx)
	.loc 1 108 0
	movl	%ebx, free_tx
	.loc 1 109 0
	jne	.L122
	.loc 1 110 0
	movl	%ebx, free_tx+4
.LVL115:
.L122:
.LBE134:
.LBE135:
.LBE131:
.LBE130:
.LBE122:
.LBE121:
	.loc 1 4290 0
	subl	$12, %esp
	pushl	$bt_dev+132
	call	k_sem_give
.LVL116:
	.loc 1 4291 0
	addl	$16, %esp
	.loc 1 4295 0
	xorl	%edx, %edx
	.loc 1 4291 0
	cmpb	$0, -28(%ebp)
	je	.L126
	.loc 1 4292 0
	subl	$12, %esp
	movb	%dl, -28(%ebp)
	pushl	%edi
	call	net_buf_unref
.LVL117:
	movb	-28(%ebp), %dl
	addl	$16, %esp
.L126:
	.loc 1 4297 0
	leal	-12(%ebp), %esp
	movb	%dl, %al
	popl	%ebx
	.cfi_restore 3
	popl	%esi
	.cfi_restore 6
.LVL118:
	popl	%edi
	.cfi_restore 7
.LVL119:
	popl	%ebp
	.cfi_restore 5
	.cfi_def_cfa 4, 4
	ret
	.cfi_endproc
.LFE102:
	.size	send_frag, .-send_frag
	.section	.text.unlikely.send_frag
.LCOLDE14:
	.section	.text.send_frag
.LHOTE14:
	.section	.text.unlikely.conn_cleanup,"ax",@progbits
.LCOLDB15:
	.section	.text.conn_cleanup,"ax",@progbits
.LHOTB15:
	.type	conn_cleanup, @function
conn_cleanup:
.LFB106:
	.loc 1 4369 0
	.cfi_startproc
.LVL120:
	pushl	%ebp
	.cfi_def_cfa_offset 8
	.cfi_offset 5, -8
	movl	%esp, %ebp
	.cfi_def_cfa_register 5
	pushl	%esi
	.cfi_offset 6, -12
	.loc 1 4371 0
	leal	40(%eax), %esi
	.loc 1 4369 0
	pushl	%ebx
	.cfi_offset 3, -16
	.loc 1 4369 0
	movl	%eax, %ebx
.LVL121:
.L144:
	.loc 1 4371 0
	pushl	%eax
	pushl	%eax
	pushl	$0
	pushl	%esi
	call	net_buf_get
.LVL122:
	addl	$16, %esp
	testl	%eax, %eax
	je	.L147
	.loc 1 4372 0
	subl	$12, %esp
	pushl	%eax
	call	net_buf_unref
.LVL123:
	addl	$16, %esp
	jmp	.L144
.LVL124:
.L147:
	.loc 1 4375 0
	subl	$12, %esp
	pushl	%ebx
	call	bt_conn_notify_tx
.LVL125:
	.loc 1 4376 0
	movl	%ebx, %eax
.LBB136:
.LBB137:
	.loc 1 4637 0
	addl	$60, %ebx
.LVL126:
.LBE137:
.LBE136:
	.loc 1 4376 0
	call	bt_conn_reset_rx_state
.LVL127:
.LBB139:
.LBB138:
	.loc 1 4637 0
	movl	%ebx, (%esp)
	call	atomic_dec
.LVL128:
.LBE138:
.LBE139:
	.loc 1 4378 0
	addl	$16, %esp
	leal	-8(%ebp), %esp
	popl	%ebx
	.cfi_restore 3
.LVL129:
	popl	%esi
	.cfi_restore 6
.LVL130:
	popl	%ebp
	.cfi_restore 5
	.cfi_def_cfa 4, 4
	ret
	.cfi_endproc
.LFE106:
	.size	conn_cleanup, .-conn_cleanup
	.section	.text.unlikely.conn_cleanup
.LCOLDE15:
	.section	.text.conn_cleanup
.LHOTE15:
	.section	.text.unlikely.bt_conn_prepare_events,"ax",@progbits
.LCOLDB16:
	.section	.text.bt_conn_prepare_events,"ax",@progbits
.LHOTB16:
	.globl	bt_conn_prepare_events
	.type	bt_conn_prepare_events, @function
bt_conn_prepare_events:
.LFB107:
	.loc 1 4380 0
	.cfi_startproc
.LVL131:
	pushl	%ebp
	.cfi_def_cfa_offset 8
	.cfi_offset 5, -8
	movl	%esp, %ebp
	.cfi_def_cfa_register 5
	pushl	%ebx
	pushl	%edx
	.cfi_offset 3, -12
	.loc 1 4380 0
	movl	8(%ebp), %ebx
	.loc 1 4384 0
	pushl	$conn_change
	pushl	$0
	pushl	$1
	.loc 1 4383 0
	movl	$0, conn_change+8
.LVL132:
	.loc 1 4384 0
	pushl	%ebx
	call	k_poll_event_init
.LVL133:
.LBB143:
	.loc 1 4388 0
	movl	$conns+60, (%esp)
	call	atomic_get
.LVL134:
	addl	$16, %esp
	testl	%eax, %eax
	je	.L157
	.loc 1 4391 0
	cmpb	$0, conns+12
	jne	.L151
.LVL135:
.LBB144:
.LBB145:
	.loc 1 857 0 discriminator 1
	pushl	%eax
	pushl	%eax
	pushl	$-65
	pushl	$conns+4
.LVL136:
	call	atomic_and
.LVL137:
.LBE145:
.LBE144:
	.loc 1 4391 0 discriminator 1
	addl	$16, %esp
	testb	$64, %al
	je	.L151
	.loc 1 4393 0
	movl	$conns, %eax
	call	conn_cleanup
.LVL138:
.L157:
	.loc 1 4394 0
	movl	$1, %eax
	jmp	.L150
.L151:
	.loc 1 4396 0
	cmpb	$3, conns+12
	jne	.L157
	.loc 1 4400 0
	leal	20(%ebx), %eax
	pushl	$conns+28
	pushl	$0
	pushl	$3
	pushl	%eax
	call	k_poll_event_init
.LVL139:
	.loc 1 4405 0
	leal	40(%ebx), %eax
	.loc 1 4404 0
	movb	$1, 32(%ebx)
	.loc 1 4405 0
	pushl	$conns+40
	pushl	$0
	pushl	$3
	pushl	%eax
	call	k_poll_event_init
.LVL140:
	.loc 1 4409 0
	movb	$2, 52(%ebx)
	addl	$32, %esp
	movl	$3, %eax
.LVL141:
.L150:
.LBE143:
	.loc 1 4412 0 discriminator 2
	movl	-4(%ebp), %ebx
	leave
	.cfi_restore 5
	.cfi_restore 3
	.cfi_def_cfa 4, 4
	ret
	.cfi_endproc
.LFE107:
	.size	bt_conn_prepare_events, .-bt_conn_prepare_events
	.section	.text.unlikely.bt_conn_prepare_events
.LCOLDE16:
	.section	.text.bt_conn_prepare_events
.LHOTE16:
	.section	.text.unlikely.bt_conn_add_le,"ax",@progbits
.LCOLDB17:
	.section	.text.bt_conn_add_le,"ax",@progbits
.LHOTB17:
	.globl	bt_conn_add_le
	.type	bt_conn_add_le, @function
bt_conn_add_le:
.LFB109:
	.loc 1 4430 0
	.cfi_startproc
.LVL142:
	pushl	%ebp
	.cfi_def_cfa_offset 8
	.cfi_offset 5, -8
	movl	%esp, %ebp
	.cfi_def_cfa_register 5
	pushl	%edi
	pushl	%esi
	.cfi_offset 7, -12
	.cfi_offset 6, -16
	.loc 1 4430 0
	movl	8(%ebp), %esi
.LBB150:
.LBB151:
	.loc 1 3967 0
	subl	$12, %esp
	pushl	$conns+60
	call	atomic_get
.LVL143:
	addl	$16, %esp
	testl	%eax, %eax
	je	.L159
.LBE151:
.LBE150:
	.loc 1 4434 0
	xorl	%eax, %eax
	jmp	.L161
.L159:
.LVL144:
.LBB154:
.LBB152:
	.loc 1 3977 0
	movl	$conns, %edx
	movl	$36, %ecx
	movl	%edx, %edi
	rep stosl
	.loc 1 3978 0
	pushl	%eax
	pushl	%eax
	pushl	$1
	pushl	$conns+60
	call	atomic_set
.LVL145:
.LBE152:
.LBE154:
.LBB155:
.LBB156:
	.loc 1 1338 0
	movl	$conns+64, %eax
.LVL146:
	movl	$7, %ecx
	movl	%eax, %edi
	rep movsb
.LVL147:
.LBE156:
.LBE155:
	.loc 1 4438 0
	movb	$1, conns+8
	.loc 1 4439 0
	movb	$1, conns+9
	.loc 1 4440 0
	movb	$0, conns+2
	.loc 1 4441 0
	movw	$24, conns+88
	.loc 1 4443 0
	popl	%edx
	popl	%ecx
	pushl	$le_conn_update
	pushl	$conns+108
	.loc 1 4442 0
	movw	$40, conns+90
	.loc 1 4443 0
	call	k_delayed_work_init
.LVL148:
	.loc 1 4444 0
	addl	$16, %esp
.LBB157:
.LBB153:
	.loc 1 3968 0
	movl	$conns, %eax
.L161:
.LBE153:
.LBE157:
	.loc 1 4445 0
	leal	-8(%ebp), %esp
	popl	%esi
	.cfi_restore 6
	popl	%edi
	.cfi_restore 7
	popl	%ebp
	.cfi_restore 5
	.cfi_def_cfa 4, 4
	ret
	.cfi_endproc
.LFE109:
	.size	bt_conn_add_le, .-bt_conn_add_le
	.section	.text.unlikely.bt_conn_add_le
.LCOLDE17:
	.section	.text.bt_conn_add_le
.LHOTE17:
	.section	.text.unlikely.bt_conn_set_state,"ax",@progbits
.LCOLDB18:
	.section	.text.bt_conn_set_state,"ax",@progbits
.LHOTB18:
	.globl	bt_conn_set_state
	.type	bt_conn_set_state, @function
bt_conn_set_state:
.LFB111:
	.loc 1 4468 0
	.cfi_startproc
.LVL149:
	pushl	%ebp
	.cfi_def_cfa_offset 8
	.cfi_offset 5, -8
	movl	%esp, %ebp
	.cfi_def_cfa_register 5
	pushl	%esi
	pushl	%ebx
	subl	$16, %esp
	.cfi_offset 6, -12
	.cfi_offset 3, -16
	.loc 1 4468 0
	movl	8(%ebp), %ebx
	movl	12(%ebp), %eax
	.loc 1 4471 0
	movb	12(%ebx), %dl
	cmpb	%al, %dl
	je	.L163
.LVL150:
	.loc 1 4477 0
	testb	%dl, %dl
	.loc 1 4476 0
	movb	%al, 12(%ebx)
	.loc 1 4477 0
	jne	.L166
.LBB184:
.LBB185:
	.loc 1 4631 0
	leal	60(%ebx), %eax
	subl	$12, %esp
	movb	%dl, -9(%ebp)
.LVL151:
	pushl	%eax
	call	atomic_inc
.LVL152:
	movb	-9(%ebp), %dl
	addl	$16, %esp
.LVL153:
.L166:
.LBE185:
.LBE184:
	.loc 1 4490 0
	movb	12(%ebx), %al
	testb	%al, %al
	je	.L168
	cmpb	$3, %al
	jne	.L163
	.loc 1 4492 0
	cmpb	$2, 2(%ebx)
	je	.L163
	.loc 1 4495 0
	leal	40(%ebx), %eax
	subl	$12, %esp
	pushl	%eax
	call	k_queue_init
.LVL154:
	.loc 1 4496 0
	leal	28(%ebx), %eax
	movl	%eax, (%esp)
	call	k_queue_init
.LVL155:
	.loc 1 4497 0
	popl	%ecx
	popl	%esi
	pushl	$0
	pushl	$conn_change
	call	k_poll_signal
.LVL156:
.LBB186:
.LBB187:
	.loc 1 73 0
	movl	$0, 52(%ebx)
	.loc 1 76 0
	movl	$0, 56(%ebx)
.LVL157:
.LBE187:
.LBE186:
	.loc 1 4499 0
	movl	%ebx, (%esp)
	call	bt_l2cap_connected
.LVL158:
	.loc 1 4500 0
	addl	$16, %esp
	.loc 1 4545 0
	leal	-8(%ebp), %esp
	.loc 1 4500 0
	movl	%ebx, %eax
	.loc 1 4545 0
	popl	%ebx
	.cfi_remember_state
	.cfi_restore 3
	popl	%esi
	.cfi_restore 6
	popl	%ebp
	.cfi_restore 5
	.cfi_def_cfa 4, 4
	.loc 1 4500 0
	jmp	notify_connected
.LVL159:
.L168:
	.cfi_restore_state
	.loc 1 4503 0
	cmpb	$2, 2(%ebx)
	je	.L190
	.loc 1 4507 0
	leal	-3(%edx), %eax
	cmpb	$1, %al
	ja	.L172
	.loc 1 4509 0
	subl	$12, %esp
	pushl	%ebx
	call	bt_l2cap_disconnected
.LVL160:
.LBB188:
.LBB189:
	.loc 1 3888 0
	movl	callback_list, %esi
.LVL161:
	addl	$16, %esp
.L173:
	testl	%esi, %esi
	je	.L179
	.loc 1 3889 0
	movl	4(%esi), %eax
	testl	%eax, %eax
	je	.L174
	.loc 1 3890 0
	pushl	%edx
	pushl	%edx
	movzbl	11(%ebx), %edx
	pushl	%edx
	pushl	%ebx
	call	*%eax
.LVL162:
	addl	$16, %esp
.L174:
	.loc 1 3888 0
	movl	24(%esi), %esi
.LVL163:
	jmp	.L173
.LVL164:
.L192:
.LBE189:
.LBE188:
.LBB190:
.LBB191:
.LBB192:
.LBB193:
.LBB194:
.LBB195:
	.loc 1 162 0
	cmpl	24(%ebx), %esi
	.loc 1 161 0
	movl	(%esi), %edx
	movl	%edx, 20(%ebx)
	.loc 1 162 0
	jne	.L176
	.loc 1 163 0
	movl	%edx, 24(%ebx)
.LVL165:
.L176:
.LBE195:
.LBE194:
.LBE193:
.LBE192:
	.loc 1 4453 0
	subl	$12, %esp
	pushl	%eax
	call	irq_unlock
.LVL166:
	.loc 1 4454 0
	addl	$16, %esp
	testl	%esi, %esi
	je	.L177
.LVL167:
.LBB197:
.LBB198:
.LBB199:
.LBB200:
	.loc 1 109 0
	cmpl	$0, free_tx+4
	.loc 1 107 0
	movl	free_tx, %eax
.LBE200:
.LBE199:
	.loc 1 4196 0
	movl	$0, 4(%esi)
.LVL168:
.LBB202:
.LBB201:
	.loc 1 107 0
	movl	%eax, (%esi)
	.loc 1 108 0
	movl	%esi, free_tx
	.loc 1 109 0
	jne	.L178
	.loc 1 110 0
	movl	%esi, free_tx+4
.L178:
.LVL169:
.LBE201:
.LBE202:
.LBE198:
.LBE197:
	.loc 1 4464 0
	subl	$12, %esp
	pushl	$bt_dev+132
	call	k_sem_give
.LVL170:
	addl	$16, %esp
.LVL171:
.L179:
	.loc 1 4451 0
	call	irq_lock
.LVL172:
	movl	20(%ebx), %esi
.LVL173:
.LBB203:
.LBB196:
	.loc 1 171 0
	testl	%esi, %esi
	jne	.L192
	jmp	.L176
.LVL174:
.L177:
.LBE196:
.LBE203:
.LBE191:
.LBE190:
	.loc 1 4512 0
	cmpb	$0, 2(%ebx)
	jne	.L180
	.loc 1 4513 0
	leal	108(%ebx), %eax
	subl	$12, %esp
	pushl	%eax
	call	k_delayed_work_cancel
.LVL175:
	addl	$16, %esp
.L180:
.LVL176:
	.loc 1 4515 0
	addl	$4, %ebx
.LVL177:
.LBB204:
.LBB205:
	.loc 1 875 0
	pushl	%eax
	pushl	%eax
	pushl	$64
	pushl	%ebx
	call	atomic_or
.LVL178:
.LBE205:
.LBE204:
	.loc 1 4516 0
	movl	$0, 12(%ebp)
	movl	$conn_change, 8(%ebp)
.LVL179:
	addl	$16, %esp
	.loc 1 4545 0
	leal	-8(%ebp), %esp
	popl	%ebx
	.cfi_remember_state
	.cfi_restore 3
.LVL180:
	popl	%esi
	.cfi_restore 6
	popl	%ebp
	.cfi_restore 5
	.cfi_def_cfa 4, 4
	.loc 1 4516 0
	jmp	k_poll_signal
.LVL181:
.L172:
	.cfi_restore_state
	.loc 1 4517 0
	cmpb	$2, %dl
	jne	.L181
.L191:
	.loc 1 4518 0
	movl	%ebx, %eax
	call	notify_connected
.LVL182:
.L190:
.LBB206:
.LBB207:
	.loc 1 4637 0
	addl	$60, %ebx
.LVL183:
	movl	%ebx, 8(%ebp)
.LVL184:
.LBE207:
.LBE206:
	.loc 1 4545 0
	leal	-8(%ebp), %esp
	popl	%ebx
	.cfi_remember_state
	.cfi_restore 3
.LVL185:
	popl	%esi
	.cfi_restore 6
	popl	%ebp
	.cfi_restore 5
	.cfi_def_cfa 4, 4
.LBB209:
.LBB208:
	.loc 1 4637 0
	jmp	atomic_dec
.LVL186:
.L181:
	.cfi_restore_state
.LBE208:
.LBE209:
	.loc 1 4520 0
	decb	%dl
	jne	.L163
	.loc 1 4521 0
	cmpb	$0, 11(%ebx)
	je	.L190
	jmp	.L191
.L163:
	.loc 1 4545 0
	leal	-8(%ebp), %esp
	popl	%ebx
	.cfi_restore 3
	popl	%esi
	.cfi_restore 6
	popl	%ebp
	.cfi_restore 5
	.cfi_def_cfa 4, 4
	ret
	.cfi_endproc
.LFE111:
	.size	bt_conn_set_state, .-bt_conn_set_state
	.section	.text.unlikely.bt_conn_set_state
.LCOLDE18:
	.section	.text.bt_conn_set_state
.LHOTE18:
	.section	.text.unlikely.bt_conn_lookup_handle,"ax",@progbits
.LCOLDB19:
	.section	.text.bt_conn_lookup_handle,"ax",@progbits
.LHOTB19:
	.globl	bt_conn_lookup_handle
	.type	bt_conn_lookup_handle, @function
bt_conn_lookup_handle:
.LFB112:
	.loc 1 4547 0
	.cfi_startproc
.LVL187:
	pushl	%ebp
	.cfi_def_cfa_offset 8
	.cfi_offset 5, -8
	movl	%esp, %ebp
	.cfi_def_cfa_register 5
	pushl	%ebx
	subl	$16, %esp
	.cfi_offset 3, -12
	.loc 1 4547 0
	movl	8(%ebp), %ebx
	.loc 1 4550 0
	pushl	$conns+60
	call	atomic_get
.LVL188:
	addl	$16, %esp
	.loc 1 4562 0
	xorl	%ecx, %ecx
	.loc 1 4550 0
	testl	%eax, %eax
	je	.L194
	.loc 1 4553 0
	movb	conns+12, %al
	leal	-3(%eax), %edx
	cmpb	$1, %dl
	ja	.L194
	.loc 1 4557 0
	cmpw	%bx, conns
	jne	.L194
.LVL189:
.LBB210:
.LBB211:
	.loc 1 4631 0
	subl	$12, %esp
	pushl	$conns+60
	call	atomic_inc
.LVL190:
.LBE211:
.LBE210:
	.loc 1 4558 0
	addl	$16, %esp
	movl	$conns, %ecx
.L194:
	.loc 1 4564 0
	movl	%ecx, %eax
	movl	-4(%ebp), %ebx
	leave
	.cfi_restore 5
	.cfi_restore 3
	.cfi_def_cfa 4, 4
	ret
	.cfi_endproc
.LFE112:
	.size	bt_conn_lookup_handle, .-bt_conn_lookup_handle
	.section	.text.unlikely.bt_conn_lookup_handle
.LCOLDE19:
	.section	.text.bt_conn_lookup_handle
.LHOTE19:
	.section	.text.unlikely.bt_conn_addr_le_cmp,"ax",@progbits
.LCOLDB20:
	.section	.text.bt_conn_addr_le_cmp,"ax",@progbits
.LHOTB20:
	.globl	bt_conn_addr_le_cmp
	.type	bt_conn_addr_le_cmp, @function
bt_conn_addr_le_cmp:
.LFB113:
	.loc 1 4566 0
	.cfi_startproc
.LVL191:
	pushl	%ebp
	.cfi_def_cfa_offset 8
	.cfi_offset 5, -8
	movl	%esp, %ebp
	.cfi_def_cfa_register 5
	pushl	%esi
	pushl	%ebx
	.cfi_offset 6, -12
	.cfi_offset 3, -16
	.loc 1 4566 0
	movl	8(%ebp), %ebx
	movl	12(%ebp), %esi
.LVL192:
.LBB220:
.LBB221:
	.loc 1 1330 0
	pushl	%ecx
	pushl	$7
	leal	64(%ebx), %eax
.LVL193:
	pushl	%eax
	pushl	%esi
	call	memcmp
.LVL194:
	addl	$16, %esp
.LVL195:
.LBE221:
.LBE220:
	.loc 1 4567 0
	testl	%eax, %eax
	je	.L201
.LVL196:
.LBB222:
.LBB223:
	.loc 1 4570 0
	cmpb	$0, 3(%ebx)
	jne	.L202
.LVL197:
.LBB224:
.LBB225:
	.loc 1 1330 0
	addl	$78, %ebx
.LVL198:
	pushl	%edx
	pushl	$7
	jmp	.L207
.LVL199:
.L202:
.LBE225:
.LBE224:
.LBB226:
.LBB227:
	pushl	%eax
	pushl	$7
	addl	$71, %ebx
.LVL200:
.L207:
	pushl	%ebx
	pushl	%esi
	call	memcmp
.LVL201:
	addl	$16, %esp
.LVL202:
.L201:
.LBE227:
.LBE226:
.LBE223:
.LBE222:
	.loc 1 4574 0
	leal	-8(%ebp), %esp
	popl	%ebx
	.cfi_restore 3
	popl	%esi
	.cfi_restore 6
	popl	%ebp
	.cfi_restore 5
	.cfi_def_cfa 4, 4
	ret
	.cfi_endproc
.LFE113:
	.size	bt_conn_addr_le_cmp, .-bt_conn_addr_le_cmp
	.section	.text.unlikely.bt_conn_addr_le_cmp
.LCOLDE20:
	.section	.text.bt_conn_addr_le_cmp
.LHOTE20:
	.section	.text.unlikely.bt_conn_lookup_addr_le,"ax",@progbits
.LCOLDB21:
	.section	.text.bt_conn_lookup_addr_le,"ax",@progbits
.LHOTB21:
	.globl	bt_conn_lookup_addr_le
	.type	bt_conn_lookup_addr_le, @function
bt_conn_lookup_addr_le:
.LFB114:
	.loc 1 4576 0
	.cfi_startproc
.LVL203:
	pushl	%ebp
	.cfi_def_cfa_offset 8
	.cfi_offset 5, -8
	movl	%esp, %ebp
	.cfi_def_cfa_register 5
	pushl	%ebx
	.cfi_offset 3, -12
	.loc 1 4590 0
	xorl	%ebx, %ebx
	.loc 1 4576 0
	subl	$16, %esp
	.loc 1 4579 0
	pushl	$conns+60
	call	atomic_get
.LVL204:
	addl	$16, %esp
	testl	%eax, %eax
	je	.L209
	.loc 1 4582 0
	cmpb	$0, conns+2
	jne	.L209
	.loc 1 4585 0
	pushl	%eax
	pushl	%eax
	pushl	8(%ebp)
	pushl	$conns
	call	bt_conn_addr_le_cmp
.LVL205:
	addl	$16, %esp
	testl	%eax, %eax
	jne	.L209
.LVL206:
.LBB228:
.LBB229:
	.loc 1 4631 0
	subl	$12, %esp
.LBE229:
.LBE228:
	.loc 1 4585 0
	movl	$conns, %ebx
.LBB231:
.LBB230:
	.loc 1 4631 0
	pushl	$conns+60
	call	atomic_inc
.LVL207:
.LBE230:
.LBE231:
	.loc 1 4586 0
	addl	$16, %esp
.L209:
	.loc 1 4592 0
	movl	%ebx, %eax
	movl	-4(%ebp), %ebx
	leave
	.cfi_restore 5
	.cfi_restore 3
	.cfi_def_cfa 4, 4
	ret
	.cfi_endproc
.LFE114:
	.size	bt_conn_lookup_addr_le, .-bt_conn_lookup_addr_le
	.section	.text.unlikely.bt_conn_lookup_addr_le
.LCOLDE21:
	.section	.text.bt_conn_lookup_addr_le
.LHOTE21:
	.section	.text.unlikely.bt_conn_lookup_state_le,"ax",@progbits
.LCOLDB22:
	.section	.text.bt_conn_lookup_state_le,"ax",@progbits
.LHOTB22:
	.globl	bt_conn_lookup_state_le
	.type	bt_conn_lookup_state_le, @function
bt_conn_lookup_state_le:
.LFB115:
	.loc 1 4595 0
	.cfi_startproc
.LVL208:
	pushl	%ebp
	.cfi_def_cfa_offset 8
	.cfi_offset 5, -8
	movl	%esp, %ebp
	.cfi_def_cfa_register 5
	pushl	%edi
	pushl	%esi
	pushl	%ebx
	.cfi_offset 7, -12
	.cfi_offset 6, -16
	.cfi_offset 3, -20
	.loc 1 4612 0
	xorl	%ebx, %ebx
	.loc 1 4595 0
	subl	$24, %esp
	.loc 1 4595 0
	movl	8(%ebp), %esi
	movl	12(%ebp), %edi
	.loc 1 4598 0
	pushl	$conns+60
	call	atomic_get
.LVL209:
	addl	$16, %esp
	testl	%eax, %eax
	je	.L216
	.loc 1 4601 0
	cmpb	$0, conns+2
	jne	.L216
	.loc 1 4604 0
	testl	%esi, %esi
	je	.L217
	.loc 1 4604 0 is_stmt 0 discriminator 1
	pushl	%eax
	pushl	%eax
	pushl	%esi
	pushl	$conns
	call	bt_conn_addr_le_cmp
.LVL210:
	addl	$16, %esp
	testl	%eax, %eax
	jne	.L216
.L217:
	.loc 1 4612 0 is_stmt 1
	xorl	%ebx, %ebx
	.loc 1 4607 0
	movl	%edi, %eax
	cmpb	%al, conns+12
	jne	.L216
.LVL211:
.LBB232:
.LBB233:
	.loc 1 4631 0
	subl	$12, %esp
.LBE233:
.LBE232:
	.loc 1 4608 0
	movl	$conns, %ebx
.LBB235:
.LBB234:
	.loc 1 4631 0
	pushl	$conns+60
	call	atomic_inc
.LVL212:
.LBE234:
.LBE235:
	.loc 1 4608 0
	addl	$16, %esp
.L216:
	.loc 1 4614 0
	leal	-12(%ebp), %esp
	movl	%ebx, %eax
	popl	%ebx
	.cfi_restore 3
	popl	%esi
	.cfi_restore 6
	popl	%edi
	.cfi_restore 7
	popl	%ebp
	.cfi_restore 5
	.cfi_def_cfa 4, 4
	ret
	.cfi_endproc
.LFE115:
	.size	bt_conn_lookup_state_le, .-bt_conn_lookup_state_le
	.section	.text.unlikely.bt_conn_lookup_state_le
.LCOLDE22:
	.section	.text.bt_conn_lookup_state_le
.LHOTE22:
	.section	.text.unlikely.bt_conn_ref,"ax",@progbits
.LCOLDB23:
	.section	.text.bt_conn_ref,"ax",@progbits
.LHOTB23:
	.globl	bt_conn_ref
	.type	bt_conn_ref, @function
bt_conn_ref:
.LFB117:
	.loc 1 4630 0
	.cfi_startproc
.LVL213:
	pushl	%ebp
	.cfi_def_cfa_offset 8
	.cfi_offset 5, -8
	movl	%esp, %ebp
	.cfi_def_cfa_register 5
	pushl	%ebx
	subl	$16, %esp
	.cfi_offset 3, -12
	.loc 1 4630 0
	movl	8(%ebp), %ebx
	.loc 1 4631 0
	leal	60(%ebx), %eax
	pushl	%eax
	call	atomic_inc
.LVL214:
	.loc 1 4634 0
	movl	%ebx, %eax
	movl	-4(%ebp), %ebx
	leave
	.cfi_restore 5
	.cfi_restore 3
	.cfi_def_cfa 4, 4
	ret
	.cfi_endproc
.LFE117:
	.size	bt_conn_ref, .-bt_conn_ref
	.section	.text.unlikely.bt_conn_ref
.LCOLDE23:
	.section	.text.bt_conn_ref
.LHOTE23:
	.section	.text.unlikely.bt_conn_unref,"ax",@progbits
.LCOLDB24:
	.section	.text.bt_conn_unref,"ax",@progbits
.LHOTB24:
	.globl	bt_conn_unref
	.type	bt_conn_unref, @function
bt_conn_unref:
.LFB118:
	.loc 1 4636 0
	.cfi_startproc
.LVL215:
	pushl	%ebp
	.cfi_def_cfa_offset 8
	.cfi_offset 5, -8
	movl	%esp, %ebp
	.cfi_def_cfa_register 5
	.loc 1 4637 0
	addl	$60, 8(%ebp)
.LVL216:
	.loc 1 4639 0
	popl	%ebp
	.cfi_restore 5
	.cfi_def_cfa 4, 4
	.loc 1 4637 0
	jmp	atomic_dec
.LVL217:
	.cfi_endproc
.LFE118:
	.size	bt_conn_unref, .-bt_conn_unref
	.section	.text.unlikely.bt_conn_unref
.LCOLDE24:
	.section	.text.bt_conn_unref
.LHOTE24:
	.section	.text.unlikely.bt_conn_get_dst,"ax",@progbits
.LCOLDB25:
	.section	.text.bt_conn_get_dst,"ax",@progbits
.LHOTB25:
	.globl	bt_conn_get_dst
	.type	bt_conn_get_dst, @function
bt_conn_get_dst:
.LFB119:
	.loc 1 4641 0
	.cfi_startproc
.LVL218:
	pushl	%ebp
	.cfi_def_cfa_offset 8
	.cfi_offset 5, -8
	movl	%esp, %ebp
	.cfi_def_cfa_register 5
	.loc 1 4642 0
	movl	8(%ebp), %eax
	.loc 1 4643 0
	popl	%ebp
	.cfi_restore 5
	.cfi_def_cfa 4, 4
	.loc 1 4642 0
	addl	$64, %eax
	.loc 1 4643 0
	ret
	.cfi_endproc
.LFE119:
	.size	bt_conn_get_dst, .-bt_conn_get_dst
	.section	.text.unlikely.bt_conn_get_dst
.LCOLDE25:
	.section	.text.bt_conn_get_dst
.LHOTE25:
	.section	.text.unlikely.bt_conn_get_info,"ax",@progbits
.LCOLDB26:
	.section	.text.bt_conn_get_info,"ax",@progbits
.LHOTB26:
	.globl	bt_conn_get_info
	.type	bt_conn_get_info, @function
bt_conn_get_info:
.LFB120:
	.loc 1 4645 0
	.cfi_startproc
.LVL219:
	pushl	%ebp
	.cfi_def_cfa_offset 8
	.cfi_offset 5, -8
	movl	%esp, %ebp
	.cfi_def_cfa_register 5
	pushl	%ebx
	.cfi_offset 3, -12
	.loc 1 4645 0
	movl	8(%ebp), %edx
	movl	12(%ebp), %eax
	.loc 1 4646 0
	movb	2(%edx), %cl
	movb	%cl, (%eax)
	.loc 1 4647 0
	movb	3(%edx), %cl
	movb	%cl, 1(%eax)
	.loc 1 4648 0
	cmpb	$0, 2(%edx)
	jne	.L239
	.loc 1 4650 0
	cmpb	$0, 3(%edx)
	leal	71(%edx), %ecx
	leal	78(%edx), %ebx
	jne	.L236
	.loc 1 4651 0
	movl	%ecx, 4(%eax)
	.loc 1 4652 0
	movl	%ebx, 8(%eax)
	jmp	.L237
.L236:
	.loc 1 4654 0
	movl	%ebx, 4(%eax)
	.loc 1 4655 0
	movl	%ecx, 8(%eax)
.LVL220:
.L237:
	.loc 1 4657 0
	movw	86(%edx), %cx
	movw	%cx, 12(%eax)
	.loc 1 4658 0
	movl	92(%edx), %ecx
	movw	%cx, 14(%eax)
	.loc 1 4659 0
	movw	94(%edx), %dx
	movw	%dx, 16(%eax)
	.loc 1 4660 0
	xorl	%eax, %eax
.LVL221:
	jmp	.L234
.LVL222:
.L239:
	.loc 1 4662 0
	movl	$-22, %eax
.LVL223:
.L234:
	.loc 1 4663 0
	popl	%ebx
	.cfi_restore 3
	popl	%ebp
	.cfi_restore 5
	.cfi_def_cfa 4, 4
	ret
	.cfi_endproc
.LFE120:
	.size	bt_conn_get_info, .-bt_conn_get_info
	.section	.text.unlikely.bt_conn_get_info
.LCOLDE26:
	.section	.text.bt_conn_get_info
.LHOTE26:
	.section	.text.unlikely.bt_conn_disconnect,"ax",@progbits
.LCOLDB27:
	.section	.text.bt_conn_disconnect,"ax",@progbits
.LHOTB27:
	.globl	bt_conn_disconnect
	.type	bt_conn_disconnect, @function
bt_conn_disconnect:
.LFB123:
	.loc 1 4702 0
	.cfi_startproc
.LVL224:
	pushl	%ebp
	.cfi_def_cfa_offset 8
	.cfi_offset 5, -8
	movl	%esp, %ebp
	.cfi_def_cfa_register 5
	pushl	%edi
	pushl	%esi
	pushl	%ebx
	subl	$28, %esp
	.cfi_offset 7, -12
	.cfi_offset 6, -16
	.cfi_offset 3, -20
	.loc 1 4702 0
	movl	8(%ebp), %ebx
	movl	12(%ebp), %esi
	.loc 1 4709 0
	movb	12(%ebx), %al
	cmpb	$2, %al
	je	.L247
	ja	.L244
	decb	%al
	je	.L245
	jmp	.L242
.L244:
	cmpb	$3, %al
	je	.L246
	cmpb	$4, %al
	je	.L247
.L242:
	.loc 1 4731 0
	movl	$-57, %eax
	jmp	.L243
.L245:
.LVL225:
.LBB240:
.LBB241:
	.loc 1 4711 0
	movl	%esi, %eax
	movb	%al, 11(%ebx)
	.loc 1 4712 0
	pushl	%eax
	pushl	%eax
	pushl	$0
	pushl	%ebx
	call	bt_conn_set_state
.LVL226:
	.loc 1 4713 0
	movl	$0, (%esp)
	call	bt_le_scan_update
.LVL227:
	addl	$16, %esp
	jmp	.L247
.L246:
.LVL228:
.LBE241:
.LBE240:
.LBB242:
.LBB243:
	.loc 1 4669 0
	pushl	%edi
	pushl	%edi
	pushl	$3
	pushl	$1030
	call	bt_hci_cmd_create
.LVL229:
	movl	%eax, %edi
.LVL230:
	.loc 1 4670 0
	addl	$16, %esp
	.loc 1 4671 0
	movl	$-55, %eax
.LVL231:
	.loc 1 4670 0
	testl	%edi, %edi
	je	.L243
	.loc 1 4673 0
	leal	8(%edi), %eax
	pushl	%edx
	pushl	%edx
	pushl	$3
	pushl	%eax
	call	net_buf_simple_add
.LVL232:
	.loc 1 4674 0
	movl	(%ebx), %edx
	.loc 1 4675 0
	movl	%esi, %ecx
	movb	%cl, 2(%eax)
	.loc 1 4674 0
	movw	%dx, (%eax)
	.loc 1 4676 0
	popl	%ecx
	popl	%esi
	pushl	%edi
	pushl	$1030
	call	bt_hci_cmd_send
.LVL233:
	.loc 1 4677 0
	addl	$16, %esp
	testl	%eax, %eax
	jne	.L243
	movl	%eax, -28(%ebp)
.LVL234:
	.loc 1 4680 0
	pushl	%eax
	pushl	%eax
	pushl	$4
	pushl	%ebx
	call	bt_conn_set_state
.LVL235:
	addl	$16, %esp
	movl	-28(%ebp), %eax
	jmp	.L243
.LVL236:
.L247:
.LBE243:
.LBE242:
	.loc 1 4724 0
	xorl	%eax, %eax
.L243:
	.loc 1 4733 0
	leal	-12(%ebp), %esp
	popl	%ebx
	.cfi_restore 3
	popl	%esi
	.cfi_restore 6
	popl	%edi
	.cfi_restore 7
	popl	%ebp
	.cfi_restore 5
	.cfi_def_cfa 4, 4
	ret
	.cfi_endproc
.LFE123:
	.size	bt_conn_disconnect, .-bt_conn_disconnect
	.section	.text.unlikely.bt_conn_disconnect
.LCOLDE27:
	.section	.text.bt_conn_disconnect
.LHOTE27:
	.section	.text.unlikely.bt_conn_disconnect_all,"ax",@progbits
.LCOLDB28:
	.section	.text.bt_conn_disconnect_all,"ax",@progbits
.LHOTB28:
	.globl	bt_conn_disconnect_all
	.type	bt_conn_disconnect_all, @function
bt_conn_disconnect_all:
.LFB116:
	.loc 1 4616 0
	.cfi_startproc
.LVL237:
	pushl	%ebp
	.cfi_def_cfa_offset 8
	.cfi_offset 5, -8
	movl	%esp, %ebp
	.cfi_def_cfa_register 5
	subl	$20, %esp
.LBB244:
	.loc 1 4620 0
	pushl	$conns+60
	call	atomic_get
.LVL238:
	addl	$16, %esp
	testl	%eax, %eax
	je	.L257
	.loc 1 4623 0
	cmpb	$3, conns+12
	jne	.L257
	.loc 1 4624 0
	pushl	%eax
	pushl	%eax
	pushl	$19
	pushl	$conns
	call	bt_conn_disconnect
.LVL239:
	addl	$16, %esp
.LVL240:
.L257:
.LBE244:
	.loc 1 4628 0
	leave
	.cfi_restore 5
	.cfi_def_cfa 4, 4
	ret
	.cfi_endproc
.LFE116:
	.size	bt_conn_disconnect_all, .-bt_conn_disconnect_all
	.section	.text.unlikely.bt_conn_disconnect_all
.LCOLDE28:
	.section	.text.bt_conn_disconnect_all
.LHOTE28:
	.section	.text.unlikely.bt_conn_create_slave_le,"ax",@progbits
.LCOLDB29:
	.section	.text.bt_conn_create_slave_le,"ax",@progbits
.LHOTB29:
	.globl	bt_conn_create_slave_le
	.type	bt_conn_create_slave_le, @function
bt_conn_create_slave_le:
.LFB124:
	.loc 1 4736 0
	.cfi_startproc
.LVL241:
	pushl	%ebp
	.cfi_def_cfa_offset 8
	.cfi_offset 5, -8
	.loc 1 4740 0
	xorl	%eax, %eax
	.loc 1 4736 0
	movl	%esp, %ebp
	.cfi_def_cfa_register 5
	.loc 1 4740 0
	popl	%ebp
	.cfi_restore 5
	.cfi_def_cfa 4, 4
	ret
	.cfi_endproc
.LFE124:
	.size	bt_conn_create_slave_le, .-bt_conn_create_slave_le
	.section	.text.unlikely.bt_conn_create_slave_le
.LCOLDE29:
	.section	.text.bt_conn_create_slave_le
.LHOTE29:
	.section	.text.unlikely.bt_conn_le_conn_update,"ax",@progbits
.LCOLDB30:
	.section	.text.bt_conn_le_conn_update,"ax",@progbits
.LHOTB30:
	.globl	bt_conn_le_conn_update
	.type	bt_conn_le_conn_update, @function
bt_conn_le_conn_update:
.LFB125:
	.loc 1 4743 0
	.cfi_startproc
.LVL242:
	pushl	%ebp
	.cfi_def_cfa_offset 8
	.cfi_offset 5, -8
	movl	%esp, %ebp
	.cfi_def_cfa_register 5
	pushl	%edi
	pushl	%esi
	pushl	%ebx
	subl	$36, %esp
	.cfi_offset 7, -12
	.cfi_offset 6, -16
	.cfi_offset 3, -20
	.loc 1 4743 0
	movl	8(%ebp), %eax
	movl	12(%ebp), %ebx
	.loc 1 4746 0
	pushl	$14
	pushl	$8211
	.loc 1 4743 0
	movl	%eax, -28(%ebp)
	.loc 1 4746 0
	call	bt_hci_cmd_create
.LVL243:
	.loc 1 4748 0
	addl	$16, %esp
	testl	%eax, %eax
	je	.L266
	movl	%eax, %esi
.LVL244:
	.loc 1 4751 0
	pushl	%eax
	pushl	%eax
	leal	8(%esi), %eax
	pushl	$14
	pushl	%eax
	call	net_buf_simple_add
.LVL245:
	movl	%eax, %edx
.LVL246:
	.loc 1 4752 0
	movl	$14, %ecx
	xorl	%eax, %eax
.LVL247:
	movl	%edx, %edi
	.loc 1 4758 0
	addl	$16, %esp
	.loc 1 4752 0
	rep stosb
	.loc 1 4753 0
	movl	-28(%ebp), %eax
	movl	(%eax), %eax
	movw	%ax, (%edx)
	.loc 1 4754 0
	movw	(%ebx), %ax
	movw	%ax, 2(%edx)
	.loc 1 4755 0
	movw	2(%ebx), %ax
	movw	%ax, 4(%edx)
	.loc 1 4756 0
	movw	4(%ebx), %ax
	movw	%ax, 6(%edx)
	.loc 1 4757 0
	movw	6(%ebx), %ax
	movw	%ax, 8(%edx)
	.loc 1 4758 0
	movl	%esi, 12(%ebp)
	movl	$8211, 8(%ebp)
	.loc 1 4759 0
	leal	-12(%ebp), %esp
	popl	%ebx
	.cfi_remember_state
	.cfi_restore 3
	popl	%esi
	.cfi_restore 6
.LVL248:
	popl	%edi
	.cfi_restore 7
	popl	%ebp
	.cfi_restore 5
	.cfi_def_cfa 4, 4
	.loc 1 4758 0
	jmp	bt_hci_cmd_send
.LVL249:
.L266:
	.cfi_restore_state
	.loc 1 4759 0
	leal	-12(%ebp), %esp
	movl	$-55, %eax
.LVL250:
	popl	%ebx
	.cfi_restore 3
	popl	%esi
	.cfi_restore 6
	popl	%edi
	.cfi_restore 7
	popl	%ebp
	.cfi_restore 5
	.cfi_def_cfa 4, 4
	ret
	.cfi_endproc
.LFE125:
	.size	bt_conn_le_conn_update, .-bt_conn_le_conn_update
	.section	.text.unlikely.bt_conn_le_conn_update
.LCOLDE30:
	.section	.text.bt_conn_le_conn_update
.LHOTE30:
	.section	.text.unlikely.bt_conn_le_param_update,"ax",@progbits
.LCOLDB31:
	.section	.text.bt_conn_le_param_update,"ax",@progbits
.LHOTB31:
	.globl	bt_conn_le_param_update
	.type	bt_conn_le_param_update, @function
bt_conn_le_param_update:
.LFB122:
	.loc 1 4685 0
	.cfi_startproc
.LVL251:
	pushl	%ebp
	.cfi_def_cfa_offset 8
	.cfi_offset 5, -8
	movl	%esp, %ebp
	.cfi_def_cfa_register 5
	pushl	%esi
	pushl	%ebx
	.cfi_offset 6, -12
	.cfi_offset 3, -16
	.loc 1 4685 0
	movl	12(%ebp), %esi
	movl	8(%ebp), %ebx
	.loc 1 4687 0
	movw	86(%ebx), %ax
	cmpw	(%esi), %ax
	jb	.L269
	.loc 1 4687 0 is_stmt 0 discriminator 1
	cmpw	2(%esi), %ax
	ja	.L269
	.loc 1 4688 0 is_stmt 1
	movw	4(%esi), %ax
	cmpw	%ax, 92(%ebx)
	jne	.L269
	.loc 1 4689 0
	movw	6(%esi), %ax
	cmpw	%ax, 94(%ebx)
	je	.L270
.L269:
	.loc 1 4693 0
	leal	108(%ebx), %eax
	subl	$12, %esp
	pushl	%eax
	call	k_delayed_work_cancel
.LVL252:
	.loc 1 4694 0
	addl	$16, %esp
	testb	$2, bt_dev+112
	je	.L271
	.loc 1 4694 0 is_stmt 0 discriminator 1
	testb	$2, 96(%ebx)
	jne	.L272
.L271:
	.loc 1 4695 0 is_stmt 1
	cmpb	$0, 3(%ebx)
	jne	.L273
.L272:
	.loc 1 4697 0
	movl	%esi, 12(%ebp)
	movl	%ebx, 8(%ebp)
	.loc 1 4700 0
	leal	-8(%ebp), %esp
	popl	%ebx
	.cfi_remember_state
	.cfi_restore 3
	popl	%esi
	.cfi_restore 6
	popl	%ebp
	.cfi_restore 5
	.cfi_def_cfa 4, 4
	.loc 1 4697 0
	jmp	bt_conn_le_conn_update
.LVL253:
.L273:
	.cfi_restore_state
	.loc 1 4699 0
	movl	%esi, 12(%ebp)
	movl	%ebx, 8(%ebp)
	.loc 1 4700 0
	leal	-8(%ebp), %esp
	popl	%ebx
	.cfi_remember_state
	.cfi_restore 3
	popl	%esi
	.cfi_restore 6
	popl	%ebp
	.cfi_restore 5
	.cfi_def_cfa 4, 4
	.loc 1 4699 0
	jmp	bt_l2cap_update_conn_param
.LVL254:
.L270:
	.cfi_restore_state
	.loc 1 4700 0
	leal	-8(%ebp), %esp
	movl	$-69, %eax
	popl	%ebx
	.cfi_restore 3
.LVL255:
	popl	%esi
	.cfi_restore 6
.LVL256:
	popl	%ebp
	.cfi_restore 5
	.cfi_def_cfa 4, 4
	ret
	.cfi_endproc
.LFE122:
	.size	bt_conn_le_param_update, .-bt_conn_le_param_update
	.section	.text.unlikely.bt_conn_le_param_update
.LCOLDE31:
	.section	.text.bt_conn_le_param_update
.LHOTE31:
	.section	.text.unlikely.le_conn_update,"ax",@progbits
.LCOLDB32:
	.section	.text.le_conn_update,"ax",@progbits
.LHOTB32:
	.type	le_conn_update, @function
le_conn_update:
.LFB85:
	.loc 1 3934 0
	.cfi_startproc
.LVL257:
	pushl	%ebp
	.cfi_def_cfa_offset 8
	.cfi_offset 5, -8
	movl	%esp, %ebp
	.cfi_def_cfa_register 5
	subl	$32, %esp
	.loc 1 3934 0
	movl	8(%ebp), %eax
	movl	%gs:20, %ecx
	movl	%ecx, -12(%ebp)
	xorl	%ecx, %ecx
.LVL258:
	.loc 1 3956 0
	movl	-20(%eax), %edx
	.loc 1 3943 0
	subl	$108, %eax
.LVL259:
	.loc 1 3956 0
	movw	%dx, -20(%ebp)
	movw	90(%eax), %dx
	movw	%dx, -18(%ebp)
	movl	92(%eax), %edx
	movw	%dx, -16(%ebp)
	movw	94(%eax), %dx
	movw	%dx, -14(%ebp)
.LVL260:
	.loc 1 3958 0
	leal	-20(%ebp), %edx
.LVL261:
	pushl	%edx
	pushl	%eax
	call	bt_conn_le_param_update
.LVL262:
	addl	$16, %esp
	.loc 1 3959 0
	movl	-12(%ebp), %eax
	xorl	%gs:20, %eax
	je	.L279
	call	__stack_chk_fail
.LVL263:
.L279:
	leave
	.cfi_restore 5
	.cfi_def_cfa 4, 4
	ret
	.cfi_endproc
.LFE85:
	.size	le_conn_update, .-le_conn_update
	.section	.text.unlikely.le_conn_update
.LCOLDE32:
	.section	.text.le_conn_update
.LHOTE32:
	.section	.text.unlikely.bt_conn_create_pdu,"ax",@progbits
.LCOLDB33:
	.section	.text.bt_conn_create_pdu,"ax",@progbits
.LHOTB33:
	.globl	bt_conn_create_pdu
	.type	bt_conn_create_pdu, @function
bt_conn_create_pdu:
.LFB126:
	.loc 1 4761 0
	.cfi_startproc
.LVL264:
	pushl	%ebp
	.cfi_def_cfa_offset 8
	.cfi_offset 5, -8
	.loc 1 4764 0
	movl	$acl_tx_pool, %edx
	.loc 1 4761 0
	movl	%esp, %ebp
	.cfi_def_cfa_register 5
	subl	$32, %esp
	.loc 1 4761 0
	movl	8(%ebp), %eax
	.loc 1 4766 0
	pushl	$-1
	.loc 1 4764 0
	testl	%eax, %eax
	cmove	%edx, %eax
.LVL265:
	.loc 1 4766 0
	pushl	%eax
	call	net_buf_alloc
.LVL266:
	.loc 1 4769 0
	popl	%edx
	popl	%ecx
	movl	12(%ebp), %ecx
	movl	%eax, -12(%ebp)
	leal	5(%ecx), %edx
.LVL267:
	pushl	%edx
	pushl	%eax
	call	net_buf_reserve
.LVL268:
	.loc 1 4771 0
	movl	-12(%ebp), %eax
	leave
	.cfi_restore 5
	.cfi_def_cfa 4, 4
	ret
	.cfi_endproc
.LFE126:
	.size	bt_conn_create_pdu, .-bt_conn_create_pdu
	.section	.text.unlikely.bt_conn_create_pdu
.LCOLDE33:
	.section	.text.bt_conn_create_pdu
.LHOTE33:
	.section	.text.unlikely.create_frag.isra.6,"ax",@progbits
.LCOLDB34:
	.section	.text.create_frag.isra.6,"ax",@progbits
.LHOTB34:
	.type	create_frag.isra.6, @function
create_frag.isra.6:
.LFB141:
	.loc 1 4302 0
	.cfi_startproc
.LVL269:
	pushl	%ebp
	.cfi_def_cfa_offset 8
	.cfi_offset 5, -8
	movl	%esp, %ebp
	.cfi_def_cfa_register 5
	pushl	%edi
	pushl	%esi
	pushl	%ebx
	.cfi_offset 7, -12
	.cfi_offset 6, -16
	.cfi_offset 3, -20
	movl	%eax, %esi
	subl	$36, %esp
	.loc 1 4302 0
	movl	%edx, -28(%ebp)
	.loc 1 4306 0
	pushl	$0
	pushl	$0
	call	bt_conn_create_pdu
.LVL270:
	.loc 1 4309 0
	addl	$16, %esp
	cmpb	$3, (%esi)
	.loc 1 4306 0
	movl	%eax, %ebx
.LVL271:
	.loc 1 4309 0
	je	.L285
	.loc 1 4310 0
	subl	$12, %esp
	pushl	%eax
	call	net_buf_unref
.LVL272:
	addl	$16, %esp
	.loc 1 4312 0
	xorl	%eax, %eax
	jmp	.L286
.LVL273:
.L285:
	.loc 1 4315 0
	movzwl	14(%eax), %eax
.LVL274:
	.loc 1 4318 0
	movzwl	bt_dev+128, %esi
	leal	8(%ebx), %edi
	subl	$12, %esp
	.loc 1 4315 0
	leal	19(%ebx,%eax), %eax
	andl	$-4, %eax
	movl	$0, (%eax)
.LVL275:
	.loc 1 4318 0
	pushl	%edi
	call	net_buf_simple_tailroom
.LVL276:
	addl	$16, %esp
	cmpl	%eax, %esi
	jnb	.L287
.LVL277:
.LBB251:
.LBB252:
	.loc 1 4300 0
	movl	bt_dev+128, %eax
	jmp	.L288
.LVL278:
.L287:
.LBE252:
.LBE251:
	.loc 1 4318 0
	subl	$12, %esp
	pushl	%edi
	call	net_buf_simple_tailroom
.LVL279:
	addl	$16, %esp
.L288:
.LVL280:
	.loc 1 4319 0
	movzwl	%ax, %esi
.LVL281:
	pushl	%eax
	movl	-28(%ebp), %eax
	pushl	%esi
	pushl	8(%eax)
	pushl	%edi
	call	net_buf_simple_add_mem
.LVL282:
	.loc 1 4320 0
	movl	-28(%ebp), %eax
	popl	%edx
	popl	%ecx
	leal	8(%eax), %edi
	pushl	%esi
	pushl	%edi
	call	net_buf_simple_pull
.LVL283:
	addl	$16, %esp
	movl	%ebx, %eax
.LVL284:
.L286:
	.loc 1 4322 0
	leal	-12(%ebp), %esp
	popl	%ebx
	.cfi_restore 3
.LVL285:
	popl	%esi
	.cfi_restore 6
	popl	%edi
	.cfi_restore 7
	popl	%ebp
	.cfi_restore 5
	.cfi_def_cfa 4, 4
.LVL286:
	ret
	.cfi_endproc
.LFE141:
	.size	create_frag.isra.6, .-create_frag.isra.6
	.section	.text.unlikely.create_frag.isra.6
.LCOLDE34:
	.section	.text.create_frag.isra.6
.LHOTE34:
	.section	.text.unlikely.bt_conn_process_tx,"ax",@progbits
.LCOLDB35:
	.section	.text.bt_conn_process_tx,"ax",@progbits
.LHOTB35:
	.globl	bt_conn_process_tx
	.type	bt_conn_process_tx, @function
bt_conn_process_tx:
.LFB108:
	.loc 1 4414 0
	.cfi_startproc
.LVL287:
	pushl	%ebp
	.cfi_def_cfa_offset 8
	.cfi_offset 5, -8
	movl	%esp, %ebp
	.cfi_def_cfa_register 5
	pushl	%edi
	pushl	%esi
	pushl	%ebx
	subl	$12, %esp
	.cfi_offset 7, -12
	.cfi_offset 6, -16
	.cfi_offset 3, -20
	.loc 1 4414 0
	movl	8(%ebp), %ebx
	.loc 1 4417 0
	cmpb	$0, 12(%ebx)
	jne	.L291
.LVL288:
	.loc 1 4418 0 discriminator 1
	leal	4(%ebx), %eax
.LVL289:
.LBB261:
.LBB262:
	.loc 1 857 0 discriminator 1
	pushl	%edx
	pushl	%edx
	pushl	$-65
	pushl	%eax
	call	atomic_and
.LVL290:
.LBE262:
.LBE261:
	.loc 1 4417 0 discriminator 1
	addl	$16, %esp
	testb	$64, %al
	je	.L291
	.loc 1 4428 0
	leal	-12(%ebp), %esp
	.loc 1 4420 0
	movl	%ebx, %eax
	.loc 1 4428 0
	popl	%ebx
	.cfi_remember_state
	.cfi_restore 3
	popl	%esi
	.cfi_restore 6
	popl	%edi
	.cfi_restore 7
	popl	%ebp
	.cfi_restore 5
	.cfi_def_cfa 4, 4
	.loc 1 4420 0
	jmp	conn_cleanup
.LVL291:
.L291:
	.cfi_restore_state
	.loc 1 4423 0
	pushl	%eax
	pushl	%eax
	leal	40(%ebx), %eax
	pushl	$0
	pushl	%eax
	call	net_buf_get
.LVL292:
	movl	%eax, %esi
.LVL293:
.LBB263:
.LBB264:
	.loc 1 4329 0
	addl	$16, %esp
	movl	bt_dev+128, %eax
.LVL294:
	cmpw	%ax, 12(%esi)
	ja	.L292
	.loc 1 4330 0
	subl	$12, %esp
	xorl	%ecx, %ecx
	pushl	$0
	jmp	.L317
.L292:
	leal	12(%ebx), %edi
	.loc 1 4334 0
	movl	%esi, %edx
	movl	%edi, %eax
	call	create_frag.isra.6
.LVL295:
	.loc 1 4335 0
	testl	%eax, %eax
	je	.L297
	.loc 1 4340 0
	subl	$12, %esp
	xorl	%ecx, %ecx
	pushl	$1
.L316:
	.loc 1 4354 0
	movl	%eax, %edx
	movl	%ebx, %eax
.LVL296:
	call	send_frag
.LVL297:
	addl	$16, %esp
	testb	%al, %al
	je	.L297
.LVL298:
	.loc 1 4347 0
	movl	bt_dev+128, %eax
	cmpw	%ax, 12(%esi)
	jbe	.L318
	.loc 1 4348 0
	movl	%esi, %edx
	movl	%edi, %eax
	call	create_frag.isra.6
.LVL299:
	.loc 1 4349 0
	testl	%eax, %eax
	je	.L297
	.loc 1 4354 0
	subl	$12, %esp
	movl	$1, %ecx
	pushl	$1
	jmp	.L316
.LVL300:
.L318:
	.loc 1 4362 0
	subl	$12, %esp
	movl	$1, %ecx
	pushl	$0
.LVL301:
.L317:
	movl	%esi, %edx
	movl	%ebx, %eax
	call	send_frag
.LVL302:
	addl	$16, %esp
.LVL303:
.LBE264:
.LBE263:
	.loc 1 4425 0
	testb	%al, %al
	jne	.L314
.L297:
	.loc 1 4426 0
	movl	%esi, 8(%ebp)
	.loc 1 4428 0
	leal	-12(%ebp), %esp
	popl	%ebx
	.cfi_remember_state
	.cfi_restore 3
.LVL304:
	popl	%esi
	.cfi_restore 6
.LVL305:
	popl	%edi
	.cfi_restore 7
	popl	%ebp
	.cfi_restore 5
	.cfi_def_cfa 4, 4
	.loc 1 4426 0
	jmp	net_buf_unref
.LVL306:
.L314:
	.cfi_restore_state
	.loc 1 4428 0
	leal	-12(%ebp), %esp
	popl	%ebx
	.cfi_restore 3
.LVL307:
	popl	%esi
	.cfi_restore 6
.LVL308:
	popl	%edi
	.cfi_restore 7
	popl	%ebp
	.cfi_restore 5
	.cfi_def_cfa 4, 4
	ret
	.cfi_endproc
.LFE108:
	.size	bt_conn_process_tx, .-bt_conn_process_tx
	.section	.text.unlikely.bt_conn_process_tx
.LCOLDE35:
	.section	.text.bt_conn_process_tx
.LHOTE35:
	.section	.text.unlikely.bt_conn_auth_cb_register,"ax",@progbits
.LCOLDB36:
	.section	.text.bt_conn_auth_cb_register,"ax",@progbits
.LHOTB36:
	.globl	bt_conn_auth_cb_register
	.type	bt_conn_auth_cb_register, @function
bt_conn_auth_cb_register:
.LFB127:
	.loc 1 4773 0
	.cfi_startproc
.LVL309:
	pushl	%ebp
	.cfi_def_cfa_offset 8
	.cfi_offset 5, -8
	movl	%esp, %ebp
	.cfi_def_cfa_register 5
	.loc 1 4773 0
	movl	8(%ebp), %edx
	.loc 1 4774 0
	testl	%edx, %edx
	jne	.L320
	.loc 1 4775 0
	movl	$0, bt_auth
	jmp	.L325
.L320:
	.loc 1 4780 0
	cmpl	$0, 12(%edx)
	.loc 1 4781 0
	movl	$-22, %eax
	.loc 1 4780 0
	je	.L321
	.loc 1 4783 0
	cmpl	$0, bt_auth
	.loc 1 4784 0
	movl	$-69, %eax
	.loc 1 4783 0
	jne	.L321
	.loc 1 4786 0
	movl	%edx, bt_auth
.LVL310:
.L325:
	.loc 1 4787 0
	xorl	%eax, %eax
.L321:
	.loc 1 4788 0
	popl	%ebp
	.cfi_restore 5
	.cfi_def_cfa 4, 4
	ret
	.cfi_endproc
.LFE127:
	.size	bt_conn_auth_cb_register, .-bt_conn_auth_cb_register
	.section	.text.unlikely.bt_conn_auth_cb_register
.LCOLDE36:
	.section	.text.bt_conn_auth_cb_register
.LHOTE36:
	.section	.text.unlikely.bt_conn_auth_passkey_entry,"ax",@progbits
.LCOLDB37:
	.section	.text.bt_conn_auth_passkey_entry,"ax",@progbits
.LHOTB37:
	.globl	bt_conn_auth_passkey_entry
	.type	bt_conn_auth_passkey_entry, @function
bt_conn_auth_passkey_entry:
.LFB128:
	.loc 1 4790 0
	.cfi_startproc
.LVL311:
	pushl	%ebp
	.cfi_def_cfa_offset 8
	.cfi_offset 5, -8
	.loc 1 4792 0
	movl	$-22, %eax
	.loc 1 4790 0
	movl	%esp, %ebp
	.cfi_def_cfa_register 5
	subl	$8, %esp
	.loc 1 4791 0
	cmpl	$0, bt_auth
	.loc 1 4790 0
	movl	8(%ebp), %edx
	.loc 1 4791 0
	je	.L327
	.loc 1 4794 0
	cmpb	$0, 2(%edx)
	jne	.L327
	.loc 1 4795 0
	pushl	%eax
	pushl	%eax
	pushl	12(%ebp)
	pushl	%edx
	call	bt_smp_auth_passkey_entry
.LVL312:
	.loc 1 4796 0
	addl	$16, %esp
	xorl	%eax, %eax
.L327:
	.loc 1 4799 0
	leave
	.cfi_restore 5
	.cfi_def_cfa 4, 4
	ret
	.cfi_endproc
.LFE128:
	.size	bt_conn_auth_passkey_entry, .-bt_conn_auth_passkey_entry
	.section	.text.unlikely.bt_conn_auth_passkey_entry
.LCOLDE37:
	.section	.text.bt_conn_auth_passkey_entry
.LHOTE37:
	.section	.text.unlikely.bt_conn_auth_passkey_confirm,"ax",@progbits
.LCOLDB38:
	.section	.text.bt_conn_auth_passkey_confirm,"ax",@progbits
.LHOTB38:
	.globl	bt_conn_auth_passkey_confirm
	.type	bt_conn_auth_passkey_confirm, @function
bt_conn_auth_passkey_confirm:
.LFB129:
	.loc 1 4801 0
	.cfi_startproc
.LVL313:
	.loc 1 4802 0
	cmpl	$0, bt_auth
	.loc 1 4801 0
	pushl	%ebp
	.cfi_def_cfa_offset 8
	.cfi_offset 5, -8
	movl	%esp, %ebp
	.cfi_def_cfa_register 5
	.loc 1 4801 0
	movl	8(%ebp), %eax
	.loc 1 4802 0
	je	.L332
	.loc 1 4805 0
	cmpb	$0, 2(%eax)
	jne	.L332
	.loc 1 4810 0
	popl	%ebp
	.cfi_remember_state
	.cfi_restore 5
	.cfi_def_cfa 4, 4
	.loc 1 4807 0
	jmp	bt_smp_auth_passkey_confirm
.LVL314:
.L332:
	.cfi_restore_state
	.loc 1 4810 0
	movl	$-22, %eax
.LVL315:
	popl	%ebp
	.cfi_restore 5
	.cfi_def_cfa 4, 4
	ret
	.cfi_endproc
.LFE129:
	.size	bt_conn_auth_passkey_confirm, .-bt_conn_auth_passkey_confirm
	.section	.text.unlikely.bt_conn_auth_passkey_confirm
.LCOLDE38:
	.section	.text.bt_conn_auth_passkey_confirm
.LHOTE38:
	.section	.text.unlikely.bt_conn_auth_cancel,"ax",@progbits
.LCOLDB39:
	.section	.text.bt_conn_auth_cancel,"ax",@progbits
.LHOTB39:
	.globl	bt_conn_auth_cancel
	.type	bt_conn_auth_cancel, @function
bt_conn_auth_cancel:
.LFB130:
	.loc 1 4812 0
	.cfi_startproc
.LVL316:
	.loc 1 4813 0
	cmpl	$0, bt_auth
	.loc 1 4812 0
	pushl	%ebp
	.cfi_def_cfa_offset 8
	.cfi_offset 5, -8
	movl	%esp, %ebp
	.cfi_def_cfa_register 5
	.loc 1 4812 0
	movl	8(%ebp), %eax
	.loc 1 4813 0
	je	.L337
	.loc 1 4816 0
	cmpb	$0, 2(%eax)
	jne	.L337
	.loc 1 4820 0
	popl	%ebp
	.cfi_remember_state
	.cfi_restore 5
	.cfi_def_cfa 4, 4
	.loc 1 4817 0
	jmp	bt_smp_auth_cancel
.LVL317:
.L337:
	.cfi_restore_state
	.loc 1 4820 0
	movl	$-22, %eax
.LVL318:
	popl	%ebp
	.cfi_restore 5
	.cfi_def_cfa 4, 4
	ret
	.cfi_endproc
.LFE130:
	.size	bt_conn_auth_cancel, .-bt_conn_auth_cancel
	.section	.text.unlikely.bt_conn_auth_cancel
.LCOLDE39:
	.section	.text.bt_conn_auth_cancel
.LHOTE39:
	.section	.text.unlikely.bt_conn_auth_pairing_confirm,"ax",@progbits
.LCOLDB40:
	.section	.text.bt_conn_auth_pairing_confirm,"ax",@progbits
.LHOTB40:
	.globl	bt_conn_auth_pairing_confirm
	.type	bt_conn_auth_pairing_confirm, @function
bt_conn_auth_pairing_confirm:
.LFB131:
	.loc 1 4822 0
	.cfi_startproc
.LVL319:
	.loc 1 4823 0
	cmpl	$0, bt_auth
	.loc 1 4822 0
	pushl	%ebp
	.cfi_def_cfa_offset 8
	.cfi_offset 5, -8
	movl	%esp, %ebp
	.cfi_def_cfa_register 5
	.loc 1 4822 0
	movl	8(%ebp), %eax
	.loc 1 4823 0
	je	.L342
	.loc 1 4826 0
	cmpb	$0, 2(%eax)
	jne	.L342
	.loc 1 4832 0
	popl	%ebp
	.cfi_remember_state
	.cfi_restore 5
	.cfi_def_cfa 4, 4
	.loc 1 4828 0
	jmp	bt_smp_auth_pairing_confirm
.LVL320:
.L342:
	.cfi_restore_state
	.loc 1 4832 0
	movl	$-22, %eax
.LVL321:
	popl	%ebp
	.cfi_restore 5
	.cfi_def_cfa 4, 4
	ret
	.cfi_endproc
.LFE131:
	.size	bt_conn_auth_pairing_confirm, .-bt_conn_auth_pairing_confirm
	.section	.text.unlikely.bt_conn_auth_pairing_confirm
.LCOLDE40:
	.section	.text.bt_conn_auth_pairing_confirm
.LHOTE40:
	.section	.text.unlikely.bt_conn_get_id,"ax",@progbits
.LCOLDB41:
	.section	.text.bt_conn_get_id,"ax",@progbits
.LHOTB41:
	.globl	bt_conn_get_id
	.type	bt_conn_get_id, @function
bt_conn_get_id:
.LFB132:
	.loc 1 4834 0
	.cfi_startproc
.LVL322:
	pushl	%ebp
	.cfi_def_cfa_offset 8
	.cfi_offset 5, -8
	movl	%esp, %ebp
	.cfi_def_cfa_register 5
	.loc 1 4835 0
	movl	8(%ebp), %eax
	.loc 1 4836 0
	popl	%ebp
	.cfi_restore 5
	.cfi_def_cfa 4, 4
	.loc 1 4835 0
	subl	$conns, %eax
	sarl	$4, %eax
	imull	$954437177, %eax, %eax
	.loc 1 4836 0
	ret
	.cfi_endproc
.LFE132:
	.size	bt_conn_get_id, .-bt_conn_get_id
	.section	.text.unlikely.bt_conn_get_id
.LCOLDE41:
	.section	.text.bt_conn_get_id
.LHOTE41:
	.section	.text.unlikely.bt_conn_lookup_id,"ax",@progbits
.LCOLDB42:
	.section	.text.bt_conn_lookup_id,"ax",@progbits
.LHOTB42:
	.globl	bt_conn_lookup_id
	.type	bt_conn_lookup_id, @function
bt_conn_lookup_id:
.LFB133:
	.loc 1 4838 0
	.cfi_startproc
.LVL323:
	pushl	%ebp
	.cfi_def_cfa_offset 8
	.cfi_offset 5, -8
	movl	%esp, %ebp
	.cfi_def_cfa_register 5
	subl	$8, %esp
	.loc 1 4840 0
	cmpb	$0, 8(%ebp)
	je	.L350
.L352:
	.loc 1 4842 0
	xorl	%eax, %eax
	jmp	.L351
.L350:
.LVL324:
	.loc 1 4846 0
	subl	$12, %esp
	pushl	$conns+60
	call	atomic_get
.LVL325:
	addl	$16, %esp
	testl	%eax, %eax
	je	.L352
.LVL326:
.LBB265:
.LBB266:
	.loc 1 4631 0
	subl	$12, %esp
	pushl	$conns+60
	call	atomic_inc
.LVL327:
.LBE266:
.LBE265:
	.loc 1 4851 0
	addl	$16, %esp
	movl	$conns, %eax
.LVL328:
.L351:
	.loc 1 4852 0
	leave
	.cfi_restore 5
	.cfi_def_cfa 4, 4
	ret
	.cfi_endproc
.LFE133:
	.size	bt_conn_lookup_id, .-bt_conn_lookup_id
	.section	.text.unlikely.bt_conn_lookup_id
.LCOLDE42:
	.section	.text.bt_conn_lookup_id
.LHOTE42:
	.section	.text.unlikely.bt_conn_init,"ax",@progbits
.LCOLDB43:
	.section	.text.bt_conn_init,"ax",@progbits
.LHOTB43:
	.globl	bt_conn_init
	.type	bt_conn_init, @function
bt_conn_init:
.LFB134:
	.loc 1 4854 0
	.cfi_startproc
	pushl	%ebp
	.cfi_def_cfa_offset 8
	.cfi_offset 5, -8
	movl	%esp, %ebp
	.cfi_def_cfa_register 5
	pushl	%edi
	pushl	%esi
	pushl	%ebx
	.cfi_offset 7, -12
	.cfi_offset 6, -16
	.cfi_offset 3, -20
	.loc 1 4857 0
	xorl	%esi, %esi
	xorl	%ebx, %ebx
	.loc 1 4854 0
	subl	$40, %esp
	.loc 1 4856 0
	pushl	$acl_tx_pool
	call	k_queue_init
.LVL329:
	movl	free_tx, %ecx
	movl	free_tx+4, %edx
	movl	$conn_tx, %eax
	.loc 1 4857 0
	addl	$16, %esp
.LVL330:
.L358:
	.loc 1 4857 0 is_stmt 0 discriminator 1
	movl	$conn_tx+80, %edi
	cmpl	%eax, %edi
	je	.L372
.LBB269:
.LBB270:
	.loc 1 109 0 is_stmt 1 discriminator 3
	testl	%edx, %edx
.LBE270:
.LBE269:
	.loc 1 4858 0 discriminator 3
	movl	%eax, %edi
.LVL331:
.LBB272:
.LBB271:
	.loc 1 107 0 discriminator 3
	movl	%ecx, (%eax)
	.loc 1 109 0 discriminator 3
	jne	.L359
	.loc 1 109 0 is_stmt 0
	movl	%eax, %edx
	movb	$1, %bl
.L359:
.LVL332:
	addl	$8, %eax
	movl	$1, %esi
.LBE271:
.LBE272:
	.loc 1 4857 0 is_stmt 1 discriminator 3
	movl	%edi, %ecx
	jmp	.L358
.L372:
	movl	%esi, %eax
	testb	%al, %al
	je	.L361
	movl	%ecx, free_tx
.L361:
	testb	%bl, %bl
	je	.L362
	movl	%edx, free_tx+4
.L362:
	.loc 1 4860 0
	call	bt_att_init
.LVL333:
	.loc 1 4861 0
	call	bt_smp_init
.LVL334:
	.loc 1 4862 0
	testl	%eax, %eax
	jne	.L363
	movl	%eax, -28(%ebp)
	.loc 1 4865 0
	call	bt_l2cap_init
.LVL335:
	movl	-28(%ebp), %eax
.LVL336:
.L363:
	.loc 1 4879 0
	leal	-12(%ebp), %esp
	popl	%ebx
	.cfi_restore 3
	popl	%esi
	.cfi_restore 6
	popl	%edi
	.cfi_restore 7
	popl	%ebp
	.cfi_restore 5
	.cfi_def_cfa 4, 4
	ret
	.cfi_endproc
.LFE134:
	.size	bt_conn_init, .-bt_conn_init
	.section	.text.unlikely.bt_conn_init
.LCOLDE43:
	.section	.text.bt_conn_init
.LHOTE43:
	.section	.data.conn_change,"aw",@progbits
	.align 4
	.type	conn_change, @object
	.size	conn_change, 16
conn_change:
	.long	conn_change
	.long	conn_change
	.long	0
	.long	0
	.section	.bss.free_tx,"aw",@nobits
	.align 4
	.type	free_tx, @object
	.size	free_tx, 8
free_tx:
	.zero	8
	.section	.bss.conn_tx,"aw",@nobits
	.align 32
	.type	conn_tx, @object
	.size	conn_tx, 80
conn_tx:
	.zero	80
	.section	.bss.callback_list,"aw",@nobits
	.align 4
	.type	callback_list, @object
	.size	callback_list, 4
callback_list:
	.zero	4
	.section	.bss.conns,"aw",@nobits
	.align 32
	.type	conns, @object
	.size	conns, 144
conns:
	.zero	144
	.globl	bt_auth
	.section	.bss.bt_auth,"aw",@nobits
	.align 4
	.type	bt_auth, @object
	.size	bt_auth, 4
bt_auth:
	.zero	4
	.text
.Letext0:
	.section	.text.unlikely.notify_connected
.Letext_cold0:
	.section	.note.GNU-stack,"",@progbits
