	.file	"crc.c"
	.text
.Ltext0:
	.section	.text.unlikely.utils_crc16,"ax",@progbits
.LCOLDB0:
	.section	.text.utils_crc16,"ax",@progbits
.LHOTB0:
	.section	.text.unlikely.utils_crc16
.Ltext_cold0:
	.section	.text.utils_crc16
	.globl	utils_crc16
	.type	utils_crc16, @function
utils_crc16:
.LFB0:
	.file 1 "utility/digest_algorithm/crc.c"
	.loc 1 16 0
	.cfi_startproc
.LVL0:
	pushl	%ebp
	.cfi_def_cfa_offset 8
	.cfi_offset 5, -8
	.loc 1 18 0
	xorl	%edx, %edx
	orl	$-1, %eax
	.loc 1 19 0
	xorl	%ecx, %ecx
	.loc 1 16 0
	movl	%esp, %ebp
	.cfi_def_cfa_register 5
	pushl	%edi
	pushl	%esi
	pushl	%ebx
	.cfi_offset 7, -12
	.cfi_offset 6, -16
	.cfi_offset 3, -20
	.loc 1 16 0
	movl	8(%ebp), %ebx
.LVL1:
.L2:
	.loc 1 19 0 discriminator 1
	cmpl	12(%ebp), %ecx
	je	.L8
	.loc 1 20 0
	testb	$7, %cl
	jne	.L3
.LVL2:
	.loc 1 21 0
	movzbl	(%ebx), %edx
.LVL3:
	incl	%ebx
.LVL4:
	sall	$8, %edx
.LVL5:
.L3:
	.loc 1 23 0
	movl	%eax, %edi
	.loc 1 24 0
	addl	%eax, %eax
.LVL6:
	.loc 1 23 0
	xorl	%edx, %edi
.LVL7:
	.loc 1 27 0
	movl	%eax, %esi
	.loc 1 25 0
	addl	%edx, %edx
.LVL8:
	.loc 1 27 0
	xorw	$4129, %si
	testw	%di, %di
	cmovs	%esi, %eax
.LVL9:
	.loc 1 19 0
	incl	%ecx
.LVL10:
	jmp	.L2
.LVL11:
.L8:
	.loc 1 31 0
	popl	%ebx
	.cfi_restore 3
.LVL12:
	popl	%esi
	.cfi_restore 6
	popl	%edi
	.cfi_restore 7
	popl	%ebp
	.cfi_restore 5
	.cfi_def_cfa 4, 4
	ret
	.cfi_endproc
.LFE0:
	.size	utils_crc16, .-utils_crc16
	.section	.text.unlikely.utils_crc16
.LCOLDE0:
	.section	.text.utils_crc16
.LHOTE0:
	.section	.text.unlikely.utils_crc32,"ax",@progbits
.LCOLDB1:
	.section	.text.utils_crc32,"ax",@progbits
.LHOTB1:
	.globl	utils_crc32
	.type	utils_crc32, @function
utils_crc32:
.LFB1:
	.loc 1 35 0
	.cfi_startproc
.LVL13:
	pushl	%ebp
	.cfi_def_cfa_offset 8
	.cfi_offset 5, -8
	.loc 1 39 0
	xorl	%edx, %edx
	.loc 1 37 0
	orl	$-1, %eax
	.loc 1 35 0
	movl	%esp, %ebp
	.cfi_def_cfa_register 5
	pushl	%esi
	pushl	%ebx
	.cfi_offset 6, -12
	.cfi_offset 3, -16
.LVL14:
.L10:
	.loc 1 39 0
	cmpl	%edx, 12(%ebp)
	je	.L17
.LVL15:
	.loc 1 40 0
	movl	8(%ebp), %ebx
	movzbl	(%ebx,%edx), %ecx
	sall	$24, %ecx
	xorl	%ecx, %eax
.LVL16:
	movb	$8, %cl
.LVL17:
.L13:
	leal	(%eax,%eax), %ebx
	.loc 1 43 0
	movl	%ebx, %esi
	xorl	$79764919, %esi
	testl	%eax, %eax
	movl	%ebx, %eax
.LVL18:
	cmovs	%esi, %eax
.LVL19:
	.loc 1 41 0
	decb	%cl
.LVL20:
	jne	.L13
	incl	%edx
.LVL21:
	jmp	.L10
.LVL22:
.L17:
	.loc 1 50 0
	popl	%ebx
	.cfi_restore 3
	popl	%esi
	.cfi_restore 6
	popl	%ebp
	.cfi_restore 5
	.cfi_def_cfa 4, 4
	ret
	.cfi_endproc
.LFE1:
	.size	utils_crc32, .-utils_crc32
	.section	.text.unlikely.utils_crc32
.LCOLDE1:
	.section	.text.utils_crc32
.LHOTE1:
	.text
.Letext0:
	.section	.text.unlikely.utils_crc16
.Letext_cold0:
	.file 2 "/home/stone/Documents/Ali_IOT/build/compiler/gcc-arm-none-eabi/Linux64/arm-none-eabi/include/machine/_default_types.h"
	.file 3 "/home/stone/Documents/Ali_IOT/build/compiler/gcc-arm-none-eabi/Linux64/arm-none-eabi/include/sys/_stdint.h"
	.section	.note.GNU-stack,"",@progbits
