	.file	"crc32.c"
	.text
.Ltext0:
	.section	.text.unlikely.crc32_compute,"ax",@progbits
.LCOLDB0:
	.section	.text.crc32_compute,"ax",@progbits
.LHOTB0:
	.section	.text.unlikely.crc32_compute
.Ltext_cold0:
	.section	.text.crc32_compute
	.globl	crc32_compute
	.type	crc32_compute, @function
crc32_compute:
.LFB140:
	.file 1 "src/crc32.c"
	.loc 1 3054 0
	.cfi_startproc
.LVL0:
	pushl	%ebp
	.cfi_def_cfa_offset 8
	.cfi_offset 5, -8
	orl	$-1, %eax
	movl	%esp, %ebp
	.cfi_def_cfa_register 5
	pushl	%edi
	pushl	%esi
	movl	16(%ebp), %edx
	pushl	%ebx
	.cfi_offset 7, -12
	.cfi_offset 6, -16
	.cfi_offset 3, -20
	.loc 1 3058 0
	testl	%edx, %edx
	je	.L2
	.loc 1 3058 0 is_stmt 0 discriminator 1
	movl	(%edx), %eax
	notl	%eax
.L2:
	movl	8(%ebp), %edx
	movl	12(%ebp), %ebx
.LBB2:
.LBB3:
	.loc 1 3064 0 is_stmt 1 discriminator 1
	movl	$-306674912, %esi
	addl	%edx, %ebx
.L3:
.LVL1:
.LBE3:
	.loc 1 3059 0 discriminator 1
	cmpl	%edx, %ebx
	je	.L13
	.loc 1 3061 0
	movzbl	(%edx), %ecx
	xorl	%ecx, %eax
.LVL2:
	movl	$8, %ecx
.LVL3:
.L5:
.LBB4:
	.loc 1 3064 0
	movl	%eax, %edi
	shrl	%edi
	andl	$1, %eax
.LVL4:
	cmovne	%esi, %eax
	xorl	%edi, %eax
.LVL5:
	.loc 1 3062 0
	decl	%ecx
.LVL6:
	jne	.L5
.LVL7:
	incl	%edx
.LVL8:
	jmp	.L3
.LVL9:
.L13:
.LBE4:
.LBE2:
	.loc 1 3068 0
	popl	%ebx
	.cfi_restore 3
	.loc 1 3067 0
	notl	%eax
.LVL10:
	.loc 1 3068 0
	popl	%esi
	.cfi_restore 6
	popl	%edi
	.cfi_restore 7
	popl	%ebp
	.cfi_restore 5
	.cfi_def_cfa 4, 4
	ret
	.cfi_endproc
.LFE140:
	.size	crc32_compute, .-crc32_compute
	.section	.text.unlikely.crc32_compute
.LCOLDE0:
	.section	.text.crc32_compute
.LHOTE0:
	.text
.Letext0:
	.section	.text.unlikely.crc32_compute
.Letext_cold0:
	.section	.note.GNU-stack,"",@progbits
