	.file	"ctrl.c"
	.text
.Ltext0:
	.section	.text.unlikely.cpu_sleep,"ax",@progbits
.LCOLDB0:
	.section	.text.cpu_sleep,"ax",@progbits
.LHOTB0:
	.section	.text.unlikely.cpu_sleep
.Ltext_cold0:
	.section	.text.cpu_sleep
	.type	cpu_sleep, @function
cpu_sleep:
.LFB132:
	.file 1 "src/ctrl.c"
	.loc 1 4223 0
	.cfi_startproc
	pushl	%ebp
	.cfi_def_cfa_offset 8
	.cfi_offset 5, -8
	movl	%esp, %ebp
	.cfi_def_cfa_register 5
.LBB43:
.LBB44:
	.loc 1 1928 0
#APP
# 1928 "src/ctrl.c" 1
	wfe
# 0 "" 2
#NO_APP
.LBE44:
.LBE43:
.LBB45:
.LBB46:
	.loc 1 1932 0
#APP
# 1932 "src/ctrl.c" 1
	sev
# 0 "" 2
#NO_APP
.LBE46:
.LBE45:
.LBB47:
.LBB48:
	.loc 1 1928 0
#APP
# 1928 "src/ctrl.c" 1
	wfe
# 0 "" 2
#NO_APP
.LBE48:
.LBE47:
	.loc 1 4227 0
	popl	%ebp
	.cfi_restore 5
	.cfi_def_cfa 4, 4
	ret
	.cfi_endproc
.LFE132:
	.size	cpu_sleep, .-cpu_sleep
	.section	.text.unlikely.cpu_sleep
.LCOLDE0:
	.section	.text.cpu_sleep
.LHOTE0:
	.section	.text.unlikely.ticker_if_done,"ax",@progbits
.LCOLDB1:
	.section	.text.ticker_if_done,"ax",@progbits
.LHOTB1:
	.type	ticker_if_done, @function
ticker_if_done:
.LFB231:
	.loc 1 8825 0
	.cfi_startproc
.LVL0:
	pushl	%ebp
	.cfi_def_cfa_offset 8
	.cfi_offset 5, -8
	movl	%esp, %ebp
	.cfi_def_cfa_register 5
	.loc 1 8826 0
	movl	12(%ebp), %eax
	movl	8(%ebp), %edx
	movl	%edx, (%eax)
	.loc 1 8827 0
	popl	%ebp
	.cfi_restore 5
	.cfi_def_cfa 4, 4
	ret
	.cfi_endproc
.LFE231:
	.size	ticker_if_done, .-ticker_if_done
	.section	.text.unlikely.ticker_if_done
.LCOLDE1:
	.section	.text.ticker_if_done
.LHOTE1:
	.section	.text.unlikely.ticker_success_assert,"ax",@progbits
.LCOLDB2:
	.section	.text.ticker_success_assert,"ax",@progbits
.LHOTB2:
	.type	ticker_success_assert, @function
ticker_success_assert:
.LFB232:
	.loc 1 8829 0
	.cfi_startproc
.LVL1:
	pushl	%ebp
	.cfi_def_cfa_offset 8
	.cfi_offset 5, -8
	movl	%esp, %ebp
	.cfi_def_cfa_register 5
	.loc 1 8832 0
	popl	%ebp
	.cfi_restore 5
	.cfi_def_cfa 4, 4
	ret
	.cfi_endproc
.LFE232:
	.size	ticker_success_assert, .-ticker_success_assert
	.section	.text.unlikely.ticker_success_assert
.LCOLDE2:
	.section	.text.ticker_success_assert
.LHOTE2:
	.section	.text.unlikely.ticker_update_slave_assert,"ax",@progbits
.LCOLDB3:
	.section	.text.ticker_update_slave_assert,"ax",@progbits
.LHOTB3:
	.type	ticker_update_slave_assert, @function
ticker_update_slave_assert:
.LFB236:
	.loc 1 8866 0
	.cfi_startproc
.LVL2:
	pushl	%ebp
	.cfi_def_cfa_offset 8
	.cfi_offset 5, -8
	movl	%esp, %ebp
	.cfi_def_cfa_register 5
.LVL3:
	.loc 1 8868 0
	cmpl	$0, 8(%ebp)
	je	.L7
	.loc 1 8868 0 is_stmt 0 discriminator 1
	movb	_radio+14, %al
.L7:
	.loc 1 8870 0 is_stmt 1
	popl	%ebp
	.cfi_restore 5
	.cfi_def_cfa 4, 4
	ret
	.cfi_endproc
.LFE236:
	.size	ticker_update_slave_assert, .-ticker_update_slave_assert
	.section	.text.unlikely.ticker_update_slave_assert
.LCOLDE3:
	.section	.text.ticker_update_slave_assert
.LHOTE3:
	.section	.text.unlikely.chan_sel_remap,"ax",@progbits
.LCOLDB4:
	.section	.text.chan_sel_remap,"ax",@progbits
.LHOTB4:
	.type	chan_sel_remap, @function
chan_sel_remap:
.LFB247:
	.loc 1 9095 0
	.cfi_startproc
.LVL4:
	pushl	%ebp
	.cfi_def_cfa_offset 8
	.cfi_offset 5, -8
	movl	%esp, %ebp
	.cfi_def_cfa_register 5
	pushl	%edi
	pushl	%esi
	.cfi_offset 7, -12
	.cfi_offset 6, -16
	xorl	%esi, %esi
	pushl	%ebx
	pushl	%ecx
	.cfi_offset 3, -20
	.loc 1 9095 0
	movl	%eax, -16(%ebp)
.LVL5:
	.loc 1 9098 0
	xorl	%ecx, %ecx
.LVL6:
.L20:
.LBB49:
	.loc 1 9103 0
	movl	-16(%ebp), %eax
	leal	8(%ecx), %edi
	movb	(%eax,%esi), %bl
.LVL7:
.L15:
	.loc 1 9105 0
	movl	%edi, %eax
	cmpb	%al, %cl
	je	.L30
	.loc 1 9106 0
	testb	$1, %bl
	je	.L16
	.loc 1 9107 0
	testb	%dl, %dl
	je	.L23
	.loc 1 9110 0
	decl	%edx
.LVL8:
.L16:
	.loc 1 9112 0
	incl	%ecx
.LVL9:
	.loc 1 9113 0
	shrb	%bl
.LVL10:
	jmp	.L15
.L30:
.LVL11:
	incl	%esi
.LVL12:
.LBE49:
	.loc 1 9100 0
	cmpl	$5, %esi
	jne	.L20
.LVL13:
.L23:
	.loc 1 9121 0
	popl	%edx
.LVL14:
	movb	%cl, %al
	popl	%ebx
	.cfi_restore 3
.LVL15:
	popl	%esi
	.cfi_restore 6
	popl	%edi
	.cfi_restore 7
	popl	%ebp
	.cfi_restore 5
	.cfi_def_cfa 4, 4
	ret
	.cfi_endproc
.LFE247:
	.size	chan_sel_remap, .-chan_sel_remap
	.section	.text.unlikely.chan_sel_remap
.LCOLDE4:
	.section	.text.chan_sel_remap
.LHOTE4:
	.section	.text.unlikely.packet_rx_reserve_get,"ax",@progbits
.LCOLDB5:
	.section	.text.packet_rx_reserve_get,"ax",@progbits
.LHOTB5:
	.type	packet_rx_reserve_get, @function
packet_rx_reserve_get:
.LFB291:
	.loc 1 10840 0
	.cfi_startproc
.LVL16:
.LBB52:
.LBB53:
	.loc 1 10830 0
	movb	_radio+317, %cl
	.loc 1 10829 0
	movb	_radio+318, %dl
.LBE53:
.LBE52:
	.loc 1 10840 0
	pushl	%ebp
	.cfi_def_cfa_offset 8
	.cfi_offset 5, -8
.LBB56:
.LBB54:
	.loc 1 10829 0
	cmpb	%cl, %dl
.LBE54:
.LBE56:
	.loc 1 10840 0
	movl	%esp, %ebp
	.cfi_def_cfa_register 5
.LBB57:
.LBB55:
	.loc 1 10832 0
	movb	_radio+317, %cl
	.loc 1 10829 0
	jnb	.L37
	.loc 1 10834 0
	addl	_radio+316, %edx
.L37:
	subl	%ecx, %edx
.LBE55:
.LBE57:
	.loc 1 10842 0
	xorl	%ecx, %ecx
	.loc 1 10841 0
	cmpb	%dl, %al
	ja	.L34
	.loc 1 10844 0
	movzbl	_radio+317, %eax
.LVL17:
	movl	_radio+312, %edx
	movl	(%edx,%eax,4), %ecx
.L34:
	.loc 1 10845 0
	movl	%ecx, %eax
	popl	%ebp
	.cfi_restore 5
	.cfi_def_cfa 4, 4
	ret
	.cfi_endproc
.LFE291:
	.size	packet_rx_reserve_get, .-packet_rx_reserve_get
	.section	.text.unlikely.packet_rx_reserve_get
.LCOLDE5:
	.section	.text.packet_rx_reserve_get
.LHOTE5:
	.section	.text.unlikely.ticker_op_latency_cancelled,"ax",@progbits
.LCOLDB6:
	.section	.text.ticker_op_latency_cancelled,"ax",@progbits
.LHOTB6:
	.type	ticker_op_latency_cancelled, @function
ticker_op_latency_cancelled:
.LFB355:
	.loc 1 12666 0
	.cfi_startproc
.LVL18:
	pushl	%ebp
	.cfi_def_cfa_offset 8
	.cfi_offset 5, -8
	movl	%esp, %ebp
	.cfi_def_cfa_register 5
	.loc 1 12666 0
	movl	12(%ebp), %eax
.LVL19:
	.loc 1 12670 0
	andb	$-3, 60(%eax)
	.loc 1 12671 0
	popl	%ebp
	.cfi_restore 5
	.cfi_def_cfa 4, 4
	ret
	.cfi_endproc
.LFE355:
	.size	ticker_op_latency_cancelled, .-ticker_op_latency_cancelled
	.section	.text.unlikely.ticker_op_latency_cancelled
.LCOLDE6:
	.section	.text.ticker_op_latency_cancelled
.LHOTE6:
	.section	.text.unlikely.tx_cmplt_get,"ax",@progbits
.LCOLDB7:
	.section	.text.tx_cmplt_get,"ax",@progbits
.LHOTB7:
	.type	tx_cmplt_get, @function
tx_cmplt_get:
.LFB345:
	.loc 1 12413 0
	.cfi_startproc
.LVL20:
	pushl	%ebp
	.cfi_def_cfa_offset 8
	.cfi_offset 5, -8
	movl	%esp, %ebp
	.cfi_def_cfa_register 5
	pushl	%edi
	pushl	%esi
	pushl	%ebx
	subl	$28, %esp
	.cfi_offset 7, -12
	.cfi_offset 6, -16
	.cfi_offset 3, -20
	.loc 1 12416 0
	movb	(%edx), %bl
.LVL21:
	.loc 1 12413 0
	movb	%cl, -25(%ebp)
	.loc 1 12417 0
	cmpb	%cl, %bl
	je	.L49
	movl	%edx, -32(%ebp)
	.loc 1 12421 0
	movl	_radio+364, %edx
.LVL22:
	movl	%eax, %edi
.LVL23:
	movzbl	%bl, %eax
.LVL24:
	.loc 1 12420 0
	xorl	%esi, %esi
	.loc 1 12421 0
	movl	(%edx,%eax,8), %eax
	movw	%ax, (%edi)
.LVL25:
.L48:
.LBB58:
	.loc 1 12425 0
	movl	_radio+364, %edx
	movzbl	%bl, %eax
	leal	(%edx,%eax,8), %eax
	movl	(%eax), %ecx
	cmpw	%cx, (%edi)
	jne	.L42
	.loc 1 12428 0
	movl	4(%eax), %edx
.LVL26:
	.loc 1 12430 0
	cmpl	$1, %edx
	jbe	.L43
	.loc 1 12431 0 discriminator 1
	testl	$-4, %edx
	je	.L44
	cmpl	$-4, %edx
	je	.L44
	.loc 1 12432 0
	cmpb	$0, 5(%edx)
	je	.L44
	.loc 1 12432 0 is_stmt 0 discriminator 1
	movb	4(%edx), %cl
	andl	$3, %ecx
	decl	%ecx
	cmpb	$1, %cl
	ja	.L44
.L43:
	.loc 1 12435 0 is_stmt 1
	movl	$1, 4(%eax)
	.loc 1 12437 0
	incl	%esi
.LVL27:
	jmp	.L45
.L44:
	.loc 1 12439 0
	movl	$2, 4(%eax)
.L45:
	.loc 1 12442 0
	testl	$-4, %edx
	je	.L46
	.loc 1 12443 0
	pushl	%eax
	pushl	%eax
	pushl	$_radio+352
	pushl	%edx
	call	mem_release
.LVL28:
	addl	$16, %esp
.L46:
	.loc 1 12445 0
	incl	%ebx
.LVL29:
	.loc 1 12447 0
	cmpb	_radio+368, %bl
	movb	$0, %al
	cmove	%eax, %ebx
.LVL30:
.LBE58:
	.loc 1 12449 0
	cmpb	-25(%ebp), %bl
	jne	.L48
.L42:
	.loc 1 12450 0
	movl	-32(%ebp), %eax
	movb	%bl, (%eax)
	.loc 1 12451 0
	movl	%esi, %eax
	jmp	.L41
.LVL31:
.L49:
	.loc 1 12418 0
	xorl	%eax, %eax
.LVL32:
.L41:
	.loc 1 12452 0
	leal	-12(%ebp), %esp
	popl	%ebx
	.cfi_restore 3
.LVL33:
	popl	%esi
	.cfi_restore 6
	popl	%edi
	.cfi_restore 7
	popl	%ebp
	.cfi_restore 5
	.cfi_def_cfa 4, 4
.LVL34:
	ret
	.cfi_endproc
.LFE345:
	.size	tx_cmplt_get, .-tx_cmplt_get
	.section	.text.unlikely.tx_cmplt_get
.LCOLDE7:
	.section	.text.tx_cmplt_get
.LHOTE7:
	.section	.text.unlikely.connection_get,"ax",@progbits
.LCOLDB8:
	.section	.text.connection_get,"ax",@progbits
.LHOTB8:
	.type	connection_get, @function
connection_get:
.LFB319:
	.loc 1 11495 0
	.cfi_startproc
.LVL35:
	.loc 1 11497 0
	movzbl	_radio+272, %edx
	cmpw	%ax, %dx
	jbe	.L69
	.loc 1 11495 0
	pushl	%ebp
	.cfi_def_cfa_offset 8
	.cfi_offset 5, -8
	movl	%esp, %ebp
	.cfi_def_cfa_register 5
	pushl	%ebx
	.cfi_offset 3, -12
	movl	%eax, %ebx
	.loc 1 11498 0
	movzwl	%ax, %eax
	.loc 1 11495 0
	subl	$8, %esp
	.loc 1 11498 0
	pushl	%eax
	pushl	$316
	pushl	_radio+264
	call	mem_get
.LVL36:
	.loc 1 11499 0
	addl	$16, %esp
	testl	%eax, %eax
	je	.L62
	.loc 1 11499 0 is_stmt 0 discriminator 1
	cmpw	32(%eax), %bx
	je	.L63
.L62:
	.loc 1 11503 0 is_stmt 1
	xorl	%eax, %eax
.LVL37:
.L63:
	.loc 1 11504 0
	movl	-4(%ebp), %ebx
	leave
	.cfi_restore 5
	.cfi_restore 3
	.cfi_def_cfa 4, 4
	ret
.LVL38:
.L69:
	.loc 1 11503 0
	xorl	%eax, %eax
.LVL39:
	.loc 1 11504 0
	ret
	.cfi_endproc
.LFE319:
	.size	connection_get, .-connection_get
	.section	.text.unlikely.connection_get
.LCOLDE8:
	.section	.text.connection_get
.LHOTE8:
	.section	.text.unlikely.role_disable,"ax",@progbits
.LCOLDB9:
	.section	.text.role_disable,"ax",@progbits
.LHOTB9:
	.type	role_disable, @function
role_disable:
.LFB321:
	.loc 1 11609 0
	.cfi_startproc
.LVL40:
	pushl	%ebp
	.cfi_def_cfa_offset 8
	.cfi_offset 5, -8
	movl	%esp, %ebp
	.cfi_def_cfa_register 5
	pushl	%edi
	pushl	%esi
	pushl	%ebx
	.cfi_offset 7, -12
	.cfi_offset 6, -16
	.cfi_offset 3, -20
	movl	%eax, %ebx
	subl	$60, %esp
	.loc 1 11609 0
	movl	%edx, -60(%ebp)
	movl	%gs:20, %eax
	movl	%eax, -28(%ebp)
	xorl	%eax, %eax
.LVL41:
	.loc 1 11614 0
	cmpb	$5, %bl
	.loc 1 11610 0
	movl	$2, -44(%ebp)
.LVL42:
	.loc 1 11614 0
	je	.L72
	cmpb	$6, %bl
	jne	.L117
	.loc 1 11632 0
	movl	_radio+208, %esi
.LVL43:
	.loc 1 11634 0
	movl	_radio+212, %edi
.LVL44:
	.loc 1 11636 0
	jmp	.L76
.LVL45:
.L72:
	.loc 1 11620 0
	leal	-44(%ebp), %eax
	subl	$12, %esp
	.loc 1 11616 0
	movl	_radio+24, %esi
.LVL46:
	.loc 1 11618 0
	movl	_radio+28, %edi
.LVL47:
	.loc 1 11620 0
	pushl	%eax
	movzbl	-60(%ebp), %eax
	pushl	$ticker_if_done
	pushl	%eax
	pushl	$3
	pushl	$0
	call	ticker_stop
.LVL48:
	.loc 1 11623 0
	addl	$32, %esp
	cmpl	$2, %eax
	je	.L74
.LVL49:
.L78:
	.loc 1 11628 0
	movl	-44(%ebp), %eax
	testl	%eax, %eax
	je	.L76
	.loc 1 11628 0 is_stmt 0 discriminator 1
	movl	-44(%ebp), %eax
	jmp	.L76
.L74:
	.loc 1 11624 0 is_stmt 1
	movl	-44(%ebp), %eax
	cmpl	$2, %eax
	jne	.L78
	.loc 1 11625 0
	call	cpu_sleep
.LVL50:
	jmp	.L74
.LVL51:
.L117:
	.loc 1 11638 0
	jbe	.L103
.LVL52:
.LBB68:
	.loc 1 11643 0
	movzbl	%bl, %eax
	subl	$7, %eax
	movzwl	%ax, %eax
	call	connection_get
.LVL53:
	movl	%eax, %edx
.LVL54:
	.loc 1 11645 0
	movl	$1, %eax
.LVL55:
	.loc 1 11644 0
	testl	%edx, %edx
	je	.L79
	.loc 1 11647 0
	movl	(%edx), %esi
.LVL56:
	.loc 1 11649 0
	movl	4(%edx), %edi
.LVL57:
.LBE68:
	jmp	.L76
.LVL58:
.L103:
	.loc 1 11612 0
	xorl	%esi, %esi
	.loc 1 11611 0
	xorl	%edi, %edi
.LVL59:
.L76:
	.loc 1 11656 0
	movb	_radio+14, %al
	.loc 1 11659 0
	leal	-44(%ebp), %eax
	subl	$12, %esp
	.loc 1 11657 0
	movb	%bl, _radio+14
	.loc 1 11658 0
	movl	$2, -44(%ebp)
	.loc 1 11659 0
	pushl	%eax
	movzbl	%bl, %eax
	pushl	$ticker_if_done
	pushl	%eax
	pushl	$3
	pushl	$0
	call	ticker_stop
.LVL60:
	.loc 1 11662 0
	addl	$32, %esp
	cmpl	$2, %eax
	je	.L80
.LVL61:
.L86:
	.loc 1 11671 0
	movl	-44(%ebp), %eax
	testl	%eax, %eax
	jne	.L87
	jmp	.L118
.LVL62:
.L80:
	.loc 1 11663 0
	movb	_radio+13, %al
.LVL63:
	cmpb	%al, %bl
	jne	.L84
	.loc 1 11664 0
	pushl	%eax
	pushl	$1
	pushl	$1
	pushl	$3
	call	mayfly_enable
.LVL64:
	addl	$16, %esp
.L84:
	.loc 1 11667 0
	movl	-44(%ebp), %eax
	cmpl	$2, %eax
	jne	.L86
	.loc 1 11668 0
	call	cpu_sleep
.LVL65:
	jmp	.L84
.L118:
	.loc 1 11674 0
	movb	_radio+12, %al
	cmpb	%al, %bl
	je	.L88
	.loc 1 11675 0
	movb	_radio+13, %al
	cmpb	%al, %bl
	jne	.L89
.L88:
.LVL66:
.LBB69:
.LBB70:
	.loc 1 11516 0
	leal	-40(%ebp), %eax
	subl	$12, %esp
	.loc 1 11514 0
	movl	$2, -40(%ebp)
	.loc 1 11516 0
	pushl	%eax
	pushl	$ticker_if_done
	pushl	$0
	pushl	$3
	pushl	$0
	call	ticker_stop
.LVL67:
	.loc 1 11519 0
	addl	$32, %esp
	cmpl	$2, %eax
	jne	.L90
	.loc 1 11520 0
	pushl	%ecx
	pushl	$1
	pushl	$1
	pushl	$3
	call	mayfly_enable
.LVL68:
	.loc 1 11522 0
	movl	-40(%ebp), %eax
	addl	$16, %esp
.L90:
	.loc 1 11524 0
	movl	-40(%ebp), %eax
	testl	%eax, %eax
	jne	.L91
.LBB71:
	.loc 1 11530 0
	movl	$2, -36(%ebp)
	.loc 1 11532 0
	movb	_radio+12, %al
	.loc 1 11534 0
	leal	-36(%ebp), %eax
	subl	$12, %esp
	.loc 1 11533 0
	movb	$0, _radio+12
	.loc 1 11534 0
	pushl	%eax
	pushl	$ticker_if_done
	pushl	$1
	pushl	$3
	pushl	$0
	call	ticker_stop
.LVL69:
	.loc 1 11538 0
	addl	$32, %esp
	cmpl	$2, %eax
	jne	.L92
	.loc 1 11539 0
	pushl	%edx
	pushl	$1
	pushl	$1
	pushl	$3
	call	mayfly_enable
.LVL70:
	.loc 1 11541 0
	movl	-36(%ebp), %eax
	addl	$16, %esp
.L92:
	.loc 1 11543 0
	movl	-36(%ebp), %eax
	testl	%eax, %eax
	jne	.L93
.LVL71:
	.loc 1 11545 0
	andl	$2147483647, %esi
.LVL72:
	cmpl	%esi, %edi
	jbe	.L94
.LBB72:
	.loc 1 11547 0
	pushl	$s_mfy_radio_inactive.9583
	jmp	.L116
.L94:
.LBE72:
.LBB73:
	.loc 1 11554 0
	pushl	$s_mfy_xtal_stop.9587
.L116:
	pushl	$0
	pushl	$0
	pushl	$3
	call	mayfly_enqueue
.LVL73:
	addl	$16, %esp
	jmp	.L89
.LVL74:
.L93:
.LBE73:
	.loc 1 11560 0
	movl	-36(%ebp), %eax
	decl	%eax
	jne	.L89
.LBB74:
	.loc 1 11562 0
	pushl	$s_mfy_radio_inactive.9583
	pushl	$0
	pushl	$0
	pushl	$3
	call	mayfly_enqueue
.LVL75:
	.loc 1 11566 0
	pushl	$s_mfy_xtal_stop.9587
	pushl	$0
	pushl	$0
	pushl	$3
	call	mayfly_enqueue
.LVL76:
	addl	$32, %esp
	jmp	.L89
.L91:
.LBE74:
.LBE71:
	.loc 1 11573 0
	movl	-40(%ebp), %eax
	decl	%eax
	jne	.L89
	.loc 1 11574 0
	cmpb	$-1, -60(%ebp)
	je	.L97
.LBB75:
	.loc 1 11577 0
	leal	-32(%ebp), %eax
	subl	$12, %esp
	.loc 1 11575 0
	movl	$2, -32(%ebp)
	.loc 1 11577 0
	pushl	%eax
	movzbl	-60(%ebp), %eax
	pushl	$ticker_if_done
	pushl	%eax
	pushl	$3
	pushl	$0
	call	ticker_stop
.LVL77:
	.loc 1 11581 0
	addl	$32, %esp
	cmpl	$2, %eax
	jne	.L98
.LVL78:
	.loc 1 11582 0
	pushl	%eax
	pushl	$1
	pushl	$1
	pushl	$3
	call	mayfly_enable
.LVL79:
	.loc 1 11584 0
	movl	-32(%ebp), %eax
	addl	$16, %esp
.L98:
	.loc 1 11586 0
	movl	-32(%ebp), %eax
	testl	%eax, %eax
	je	.L97
	movl	-32(%ebp), %eax
.L97:
.LBE75:
	.loc 1 11589 0
	movl	_radio+16, %eax
	testl	%eax, %eax
	je	.L89
.LBB76:
	.loc 1 11596 0
	pushl	$s_mfy_radio_stop.9596
	pushl	$0
	pushl	$0
	pushl	$3
	.loc 1 11595 0
	movl	$4, s_mfy_radio_stop.9596+8
	.loc 1 11596 0
	call	mayfly_enqueue
.LVL80:
	addl	$16, %esp
.L100:
	.loc 1 11600 0
	movl	_radio+16, %eax
	testl	%eax, %eax
	je	.L89
	.loc 1 11601 0
	call	cpu_sleep
.LVL81:
	jmp	.L100
.LVL82:
.L89:
.LBE76:
.LBE70:
.LBE69:
	.loc 1 11679 0
	movb	_radio+14, %al
	testb	%al, %al
	jne	.L87
	.loc 1 11680 0
	movl	$1, -44(%ebp)
.L87:
	.loc 1 11683 0
	movb	$0, _radio+14
	.loc 1 11684 0
	movl	-44(%ebp), %eax
.LVL83:
.L79:
	.loc 1 11685 0
	movl	-28(%ebp), %ecx
	xorl	%gs:20, %ecx
	je	.L102
	call	__stack_chk_fail
.LVL84:
.L102:
	leal	-12(%ebp), %esp
	popl	%ebx
	.cfi_restore 3
	popl	%esi
	.cfi_restore 6
	popl	%edi
	.cfi_restore 7
	popl	%ebp
	.cfi_restore 5
	.cfi_def_cfa 4, 4
	ret
	.cfi_endproc
.LFE321:
	.size	role_disable, .-role_disable
	.section	.text.unlikely.role_disable
.LCOLDE9:
	.section	.text.role_disable
.LHOTE9:
	.section	.text.unlikely.event_stop,"ax",@progbits
.LCOLDB10:
	.section	.text.event_stop,"ax",@progbits
.LHOTB10:
	.type	event_stop, @function
event_stop:
.LFB245:
	.loc 1 8979 0
	.cfi_startproc
.LVL85:
	pushl	%ebp
	.cfi_def_cfa_offset 8
	.cfi_offset 5, -8
	movl	%esp, %ebp
	.cfi_def_cfa_register 5
	.loc 1 8989 0
	movl	20(%ebp), %eax
	.loc 1 8990 0
	movl	$0, 16(%ebp)
.LVL86:
	movl	$s_mfy_radio_stop.9013, 20(%ebp)
.LVL87:
	movl	$0, 12(%ebp)
.LVL88:
	movl	$0, 8(%ebp)
.LVL89:
	.loc 1 8994 0
	popl	%ebp
	.cfi_restore 5
	.cfi_def_cfa 4, 4
	.loc 1 8989 0
	movl	%eax, s_mfy_radio_stop.9013+8
	.loc 1 8990 0
	jmp	mayfly_enqueue
.LVL90:
	.cfi_endproc
.LFE245:
	.size	event_stop, .-event_stop
	.section	.text.unlikely.event_stop
.LCOLDE10:
	.section	.text.event_stop
.LHOTE10:
	.section	.text.unlikely.event_adv_stop,"ax",@progbits
.LCOLDB11:
	.section	.text.event_adv_stop,"ax",@progbits
.LHOTB11:
	.globl	event_adv_stop
	.type	event_adv_stop, @function
event_adv_stop:
.LFB264:
	.loc 1 9533 0
	.cfi_startproc
.LVL91:
	pushl	%ebp
	.cfi_def_cfa_offset 8
	.cfi_offset 5, -8
	movl	%esp, %ebp
	.cfi_def_cfa_register 5
	subl	$8, %esp
	.loc 1 9539 0
	pushl	$5
	pushl	$0
	pushl	$0
	pushl	$0
	call	event_stop
.LVL92:
	.loc 1 9540 0
	movl	$6079, (%esp)
	pushl	$ticker_stop_adv_stop
	pushl	$5
	pushl	$0
	pushl	$0
	call	ticker_stop
.LVL93:
	.loc 1 9546 0
	addl	$32, %esp
	leave
	.cfi_restore 5
	.cfi_def_cfa 4, 4
	ret
	.cfi_endproc
.LFE264:
	.size	event_adv_stop, .-event_adv_stop
	.section	.text.unlikely.event_adv_stop
.LCOLDE11:
	.section	.text.event_adv_stop
.LHOTE11:
	.section	.text.unlikely.event_active,"ax",@progbits
.LCOLDB12:
	.section	.text.event_active,"ax",@progbits
.LHOTB12:
	.type	event_active, @function
event_active:
.LFB238:
	.loc 1 8891 0
	.cfi_startproc
.LVL94:
	pushl	%ebp
	.cfi_def_cfa_offset 8
	.cfi_offset 5, -8
	movl	%esp, %ebp
	.cfi_def_cfa_register 5
	.loc 1 8900 0
	movl	$s_mfy_radio_active.8972, 20(%ebp)
.LVL95:
	movl	$0, 16(%ebp)
.LVL96:
	movl	$0, 12(%ebp)
.LVL97:
	movl	$0, 8(%ebp)
.LVL98:
	.loc 1 8904 0
	popl	%ebp
	.cfi_restore 5
	.cfi_def_cfa 4, 4
	.loc 1 8900 0
	jmp	mayfly_enqueue
.LVL99:
	.cfi_endproc
.LFE238:
	.size	event_active, .-event_active
	.section	.text.unlikely.event_active
.LCOLDE12:
	.section	.text.event_active
.LHOTE12:
	.section	.text.unlikely.event_xtal,"ax",@progbits
.LCOLDB13:
	.section	.text.event_xtal,"ax",@progbits
.LHOTB13:
	.type	event_xtal, @function
event_xtal:
.LFB242:
	.loc 1 8938 0
	.cfi_startproc
.LVL100:
	pushl	%ebp
	.cfi_def_cfa_offset 8
	.cfi_offset 5, -8
	movl	%esp, %ebp
	.cfi_def_cfa_register 5
	.loc 1 8949 0
	movl	$s_mfy_xtal_start.8996, 20(%ebp)
.LVL101:
	movl	$0, 16(%ebp)
.LVL102:
	movl	$0, 12(%ebp)
.LVL103:
	movl	$0, 8(%ebp)
.LVL104:
	.loc 1 8953 0
	popl	%ebp
	.cfi_restore 5
	.cfi_def_cfa 4, 4
	.loc 1 8949 0
	jmp	mayfly_enqueue
.LVL105:
	.cfi_endproc
.LFE242:
	.size	event_xtal, .-event_xtal
	.section	.text.unlikely.event_xtal
.LCOLDE13:
	.section	.text.event_xtal
.LHOTE13:
	.section	.text.unlikely.mayfly_radio_stop,"ax",@progbits
.LCOLDB14:
	.section	.text.mayfly_radio_stop,"ax",@progbits
.LHOTB14:
	.type	mayfly_radio_stop, @function
mayfly_radio_stop:
.LFB244:
	.loc 1 8963 0
	.cfi_startproc
.LVL106:
	pushl	%ebp
	.cfi_def_cfa_offset 8
	.cfi_offset 5, -8
	movl	%esp, %ebp
	.cfi_def_cfa_register 5
	subl	$8, %esp
	.loc 1 8967 0
	movl	_radio+20, %edx
	.loc 1 8963 0
	movl	8(%ebp), %eax
.LVL107:
	.loc 1 8970 0
	leal	-4(%edx), %ecx
	cmpl	$1, %ecx
	jbe	.L132
	testl	%edx, %edx
	jne	.L128
.L132:
	.loc 1 8970 0 is_stmt 0 discriminator 1
	call	radio_is_idle
.LVL108:
	testl	%eax, %eax
	jne	.L127
.L131:
	.loc 1 8976 0 is_stmt 1
	leave
	.cfi_remember_state
	.cfi_restore 5
	.cfi_def_cfa 4, 4
	.loc 1 8974 0
	jmp	radio_disable
.LVL109:
.L128:
	.cfi_restore_state
	.loc 1 8972 0
	andl	$255, %eax
.LVL110:
	movl	%eax, _radio+20
	jmp	.L131
.LVL111:
.L127:
	.loc 1 8976 0
	leave
	.cfi_restore 5
	.cfi_def_cfa 4, 4
	ret
	.cfi_endproc
.LFE244:
	.size	mayfly_radio_stop, .-mayfly_radio_stop
	.section	.text.unlikely.mayfly_radio_stop
.LCOLDE14:
	.section	.text.mayfly_radio_stop
.LHOTE14:
	.section	.text.unlikely.rx_packet_set,"ax",@progbits
.LCOLDB15:
	.section	.text.rx_packet_set,"ax",@progbits
.LHOTB15:
	.type	rx_packet_set, @function
rx_packet_set:
.LFB286:
	.loc 1 10723 0
	.cfi_startproc
.LVL112:
	pushl	%ebp
	.cfi_def_cfa_offset 8
	.cfi_offset 5, -8
.LVL113:
	movl	%esp, %ebp
	.cfi_def_cfa_register 5
	pushl	%edi
	pushl	%esi
	pushl	%ebx
	.cfi_offset 7, -12
	.cfi_offset 6, -16
	.cfi_offset 3, -20
	movl	%eax, %esi
	movl	%edx, %ebx
	subl	$20, %esp
	.loc 1 10727 0
	movb	46(%eax), %al
.LVL114:
	.loc 1 10728 0
	pushl	$0
	movl	%eax, %edi
	andl	$7, %edi
	pushl	%edi
	call	radio_phy_set
.LVL115:
	.loc 1 10729 0
	addl	$16, %esp
	testb	$16, 224(%esi)
	leal	(%edi,%edi), %edx
	je	.L138
	.loc 1 10730 0
	orl	$1, %edx
	pushl	%ecx
	.loc 1 10731 0
	addl	$225, %esi
.LVL116:
	.loc 1 10730 0
	pushl	%edx
	pushl	$31
	pushl	$8
	call	radio_pkt_configure
.LVL117:
	.loc 1 10731 0
	addl	$12, %esp
	pushl	%ebx
	pushl	%edi
	pushl	%esi
	call	radio_ccm_rx_pkt_set
.LVL118:
	movl	%eax, (%esp)
	jmp	.L141
.LVL119:
.L138:
	.loc 1 10734 0
	orl	$1, %edx
	pushl	%eax
	pushl	%edx
	pushl	$27
	pushl	$8
	call	radio_pkt_configure
.LVL120:
	.loc 1 10735 0
	movl	%ebx, (%esp)
.LVL121:
.L141:
	call	radio_pkt_rx_set
.LVL122:
	addl	$16, %esp
	.loc 1 10737 0
	leal	-12(%ebp), %esp
	popl	%ebx
	.cfi_restore 3
.LVL123:
	popl	%esi
	.cfi_restore 6
	popl	%edi
	.cfi_restore 7
	popl	%ebp
	.cfi_restore 5
	.cfi_def_cfa 4, 4
	ret
	.cfi_endproc
.LFE286:
	.size	rx_packet_set, .-rx_packet_set
	.section	.text.unlikely.rx_packet_set
.LCOLDE15:
	.section	.text.rx_packet_set
.LHOTE15:
	.section	.text.unlikely.pdu_node_tx_release,"ax",@progbits
.LCOLDB16:
	.section	.text.pdu_node_tx_release,"ax",@progbits
.LHOTB16:
	.type	pdu_node_tx_release, @function
pdu_node_tx_release:
.LFB299:
	.loc 1 10981 0
	.cfi_startproc
.LVL124:
	.loc 1 10983 0
	movb	_radio+372, %cl
	.loc 1 10981 0
	pushl	%ebp
	.cfi_def_cfa_offset 8
	.cfi_offset 5, -8
	movl	%esp, %ebp
	.cfi_def_cfa_register 5
	pushl	%esi
	pushl	%ebx
	.cfi_offset 6, -12
	.cfi_offset 3, -16
	.loc 1 10983 0
	incl	%ecx
.LVL125:
	.loc 1 10985 0
	cmpb	_radio+368, %cl
	movb	$0, %bl
	.loc 1 10988 0
	movl	_radio+364, %esi
	.loc 1 10985 0
	cmove	%ebx, %ecx
.LVL126:
	.loc 1 10988 0
	movzbl	_radio+372, %ebx
	movw	%ax, (%esi,%ebx,8)
	.loc 1 10989 0
	movzbl	_radio+372, %eax
.LVL127:
	movl	%edx, 4(%esi,%eax,8)
	.loc 1 10990 0
	movb	%cl, _radio+372
.LVL128:
	.loc 1 10992 0
	popl	%ebx
	.cfi_restore 3
	popl	%esi
	.cfi_restore 6
	popl	%ebp
	.cfi_restore 5
	.cfi_def_cfa 4, 4
.LBB77:
.LBB78:
	.loc 1 10848 0
	jmp	radio_event_callback
.LVL129:
.LBE78:
.LBE77:
	.cfi_endproc
.LFE299:
	.size	pdu_node_tx_release, .-pdu_node_tx_release
	.section	.text.unlikely.pdu_node_tx_release
.LCOLDE16:
	.section	.text.pdu_node_tx_release
.LHOTE16:
	.section	.text.unlikely.packet_tx_enqueue,"ax",@progbits
.LCOLDB17:
	.section	.text.packet_tx_enqueue,"ax",@progbits
.LHOTB17:
	.type	packet_tx_enqueue, @function
packet_tx_enqueue:
.LFB294:
	.loc 1 10871 0
	.cfi_startproc
.LVL130:
	pushl	%ebp
	.cfi_def_cfa_offset 8
	.cfi_offset 5, -8
	movl	%esp, %ebp
	.cfi_def_cfa_register 5
	pushl	%edi
	pushl	%esi
	pushl	%ebx
	.cfi_offset 7, -12
	.cfi_offset 6, -16
	.cfi_offset 3, -20
	.loc 1 10872 0
	movl	%eax, %esi
	.loc 1 10871 0
	subl	$12, %esp
.LVL131:
.L146:
	.loc 1 10872 0
	movl	%esi, %eax
	testb	%al, %al
	je	.L145
	.loc 1 10872 0 is_stmt 0 discriminator 1
	movb	_radio+369, %al
	cmpb	_radio+370, %al
	je	.L145
.LBB79:
	.loc 1 10877 0 is_stmt 1
	movzbl	_radio+369, %eax
	movl	_radio+360, %edx
	leal	(%edx,%eax,8), %edi
.LVL132:
	.loc 1 10878 0
	movl	4(%edi), %ebx
.LVL133:
	.loc 1 10879 0
	movl	$0, (%ebx)
	.loc 1 10882 0
	pushl	%eax
	movzwl	(%edi), %eax
	pushl	%eax
	pushl	$316
	pushl	_radio+264
	call	mem_get
.LVL134:
	.loc 1 10884 0
	addl	$16, %esp
	movl	(%edi), %ecx
	cmpw	%cx, 32(%eax)
	jne	.L147
	.loc 1 10885 0
	cmpl	$0, 304(%eax)
	jne	.L149
	.loc 1 10887 0
	cmpl	$0, 292(%eax)
	.loc 1 10886 0
	movl	%ebx, 304(%eax)
	.loc 1 10887 0
	jne	.L149
	.loc 1 10888 0
	movl	%ebx, 292(%eax)
	.loc 1 10889 0
	movl	$0, 308(%eax)
.L149:
	.loc 1 10894 0
	movl	308(%eax), %edx
	testl	%edx, %edx
	je	.L151
	.loc 1 10895 0
	movl	%ebx, (%edx)
.L151:
	.loc 1 10897 0
	movl	%ebx, 308(%eax)
	jmp	.L152
.L147:
.LVL135:
.LBB80:
	.loc 1 10901 0
	andb	$-4, 4(%ebx)
	.loc 1 10902 0
	movl	%ebx, %edx
	movzwl	(%edi), %eax
.LVL136:
	call	pdu_node_tx_release
.LVL137:
.L152:
.LBE80:
	.loc 1 10904 0
	movb	_radio+369, %al
	.loc 1 10906 0
	movb	$0, %dl
	.loc 1 10904 0
	incl	%eax
.LVL138:
	.loc 1 10906 0
	cmpb	_radio+368, %al
	cmove	%edx, %eax
.LVL139:
	decl	%esi
.LVL140:
	.loc 1 10908 0
	movb	%al, _radio+369
	jmp	.L146
.LVL141:
.L145:
.LBE79:
	.loc 1 10910 0
	leal	-12(%ebp), %esp
	popl	%ebx
	.cfi_restore 3
	popl	%esi
	.cfi_restore 6
.LVL142:
	popl	%edi
	.cfi_restore 7
	popl	%ebp
	.cfi_restore 5
	.cfi_def_cfa 4, 4
	ret
	.cfi_endproc
.LFE294:
	.size	packet_tx_enqueue, .-packet_tx_enqueue
	.section	.text.unlikely.packet_tx_enqueue
.LCOLDE17:
	.section	.text.packet_tx_enqueue
.LHOTE17:
	.section	.text.unlikely.connection_release,"ax",@progbits
.LCOLDB18:
	.section	.text.connection_release,"ax",@progbits
.LHOTB18:
	.type	connection_release, @function
connection_release:
.LFB300:
	.loc 1 10994 0
	.cfi_startproc
.LVL143:
	pushl	%ebp
	.cfi_def_cfa_offset 8
	.cfi_offset 5, -8
	movl	%esp, %ebp
	.cfi_def_cfa_register 5
	pushl	%ebx
	.cfi_offset 3, -12
	movl	%eax, %ebx
	subl	$8, %esp
	.loc 1 10996 0
	pushl	$1
	pushl	$1
	pushl	$0
	call	mayfly_enable
.LVL144:
	.loc 1 10997 0
	movb	32(%ebx), %al
	movl	$8744, (%esp)
	pushl	$ticker_success_assert
	addl	$7, %eax
	movzbl	%al, %eax
	pushl	%eax
	pushl	$0
	pushl	$0
	call	ticker_stop
.LVL145:
	.loc 1 11004 0
	addl	$32, %esp
	cmpl	$5, _radio+20
	jne	.L165
	.loc 1 11004 0 is_stmt 0 discriminator 1
	movzwl	32(%ebx), %eax
	.loc 1 11005 0 is_stmt 1 discriminator 1
	movzbl	_radio+12, %edx
	.loc 1 11004 0 discriminator 1
	addl	$7, %eax
	cmpl	%eax, %edx
	jne	.L165
	.loc 1 11008 0
	subl	$12, %esp
	.loc 1 11007 0
	movb	$0, _radio+12
	.loc 1 11008 0
	pushl	$8761
	pushl	$ticker_success_assert
	pushl	$1
	pushl	$0
	pushl	$0
	call	ticker_stop
.LVL146:
	.loc 1 11015 0
	addl	$20, %esp
	pushl	$8768
	pushl	$ticker_success_assert
	pushl	$0
	pushl	$0
	pushl	$0
	call	ticker_stop
.LVL147:
	addl	$32, %esp
	jmp	.L165
.L178:
	.loc 1 11023 0 discriminator 1
	cmpl	304(%ebx), %edx
	je	.L175
.LVL148:
.LBB81:
	.loc 1 11029 0
	andb	$-4, 4(%edx)
	.loc 1 11030 0
	movl	292(%ebx), %eax
	movl	(%eax), %eax
	movl	%eax, 292(%ebx)
	.loc 1 11031 0
	movzwl	32(%ebx), %eax
	call	pdu_node_tx_release
.LVL149:
.L165:
.LBE81:
	.loc 1 11023 0
	movl	292(%ebx), %edx
	cmpl	296(%ebx), %edx
	jne	.L178
	jmp	.L175
.L179:
	.loc 1 11033 0 discriminator 1
	cmpl	304(%ebx), %eax
	je	.L168
.LVL150:
.LBB82:
	.loc 1 11037 0
	movl	(%eax), %edx
	movl	%edx, 292(%ebx)
	.loc 1 11038 0
	movl	%edx, 296(%ebx)
	.loc 1 11039 0
	pushl	%edx
	pushl	%edx
	pushl	$_radio+344
	pushl	%eax
	call	mem_release
.LVL151:
	addl	$16, %esp
.L175:
.LBE82:
	.loc 1 11033 0
	movl	292(%ebx), %eax
	testl	%eax, %eax
	jne	.L179
.L168:
	.loc 1 11041 0
	movl	$0, 296(%ebx)
	.loc 1 11044 0
	movl	$0, 300(%ebx)
.L170:
	.loc 1 11047 0
	movl	292(%ebx), %edx
	testl	%edx, %edx
	je	.L180
.LVL152:
.LBB83:
	.loc 1 11052 0
	andb	$-4, 4(%edx)
	.loc 1 11053 0
	movl	292(%ebx), %eax
	movl	(%eax), %eax
	movl	%eax, 292(%ebx)
	.loc 1 11054 0
	movl	%eax, 304(%ebx)
	.loc 1 11055 0
	movzwl	32(%ebx), %eax
	call	pdu_node_tx_release
.LVL153:
	jmp	.L170
.L180:
.LBE83:
	.loc 1 11058 0
	cmpl	_radio+388, %ebx
	.loc 1 11057 0
	movw	$-1, 32(%ebx)
	.loc 1 11058 0
	jne	.L163
	.loc 1 11059 0
	movl	$0, _radio+388
.L163:
	.loc 1 11063 0
	movl	-4(%ebp), %ebx
.LVL154:
	leave
	.cfi_restore 5
	.cfi_restore 3
	.cfi_def_cfa 4, 4
	ret
	.cfi_endproc
.LFE300:
	.size	connection_release, .-connection_release
	.section	.text.unlikely.connection_release
.LCOLDE18:
	.section	.text.connection_release
.LHOTE18:
	.section	.text.unlikely.tx_packet_set,"ax",@progbits
.LCOLDB19:
	.section	.text.tx_packet_set,"ax",@progbits
.LHOTB19:
	.type	tx_packet_set, @function
tx_packet_set:
.LFB287:
	.loc 1 10739 0
	.cfi_startproc
.LVL155:
	pushl	%ebp
	.cfi_def_cfa_offset 8
	.cfi_offset 5, -8
.LVL156:
	movl	%esp, %ebp
	.cfi_def_cfa_register 5
	pushl	%edi
	pushl	%esi
	pushl	%ebx
	.cfi_offset 7, -12
	.cfi_offset 6, -16
	.cfi_offset 3, -20
	movl	%edx, %ebx
	movl	%eax, %esi
	subl	$20, %esp
	.loc 1 10743 0
	movb	44(%eax), %dl
.LVL157:
	movb	%dl, %al
.LVL158:
	.loc 1 10744 0
	shrb	$7, %dl
	.loc 1 10743 0
	shrb	$3, %al
	.loc 1 10745 0
	movzbl	%dl, %edx
	movl	%eax, %edi
	pushl	%edx
	andl	$7, %edi
	pushl	%edi
	call	radio_phy_set
.LVL159:
	.loc 1 10746 0
	addl	$16, %esp
	testb	$32, 224(%esi)
	leal	(%edi,%edi), %edx
	je	.L182
	.loc 1 10747 0
	orl	$1, %edx
	pushl	%ecx
	.loc 1 10748 0
	addl	$258, %esi
.LVL160:
	.loc 1 10747 0
	pushl	%edx
	pushl	$31
	pushl	$8
	call	radio_pkt_configure
.LVL161:
	.loc 1 10748 0
	popl	%edi
	popl	%eax
	pushl	%ebx
	pushl	%esi
	call	radio_ccm_tx_pkt_set
.LVL162:
	movl	%eax, (%esp)
	jmp	.L185
.LVL163:
.L182:
	.loc 1 10751 0
	orl	$1, %edx
	pushl	%eax
	pushl	%edx
	pushl	$27
	pushl	$8
	call	radio_pkt_configure
.LVL164:
	.loc 1 10752 0
	movl	%ebx, (%esp)
.LVL165:
.L185:
	call	radio_pkt_tx_set
.LVL166:
	addl	$16, %esp
	.loc 1 10754 0
	leal	-12(%ebp), %esp
	popl	%ebx
	.cfi_restore 3
.LVL167:
	popl	%esi
	.cfi_restore 6
	popl	%edi
	.cfi_restore 7
	popl	%ebp
	.cfi_restore 5
	.cfi_def_cfa 4, 4
	ret
	.cfi_endproc
.LFE287:
	.size	tx_packet_set, .-tx_packet_set
	.section	.text.unlikely.tx_packet_set
.LCOLDE19:
	.section	.text.tx_packet_set
.LHOTE19:
	.section	.text.unlikely.chan_set,"ax",@progbits
.LCOLDB20:
	.section	.text.chan_set,"ax",@progbits
.LHOTB20:
	.type	chan_set, @function
chan_set:
.LFB254:
	.loc 1 9184 0
	.cfi_startproc
.LVL168:
	pushl	%ebp
	.cfi_def_cfa_offset 8
	.cfi_offset 5, -8
	.loc 1 9185 0
	cmpl	$38, %eax
	.loc 1 9184 0
	movl	%esp, %ebp
	.cfi_def_cfa_register 5
	pushl	%ebx
	.cfi_offset 3, -12
	movl	%eax, %ebx
	pushl	%edx
	.loc 1 9185 0
	je	.L188
	cmpl	$39, %eax
	je	.L189
	cmpl	$37, %eax
	jne	.L193
	.loc 1 9187 0
	subl	$12, %esp
	pushl	$2
	jmp	.L195
.L188:
	.loc 1 9190 0
	subl	$12, %esp
	pushl	$26
	jmp	.L195
.L189:
	.loc 1 9193 0
	subl	$12, %esp
	pushl	$80
	jmp	.L195
.L193:
	.loc 1 9196 0
	cmpl	$10, %eax
	ja	.L192
	.loc 1 9197 0
	subl	$12, %esp
	leal	4(%eax,%eax), %eax
.LVL169:
	jmp	.L196
.LVL170:
.L192:
	.loc 1 9198 0
	cmpl	$39, %eax
	ja	.L191
	.loc 1 9199 0
	leal	6(%eax,%eax), %eax
.LVL171:
	subl	$12, %esp
.L196:
	pushl	%eax
.L195:
	call	radio_freq_chan_set
.LVL172:
	addl	$16, %esp
.L191:
	.loc 1 9205 0
	subl	$12, %esp
	pushl	%ebx
	call	radio_whiten_iv_set
.LVL173:
	.loc 1 9206 0
	addl	$16, %esp
	movl	-4(%ebp), %ebx
.LVL174:
	leave
	.cfi_restore 5
	.cfi_restore 3
	.cfi_def_cfa 4, 4
	ret
	.cfi_endproc
.LFE254:
	.size	chan_set, .-chan_set
	.section	.text.unlikely.chan_set
.LCOLDE20:
	.section	.text.chan_set
.LHOTE20:
	.section	.text.unlikely.adv_setup,"ax",@progbits
.LCOLDB21:
	.section	.text.adv_setup,"ax",@progbits
.LHOTB21:
	.type	adv_setup, @function
adv_setup:
.LFB259:
	.loc 1 9309 0
	.cfi_startproc
.LVL175:
	pushl	%ebp
	.cfi_def_cfa_offset 8
	.cfi_offset 5, -8
	movl	%esp, %ebp
	.cfi_def_cfa_register 5
	pushl	%ebx
	pushl	%eax
	.cfi_offset 3, -12
	.loc 1 9314 0
	movb	_radio+120, %al
	cmpb	_radio+121, %al
	je	.L198
.LBB84:
	.loc 1 9317 0
	incl	%eax
.LVL176:
	.loc 1 9319 0
	movb	$0, %dl
	cmpb	$2, %al
	cmove	%edx, %eax
.LVL177:
	.loc 1 9321 0
	movb	%al, _radio+120
.LVL178:
.L198:
.LBE84:
	.loc 1 9324 0
	movb	_radio+200, %al
	cmpb	_radio+201, %al
	je	.L200
.LBB85:
	.loc 1 9327 0
	incl	%eax
.LVL179:
	.loc 1 9329 0
	movb	$0, %dl
	cmpb	$2, %al
	cmove	%edx, %eax
.LVL180:
	.loc 1 9331 0
	movb	%al, _radio+200
.LVL181:
.L200:
.LBE85:
	.loc 1 9334 0
	movzbl	_radio+120, %ebx
	.loc 1 9338 0
	subl	$12, %esp
	.loc 1 9334 0
	imull	$39, %ebx, %ebx
	leal	_radio+42(%ebx), %eax
.LVL182:
	.loc 1 9338 0
	pushl	%eax
	call	radio_pkt_tx_set
.LVL183:
	.loc 1 9339 0
	movb	_radio+42(%ebx), %al
	addl	$16, %esp
	andl	$15, %eax
	cmpb	$2, %al
	je	.L202
	.loc 1 9343 0
	subl	$12, %esp
	.loc 1 9342 0
	movl	$2, _radio+20
	.loc 1 9343 0
	pushl	$150
	call	radio_tmr_tifs_set
.LVL184:
	.loc 1 9344 0
	movl	$0, (%esp)
	call	radio_switch_complete_and_rx
.LVL185:
	addl	$16, %esp
	jmp	.L203
.L202:
	.loc 1 9346 0
	movl	$3, _radio+20
	.loc 1 9347 0
	call	radio_switch_complete_and_disable
.LVL186:
.L203:
	.loc 1 9349 0
	movb	_radio+40, %dl
	.loc 1 9350 0
	xorl	%eax, %eax
	.loc 1 9349 0
	shrb	%dl
	andl	$7, %edx
.LVL187:
	movb	%dl, %cl
.LVL188:
.L204:
	.loc 1 9351 0
	testb	$1, %cl
	jne	.L207
	.loc 1 9352 0
	incl	%eax
.LVL189:
	.loc 1 9353 0
	shrb	%cl
.LVL190:
	jmp	.L204
.L207:
	.loc 1 9355 0
	leal	-1(%edx), %ecx
.LVL191:
	.loc 1 9358 0
	movl	-4(%ebp), %ebx
.LVL192:
	.loc 1 9357 0
	movzbl	%al, %eax
	addl	$37, %eax
.LVL193:
	.loc 1 9355 0
	andl	%ecx, %edx
	movb	_radio+40, %cl
	andl	$7, %edx
	addl	%edx, %edx
	andl	$-15, %ecx
	orl	%ecx, %edx
	movb	%dl, _radio+40
	.loc 1 9358 0
	leave
	.cfi_restore 5
	.cfi_restore 3
	.cfi_def_cfa 4, 4
	.loc 1 9357 0
	jmp	chan_set
.LVL194:
	.cfi_endproc
.LFE259:
	.size	adv_setup, .-adv_setup
	.section	.text.unlikely.adv_setup
.LCOLDE21:
	.section	.text.adv_setup
.LHOTE21:
	.section	.text.unlikely.isr_adv_ci_adva_check,"ax",@progbits
.LCOLDB22:
	.section	.text.isr_adv_ci_adva_check,"ax",@progbits
.LHOTB22:
	.type	isr_adv_ci_adva_check, @function
isr_adv_ci_adva_check:
.LFB202:
	.loc 1 6974 0
	.cfi_startproc
.LVL195:
	pushl	%ebp
	.cfi_def_cfa_offset 8
	.cfi_offset 5, -8
	movl	%esp, %ebp
	.cfi_def_cfa_register 5
	pushl	%esi
	pushl	%ebx
	subl	$16, %esp
	.cfi_offset 6, -12
	.cfi_offset 3, -16
	.loc 1 6975 0
	movb	(%eax), %cl
	movb	%cl, %bl
	shrb	$6, %bl
	andl	$1, %ebx
	movl	%ebx, %esi
	movb	(%edx), %bl
	shrb	$7, %bl
	movb	%bl, -9(%ebp)
	movl	%esi, %ebx
	cmpb	-9(%ebp), %bl
	jne	.L211
	.loc 1 6975 0 is_stmt 0 discriminator 1
	andl	$15, %ecx
	leal	8(%edx), %esi
	leal	2(%eax), %ebx
	decb	%cl
	jne	.L210
.LVL196:
	.loc 1 6977 0 is_stmt 1
	pushl	%edx
	pushl	$6
	pushl	%esi
	pushl	%ebx
	call	memcmp
.LVL197:
	addl	$16, %esp
	.loc 1 6976 0
	testl	%eax, %eax
	.loc 1 6975 0
	movl	$1, %edx
	.loc 1 6976 0
	je	.L209
.L210:
	.loc 1 6979 0
	pushl	%eax
	pushl	$6
	pushl	%esi
	pushl	%ebx
	call	memcmp
.LVL198:
	.loc 1 6975 0
	xorl	%edx, %edx
	.loc 1 6979 0
	addl	$16, %esp
	.loc 1 6975 0
	testl	%eax, %eax
	sete	%dl
	jmp	.L209
.LVL199:
.L211:
	xorl	%edx, %edx
.LVL200:
.L209:
	.loc 1 6981 0 discriminator 4
	leal	-8(%ebp), %esp
	.loc 1 6975 0 discriminator 4
	movb	%dl, %al
	andl	$1, %eax
	.loc 1 6981 0 discriminator 4
	popl	%ebx
	.cfi_restore 3
	popl	%esi
	.cfi_restore 6
	popl	%ebp
	.cfi_restore 5
	.cfi_def_cfa 4, 4
	ret
	.cfi_endproc
.LFE202:
	.size	isr_adv_ci_adva_check, .-isr_adv_ci_adva_check
	.section	.text.unlikely.isr_adv_ci_adva_check
.LCOLDE22:
	.section	.text.isr_adv_ci_adva_check
.LHOTE22:
	.section	.text.unlikely.isr_scan_tgta_check,"ax",@progbits
.LCOLDB23:
	.section	.text.isr_scan_tgta_check,"ax",@progbits
.LHOTB23:
	.type	isr_scan_tgta_check, @function
isr_scan_tgta_check:
.LFB210:
	.loc 1 7267 0
	.cfi_startproc
.LVL201:
	pushl	%ebp
	.cfi_def_cfa_offset 8
	.cfi_offset 5, -8
	movl	%esp, %ebp
	.cfi_def_cfa_register 5
	pushl	%edi
	pushl	%esi
	pushl	%ebx
	.cfi_offset 7, -12
	.cfi_offset 6, -16
	.cfi_offset 3, -20
	movl	%edx, %edi
	subl	$28, %esp
	.loc 1 7268 0
	movb	_radio+225, %bl
	movb	(%edi), %cl
.LVL202:
	.loc 1 7267 0
	movl	8(%ebp), %esi
	.loc 1 7268 0
	movb	%bl, %dl
.LVL203:
	movb	%cl, %al
.LVL204:
	shrb	$4, %dl
	shrb	$7, %al
	andl	$1, %edx
	.loc 1 7271 0
	cmpb	%al, %dl
	jne	.L216
	.loc 1 7269 0
	pushl	%eax
	leal	8(%edi), %eax
	pushl	$6
	movb	%cl, -25(%ebp)
	pushl	%eax
	pushl	$_radio+226
	call	memcmp
.LVL205:
	addl	$16, %esp
	.loc 1 7268 0
	testl	%eax, %eax
	movb	-25(%ebp), %cl
	je	.L217
.L216:
.LVL206:
.LBB88:
.LBB89:
	.loc 1 7243 0
	shrb	%bl
.LBE89:
.LBE88:
	.loc 1 7271 0
	xorl	%eax, %eax
.LBB91:
.LBB90:
	.loc 1 7243 0
	andb	$2, %bl
	je	.L218
	testb	%cl, %cl
	jns	.L218
	.loc 1 7244 0
	movb	13(%edi), %dl
	andl	$-64, %edx
	cmpb	$64, %dl
	jne	.L218
	.loc 1 7246 0
	testl	%esi, %esi
	je	.L217
	.loc 1 7247 0
	movb	$1, (%esi)
.LVL207:
.L217:
.LBE90:
.LBE91:
	.loc 1 7271 0
	movl	$1, %eax
.L218:
	.loc 1 7273 0
	leal	-12(%ebp), %esp
	.loc 1 7268 0
	andl	$1, %eax
	.loc 1 7273 0
	popl	%ebx
	.cfi_restore 3
	popl	%esi
	.cfi_restore 6
	popl	%edi
	.cfi_restore 7
.LVL208:
	popl	%ebp
	.cfi_restore 5
	.cfi_def_cfa 4, 4
	ret
	.cfi_endproc
.LFE210:
	.size	isr_scan_tgta_check, .-isr_scan_tgta_check
	.section	.text.unlikely.isr_scan_tgta_check
.LCOLDE23:
	.section	.text.isr_scan_tgta_check
.LHOTE23:
	.section	.text.unlikely.packet_rx_enqueue,"ax",@progbits
.LCOLDB24:
	.section	.text.packet_rx_enqueue,"ax",@progbits
.LHOTB24:
	.type	packet_rx_enqueue, @function
packet_rx_enqueue:
.LFB293:
	.loc 1 10851 0
	.cfi_startproc
	pushl	%ebp
	.cfi_def_cfa_offset 8
	.cfi_offset 5, -8
	movl	%esp, %ebp
	.cfi_def_cfa_register 5
	pushl	%ebx
	.cfi_offset 3, -12
	.loc 1 10862 0
	movb	$0, %bl
	.loc 1 10851 0
	subl	$8, %esp
	.loc 1 10855 0
	movb	_radio+317, %al
	.loc 1 10856 0
	movzbl	_radio+317, %eax
	movl	_radio+312, %edx
	movl	(%edx,%eax,4), %edx
.LVL209:
	.loc 1 10859 0
	movb	_radio+372, %al
	.loc 1 10857 0
	movl	(%edx), %ecx
.LVL210:
	.loc 1 10858 0
	movb	%al, (%edx)
	.loc 1 10860 0
	movb	_radio+317, %al
	.loc 1 10865 0
	pushl	$_radio+332
	pushl	%edx
	pushl	%ecx
	.loc 1 10860 0
	incl	%eax
.LVL211:
	.loc 1 10862 0
	cmpb	_radio+316, %al
	cmove	%ebx, %eax
.LVL212:
	.loc 1 10864 0
	movb	%al, _radio+317
	.loc 1 10865 0
	call	memq_enqueue
.LVL213:
.LBB92:
.LBB93:
	.loc 1 10848 0
	addl	$16, %esp
.LBE93:
.LBE92:
	.loc 1 10869 0
	movl	-4(%ebp), %ebx
	leave
	.cfi_restore 5
	.cfi_restore 3
	.cfi_def_cfa 4, 4
.LBB95:
.LBB94:
	.loc 1 10848 0
	jmp	radio_event_callback
.LVL214:
.LBE94:
.LBE95:
	.cfi_endproc
.LFE293:
	.size	packet_rx_enqueue, .-packet_rx_enqueue
	.section	.text.unlikely.packet_rx_enqueue
.LCOLDE24:
	.section	.text.packet_rx_enqueue
.LHOTE24:
	.section	.text.unlikely.mayfly_adv_stop,"ax",@progbits
.LCOLDB25:
	.section	.text.mayfly_adv_stop,"ax",@progbits
.LHOTB25:
	.type	mayfly_adv_stop, @function
mayfly_adv_stop:
.LFB261:
	.loc 1 9404 0
	.cfi_startproc
.LVL215:
	pushl	%ebp
	.cfi_def_cfa_offset 8
	.cfi_offset 5, -8
	.loc 1 9408 0
	movl	$1, %eax
	.loc 1 9404 0
	movl	%esp, %ebp
	.cfi_def_cfa_register 5
	pushl	%edi
	pushl	%ebx
	.cfi_offset 7, -12
	.cfi_offset 3, -16
	.loc 1 9408 0
	call	packet_rx_reserve_get
.LVL216:
	.loc 1 9415 0
	leal	15(%eax), %ebx
	.loc 1 9410 0
	movw	$-1, 8(%eax)
	.loc 1 9411 0
	movl	$3, 4(%eax)
	.loc 1 9408 0
	movl	%eax, %edx
.LVL217:
	.loc 1 9415 0
	movl	$4, %ecx
	xorl	%eax, %eax
.LVL218:
	movl	%ebx, %edi
	rep stosl
	.loc 1 9416 0
	movb	$60, 15(%edx)
	.loc 1 9418 0
	popl	%ebx
	.cfi_restore 3
.LVL219:
	popl	%edi
	.cfi_restore 7
	popl	%ebp
	.cfi_restore 5
	.cfi_def_cfa 4, 4
	.loc 1 9417 0
	jmp	packet_rx_enqueue
.LVL220:
	.cfi_endproc
.LFE261:
	.size	mayfly_adv_stop, .-mayfly_adv_stop
	.section	.text.unlikely.mayfly_adv_stop
.LCOLDE25:
	.section	.text.mayfly_adv_stop
.LHOTE25:
	.section	.text.unlikely.terminate_ind_rx_enqueue,"ax",@progbits
.LCOLDB26:
	.section	.text.terminate_ind_rx_enqueue,"ax",@progbits
.LHOTB26:
	.type	terminate_ind_rx_enqueue, @function
terminate_ind_rx_enqueue:
.LFB301:
	.loc 1 11065 0
	.cfi_startproc
.LVL221:
	pushl	%ebp
	.cfi_def_cfa_offset 8
	.cfi_offset 5, -8
	.loc 1 11068 0
	addl	$164, %eax
.LVL222:
	.loc 1 11065 0
	movl	%esp, %ebp
	.cfi_def_cfa_register 5
	subl	$12, %esp
	.loc 1 11070 0
	movl	-132(%eax), %ecx
	.loc 1 11072 0
	movb	%dl, 12(%eax)
	.loc 1 11071 0
	movl	$4, 4(%eax)
	.loc 1 11073 0
	movl	(%eax), %edx
.LVL223:
	.loc 1 11070 0
	movw	%cx, 8(%eax)
	.loc 1 11075 0
	movb	_radio+372, %cl
	.loc 1 11074 0
	movb	%cl, (%eax)
	.loc 1 11076 0
	pushl	$_radio+332
.LVL224:
	pushl	%eax
	pushl	%edx
	call	memq_enqueue
.LVL225:
.LBB96:
.LBB97:
	.loc 1 10848 0
	addl	$16, %esp
.LBE97:
.LBE96:
	.loc 1 11080 0
	leave
	.cfi_restore 5
	.cfi_def_cfa 4, 4
.LBB99:
.LBB98:
	.loc 1 10848 0
	jmp	radio_event_callback
.LVL226:
.LBE98:
.LBE99:
	.cfi_endproc
.LFE301:
	.size	terminate_ind_rx_enqueue, .-terminate_ind_rx_enqueue
	.section	.text.unlikely.terminate_ind_rx_enqueue
.LCOLDE26:
	.section	.text.terminate_ind_rx_enqueue
.LHOTE26:
	.section	.text.unlikely.isr_rx_scan_report,"ax",@progbits
.LCOLDB27:
	.section	.text.isr_rx_scan_report,"ax",@progbits
.LHOTB27:
	.type	isr_rx_scan_report, @function
isr_rx_scan_report:
.LFB205:
	.loc 1 7186 0
	.cfi_startproc
.LVL227:
	pushl	%ebp
	.cfi_def_cfa_offset 8
	.cfi_offset 5, -8
	movl	%esp, %ebp
	.cfi_def_cfa_register 5
	pushl	%esi
	pushl	%ebx
	.cfi_offset 6, -12
	.cfi_offset 3, -16
	.loc 1 7186 0
	movl	%eax, %esi
	.loc 1 7189 0
	movl	$3, %eax
.LVL228:
	call	packet_rx_reserve_get
.LVL229:
	.loc 1 7190 0
	testl	%eax, %eax
	je	.L242
	.loc 1 7199 0
	movzbl	13(%eax), %edx
	.loc 1 7206 0
	movl	%esi, %ecx
	.loc 1 7193 0
	movw	$-1, 8(%eax)
	.loc 1 7206 0
	testb	%cl, %cl
	.loc 1 7196 0
	movl	$2, 4(%eax)
.LVL230:
	.loc 1 7199 0
	leal	14(%eax,%edx), %ebx
	.loc 1 7206 0
	movb	$127, %al
.LVL231:
	je	.L241
	.loc 1 7207 0 discriminator 1
	call	radio_rssi_get
.LVL232:
	.loc 1 7206 0 discriminator 1
	andl	$127, %eax
.L241:
	.loc 1 7206 0 is_stmt 0 discriminator 4
	movb	%al, (%ebx)
	.loc 1 7208 0 is_stmt 1 discriminator 4
	call	packet_rx_enqueue
.LVL233:
	.loc 1 7209 0 discriminator 4
	xorl	%eax, %eax
	jmp	.L240
.LVL234:
.L242:
	.loc 1 7191 0
	movl	$1, %eax
.LVL235:
.L240:
	.loc 1 7210 0
	popl	%ebx
	.cfi_restore 3
	popl	%esi
	.cfi_restore 6
	popl	%ebp
	.cfi_restore 5
	.cfi_def_cfa 4, 4
	ret
	.cfi_endproc
.LFE205:
	.size	isr_rx_scan_report, .-isr_rx_scan_report
	.section	.text.unlikely.isr_rx_scan_report
.LCOLDE27:
	.section	.text.isr_rx_scan_report
.LHOTE27:
	.section	.text.unlikely.event_common_prepare,"ax",@progbits
.LCOLDB28:
	.section	.text.event_common_prepare,"ax",@progbits
.LHOTB28:
	.type	event_common_prepare, @function
event_common_prepare:
.LFB246:
	.loc 1 9003 0
	.cfi_startproc
.LVL236:
	pushl	%ebp
	.cfi_def_cfa_offset 8
	.cfi_offset 5, -8
	movl	%esp, %ebp
	.cfi_def_cfa_register 5
	pushl	%edi
	pushl	%esi
	pushl	%ebx
	.cfi_offset 7, -12
	.cfi_offset 6, -16
	.cfi_offset 3, -20
	movl	%ecx, %esi
	subl	$44, %esp
	.loc 1 9003 0
	movl	16(%ebp), %ecx
.LVL237:
	movl	%eax, -28(%ebp)
	movl	8(%ebp), %eax
.LVL238:
	.loc 1 9005 0
	movl	(%esi), %edi
.LVL239:
	.loc 1 9003 0
	movl	%edx, -36(%ebp)
	movl	%ecx, -40(%ebp)
	movl	20(%ebp), %ecx
	movl	%eax, -32(%ebp)
	.loc 1 9008 0
	testl	%edi, %edi
	.loc 1 9003 0
	movl	12(%ebp), %eax
	movl	%ecx, -44(%ebp)
	movl	24(%ebp), %ecx
	movl	%ecx, -48(%ebp)
	.loc 1 9006 0
	movl	-32(%ebp), %ecx
	movl	(%ecx), %ebx
.LVL240:
	.loc 1 9008 0
	jns	.L246
	.loc 1 9009 0
	cmpl	%eax, %ebx
	cmovnb	%ebx, %eax
	movl	%eax, %edi
.LVL241:
.L246:
	.loc 1 9014 0
	cmpl	%ebx, %edi
	jbe	.L247
.LVL242:
.LBB100:
	.loc 1 9018 0
	movl	%edi, %eax
	subl	$12, %esp
	subl	%ebx, %eax
.LVL243:
	pushl	$5271
	pushl	$ticker_success_assert
	pushl	$0
	pushl	$event_active
	pushl	$0
	pushl	$0
	pushl	$0
	pushl	$0
	pushl	%eax
	pushl	-28(%ebp)
	pushl	$1
	pushl	$0
	pushl	$0
	call	ticker_start
.LVL244:
.LBB101:
.LBB102:
	.loc 1 8949 0
	addl	$64, %esp
	pushl	$s_mfy_xtal_start.8996
	pushl	$0
	pushl	$0
	pushl	$0
	call	mayfly_enqueue
.LVL245:
	addl	$16, %esp
	jmp	.L248
.LVL246:
.L247:
.LBE102:
.LBE101:
.LBE100:
	.loc 1 9033 0
	jnb	.L249
.LBB103:
	.loc 1 9035 0
	movl	%ebx, %eax
.LBB104:
.LBB105:
	.loc 1 8900 0
	pushl	$s_mfy_radio_active.8972
	pushl	$0
.LBE105:
.LBE104:
	.loc 1 9035 0
	subl	%edi, %eax
.LBB108:
.LBB106:
	.loc 1 8900 0
	pushl	$0
	pushl	$0
.LBE106:
.LBE108:
	.loc 1 9035 0
	movl	%eax, %edi
.LVL247:
.LBB109:
.LBB107:
	.loc 1 8900 0
	call	mayfly_enqueue
.LVL248:
.LBE107:
.LBE109:
	.loc 1 9040 0
	movl	$5292, (%esp)
	pushl	$ticker_success_assert
	pushl	$0
	pushl	$event_xtal
	pushl	$0
	pushl	$0
	pushl	$0
	pushl	$0
	pushl	%edi
	pushl	-28(%ebp)
.LBE103:
	movl	%ebx, %edi
.LVL249:
.LBB110:
	pushl	$1
.LVL250:
	pushl	$0
.LVL251:
	pushl	$0
.LVL252:
	call	ticker_start
.LVL253:
.LBE110:
	addl	$64, %esp
	jmp	.L248
.LVL254:
.L249:
.LBB111:
.LBB112:
	.loc 1 8900 0
	pushl	$s_mfy_radio_active.8972
	pushl	$0
	pushl	$0
	pushl	$0
	call	mayfly_enqueue
.LVL255:
.LBE112:
.LBE111:
.LBB113:
.LBB114:
	.loc 1 8949 0
	pushl	$s_mfy_xtal_start.8996
	pushl	$0
	pushl	$0
	pushl	$0
	call	mayfly_enqueue
.LVL256:
	addl	$32, %esp
.LVL257:
.L248:
.LBE114:
.LBE113:
	.loc 1 9062 0
	subl	$12, %esp
	.loc 1 9061 0
	movl	-36(%ebp), %eax
	.loc 1 9062 0
	pushl	$5316
	pushl	$ticker_success_assert
	pushl	-48(%ebp)
	pushl	-44(%ebp)
	pushl	$0
	pushl	$0
	pushl	$0
	pushl	$0
	pushl	%edi
	pushl	-28(%ebp)
	pushl	$0
	pushl	$0
	pushl	$0
	.loc 1 9061 0
	movl	%eax, _radio+8
	.loc 1 9062 0
	call	ticker_start
.LVL258:
	.loc 1 9072 0
	addl	$64, %esp
	pushl	$5
	pushl	$0
	pushl	$0
	pushl	$0
	call	event_stop
.LVL259:
	.loc 1 9073 0
	movl	_radio+384, %edx
	addl	$16, %esp
	cmpl	%edx, %ebx
	je	.L250
.LBB115:
	.loc 1 9074 0
	movl	(%esi), %eax
	.loc 1 9079 0
	movl	-32(%ebp), %ebx
.LVL260:
	.loc 1 9074 0
	andl	$2147483647, %eax
	.loc 1 9079 0
	movl	%edx, (%ebx)
	.loc 1 9074 0
	cmpl	%edx, %eax
	cmovb	%edx, %eax
.LVL261:
	.loc 1 9080 0
	movl	(%esi), %edx
	testl	%edx, %edx
	jns	.L251
	.loc 1 9081 0
	andl	$2147483647, %edx
	movl	%edx, (%esi)
.L251:
	.loc 1 9084 0
	movzwl	%ax, %eax
.LVL262:
	movzwl	%di, %edi
.LVL263:
	.loc 1 9083 0
	pushl	%edx
	pushl	$5361
	pushl	$ticker_success_assert
	pushl	$0
	pushl	$0
	pushl	%edi
	pushl	%eax
	pushl	%eax
	movzbl	-40(%ebp), %eax
	pushl	%edi
	pushl	%eax
	pushl	$0
	pushl	$0
	call	ticker_update
.LVL264:
	addl	$48, %esp
.L250:
.LBE115:
	.loc 1 9093 0
	leal	-12(%ebp), %esp
	.loc 1 9092 0
	movl	$255, %eax
	.loc 1 9093 0
	popl	%ebx
	.cfi_restore 3
	popl	%esi
	.cfi_restore 6
.LVL265:
	popl	%edi
	.cfi_restore 7
	popl	%ebp
	.cfi_restore 5
	.cfi_def_cfa 4, 4
	.loc 1 9092 0
	jmp	packet_tx_enqueue
.LVL266:
	.cfi_endproc
.LFE246:
	.size	event_common_prepare, .-event_common_prepare
	.section	.text.unlikely.event_common_prepare
.LCOLDE28:
	.section	.text.event_common_prepare
.LHOTE28:
	.section	.text.unlikely.radio_event_adv_prepare,"ax",@progbits
.LCOLDB29:
	.section	.text.radio_event_adv_prepare,"ax",@progbits
.LHOTB29:
	.globl	radio_event_adv_prepare
	.type	radio_event_adv_prepare, @function
radio_event_adv_prepare:
.LFB258:
	.loc 1 9293 0
	.cfi_startproc
.LVL267:
	pushl	%ebp
	.cfi_def_cfa_offset 8
	.cfi_offset 5, -8
	.loc 1 9299 0
	movl	$_radio+24, %ecx
	.loc 1 9293 0
	movl	%esp, %ebp
	.cfi_def_cfa_register 5
	subl	$20, %esp
	.loc 1 9297 0
	movb	_radio+12, %al
	.loc 1 9299 0
	movl	12(%ebp), %edx
	movl	8(%ebp), %eax
	pushl	$0
	pushl	$event_adv
	pushl	$5
	pushl	_radio+32
	pushl	$_radio+28
	.loc 1 9298 0
	movb	$5, _radio+12
	.loc 1 9299 0
	call	event_common_prepare
.LVL268:
	.loc 1 9307 0
	addl	$32, %esp
	leave
	.cfi_restore 5
	.cfi_def_cfa 4, 4
	ret
	.cfi_endproc
.LFE258:
	.size	radio_event_adv_prepare, .-radio_event_adv_prepare
	.section	.text.unlikely.radio_event_adv_prepare
.LCOLDE29:
	.section	.text.radio_event_adv_prepare
.LHOTE29:
	.section	.text.unlikely.event_scan_prepare,"ax",@progbits
.LCOLDB30:
	.section	.text.event_scan_prepare,"ax",@progbits
.LHOTB30:
	.type	event_scan_prepare, @function
event_scan_prepare:
.LFB265:
	.loc 1 9549 0
	.cfi_startproc
.LVL269:
	pushl	%ebp
	.cfi_def_cfa_offset 8
	.cfi_offset 5, -8
	.loc 1 9555 0
	movl	$_radio+208, %ecx
	.loc 1 9549 0
	movl	%esp, %ebp
	.cfi_def_cfa_register 5
	subl	$20, %esp
	.loc 1 9553 0
	movb	_radio+12, %al
	.loc 1 9555 0
	movl	12(%ebp), %edx
	movl	8(%ebp), %eax
	pushl	$0
	pushl	$event_scan
	pushl	$6
	pushl	_radio+216
	pushl	$_radio+212
	.loc 1 9554 0
	movb	$6, _radio+12
	.loc 1 9555 0
	call	event_common_prepare
.LVL270:
	.loc 1 9563 0
	addl	$32, %esp
	leave
	.cfi_restore 5
	.cfi_def_cfa 4, 4
	ret
	.cfi_endproc
.LFE265:
	.size	event_scan_prepare, .-event_scan_prepare
	.section	.text.unlikely.event_scan_prepare
.LCOLDE30:
	.section	.text.event_scan_prepare
.LHOTE30:
	.section	.text.unlikely.ticker_stop_adv_assert,"ax",@progbits
.LCOLDB31:
	.section	.text.ticker_stop_adv_assert,"ax",@progbits
.LHOTB31:
	.type	ticker_stop_adv_assert, @function
ticker_stop_adv_assert:
.LFB233:
	.loc 1 8834 0
	.cfi_startproc
.LVL271:
	pushl	%ebp
	.cfi_def_cfa_offset 8
	.cfi_offset 5, -8
	movl	%esp, %ebp
	.cfi_def_cfa_register 5
	.loc 1 8836 0
	cmpl	$1, 8(%ebp)
	jne	.L258
.LVL272:
.LBB118:
.LBB119:
	.loc 1 8837 0
	movb	_radio+14, %al
	cmpb	$5, %al
	jne	.L257
	.loc 1 8838 0
	movb	$0, _radio+14
	jmp	.L257
.LVL273:
.L258:
.LBE119:
.LBE118:
	.loc 1 8843 0
	movb	_radio+12, %al
.L257:
	.loc 1 8845 0
	popl	%ebp
	.cfi_restore 5
	.cfi_def_cfa 4, 4
	ret
	.cfi_endproc
.LFE233:
	.size	ticker_stop_adv_assert, .-ticker_stop_adv_assert
	.section	.text.unlikely.ticker_stop_adv_assert
.LCOLDE31:
	.section	.text.ticker_stop_adv_assert
.LHOTE31:
	.section	.text.unlikely.ticker_stop_scan_assert,"ax",@progbits
.LCOLDB32:
	.section	.text.ticker_stop_scan_assert,"ax",@progbits
.LHOTB32:
	.type	ticker_stop_scan_assert, @function
ticker_stop_scan_assert:
.LFB234:
	.loc 1 8847 0
	.cfi_startproc
.LVL274:
	pushl	%ebp
	.cfi_def_cfa_offset 8
	.cfi_offset 5, -8
	movl	%esp, %ebp
	.cfi_def_cfa_register 5
	.loc 1 8849 0
	cmpl	$1, 8(%ebp)
	jne	.L262
.LVL275:
.LBB122:
.LBB123:
	.loc 1 8850 0
	movb	_radio+14, %al
	cmpb	$6, %al
	jne	.L261
	.loc 1 8851 0
	movb	$0, _radio+14
	jmp	.L261
.LVL276:
.L262:
.LBE123:
.LBE122:
	.loc 1 8856 0
	movb	_radio+12, %al
.L261:
	.loc 1 8858 0
	popl	%ebp
	.cfi_restore 5
	.cfi_def_cfa 4, 4
	ret
	.cfi_endproc
.LFE234:
	.size	ticker_stop_scan_assert, .-ticker_stop_scan_assert
	.section	.text.unlikely.ticker_stop_scan_assert
.LCOLDE32:
	.section	.text.ticker_stop_scan_assert
.LHOTE32:
	.section	.text.unlikely.rx_fc_lock,"ax",@progbits
.LCOLDB33:
	.section	.text.rx_fc_lock,"ax",@progbits
.LHOTB33:
	.type	rx_fc_lock, @function
rx_fc_lock:
.LFB349:
	.loc 1 12589 0
	.cfi_startproc
.LVL277:
	.loc 1 12590 0
	movb	_radio+380, %dl
	cmpb	_radio+381, %dl
	.loc 1 12589 0
	pushl	%ebp
	.cfi_def_cfa_offset 8
	.cfi_offset 5, -8
	movl	%esp, %ebp
	.cfi_def_cfa_register 5
	.loc 1 12590 0
	jne	.L265
.LBB127:
.LBB128:
	.loc 1 12592 0
	movzbl	_radio+380, %edx
	movw	%ax, _radio+374(%edx,%edx)
	.loc 1 12593 0
	movb	_radio+380, %al
.LVL278:
	.loc 1 12595 0
	movb	$0, %dl
.LVL279:
	.loc 1 12593 0
	incl	%eax
.LVL280:
	.loc 1 12595 0
	cmpb	$3, %al
	cmove	%edx, %eax
.LVL281:
	.loc 1 12597 0
	movb	%al, _radio+380
.LVL282:
.L265:
.LBE128:
.LBE127:
	.loc 1 12599 0
	popl	%ebp
	.cfi_restore 5
	.cfi_def_cfa 4, 4
	ret
	.cfi_endproc
.LFE349:
	.size	rx_fc_lock, .-rx_fc_lock
	.section	.text.unlikely.rx_fc_lock
.LCOLDE33:
	.section	.text.rx_fc_lock
.LHOTE33:
	.section	.text.unlikely.ticker_job_disable,"ax",@progbits
.LCOLDB34:
	.section	.text.ticker_job_disable,"ax",@progbits
.LHOTB34:
	.type	ticker_job_disable, @function
ticker_job_disable:
.LFB230:
	.loc 1 8816 0
	.cfi_startproc
.LVL283:
	.loc 1 8819 0
	cmpl	$0, _radio+20
	je	.L273
	.loc 1 8816 0
	pushl	%ebp
	.cfi_def_cfa_offset 8
	.cfi_offset 5, -8
	movl	%esp, %ebp
	.cfi_def_cfa_register 5
.LVL284:
	subl	$12, %esp
.LBB131:
.LBB132:
	.loc 1 8820 0
	pushl	$0
	pushl	$1
	pushl	$1
	call	mayfly_enable
.LVL285:
	addl	$16, %esp
.LBE132:
.LBE131:
	.loc 1 8823 0
	leave
	.cfi_restore 5
	.cfi_def_cfa 4, 4
.LVL286:
.L273:
	ret
	.cfi_endproc
.LFE230:
	.size	ticker_job_disable, .-ticker_job_disable
	.section	.text.unlikely.ticker_job_disable
.LCOLDE34:
	.section	.text.ticker_job_disable
.LHOTE34:
	.section	.text.unlikely.mayfly_radio_active.part.5,"ax",@progbits
.LCOLDB35:
	.section	.text.mayfly_radio_active.part.5,"ax",@progbits
.LHOTB35:
	.type	mayfly_radio_active.part.5, @function
mayfly_radio_active.part.5:
.LFB363:
	.loc 1 8871 0
	.cfi_startproc
.LVL287:
	.loc 1 8882 0
	decb	s_active.8964
	jne	.L278
	.loc 1 8871 0
	pushl	%ebp
	.cfi_def_cfa_offset 8
	.cfi_offset 5, -8
	movl	%esp, %ebp
	.cfi_def_cfa_register 5
	subl	$20, %esp
	.loc 1 8886 0
	pushl	$0
	call	radio_active_callback
.LVL288:
	addl	$16, %esp
	.loc 1 8888 0
	leave
	.cfi_restore 5
	.cfi_def_cfa 4, 4
.L278:
	ret
	.cfi_endproc
.LFE363:
	.size	mayfly_radio_active.part.5, .-mayfly_radio_active.part.5
	.section	.text.unlikely.mayfly_radio_active.part.5
.LCOLDE35:
	.section	.text.mayfly_radio_active.part.5
.LHOTE35:
	.section	.text.unlikely.mayfly_radio_active,"ax",@progbits
.LCOLDB36:
	.section	.text.mayfly_radio_active,"ax",@progbits
.LHOTB36:
	.type	mayfly_radio_active, @function
mayfly_radio_active:
.LFB237:
	.loc 1 8872 0
	.cfi_startproc
.LVL289:
	pushl	%ebp
	.cfi_def_cfa_offset 8
	.cfi_offset 5, -8
	movl	%esp, %ebp
	.cfi_def_cfa_register 5
	.loc 1 8874 0
	cmpl	$0, 8(%ebp)
	je	.L280
	.loc 1 8875 0
	movb	s_active.8964, %al
	leal	1(%eax), %edx
	testb	%al, %al
	movb	%dl, s_active.8964
	jne	.L279
	.loc 1 8879 0
	movl	$1, 8(%ebp)
.LVL290:
	.loc 1 8888 0
	popl	%ebp
	.cfi_remember_state
	.cfi_restore 5
	.cfi_def_cfa 4, 4
	.loc 1 8879 0
	jmp	radio_active_callback
.LVL291:
.L280:
	.cfi_restore_state
	.loc 1 8888 0
	popl	%ebp
	.cfi_remember_state
	.cfi_restore 5
	.cfi_def_cfa 4, 4
	jmp	mayfly_radio_active.part.5
.LVL292:
.L279:
	.cfi_restore_state
	popl	%ebp
	.cfi_restore 5
	.cfi_def_cfa 4, 4
	ret
	.cfi_endproc
.LFE237:
	.size	mayfly_radio_active, .-mayfly_radio_active
	.section	.text.unlikely.mayfly_radio_active
.LCOLDE36:
	.section	.text.mayfly_radio_active
.LHOTE36:
	.section	.text.unlikely.mayfly_radio_inactive,"ax",@progbits
.LCOLDB37:
	.section	.text.mayfly_radio_inactive,"ax",@progbits
.LHOTB37:
	.type	mayfly_radio_inactive, @function
mayfly_radio_inactive:
.LFB239:
	.loc 1 8906 0
	.cfi_startproc
.LVL293:
	pushl	%ebp
	.cfi_def_cfa_offset 8
	.cfi_offset 5, -8
	movl	%esp, %ebp
	.cfi_def_cfa_register 5
	.loc 1 8910 0
	popl	%ebp
	.cfi_restore 5
	.cfi_def_cfa 4, 4
.LBB133:
.LBB134:
	jmp	mayfly_radio_active.part.5
.LVL294:
.LBE134:
.LBE133:
	.cfi_endproc
.LFE239:
	.size	mayfly_radio_inactive, .-mayfly_radio_inactive
	.section	.text.unlikely.mayfly_radio_inactive
.LCOLDE37:
	.section	.text.mayfly_radio_inactive
.LHOTE37:
	.section	.text.unlikely.ticker_stop_adv_stop,"ax",@progbits
.LCOLDB38:
	.section	.text.ticker_stop_adv_stop,"ax",@progbits
.LHOTB38:
	.type	ticker_stop_adv_stop, @function
ticker_stop_adv_stop:
.LFB263:
	.loc 1 9510 0
	.cfi_startproc
.LVL295:
	pushl	%ebp
	.cfi_def_cfa_offset 8
	.cfi_offset 5, -8
	movl	%esp, %ebp
	.cfi_def_cfa_register 5
	subl	$24, %esp
	.loc 1 9510 0
	movl	%gs:20, %eax
	movl	%eax, -12(%ebp)
	xorl	%eax, %eax
	.loc 1 9518 0
	cmpl	$0, 8(%ebp)
	je	.L286
	.loc 1 9519 0
	movb	_radio+14, %al
	.loc 1 9520 0
	jmp	.L285
.L286:
.LVL296:
.LBB144:
.LBB145:
	.loc 1 9522 0
	movb	_radio+12, %al
	cmpb	$5, %al
	je	.L288
	.loc 1 9523 0
	movb	_radio+13, %al
	.loc 1 9522 0
	cmpb	$5, %al
	jne	.L289
.L288:
.LBB146:
.LBB147:
	.loc 1 9428 0
	leal	-20(%ebp), %eax
	subl	$12, %esp
	.loc 1 9426 0
	movl	$2, -20(%ebp)
	.loc 1 9428 0
	pushl	%eax
	pushl	$ticker_if_done
	pushl	$0
	pushl	$1
	pushl	$0
	call	ticker_stop
.LVL297:
	.loc 1 9431 0
	addl	$32, %esp
	cmpl	$2, %eax
	je	.L290
.LVL298:
.L295:
	.loc 1 9439 0
	movl	-20(%ebp), %eax
	testl	%eax, %eax
	jne	.L314
	jmp	.L320
.LVL299:
.L290:
.LVL300:
	.loc 1 9432 0
	pushl	%eax
	pushl	$1
	pushl	$1
	pushl	$1
	call	mayfly_enable
.LVL301:
.L317:
	.loc 1 9434 0
	movl	-20(%ebp), %eax
	.loc 1 9435 0
	addl	$16, %esp
	.loc 1 9434 0
	cmpl	$2, %eax
	jne	.L295
	.loc 1 9435 0
	pushl	%ecx
	pushl	%ecx
	pushl	$1
	pushl	$0
	call	ticker_job_sched
.LVL302:
	jmp	.L317
.L320:
.LBB148:
	.loc 1 9445 0
	movl	$2, -16(%ebp)
	.loc 1 9447 0
	movb	_radio+12, %al
	.loc 1 9449 0
	leal	-16(%ebp), %eax
	subl	$12, %esp
	.loc 1 9448 0
	movb	$0, _radio+12
	.loc 1 9449 0
	pushl	%eax
	pushl	$ticker_if_done
	pushl	$1
	pushl	$1
	pushl	$0
	call	ticker_stop
.LVL303:
	.loc 1 9453 0
	addl	$32, %esp
	cmpl	$2, %eax
	je	.L296
.LVL304:
.L301:
	.loc 1 9461 0
	movl	-16(%ebp), %eax
	testl	%eax, %eax
	je	.L297
	jmp	.L321
.LVL305:
.L296:
	.loc 1 9454 0
	pushl	%edx
	pushl	$1
	pushl	$1
	pushl	$1
	call	mayfly_enable
.LVL306:
.L318:
	.loc 1 9456 0
	movl	-16(%ebp), %eax
	.loc 1 9457 0
	addl	$16, %esp
	.loc 1 9456 0
	cmpl	$2, %eax
	jne	.L301
	.loc 1 9457 0
	pushl	%eax
	pushl	%eax
	pushl	$1
	pushl	$0
	call	ticker_job_sched
.LVL307:
	jmp	.L318
.L297:
	.loc 1 9462 0
	movl	_radio+24, %eax
	andl	$2147483647, %eax
	cmpl	%eax, _radio+28
	jbe	.L302
.LBB149:
	.loc 1 9466 0
	pushl	$s_mfy_radio_inactive.9160
	jmp	.L319
.L302:
.LBE149:
.LBB150:
	.loc 1 9473 0
	pushl	$s_mfy_xtal_stop.9167
	jmp	.L319
.L321:
.LBE150:
	.loc 1 9479 0
	movl	-16(%ebp), %eax
	decl	%eax
	jne	.L289
.LBB151:
	.loc 1 9481 0
	pushl	$s_mfy_radio_inactive.9160
	pushl	$0
	pushl	$0
	pushl	$1
	call	mayfly_enqueue
.LVL308:
	.loc 1 9485 0
	pushl	$s_mfy_xtal_stop.9167
	pushl	$0
	pushl	$0
	pushl	$1
	call	mayfly_enqueue
.LVL309:
	addl	$32, %esp
	jmp	.L289
.L314:
.LBE151:
.LBE148:
	.loc 1 9492 0
	movl	-20(%ebp), %eax
	decl	%eax
	jne	.L289
	.loc 1 9493 0
	movl	_radio+16, %eax
	testl	%eax, %eax
	je	.L289
.LBB152:
	.loc 1 9500 0
	pushl	$s_mfy_radio_stop.9177
	.loc 1 9499 0
	movl	$4, s_mfy_radio_stop.9177+8
.L319:
	.loc 1 9500 0
	pushl	$0
	pushl	$0
	pushl	$1
	call	mayfly_enqueue
.LVL310:
	addl	$16, %esp
.L289:
.LBE152:
.LBE147:
.LBE146:
	.loc 1 9526 0
	pushl	$s_mfy_adv_stop.9184
	pushl	$0
	pushl	$0
	pushl	$1
	call	mayfly_enqueue
.LVL311:
	addl	$16, %esp
.LVL312:
.L285:
.LBE145:
.LBE144:
	.loc 1 9530 0
	movl	-12(%ebp), %eax
	xorl	%gs:20, %eax
	je	.L304
	call	__stack_chk_fail
.LVL313:
.L304:
	leave
	.cfi_restore 5
	.cfi_def_cfa 4, 4
	ret
	.cfi_endproc
.LFE263:
	.size	ticker_stop_adv_stop, .-ticker_stop_adv_stop
	.section	.text.unlikely.ticker_stop_adv_stop
.LCOLDE38:
	.section	.text.ticker_stop_adv_stop
.LHOTE38:
	.section	.text.unlikely.adv_scan_configure.constprop.9,"ax",@progbits
.LCOLDB39:
	.section	.text.adv_scan_configure.constprop.9,"ax",@progbits
.LHOTB39:
	.type	adv_scan_configure.constprop.9, @function
adv_scan_configure.constprop.9:
.LFB375:
	.loc 1 9281 0
	.cfi_startproc
	pushl	%ebp
	.cfi_def_cfa_offset 8
	.cfi_offset 5, -8
	movl	%esp, %ebp
	.cfi_def_cfa_register 5
	subl	$24, %esp
	.loc 1 9281 0
	movl	%gs:20, %eax
	movl	%eax, -12(%ebp)
	xorl	%eax, %eax
.LVL314:
	.loc 1 9283 0
	movl	$-1903575338, -16(%ebp)
.LBB155:
.LBB156:
	.loc 1 9277 0
	call	radio_reset
.LVL315:
	.loc 1 9278 0
	subl	$12, %esp
	pushl	$0
	call	radio_tx_power_set
.LVL316:
	.loc 1 9279 0
	movl	$isr, (%esp)
	call	radio_isr_set
.LVL317:
.LBE156:
.LBE155:
	.loc 1 9285 0
	popl	%eax
	popl	%edx
	pushl	$0
	pushl	$0
	call	radio_phy_set
.LVL318:
	.loc 1 9286 0
	leal	-16(%ebp), %eax
	movl	%eax, (%esp)
	call	radio_aa_set
.LVL319:
	.loc 1 9287 0
	addl	$12, %esp
	pushl	$0
	pushl	$37
	pushl	$8
	call	radio_pkt_configure
.LVL320:
	.loc 1 9288 0
	popl	%ecx
	popl	%eax
	pushl	$5592405
	pushl	$1627
	call	radio_crc_configure
.LVL321:
	addl	$16, %esp
	.loc 1 9290 0
	movl	-12(%ebp), %eax
	xorl	%gs:20, %eax
	je	.L323
	call	__stack_chk_fail
.LVL322:
.L323:
	leave
	.cfi_restore 5
	.cfi_def_cfa 4, 4
	ret
	.cfi_endproc
.LFE375:
	.size	adv_scan_configure.constprop.9, .-adv_scan_configure.constprop.9
	.section	.text.unlikely.adv_scan_configure.constprop.9
.LCOLDE39:
	.section	.text.adv_scan_configure.constprop.9
.LHOTE39:
	.section	.text.unlikely.event_scan,"ax",@progbits
.LCOLDB40:
	.section	.text.event_scan,"ax",@progbits
.LHOTB40:
	.type	event_scan, @function
event_scan:
.LFB266:
	.loc 1 9566 0
	.cfi_startproc
.LVL323:
	pushl	%ebp
	.cfi_def_cfa_offset 8
	.cfi_offset 5, -8
	movl	%esp, %ebp
	.cfi_def_cfa_register 5
	pushl	%ebx
	pushl	%edx
	.cfi_offset 3, -12
	.loc 1 9566 0
	movl	8(%ebp), %ebx
	.loc 1 9573 0
	movl	_radio+16, %eax
	.loc 1 9580 0
	andb	$-3, _radio+224
	.loc 1 9574 0
	movb	_radio+12, %al
	.loc 1 9576 0
	movl	$1, _radio+20
	.loc 1 9575 0
	movl	$2, _radio+16
	.loc 1 9579 0
	movl	%ebx, _radio+4
	.loc 1 9577 0
	movb	$0, _radio+12
	.loc 1 9578 0
	movb	$6, _radio+13
	.loc 1 9581 0
	call	adv_scan_configure.constprop.9
.LVL324:
	.loc 1 9582 0
	movb	_radio+224, %al
	shrb	$2, %al
	andl	$3, %eax
	leal	4(,%eax,4), %edx
	movzbl	%al, %eax
	addl	$37, %eax
	movb	%dl, %cl
	movb	_radio+224, %dl
	andl	$12, %ecx
	andl	$-13, %edx
	orl	%ecx, %edx
	movb	%dl, _radio+224
	call	chan_set
.LVL325:
	.loc 1 9583 0
	movb	_radio+224, %al
	movb	%al, %dl
	andl	$12, %edx
	cmpb	$12, %dl
	jne	.L326
	.loc 1 9584 0
	andl	$-13, %eax
	movb	%al, _radio+224
.L326:
	.loc 1 9586 0
	subl	$12, %esp
	pushl	$150
	call	radio_tmr_tifs_set
.LVL326:
	.loc 1 9587 0
	pushl	$0
	pushl	$0
	pushl	$0
	pushl	$0
	call	radio_switch_complete_and_tx
.LVL327:
	.loc 1 9588 0
	movzbl	_radio+317, %eax
	movl	_radio+312, %edx
	addl	$20, %esp
	movl	(%edx,%eax,4), %eax
	addl	$12, %eax
	pushl	%eax
	call	radio_pkt_rx_set
.LVL328:
	.loc 1 9589 0
	call	radio_rssi_measure
.LVL329:
	.loc 1 9590 0
	addl	$16, %esp
	testb	$6, _radio+225
	je	.L327
.LBB157:
	.loc 1 9591 0
	subl	$12, %esp
	pushl	$1
	call	ctrl_filter_get
.LVL330:
	.loc 1 9596 0
	leal	2(%eax), %edx
	.loc 1 9594 0
	addl	$12, %esp
	pushl	%edx
	movzbl	1(%eax), %edx
	pushl	%edx
	movzbl	(%eax), %eax
.LVL331:
	pushl	%eax
.LVL332:
	call	radio_filter_configure
.LVL333:
	addl	$16, %esp
.L327:
.LBE157:
	.loc 1 9598 0
	pushl	%eax
	leal	9(%ebx), %eax
	pushl	_radio+8
	pushl	%eax
	pushl	$0
	call	radio_tmr_start
.LVL334:
	.loc 1 9602 0
	call	radio_tmr_end_capture
.LVL335:
	.loc 1 9605 0
	movl	_radio+240, %eax
	movl	$6242, (%esp)
	pushl	$ticker_success_assert
	pushl	$4
	pushl	$event_stop
	pushl	$0
	addl	$9, %eax
	pushl	$0
	pushl	$0
	pushl	$0
	pushl	%eax
	pushl	%ebx
	pushl	$4
	pushl	$0
	pushl	$0
	call	ticker_start
.LVL336:
.LBB158:
	.loc 1 9619 0
	addl	$64, %esp
	movl	$0, 20(%ebp)
	movl	$ticker_job_disable, 16(%ebp)
	movl	$0, 12(%ebp)
	movl	$0, 8(%ebp)
.LBE158:
	.loc 1 9630 0
	movl	-4(%ebp), %ebx
	leave
	.cfi_restore 5
	.cfi_restore 3
	.cfi_def_cfa 4, 4
.LBB159:
	.loc 1 9619 0
	jmp	ticker_job_idle_get
.LVL337:
.LBE159:
	.cfi_endproc
.LFE266:
	.size	event_scan, .-event_scan
	.section	.text.unlikely.event_scan
.LCOLDE40:
	.section	.text.event_scan
.LHOTE40:
	.section	.text.unlikely.event_adv,"ax",@progbits
.LCOLDB41:
	.section	.text.event_adv,"ax",@progbits
.LHOTB41:
	.type	event_adv, @function
event_adv:
.LFB260:
	.loc 1 9361 0
	.cfi_startproc
.LVL338:
	pushl	%ebp
	.cfi_def_cfa_offset 8
	.cfi_offset 5, -8
	movl	%esp, %ebp
	.cfi_def_cfa_register 5
	pushl	%ebx
	pushl	%edx
	.cfi_offset 3, -12
	.loc 1 9361 0
	movl	8(%ebp), %ebx
	.loc 1 9367 0
	movl	_radio+16, %eax
	.loc 1 9368 0
	movb	_radio+12, %al
	.loc 1 9369 0
	movl	$1, _radio+16
	.loc 1 9370 0
	movb	$0, _radio+12
	.loc 1 9371 0
	movb	$5, _radio+13
	.loc 1 9372 0
	movl	%ebx, _radio+4
	.loc 1 9373 0
	call	adv_scan_configure.constprop.9
.LVL339:
	.loc 1 9374 0
	movb	_radio+41, %al
	movb	_radio+40, %dl
	andl	$7, %eax
	andl	$-15, %edx
	addl	%eax, %eax
	orl	%edx, %eax
	movb	%al, _radio+40
	.loc 1 9375 0
	call	adv_setup
.LVL340:
	.loc 1 9376 0
	testb	$24, _radio+41
	je	.L333
.LBB160:
	.loc 1 9377 0
	subl	$12, %esp
	pushl	$1
	call	ctrl_filter_get
.LVL341:
	.loc 1 9382 0
	leal	2(%eax), %edx
	.loc 1 9380 0
	addl	$12, %esp
	pushl	%edx
	movzbl	1(%eax), %edx
	pushl	%edx
	movzbl	(%eax), %eax
.LVL342:
	pushl	%eax
.LVL343:
	call	radio_filter_configure
.LVL344:
	addl	$16, %esp
.L333:
.LBE160:
	.loc 1 9384 0
	addl	$9, %ebx
	pushl	%eax
	pushl	_radio+8
	pushl	%ebx
	pushl	$1
	call	radio_tmr_start
.LVL345:
	.loc 1 9388 0
	call	radio_tmr_end_capture
.LVL346:
.LBB161:
	.loc 1 9392 0
	addl	$16, %esp
	movl	$0, 20(%ebp)
	movl	$ticker_job_disable, 16(%ebp)
	movl	$0, 12(%ebp)
	movl	$0, 8(%ebp)
.LBE161:
	.loc 1 9402 0
	movl	-4(%ebp), %ebx
	leave
	.cfi_restore 5
	.cfi_restore 3
	.cfi_def_cfa 4, 4
.LBB162:
	.loc 1 9392 0
	jmp	ticker_job_idle_get
.LVL347:
.LBE162:
	.cfi_endproc
.LFE260:
	.size	event_adv, .-event_adv
	.section	.text.unlikely.event_adv
.LCOLDE41:
	.section	.text.event_adv
.LHOTE41:
	.section	.text.unlikely.packet_rx_allocate.constprop.12,"ax",@progbits
.LCOLDB42:
	.section	.text.packet_rx_allocate.constprop.12,"ax",@progbits
.LHOTB42:
	.type	packet_rx_allocate.constprop.12, @function
packet_rx_allocate.constprop.12:
.LFB372:
	.loc 1 10795 0
	.cfi_startproc
.LVL348:
	pushl	%ebp
	.cfi_def_cfa_offset 8
	.cfi_offset 5, -8
	movl	%esp, %ebp
	.cfi_def_cfa_register 5
	pushl	%edi
	pushl	%esi
	pushl	%ebx
	subl	$12, %esp
	.cfi_offset 7, -12
	.cfi_offset 6, -16
	.cfi_offset 3, -20
	.loc 1 10801 0
	movb	_radio+318, %al
.LBB163:
	.loc 1 10822 0
	movl	_radio+336, %esi
.LBE163:
	.loc 1 10801 0
	leal	1(%eax), %ebx
.LVL349:
	.loc 1 10803 0
	cmpb	_radio+316, %bl
	movb	$0, %al
	cmove	%eax, %ebx
.LVL350:
.L340:
	.loc 1 10805 0
	movl	%esi, %eax
	testb	%al, %al
	je	.L338
	movb	_radio+317, %al
	cmpb	%al, %bl
	je	.L338
.LBB164:
	.loc 1 10808 0
	subl	$12, %esp
	pushl	$_radio+324
	call	mem_acquire
.LVL351:
	.loc 1 10809 0
	addl	$16, %esp
	testl	%eax, %eax
	.loc 1 10808 0
	movl	%eax, %edi
.LVL352:
	.loc 1 10809 0
	je	.L338
	.loc 1 10812 0
	subl	$12, %esp
	pushl	$_radio+300
	call	mem_acquire
.LVL353:
	.loc 1 10813 0
	addl	$16, %esp
	testl	%eax, %eax
	jne	.L343
.LVL354:
	.loc 1 10814 0
	pushl	%eax
	pushl	%eax
	pushl	$_radio+324
	pushl	%edi
	call	mem_release
.LVL355:
	addl	$16, %esp
	jmp	.L338
.LVL356:
.L343:
	.loc 1 10817 0
	movl	%edi, (%eax)
	.loc 1 10818 0
	movzbl	_radio+318, %ecx
	movl	_radio+312, %edx
	movl	%eax, (%edx,%ecx,4)
	.loc 1 10819 0
	movb	%bl, _radio+318
	.loc 1 10820 0
	incl	%ebx
.LVL357:
	.loc 1 10822 0
	cmpb	_radio+316, %bl
	movb	$0, %al
.LVL358:
	cmove	%eax, %ebx
.LVL359:
	.loc 1 10824 0
	decb	_radio+336
	decl	%esi
.LVL360:
	jmp	.L340
.LVL361:
.L338:
.LBE164:
	.loc 1 10826 0
	leal	-12(%ebp), %esp
	popl	%ebx
	.cfi_restore 3
.LVL362:
	popl	%esi
	.cfi_restore 6
.LVL363:
	popl	%edi
	.cfi_restore 7
	popl	%ebp
	.cfi_restore 5
	.cfi_def_cfa 4, 4
	ret
	.cfi_endproc
.LFE372:
	.size	packet_rx_allocate.constprop.12, .-packet_rx_allocate.constprop.12
	.section	.text.unlikely.packet_rx_allocate.constprop.12
.LCOLDE42:
	.section	.text.packet_rx_allocate.constprop.12
.LHOTE42:
	.section	.text.unlikely.common_init,"ax",@progbits
.LCOLDB43:
	.section	.text.common_init,"ax",@progbits
.LHOTB43:
	.type	common_init, @function
common_init:
.LFB195:
	.loc 1 6822 0
	.cfi_startproc
	pushl	%ebp
	.cfi_def_cfa_offset 8
	.cfi_offset 5, -8
	movl	%esp, %ebp
	.cfi_def_cfa_register 5
	subl	$8, %esp
	.loc 1 6824 0
	movzbl	_radio+272, %eax
	testb	%al, %al
	je	.L352
	.loc 1 6825 0
	pushl	$_radio+268
	pushl	%eax
	pushl	$316
	pushl	_radio+264
	call	mem_init
.LVL364:
	addl	$16, %esp
	jmp	.L353
.L352:
	.loc 1 6829 0
	movl	$0, _radio+268
.L353:
	.loc 1 6833 0
	movzbl	_radio+310, %eax
	pushl	$_radio+300
	pushl	%eax
	movzwl	_radio+308, %eax
	pushl	%eax
	pushl	_radio+296
	call	mem_init
.LVL365:
	.loc 1 6837 0
	movzbl	_radio+316, %edx
	movzbl	_radio+272, %eax
	pushl	$_radio+324
	addl	%edx, %eax
	movzwl	%ax, %eax
	pushl	%eax
	pushl	$8
	pushl	_radio+320
	call	mem_init
.LVL366:
	.loc 1 6840 0
	addl	$32, %esp
	pushl	$_radio+344
	pushl	$2
	pushl	$36
	pushl	_radio+340
	call	mem_init
.LVL367:
	.loc 1 6854 0
	movzbl	_radio+368, %eax
	pushl	$_radio+352
	decl	%eax
	movzwl	%ax, %eax
	pushl	%eax
	movzwl	_radio+356, %eax
	pushl	%eax
	pushl	_radio+348
	call	mem_init
.LVL368:
	.loc 1 6856 0
	addl	$20, %esp
	pushl	$_radio+324
	call	mem_acquire
.LVL369:
	.loc 1 6858 0
	addl	$12, %esp
	pushl	$_radio+332
	pushl	$_radio+328
	pushl	%eax
	call	memq_init
.LVL370:
	.loc 1 6859 0
	orb	$7, _radio+41
	.loc 1 6860 0
	movb	$-1, _radio+282
	.loc 1 6868 0
	addl	$16, %esp
	.loc 1 6861 0
	movb	$-1, _radio+283
	.loc 1 6862 0
	movb	$-1, _radio+284
	.loc 1 6863 0
	movb	$-1, _radio+285
	.loc 1 6864 0
	movb	$31, _radio+286
	.loc 1 6865 0
	movb	$37, _radio+287
	.loc 1 6866 0
	movw	$1, _radio+290
	.loc 1 6867 0
	movw	$1, _radio+292
	.loc 1 6869 0
	leave
	.cfi_restore 5
	.cfi_def_cfa 4, 4
	.loc 1 6868 0
	jmp	packet_rx_allocate.constprop.12
.LVL371:
	.cfi_endproc
.LFE195:
	.size	common_init, .-common_init
	.section	.text.unlikely.common_init
.LCOLDE43:
	.section	.text.common_init
.LHOTE43:
	.section	.text.unlikely.mayfly_xtal_start,"ax",@progbits
.LCOLDB44:
	.section	.text.mayfly_xtal_start,"ax",@progbits
.LHOTB44:
	.type	mayfly_xtal_start, @function
mayfly_xtal_start:
.LFB241:
	.loc 1 8930 0
	.cfi_startproc
.LVL372:
	pushl	%ebp
	.cfi_def_cfa_offset 8
	.cfi_offset 5, -8
	movl	%esp, %ebp
	.cfi_def_cfa_register 5
	subl	$16, %esp
	.loc 1 8932 0
	movl	_radio, %eax
.LVL373:
.LBB167:
.LBB168:
	.loc 1 6354 0
	movl	4(%eax), %edx
	pushl	$0
.LVL374:
	pushl	%eax
	call	*(%edx)
.LVL375:
.LBE168:
.LBE167:
	.loc 1 8935 0
	addl	$16, %esp
	leave
	.cfi_restore 5
	.cfi_def_cfa 4, 4
	ret
	.cfi_endproc
.LFE241:
	.size	mayfly_xtal_start, .-mayfly_xtal_start
	.section	.text.unlikely.mayfly_xtal_start
.LCOLDE44:
	.section	.text.mayfly_xtal_start
.LHOTE44:
	.section	.text.unlikely.ticker_update_adv_assert,"ax",@progbits
.LCOLDB45:
	.section	.text.ticker_update_adv_assert,"ax",@progbits
.LHOTB45:
	.type	ticker_update_adv_assert, @function
ticker_update_adv_assert:
.LFB367:
	.cfi_startproc
	pushl	%ebp
	.cfi_def_cfa_offset 8
	.cfi_offset 5, -8
	movl	%esp, %ebp
	.cfi_def_cfa_register 5
	cmpl	$0, 8(%ebp)
	je	.L357
	movb	_radio+14, %al
.L357:
	popl	%ebp
	.cfi_restore 5
	.cfi_def_cfa 4, 4
	ret
	.cfi_endproc
.LFE367:
	.size	ticker_update_adv_assert, .-ticker_update_adv_assert
	.section	.text.unlikely.ticker_update_adv_assert
.LCOLDE45:
	.section	.text.ticker_update_adv_assert
.LHOTE45:
	.section	.text.unlikely.mayfly_xtal_stop,"ax",@progbits
.LCOLDB46:
	.section	.text.mayfly_xtal_stop,"ax",@progbits
.LHOTB46:
	.type	mayfly_xtal_stop, @function
mayfly_xtal_stop:
.LFB243:
	.loc 1 8955 0
	.cfi_startproc
.LVL376:
	.loc 1 8955 0
	pushl	%ebp
	.cfi_def_cfa_offset 8
	.cfi_offset 5, -8
	movl	%esp, %ebp
	.cfi_def_cfa_register 5
	subl	$16, %esp
	.loc 1 8957 0
	movl	_radio, %eax
.LVL377:
.LBB171:
.LBB172:
	.loc 1 6360 0
	movl	4(%eax), %edx
	pushl	$0
.LVL378:
	pushl	%eax
	call	*4(%edx)
.LVL379:
.LBE172:
.LBE171:
	.loc 1 8961 0
	addl	$16, %esp
	leave
	.cfi_restore 5
	.cfi_def_cfa 4, 4
	ret
	.cfi_endproc
.LFE243:
	.size	mayfly_xtal_stop, .-mayfly_xtal_stop
	.section	.text.unlikely.mayfly_xtal_stop
.LCOLDE46:
	.section	.text.mayfly_xtal_stop
.LHOTE46:
	.section	.text.unlikely.chan_sel_2,"ax",@progbits
.LCOLDB47:
	.section	.text.chan_sel_2,"ax",@progbits
.LHOTB47:
	.type	chan_sel_2, @function
chan_sel_2:
.LFB253:
	.loc 1 9170 0
	.cfi_startproc
.LVL380:
	pushl	%ebp
	.cfi_def_cfa_offset 8
	.cfi_offset 5, -8
.LBB184:
.LBB185:
	.loc 1 9160 0
	xorl	%edx, %eax
.LVL381:
.LBE185:
.LBE184:
	.loc 1 9170 0
	movl	%esp, %ebp
	.cfi_def_cfa_register 5
	pushl	%edi
	pushl	%esi
	pushl	%ebx
	subl	$12, %esp
	.cfi_offset 7, -12
	.cfi_offset 6, -16
	.cfi_offset 3, -20
	.loc 1 9170 0
	movl	8(%ebp), %edi
	movl	%ecx, -16(%ebp)
.LBB201:
.LBB198:
	.loc 1 9160 0
	movb	$3, -17(%ebp)
.LBE198:
.LBE201:
	.loc 1 9170 0
	movl	%edi, -24(%ebp)
	movl	%edx, %edi
.LVL382:
.L368:
.LBB202:
.LBB199:
.LBB186:
.LBB187:
	.loc 1 9150 0
	movl	%eax, %esi
	movb	$8, -18(%ebp)
.LBB188:
.LBB189:
	.loc 1 9140 0
	xorl	%ebx, %ebx
.LBE189:
.LBE188:
	.loc 1 9150 0
	shrw	$8, %si
	movl	%esi, %ecx
.LVL383:
.L366:
.LBB191:
.LBB190:
	.loc 1 9143 0
	movl	%ecx, %esi
	addl	%ebx, %ebx
.LVL384:
	.loc 1 9144 0
	shrb	%cl
.LVL385:
	.loc 1 9143 0
	andl	$1, %esi
.LVL386:
	orl	%esi, %ebx
.LVL387:
	.loc 1 9141 0
	decb	-18(%ebp)
.LVL388:
	jne	.L366
.LVL389:
.LBE190:
.LBE191:
	.loc 1 9150 0
	movzbl	%bl, %ebx
	movb	$8, -18(%ebp)
	movl	%ebx, %esi
.LBB192:
.LBB193:
	.loc 1 9140 0
	xorl	%ebx, %ebx
.LBE193:
.LBE192:
	.loc 1 9150 0
	sall	$8, %esi
.LVL390:
.L367:
.LBB195:
.LBB194:
	.loc 1 9143 0
	movb	%al, %cl
	addl	%ebx, %ebx
.LVL391:
	.loc 1 9144 0
	shrb	%al
.LVL392:
	.loc 1 9143 0
	andl	$1, %ecx
.LVL393:
	orl	%ecx, %ebx
.LVL394:
	.loc 1 9141 0
	decb	-18(%ebp)
.LVL395:
	jne	.L367
.LVL396:
.LBE194:
.LBE195:
.LBE187:
.LBE186:
.LBB196:
.LBB197:
	.loc 1 9154 0
	movzbl	%bl, %ebx
	orl	%esi, %ebx
	imull	$17, %ebx, %eax
	addl	%edi, %eax
.LVL397:
.LBE197:
.LBE196:
	.loc 1 9161 0
	decb	-17(%ebp)
.LVL398:
	jne	.L368
	.loc 1 9165 0
	xorl	%edx, %eax
.LBE199:
.LBE202:
	.loc 1 9174 0
	movl	$37, %esi
	xorl	%edx, %edx
.LVL399:
.LBB203:
.LBB200:
	.loc 1 9165 0
	movl	%eax, %ebx
.LVL400:
.LBE200:
.LBE203:
	.loc 1 9175 0
	movl	-16(%ebp), %edi
.LVL401:
	.loc 1 9174 0
	divw	%si
.LVL402:
	.loc 1 9175 0
	movb	%dl, %al
	shrb	$3, %al
	movzbl	%al, %eax
	movzbl	(%edi,%eax), %esi
	movb	%dl, %al
	andl	$7, %eax
	btl	%eax, %esi
	jc	.L369
.LVL403:
.LBB204:
	.loc 1 9178 0
	movzbl	-24(%ebp), %edx
.LVL404:
	movzwl	%bx, %eax
.LBE204:
	.loc 1 9182 0
	addl	$12, %esp
	popl	%ebx
	.cfi_remember_state
	.cfi_restore 3
.LVL405:
	popl	%esi
	.cfi_restore 6
.LBB205:
	.loc 1 9178 0
	imull	%eax, %edx
	movl	%edi, %eax
.LVL406:
.LBE205:
	.loc 1 9182 0
	popl	%edi
	.cfi_restore 7
	popl	%ebp
	.cfi_restore 5
	.cfi_def_cfa 4, 4
.LBB206:
	.loc 1 9178 0
	shrl	$16, %edx
	jmp	chan_sel_remap
.LVL407:
.L369:
	.cfi_restore_state
.LBE206:
	.loc 1 9182 0
	addl	$12, %esp
	movb	%dl, %al
	popl	%ebx
	.cfi_restore 3
	popl	%esi
	.cfi_restore 6
	popl	%edi
	.cfi_restore 7
	popl	%ebp
	.cfi_restore 5
	.cfi_def_cfa 4, 4
	ret
	.cfi_endproc
.LFE253:
	.size	chan_sel_2, .-chan_sel_2
	.section	.text.unlikely.chan_sel_2
.LCOLDE47:
	.section	.text.chan_sel_2
.LHOTE47:
	.section	.text.unlikely.ctrl_tx_enqueue,"ax",@progbits
.LCOLDB48:
	.section	.text.ctrl_tx_enqueue,"ax",@progbits
.LHOTB48:
	.type	ctrl_tx_enqueue, @function
ctrl_tx_enqueue:
.LFB297:
	.loc 1 10934 0
	.cfi_startproc
.LVL408:
	pushl	%ebp
	.cfi_def_cfa_offset 8
	.cfi_offset 5, -8
	movl	%esp, %ebp
	.cfi_def_cfa_register 5
	pushl	%ebx
	.cfi_offset 3, -12
	.loc 1 10936 0
	movb	224(%eax), %bl
	.loc 1 10935 0
	testb	%bl, %bl
	js	.L375
	.loc 1 10937 0
	movl	292(%eax), %ecx
	.loc 1 10936 0
	testl	%ecx, %ecx
	je	.L375
	.loc 1 10937 0
	andb	$8, %bl
	jne	.L375
	.loc 1 10939 0
	cmpl	304(%eax), %ecx
	jne	.L376
	.loc 1 10940 0
	movl	(%ecx), %ebx
	movl	%ebx, 304(%eax)
.L376:
	.loc 1 10942 0
	cmpl	$0, 296(%eax)
	jne	.L379
	.loc 1 10943 0
	movl	(%ecx), %ebx
	movl	%ebx, (%edx)
	.loc 1 10944 0
	movl	%edx, (%ecx)
	jmp	.L386
.L375:
	.loc 1 10951 0
	cmpl	$0, 296(%eax)
	jne	.L379
	.loc 1 10952 0
	movl	292(%eax), %ecx
	movl	%ecx, (%edx)
	.loc 1 10953 0
	movl	%edx, 292(%eax)
.L386:
	.loc 1 10954 0
	movl	%edx, 296(%eax)
	jmp	.L385
.L379:
.LVL409:
.LBB211:
.LBB212:
	.loc 1 10928 0
	movl	300(%eax), %ecx
	movl	(%ecx), %ebx
	movl	%ebx, (%edx)
	.loc 1 10929 0
	movl	%edx, (%ecx)
.LVL410:
.L385:
	.loc 1 10930 0
	movl	%edx, 300(%eax)
.LBE212:
.LBE211:
	.loc 1 10960 0
	cmpl	$0, (%edx)
	jne	.L374
	.loc 1 10961 0
	movl	%edx, 308(%eax)
.L374:
	.loc 1 10963 0
	popl	%ebx
	.cfi_restore 3
	popl	%ebp
	.cfi_restore 5
	.cfi_def_cfa 4, 4
	ret
	.cfi_endproc
.LFE297:
	.size	ctrl_tx_enqueue, .-ctrl_tx_enqueue
	.section	.text.unlikely.ctrl_tx_enqueue
.LCOLDE48:
	.section	.text.ctrl_tx_enqueue
.LHOTE48:
	.section	.text.unlikely.ctrl_tx_sec_enqueue,"ax",@progbits
.LCOLDB49:
	.section	.text.ctrl_tx_sec_enqueue,"ax",@progbits
.LHOTB49:
	.type	ctrl_tx_sec_enqueue, @function
ctrl_tx_sec_enqueue:
.LFB298:
	.loc 1 10966 0
	.cfi_startproc
.LVL411:
	pushl	%ebp
	.cfi_def_cfa_offset 8
	.cfi_offset 5, -8
	.loc 1 10967 0
	testb	$8, 224(%eax)
	.loc 1 10966 0
	movl	%esp, %ebp
	.cfi_def_cfa_register 5
	.loc 1 10967 0
	je	.L388
	.loc 1 10968 0
	cmpl	$0, 296(%eax)
	jne	.L389
	.loc 1 10969 0
	movl	292(%eax), %ecx
	movl	%ecx, (%edx)
	.loc 1 10970 0
	movl	%edx, 292(%eax)
	jmp	.L387
.L389:
	.loc 1 10972 0
	movl	300(%eax), %eax
.LVL412:
	movl	(%eax), %ecx
	movl	%ecx, (%edx)
	.loc 1 10973 0
	movl	%edx, (%eax)
	jmp	.L387
.LVL413:
.L388:
	.loc 1 10978 0
	popl	%ebp
	.cfi_remember_state
	.cfi_restore 5
	.cfi_def_cfa 4, 4
	.loc 1 10976 0
	jmp	ctrl_tx_enqueue
.LVL414:
.L387:
	.cfi_restore_state
	.loc 1 10978 0
	popl	%ebp
	.cfi_restore 5
	.cfi_def_cfa 4, 4
	ret
	.cfi_endproc
.LFE298:
	.size	ctrl_tx_sec_enqueue, .-ctrl_tx_sec_enqueue
	.section	.text.unlikely.ctrl_tx_sec_enqueue
.LCOLDE49:
	.section	.text.ctrl_tx_sec_enqueue
.LHOTE49:
	.section	.text.unlikely.start_enc_rsp_send,"ax",@progbits
.LCOLDB50:
	.section	.text.start_enc_rsp_send,"ax",@progbits
.LHOTB50:
	.type	start_enc_rsp_send, @function
start_enc_rsp_send:
.LFB307:
	.loc 1 11238 0
	.cfi_startproc
.LVL415:
	pushl	%ebp
	.cfi_def_cfa_offset 8
	.cfi_offset 5, -8
	movl	%esp, %ebp
	.cfi_def_cfa_register 5
	pushl	%ebx
	pushl	%ecx
	.cfi_offset 3, -12
	xorl	%ecx, %ecx
	.loc 1 11242 0
	testl	%edx, %edx
	.loc 1 11238 0
	movl	%eax, %ebx
.LVL416:
	.loc 1 11242 0
	jne	.L393
	.loc 1 11243 0
	subl	$12, %esp
	pushl	$_radio+344
	call	mem_acquire
.LVL417:
	movl	%eax, %ecx
.LVL418:
	.loc 1 11244 0
	addl	$16, %esp
	.loc 1 11245 0
	movb	$1, %al
.LVL419:
	.loc 1 11244 0
	testl	%ecx, %ecx
	.loc 1 11247 0
	leal	4(%ecx), %edx
	.loc 1 11244 0
	je	.L394
.LVL420:
.L393:
	.loc 1 11249 0
	orb	$32, 224(%ebx)
	.loc 1 11263 0
	xorl	%eax, %eax
	.loc 1 11251 0
	movb	$1, 1(%edx)
	.loc 1 11250 0
	orb	$3, (%edx)
	.loc 1 11260 0
	testl	%ecx, %ecx
	.loc 1 11258 0
	movb	$6, 3(%edx)
	.loc 1 11260 0
	je	.L394
	.loc 1 11261 0
	movl	%ebx, %eax
	movl	%ecx, %edx
	call	ctrl_tx_enqueue
.LVL421:
	.loc 1 11263 0
	xorl	%eax, %eax
.LVL422:
.L394:
	.loc 1 11264 0
	movl	-4(%ebp), %ebx
.LVL423:
	leave
	.cfi_restore 5
	.cfi_restore 3
	.cfi_def_cfa 4, 4
	ret
	.cfi_endproc
.LFE307:
	.size	start_enc_rsp_send, .-start_enc_rsp_send
	.section	.text.unlikely.start_enc_rsp_send
.LCOLDE50:
	.section	.text.start_enc_rsp_send
.LHOTE50:
	.section	.text.unlikely.pause_enc_rsp_send,"ax",@progbits
.LCOLDB51:
	.section	.text.pause_enc_rsp_send,"ax",@progbits
.LHOTB51:
	.type	pause_enc_rsp_send, @function
pause_enc_rsp_send:
.LFB308:
	.loc 1 11266 0
	.cfi_startproc
.LVL424:
	pushl	%ebp
	.cfi_def_cfa_offset 8
	.cfi_offset 5, -8
	.loc 1 11269 0
	testb	%dl, %dl
	.loc 1 11266 0
	movl	%esp, %ebp
	.cfi_def_cfa_register 5
	pushl	%ebx
	.cfi_offset 3, -12
	movl	%eax, %ebx
	pushl	%ecx
	.loc 1 11269 0
	je	.L401
	.loc 1 11270 0
	subl	$12, %esp
	pushl	$_radio+344
	call	mem_acquire
.LVL425:
	.loc 1 11271 0
	addl	$16, %esp
	testl	%eax, %eax
	jne	.L402
.L406:
	.loc 1 11272 0
	movb	$1, %al
.LVL426:
	jmp	.L403
.LVL427:
.L402:
	.loc 1 11274 0
	orb	$64, 224(%ebx)
	jmp	.L404
.LVL428:
.L401:
	.loc 1 11275 0
	cmpb	$0, 29(%eax)
	js	.L405
	.loc 1 11276 0
	subl	$12, %esp
	pushl	$_radio+344
	call	mem_acquire
.LVL429:
	.loc 1 11277 0
	addl	$16, %esp
	testl	%eax, %eax
	je	.L406
	.loc 1 11280 0
	andb	$-33, 224(%ebx)
	jmp	.L404
.LVL430:
.L405:
	.loc 1 11282 0
	andb	$-33, 224(%eax)
	jmp	.L411
.LVL431:
.L404:
	.loc 1 11285 0
	movb	224(%ebx), %dl
	orl	$4, %edx
	.loc 1 11286 0
	andl	$-17, %edx
	movb	%dl, 224(%ebx)
.LVL432:
	.loc 1 11288 0
	orb	$3, 4(%eax)
	.loc 1 11298 0
	movl	%eax, %edx
	.loc 1 11289 0
	movb	$1, 5(%eax)
	.loc 1 11296 0
	movb	$11, 7(%eax)
	.loc 1 11298 0
	movl	%ebx, %eax
.LVL433:
	call	ctrl_tx_enqueue
.LVL434:
.L411:
	.loc 1 11299 0
	xorl	%eax, %eax
.L403:
	.loc 1 11300 0
	movl	-4(%ebp), %ebx
.LVL435:
	leave
	.cfi_restore 5
	.cfi_restore 3
	.cfi_def_cfa 4, 4
	ret
	.cfi_endproc
.LFE308:
	.size	pause_enc_rsp_send, .-pause_enc_rsp_send
	.section	.text.unlikely.pause_enc_rsp_send
.LCOLDE51:
	.section	.text.pause_enc_rsp_send
.LHOTE51:
	.section	.text.unlikely.reject_ext_ind_send,"ax",@progbits
.LCOLDB52:
	.section	.text.reject_ext_ind_send,"ax",@progbits
.LHOTB52:
	.type	reject_ext_ind_send, @function
reject_ext_ind_send:
.LFB312:
	.loc 1 11404 0
	.cfi_startproc
.LVL436:
	pushl	%ebp
	.cfi_def_cfa_offset 8
	.cfi_offset 5, -8
	movl	%esp, %ebp
	.cfi_def_cfa_register 5
	pushl	%ebx
	.cfi_offset 3, -12
	movl	%eax, %ebx
	subl	$32, %esp
	.loc 1 11404 0
	movl	%edx, -16(%ebp)
	movl	%ecx, -12(%ebp)
	.loc 1 11407 0
	pushl	$_radio+344
	call	mem_acquire
.LVL437:
	.loc 1 11408 0
	addl	$16, %esp
	testl	%eax, %eax
	je	.L414
.LVL438:
	.loc 1 11423 0
	movl	-16(%ebp), %edx
	.loc 1 11412 0
	orb	$3, 4(%eax)
	.loc 1 11425 0
	movl	-12(%ebp), %ecx
	.loc 1 11413 0
	movb	$3, 5(%eax)
	.loc 1 11421 0
	movb	$17, 7(%eax)
	.loc 1 11423 0
	movb	%dl, 8(%eax)
	.loc 1 11427 0
	movl	%eax, %edx
	.loc 1 11425 0
	movb	%cl, 9(%eax)
	.loc 1 11427 0
	movl	%ebx, %eax
.LVL439:
	call	ctrl_tx_enqueue
.LVL440:
	.loc 1 11428 0
	xorl	%eax, %eax
	jmp	.L413
.LVL441:
.L414:
	.loc 1 11409 0
	movb	$1, %al
.LVL442:
.L413:
	.loc 1 11429 0
	movl	-4(%ebp), %ebx
.LVL443:
	leave
	.cfi_restore 5
	.cfi_restore 3
	.cfi_def_cfa 4, 4
	ret
	.cfi_endproc
.LFE312:
	.size	reject_ext_ind_send, .-reject_ext_ind_send
	.section	.text.unlikely.reject_ext_ind_send
.LCOLDE52:
	.section	.text.reject_ext_ind_send
.LHOTE52:
	.section	.text.unlikely.unknown_rsp_send,"ax",@progbits
.LCOLDB53:
	.section	.text.unknown_rsp_send,"ax",@progbits
.LHOTB53:
	.type	unknown_rsp_send, @function
unknown_rsp_send:
.LFB309:
	.loc 1 11302 0
	.cfi_startproc
.LVL444:
	pushl	%ebp
	.cfi_def_cfa_offset 8
	.cfi_offset 5, -8
	movl	%esp, %ebp
	.cfi_def_cfa_register 5
	pushl	%ebx
	.cfi_offset 3, -12
	movl	%eax, %ebx
	subl	$32, %esp
	.loc 1 11302 0
	movl	%edx, -12(%ebp)
	.loc 1 11305 0
	pushl	$_radio+344
	call	mem_acquire
.LVL445:
	.loc 1 11306 0
	addl	$16, %esp
	testl	%eax, %eax
	je	.L418
.LVL446:
	.loc 1 11319 0
	movl	-12(%ebp), %edx
	.loc 1 11310 0
	orb	$3, 4(%eax)
	.loc 1 11311 0
	movb	$2, 5(%eax)
	.loc 1 11318 0
	movb	$7, 7(%eax)
	.loc 1 11319 0
	movb	%dl, 8(%eax)
	.loc 1 11320 0
	movl	%eax, %edx
	movl	%ebx, %eax
.LVL447:
	call	ctrl_tx_enqueue
.LVL448:
	.loc 1 11321 0
	xorl	%eax, %eax
	jmp	.L417
.LVL449:
.L418:
	.loc 1 11307 0
	movb	$1, %al
.LVL450:
.L417:
	.loc 1 11322 0
	movl	-4(%ebp), %ebx
.LVL451:
	leave
	.cfi_restore 5
	.cfi_restore 3
	.cfi_def_cfa 4, 4
	ret
	.cfi_endproc
.LFE309:
	.size	unknown_rsp_send, .-unknown_rsp_send
	.section	.text.unlikely.unknown_rsp_send
.LCOLDE53:
	.section	.text.unknown_rsp_send
.LHOTE53:
	.globl	__udivdi3
	.section	.text.unlikely.event_connection_prepare,"ax",@progbits
.LCOLDB54:
	.section	.text.event_connection_prepare,"ax",@progbits
.LHOTB54:
	.type	event_connection_prepare, @function
event_connection_prepare:
.LFB280:
	.loc 1 10458 0
	.cfi_startproc
.LVL452:
	pushl	%ebp
	.cfi_def_cfa_offset 8
	.cfi_offset 5, -8
	movl	%esp, %ebp
	.cfi_def_cfa_register 5
	pushl	%edi
	pushl	%esi
	pushl	%ebx
	subl	$44, %esp
	.cfi_offset 7, -12
	.cfi_offset 6, -16
	.cfi_offset 3, -20
	.loc 1 10458 0
	movl	8(%ebp), %ebx
	movl	%eax, -32(%ebp)
	.loc 1 10460 0
	movb	_radio+12, %al
.LVL453:
	.loc 1 10458 0
	movl	%edx, -40(%ebp)
	.loc 1 10461 0
	movb	32(%ebx), %al
	addl	$7, %eax
	.loc 1 10463 0
	cmpb	$0, 29(%ebx)
	.loc 1 10461 0
	movb	%al, _radio+12
	.loc 1 10463 0
	jns	.L422
	.loc 1 10464 0
	movzwl	%cx, %eax
	.loc 1 10467 0
	movl	68(%ebx), %edx
.LVL454:
	.loc 1 10464 0
	incl	%eax
	imull	64(%ebx), %eax
	addl	72(%ebx), %eax
	.loc 1 10466 0
	cmpl	%edx, %eax
	.loc 1 10464 0
	movl	%eax, 72(%ebx)
	.loc 1 10466 0
	jbe	.L422
	.loc 1 10468 0
	movl	%edx, 72(%ebx)
.L422:
	.loc 1 10472 0
	addl	40(%ebx), %ecx
.LVL455:
	.loc 1 10474 0
	movb	96(%ebx), %al
	.loc 1 10472 0
	movw	%cx, 40(%ebx)
	.loc 1 10473 0
	addw	34(%ebx), %cx
	.loc 1 10474 0
	cmpb	%al, 97(%ebx)
	.loc 1 10473 0
	movw	%cx, -28(%ebp)
.LVL456:
	.loc 1 10474 0
	jne	.L425
	.loc 1 10475 0
	movb	180(%ebx), %al
	cmpb	%al, 181(%ebx)
	je	.L428
	.loc 1 10476 0
	pushl	$5
	pushl	$0
	pushl	$0
	pushl	$0
	call	event_stop
.LVL457:
.LBB261:
.LBB262:
	.loc 1 10266 0
	movl	_radio+388, %eax
.LVL458:
	.loc 1 10267 0
	addl	$16, %esp
	testl	%eax, %eax
	je	.L502
	cmpl	%eax, %ebx
	jne	.L428
.L502:
	.loc 1 10270 0
	movb	182(%ebx), %al
.LVL459:
	movb	%al, %dl
	andl	$7, %edx
	cmpb	$1, %dl
	je	.L431
	jb	.L432
	cmpb	$2, %dl
	je	.L433
	jmp	.L428
.L432:
.LVL460:
.LBB263:
.LBB264:
	.loc 1 10106 0
	subl	$12, %esp
	pushl	$_radio+344
	call	mem_acquire
.LVL461:
	.loc 1 10107 0
	addl	$16, %esp
	testl	%eax, %eax
	je	.L428
	.loc 1 10110 0
	movb	182(%ebx), %dl
	.loc 1 10129 0
	movl	-28(%ebp), %edi
	.loc 1 10110 0
	andl	$-8, %edx
	orl	$4, %edx
	movb	%dl, 182(%ebx)
.LVL462:
	.loc 1 10112 0
	orb	$3, 4(%eax)
	.loc 1 10113 0
	movb	$24, 5(%eax)
	.loc 1 10121 0
	movb	$15, 7(%eax)
.LVL463:
	.loc 1 10124 0
	movl	184(%ebx), %edx
	movw	%dx, 8(%eax)
	.loc 1 10125 0
	movw	%dx, 10(%eax)
	.loc 1 10126 0
	movw	186(%ebx), %dx
	movw	%dx, 12(%eax)
	.loc 1 10127 0
	movl	188(%ebx), %edx
	.loc 1 10128 0
	movb	$0, 16(%eax)
	.loc 1 10129 0
	movw	%di, 17(%eax)
	.loc 1 10130 0
	movw	$0, 19(%eax)
	.loc 1 10131 0
	movw	$-1, 21(%eax)
	.loc 1 10127 0
	movw	%dx, 14(%eax)
	.loc 1 10132 0
	movw	$-1, 23(%eax)
	.loc 1 10136 0
	movl	%eax, %edx
	.loc 1 10133 0
	movw	$-1, 25(%eax)
	.loc 1 10134 0
	movw	$-1, 27(%eax)
	.loc 1 10135 0
	movw	$-1, 29(%eax)
	.loc 1 10136 0
	movl	%ebx, %eax
.LVL464:
	call	ctrl_tx_enqueue
.LVL465:
	.loc 1 10138 0
	movw	54(%ebx), %ax
	.loc 1 10137 0
	movl	%ebx, _radio+388
	.loc 1 10138 0
	movw	%ax, 56(%ebx)
	jmp	.L428
.LVL466:
.L431:
.LBE264:
.LBE263:
.LBB265:
.LBB266:
	.loc 1 10146 0
	cmpb	$0, 183(%ebx)
	je	.L434
.LBB267:
	.loc 1 10148 0
	subl	$12, %esp
	pushl	$_radio+344
	call	mem_acquire
.LVL467:
	.loc 1 10149 0
	addl	$16, %esp
	testl	%eax, %eax
	je	.L428
.LVL468:
	.loc 1 10153 0
	orb	$3, 4(%eax)
	.loc 1 10154 0
	movb	$17, 7(%eax)
	.loc 1 10156 0
	movb	$3, 5(%eax)
.LVL469:
	.loc 1 10166 0
	movb	$15, 8(%eax)
	.loc 1 10167 0
	movb	183(%ebx), %dl
	movb	%dl, 9(%eax)
	jmp	.L564
.LVL470:
.L434:
.LBE267:
	.loc 1 10175 0
	cmpb	$0, 29(%ebx)
	js	.L435
	.loc 1 10176 0
	movb	96(%ebx), %cl
	cmpb	97(%ebx), %cl
	jne	.L428
	.loc 1 10182 0
	movl	184(%ebx), %edx
	.loc 1 10179 0
	andl	$-8, %eax
	.loc 1 10185 0
	movl	104(%ebx), %esi
	.loc 1 10179 0
	orl	$5, %eax
	.loc 1 10188 0
	decl	%ecx
	.loc 1 10180 0
	movb	$1, 120(%ebx)
.LVL471:
	.loc 1 10179 0
	movb	%al, 182(%ebx)
	.loc 1 10186 0
	shrb	$3, %al
	.loc 1 10181 0
	movl	$0, 116(%ebx)
	.loc 1 10182 0
	movw	%dx, 106(%ebx)
	.loc 1 10183 0
	movw	186(%ebx), %dx
	.loc 1 10186 0
	xorl	$1, %eax
	andl	$1, %eax
	.loc 1 10185 0
	andl	$-8, %esi
	.loc 1 10187 0
	movl	$1, 100(%ebx)
	.loc 1 10188 0
	movb	%cl, 97(%ebx)
	.loc 1 10183 0
	movw	%dx, 108(%ebx)
	.loc 1 10184 0
	movl	188(%ebx), %edx
	movw	%dx, 110(%ebx)
	.loc 1 10186 0
	leal	0(,%eax,4), %edx
	movl	%esi, %eax
	orl	$2, %eax
	orl	%edx, %eax
	movb	%al, 104(%ebx)
	jmp	.L428
.LVL472:
.L435:
	.loc 1 10191 0
	subl	$12, %esp
	pushl	$_radio+344
	call	mem_acquire
.LVL473:
	.loc 1 10192 0
	addl	$16, %esp
	testl	%eax, %eax
	je	.L428
.LVL474:
	.loc 1 10196 0
	orb	$3, 4(%eax)
	.loc 1 10197 0
	movb	$24, 5(%eax)
	.loc 1 10205 0
	movb	$16, 7(%eax)
.LVL475:
	.loc 1 10208 0
	movl	184(%ebx), %edx
	movw	%dx, 8(%eax)
	.loc 1 10209 0
	movw	%dx, 10(%eax)
	.loc 1 10210 0
	movw	186(%ebx), %dx
	movw	%dx, 12(%eax)
	.loc 1 10211 0
	movl	188(%ebx), %edx
	movw	%dx, 14(%eax)
	.loc 1 10212 0
	movb	190(%ebx), %dl
	movb	%dl, 16(%eax)
	.loc 1 10213 0
	movl	192(%ebx), %edx
	movw	%dx, 17(%eax)
	.loc 1 10215 0
	movw	194(%ebx), %dx
	movw	%dx, 19(%eax)
	.loc 1 10216 0
	movl	196(%ebx), %edx
	movw	%dx, 21(%eax)
	.loc 1 10217 0
	movw	198(%ebx), %dx
	movw	%dx, 23(%eax)
	.loc 1 10218 0
	movl	200(%ebx), %edx
	movw	%dx, 25(%eax)
	.loc 1 10219 0
	movw	202(%ebx), %dx
	movw	%dx, 27(%eax)
	.loc 1 10220 0
	movl	204(%ebx), %edx
	movw	%dx, 29(%eax)
.LVL476:
.L564:
	.loc 1 10221 0
	movl	%eax, %edx
	movl	%ebx, %eax
.LVL477:
	call	ctrl_tx_enqueue
.LVL478:
	.loc 1 10222 0
	movb	180(%ebx), %al
	movb	%al, 181(%ebx)
	.loc 1 10223 0
	movl	$0, _radio+388
	jmp	.L428
.LVL479:
.L433:
.LBE266:
.LBE265:
.LBB268:
.LBB269:
	.loc 1 10232 0
	testb	$8, 224(%ebx)
	jne	.L428
	.loc 1 10235 0
	movl	$2, %eax
	call	packet_rx_reserve_get
.LVL480:
	.loc 1 10236 0
	testl	%eax, %eax
	je	.L428
	.loc 1 10239 0
	movb	182(%ebx), %dl
	andl	$-8, %edx
	orl	$3, %edx
	movb	%dl, 182(%ebx)
	.loc 1 10240 0
	movl	32(%ebx), %edx
	.loc 1 10243 0
	orb	$3, 12(%eax)
	.loc 1 10244 0
	movb	$24, 13(%eax)
	.loc 1 10252 0
	movb	$15, 15(%eax)
	.loc 1 10241 0
	movl	$1, 4(%eax)
.LVL481:
	.loc 1 10240 0
	movw	%dx, 8(%eax)
	.loc 1 10255 0
	movl	184(%ebx), %edx
	movw	%dx, 16(%eax)
	.loc 1 10256 0
	movw	%dx, 18(%eax)
	.loc 1 10257 0
	movw	186(%ebx), %dx
	movw	%dx, 20(%eax)
	.loc 1 10258 0
	movl	188(%ebx), %edx
	movw	%dx, 22(%eax)
	.loc 1 10259 0
	call	packet_rx_enqueue
.LVL482:
.L428:
.LBE269:
.LBE268:
.LBE262:
.LBE261:
	.loc 1 10480 0
	movb	220(%ebx), %al
	cmpb	%al, 221(%ebx)
	je	.L426
	.loc 1 10481 0
	pushl	$5
	pushl	$0
	pushl	$0
	pushl	$0
	call	event_stop
.LVL483:
.LBB270:
.LBB271:
	.loc 1 10291 0
	movb	222(%ebx), %al
	addl	$16, %esp
	movb	%al, %dl
	andb	$3, %dl
	je	.L437
	cmpb	$3, %dl
	je	.L438
	jmp	.L426
.L437:
.LBB272:
	.loc 1 10297 0
	subl	$12, %esp
	pushl	$_radio+344
	call	mem_acquire
.LVL484:
	.loc 1 10298 0
	addl	$16, %esp
	testl	%eax, %eax
	je	.L426
	.loc 1 10301 0
	movb	222(%ebx), %cl
	.loc 1 10303 0
	movzbl	45(%ebx), %esi
	.loc 1 10301 0
	andl	$-4, %ecx
	orl	$1, %ecx
	.loc 1 10303 0
	andl	$-57, %esi
	.loc 1 10301 0
	movb	%cl, 222(%ebx)
	.loc 1 10302 0
	movb	%cl, %dl
	.loc 1 10303 0
	shrb	$5, %cl
	sall	$3, %ecx
	.loc 1 10302 0
	shrb	$2, %dl
	.loc 1 10303 0
	orl	%esi, %ecx
	.loc 1 10302 0
	movl	%edx, %edi
	movb	44(%ebx), %dl
	.loc 1 10303 0
	movb	%cl, 45(%ebx)
.LVL485:
	.loc 1 10304 0
	movb	223(%ebx), %cl
	.loc 1 10302 0
	andl	$7, %edi
	andl	$-72, %edx
	.loc 1 10304 0
	andl	$1, %ecx
	orl	%edi, %edx
	sall	$6, %ecx
	orl	%ecx, %edx
	movb	%dl, 44(%ebx)
.LVL486:
	.loc 1 10306 0
	orb	$3, 4(%eax)
	.loc 1 10307 0
	movb	$3, 5(%eax)
	.loc 1 10315 0
	movb	$22, 7(%eax)
.LVL487:
	.loc 1 10319 0
	movb	222(%ebx), %dl
	shrb	$2, %dl
	andl	$7, %edx
	movb	%dl, 8(%eax)
	.loc 1 10320 0
	movb	222(%ebx), %dl
	shrb	$5, %dl
	movb	%dl, 9(%eax)
	.loc 1 10321 0
	movl	%eax, %edx
	movl	%ebx, %eax
.LVL488:
	call	ctrl_tx_enqueue
.LVL489:
	.loc 1 10322 0
	movw	54(%ebx), %ax
	movw	%ax, 56(%ebx)
	jmp	.L426
.LVL490:
.L438:
.LBE272:
	.loc 1 10327 0
	movb	220(%ebx), %dl
	movb	%dl, 221(%ebx)
	.loc 1 10328 0
	movb	%al, %dl
	.loc 1 10329 0
	andl	$-29, %eax
	.loc 1 10328 0
	shrb	$2, %dl
	andl	$7, %edx
	testb	$2, %dl
	je	.L439
	.loc 1 10329 0
	orl	$8, %eax
	jmp	.L442
.L439:
	.loc 1 10330 0
	testb	$1, %dl
	je	.L441
	.loc 1 10331 0
	orl	$4, %eax
	jmp	.L442
.L441:
	.loc 1 10332 0
	andb	$4, %dl
	je	.L442
	.loc 1 10333 0
	orl	$16, %eax
.L442:
	.loc 1 10335 0
	movb	%al, 222(%ebx)
	.loc 1 10337 0
	movb	222(%ebx), %al
	movb	%al, %dl
	.loc 1 10338 0
	andl	$31, %eax
	.loc 1 10337 0
	shrb	$5, %dl
	testb	$2, %dl
	je	.L443
	.loc 1 10338 0
	orl	$64, %eax
	jmp	.L446
.L443:
	.loc 1 10339 0
	testb	$1, %dl
	je	.L445
	.loc 1 10340 0
	orl	$32, %eax
	jmp	.L446
.L445:
	.loc 1 10341 0
	andb	$4, %dl
	je	.L446
	.loc 1 10342 0
	orl	$-128, %eax
.L446:
	.loc 1 10344 0
	movb	%al, 222(%ebx)
	.loc 1 10346 0
	movb	222(%ebx), %al
	movb	44(%ebx), %cl
	movl	104(%ebx), %esi
	movb	%al, %dl
	shrb	$2, %dl
	shrb	$3, %cl
	andl	$7, %edx
	andl	$7, %ecx
	cmpb	%cl, %dl
	je	.L447
	.loc 1 10347 0
	leal	0(,%edx,4), %ecx
	movl	%esi, %edx
	andl	$-29, %edx
	orl	%ecx, %edx
	jmp	.L565
.L447:
	.loc 1 10349 0
	movl	%esi, %edx
	andl	$-29, %edx
.L565:
	movb	%dl, 104(%ebx)
	.loc 1 10351 0
	movb	46(%ebx), %dl
	shrb	$5, %al
	andl	$7, %edx
	cmpb	%dl, %al
	movb	104(%ebx), %dl
	je	.L449
	.loc 1 10352 0
	sall	$5, %eax
	andl	$31, %edx
	orl	%edx, %eax
	movb	%al, 104(%ebx)
	jmp	.L450
.L449:
	.loc 1 10354 0
	andl	$31, %edx
	movb	%dl, 104(%ebx)
.L450:
	.loc 1 10356 0
	movb	104(%ebx), %al
	.loc 1 10357 0
	movb	223(%ebx), %dl
	.loc 1 10359 0
	decb	97(%ebx)
	.loc 1 10358 0
	movl	$7, 100(%ebx)
	.loc 1 10356 0
	orl	$1, %eax
	.loc 1 10357 0
	andl	$2, %edx
	andl	$-3, %eax
	orl	%edx, %eax
	movb	%al, 104(%ebx)
.LVL491:
.L426:
.LBE271:
.LBE270:
	.loc 1 10485 0
	movb	96(%ebx), %al
	cmpb	%al, 97(%ebx)
	je	.L452
.L425:
	.loc 1 10486 0
	pushl	$5
	pushl	$0
	pushl	$0
	pushl	$0
	call	event_stop
.LVL492:
	.loc 1 10487 0
	movl	100(%ebx), %eax
	addl	$16, %esp
	decl	%eax
	cmpl	$6, %eax
	ja	.L452
	jmp	*.L454(,%eax,4)
	.section	.rodata.event_connection_prepare,"a",@progbits
	.align 4
	.align 4
.L454:
	.long	.L453
	.long	.L455
	.long	.L456
	.long	.L457
	.long	.L458
	.long	.L452
	.long	.L459
	.section	.text.event_connection_prepare
.L453:
.LVL493:
.LBB273:
.LBB274:
	.loc 1 9675 0
	cmpl	$0, _radio+388
	jne	.L460
	.loc 1 9676 0
	movl	%ebx, _radio+388
.LVL494:
.L460:
	.loc 1 9680 0
	testb	$3, 104(%ebx)
	je	.L461
.LBB275:
	.loc 1 9683 0
	subl	$12, %esp
	pushl	$_radio+344
.LVL495:
	call	mem_acquire
.LVL496:
	.loc 1 9684 0
	addl	$16, %esp
	testl	%eax, %eax
	.loc 1 9683 0
	movl	%eax, %ecx
.LVL497:
	.loc 1 9684 0
	je	.L452
.LVL498:
.LBB276:
.LBB277:
	.loc 1 9639 0
	movw	38(%ebx), %ax
.LVL499:
	movl	-28(%ebp), %edi
	.loc 1 9655 0
	movl	$1250, %esi
	.loc 1 9638 0
	andb	$-4, 104(%ebx)
	.loc 1 9655 0
	xorl	%edx, %edx
	.loc 1 9639 0
	leal	6(%edi,%eax), %eax
	movw	%ax, 112(%ebx)
	.loc 1 9641 0
	orb	$3, 4(%ecx)
	.loc 1 9642 0
	movb	$12, 5(%ecx)
	.loc 1 9650 0
	movb	$0, 7(%ecx)
	.loc 1 9653 0
	movb	120(%ebx), %al
	.loc 1 9652 0
	movb	%al, 8(%ecx)
	.loc 1 9655 0
	movl	116(%ebx), %eax
	divl	%esi
.LBE277:
.LBE276:
	.loc 1 9694 0
	movl	%ecx, %edx
.LBB279:
.LBB278:
	.loc 1 9655 0
	movw	%ax, 9(%ecx)
	.loc 1 9657 0
	movw	106(%ebx), %ax
	.loc 1 9656 0
	movw	%ax, 11(%ecx)
	.loc 1 9659 0
	movl	108(%ebx), %eax
	.loc 1 9658 0
	movw	%ax, 13(%ecx)
	.loc 1 9661 0
	movw	110(%ebx), %ax
	.loc 1 9660 0
	movw	%ax, 15(%ecx)
	.loc 1 9663 0
	movl	112(%ebx), %eax
	.loc 1 9662 0
	movw	%ax, 17(%ecx)
.LVL500:
	jmp	.L567
.LVL501:
.L461:
.LBE278:
.LBE279:
.LBE275:
	.loc 1 9695 0
	movl	-28(%ebp), %esi
	subw	112(%ebx), %si
	js	.L452
.LBB280:
	.loc 1 9709 0
	movb	180(%ebx), %dl
	cmpb	181(%ebx), %dl
	.loc 1 9708 0
	movb	96(%ebx), %al
	movb	%al, 97(%ebx)
	.loc 1 9709 0
	je	.L463
	movb	182(%ebx), %al
	andl	$7, %eax
	cmpb	$5, %al
	jne	.L463
	.loc 1 9711 0
	movb	%dl, 181(%ebx)
	.loc 1 9712 0
	movw	$0, 56(%ebx)
.L463:
	.loc 1 9715 0
	cmpl	_radio+388, %ebx
	.loc 1 9714 0
	movb	$0, _radio+12
	.loc 1 9715 0
	jne	.L464
	.loc 1 9716 0
	movl	$0, _radio+388
.LVL502:
.L464:
	.loc 1 9720 0
	movzwl	106(%ebx), %ecx
	cmpw	36(%ebx), %cx
	jne	.L465
	.loc 1 9721 0
	movw	38(%ebx), %ax
	cmpw	%ax, 108(%ebx)
	jne	.L465
	.loc 1 9722 0
	movzwl	110(%ebx), %eax
	.loc 1 9723 0
	imull	$1250, %ecx, %ecx
	.loc 1 9722 0
	imull	$10000, %eax, %eax
	leal	-1(%ecx,%eax), %eax
	cltd
	idivl	%ecx
	cmpw	%ax, 50(%ebx)
	je	.L466
.L465:
	.loc 1 9726 0
	movl	$2, %eax
	call	packet_rx_reserve_get
.LVL503:
	.loc 1 9728 0
	movl	32(%ebx), %edx
	.loc 1 9729 0
	movl	$5, 4(%eax)
.LVL504:
	.loc 1 9735 0
	movb	$0, 15(%eax)
	.loc 1 9728 0
	movw	%dx, 8(%eax)
	.loc 1 9737 0
	movw	106(%ebx), %dx
	.loc 1 9736 0
	movw	%dx, 16(%eax)
	.loc 1 9739 0
	movl	108(%ebx), %edx
	.loc 1 9738 0
	movw	%dx, 18(%eax)
	.loc 1 9741 0
	movw	110(%ebx), %dx
	.loc 1 9740 0
	movw	%dx, 20(%eax)
	.loc 1 9742 0
	call	packet_rx_enqueue
.LVL505:
.L466:
	.loc 1 9744 0
	movl	(%ebx), %edx
	testl	%edx, %edx
	jns	.L467
.LBB281:
	.loc 1 9745 0
	movl	4(%ebx), %eax
	cmpl	%eax, 8(%ebx)
	cmovnb	8(%ebx), %eax
.LVL506:
	.loc 1 9750 0
	andl	$2147483647, %edx
	movl	%edx, (%ebx)
	.loc 1 9751 0
	subl	%edx, %eax
.LVL507:
	addl	%eax, -32(%ebp)
.LVL508:
.L467:
.LBE281:
	.loc 1 9754 0
	movl	%esi, %ecx
	.loc 1 9756 0
	movw	106(%ebx), %ax
	.loc 1 9755 0
	xorl	%edx, %edx
	.loc 1 9754 0
	imull	36(%ebx), %ecx
.LVL509:
	.loc 1 9756 0
	movw	%ax, -28(%ebp)
.LVL510:
	.loc 1 9755 0
	movl	%ecx, %eax
	divw	-28(%ebp)
	movw	%ax, -40(%ebp)
.LVL511:
	.loc 1 9757 0
	movl	-28(%ebp), %eax
.LVL512:
	imull	-40(%ebp), %eax
.LVL513:
	.loc 1 9759 0
	cmpw	%ax, %cx
	movzwl	%ax, %eax
	movzwl	%cx, %ecx
	jnb	.L468
	.loc 1 9761 0
	subl	%ecx, %eax
.LVL514:
	.loc 1 9760 0
	pushl	$7
	pushl	$452807053
	.loc 1 9761 0
	imull	$1250, %eax, %edx
	.loc 1 9760 0
	movl	$1000000000, %eax
	imull	%edx
	pushl	%edx
	pushl	%eax
	call	__udivdi3
.LVL515:
	andl	$16777215, %eax
	addl	-32(%ebp), %eax
	addl	$16, %esp
	movl	%eax, -32(%ebp)
.LVL516:
	jmp	.L469
.LVL517:
.L468:
	.loc 1 9765 0
	subl	%eax, %ecx
.LVL518:
	.loc 1 9764 0
	movl	$1000000000, %edx
	pushl	$7
	.loc 1 9765 0
	imull	$1250, %ecx, %eax
.LVL519:
	.loc 1 9764 0
	pushl	$452807053
	imull	%edx
	pushl	%edx
	pushl	%eax
	call	__udivdi3
.LVL520:
	movl	-32(%ebp), %edi
	andl	$16777215, %eax
	addl	$16, %esp
	subl	%eax, %edi
	movl	%edi, -32(%ebp)
.LVL521:
.L469:
	.loc 1 9768 0
	movl	-40(%ebp), %eax
	.loc 1 9774 0
	movzwl	-28(%ebp), %edi
	.loc 1 9768 0
	subl	%esi, %eax
	addw	%ax, 40(%ebx)
	.loc 1 9769 0
	movl	(%ebx), %eax
	cmpl	%eax, 4(%ebx)
	cmovnb	4(%ebx), %eax
	.loc 1 9774 0
	imull	$1250, %edi, %edi
	.loc 1 9776 0
	cmpb	$0, 29(%ebx)
	.loc 1 9769 0
	movl	%eax, -52(%ebp)
.LVL522:
	.loc 1 9776 0
	jns	.L470
	.loc 1 9777 0
	movzwl	%si, %esi
	movl	72(%ebx), %ecx
	imull	64(%ebx), %esi
	subl	%esi, %ecx
	.loc 1 9783 0
	movl	$1000000, %esi
	.loc 1 9777 0
	movl	%ecx, 72(%ebx)
	.loc 1 9781 0
	movzbl	_radio+288, %eax
.LVL523:
	.loc 1 9788 0
	movl	$0, 92(%ebx)
	.loc 1 9783 0
	movzwl	gc_lookup_ppm(%eax,%eax), %edx
	.loc 1 9782 0
	movb	60(%ebx), %al
	shrb	$2, %al
	andl	$7, %eax
	.loc 1 9783 0
	movzwl	gc_lookup_ppm(%eax,%eax), %eax
	addl	%eax, %edx
	imull	%edi, %edx
	leal	999999(%edx), %eax
	xorl	%edx, %edx
	divl	%esi
	.loc 1 9785 0
	movl	%edi, %edx
	.loc 1 9797 0
	movl	$1000000000, %esi
	.loc 1 9785 0
	shrl	%edx
	subl	$150, %edx
	.loc 1 9784 0
	movl	%edx, 68(%ebx)
	.loc 1 9780 0
	movl	%eax, 64(%ebx)
	.loc 1 9783 0
	movl	%eax, -44(%ebp)
	.loc 1 9786 0
	movzbl	120(%ebx), %eax
	imull	$1250, %eax, %eax
	movl	%eax, 80(%ebx)
	.loc 1 9790 0
	movzwl	-40(%ebp), %eax
	imull	-44(%ebp), %eax
	.loc 1 9789 0
	addl	%eax, %ecx
	cmpl	%ecx, %edx
	cmovb	%edx, %ecx
	.loc 1 9797 0
	mull	%esi
	.loc 1 9789 0
	movl	%ecx, 72(%ebx)
	.loc 1 9797 0
	pushl	$7
	pushl	$452807053
	pushl	%edx
	pushl	%eax
	call	__udivdi3
.LVL524:
	subl	%eax, -32(%ebp)
.LVL525:
	.loc 1 9801 0
	movl	116(%ebx), %eax
	movl	$1250, %ecx
	xorl	%edx, %edx
	.loc 1 9797 0
	addl	$16, %esp
	.loc 1 9800 0
	pushl	$7
	pushl	$452807053
	.loc 1 9801 0
	divl	%ecx
	imull	$1250, %eax, %ecx
	.loc 1 9800 0
	movl	%ecx, %eax
	mull	%esi
	.loc 1 9803 0
	movl	%edi, %esi
	.loc 1 9800 0
	pushl	%edx
	pushl	%eax
	call	__udivdi3
.LVL526:
	andl	$16777215, %eax
	addl	$16, %esp
	.loc 1 9803 0
	subl	-44(%ebp), %esi
	.loc 1 9800 0
	movl	%eax, -48(%ebp)
.LVL527:
	jmp	.L473
.LVL528:
.L470:
	.loc 1 9806 0
	movl	$1000000000, %esi
	movl	%esi, %eax
.LVL529:
	.loc 1 9775 0
	movl	%edi, %esi
	.loc 1 9806 0
	mull	116(%ebx)
	pushl	$7
	pushl	$452807053
	pushl	%edx
	pushl	%eax
	call	__udivdi3
.LVL530:
	andl	$16777215, %eax
.LVL531:
	addl	$16, %esp
	.loc 1 9808 0
	incl	%eax
.LVL532:
	movl	%eax, -48(%ebp)
.LVL533:
.L473:
	.loc 1 9810 0
	movl	-28(%ebp), %eax
	.loc 1 9812 0
	xorl	%edx, %edx
	.loc 1 9810 0
	movw	%ax, 36(%ebx)
	.loc 1 9811 0
	movl	108(%ebx), %eax
	movw	%ax, 38(%ebx)
	.loc 1 9812 0
	movzwl	110(%ebx), %eax
	imull	$10000, %eax, %eax
	leal	-1(%edi,%eax), %eax
	divl	%edi
	.loc 1 9815 0
	xorl	%edx, %edx
	.loc 1 9812 0
	movw	%ax, 50(%ebx)
	.loc 1 9815 0
	leal	39999999(%edi), %eax
	divl	%edi
	.loc 1 9817 0
	testb	$4, 104(%ebx)
	.loc 1 9815 0
	movw	%ax, 54(%ebx)
	.loc 1 9817 0
	jne	.L474
	.loc 1 9818 0
	movw	$0, 52(%ebx)
.L474:
.LVL534:
	.loc 1 9820 0
	pushl	%edi
	pushl	%edi
	.loc 1 9834 0
	movl	$event_slave_prepare, %edi
	.loc 1 9820 0
	pushl	$1
	pushl	$0
	call	mayfly_is_enabled
.LVL535:
	.loc 1 9823 0
	addl	$12, %esp
	.loc 1 9820 0
	movl	%eax, -44(%ebp)
.LVL536:
	.loc 1 9823 0
	pushl	$0
	pushl	$1
	pushl	$0
	call	mayfly_enable
.LVL537:
	.loc 1 9825 0
	movl	$6590, (%esp)
	pushl	$ticker_success_assert
	movb	32(%ebx), %al
	addl	$7, %eax
	movzbl	%al, %eax
	pushl	%eax
	pushl	$0
	pushl	$0
	call	ticker_stop
.LVL538:
	.loc 1 9834 0
	addl	$32, %esp
	cmpb	$0, 29(%ebx)
	.loc 1 9840 0
	movl	$1000000000, %ecx
	.loc 1 9834 0
	movl	$event_master_prepare, %eax
	.loc 1 9840 0
	pushl	$7
	pushl	$452807053
	.loc 1 9834 0
	cmovns	%eax, %edi
	.loc 1 9840 0
	movl	%ecx, %eax
	mull	%esi
	pushl	%edx
	pushl	%eax
	movl	%eax, -40(%ebp)
.LVL539:
	movl	%edx, -36(%ebp)
	call	__udivdi3
.LVL540:
	.loc 1 9833 0
	movl	$6606, (%esp)
	movl	-52(%ebp), %edx
	.loc 1 9840 0
	movl	%eax, %esi
.LVL541:
	.loc 1 9833 0
	pushl	$ticker_success_assert
	pushl	%ebx
	andl	$16777215, %esi
	pushl	%edi
	addl	12(%ebx), %edx
	movl	$452807053, %eax
	imull	$7, %esi, %edi
	movl	%esi, -28(%ebp)
.LVL542:
	movzwl	%dx, %edx
	pushl	%edx
	pushl	$0
	mull	%esi
	movl	-40(%ebp), %esi
	addl	%edi, %edx
	movl	-36(%ebp), %edi
	subl	%eax, %esi
	sbbl	%edx, %edi
	subl	$12, %esp
	pushl	$0
	pushl	$1000
	pushl	%edi
	pushl	%esi
	call	__udivdi3
.LVL543:
	addl	$28, %esp
	pushl	%eax
	pushl	-28(%ebp)
	pushl	-48(%ebp)
	pushl	-32(%ebp)
	movl	32(%ebx), %eax
	addl	$7, %eax
	movzbl	%al, %eax
	pushl	%eax
	pushl	$0
	pushl	$0
	call	ticker_start
.LVL544:
	.loc 1 9849 0
	movl	-44(%ebp), %ecx
	addl	$64, %esp
	testl	%ecx, %ecx
	je	.L420
	.loc 1 9850 0
	pushl	%ecx
	pushl	$1
	pushl	$1
	pushl	$0
	call	mayfly_enable
.LVL545:
	addl	$16, %esp
	jmp	.L420
.LVL546:
.L455:
.LBE280:
.LBE274:
.LBE273:
.LBB282:
.LBB283:
	.loc 1 9860 0
	cmpb	$0, 104(%ebx)
	je	.L477
.LBB284:
	.loc 1 9862 0
	subl	$12, %esp
	pushl	$_radio+344
	call	mem_acquire
.LVL547:
	.loc 1 9863 0
	addl	$16, %esp
	testl	%eax, %eax
	je	.L452
.LVL548:
.LBB285:
	.loc 1 9867 0
	movw	38(%ebx), %dx
	movl	-28(%ebp), %edi
	.loc 1 9866 0
	movb	$0, 104(%ebx)
	.loc 1 9867 0
	leal	6(%edi,%edx), %edx
	movw	%dx, 110(%ebx)
	.loc 1 9869 0
	orb	$3, 4(%eax)
	.loc 1 9870 0
	movb	$8, 5(%eax)
	.loc 1 9878 0
	movb	$1, 7(%eax)
	.loc 1 9880 0
	movl	105(%ebx), %edx
	movl	%edx, 8(%eax)
	movb	109(%ebx), %dl
	movb	%dl, 12(%eax)
	.loc 1 9886 0
	movw	110(%ebx), %dx
	.loc 1 9885 0
	movw	%dx, 13(%eax)
	.loc 1 9887 0
	movl	%eax, %edx
	jmp	.L567
.LVL549:
.L477:
.LBE285:
.LBE284:
	.loc 1 9889 0
	movl	-28(%ebp), %eax
	subw	110(%ebx), %ax
	movzwl	%ax, %eax
	cmpl	$32767, %eax
	jg	.L452
	.loc 1 9892 0
	movl	105(%ebx), %edx
	.loc 1 9891 0
	movb	96(%ebx), %al
	.loc 1 9892 0
	movl	%edx, 23(%ebx)
	movb	109(%ebx), %dl
	.loc 1 9891 0
	movb	%al, 97(%ebx)
	.loc 1 9892 0
	leal	23(%ebx), %eax
	movb	%dl, 27(%ebx)
	.loc 1 9896 0
	pushl	%edx
	pushl	%edx
	pushl	$5
	pushl	%eax
	call	util_ones_count_get
.LVL550:
	.loc 1 9895 0
	movb	29(%ebx), %dl
	andl	$63, %eax
	.loc 1 9898 0
	movb	$1, 28(%ebx)
	.loc 1 9895 0
	andl	$-64, %edx
	orl	%edx, %eax
	movb	%al, 29(%ebx)
	jmp	.L566
.LVL551:
.L456:
.LBE283:
.LBE282:
.LBB286:
.LBB287:
	.loc 1 9934 0
	cmpb	$0, 104(%ebx)
	jne	.L452
	.loc 1 9937 0
	subl	$12, %esp
	pushl	$_radio+344
	call	mem_acquire
.LVL552:
	.loc 1 9938 0
	addl	$16, %esp
	testl	%eax, %eax
	.loc 1 9937 0
	movl	%eax, %esi
.LVL553:
	.loc 1 9938 0
	je	.L452
	.loc 1 9942 0
	cmpb	$0, 29(%ebx)
	.loc 1 9941 0
	leal	4(%eax), %edx
.LVL554:
	.loc 1 9942 0
	js	.L478
	.loc 1 9943 0
	leal	225(%ebx), %eax
.LVL555:
	movl	%edx, -44(%ebp)
	pushl	%eax
	.loc 1 9944 0
	leal	132(%ebx), %eax
	.loc 1 9943 0
	pushl	$0
	pushl	%eax
	leal	116(%ebx), %eax
	pushl	%eax
	call	ecb_encrypt
.LVL556:
	.loc 1 9947 0
	movl	225(%ebx), %eax
	.loc 1 9949 0
	movl	254(%ebx), %edx
	.loc 1 9953 0
	andb	$-2, 249(%ebx)
	.loc 1 9954 0
	orb	$1, 282(%ebx)
	.loc 1 9951 0
	movl	$0, 241(%ebx)
	movl	$0, 245(%ebx)
	.loc 1 9947 0
	movl	%eax, 258(%ebx)
	movl	229(%ebx), %eax
	movl	%eax, 262(%ebx)
	movl	233(%ebx), %eax
	.loc 1 9955 0
	orb	$16, 224(%ebx)
	.loc 1 9949 0
	movl	%edx, 287(%ebx)
	.loc 1 9956 0
	movl	-44(%ebp), %edx
	.loc 1 9952 0
	movl	$0, 274(%ebx)
	.loc 1 9947 0
	movl	%eax, 266(%ebx)
	movl	237(%ebx), %eax
	.loc 1 9952 0
	movl	$0, 278(%ebx)
	.loc 1 9947 0
	movl	%eax, 270(%ebx)
	.loc 1 9949 0
	movl	250(%ebx), %eax
	movl	%eax, 283(%ebx)
	.loc 1 9956 0
	movl	%ebx, %eax
	call	start_enc_rsp_send
.LVL557:
	addl	$16, %esp
	jmp	.L479
.LVL558:
.L478:
	.loc 1 9958 0
	movb	224(%ebx), %al
.LVL559:
	andl	$72, %eax
	cmpb	$8, %al
	je	.L480
	.loc 1 9959 0
	cmpb	$0, 105(%ebx)
	je	.L481
.LVL560:
.LBB288:
.LBB289:
	.loc 1 9904 0
	orb	$3, 4(%esi)
	.loc 1 9905 0
	testb	$32, 60(%ebx)
	je	.L482
	testb	$4, 148(%ebx)
	je	.L482
.LBB290:
	.loc 1 9908 0
	movb	$17, 7(%esi)
.LVL561:
	.loc 1 9911 0
	movb	$3, 8(%esi)
	.loc 1 9912 0
	movb	105(%ebx), %al
	.loc 1 9913 0
	movb	$2, 5(%esi)
	.loc 1 9912 0
	movb	%al, 9(%esi)
	jmp	.L483
.LVL562:
.L482:
.LBE290:
.LBB291:
	.loc 1 9916 0
	movb	$13, 7(%esi)
.LVL563:
	.loc 1 9918 0
	movb	105(%ebx), %al
	.loc 1 9919 0
	movb	$1, 5(%esi)
	.loc 1 9918 0
	movb	%al, 8(%esi)
.LVL564:
.L483:
.LBE291:
	.loc 1 9921 0
	incb	5(%esi)
	.loc 1 9928 0
	movb	$0, 105(%ebx)
	jmp	.L479
.LVL565:
.L481:
.LBE289:
.LBE288:
.LBB292:
.LBB293:
.LBB294:
	.loc 1 11211 0
	subl	$12, %esp
	pushl	$_radio+344
	call	mem_acquire
.LVL566:
	.loc 1 11212 0
	addl	$16, %esp
	testl	%eax, %eax
	.loc 1 11211 0
	movl	%eax, %edi
.LVL567:
	.loc 1 11212 0
	je	.L484
.LVL568:
	.loc 1 11216 0
	orb	$3, 4(%eax)
	.loc 1 11217 0
	movb	$13, 5(%eax)
	.loc 1 11226 0
	leal	8(%eax), %eax
.LVL569:
	.loc 1 11224 0
	movb	$4, -1(%eax)
	.loc 1 11225 0
	pushl	%edx
	pushl	%edx
	pushl	%eax
	pushl	$8
	call	rand_isr_get
.LVL570:
	.loc 1 11227 0
	popl	%ecx
	popl	%eax
	.loc 1 11228 0
	leal	16(%edi), %eax
	.loc 1 11227 0
	pushl	%eax
	pushl	$4
	call	rand_isr_get
.LVL571:
	.loc 1 11229 0
	movl	8(%edi), %eax
	movl	12(%edi), %edx
	movl	%eax, 140(%ebx)
	movl	%edx, 144(%ebx)
	.loc 1 11233 0
	movl	%edi, %edx
	.loc 1 11231 0
	movl	16(%edi), %eax
	movl	%eax, 254(%ebx)
	.loc 1 11233 0
	movl	%ebx, %eax
	call	ctrl_tx_enqueue
.LVL572:
.LBE294:
.LBE293:
	.loc 1 9969 0
	leal	225(%ebx), %eax
	pushl	%eax
	.loc 1 9970 0
	leal	132(%ebx), %eax
	.loc 1 9969 0
	pushl	$0
	pushl	%eax
	leal	116(%ebx), %eax
	pushl	%eax
	call	ecb_encrypt
.LVL573:
	.loc 1 9974 0
	movl	225(%ebx), %eax
	.loc 1 9977 0
	movl	254(%ebx), %edx
	.loc 1 9992 0
	addl	$32, %esp
	.loc 1 9981 0
	orb	$1, 249(%ebx)
	.loc 1 9982 0
	andb	$-2, 282(%ebx)
	.loc 1 9979 0
	movl	$0, 241(%ebx)
	movl	$0, 245(%ebx)
	.loc 1 9974 0
	movl	%eax, 258(%ebx)
	movl	229(%ebx), %eax
	movl	%eax, 262(%ebx)
	movl	233(%ebx), %eax
	.loc 1 9983 0
	orb	$16, 224(%ebx)
	.loc 1 9977 0
	movl	%edx, 287(%ebx)
	.loc 1 9980 0
	movl	$0, 274(%ebx)
	movl	$0, 278(%ebx)
	.loc 1 9974 0
	movl	%eax, 266(%ebx)
	movl	237(%ebx), %eax
	movl	%eax, 270(%ebx)
	.loc 1 9977 0
	movl	250(%ebx), %eax
	movl	%eax, 283(%ebx)
	.loc 1 9985 0
	movb	$1, 5(%esi)
	.loc 1 9984 0
	orb	$3, 4(%esi)
	.loc 1 9992 0
	movb	$5, 7(%esi)
	jmp	.L479
.LVL574:
.L480:
.LBE292:
	.loc 1 9996 0
	movl	_radio+276, %eax
	call	start_enc_rsp_send
.LVL575:
	.loc 1 9997 0
	movl	_radio+276, %eax
	.loc 1 9998 0
	andb	$-13, 224(%eax)
.L479:
	.loc 1 10000 0
	movl	%ebx, %eax
	movl	%esi, %edx
	call	ctrl_tx_enqueue
.LVL576:
	.loc 1 10001 0
	movb	96(%ebx), %al
	movb	%al, 97(%ebx)
	jmp	.L452
.LVL577:
.L457:
.LBE287:
.LBE286:
.LBB297:
.LBB298:
	.loc 1 10006 0
	subl	$12, %esp
	pushl	$_radio+344
	call	mem_acquire
.LVL578:
	.loc 1 10007 0
	addl	$16, %esp
	testl	%eax, %eax
	.loc 1 10006 0
	movl	%eax, %edx
.LVL579:
	.loc 1 10007 0
	je	.L452
.LVL580:
.LBB299:
	.loc 1 10010 0
	movb	96(%ebx), %al
.LVL581:
	.loc 1 10011 0
	movl	$81935, 148(%ebx)
	.loc 1 10025 0
	leal	8(%edx), %esi
	movl	$2, %ecx
	movl	%esi, %edi
	.loc 1 10010 0
	movb	%al, 97(%ebx)
	.loc 1 10012 0
	orb	$3, 4(%edx)
	.loc 1 10013 0
	movb	$9, 5(%edx)
	.loc 1 10021 0
	movb	29(%ebx), %al
	andl	$-128, %eax
	cmpb	$1, %al
	sbbl	%eax, %eax
	andl	$-6, %eax
	addl	$14, %eax
	movb	%al, 7(%edx)
	.loc 1 10025 0
	xorl	%eax, %eax
	rep stosl
	.loc 1 10028 0
	movl	148(%ebx), %eax
	movb	%al, 8(%edx)
	.loc 1 10030 0
	movl	148(%ebx), %eax
	shrl	$8, %eax
	movb	%al, 9(%edx)
	.loc 1 10032 0
	movzwl	150(%ebx), %eax
	movb	%al, 10(%edx)
	jmp	.L568
.LVL582:
.L458:
.LBE299:
.LBE298:
.LBE297:
.LBB300:
.LBB301:
	.loc 1 10040 0
	movb	152(%ebx), %al
	testb	$1, %al
	jne	.L486
.LBB302:
	.loc 1 10042 0
	subl	$12, %esp
	pushl	$_radio+344
	call	mem_acquire
.LVL583:
	.loc 1 10043 0
	addl	$16, %esp
	testl	%eax, %eax
	je	.L452
.LVL584:
.LBB303:
	.loc 1 10046 0
	movb	96(%ebx), %dl
	.loc 1 10047 0
	orb	$1, 152(%ebx)
	.loc 1 10046 0
	movb	%dl, 97(%ebx)
	.loc 1 10065 0
	movl	%eax, %edx
	.loc 1 10048 0
	orb	$3, 4(%eax)
	.loc 1 10049 0
	movb	$6, 5(%eax)
	.loc 1 10057 0
	movb	$12, 7(%eax)
	.loc 1 10059 0
	movb	$9, 8(%eax)
	.loc 1 10061 0
	movw	$-1, 9(%eax)
	.loc 1 10063 0
	movw	$-1, 11(%eax)
.LVL585:
.L568:
	.loc 1 10065 0
	movl	%ebx, %eax
	call	ctrl_tx_enqueue
.LVL586:
	.loc 1 10066 0
	movw	54(%ebx), %ax
	movw	%ax, 56(%ebx)
	jmp	.L452
.LVL587:
.L486:
.LBE303:
.LBE302:
	.loc 1 10068 0
	testb	$2, %al
	je	.L452
.LBB304:
	.loc 1 10071 0
	movb	96(%ebx), %al
	movb	%al, 97(%ebx)
	.loc 1 10072 0
	movl	$2, %eax
	call	packet_rx_reserve_get
.LVL588:
	.loc 1 10074 0
	movl	32(%ebx), %edx
	.loc 1 10077 0
	orb	$3, 12(%eax)
	.loc 1 10078 0
	movb	$6, 13(%eax)
	.loc 1 10086 0
	movb	$12, 15(%eax)
	.loc 1 10075 0
	movl	$1, 4(%eax)
.LVL589:
	.loc 1 10074 0
	movw	%dx, 8(%eax)
	.loc 1 10089 0
	movb	153(%ebx), %dl
	.loc 1 10088 0
	movb	%dl, 16(%eax)
	.loc 1 10091 0
	movw	154(%ebx), %dx
	.loc 1 10090 0
	movw	%dx, 17(%eax)
	.loc 1 10093 0
	movl	156(%ebx), %edx
	.loc 1 10092 0
	movw	%dx, 19(%eax)
	jmp	.L569
.LVL590:
.L459:
.LBE304:
.LBE301:
.LBE300:
.LBB305:
.LBB306:
	.loc 1 10373 0
	movb	104(%ebx), %dl
	testb	$1, %dl
	je	.L487
.LBB307:
	.loc 1 10375 0
	subl	$12, %esp
	pushl	$_radio+344
	call	mem_acquire
.LVL591:
	.loc 1 10376 0
	addl	$16, %esp
	testl	%eax, %eax
	.loc 1 10375 0
	movl	%eax, %esi
.LVL592:
	.loc 1 10376 0
	je	.L452
.LVL593:
.LBB308:
	.loc 1 10380 0
	movb	104(%ebx), %cl
	movb	%cl, %al
.LVL594:
	andl	$-2, %eax
	.loc 1 10381 0
	movb	%al, %dl
	.loc 1 10380 0
	movb	%al, 104(%ebx)
	.loc 1 10382 0
	shrb	$5, %al
	.loc 1 10381 0
	shrb	$2, %dl
	andl	$7, %edx
	orb	%al, %dl
	jne	.L488
	.loc 1 10383 0
	movb	96(%ebx), %al
	.loc 1 10385 0
	andb	$2, %cl
	.loc 1 10384 0
	movw	$0, 106(%ebx)
	.loc 1 10383 0
	movb	%al, 97(%ebx)
	.loc 1 10385 0
	je	.L489
.LBB309:
	.loc 1 10389 0
	movl	$2, %eax
	call	packet_rx_reserve_get
.LVL595:
	.loc 1 10391 0
	movl	32(%ebx), %edx
	.loc 1 10392 0
	movl	$8, 4(%eax)
.LVL596:
	.loc 1 10396 0
	movb	$0, 15(%eax)
	.loc 1 10391 0
	movw	%dx, 8(%eax)
	.loc 1 10397 0
	movb	44(%ebx), %dl
	shrb	$3, %dl
	andl	$7, %edx
	movb	%dl, 16(%eax)
	.loc 1 10398 0
	movb	46(%ebx), %dl
	andl	$7, %edx
	movb	%dl, 17(%eax)
	.loc 1 10399 0
	call	packet_rx_enqueue
.LVL597:
	jmp	.L489
.L488:
.LBE309:
	.loc 1 10402 0
	movw	38(%ebx), %ax
	movl	-28(%ebp), %edi
	leal	6(%edi,%eax), %eax
	movw	%ax, 106(%ebx)
.L489:
	.loc 1 10406 0
	orb	$3, 4(%esi)
	.loc 1 10407 0
	movb	$5, 5(%esi)
	.loc 1 10421 0
	movl	%esi, %edx
	.loc 1 10415 0
	movb	$24, 7(%esi)
.LVL598:
	.loc 1 10418 0
	movb	104(%ebx), %al
	shrb	$2, %al
	andl	$7, %eax
	movb	%al, 8(%esi)
	.loc 1 10419 0
	movb	104(%ebx), %al
	shrb	$5, %al
	movb	%al, 9(%esi)
	.loc 1 10420 0
	movw	106(%ebx), %ax
	movw	%ax, 10(%esi)
.LVL599:
.L567:
	.loc 1 10421 0
	movl	%ebx, %eax
	call	ctrl_tx_enqueue
.LVL600:
	jmp	.L452
.LVL601:
.L487:
.LBE308:
.LBE307:
	.loc 1 10423 0
	movl	-28(%ebp), %eax
	subw	106(%ebx), %ax
	movzwl	%ax, %eax
	cmpl	$32767, %eax
	jg	.L452
.LBB310:
	.loc 1 10430 0
	movl	44(%ebx), %esi
	.loc 1 10431 0
	movzbl	46(%ebx), %edi
	.loc 1 10429 0
	movb	96(%ebx), %al
	.loc 1 10430 0
	movl	%esi, %ecx
	shrb	$3, %cl
	.loc 1 10431 0
	andl	$7, %edi
	.loc 1 10429 0
	movb	%al, 97(%ebx)
	.loc 1 10430 0
	andl	$7, %ecx
.LVL602:
	.loc 1 10432 0
	testb	$28, %dl
	je	.L490
	.loc 1 10433 0
	leal	(%edx,%edx), %eax
	andl	$-57, %esi
	andl	$56, %eax
	orl	%esi, %eax
	movb	%al, 44(%ebx)
.L490:
	.loc 1 10435 0
	testb	$-32, %dl
	je	.L491
	.loc 1 10436 0
	movzbl	46(%ebx), %esi
	movb	104(%ebx), %al
	shrb	$5, %al
	andl	$-8, %esi
	orl	%esi, %eax
	movb	%al, 46(%ebx)
.LVL603:
.L491:
	.loc 1 10438 0
	movb	44(%ebx), %al
	movl	44(%ebx), %esi
	shrb	$6, %al
	andl	$127, %esi
	sall	$7, %eax
	orl	%esi, %eax
	.loc 1 10439 0
	andb	$2, %dl
	.loc 1 10438 0
	movb	%al, 44(%ebx)
	.loc 1 10439 0
	jne	.L492
	shrb	$3, %al
	andl	$7, %eax
	cmpb	%al, %cl
	jne	.L492
	.loc 1 10440 0
	movb	46(%ebx), %al
	.loc 1 10439 0
	movl	%edi, %ecx
.LVL604:
	.loc 1 10440 0
	andl	$7, %eax
	.loc 1 10439 0
	cmpb	%al, %cl
	je	.L452
.L492:
	.loc 1 10443 0
	movl	$2, %eax
	call	packet_rx_reserve_get
.LVL605:
	.loc 1 10445 0
	movl	32(%ebx), %edx
	.loc 1 10446 0
	movl	$8, 4(%eax)
.LVL606:
	.loc 1 10449 0
	movb	$0, 15(%eax)
	.loc 1 10445 0
	movw	%dx, 8(%eax)
	.loc 1 10450 0
	movb	44(%ebx), %dl
	shrb	$3, %dl
	andl	$7, %edx
	movb	%dl, 16(%eax)
	.loc 1 10451 0
	movb	46(%ebx), %dl
	andl	$7, %edx
	movb	%dl, 17(%eax)
.LVL607:
.L569:
	.loc 1 10452 0
	call	packet_rx_enqueue
.LVL608:
.L452:
.LBE310:
.LBE306:
.LBE305:
	.loc 1 10514 0
	movb	160(%ebx), %al
	cmpb	%al, 161(%ebx)
	je	.L494
.LBB311:
	.loc 1 10516 0
	pushl	$5
	pushl	$0
	pushl	$0
	pushl	$0
	call	event_stop
.LVL609:
	.loc 1 10517 0
	movl	$_radio+344, (%esp)
	call	mem_acquire
.LVL610:
	.loc 1 10518 0
	addl	$16, %esp
	testl	%eax, %eax
	je	.L494
.LVL611:
.LBB312:
	.loc 1 10521 0
	movb	160(%ebx), %dl
	movb	%dl, 161(%ebx)
	.loc 1 10522 0
	orb	$3, 4(%eax)
	.loc 1 10523 0
	movb	$2, 5(%eax)
	.loc 1 10531 0
	movb	$2, 7(%eax)
	.loc 1 10534 0
	movb	162(%ebx), %dl
	movb	%dl, 8(%eax)
	.loc 1 10535 0
	movl	%eax, %edx
	movl	%ebx, %eax
.LVL612:
	call	ctrl_tx_enqueue
.LVL613:
	.loc 1 10536 0
	movw	50(%ebx), %ax
	.loc 1 10537 0
	cmpw	$1, %ax
	ja	.L570
	.loc 1 10538 0
	incl	%eax
.L570:
	movw	%ax, 56(%ebx)
.L494:
.LBE312:
.LBE311:
	.loc 1 10542 0
	cmpb	$0, 29(%ebx)
	movl	$event_master, %edx
	movl	$event_slave, %eax
	movl	%ebx, %ecx
	cmovns	%edx, %eax
	subl	$12, %esp
	movl	-40(%ebp), %edx
	pushl	%ebx
	pushl	%eax
	movb	32(%ebx), %al
	addl	$7, %eax
	movzbl	%al, %eax
	pushl	%eax
	leal	4(%ebx), %eax
	pushl	8(%ebx)
	pushl	%eax
	movl	-32(%ebp), %eax
	call	event_common_prepare
.LVL614:
	.loc 1 10549 0
	movl	-28(%ebp), %ecx
	addl	$32, %esp
	incl	%ecx
	movw	%cx, 34(%ebx)
	jmp	.L420
.LVL615:
.L484:
.LBB313:
.LBB296:
.LBB295:
	.loc 1 9966 0
	pushl	%eax
	pushl	%eax
	pushl	$_radio+344
	pushl	%esi
	call	mem_release
.LVL616:
.L566:
	addl	$16, %esp
	jmp	.L452
.L420:
.LBE295:
.LBE296:
.LBE313:
	.loc 1 10550 0
	leal	-12(%ebp), %esp
	popl	%ebx
	.cfi_restore 3
	popl	%esi
	.cfi_restore 6
	popl	%edi
	.cfi_restore 7
	popl	%ebp
	.cfi_restore 5
	.cfi_def_cfa 4, 4
	ret
	.cfi_endproc
.LFE280:
	.size	event_connection_prepare, .-event_connection_prepare
	.section	.text.unlikely.event_connection_prepare
.LCOLDE54:
	.section	.text.event_connection_prepare
.LHOTE54:
	.section	.text.unlikely.event_master_prepare,"ax",@progbits
.LCOLDB55:
	.section	.text.event_master_prepare,"ax",@progbits
.LHOTB55:
	.type	event_master_prepare, @function
event_master_prepare:
.LFB284:
	.loc 1 10652 0
	.cfi_startproc
.LVL617:
	pushl	%ebp
	.cfi_def_cfa_offset 8
	.cfi_offset 5, -8
	movl	%esp, %ebp
	.cfi_def_cfa_register 5
	.loc 1 10654 0
	movl	20(%ebp), %edx
	.loc 1 10652 0
	movl	8(%ebp), %eax
	.loc 1 10654 0
	movzwl	16(%ebp), %ecx
	movl	%edx, 8(%ebp)
.LVL618:
	movl	12(%ebp), %edx
	.loc 1 10656 0
	popl	%ebp
	.cfi_restore 5
	.cfi_def_cfa 4, 4
	.loc 1 10654 0
	jmp	event_connection_prepare
.LVL619:
	.cfi_endproc
.LFE284:
	.size	event_master_prepare, .-event_master_prepare
	.section	.text.unlikely.event_master_prepare
.LCOLDE55:
	.section	.text.event_master_prepare
.LHOTE55:
	.section	.text.unlikely.event_slave_prepare,"ax",@progbits
.LCOLDB56:
	.section	.text.event_slave_prepare,"ax",@progbits
.LHOTB56:
	.type	event_slave_prepare, @function
event_slave_prepare:
.LFB369:
	.cfi_startproc
	pushl	%ebp
	.cfi_def_cfa_offset 8
	.cfi_offset 5, -8
	movl	%esp, %ebp
	.cfi_def_cfa_register 5
	movl	20(%ebp), %edx
	movl	8(%ebp), %eax
	movzwl	16(%ebp), %ecx
	movl	%edx, 8(%ebp)
	movl	12(%ebp), %edx
	popl	%ebp
	.cfi_restore 5
	.cfi_def_cfa 4, 4
	jmp	event_connection_prepare
	.cfi_endproc
.LFE369:
	.size	event_slave_prepare, .-event_slave_prepare
	.section	.text.unlikely.event_slave_prepare
.LCOLDE56:
	.section	.text.event_slave_prepare
.LHOTE56:
	.section	.text.unlikely.connection_configure,"ax",@progbits
.LCOLDB57:
	.section	.text.connection_configure,"ax",@progbits
.LHOTB57:
	.type	connection_configure, @function
connection_configure:
.LFB281:
	.loc 1 10552 0
	.cfi_startproc
.LVL620:
	.loc 1 10552 0
	pushl	%ebp
	.cfi_def_cfa_offset 8
	.cfi_offset 5, -8
	movl	%esp, %ebp
	.cfi_def_cfa_register 5
	pushl	%ebx
	pushl	%edx
	.cfi_offset 3, -12
	.loc 1 10552 0
	movl	%eax, %ebx
.LBB316:
.LBB317:
	.loc 1 9277 0
	call	radio_reset
.LVL621:
	.loc 1 9278 0
	subl	$12, %esp
	pushl	$0
	call	radio_tx_power_set
.LVL622:
	.loc 1 9279 0
	movl	$isr, (%esp)
	call	radio_isr_set
.LVL623:
.LBE317:
.LBE316:
	.loc 1 10554 0
	leal	16(%ebx), %eax
	movl	%eax, (%esp)
	call	radio_aa_set
.LVL624:
	.loc 1 10555 0
	movzbl	22(%ebx), %edx
	popl	%ecx
	popl	%eax
	movl	%edx, %eax
	movzbl	21(%ebx), %edx
	sall	$16, %eax
	sall	$8, %edx
	orl	%eax, %edx
	movzbl	20(%ebx), %eax
	orl	%eax, %edx
	pushl	%edx
	pushl	$1627
	call	radio_crc_configure
.LVL625:
	.loc 1 10559 0
	addl	$16, %esp
	movl	-4(%ebp), %ebx
.LVL626:
	leave
	.cfi_restore 5
	.cfi_restore 3
	.cfi_def_cfa 4, 4
	ret
	.cfi_endproc
.LFE281:
	.size	connection_configure, .-connection_configure
	.section	.text.unlikely.connection_configure
.LCOLDE57:
	.section	.text.connection_configure
.LHOTE57:
	.section	.text.unlikely.event_slave,"ax",@progbits
.LCOLDB58:
	.section	.text.event_slave,"ax",@progbits
.LHOTB58:
	.type	event_slave, @function
event_slave:
.LFB283:
	.loc 1 10569 0
	.cfi_startproc
.LVL627:
	pushl	%ebp
	.cfi_def_cfa_offset 8
	.cfi_offset 5, -8
	movl	%esp, %ebp
	.cfi_def_cfa_register 5
	pushl	%edi
	pushl	%esi
	pushl	%ebx
	subl	$28, %esp
	.cfi_offset 7, -12
	.cfi_offset 6, -16
	.cfi_offset 3, -20
	.loc 1 10569 0
	movl	20(%ebp), %ebx
	.loc 1 10577 0
	movl	_radio+16, %eax
.LVL628:
	.loc 1 10579 0
	movb	_radio+12, %al
	.loc 1 10581 0
	movl	$3, _radio+16
	.loc 1 10583 0
	movb	$0, _radio+12
	.loc 1 10569 0
	movl	8(%ebp), %edi
	.loc 1 10584 0
	movb	32(%ebx), %al
	.loc 1 10587 0
	movb	$0, _radio+280
	.loc 1 10588 0
	movb	$0, _radio+281
	.loc 1 10589 0
	movl	%ebx, _radio+276
	.loc 1 10582 0
	movl	$1, _radio+20
	.loc 1 10586 0
	movl	%edi, _radio+4
	.loc 1 10584 0
	addl	$7, %eax
	movb	%al, _radio+13
	.loc 1 10590 0
	movl	40(%ebx), %eax
	.loc 1 10591 0
	movw	$0, 40(%ebx)
	.loc 1 10590 0
	movw	%ax, 42(%ebx)
	.loc 1 10592 0
	movl	%ebx, %eax
	call	connection_configure
.LVL629:
	.loc 1 10593 0
	subl	$12, %esp
	pushl	$150
	call	radio_tmr_tifs_set
.LVL630:
	.loc 1 10595 0
	movb	44(%ebx), %al
	movb	%al, %dl
	.loc 1 10594 0
	shrb	$3, %al
	.loc 1 10595 0
	shrb	$7, %dl
	.loc 1 10594 0
	andl	$7, %eax
	movzbl	%dl, %edx
	pushl	%edx
	pushl	%eax
	pushl	$0
	movb	46(%ebx), %al
	andl	$7, %eax
	pushl	%eax
	call	radio_switch_complete_and_tx
.LVL631:
	.loc 1 10597 0
	movzbl	_radio+317, %eax
	movl	_radio+312, %edx
	.loc 1 10596 0
	addl	$32, %esp
	.loc 1 10597 0
	movl	(%edx,%eax,4), %edx
	.loc 1 10596 0
	movl	%ebx, %eax
	.loc 1 10597 0
	addl	$12, %edx
	.loc 1 10596 0
	call	rx_packet_set
.LVL632:
	.loc 1 10598 0
	movzbl	29(%ebx), %esi
	leal	23(%ebx), %eax
	movl	%eax, -28(%ebp)
	testl	$64, %esi
	je	.L578
	.loc 1 10599 0
	movw	34(%ebx), %ax
	movzwl	30(%ebx), %edx
	subl	$12, %esp
	andl	$63, %esi
	leal	23(%ebx), %ecx
	pushl	%esi
	decl	%eax
	movzwl	%ax, %eax
	call	chan_sel_2
.LVL633:
	addl	$16, %esp
.LVL634:
	jmp	.L579
.LVL635:
.L578:
	.loc 1 10608 0
	movl	%esi, %eax
.LBB324:
.LBB325:
	.loc 1 9126 0
	movzbl	30(%ebx), %edx
	movzbl	31(%ebx), %esi
.LBE325:
.LBE324:
	.loc 1 10608 0
	andl	$63, %eax
	movb	%al, -28(%ebp)
.LVL636:
.LBB328:
.LBB327:
	.loc 1 9126 0
	movzwl	42(%ebx), %eax
.LVL637:
	incl	%eax
	imull	%edx, %eax
	addl	%esi, %eax
	movl	$37, %esi
	cltd
	idivl	%esi
	.loc 1 9128 0
	movl	%edx, %esi
	.loc 1 9127 0
	movb	%dl, 31(%ebx)
	.loc 1 9126 0
	movb	%dl, %al
.LVL638:
	.loc 1 9128 0
	shrl	$3, %esi
	movzbl	23(%ebx,%esi), %ecx
	movl	%edx, %esi
	andl	$7, %esi
	btl	%esi, %ecx
	jc	.L579
.LVL639:
.LBB326:
	.loc 1 9131 0
	movzbl	%dl, %eax
.LVL640:
	divb	-28(%ebp)
	movzbl	%ah, %edx
.LVL641:
	leal	23(%ebx), %eax
	call	chan_sel_remap
.LVL642:
.L579:
.LBE326:
.LBE327:
.LBE328:
	.loc 1 10610 0
	movzbl	%al, %eax
	call	chan_set
.LVL643:
	.loc 1 10611 0
	movl	72(%ebx), %eax
	addl	76(%ebx), %eax
	.loc 1 10615 0
	movl	68(%ebx), %edx
	.loc 1 10613 0
	movl	$0, 72(%ebx)
	.loc 1 10614 0
	cmpl	%edx, %eax
	.loc 1 10611 0
	movl	%eax, 76(%ebx)
	.loc 1 10614 0
	jbe	.L580
	.loc 1 10616 0
	movl	%edx, 76(%ebx)
.L580:
	.loc 1 10619 0
	movl	80(%ebx), %eax
	addl	%eax, 84(%ebx)
	.loc 1 10622 0
	leal	9(%edi), %eax
	.loc 1 10621 0
	movl	$0, 80(%ebx)
	.loc 1 10622 0
	pushl	%edx
	pushl	_radio+8
	pushl	%eax
	pushl	$0
	call	radio_tmr_start
.LVL644:
	movl	%eax, %esi
.LVL645:
	.loc 1 10626 0
	call	radio_tmr_aa_capture
.LVL646:
	.loc 1 10627 0
	movl	$0, (%esp)
	call	radio_tmr_aa_save
.LVL647:
	.loc 1 10628 0
	movl	76(%ebx), %edx
	movl	84(%ebx), %eax
	addl	%edx, %eax
	leal	80(%eax,%edx), %eax
	addl	%eax, %esi
.LVL648:
	.loc 1 10632 0
	movb	46(%ebx), %al
	andl	$7, %eax
	movl	%eax, (%esp)
	call	radio_rx_ready_delay_get
.LVL649:
	.loc 1 10633 0
	movb	46(%ebx), %cl
	.loc 1 10632 0
	addl	%esi, %eax
.LVL650:
.LBB329:
.LBB330:
	.loc 1 6872 0
	addl	$16, %esp
	.loc 1 6877 0
	movl	$24, %edx
.LBE330:
.LBE329:
	.loc 1 10633 0
	andl	$7, %ecx
.LBB333:
.LBB331:
	.loc 1 6872 0
	cmpb	$2, %cl
.LBE331:
.LBE333:
	.loc 1 10633 0
	movzbl	%cl, %esi
.LVL651:
.LBB334:
.LBB332:
	.loc 1 6872 0
	je	.L581
	.loc 1 6875 0
	cmpb	$4, %cl
	movl	$40, %edx
	movl	$376, %ecx
.LVL652:
	cmove	%ecx, %edx
.L581:
.LVL653:
.LBE332:
.LBE334:
	.loc 1 10633 0
	leal	(%eax,%edx), %ebx
.LVL654:
	.loc 1 10634 0
	pushl	%eax
	pushl	%eax
	pushl	$1
	pushl	%esi
	call	radio_rx_chain_delay_get
.LVL655:
	.loc 1 10635 0
	leal	(%ebx,%eax), %edx
.LVL656:
	movl	%edx, (%esp)
	call	radio_tmr_hcto_configure
.LVL657:
.LBB335:
	.loc 1 10638 0
	pushl	$0
	pushl	$ticker_job_disable
	pushl	$0
	pushl	$0
	call	ticker_job_idle_get
.LVL658:
.LBE335:
	.loc 1 10647 0
	addl	$32, %esp
	.loc 1 10649 0
	leal	-12(%ebp), %esp
	.loc 1 10647 0
	movl	$2, %eax
	.loc 1 10649 0
	popl	%ebx
	.cfi_restore 3
	popl	%esi
	.cfi_restore 6
	popl	%edi
	.cfi_restore 7
	popl	%ebp
	.cfi_restore 5
	.cfi_def_cfa 4, 4
	.loc 1 10647 0
	jmp	packet_tx_enqueue
.LVL659:
	.cfi_endproc
.LFE283:
	.size	event_slave, .-event_slave
	.section	.text.unlikely.event_slave
.LCOLDE58:
	.section	.text.event_slave
.LHOTE58:
	.section	.text.unlikely.prepare_pdu_data_tx,"ax",@progbits
.LCOLDB59:
	.section	.text.prepare_pdu_data_tx,"ax",@progbits
.LHOTB59:
	.type	prepare_pdu_data_tx, @function
prepare_pdu_data_tx:
.LFB288:
	.loc 1 10757 0
	.cfi_startproc
.LVL660:
	pushl	%ebp
	.cfi_def_cfa_offset 8
	.cfi_offset 5, -8
	movl	%esp, %ebp
	.cfi_def_cfa_register 5
	pushl	%esi
	.cfi_offset 6, -12
	movl	%edx, %esi
	pushl	%ebx
	.cfi_offset 3, -16
	.loc 1 10760 0
	movb	224(%eax), %dl
.LVL661:
	.loc 1 10757 0
	movl	%eax, %ebx
	.loc 1 10759 0
	testb	%dl, %dl
	js	.L587
	.loc 1 10761 0
	movl	292(%eax), %eax
.LVL662:
	.loc 1 10760 0
	testl	%eax, %eax
	je	.L587
	.loc 1 10761 0
	andb	$8, %dl
	je	.L588
	.loc 1 10762 0
	cmpl	296(%ebx), %eax
	je	.L588
.L587:
.LVL663:
.LBB339:
.LBB340:
	.loc 1 10914 0
	orb	$-128, 224(%ebx)
	.loc 1 10915 0
	call	radio_pkt_empty_get
.LVL664:
	.loc 1 10916 0
	movb	(%eax), %dl
	.loc 1 10917 0
	movb	$0, 1(%eax)
	.loc 1 10916 0
	andl	$-4, %edx
	movb	%dl, %cl
	orl	$1, %ecx
	movb	%cl, (%eax)
	.loc 1 10918 0
	cmpl	$0, 292(%ebx)
	je	.L589
	.loc 1 10919 0
	orl	$17, %edx
	movb	%dl, (%eax)
	jmp	.L590
.L589:
	.loc 1 10921 0
	andl	$-17, %ecx
	movb	%cl, (%eax)
	jmp	.L590
.LVL665:
.L588:
.LBE340:
.LBE339:
.LBB341:
	.loc 1 10767 0
	movzbl	313(%ebx), %edx
	.loc 1 10768 0
	cmpb	$0, 312(%ebx)
	.loc 1 10767 0
	movl	%edx, %ecx
	.loc 1 10766 0
	leal	4(%eax,%edx), %eax
.LVL666:
	.loc 1 10768 0
	jne	.L591
	.loc 1 10769 0
	movb	1(%eax), %dl
	movb	%dl, 312(%ebx)
.L591:
	.loc 1 10771 0
	testb	%cl, %cl
	je	.L592
	.loc 1 10772 0
	movb	(%eax), %dl
	andl	$-4, %edx
	orl	$1, %edx
	movb	%dl, (%eax)
.L592:
	.loc 1 10774 0
	movb	312(%ebx), %dl
	subb	313(%ebx), %dl
	.loc 1 10776 0
	movb	(%eax), %cl
	andl	$-17, %ecx
	.loc 1 10778 0
	cmpb	$27, %dl
	.loc 1 10774 0
	movb	%dl, 1(%eax)
	.loc 1 10776 0
	movb	%cl, (%eax)
.LVL667:
	.loc 1 10778 0
	jbe	.L593
	.loc 1 10780 0
	orl	$16, %ecx
	.loc 1 10779 0
	movb	$27, 1(%eax)
	.loc 1 10780 0
	movb	%cl, (%eax)
.L593:
	.loc 1 10782 0
	movl	292(%ebx), %edx
	cmpl	$0, (%edx)
	je	.L594
	.loc 1 10783 0
	orb	$16, (%eax)
.L594:
	.loc 1 10785 0
	cmpl	$0, 296(%ebx)
	jne	.L590
	.loc 1 10786 0 discriminator 1
	movl	292(%ebx), %edx
	.loc 1 10785 0 discriminator 1
	cmpl	304(%ebx), %edx
	je	.L590
	.loc 1 10787 0
	movl	%edx, 300(%ebx)
	movl	%edx, 296(%ebx)
.LVL668:
.L590:
.LBE341:
	.loc 1 10791 0
	andb	$31, (%eax)
	.loc 1 10792 0
	movb	$0, 2(%eax)
	.loc 1 10793 0
	movl	%eax, (%esi)
	.loc 1 10794 0
	popl	%ebx
	.cfi_restore 3
.LVL669:
	popl	%esi
	.cfi_restore 6
.LVL670:
	popl	%ebp
	.cfi_restore 5
	.cfi_def_cfa 4, 4
	ret
	.cfi_endproc
.LFE288:
	.size	prepare_pdu_data_tx, .-prepare_pdu_data_tx
	.section	.text.unlikely.prepare_pdu_data_tx
.LCOLDE59:
	.section	.text.prepare_pdu_data_tx
.LHOTE59:
	.section	.text.unlikely.isr,"ax",@progbits
.LCOLDB60:
	.section	.text.isr,"ax",@progbits
.LHOTB60:
	.type	isr, @function
isr:
.LFB229:
	.loc 1 8768 0
	.cfi_startproc
	pushl	%ebp
	.cfi_def_cfa_offset 8
	.cfi_offset 5, -8
	movl	%esp, %ebp
	.cfi_def_cfa_register 5
	pushl	%edi
	pushl	%esi
	pushl	%ebx
	subl	$76, %esp
	.cfi_offset 7, -12
	.cfi_offset 6, -16
	.cfi_offset 3, -20
	.loc 1 8768 0
	movl	%gs:20, %eax
	movl	%eax, -28(%ebp)
	xorl	%eax, %eax
	.loc 1 8777 0
	call	radio_is_done
.LVL671:
	.loc 1 8778 0
	testb	%al, %al
	.loc 1 8777 0
	movl	%eax, %esi
.LVL672:
	.loc 1 8778 0
	je	.L847
	.loc 1 8779 0
	call	radio_crc_is_valid
.LVL673:
	movb	%al, -48(%ebp)
.LVL674:
	.loc 1 8780 0
	call	radio_filter_has_match
.LVL675:
	movl	%eax, %edi
.LVL676:
	.loc 1 8781 0
	call	radio_filter_match_get
.LVL677:
	.loc 1 8782 0
	call	radio_ar_has_match
.LVL678:
	.loc 1 8783 0
	call	radio_ar_match_get
.LVL679:
	.loc 1 8784 0
	call	radio_rssi_is_ready
.LVL680:
	movb	%al, %bl
.LVL681:
	jmp	.L606
.LVL682:
.L847:
	.loc 1 8786 0
	xorl	%ebx, %ebx
	xorl	%edi, %edi
	movb	$0, -48(%ebp)
.LVL683:
.L606:
	.loc 1 8789 0
	call	radio_status_reset
.LVL684:
	.loc 1 8790 0
	call	radio_tmr_status_reset
.LVL685:
	.loc 1 8791 0
	call	radio_filter_status_reset
.LVL686:
	.loc 1 8792 0
	call	radio_ar_status_reset
.LVL687:
	.loc 1 8793 0
	call	radio_rssi_status_reset
.LVL688:
	.loc 1 8794 0
	movl	_radio+20, %eax
	cmpl	$2, %eax
	je	.L608
	ja	.L609
	decl	%eax
	je	.L610
	jmp	.L605
.L609:
	cmpl	$5, %eax
	jbe	.L1048
	jmp	.L605
.L608:
.LBB454:
.LBB455:
	.loc 1 6897 0
	movl	$1, _radio+20
	.loc 1 6898 0
	call	radio_tmr_end_get
.LVL689:
	.loc 1 6899 0
	subl	$12, %esp
	.loc 1 6898 0
	movl	%eax, %ebx
.LVL690:
	.loc 1 6899 0
	pushl	$150
	call	radio_tmr_tifs_set
.LVL691:
	.loc 1 6900 0
	movl	_radio+16, %eax
	addl	$16, %esp
	cmpl	$2, %eax
	je	.L612
	ja	.L613
	decl	%eax
	jne	.L605
	.loc 1 6902 0
	pushl	$0
	pushl	$0
	pushl	$0
	pushl	$0
	call	radio_switch_complete_and_tx
.LVL692:
	.loc 1 6903 0
	call	radio_pkt_scratch_get
.LVL693:
	movl	%eax, (%esp)
	call	radio_pkt_rx_set
.LVL694:
	.loc 1 6904 0
	call	radio_is_ready
.LVL695:
	.loc 1 6905 0
	popl	%eax
	popl	%edx
	pushl	$0
	pushl	$0
	call	radio_rx_chain_delay_get
.LVL696:
	.loc 1 6907 0
	popl	%ecx
	popl	%esi
	.loc 1 6906 0
	leal	195(%ebx,%eax), %ebx
.LVL697:
	.loc 1 6907 0
	pushl	$0
	pushl	$0
	call	radio_tx_chain_delay_get
.LVL698:
	.loc 1 6908 0
	subl	%eax, %ebx
.LVL699:
	movl	%ebx, (%esp)
	call	radio_tmr_hcto_configure
.LVL700:
	jmp	.L1082
.LVL701:
.L613:
	.loc 1 6900 0
	cmpl	$4, %eax
	jbe	.L1049
	jmp	.L605
.L612:
	.loc 1 6912 0
	pushl	$0
	pushl	$0
	pushl	$0
	pushl	$0
	call	radio_switch_complete_and_tx
.LVL702:
	.loc 1 6913 0
	movzbl	_radio+317, %eax
	movl	_radio+312, %edx
	movl	(%edx,%eax,4), %eax
	addl	$12, %eax
	movl	%eax, (%esp)
	call	radio_pkt_rx_set
.LVL703:
	.loc 1 6915 0
	call	radio_is_ready
.LVL704:
	.loc 1 6916 0
	popl	%ecx
	popl	%esi
	pushl	$0
	pushl	$0
	call	radio_rx_chain_delay_get
.LVL705:
	.loc 1 6918 0
	popl	%edi
	.loc 1 6917 0
	leal	195(%ebx,%eax), %ebx
.LVL706:
	.loc 1 6918 0
	popl	%eax
	pushl	$0
	pushl	$0
	call	radio_tx_chain_delay_get
.LVL707:
	.loc 1 6919 0
	subl	%eax, %ebx
.LVL708:
	movl	%ebx, (%esp)
	call	radio_tmr_hcto_configure
.LVL709:
	.loc 1 6920 0
	call	radio_rssi_measure
.LVL710:
	jmp	.L1069
.LVL711:
.L1049:
	.loc 1 6926 0
	movl	_radio+276, %edx
	movb	44(%edx), %al
	shrb	$7, %al
	.loc 1 6924 0
	movzbl	%al, %eax
	pushl	%eax
	.loc 1 6925 0
	movb	44(%edx), %al
	shrb	$3, %al
	.loc 1 6924 0
	andl	$7, %eax
	pushl	%eax
	pushl	$0
	movb	46(%edx), %al
	andl	$7, %eax
	pushl	%eax
	call	radio_switch_complete_and_tx
.LVL712:
	.loc 1 6928 0
	movzbl	_radio+317, %eax
	movl	_radio+312, %edx
	.loc 1 6927 0
	movl	(%edx,%eax,4), %edx
	movl	_radio+276, %eax
	addl	$12, %edx
	call	rx_packet_set
.LVL713:
	.loc 1 6929 0
	call	radio_is_ready
.LVL714:
	.loc 1 6930 0
	popl	%eax
	movl	_radio+276, %eax
	popl	%edx
	pushl	$1
	movb	46(%eax), %al
	andl	$7, %eax
	pushl	%eax
	call	radio_rx_chain_delay_get
.LVL715:
	.loc 1 6931 0
	movl	_radio+276, %edx
.LBB456:
.LBB457:
	.loc 1 6872 0
	addl	$16, %esp
.LBE457:
.LBE456:
	.loc 1 6930 0
	leal	155(%ebx,%eax), %esi
.LVL716:
.LBB460:
.LBB458:
	.loc 1 6877 0
	movl	$24, %eax
.LBE458:
.LBE460:
	.loc 1 6931 0
	movb	46(%edx), %cl
	andl	$7, %ecx
.LBB461:
.LBB459:
	.loc 1 6872 0
	cmpb	$2, %cl
	je	.L617
	.loc 1 6875 0
	cmpb	$4, %cl
	movl	$40, %ebx
	movl	$376, %eax
	cmovne	%ebx, %eax
.L617:
.LVL717:
.LBE459:
.LBE461:
	.loc 1 6931 0
	leal	(%esi,%eax), %ebx
.LVL718:
	.loc 1 6932 0
	pushl	%eax
	pushl	%eax
	.loc 1 6933 0
	movb	44(%edx), %al
	shrb	$7, %al
	.loc 1 6932 0
	movzbl	%al, %eax
	pushl	%eax
	movb	44(%edx), %al
	shrb	$3, %al
	andl	$7, %eax
	pushl	%eax
	call	radio_tx_chain_delay_get
.LVL719:
	.loc 1 6934 0
	subl	%eax, %ebx
.LVL720:
	movl	%ebx, (%esp)
	call	radio_tmr_hcto_configure
.LVL721:
	.loc 1 6935 0
	movl	$1, %eax
	call	packet_tx_enqueue
.LVL722:
	jmp	.L1069
.LVL723:
.L610:
.LBE455:
.LBE454:
.LBB462:
.LBB463:
	.loc 1 8457 0
	movl	%esi, %eax
	testb	%al, %al
	jne	.L619
.L843:
	.loc 1 8459 0
	movl	$3, _radio+20
	.loc 1 8460 0
	call	radio_disable
.LVL724:
	jmp	.L605
.L619:
	.loc 1 8463 0
	movl	_radio+16, %eax
	cmpl	$2, %eax
	je	.L620
	ja	.L621
	decl	%eax
	je	.L622
	jmp	.L605
.L621:
	cmpl	$4, %eax
	jbe	.L1050
	jmp	.L605
.L622:
	.loc 1 8465 0
	cmpb	$0, -48(%ebp)
	je	.L843
.LVL725:
.LBB464:
.LBB465:
	.loc 1 7003 0
	call	radio_pkt_scratch_get
.LVL726:
	movl	%eax, %esi
.LVL727:
	.loc 1 7004 0
	movzbl	_radio+120, %eax
.LVL728:
	.loc 1 7006 0
	movb	(%esi), %dl
	.loc 1 7004 0
	imull	$39, %eax, %eax
	addl	$_radio+32, %eax
	movl	%eax, -44(%ebp)
	leal	10(%eax), %ebx
.LVL729:
	.loc 1 7006 0
	movb	%dl, %al
	andl	$15, %eax
	cmpb	$3, %al
	jne	.L625
	cmpb	$12, 1(%esi)
	jne	.L843
.LVL730:
.LBB466:
.LBB467:
	.loc 1 6957 0
	testb	$8, _radio+41
	je	.L890
	movl	%edi, %eax
	testb	%al, %al
	je	.L843
.L890:
.LVL731:
.LBB468:
.LBB469:
	.loc 1 6948 0
	movl	-44(%ebp), %eax
	shrb	$7, %dl
	movb	10(%eax), %al
	shrb	$6, %al
	andl	$1, %eax
	cmpb	%dl, %al
	jne	.L843
	.loc 1 6949 0
	addl	$8, %esi
.LVL732:
	addl	$2, %ebx
.LVL733:
	pushl	%eax
	pushl	$6
	pushl	%esi
	pushl	%ebx
	call	memcmp
.LVL734:
	addl	$16, %esp
	.loc 1 6948 0
	testl	%eax, %eax
	jne	.L843
.LVL735:
.LBE469:
.LBE468:
.LBE467:
.LBE466:
	.loc 1 7009 0
	movl	$3, _radio+20
	.loc 1 7010 0
	call	radio_switch_complete_and_disable
.LVL736:
	.loc 1 7011 0
	movzbl	_radio+200, %eax
	subl	$12, %esp
	imull	$39, %eax, %eax
	addl	$_radio+122, %eax
	pushl	%eax
	call	radio_pkt_tx_set
.LVL737:
	jmp	.L1071
.LVL738:
.L625:
	.loc 1 7015 0
	cmpb	$5, %al
	jne	.L843
	cmpb	$34, 1(%esi)
	jne	.L843
.LVL739:
.LBB470:
.LBB471:
	.loc 1 6987 0
	movl	-44(%ebp), %eax
	movb	10(%eax), %cl
	movb	%cl, %al
	andl	$15, %eax
	decb	%al
	jne	.L629
	.loc 1 6989 0
	movl	%esi, %edx
	movl	%ebx, %eax
	movb	%cl, -56(%ebp)
	call	isr_adv_ci_adva_check
.LVL740:
	xorl	%edx, %edx
	testb	%al, %al
	je	.L630
.LVL741:
.LBB472:
.LBB473:
	.loc 1 6966 0
	movb	(%esi), %al
	movb	-56(%ebp), %cl
	shrb	$6, %al
	shrb	$7, %cl
	andl	$1, %eax
	cmpb	%al, %cl
	jne	.L630
	.loc 1 6967 0
	leal	2(%esi), %eax
	addl	$8, %ebx
.LVL742:
	pushl	%edi
	pushl	$6
	pushl	%eax
	pushl	%ebx
	call	memcmp
.LVL743:
	.loc 1 6966 0
	xorl	%edx, %edx
	.loc 1 6967 0
	addl	$16, %esp
	.loc 1 6966 0
	testl	%eax, %eax
	sete	%dl
.LVL744:
.L630:
.LBE473:
.LBE472:
	.loc 1 6988 0
	movb	%dl, %al
	jmp	.L633
.LVL745:
.L629:
	.loc 1 6992 0
	testb	$16, _radio+41
	je	.L891
	movl	%edi, %ecx
	.loc 1 6993 0
	xorl	%eax, %eax
	.loc 1 6992 0
	testb	%cl, %cl
	je	.L633
.L891:
	.loc 1 6994 0
	movl	%esi, %edx
	movl	%ebx, %eax
	call	isr_adv_ci_adva_check
.LVL746:
	.loc 1 6993 0
	movzbl	%al, %eax
.LVL747:
.L633:
	.loc 1 6992 0
	andl	$1, %eax
.LVL748:
.LBE471:
.LBE470:
	.loc 1 7016 0
	testb	%al, %al
	je	.L843
	.loc 1 7017 0
	cmpb	$0, _radio+382
	je	.L635
	.loc 1 7018 0
	movb	_radio+380, %al
	cmpb	_radio+381, %al
	jne	.L843
.L635:
	cmpl	$0, _radio+204
	je	.L843
.LBB474:
	.loc 1 7029 0
	movl	$4, %eax
	call	packet_rx_reserve_get
.LVL749:
	.loc 1 7033 0
	testl	%eax, %eax
	movl	%eax, -56(%ebp)
	je	.L843
	.loc 1 7036 0
	movl	$4, _radio+20
	.loc 1 7037 0
	call	radio_disable
.LVL750:
	.loc 1 7038 0
	movl	_radio+204, %ebx
.LVL751:
	.loc 1 7042 0
	pushl	%eax
	pushl	$316
	pushl	_radio+264
	.loc 1 7039 0
	movl	$0, _radio+204
	.loc 1 7042 0
	pushl	%ebx
	call	mem_index_get
.LVL752:
	movw	%ax, 32(%ebx)
	.loc 1 7044 0
	movw	18(%esi), %ax
	movw	%ax, 20(%ebx)
	movb	20(%esi), %al
	movb	%al, 22(%ebx)
	.loc 1 7047 0
	movl	14(%esi), %eax
	movl	%eax, 16(%ebx)
	.loc 1 7050 0
	movl	30(%esi), %edx
	leal	23(%ebx), %eax
	movl	%edx, 23(%ebx)
	movb	34(%esi), %dl
	movb	%dl, 27(%ebx)
	.loc 1 7054 0
	popl	%edx
	popl	%ecx
	pushl	$5
	pushl	%eax
	call	util_ones_count_get
.LVL753:
	.loc 1 7053 0
	movb	29(%ebx), %dl
	andl	$63, %eax
	.loc 1 7069 0
	movl	-56(%ebp), %ecx
	.loc 1 7053 0
	andl	$-64, %edx
	orl	%edx, %eax
	.loc 1 7064 0
	xorl	%edx, %edx
	.loc 1 7053 0
	movb	%al, 29(%ebx)
	.loc 1 7056 0
	movb	35(%esi), %al
	andl	$31, %eax
	movb	%al, 30(%ebx)
	.loc 1 7058 0
	movw	24(%esi), %ax
	.loc 1 7057 0
	movw	%ax, 36(%ebx)
	.loc 1 7061 0
	movw	26(%esi), %ax
	.loc 1 7059 0
	movzwl	24(%esi), %edi
	.loc 1 7061 0
	movw	%ax, 38(%ebx)
	.loc 1 7062 0
	movl	16(%ebx), %eax
	.loc 1 7059 0
	imull	$1250, %edi, %edi
.LVL754:
	.loc 1 7062 0
	movl	%eax, 88(%ebx)
	.loc 1 7064 0
	movzwl	28(%esi), %eax
	imull	$10000, %eax, %eax
	leal	-1(%edi,%eax), %eax
	divl	%edi
	.loc 1 7067 0
	xorl	%edx, %edx
	.loc 1 7064 0
	movw	%ax, 50(%ebx)
	.loc 1 7067 0
	leal	39999999(%edi), %eax
	divl	%edi
	movw	%ax, 54(%ebx)
	.loc 1 7069 0
	movl	32(%ebx), %eax
	.loc 1 7070 0
	movl	$3, 4(%ecx)
.LVL755:
	.loc 1 7074 0
	movb	$0, 15(%ecx)
	.loc 1 7075 0
	movb	$1, 16(%ecx)
	.loc 1 7069 0
	movw	%ax, 8(%ecx)
	.loc 1 7077 0
	movb	(%esi), %al
	shrb	$6, %al
	andl	$1, %eax
	movb	%al, 17(%ecx)
	.loc 1 7078 0
	movl	2(%esi), %eax
	movl	%eax, 18(%ecx)
	movw	6(%esi), %ax
	movw	%ax, 22(%ecx)
	.loc 1 7083 0
	movw	24(%esi), %ax
	.loc 1 7082 0
	movw	%ax, 24(%ecx)
	.loc 1 7085 0
	movw	26(%esi), %ax
	.loc 1 7084 0
	movw	%ax, 26(%ecx)
	.loc 1 7087 0
	movw	28(%esi), %ax
	.loc 1 7086 0
	movw	%ax, 28(%ecx)
	.loc 1 7089 0
	movb	35(%esi), %al
	shrb	$5, %al
	.loc 1 7088 0
	movb	%al, 30(%ecx)
	.loc 1 7090 0
	movzwl	32(%ebx), %eax
	call	rx_fc_lock
.LVL756:
	.loc 1 7091 0
	call	packet_rx_enqueue
.LVL757:
.LBB475:
	.loc 1 7094 0
	movl	$3, %eax
	call	packet_rx_reserve_get
.LVL758:
	.loc 1 7096 0
	movl	32(%ebx), %edx
	.loc 1 7103 0
	addl	$16, %esp
	.loc 1 7097 0
	movl	$7, 4(%eax)
.LVL759:
	.loc 1 7096 0
	movw	%dx, 8(%eax)
	.loc 1 7103 0
	testb	$32, (%esi)
	je	.L636
.LBB476:
	.loc 1 7104 0
	movzbl	17(%ebx), %ecx
	movzbl	16(%ebx), %edx
	.loc 1 7110 0
	orb	$64, 29(%ebx)
	.loc 1 7104 0
	sall	$8, %ecx
	orl	%ecx, %edx
	.loc 1 7107 0
	movzbl	18(%ebx), %ecx
	.loc 1 7104 0
	movw	%dx, -56(%ebp)
.LVL760:
	.loc 1 7107 0
	movzbl	19(%ebx), %edx
.LVL761:
	sall	$8, %edx
	orl	%ecx, %edx
.LVL762:
	.loc 1 7111 0
	xorl	-56(%ebp), %edx
.LVL763:
	movw	%dx, 30(%ebx)
	.loc 1 7112 0
	movb	$1, 15(%eax)
.LVL764:
	jmp	.L637
.LVL765:
.L636:
.LBE476:
	.loc 1 7114 0
	movb	$0, 15(%eax)
.LVL766:
.L637:
	.loc 1 7116 0
	call	packet_rx_enqueue
.LVL767:
.LBE475:
	.loc 1 7118 0
	movb	35(%esi), %cl
	movb	60(%ebx), %dl
	.loc 1 7128 0
	subl	$12, %esp
	.loc 1 7118 0
	shrb	$5, %cl
	andl	$-29, %edx
	leal	0(,%ecx,4), %eax
	.loc 1 7121 0
	movzbl	%cl, %ecx
	.loc 1 7118 0
	orl	%edx, %eax
	.loc 1 7119 0
	movzwl	gc_lookup_ppm(%ecx,%ecx), %edx
	movl	$1000000, %ecx
	.loc 1 7118 0
	movb	%al, 60(%ebx)
	.loc 1 7120 0
	movzbl	_radio+288, %eax
	.loc 1 7119 0
	movzwl	gc_lookup_ppm(%eax,%eax), %eax
	addl	%edx, %eax
	xorl	%edx, %edx
	imull	%edi, %eax
	addl	$999999, %eax
	divl	%ecx
	movl	%eax, 64(%ebx)
	.loc 1 7123 0
	movl	%edi, %eax
	shrl	%eax
	subl	$150, %eax
	movl	%eax, 68(%ebx)
	.loc 1 7125 0
	movzbl	21(%esi), %eax
	.loc 1 7127 0
	movl	$0, 80(%ebx)
	.loc 1 7125 0
	imull	$1250, %eax, %eax
	movl	%eax, 84(%ebx)
	.loc 1 7128 0
	pushl	$0
	call	radio_rx_ready_delay_get
.LVL768:
	movl	%eax, %ecx
.LVL769:
	.loc 1 7130 0
	leal	1106(%eax), %eax
.LVL770:
	.loc 1 7129 0
	movl	$1000000000, %edx
	pushl	$7
	pushl	$452807053
	mull	%edx
	.loc 1 7130 0
	movl	%ecx, -60(%ebp)
	.loc 1 7129 0
	pushl	%edx
	pushl	%eax
	call	__udivdi3
.LVL771:
	andl	$16777215, %eax
	.loc 1 7137 0
	addl	$32, %esp
	movl	$39, %edx
	.loc 1 7129 0
	movl	%eax, 12(%ebx)
	.loc 1 7132 0
	movl	_radio+384, %eax
	.loc 1 7133 0
	movl	$39, (%ebx)
	.loc 1 7135 0
	movl	$0, 8(%ebx)
	.loc 1 7137 0
	cmpl	$39, %eax
	.loc 1 7132 0
	movl	%eax, 4(%ebx)
	.loc 1 7137 0
	cmovnb	%eax, %edx
	.loc 1 7142 0
	subl	64(%ebx), %edi
.LVL772:
	.loc 1 7137 0
	movl	%edx, -56(%ebp)
.LVL773:
	.loc 1 7142 0
	movl	%edi, -48(%ebp)
.LVL774:
	.loc 1 7144 0
	call	radio_tmr_end_get
.LVL775:
	movl	%eax, %edi
.LVL776:
	movzwl	22(%esi), %eax
.LVL777:
	leal	1(%eax), %esi
.LVL778:
	.loc 1 7148 0
	pushl	%eax
	pushl	%eax
	pushl	$0
	pushl	$0
	imull	$1250, %esi, %esi
	call	radio_tx_chain_delay_get
.LVL779:
	.loc 1 7151 0
	movl	-60(%ebp), %ecx
	.loc 1 7152 0
	movl	$1142, (%esp)
	subl	$48, %esi
.LVL780:
	pushl	$ticker_stop_adv_assert
	pushl	$5
	addl	%edi, %esi
	pushl	$0
	pushl	$0
	subl	%eax, %esi
	.loc 1 7151 0
	subl	%ecx, %esi
	movl	%esi, -60(%ebp)
.LVL781:
	.loc 1 7152 0
	call	ticker_stop
.LVL782:
	.loc 1 7157 0
	addl	$24, %esp
	pushl	$1143
	pushl	%eax
	call	ticker_stop_adv_assert
.LVL783:
	.loc 1 7158 0
	movl	-44(%ebp), %eax
	addl	$16, %esp
	movb	10(%eax), %al
	andl	$15, %eax
	decb	%al
	jne	.L638
	.loc 1 7159 0
	subl	$12, %esp
	pushl	$0
	pushl	$0
	pushl	$3
	pushl	$0
	pushl	$0
	call	ticker_stop
.LVL784:
	addl	$32, %esp
.L638:
	.loc 1 7173 0
	movl	$1000000000, %eax
	pushl	$7
	pushl	$452807053
	mull	-48(%ebp)
	pushl	%edx
	pushl	%eax
	movl	%eax, %esi
.LVL785:
	movl	%edx, %edi
	call	__udivdi3
.LVL786:
	movl	%eax, %ecx
	.loc 1 7167 0
	movl	-56(%ebp), %eax
	addl	12(%ebx), %eax
	andl	$16777215, %ecx
	movl	$1166, (%esp)
	pushl	$ticker_success_assert
	movl	%ecx, -44(%ebp)
.LVL787:
	pushl	%ebx
	pushl	$event_slave_prepare
	movzwl	%ax, %eax
	pushl	%eax
	movl	$452807053, %eax
	pushl	$0
	mull	-44(%ebp)
	imull	$7, %ecx, %ecx
	addl	%ecx, %edx
	subl	%eax, %esi
	sbbl	%edx, %edi
	subl	$12, %esp
	pushl	$0
	pushl	$1000
	pushl	%edi
	pushl	%esi
	call	__udivdi3
.LVL788:
	addl	$28, %esp
	pushl	%eax
	movl	$1000000000, %eax
	pushl	-44(%ebp)
	mull	-60(%ebp)
	pushl	%esi
	pushl	$7
	pushl	$452807053
	pushl	%edx
	pushl	%eax
	call	__udivdi3
.LVL789:
	addl	$20, %esp
	andl	$16777215, %eax
	pushl	%eax
	movl	_radio+4, %eax
	subl	-56(%ebp), %eax
	pushl	%eax
	movl	32(%ebx), %eax
	jmp	.L1070
.LVL790:
.L620:
.LBE474:
.LBE465:
.LBE464:
	.loc 1 8478 0
	cmpb	$0, -48(%ebp)
	jne	.L640
.L641:
	.loc 1 8486 0
	movl	$3, _radio+20
	.loc 1 8487 0
	call	radio_disable
.LVL791:
	.loc 1 8488 0
	andb	$-3, _radio+224
	jmp	.L605
.L640:
.LVL792:
.LBB478:
.LBB479:
	.loc 1 7216 0
	movb	_radio+225, %al
	movb	%al, %dl
	shrb	%dl
.LBE479:
.LBE478:
	.loc 1 8478 0
	andb	$1, %dl
	je	.L892
	movl	%edi, %ecx
	testb	%cl, %cl
	je	.L641
.L892:
.LVL793:
.LBB480:
.LBB481:
	.loc 1 7299 0
	movzbl	_radio+317, %ecx
	movl	_radio+312, %esi
	.loc 1 7300 0
	cmpl	$0, _radio+256
	.loc 1 7295 0
	movb	$0, -40(%ebp)
	.loc 1 7299 0
	movl	(%esi,%ecx,4), %edi
	movl	%edi, -44(%ebp)
	.loc 1 7298 0
	leal	12(%edi), %esi
.LVL794:
	.loc 1 7300 0
	je	.L643
	cmpb	$0, _radio+382
	je	.L644
	.loc 1 7301 0
	movb	_radio+380, %cl
	.loc 1 7300 0
	cmpb	_radio+381, %cl
	jne	.L643
.L644:
.LVL795:
	movl	-44(%ebp), %edi
.LBB482:
.LBB483:
	.loc 1 7279 0
	testb	%dl, %dl
	movb	12(%edi), %dl
	jne	.L645
.LVL796:
.LBB484:
.LBB485:
	.loc 1 7233 0
	movb	%dl, %cl
	shrb	$3, %al
	shrb	$6, %cl
	andl	$1, %eax
	andl	$1, %ecx
	cmpb	%cl, %al
	jne	.L643
	.loc 1 7234 0
	movl	%edi, %eax
	pushl	%ecx
	pushl	$6
	addl	$14, %eax
	movb	%dl, -56(%ebp)
	pushl	%eax
	pushl	$_radio+232
	call	memcmp
.LVL797:
	addl	$16, %esp
	.loc 1 7233 0
	testl	%eax, %eax
	movb	-56(%ebp), %dl
	jne	.L643
.LVL798:
.L645:
.LBE485:
.LBE484:
	.loc 1 7279 0
	movb	%dl, %al
	andb	$15, %al
	jne	.L646
.LVL799:
.L648:
.LBE483:
.LBE482:
	.loc 1 7303 0
	call	radio_tmr_end_get
.LVL800:
	.loc 1 7302 0
	addl	$534, %eax
	pushl	$0
	pushl	$1000000000
	movl	%eax, %edi
	movl	_radio+220, %eax
	imull	$7, %eax, %ecx
	movl	%ecx, -56(%ebp)
	movl	$452807053, %ecx
	mull	%ecx
	addl	-56(%ebp), %edx
	pushl	%edx
	pushl	%eax
	call	__udivdi3
.LVL801:
	subl	$300, %eax
	addl	$16, %esp
	cmpl	%eax, %edi
	jnb	.L643
	jmp	.L1083
.LVL802:
.L646:
.LBB487:
.LBB486:
	.loc 1 7280 0
	decb	%al
	jne	.L643
	.loc 1 7283 0
	subl	$12, %esp
	movl	$255, %ecx
	movl	%esi, %edx
	pushl	$0
	movl	$1, %eax
	call	isr_scan_tgta_check
.LVL803:
.LBE486:
.LBE487:
	.loc 1 7301 0
	addl	$16, %esp
	testb	%al, %al
	je	.L643
	jmp	.L648
.L1083:
.LBB488:
	.loc 1 7317 0
	movl	$4, %eax
	call	packet_rx_reserve_get
.LVL804:
	.loc 1 7321 0
	testl	%eax, %eax
	movl	%eax, -64(%ebp)
	je	.L641
	.loc 1 7325 0
	movl	_radio+256, %esi
.LVL805:
	.loc 1 7324 0
	movl	$4, _radio+20
	.loc 1 7326 0
	movl	$0, _radio+256
	.loc 1 7329 0
	call	radio_pkt_scratch_get
.LVL806:
	.loc 1 7330 0
	movb	(%eax), %dl
	.loc 1 7336 0
	movl	-44(%ebp), %edi
	.loc 1 7329 0
	movl	%eax, %ebx
.LVL807:
	.loc 1 7330 0
	andl	$-16, %edx
	.loc 1 7332 0
	movb	%dl, %al
.LVL808:
	orl	$37, %eax
	movb	%al, (%ebx)
	.loc 1 7336 0
	movb	12(%edi), %dl
	andl	$127, %eax
	.loc 1 7337 0
	movb	$34, 1(%ebx)
	.loc 1 7336 0
	shrb	$6, %dl
	movb	%dl, %cl
	movb	%al, %dl
	sall	$7, %ecx
	movb	%cl, %al
	orl	%eax, %edx
	movb	%dl, (%ebx)
	.loc 1 7339 0
	movb	_radio+225, %al
	sall	$2, %eax
	andl	$64, %eax
	movb	%al, %cl
	movb	%dl, %al
	andl	$-65, %eax
	orl	%ecx, %eax
	movb	%al, (%ebx)
	.loc 1 7340 0
	movl	_radio+226, %eax
	movl	%eax, 2(%ebx)
	movw	_radio+230, %ax
	movw	%ax, 6(%ebx)
	.loc 1 7343 0
	leal	8(%ebx), %eax
	movl	%eax, -60(%ebp)
	movl	14(%edi), %eax
	movl	%eax, 8(%ebx)
	movw	18(%edi), %ax
	movw	%ax, 12(%ebx)
	.loc 1 7345 0
	movl	16(%esi), %eax
	movl	%eax, 14(%ebx)
	.loc 1 7347 0
	movw	20(%esi), %ax
	movw	%ax, 18(%ebx)
	movb	22(%esi), %al
	.loc 1 7349 0
	movb	$1, 21(%ebx)
	.loc 1 7347 0
	movb	%al, 20(%ebx)
	.loc 1 7350 0
	movzwl	_radio+244, %eax
	imull	$1250, %eax, %eax
	movl	%eax, -48(%ebp)
.LVL809:
	.loc 1 7352 0
	call	radio_tmr_end_get
.LVL810:
	leal	1752(%eax), %edx
.LVL811:
	addl	$1722, %eax
	cmpl	$0, _radio+8
	.loc 1 7357 0
	movl	_radio+260, %ecx
	.loc 1 7352 0
	cmovle	%eax, %edx
.LVL812:
	.loc 1 7357 0
	testl	%ecx, %ecx
	movl	%ecx, -56(%ebp)
	.loc 1 7352 0
	movl	%edx, %edi
.LVL813:
	.loc 1 7357 0
	movl	-64(%ebp), %ecx
	jne	.L653
.LVL814:
	.loc 1 7359 0
	movw	$0, 22(%ebx)
	movl	%edx, -56(%ebp)
	jmp	.L654
.LVL815:
.L655:
	.loc 1 7364 0
	movl	-48(%ebp), %eax
	addl	%eax, -56(%ebp)
.LVL816:
.L653:
	.loc 1 7362 0
	movl	-56(%ebp), %eax
	shrl	$31, %eax
	jne	.L655
	cmpl	%edi, -56(%ebp)
	jb	.L655
	.loc 1 7366 0
	movl	-56(%ebp), %edx
.LVL817:
	.loc 1 7368 0
	incb	21(%ebx)
	.loc 1 7366 0
	subl	%edi, %edx
	movl	$1250, %edi
.LVL818:
	movl	%edx, %eax
	xorl	%edx, %edx
	divl	%edi
	movw	%ax, 22(%ebx)
.L654:
	.loc 1 7370 0
	pushl	%edi
	pushl	%edi
	pushl	$0
	pushl	$0
	movl	%ecx, -68(%ebp)
	call	radio_tx_ready_delay_get
.LVL819:
	movl	-56(%ebp), %ecx
	subl	%eax, %ecx
	.loc 1 7371 0
	popl	%eax
	popl	%edx
	pushl	$0
	pushl	$0
	.loc 1 7370 0
	movl	%ecx, %edi
.LVL820:
	.loc 1 7371 0
	call	radio_tx_chain_delay_get
.LVL821:
	movl	%edi, %ecx
	.loc 1 7382 0
	movb	35(%ebx), %dl
	.loc 1 7371 0
	subl	%eax, %ecx
	movl	%ecx, %eax
.LVL822:
	.loc 1 7372 0
	addl	$30, %eax
.LVL823:
	.loc 1 7382 0
	andl	$-32, %edx
	.loc 1 7372 0
	movl	%eax, -64(%ebp)
.LVL824:
	.loc 1 7373 0
	movl	_radio+244, %eax
.LVL825:
	movw	%ax, 24(%ebx)
	.loc 1 7375 0
	movw	_radio+246, %ax
	movw	%ax, 26(%ebx)
	.loc 1 7377 0
	movl	_radio+248, %eax
	movw	%ax, 28(%ebx)
	.loc 1 7379 0
	movl	23(%esi), %eax
	movl	%eax, 30(%ebx)
	movb	27(%esi), %al
	movb	%al, 34(%ebx)
	.loc 1 7382 0
	movb	30(%esi), %al
	andl	$31, %eax
	orl	%edx, %eax
	movb	%al, 35(%ebx)
	.loc 1 7384 0
	movb	_radio+288, %dl
	andl	$31, %eax
	sall	$5, %edx
	orl	%edx, %eax
	movb	%al, 35(%ebx)
	.loc 1 7385 0
	call	radio_switch_complete_and_disable
.LVL826:
	.loc 1 7386 0
	movl	%ebx, (%esp)
	call	radio_pkt_tx_set
.LVL827:
	.loc 1 7387 0
	call	radio_is_ready
.LVL828:
	.loc 1 7388 0
	addl	$12, %esp
	pushl	$316
	pushl	_radio+264
	pushl	%esi
	call	mem_index_get
.LVL829:
	.loc 1 7390 0
	movl	-68(%ebp), %ecx
	.loc 1 7388 0
	movw	%ax, 32(%esi)
	.loc 1 7395 0
	movb	$0, 15(%ecx)
	.loc 1 7396 0
	movb	$0, 16(%ecx)
	.loc 1 7390 0
	movw	%ax, 8(%ecx)
	.loc 1 7391 0
	movl	$3, 4(%ecx)
.LVL830:
	.loc 1 7399 0
	movb	(%ebx), %al
	shrb	$7, %al
	.loc 1 7398 0
	movb	%al, 17(%ecx)
	.loc 1 7400 0
	movl	8(%ebx), %eax
	movl	%eax, 18(%ecx)
	movl	-60(%ebp), %eax
	movw	4(%eax), %ax
	movw	%ax, 22(%ecx)
	.loc 1 7404 0
	movl	_radio+244, %eax
	movw	%ax, 24(%ecx)
	.loc 1 7405 0
	movw	_radio+246, %ax
	movw	%ax, 26(%ecx)
	.loc 1 7406 0
	movl	_radio+248, %eax
	movw	%ax, 28(%ecx)
	.loc 1 7408 0
	movb	35(%ebx), %al
	shrb	$5, %al
	.loc 1 7407 0
	movb	%al, 30(%ecx)
	.loc 1 7409 0
	movzwl	32(%esi), %eax
	call	rx_fc_lock
.LVL831:
	.loc 1 7410 0
	call	packet_rx_enqueue
.LVL832:
.LBB489:
	.loc 1 7413 0
	movl	$3, %eax
	call	packet_rx_reserve_get
.LVL833:
	.loc 1 7415 0
	movl	32(%esi), %edx
	.loc 1 7422 0
	movl	-44(%ebp), %edi
	addl	$16, %esp
	.loc 1 7416 0
	movl	$7, 4(%eax)
.LVL834:
	.loc 1 7415 0
	movw	%dx, 8(%eax)
	.loc 1 7422 0
	testb	$32, 12(%edi)
	je	.L656
.LBB490:
	.loc 1 7423 0
	movzbl	17(%esi), %ecx
	movzbl	16(%esi), %edx
	.loc 1 7426 0
	movzbl	18(%esi), %ebx
.LVL835:
	.loc 1 7429 0
	orb	$64, 29(%esi)
	.loc 1 7423 0
	sall	$8, %ecx
	orl	%edx, %ecx
.LVL836:
	.loc 1 7426 0
	movzbl	19(%esi), %edx
	sall	$8, %edx
	orl	%ebx, %edx
.LVL837:
	.loc 1 7430 0
	xorl	%edx, %ecx
.LVL838:
	movw	%cx, 30(%esi)
	.loc 1 7431 0
	movb	$1, 15(%eax)
	jmp	.L657
.LVL839:
.L656:
.LBE490:
	.loc 1 7433 0
	movb	$0, 15(%eax)
.LVL840:
.L657:
	.loc 1 7435 0
	call	packet_rx_enqueue
.LVL841:
.LBE489:
	.loc 1 7437 0
	movl	_radio+252, %eax
	.loc 1 7443 0
	movl	$39, %edx
	.loc 1 7469 0
	movl	$1000000000, %edi
	.loc 1 7437 0
	movl	%eax, 12(%esi)
	.loc 1 7438 0
	movl	_radio+384, %eax
	.loc 1 7439 0
	movl	$39, (%esi)
	.loc 1 7441 0
	movl	$0, 8(%esi)
	.loc 1 7443 0
	cmpl	$39, %eax
	.loc 1 7438 0
	movl	%eax, 4(%esi)
	.loc 1 7443 0
	cmovnb	%eax, %edx
	.loc 1 7448 0
	subl	$12, %esp
	pushl	$1588
	pushl	$ticker_stop_scan_assert
	pushl	$6
	pushl	$0
	pushl	$0
	.loc 1 7443 0
	movl	%edx, -44(%ebp)
.LVL842:
	.loc 1 7448 0
	call	ticker_stop
.LVL843:
	.loc 1 7453 0
	addl	$24, %esp
	pushl	$1589
	pushl	%eax
	call	ticker_stop_scan_assert
.LVL844:
	.loc 1 7454 0
	movl	$0, (%esp)
	pushl	$0
	pushl	$4
	pushl	$0
	pushl	$0
	call	ticker_stop
.LVL845:
	.loc 1 7469 0
	movl	-48(%ebp), %eax
	pushl	$7
	pushl	$452807053
	mull	%edi
	pushl	%edx
	pushl	%eax
	movl	%eax, -56(%ebp)
	movl	%edx, -52(%ebp)
	call	__udivdi3
.LVL846:
	movl	%eax, %ebx
	movl	%eax, -48(%ebp)
.LVL847:
	.loc 1 7461 0
	movl	-44(%ebp), %eax
	addl	12(%esi), %eax
	addl	$36, %esp
	imull	$452807053, %edx, %edx
	pushl	$1612
	pushl	$ticker_success_assert
	imull	$7, %ebx, %ecx
	pushl	%esi
	pushl	$event_master_prepare
	movzwl	%ax, %eax
	pushl	%eax
	movl	$452807053, %eax
	addl	%edx, %ecx
	mull	%ebx
	movl	-52(%ebp), %ebx
	pushl	$0
	addl	%ecx, %edx
	movl	-56(%ebp), %ecx
	subl	%eax, %ecx
	sbbl	%edx, %ebx
	subl	$12, %esp
	pushl	$0
	pushl	$1000
	pushl	%ebx
	pushl	%ecx
	call	__udivdi3
.LVL848:
	addl	$28, %esp
	pushl	%eax
	movl	-64(%ebp), %eax
	pushl	-48(%ebp)
	pushl	%ebx
	pushl	$7
	pushl	$452807053
	mull	%edi
	pushl	%edx
	pushl	%eax
	call	__udivdi3
.LVL849:
	addl	$20, %esp
	andl	$16777215, %eax
	pushl	%eax
	movl	_radio+4, %eax
	subl	-44(%ebp), %eax
	pushl	%eax
	movl	32(%esi), %eax
.LVL850:
.L1070:
	addl	$7, %eax
	movzbl	%al, %eax
	pushl	%eax
	pushl	$0
	pushl	$0
	call	ticker_start
.LVL851:
	addl	$64, %esp
	jmp	.L605
.LVL852:
.L643:
.LBE488:
	.loc 1 7478 0
	movl	-44(%ebp), %eax
	movb	12(%eax), %al
	andb	$15, %al
	je	.L893
	cmpb	$6, %al
	jne	.L659
.L893:
	.loc 1 7479 0
	testb	$1, _radio+225
	je	.L661
	.loc 1 7480 0
	cmpl	$0, _radio+256
	jne	.L661
.LBB491:
	.loc 1 7484 0
	xorl	%ecx, %ecx
	movzbl	%bl, %eax
	movl	$255, %edx
	call	isr_rx_scan_report
.LVL853:
	.loc 1 7489 0
	testl	%eax, %eax
	jne	.L658
	.loc 1 7492 0
	call	radio_pkt_scratch_get
.LVL854:
	movl	%eax, %ebx
.LVL855:
	.loc 1 7493 0
	movb	(%eax), %al
.LVL856:
	.loc 1 7494 0
	movl	-44(%ebp), %edi
	.loc 1 7505 0
	subl	$12, %esp
	.loc 1 7493 0
	andl	$-16, %eax
	orl	$3, %eax
	movb	%al, (%ebx)
	.loc 1 7494 0
	movb	12(%edi), %dl
	andl	$127, %eax
	.loc 1 7495 0
	movb	$12, 1(%ebx)
	.loc 1 7494 0
	shrb	$6, %dl
	sall	$7, %edx
	orl	%edx, %eax
	movb	%al, (%ebx)
	.loc 1 7497 0
	movzbl	_radio+225, %esi
.LVL857:
	andl	$-65, %eax
	leal	0(,%esi,4), %edx
	andl	$64, %edx
	orl	%edx, %eax
	movb	%al, (%ebx)
	.loc 1 7498 0
	movl	_radio+226, %eax
	movl	%eax, 2(%ebx)
	movw	_radio+230, %ax
	movw	%ax, 6(%ebx)
	.loc 1 7501 0
	movl	14(%edi), %eax
	movl	%eax, 8(%ebx)
	movw	18(%edi), %ax
	movw	%ax, 12(%ebx)
	.loc 1 7505 0
	pushl	$150
	.loc 1 7503 0
	orb	$2, _radio+224
	.loc 1 7504 0
	movl	$2, _radio+20
	.loc 1 7505 0
	call	radio_tmr_tifs_set
.LVL858:
	.loc 1 7506 0
	movl	$0, (%esp)
	call	radio_switch_complete_and_rx
.LVL859:
	.loc 1 7507 0
	movl	%ebx, (%esp)
	call	radio_pkt_tx_set
.LVL860:
	.loc 1 7508 0
	call	radio_tmr_end_capture
.LVL861:
	jmp	.L1071
.LVL862:
.L661:
.LBE491:
	.loc 1 7512 0
	testb	%al, %al
	jne	.L659
.L664:
	.loc 1 7523 0
	movl	-44(%ebp), %eax
	cmpb	$0, 13(%eax)
	jne	.L662
	jmp	.L641
.L659:
	.loc 1 7512 0
	decb	%al
	je	.L663
.L666:
	.loc 1 7519 0
	movl	-44(%ebp), %eax
	movb	12(%eax), %al
	movb	%al, %dl
	andl	$11, %edx
	cmpb	$2, %dl
	jne	.L1051
	jmp	.L664
.L663:
	.loc 1 7515 0
	leal	-40(%ebp), %eax
	subl	$12, %esp
	movl	$255, %ecx
	movl	%esi, %edx
	pushl	%eax
	xorl	%eax, %eax
	call	isr_scan_tgta_check
.LVL863:
	.loc 1 7513 0
	addl	$16, %esp
	testb	%al, %al
	jne	.L664
	jmp	.L666
.L1051:
	.loc 1 7520 0
	andl	$15, %eax
	cmpb	$4, %al
	jne	.L641
	.loc 1 7521 0
	testb	$2, _radio+224
	je	.L641
.LVL864:
.LBB492:
.LBB493:
	.loc 1 7223 0
	call	radio_pkt_scratch_get
.LVL865:
	.loc 1 7224 0
	movl	-44(%ebp), %edi
	movb	(%eax), %cl
	movb	12(%edi), %dl
	shrb	$7, %cl
	shrb	$6, %dl
	andl	$1, %edx
	cmpb	%dl, %cl
	jne	.L641
	.loc 1 7225 0
	leal	14(%edi), %edx
	addl	$8, %eax
.LVL866:
	pushl	%ecx
	pushl	$6
	pushl	%edx
	pushl	%eax
	call	memcmp
.LVL867:
	addl	$16, %esp
	.loc 1 7224 0
	testl	%eax, %eax
	jne	.L641
	jmp	.L664
.LVL868:
.L662:
.LBE493:
.LBE492:
	.loc 1 7524 0
	cmpl	$0, _radio+256
	jne	.L641
.LBB494:
	.loc 1 7526 0
	movzbl	-40(%ebp), %ecx
	movzbl	%bl, %eax
	movl	$255, %edx
	call	isr_rx_scan_report
.LVL869:
	.loc 1 7530 0
	testl	%eax, %eax
	je	.L641
.LVL870:
.L658:
.LBE494:
.LBE481:
.LBE480:
	.loc 1 8485 0
	testl	%eax, %eax
	je	.L605
	jmp	.L641
.LVL871:
.L1050:
.LBB495:
.LBB496:
	.loc 1 8367 0
	movzbl	_radio+317, %eax
	movl	_radio+312, %edx
	.loc 1 8366 0
	incb	_radio+280
	.loc 1 8369 0
	cmpb	$0, -48(%ebp)
	.loc 1 8367 0
	movl	(%edx,%eax,4), %esi
.LVL872:
	movl	_radio+276, %eax
	.loc 1 8368 0
	movl	$1, 4(%esi)
	.loc 1 8369 0
	je	.L667
.LVL873:
.LBB497:
.LBB498:
.LBB499:
	.loc 1 8255 0
	movb	224(%eax), %cl
	movb	12(%esi), %bl
	movb	%cl, %dl
	shrb	$2, %bl
	andl	$1, %edx
	andl	$1, %ebx
	cmpb	%dl, %bl
	je	.L668
	.loc 1 8256 0
	xorl	$1, %edx
	andl	$-2, %ecx
	orl	%ecx, %edx
	movb	%dl, 224(%eax)
	.loc 1 8257 0
	movl	_radio+16, %edx
	cmpl	$3, %edx
	jne	.L669
	.loc 1 8258 0
	orb	$1, 60(%eax)
.L669:
	.loc 1 8260 0
	movb	224(%eax), %dl
	testb	%dl, %dl
	js	.L670
.LBB500:
	.loc 1 8264 0
	movzbl	313(%eax), %ecx
	.loc 1 8263 0
	movl	292(%eax), %ebx
.LVL874:
	.loc 1 8264 0
	leal	4(%ebx,%ecx), %edi
.LVL875:
	.loc 1 8267 0
	movb	1(%edi), %cl
	movb	%cl, -44(%ebp)
.LVL876:
.LBE500:
	.loc 1 8252 0
	xorl	%ecx, %ecx
.LVL877:
.LBB513:
	.loc 1 8268 0
	cmpb	$0, -44(%ebp)
	je	.L671
	.loc 1 8269 0
	andb	$32, %dl
	je	.L672
	.loc 1 8270 0
	addl	$1, 274(%eax)
	adcl	$0, 278(%eax)
.L672:
	.loc 1 8272 0
	movb	(%edi), %dl
.LBE513:
	.loc 1 8252 0
	xorl	%ecx, %ecx
.LBB514:
	.loc 1 8272 0
	andl	$3, %edx
	cmpb	$3, %dl
	jne	.L671
.LVL878:
.LBB501:
.LBB502:
	.loc 1 7551 0
	movb	3(%edi), %cl
	leal	-2(%ecx), %edx
	cmpb	$22, %dl
	ja	.L856
	movzbl	%dl, %edx
	jmp	*.L674(,%edx,4)
	.section	.rodata.isr,"a",@progbits
	.align 4
	.align 4
.L674:
	.long	.L673
	.long	.L675
	.long	.L684
	.long	.L856
	.long	.L856
	.long	.L856
	.long	.L856
	.long	.L856
	.long	.L677
	.long	.L678
	.long	.L856
	.long	.L679
	.long	.L856
	.long	.L856
	.long	.L856
	.long	.L856
	.long	.L856
	.long	.L856
	.long	.L856
	.long	.L856
	.long	.L680
	.long	.L681
	.long	.L682
	.section	.text.isr
.L673:
	.loc 1 7553 0
	movl	$3, _radio+20
	.loc 1 7554 0
	call	radio_disable
.LVL879:
	.loc 1 7555 0
	call	radio_is_ready
.LVL880:
	.loc 1 7557 0
	movzbl	4(%edi), %ecx
	.loc 1 7556 0
	movl	_radio+276, %eax
	movl	$22, %edx
	cmpb	$19, %cl
	cmovne	%ecx, %edx
	call	terminate_ind_rx_enqueue
.LVL881:
	.loc 1 7561 0
	movb	$1, %cl
	jmp	.L671
.LVL882:
.L675:
	.loc 1 7564 0
	movl	14(%edi), %edx
	movl	18(%edi), %ecx
	movl	%edx, 132(%eax)
	movl	%ecx, 136(%eax)
	.loc 1 7567 0
	movl	_radio+276, %eax
	movl	22(%edi), %edx
	movl	%edx, 250(%eax)
	.loc 1 7570 0
	movl	_radio+276, %eax
	orb	$8, 224(%eax)
	jmp	.L1072
.L677:
	.loc 1 7581 0
	orb	$72, 224(%eax)
.L1072:
	.loc 1 7582 0
	movw	54(%eax), %dx
	movw	%dx, 56(%eax)
	jmp	.L856
.L678:
	.loc 1 7586 0
	movl	_radio+16, %edx
	cmpl	$4, %edx
	jne	.L684
.LVL883:
.LBB503:
.LBB504:
	.loc 1 11186 0
	orb	$3, 4(%ebx)
	.loc 1 11187 0
	movb	$23, 5(%ebx)
	.loc 1 11194 0
	movb	$3, 7(%ebx)
	.loc 1 11195 0
	movl	106(%eax), %edx
	movl	110(%eax), %ecx
	movl	%edx, 8(%ebx)
	movl	%ecx, 12(%ebx)
	.loc 1 11199 0
	movb	114(%eax), %dl
	.loc 1 11198 0
	movb	%dl, 16(%ebx)
	.loc 1 11201 0
	movb	115(%eax), %al
.LVL884:
	.loc 1 11200 0
	movb	%al, 17(%ebx)
	.loc 1 11202 0
	pushl	%eax
	pushl	%eax
	.loc 1 11203 0
	leal	18(%ebx), %eax
	.loc 1 11205 0
	addl	$26, %ebx
.LVL885:
	.loc 1 11202 0
	pushl	%eax
	pushl	$8
	call	rand_isr_get
.LVL886:
	.loc 1 11204 0
	popl	%eax
	popl	%edx
	pushl	%ebx
	pushl	$4
.LBE504:
.LBE503:
	.loc 1 7588 0
	xorl	%ebx, %ebx
.LVL887:
.LBB506:
.LBB505:
	.loc 1 11204 0
	call	rand_isr_get
.LVL888:
	addl	$16, %esp
	jmp	.L856
.LVL889:
.L684:
.LBE505:
.LBE506:
	.loc 1 7592 0
	orb	$8, 224(%eax)
	jmp	.L856
.L679:
	.loc 1 7597 0
	andb	$-13, 224(%eax)
	.loc 1 7598 0
	movw	$0, 56(%eax)
	jmp	.L856
.L680:
	.loc 1 7601 0
	movb	222(%eax), %dl
	andl	$-4, %edx
	orl	$2, %edx
	movb	%dl, 222(%eax)
.L681:
	.loc 1 7603 0
	movl	_radio+16, %edx
	.loc 1 7550 0
	xorl	%ecx, %ecx
	.loc 1 7603 0
	cmpl	$3, %edx
	jne	.L671
.LBB507:
.LBB508:
	.loc 1 7544 0
	movb	222(%eax), %dl
	.loc 1 7541 0
	movb	$1, -36(%ebp)
	movb	$1, -35(%ebp)
	movb	$2, -34(%ebp)
	movb	$1, -33(%ebp)
	movb	$4, -32(%ebp)
	.loc 1 7544 0
	shrb	$2, %dl
	.loc 1 7541 0
	movb	$4, -31(%ebp)
	movb	$4, -30(%ebp)
	.loc 1 7544 0
	movb	%dl, -56(%ebp)
	movb	44(%eax), %dl
	.loc 1 7541 0
	movb	$4, -29(%ebp)
.LVL890:
	.loc 1 7544 0
	shrb	$3, %dl
.LVL891:
	movl	%edx, %edi
.LVL892:
	movb	-56(%ebp), %dl
	orl	%edi, %edx
	.loc 1 7545 0
	movzbl	45(%eax), %edi
	andl	$7, %edx
	movb	-36(%ebp,%edx), %dl
	andl	$-8, %edi
	andl	$7, %edx
	orl	%edi, %edx
	movb	%dl, 45(%eax)
.LVL893:
	jmp	.L671
.LVL894:
.L682:
.LBE508:
.LBE507:
	.loc 1 7609 0
	movb	104(%eax), %dl
	.loc 1 7608 0
	movb	45(%eax), %cl
	.loc 1 7609 0
	shrb	$2, %dl
	.loc 1 7608 0
	andl	$-8, %ecx
	.loc 1 7609 0
	andl	$7, %edx
	.loc 1 7608 0
	orl	%ecx, %edx
	movb	%dl, 45(%eax)
.LVL895:
.L856:
	.loc 1 7550 0
	xorl	%ecx, %ecx
.LVL896:
.L671:
.LBE502:
.LBE501:
	.loc 1 8278 0
	movl	_radio+276, %eax
	movb	-44(%ebp), %dl
	addb	313(%eax), %dl
	.loc 1 8279 0
	cmpb	312(%eax), %dl
	.loc 1 8278 0
	movb	%dl, 313(%eax)
	.loc 1 8279 0
	jne	.L685
.LVL897:
.LBB509:
.LBB510:
	.loc 1 7622 0
	movl	292(%eax), %edx
	cmpl	296(%eax), %edx
	.loc 1 7620 0
	movb	$0, 312(%eax)
	.loc 1 7621 0
	movb	$0, 313(%eax)
	.loc 1 7622 0
	jne	.L686
	.loc 1 7623 0
	testl	%ebx, %ebx
	je	.L685
	.loc 1 7625 0
	cmpl	300(%eax), %edx
	.loc 1 7624 0
	movl	(%edx), %edi
	movl	%edi, 292(%eax)
	.loc 1 7625 0
	jne	.L687
	.loc 1 7626 0
	movl	$0, 296(%eax)
	.loc 1 7629 0
	movl	$0, 300(%eax)
	jmp	.L688
.L687:
	.loc 1 7633 0
	movl	%edi, 296(%eax)
.L688:
.LVL898:
	.loc 1 7635 0
	pushl	%eax
	pushl	%eax
	pushl	$_radio+344
	pushl	%ebx
	movb	%cl, -44(%ebp)
	call	mem_release
.LVL899:
	addl	$16, %esp
	.loc 1 7645 0
	movl	$0, -56(%ebp)
	movb	-44(%ebp), %cl
	jmp	.L689
.LVL900:
.L686:
	.loc 1 7638 0
	cmpl	304(%eax), %edx
	movl	(%edx), %edx
	jne	.L690
	.loc 1 7639 0
	movl	%edx, 304(%eax)
.L690:
	.loc 1 7641 0
	movl	%edx, 292(%eax)
	movl	%ebx, -56(%ebp)
	jmp	.L689
.LVL901:
.L670:
.LBE510:
.LBE509:
.LBE514:
	.loc 1 8284 0
	andl	$127, %edx
	movb	%dl, 224(%eax)
	jmp	.L668
.LVL902:
.L685:
.LBE499:
.LBE498:
.LBE497:
	.loc 1 8358 0
	movl	$0, -56(%ebp)
.L689:
.LVL903:
.LBB658:
.LBB641:
.LBB624:
	.loc 1 8287 0
	testb	%cl, %cl
	jne	.L1066
	jmp	.L691
.LVL904:
.L668:
.LBB515:
.LBB512:
.LBB511:
	.loc 1 7641 0
	movl	$0, -56(%ebp)
.LVL905:
.L691:
.LBE511:
.LBE512:
.LBE515:
	.loc 1 8294 0
	movl	_radio+276, %eax
	movb	12(%esi), %dl
	movb	224(%eax), %al
	shrb	$3, %dl
	andl	$1, %edx
	shrb	%al
	andl	$1, %eax
	cmpb	%al, %dl
	jne	.L693
	.loc 1 8295 0
	movl	$3, %eax
	call	packet_rx_reserve_get
.LVL906:
	.loc 1 8294 0
	testl	%eax, %eax
	je	.L693
	.loc 1 8295 0
	cmpb	$0, _radio+382
	movl	_radio+276, %edx
	je	.L694
	.loc 1 8297 0
	movl	_radio+328, %eax
	movl	_radio+332, %ecx
	.loc 1 8296 0
	cmpl	%ecx, %eax
	jne	.L695
	.loc 1 8298 0
	movb	_radio+380, %cl
	.loc 1 8297 0
	cmpb	_radio+381, %cl
	je	.L694
.L695:
	.loc 1 8299 0
	movl	_radio+332, %ecx
	.loc 1 8298 0
	cmpl	%ecx, %eax
	je	.L693
	.loc 1 8300 0
	movb	_radio+380, %al
	.loc 1 8299 0
	cmpb	_radio+381, %al
	je	.L693
	.loc 1 8301 0
	movb	_radio+380, %al
	.loc 1 8300 0
	testb	%al, %al
	jne	.L696
	.loc 1 8301 0
	movl	32(%edx), %eax
	cmpw	%ax, _radio+378
	je	.L694
.L696:
	.loc 1 8304 0
	movb	_radio+380, %al
	.loc 1 8303 0
	testb	%al, %al
	je	.L693
	.loc 1 8305 0
	movzbl	_radio+380, %eax
	.loc 1 8304 0
	movl	32(%edx), %edi
	cmpw	%di, _radio+372(%eax,%eax)
	jne	.L693
.L694:
.LVL907:
.LBB516:
	.loc 1 8308 0
	cmpb	$0, 13(%esi)
	je	.L859
	.loc 1 8309 0
	testb	$16, 224(%edx)
	.loc 1 8307 0
	movb	$0, -68(%ebp)
	.loc 1 8309 0
	je	.L698
.LBB517:
	.loc 1 8311 0
	call	radio_ccm_is_done
.LVL908:
	.loc 1 8313 0
	movb	$1, -68(%ebp)
.LVL909:
.L698:
.LBE517:
	.loc 1 8315 0
	movl	_radio+276, %eax
	testb	$16, 224(%eax)
	jne	.L699
.L702:
	.loc 1 8317 0
	movl	_radio+276, %ebx
	movb	224(%ebx), %al
	.loc 1 8316 0
	testb	$4, %al
	.loc 1 8317 0
	movb	%al, -44(%ebp)
	.loc 1 8316 0
	jne	.L700
	jmp	.L701
.L699:
	call	radio_ccm_mic_is_valid
.LVL910:
	.loc 1 8315 0
	testl	%eax, %eax
	jne	.L702
.L703:
	.loc 1 8320 0
	movl	$3, _radio+20
	.loc 1 8321 0
	call	radio_disable
.LVL911:
	.loc 1 8322 0
	call	radio_is_ready
.LVL912:
	.loc 1 8323 0
	movl	_radio+276, %eax
	movl	$61, %edx
	call	terminate_ind_rx_enqueue
.LVL913:
.L1066:
	.loc 1 8325 0
	movl	_radio+276, %eax
	call	connection_release
.LVL914:
	.loc 1 8326 0
	movl	$0, _radio+276
.LVL915:
.LBE516:
.LBE624:
.LBE641:
.LBE658:
	.loc 1 8408 0
	movb	$0, -44(%ebp)
	jmp	.L800
.LVL916:
.L700:
.LBB659:
.LBB642:
.LBB625:
.LBB608:
.LBB518:
.LBB519:
	.loc 1 8231 0
	movb	12(%esi), %al
	andl	$3, %eax
	cmpb	$3, %al
	jne	.L703
	.loc 1 8216 0
	cmpb	$0, 29(%ebx)
	.loc 1 8215 0
	movb	15(%esi), %al
	.loc 1 8216 0
	js	.L704
	.loc 1 8217 0
	testb	$64, -44(%ebp)
	jne	.L705
	.loc 1 8219 0
	cmpb	$2, %al
	je	.L701
	cmpb	$5, %al
	jne	.L706
	jmp	.L701
.L705:
	.loc 1 8225 0
	cmpb	$11, %al
	ja	.L706
	movl	$2100, %edx
	btl	%eax, %edx
	jc	.L701
.LVL917:
.L706:
	.loc 1 8223 0
	leal	-13(%eax), %edx
	andb	$-5, %dl
	je	.L701
	cmpb	$6, %al
	jmp	.L1055
.L704:
	.loc 1 8232 0
	testb	$64, -44(%ebp)
	jne	.L709
	.loc 1 8234 0
	movb	%al, %dl
	andl	$-5, %edx
	cmpb	$2, %dl
	jne	.L710
	jmp	.L701
.L709:
	.loc 1 8239 0
	cmpb	$11, %al
	ja	.L710
	movl	$2124, %edx
	btl	%eax, %edx
	jc	.L701
.L710:
	.loc 1 8237 0
	subl	$13, %eax
.LVL918:
	testb	$-5, %al
.L1055:
	jne	.L703
.LVL919:
.L701:
.LBE519:
.LBE518:
	.loc 1 8331 0
	movb	12(%esi), %al
	andb	$3, %al
	je	.L1061
	cmpb	$2, %al
	jbe	.L1062
.LVL920:
.LBB520:
.LBB521:
	.loc 1 7782 0
	movb	29(%ebx), %al
	movb	15(%esi), %cl
	andb	$-128, %al
	movb	%al, -60(%ebp)
	je	.L713
	cmpb	$25, %cl
	ja	.L714
	movl	$1, %eax
	movzbl	%cl, %edx
	sall	%cl, %eax
	testl	$42025008, %eax
	jmp	.L1079
.L713:
	cmpb	$24, %cl
	ja	.L714
	movl	$1, %eax
	movzbl	%cl, %edx
	sall	%cl, %eax
	testl	$16778507, %eax
.LVL921:
.L1079:
	jne	.L716
.L714:
	.loc 1 7811 0
	movzbl	15(%esi), %edx
	cmpb	$25, %dl
	ja	.L716
	jmp	*.L718(,%edx,4)
	.section	.rodata.isr
	.align 4
	.align 4
.L718:
	.long	.L717
	.long	.L719
	.long	.L720
	.long	.L721
	.long	.L722
	.long	.L723
	.long	.L724
	.long	.L725
	.long	.L726
	.long	.L727
	.long	.L728
	.long	.L729
	.long	.L730
	.long	.L731
	.long	.L726
	.long	.L732
	.long	.L733
	.long	.L734
	.long	.L716
	.long	.L716
	.long	.L716
	.long	.L716
	.long	.L735
	.long	.L736
	.long	.L737
	.long	.L738
	.section	.text.isr
.L717:
.LVL922:
.LBB522:
.LBB523:
	.loc 1 11083 0
	movzwl	25(%esi), %eax
	subw	34(%ebx), %ax
	movzwl	%ax, %eax
	cmpl	$32767, %eax
	jg	.L791
	.loc 1 11088 0
	cmpl	$0, _radio+388
	jne	.L740
	.loc 1 11090 0
	movl	%ebx, _radio+388
.L740:
	.loc 1 11093 0
	movb	16(%esi), %al
	.loc 1 11109 0
	movb	180(%ebx), %dl
	.loc 1 11092 0
	movb	%al, 120(%ebx)
	.loc 1 11094 0
	movzwl	17(%esi), %eax
	imull	$1250, %eax, %eax
	movl	%eax, 116(%ebx)
	.loc 1 11098 0
	movw	19(%esi), %ax
	.loc 1 11097 0
	movw	%ax, 106(%ebx)
	.loc 1 11100 0
	movw	21(%esi), %ax
	.loc 1 11099 0
	movw	%ax, 108(%ebx)
	.loc 1 11102 0
	movw	23(%esi), %ax
	.loc 1 11101 0
	movw	%ax, 110(%ebx)
	.loc 1 11104 0
	movw	25(%esi), %ax
	.loc 1 11106 0
	andb	$-8, 104(%ebx)
	.loc 1 11108 0
	decb	97(%ebx)
	.loc 1 11109 0
	cmpb	181(%ebx), %dl
	.loc 1 11107 0
	movl	$1, 100(%ebx)
	.loc 1 11103 0
	movw	%ax, 112(%ebx)
	.loc 1 11109 0
	je	.L741
	movb	182(%ebx), %al
	andl	$7, %eax
	cmpb	$4, %al
	jne	.L741
	.loc 1 11111 0
	movb	%dl, 181(%ebx)
	jmp	.L741
.LVL923:
.L719:
.LBE523:
.LBE522:
.LBB524:
.LBB525:
	.loc 1 11118 0
	movzwl	21(%esi), %eax
	subw	34(%ebx), %ax
	movzwl	%ax, %eax
	cmpl	$32767, %eax
	jg	.L791
	.loc 1 11123 0
	movl	16(%esi), %eax
	movl	%eax, 105(%ebx)
	movb	20(%esi), %al
	movb	%al, 109(%ebx)
	.loc 1 11127 0
	movw	21(%esi), %ax
	.loc 1 11128 0
	movb	$0, 104(%ebx)
	.loc 1 11129 0
	movl	$2, 100(%ebx)
	.loc 1 11130 0
	decb	97(%ebx)
.LVL924:
	.loc 1 11126 0
	movw	%ax, 110(%ebx)
	jmp	.L1061
.L720:
.LBE525:
.LBE524:
	.loc 1 7826 0
	movb	16(%esi), %al
	.loc 1 7825 0
	movb	%al, 163(%ebx)
	jmp	.L1061
.L721:
	.loc 1 7829 0
	movl	26(%esi), %eax
	movl	30(%esi), %edx
	movl	%eax, 132(%ebx)
	movl	%edx, 136(%ebx)
	.loc 1 7832 0
	movl	34(%esi), %edx
	movl	_radio+276, %eax
	movl	%edx, 250(%eax)
	.loc 1 7834 0
	movl	_radio+276, %eax
	.loc 1 7835 0
	movw	54(%eax), %dx
	.loc 1 7834 0
	orb	$4, 224(%eax)
	.loc 1 7835 0
	movw	%dx, 56(%eax)
.LVL925:
	jmp	.L1062
.LVL926:
.L722:
	.loc 1 7840 0
	movl	16(%esi), %eax
	movl	20(%esi), %edx
	movl	%eax, 140(%ebx)
	movl	%edx, 144(%ebx)
	.loc 1 7843 0
	movl	_radio+276, %eax
	movl	24(%esi), %edx
	movl	%edx, 254(%eax)
	.loc 1 7846 0
	movl	_radio+276, %eax
	orb	$4, 224(%eax)
	jmp	.L1061
.L723:
	.loc 1 7853 0
	movb	97(%ebx), %al
	.loc 1 7851 0
	movb	$0, 104(%ebx)
	.loc 1 7852 0
	movl	$3, 100(%ebx)
	.loc 1 7853 0
	decl	%eax
	movb	%al, 97(%ebx)
	jmp	.L1061
.L724:
	.loc 1 7856 0
	movl	_radio+16, %eax
	cmpl	$3, %eax
	jne	.L744
	.loc 1 7861 0
	movb	97(%ebx), %al
	.loc 1 7859 0
	movb	$0, 104(%ebx)
	.loc 1 7860 0
	movl	$3, 100(%ebx)
	.loc 1 7861 0
	decl	%eax
	movb	%al, 97(%ebx)
	jmp	.L745
.L744:
	.loc 1 7864 0
	andb	$-13, 224(%ebx)
.L745:
	.loc 1 7866 0
	movl	_radio+276, %edx
	movb	224(%edx), %al
	testb	$64, %al
	je	.L746
	.loc 1 7867 0
	andl	$-65, %eax
	movb	%al, 224(%edx)
	.loc 1 7868 0
	movl	$6, 4(%esi)
.L746:
.LVL927:
	.loc 1 7871 0
	movw	$0, 56(%edx)
.LVL928:
.L1062:
	.loc 1 7870 0
	movb	$1, -44(%ebp)
	jmp	.L844
.LVL929:
.L726:
.LBB526:
.LBB527:
	.loc 1 11329 0
	subl	$12, %esp
	pushl	$_radio+344
	call	mem_acquire
.LVL930:
	.loc 1 11330 0
	addl	$16, %esp
	testl	%eax, %eax
	.loc 1 11329 0
	movl	%eax, %edx
.LVL931:
	.loc 1 11330 0
	je	.L693
.LVL932:
	.loc 1 11334 0
	movzbl	16(%esi), %eax
.LVL933:
	movl	_radio+276, %edi
	orl	$-118576, %eax
	movl	%eax, %ecx
	movzbl	17(%esi), %eax
	sall	$8, %eax
	orl	%ecx, %eax
	movzbl	18(%esi), %ecx
	.loc 1 11335 0
	orb	$32, 60(%edi)
.LVL934:
	.loc 1 11334 0
	sall	$16, %ecx
	orl	%ecx, %eax
	andl	148(%edi), %eax
	.loc 1 11347 0
	movl	$2, %ecx
	.loc 1 11334 0
	andl	$131071, %eax
	movl	%eax, 148(%edi)
	.loc 1 11347 0
	leal	8(%edx), %eax
	.loc 1 11337 0
	orb	$3, 4(%edx)
	.loc 1 11338 0
	movb	$9, 5(%edx)
	.loc 1 11346 0
	movb	$9, 7(%edx)
	.loc 1 11347 0
	movl	%eax, %edi
	xorl	%eax, %eax
	rep stosl
	.loc 1 11350 0
	movl	148(%ebx), %eax
	movb	%al, 8(%edx)
	.loc 1 11352 0
	movl	148(%ebx), %eax
	shrl	$8, %eax
	movb	%al, 9(%edx)
	.loc 1 11354 0
	movzwl	150(%ebx), %eax
	movb	%al, 10(%edx)
	.loc 1 11356 0
	movl	%ebx, %eax
	call	ctrl_tx_sec_enqueue
.LVL935:
	jmp	.L1061
.LVL936:
.L727:
.LBE527:
.LBE526:
.LBB528:
	.loc 1 7883 0
	movzbl	16(%esi), %eax
	movzbl	17(%esi), %edx
	orl	$-118576, %eax
	movl	%eax, %ecx
	movl	%edx, %eax
	movzbl	18(%esi), %edx
	sall	$8, %eax
	.loc 1 7884 0
	orb	$32, 60(%ebx)
.LVL937:
	.loc 1 7883 0
	orl	%ecx, %eax
	sall	$16, %edx
	orl	%edx, %eax
	andl	148(%ebx), %eax
	andl	$131071, %eax
	movl	%eax, 148(%ebx)
	jmp	.L1073
.LVL938:
.L728:
.LBE528:
	.loc 1 7890 0
	movl	$1, %edx
	jmp	.L1058
.L729:
	.loc 1 7893 0
	xorl	%edx, %edx
.L1058:
	movl	%ebx, %eax
	call	pause_enc_rsp_send
.LVL939:
	jmp	.L715
.LVL940:
.L730:
.LBB529:
.LBB530:
	.loc 1 11365 0
	movb	152(%ebx), %al
	testb	$1, %al
	jne	.L748
	.loc 1 11366 0
	subl	$12, %esp
	pushl	$_radio+344
	call	mem_acquire
.LVL941:
	.loc 1 11367 0
	addl	$16, %esp
	testl	%eax, %eax
	je	.L693
	.loc 1 11370 0
	orb	$1, 152(%ebx)
.LVL942:
	.loc 1 11387 0
	movl	%eax, %edx
	.loc 1 11373 0
	movb	$6, 5(%eax)
	.loc 1 11372 0
	orb	$3, 4(%eax)
	.loc 1 11381 0
	movb	$12, 7(%eax)
.LVL943:
	.loc 1 11384 0
	movb	$9, 8(%eax)
	.loc 1 11385 0
	movw	$-1, 9(%eax)
	.loc 1 11386 0
	movw	$-1, 11(%eax)
	.loc 1 11387 0
	movl	%ebx, %eax
.LVL944:
	call	ctrl_tx_sec_enqueue
.LVL945:
.LBB531:
.LBB532:
	.loc 1 10914 0
	orb	$-128, 224(%ebx)
	.loc 1 10915 0
	call	radio_pkt_empty_get
.LVL946:
	.loc 1 10916 0
	movb	(%eax), %dl
	.loc 1 10917 0
	movb	$0, 1(%eax)
	.loc 1 10916 0
	andl	$-4, %edx
	movb	%dl, %cl
	orl	$1, %ecx
	movb	%cl, (%eax)
	.loc 1 10918 0
	cmpl	$0, 292(%ebx)
	je	.L749
	.loc 1 10919 0
	orl	$17, %edx
	movb	%dl, (%eax)
	jmp	.L1056
.L749:
	.loc 1 10921 0
	andl	$-17, %ecx
	movb	%cl, (%eax)
.L1056:
.LBE532:
.LBE531:
.LBE530:
.LBE529:
.LBE521:
.LBE520:
.LBE608:
.LBE625:
.LBE642:
.LBE659:
	.loc 1 8364 0
	movb	$0, -44(%ebp)
	jmp	.L750
.LVL947:
.L748:
.LBB660:
.LBB643:
.LBB626:
.LBB609:
.LBB594:
.LBB580:
.LBB535:
.LBB533:
	.loc 1 11389 0
	testb	$2, %al
.LBE533:
.LBE535:
.LBE580:
.LBE594:
.LBE609:
.LBE626:
.LBE643:
.LBE660:
	.loc 1 8364 0
	movb	$0, -44(%ebp)
.LBB661:
.LBB644:
.LBB627:
.LBB610:
.LBB595:
.LBB581:
.LBB536:
.LBB534:
	.loc 1 11389 0
	jne	.L844
	.loc 1 11390 0
	movw	$0, 56(%ebx)
.LVL948:
	.loc 1 11391 0
	movb	$1, -44(%ebp)
.LVL949:
.L750:
	.loc 1 11396 0
	movb	16(%esi), %al
	movb	%al, 153(%ebx)
	.loc 1 11397 0
	movw	17(%esi), %ax
	movw	%ax, 154(%ebx)
	.loc 1 11398 0
	movw	19(%esi), %ax
	.loc 1 11399 0
	orb	$2, 152(%ebx)
	.loc 1 11398 0
	movw	%ax, 156(%ebx)
	jmp	.L844
.LVL950:
.L731:
.LBE534:
.LBE536:
	.loc 1 7901 0
	andb	$-13, 224(%ebx)
.LVL951:
.L1073:
	.loc 1 7902 0
	movw	$0, 56(%ebx)
.LVL952:
	jmp	.L1062
.LVL953:
.L732:
	.loc 1 7906 0
	movl	_radio+388, %edi
	cmpl	%edi, %ebx
	je	.L751
	testl	%edi, %edi
	.loc 1 7907 0
	movl	$32, %ecx
	.loc 1 7906 0
	jne	.L1077
.L751:
	.loc 1 7912 0
	cmpb	$0, -60(%ebp)
	movb	181(%ebx), %al
	movb	%al, -64(%ebp)
	jne	.L752
.LVL954:
.LBB537:
	.loc 1 7914 0
	cmpb	%al, 180(%ebx)
	je	.L753
	.loc 1 7917 0
	movb	182(%ebx), %al
	andl	$7, %eax
	.loc 1 7919 0
	leal	-4(%eax), %edx
	cmpb	$1, %dl
	jbe	.L894
	testb	%al, %al
	jne	.L753
.L894:
	.loc 1 7922 0
	movl	$35, %ecx
	jmp	.L1077
.L753:
	.loc 1 7925 0
	movb	97(%ebx), %al
	cmpb	%al, 96(%ebx)
	je	.L755
	cmpl	$3, 100(%ebx)
	jne	.L756
.L755:
	.loc 1 7926 0
	movb	221(%ebx), %al
	cmpb	%al, 220(%ebx)
	je	.L757
.L756:
	.loc 1 7928 0
	movl	$42, %ecx
	jmp	.L1077
.L757:
.LVL955:
.LBB538:
	.loc 1 7934 0
	movw	16(%esi), %ax
	cmpw	$5, %ax
	movw	%ax, -72(%ebp)
	jbe	.L765
	.loc 1 7935 0
	movw	18(%esi), %ax
	cmpw	%ax, -72(%ebp)
	movw	%ax, -60(%ebp)
	ja	.L765
	cmpw	$3200, %ax
	ja	.L765
	.loc 1 7937 0
	movw	20(%esi), %cx
	.loc 1 7936 0
	cmpw	$499, %cx
	ja	.L765
	.loc 1 7938 0
	movw	22(%esi), %ax
	leal	-10(%eax), %edx
	cmpw	$3190, %dx
	ja	.L765
	.loc 1 7940 0
	movzwl	%ax, %edx
	movl	%edx, -76(%ebp)
	.loc 1 7939 0
	sall	$2, %edx
	movl	%edx, -80(%ebp)
	movzwl	%cx, %edx
	incl	%edx
	movl	%edx, -84(%ebp)
	movzwl	-60(%ebp), %edx
	imull	-84(%ebp), %edx
	cmpl	%edx, -80(%ebp)
	jle	.L765
	.loc 1 7942 0
	movzbl	24(%esi), %edx
	cmpw	%dx, -60(%ebp)
	jb	.L765
	.loc 1 7950 0
	movl	-72(%ebp), %edx
	.loc 1 7951 0
	movw	%cx, 186(%ebx)
	.loc 1 7952 0
	movw	%ax, 188(%ebx)
	.loc 1 7950 0
	movw	%dx, 184(%ebx)
	.loc 1 7954 0
	movb	24(%esi), %al
	.loc 1 7953 0
	movb	%al, 190(%ebx)
	.loc 1 7955 0
	movw	25(%esi), %ax
	movw	%ax, 192(%ebx)
	.loc 1 7957 0
	movw	27(%esi), %ax
	movw	%ax, 194(%ebx)
	.loc 1 7958 0
	movw	29(%esi), %ax
	movw	%ax, 196(%ebx)
	.loc 1 7959 0
	movw	31(%esi), %ax
	movw	%ax, 198(%ebx)
	.loc 1 7960 0
	movw	33(%esi), %ax
	movw	%ax, 200(%ebx)
	.loc 1 7961 0
	movw	35(%esi), %ax
	movw	%ax, 202(%ebx)
	.loc 1 7962 0
	movw	37(%esi), %ax
	movw	%ax, 204(%ebx)
	.loc 1 7963 0
	movl	36(%ebx), %eax
	cmpl	%eax, 184(%ebx)
	jne	.L760
	.loc 1 7967 0
	movzwl	36(%ebx), %ecx
	.loc 1 7966 0
	imull	$10000, -76(%ebp), %eax
	.loc 1 7967 0
	imull	$1250, %ecx, %ecx
	.loc 1 7966 0
	leal	-1(%ecx,%eax), %eax
	cltd
	idivl	%ecx
	cmpw	%ax, 50(%ebx)
	je	.L761
.L760:
	.loc 1 7970 0
	testb	$8, -44(%ebp)
	movb	182(%ebx), %al
	je	.L762
	.loc 1 7971 0
	andl	$-8, %eax
	orl	$2, %eax
	jmp	.L1057
.L762:
.LVL956:
	.loc 1 7975 0
	andl	$-8, %eax
	.loc 1 7974 0
	movb	$1, -44(%ebp)
	.loc 1 7975 0
	orl	$3, %eax
	movb	%al, 182(%ebx)
	jmp	.L763
.LVL957:
.L761:
	.loc 1 7981 0
	movb	182(%ebx), %al
	.loc 1 7979 0
	movb	$0, 183(%ebx)
	.loc 1 7981 0
	andl	$-16, %eax
	orl	$1, %eax
.L1057:
	movb	%al, 182(%ebx)
.LBE538:
.LBE537:
.LBE581:
.LBE595:
.LBE610:
.LBE627:
.LBE644:
.LBE661:
	.loc 1 8364 0
	movb	$0, -44(%ebp)
.LVL958:
.L763:
.LBB662:
.LBB645:
.LBB628:
.LBB611:
.LBB596:
.LBB582:
.LBB540:
.LBB539:
	.loc 1 7984 0
	movb	-64(%ebp), %al
	decl	%eax
	.loc 1 7985 0
	testl	%edi, %edi
	.loc 1 7984 0
	movb	%al, 181(%ebx)
	jmp	.L1076
.LVL959:
.L752:
.LBE539:
.LBE540:
	.loc 1 7989 0
	movb	-64(%ebp), %al
	cmpb	%al, 180(%ebx)
	je	.L764
	.loc 1 7992 0
	testb	$3, 182(%ebx)
.LBE582:
.LBE596:
.LBE611:
.LBE628:
.LBE645:
.LBE662:
	.loc 1 8364 0
	movb	$0, -44(%ebp)
.LBB663:
.LBB646:
.LBB629:
.LBB612:
.LBB597:
.LBB583:
	.loc 1 7992 0
	jne	.L844
.L764:
.LVL960:
.LBB541:
	.loc 1 7998 0
	movw	16(%esi), %cx
	cmpw	$5, %cx
	jbe	.L765
	.loc 1 7999 0
	movw	18(%esi), %ax
	cmpw	%ax, %cx
	movw	%ax, -44(%ebp)
	ja	.L765
	cmpw	$3200, %ax
	ja	.L765
	.loc 1 8001 0
	movw	20(%esi), %di
	.loc 1 8000 0
	cmpw	$499, %di
	ja	.L765
	.loc 1 8002 0
	movw	22(%esi), %ax
	leal	-10(%eax), %edx
	cmpw	$3190, %dx
	ja	.L765
	.loc 1 8003 0
	movzwl	%ax, %edx
	movl	%edx, -60(%ebp)
	.loc 1 8002 0
	sall	$2, %edx
	movl	%edx, -72(%ebp)
	movzwl	%di, %edx
	incl	%edx
	movl	%edx, -76(%ebp)
	movzwl	-44(%ebp), %edx
	imull	-76(%ebp), %edx
	cmpl	%edx, -72(%ebp)
	jle	.L765
	.loc 1 8004 0
	movzbl	24(%esi), %edx
	cmpw	%dx, -44(%ebp)
	jnb	.L766
.LVL961:
.L765:
	.loc 1 8006 0
	movl	$30, %ecx
.L1077:
	movl	$15, %edx
	jmp	.L1059
.LVL962:
.L766:
	.loc 1 8011 0
	movw	%cx, 184(%ebx)
	.loc 1 8012 0
	movw	%di, 186(%ebx)
	.loc 1 8013 0
	movw	%ax, 188(%ebx)
	.loc 1 8015 0
	movb	24(%esi), %al
	.loc 1 8014 0
	movb	%al, 190(%ebx)
	.loc 1 8016 0
	movw	25(%esi), %ax
	movw	%ax, 192(%ebx)
	.loc 1 8018 0
	movw	27(%esi), %ax
	movw	%ax, 194(%ebx)
	.loc 1 8019 0
	movw	29(%esi), %ax
	movw	%ax, 196(%ebx)
	.loc 1 8020 0
	movw	31(%esi), %ax
	movw	%ax, 198(%ebx)
	.loc 1 8021 0
	movw	33(%esi), %ax
	movw	%ax, 200(%ebx)
	.loc 1 8022 0
	movw	35(%esi), %ax
	movw	%ax, 202(%ebx)
	.loc 1 8023 0
	movw	37(%esi), %ax
	movw	%ax, 204(%ebx)
	.loc 1 8024 0
	movl	36(%ebx), %eax
	cmpl	%eax, 184(%ebx)
	jne	.L767
	.loc 1 8027 0
	movzwl	36(%ebx), %ecx
	.loc 1 8026 0
	imull	$10000, -60(%ebp), %eax
	.loc 1 8027 0
	imull	$1250, %ecx, %ecx
	.loc 1 8026 0
	leal	-1(%ecx,%eax), %eax
	cltd
	idivl	%ecx
	cmpw	%ax, 50(%ebx)
	je	.L768
.L767:
.LVL963:
	.loc 1 8031 0
	movb	182(%ebx), %al
	.loc 1 8030 0
	movb	$1, -44(%ebp)
	.loc 1 8031 0
	andl	$-8, %eax
	orl	$3, %eax
	movb	%al, 182(%ebx)
	jmp	.L769
.LVL964:
.L768:
	.loc 1 8036 0
	movb	182(%ebx), %al
	.loc 1 8034 0
	movb	$0, 183(%ebx)
.LBE541:
.LBE583:
.LBE597:
.LBE612:
.LBE629:
.LBE646:
.LBE663:
	.loc 1 8364 0
	movb	$0, -44(%ebp)
.LBB664:
.LBB647:
.LBB630:
.LBB613:
.LBB598:
.LBB584:
.LBB542:
	.loc 1 8036 0
	andl	$-16, %eax
	orl	$1, %eax
	movb	%al, 182(%ebx)
.LVL965:
.L769:
	.loc 1 8039 0
	movb	-64(%ebp), %al
	decl	%eax
	movb	%al, 181(%ebx)
	.loc 1 8040 0
	cmpl	$0, _radio+388
.LVL966:
.L1076:
	jne	.L844
	.loc 1 8041 0
	movl	%ebx, _radio+388
	jmp	.L844
.LVL967:
.L733:
.LBE542:
	.loc 1 8048 0
	cmpb	$0, -60(%ebp)
	jne	.L1061
	movb	181(%ebx), %al
	cmpb	%al, 180(%ebx)
	je	.L1061
	.loc 1 8050 0
	movb	182(%ebx), %al
.LBE584:
.LBE598:
.LBE613:
.LBE630:
.LBE647:
.LBE664:
	.loc 1 8364 0
	movb	$0, -44(%ebp)
.LBB665:
.LBB648:
.LBB631:
.LBB614:
.LBB599:
.LBB585:
	.loc 1 8050 0
	andl	$7, %eax
	cmpb	$4, %al
	jne	.L844
.LVL968:
.LBB543:
	.loc 1 8056 0
	movw	16(%esi), %cx
	cmpw	$5, %cx
	jbe	.L770
	.loc 1 8057 0
	movw	18(%esi), %ax
	cmpw	%ax, %cx
	movw	%ax, -44(%ebp)
	ja	.L770
	cmpw	$3200, %ax
	ja	.L770
	.loc 1 8059 0
	movw	20(%esi), %di
	.loc 1 8058 0
	cmpw	$499, %di
	ja	.L770
	.loc 1 8060 0
	movw	22(%esi), %ax
	leal	-10(%eax), %edx
	cmpw	$3190, %dx
	ja	.L770
	movzwl	%ax, %edx
	sall	$2, %edx
	movl	%edx, -60(%ebp)
	movzwl	%di, %edx
	incl	%edx
	movl	%edx, -64(%ebp)
	movzwl	-44(%ebp), %edx
	imull	-64(%ebp), %edx
	cmpl	%edx, -60(%ebp)
	jle	.L770
	.loc 1 8062 0
	movzbl	24(%esi), %edx
	cmpw	%dx, -44(%ebp)
	jnb	.L771
.L770:
	.loc 1 8064 0
	movl	$30, %ecx
	movl	$16, %edx
	jmp	.L1059
.L771:
	.loc 1 8069 0
	movw	$0, 56(%ebx)
	.loc 1 8070 0
	movw	%cx, 184(%ebx)
	.loc 1 8071 0
	movw	%di, 186(%ebx)
	.loc 1 8072 0
	movw	%ax, 188(%ebx)
	.loc 1 8074 0
	movb	24(%esi), %al
	.loc 1 8073 0
	movb	%al, 190(%ebx)
	.loc 1 8075 0
	movw	25(%esi), %ax
	movw	%ax, 192(%ebx)
	.loc 1 8077 0
	movw	27(%esi), %ax
	movw	%ax, 194(%ebx)
	.loc 1 8078 0
	movw	29(%esi), %ax
	movw	%ax, 196(%ebx)
	.loc 1 8079 0
	movw	31(%esi), %ax
	movw	%ax, 198(%ebx)
	.loc 1 8080 0
	movw	33(%esi), %ax
	movw	%ax, 200(%ebx)
	.loc 1 8081 0
	movw	35(%esi), %ax
	movw	%ax, 202(%ebx)
	.loc 1 8082 0
	movw	37(%esi), %ax
	movw	%ax, 204(%ebx)
	.loc 1 8083 0
	movb	182(%ebx), %al
	andl	$-8, %eax
	orl	$1, %eax
	movb	%al, 182(%ebx)
	jmp	.L1061
.LVL969:
.L734:
.LBE543:
.LBB544:
.LBB545:
	.loc 1 7746 0
	movb	220(%ebx), %al
	.loc 1 7745 0
	cmpb	%al, 221(%ebx)
	je	.L772
.LVL970:
.LBB546:
.LBB547:
	.loc 1 7720 0
	cmpb	$22, 16(%esi)
.LBE547:
.LBE546:
.LBE545:
.LBE544:
.LBE585:
.LBE599:
.LBE614:
.LBE631:
.LBE648:
.LBE665:
	.loc 1 8364 0
	movb	$0, -44(%ebp)
.LBB666:
.LBB649:
.LBB632:
.LBB615:
.LBB600:
.LBB586:
.LBB565:
.LBB561:
.LBB552:
.LBB550:
	.loc 1 7720 0
	jne	.L844
.LBB548:
	.loc 1 7722 0
	cmpb	$35, 17(%esi)
	je	.L773
	.loc 1 7723 0
	movb	%al, 221(%ebx)
	.loc 1 7726 0
	movb	44(%ebx), %al
	.loc 1 7725 0
	movb	45(%ebx), %dl
	.loc 1 7727 0
	movw	$0, 56(%ebx)
	.loc 1 7726 0
	shrb	$3, %al
	andl	$7, %eax
	.loc 1 7725 0
	andl	$-8, %edx
	orl	%edx, %eax
	movb	%al, 45(%ebx)
.LVL971:
.L773:
	.loc 1 7729 0
	testb	$2, 223(%ebx)
.LBE548:
.LBE550:
.LBE552:
.LBE561:
.LBE565:
.LBE586:
.LBE600:
.LBE615:
.LBE632:
.LBE649:
.LBE666:
	.loc 1 8364 0
	movb	$0, -44(%ebp)
.LBB667:
.LBB650:
.LBB633:
.LBB616:
.LBB601:
.LBB587:
.LBB566:
.LBB562:
.LBB553:
.LBB551:
.LBB549:
	.loc 1 7729 0
	je	.L844
	.loc 1 7734 0
	movb	17(%esi), %al
	.loc 1 7732 0
	movl	$8, 4(%esi)
.LVL972:
	.loc 1 7734 0
	movb	%al, 15(%esi)
	jmp	.L1074
.LVL973:
.L772:
.LBE549:
.LBE551:
.LBE553:
	.loc 1 7750 0
	movb	180(%ebx), %al
	.loc 1 7749 0
	cmpb	%al, 181(%ebx)
	je	.L774
.LVL974:
.LBB554:
.LBB555:
	.loc 1 7667 0
	cmpb	$15, 16(%esi)
.LBE555:
.LBE554:
.LBE562:
.LBE566:
.LBE587:
.LBE601:
.LBE616:
.LBE633:
.LBE650:
.LBE667:
	.loc 1 8364 0
	movb	$0, -44(%ebp)
.LBB668:
.LBB651:
.LBB634:
.LBB617:
.LBB602:
.LBB588:
.LBB567:
.LBB563:
.LBB558:
.LBB556:
	.loc 1 7667 0
	jne	.L844
.LVL975:
	.loc 1 7671 0
	cmpb	$0, -60(%ebp)
	jne	.L775
	cmpb	$26, 17(%esi)
	jne	.L775
	.loc 1 7676 0
	movl	184(%ebx), %edx
	.loc 1 7673 0
	movb	182(%ebx), %al
	.loc 1 7679 0
	movb	104(%ebx), %cl
	.loc 1 7674 0
	movb	$1, 120(%ebx)
	.loc 1 7675 0
	movl	$0, 116(%ebx)
	.loc 1 7681 0
	movl	$1, 100(%ebx)
	.loc 1 7676 0
	movw	%dx, 106(%ebx)
	.loc 1 7677 0
	movw	186(%ebx), %dx
	.loc 1 7673 0
	andl	$-8, %eax
	orl	$5, %eax
	.loc 1 7679 0
	andl	$-8, %ecx
	.loc 1 7682 0
	decb	97(%ebx)
	.loc 1 7673 0
	movb	%al, 182(%ebx)
	.loc 1 7680 0
	shrb	$3, %al
	.loc 1 7677 0
	movw	%dx, 108(%ebx)
	.loc 1 7678 0
	movl	188(%ebx), %edx
	.loc 1 7680 0
	xorl	$1, %eax
	andl	$1, %eax
	.loc 1 7678 0
	movw	%dx, 110(%ebx)
	.loc 1 7680 0
	leal	0(,%eax,4), %edx
	movb	%cl, %al
	orl	$1, %eax
	orl	%edx, %eax
	movb	%al, 104(%ebx)
	jmp	.L844
.L775:
	.loc 1 7685 0
	cmpb	$35, 17(%esi)
	je	.L777
	.loc 1 7693 0
	cmpb	$0, -60(%ebp)
	.loc 1 7687 0
	movl	$0, _radio+388
	.loc 1 7690 0
	movb	%al, 181(%ebx)
	.loc 1 7692 0
	movw	$0, 56(%ebx)
	.loc 1 7693 0
	je	.L777
	.loc 1 7694 0
	movl	216(%ebx), %eax
	movl	%eax, 92(%ebx)
.L777:
	.loc 1 7698 0
	testb	$8, 182(%ebx)
.LBE556:
.LBE558:
.LBE563:
.LBE567:
.LBE588:
.LBE602:
.LBE617:
.LBE634:
.LBE651:
.LBE668:
	.loc 1 8364 0
	movb	$0, -44(%ebp)
.LBB669:
.LBB652:
.LBB635:
.LBB618:
.LBB603:
.LBB589:
.LBB568:
.LBB564:
.LBB559:
.LBB557:
	.loc 1 7698 0
	je	.L844
	.loc 1 7704 0
	movb	17(%esi), %al
	.loc 1 7701 0
	movl	$5, 4(%esi)
.LVL976:
	.loc 1 7704 0
	movb	%al, 15(%esi)
	.loc 1 7706 0
	movw	38(%ebx), %dx
	.loc 1 7705 0
	movzwl	36(%ebx), %eax
	.loc 1 7706 0
	movw	%dx, 18(%esi)
	.loc 1 7707 0
	movzwl	50(%ebx), %edx
	.loc 1 7705 0
	movw	%ax, 16(%esi)
	.loc 1 7707 0
	imull	%edx, %eax
	sarl	$3, %eax
	movw	%ax, 20(%esi)
.LVL977:
	jmp	.L1062
.LVL978:
.L774:
.LBE557:
.LBE559:
.LBB560:
	.loc 1 7759 0
	cmpb	$3, 16(%esi)
	jne	.L1061
	.loc 1 7762 0
	andb	$-13, 224(%ebx)
	.loc 1 7763 0
	movw	$0, 56(%ebx)
	.loc 1 7766 0
	movb	17(%esi), %al
	.loc 1 7764 0
	movb	$13, 15(%esi)
	.loc 1 7766 0
	movb	%al, 16(%esi)
.LVL979:
	jmp	.L1062
.LVL980:
.L725:
.LBE560:
.LBE564:
.LBE568:
	.loc 1 8091 0
	movb	220(%ebx), %al
	cmpb	221(%ebx), %al
.LBB569:
	.loc 1 8114 0
	movb	$1, -44(%ebp)
.LBE569:
	.loc 1 8091 0
	je	.L1064
.LBB570:
	.loc 1 8094 0
	movb	%al, 221(%ebx)
	.loc 1 8097 0
	movb	44(%ebx), %al
	.loc 1 8096 0
	movb	45(%ebx), %dl
	.loc 1 8097 0
	shrb	$3, %al
	andl	$7, %eax
	.loc 1 8096 0
	andl	$-8, %edx
	orl	%edx, %eax
	.loc 1 8098 0
	testb	$2, 223(%ebx)
	.loc 1 8096 0
	movb	%al, 45(%ebx)
.LVL981:
.LBE570:
.LBE589:
.LBE603:
.LBE618:
.LBE635:
.LBE652:
.LBE669:
	.loc 1 8364 0
	movb	$0, -44(%ebp)
.LBB670:
.LBB653:
.LBB636:
.LBB619:
.LBB604:
.LBB590:
.LBB571:
	.loc 1 8098 0
	je	.L1064
	.loc 1 8099 0
	movl	$8, 4(%esi)
.LVL982:
	.loc 1 8103 0
	movb	$0, 15(%esi)
	.loc 1 8104 0
	movb	44(%ebx), %al
	.loc 1 8106 0
	movb	$1, -44(%ebp)
	.loc 1 8104 0
	shrb	$3, %al
	andl	$7, %eax
	movb	%al, 16(%esi)
	.loc 1 8105 0
	movb	46(%ebx), %al
	andl	$7, %eax
	movb	%al, 17(%esi)
.LVL983:
	jmp	.L1064
.LVL984:
.L735:
.LBE571:
	.loc 1 8121 0
	movl	_radio+16, %eax
	cmpl	$4, %eax
	jne	.L781
	.loc 1 8122 0
	movb	221(%ebx), %dl
	.loc 1 8123 0
	movb	220(%ebx), %cl
	.loc 1 8122 0
	cmpb	%cl, %dl
	je	.L782
	.loc 1 8123 0
	movb	222(%ebx), %al
	andl	$3, %eax
	decl	%eax
	cmpb	$2, %al
	ja	.L782
	.loc 1 8130 0
	movl	$35, %ecx
	jmp	.L1060
.L782:
	.loc 1 8133 0
	movb	97(%ebx), %al
	cmpb	%al, 96(%ebx)
	je	.L783
	.loc 1 8134 0
	cmpl	$3, 100(%ebx)
	jne	.L784
.L783:
	.loc 1 8136 0
	movb	181(%ebx), %al
	cmpb	%al, 180(%ebx)
	je	.L785
.L784:
	.loc 1 8139 0
	movl	$42, %ecx
.L1060:
	movl	$22, %edx
.L1059:
	movl	%ebx, %eax
	call	reject_ext_ind_send
.LVL985:
	jmp	.L715
.LVL986:
.L785:
.LBB572:
	.loc 1 8147 0
	movb	222(%ebx), %al
	orl	$3, %eax
	.loc 1 8149 0
	cmpb	%cl, %dl
	.loc 1 8147 0
	movb	%al, 222(%ebx)
	.loc 1 8149 0
	jne	.L786
	.loc 1 8151 0
	decl	%edx
	.loc 1 8154 0
	movb	44(%ebx), %cl
	.loc 1 8153 0
	andl	$3, %eax
	.loc 1 8151 0
	movb	%dl, 221(%ebx)
	.loc 1 8156 0
	movb	45(%ebx), %dl
	.loc 1 8152 0
	andb	$-3, 223(%ebx)
.LVL987:
	.loc 1 8154 0
	andl	$7, %ecx
	.loc 1 8153 0
	sall	$2, %ecx
	.loc 1 8156 0
	shrb	$3, %dl
	.loc 1 8155 0
	sall	$5, %edx
	orl	%ecx, %eax
	orl	%edx, %eax
	movb	%al, 222(%ebx)
.L786:
	.loc 1 8158 0
	movb	222(%ebx), %cl
	movb	%cl, %dl
	movb	%cl, %al
	shrb	$2, %dl
	andl	$-29, %eax
	andl	$7, %edx
	andb	17(%esi), %dl
	sall	$2, %edx
	orl	%edx, %eax
	.loc 1 8159 0
	movb	%al, %dl
	.loc 1 8158 0
	movb	%al, 222(%ebx)
	.loc 1 8159 0
	andl	$31, %eax
	shrb	$5, %dl
	andb	16(%esi), %dl
	sall	$5, %edx
	orl	%edx, %eax
	movb	%al, 222(%ebx)
	jmp	.L1061
.LVL988:
.L781:
.LBE572:
.LBB573:
.LBB574:
	.loc 1 11436 0
	subl	$12, %esp
	pushl	$_radio+344
	call	mem_acquire
.LVL989:
	.loc 1 11437 0
	addl	$16, %esp
	testl	%eax, %eax
	je	.L693
	.loc 1 11440 0
	movb	222(%ebx), %cl
	.loc 1 11441 0
	movb	221(%ebx), %dl
	.loc 1 11440 0
	andl	$-4, %ecx
	orl	$2, %ecx
	.loc 1 11441 0
	cmpb	220(%ebx), %dl
	.loc 1 11440 0
	movb	%cl, 222(%ebx)
	.loc 1 11441 0
	jne	.L787
	.loc 1 11443 0
	decl	%edx
	.loc 1 11445 0
	andl	$2, %ecx
	.loc 1 11444 0
	andb	$-3, 223(%ebx)
.LVL990:
	.loc 1 11443 0
	movb	%dl, 221(%ebx)
	.loc 1 11446 0
	movb	44(%ebx), %dl
	andl	$7, %edx
	.loc 1 11445 0
	leal	0(,%edx,4), %edi
	.loc 1 11448 0
	movb	45(%ebx), %dl
	.loc 1 11447 0
	orl	%edi, %ecx
	.loc 1 11448 0
	shrb	$3, %dl
	.loc 1 11447 0
	sall	$5, %edx
	orl	%edx, %ecx
	.loc 1 11449 0
	movw	54(%ebx), %dx
	.loc 1 11447 0
	movb	%cl, 222(%ebx)
	.loc 1 11449 0
	movw	%dx, 56(%ebx)
.L787:
.LVL991:
	.loc 1 11454 0
	movb	222(%ebx), %cl
	shrb	$2, %cl
	andl	$7, %ecx
	andb	17(%esi), %cl
	leal	0(,%ecx,4), %edx
	movb	222(%ebx), %cl
	andl	$-29, %ecx
	orl	%edx, %ecx
	.loc 1 11455 0
	movb	%cl, %dl
	.loc 1 11454 0
	movb	%cl, 222(%ebx)
	.loc 1 11455 0
	andl	$31, %ecx
	shrb	$5, %dl
	andb	16(%esi), %dl
	sall	$5, %edx
	orl	%edx, %ecx
	movb	%cl, 222(%ebx)
.LVL992:
	.loc 1 11457 0
	orb	$3, 4(%eax)
	.loc 1 11458 0
	movb	$3, 5(%eax)
	.loc 1 11466 0
	movb	$23, 7(%eax)
	.loc 1 11468 0
	movb	44(%ebx), %dl
	andl	$7, %edx
	.loc 1 11467 0
	movb	%dl, 8(%eax)
	.loc 1 11470 0
	movb	45(%ebx), %dl
	shrb	$3, %dl
	andl	$7, %edx
	movb	%dl, 9(%eax)
	.loc 1 11471 0
	movl	%eax, %edx
	movl	%ebx, %eax
.LVL993:
	call	ctrl_tx_enqueue
.LVL994:
	jmp	.L1061
.LVL995:
.L736:
.LBE574:
.LBE573:
	.loc 1 8166 0
	movl	_radio+16, %eax
.LBE590:
.LBE604:
.LBE619:
.LBE636:
.LBE653:
.LBE670:
	.loc 1 8364 0
	movb	$0, -44(%ebp)
.LBB671:
.LBB654:
.LBB637:
.LBB620:
.LBB605:
.LBB591:
	.loc 1 8166 0
	cmpl	$4, %eax
	jne	.L844
	movb	220(%ebx), %al
	cmpb	%al, 221(%ebx)
	je	.L844
	.loc 1 8168 0
	movb	222(%ebx), %dl
	movb	%dl, %al
	andl	$3, %eax
	cmpb	$2, %al
	jne	.L844
.LVL996:
.LBB575:
	.loc 1 8173 0
	orl	$3, %edx
	.loc 1 8174 0
	movb	%dl, %al
	.loc 1 8173 0
	movb	%dl, 222(%ebx)
	.loc 1 8174 0
	shrb	$2, %al
	andl	$7, %eax
	andb	17(%esi), %al
	leal	0(,%eax,4), %ecx
	movb	%dl, %al
	andl	$-29, %eax
	orl	%ecx, %eax
	.loc 1 8175 0
	movb	%al, %dl
	.loc 1 8174 0
	movb	%al, 222(%ebx)
	.loc 1 8175 0
	andl	$31, %eax
	shrb	$5, %dl
	andb	16(%esi), %dl
	sall	$5, %edx
	orl	%edx, %eax
	movb	%al, 222(%ebx)
.LVL997:
.L1064:
	.loc 1 8176 0
	movw	$0, 56(%ebx)
	jmp	.L844
.LVL998:
.L737:
.LBE575:
.LBB576:
.LBB577:
	.loc 1 11141 0
	movb	16(%esi), %al
	orb	17(%esi), %al
	testb	$7, %al
	jne	.L788
.LBB578:
	.loc 1 11143 0
	movb	220(%ebx), %dl
	cmpb	%dl, 221(%ebx)
	je	.L1061
	movb	222(%ebx), %al
	andl	$3, %eax
	cmpb	$2, %al
	jne	.L1061
	.loc 1 11149 0
	testb	$2, 223(%ebx)
	.loc 1 11147 0
	movb	%dl, 221(%ebx)
	.loc 1 11148 0
	movw	$0, 56(%ebx)
	.loc 1 11149 0
	je	.L1061
	.loc 1 11152 0
	movl	$8, 4(%esi)
.LVL999:
	.loc 1 11154 0
	movb	$0, 15(%esi)
.LVL1000:
.L1074:
	.loc 1 11155 0
	movb	44(%ebx), %al
	shrb	$3, %al
	andl	$7, %eax
	movb	%al, 16(%esi)
	.loc 1 11156 0
	movb	46(%ebx), %al
	andl	$7, %eax
	movb	%al, 17(%esi)
.LVL1001:
	jmp	.L1062
.LVL1002:
.L788:
.LBE578:
	.loc 1 11160 0
	movzwl	18(%esi), %eax
	subw	34(%ebx), %ax
	movzwl	%ax, %eax
	cmpl	$32767, %eax
	jg	.L791
	.loc 1 11164 0
	movb	220(%ebx), %dl
	cmpb	%dl, 221(%ebx)
	je	.L792
	movb	222(%ebx), %al
	andl	$3, %eax
	cmpb	$2, %al
	jne	.L792
	.loc 1 11166 0
	movb	%dl, 221(%ebx)
	.loc 1 11167 0
	movb	223(%ebx), %al
	movb	104(%ebx), %dl
	.loc 1 11168 0
	movw	$0, 56(%ebx)
	.loc 1 11167 0
	andl	$2, %eax
	andl	$-3, %edx
	orl	%edx, %eax
	movb	%al, 104(%ebx)
.L792:
	.loc 1 11170 0
	movb	17(%esi), %cl
	movb	104(%ebx), %dl
	andl	$7, %ecx
	andl	$-29, %edx
	leal	0(,%ecx,4), %eax
	orl	%edx, %eax
	movb	%al, 104(%ebx)
	.loc 1 11171 0
	movb	16(%esi), %dl
	andl	$31, %eax
	sall	$5, %edx
	orl	%edx, %eax
	movb	%al, 104(%ebx)
	.loc 1 11172 0
	movw	18(%esi), %dx
	.loc 1 11175 0
	decb	97(%ebx)
	.loc 1 11174 0
	movl	$7, 100(%ebx)
	.loc 1 11172 0
	movw	%dx, 106(%ebx)
	.loc 1 11173 0
	movb	%al, %dl
	andl	$-2, %edx
	.loc 1 11176 0
	testb	$28, %al
	.loc 1 11173 0
	movb	%dl, 104(%ebx)
	.loc 1 11176 0
	je	.L1061
	.loc 1 11177 0
	movb	45(%ebx), %al
	andl	$-8, %eax
	orl	%eax, %ecx
	movb	%cl, 45(%ebx)
.LVL1003:
	jmp	.L1061
.LVL1004:
.L738:
.LBE577:
.LBE576:
	.loc 1 8185 0
	cmpb	$0, -60(%ebp)
.LBE591:
.LBE605:
.LBE620:
.LBE637:
.LBE654:
.LBE671:
	.loc 1 8364 0
	movb	$0, -44(%ebp)
.LBB672:
.LBB655:
.LBB638:
.LBB621:
.LBB606:
.LBB592:
	.loc 1 8185 0
	jne	.L844
.LVL1005:
.LBB579:
	.loc 1 8189 0
	movb	44(%ebx), %al
	movzbl	16(%esi), %edx
	shrb	$3, %al
	orb	46(%ebx), %al
	andl	$7, %eax
	testl	%edx, %eax
	je	.L844
	.loc 1 8192 0
	movb	96(%ebx), %al
	cmpb	97(%ebx), %al
	jne	.L844
	.loc 1 8195 0
	movl	_radio+282, %edx
	.loc 1 8200 0
	decl	%eax
	.loc 1 8195 0
	movl	%edx, 105(%ebx)
	movb	_radio+286, %dl
	.loc 1 8198 0
	movb	$1, 104(%ebx)
	.loc 1 8199 0
	movl	$2, 100(%ebx)
	.loc 1 8200 0
	movb	%al, 97(%ebx)
	.loc 1 8195 0
	movb	%dl, 109(%ebx)
	jmp	.L844
.LVL1006:
.L716:
.LBE579:
	.loc 1 8204 0
	movl	%ebx, %eax
	call	unknown_rsp_send
.LVL1007:
.L715:
.LBE592:
.LBE606:
	.loc 1 8345 0
	testb	%al, %al
	jne	.L693
.LVL1008:
.L1061:
	movb	$0, -44(%ebp)
.LVL1009:
.L844:
	.loc 1 8346 0
	movl	_radio+276, %eax
	xorb	$2, 224(%eax)
.LVL1010:
	.loc 1 8347 0
	cmpb	$0, -68(%ebp)
	je	.L845
	.loc 1 8348 0
	addl	$1, 241(%eax)
	adcl	$0, 245(%eax)
.LVL1011:
.L845:
.LBE621:
.LBE638:
.LBE655:
	.loc 1 8377 0
	movl	_radio+276, %eax
	.loc 1 8376 0
	movb	$0, _radio+281
.LBE672:
	.loc 1 8365 0
	xorl	%ebx, %ebx
.LBB673:
	.loc 1 8377 0
	movw	$0, 52(%eax)
	jmp	.L794
.LVL1012:
.L667:
.LBE673:
	.loc 1 8380 0
	cmpb	$0, _radio+281
	movb	_radio+281, %dl
	movb	$2, %cl
	cmove	%ecx, %edx
	.loc 1 8382 0
	decl	%edx
	.loc 1 8383 0
	testb	%dl, %dl
	.loc 1 8382 0
	movb	%dl, _radio+281
	.loc 1 8383 0
	sete	%bl
.LVL1013:
	.loc 1 8384 0
	cmpw	$0, 52(%eax)
	jne	.L880
	.loc 1 8385 0
	movw	50(%eax), %dx
	movw	%dx, 52(%eax)
.L880:
	.loc 1 8364 0
	movb	$0, -44(%ebp)
	.loc 1 8358 0
	movl	$0, -56(%ebp)
.LVL1014:
.L794:
	.loc 1 8389 0
	movl	_radio+276, %eax
	.loc 1 8390 0
	leal	-40(%ebp), %edx
	.loc 1 8389 0
	movb	224(%eax), %cl
	shrb	$7, %cl
	movl	%ecx, %edi
.LVL1015:
	.loc 1 8390 0
	call	prepare_pdu_data_tx
.LVL1016:
	.loc 1 8408 0
	cmpl	$3, _radio+20
	je	.L881
	testb	%bl, %bl
	jne	.L881
	cmpb	$0, -48(%ebp)
	je	.L797
	.loc 1 8409 0
	testb	$16, 12(%esi)
	jne	.L797
	movl	-40(%ebp), %edx
	.loc 1 8408 0
	movl	$3, %eax
	.loc 1 8409 0
	cmpb	$0, 1(%edx)
	je	.L796
.L797:
	.loc 1 8411 0
	movl	_radio+276, %eax
	.loc 1 8408 0
	cmpb	$1, 163(%eax)
	sbbl	%eax, %eax
	addl	$3, %eax
	jmp	.L796
.L881:
	movl	$3, %eax
.L796:
	.loc 1 8413 0
	cmpl	$3, %eax
	.loc 1 8408 0
	movl	%eax, _radio+20
	.loc 1 8413 0
	jne	.L798
	.loc 1 8414 0
	movl	_radio+16, %eax
	cmpl	$4, %eax
	jne	.L799
	.loc 1 8415 0
	movl	_radio+276, %eax
	movl	%edi, %ebx
.LVL1017:
	sall	$7, %ebx
	movb	224(%eax), %dl
	andl	$127, %edx
	orl	%edx, %ebx
	movb	%bl, 224(%eax)
	.loc 1 8416 0
	call	radio_disable
.LVL1018:
	jmp	.L800
.LVL1019:
.L799:
	.loc 1 8420 0
	call	radio_switch_complete_and_disable
.LVL1020:
	jmp	.L801
.L798:
	.loc 1 8423 0
	subl	$12, %esp
	pushl	$150
	call	radio_tmr_tifs_set
.LVL1021:
	.loc 1 8424 0
	movl	_radio+276, %eax
	movb	46(%eax), %al
	andl	$7, %eax
	movl	%eax, (%esp)
	call	radio_switch_complete_and_rx
.LVL1022:
	.loc 1 8425 0
	call	radio_tmr_end_capture
.LVL1023:
	addl	$16, %esp
.L801:
	.loc 1 8427 0
	movl	_radio+276, %eax
	movl	-40(%ebp), %edx
	movb	224(%eax), %cl
	movb	(%edx), %bl
.LVL1024:
	andl	$1, %ecx
	andl	$-9, %ebx
	sall	$3, %ecx
	orl	%ebx, %ecx
	movb	%cl, (%edx)
	.loc 1 8428 0
	movl	224(%eax), %edi
.LVL1025:
	andl	$-5, %ecx
	leal	(%edi,%edi), %ebx
	andl	$4, %ebx
	orl	%ebx, %ecx
	movb	%cl, (%edx)
	.loc 1 8429 0
	call	tx_packet_set
.LVL1026:
	.loc 1 8430 0
	call	radio_is_ready
.LVL1027:
.L800:
	.loc 1 8432 0
	call	radio_tmr_aa_restore
.LVL1028:
	testl	%eax, %eax
	jne	.L802
	.loc 1 8433 0
	call	radio_tmr_aa_get
.LVL1029:
	subl	$12, %esp
	pushl	%eax
	call	radio_tmr_aa_save
.LVL1030:
	addl	$16, %esp
.L802:
	.loc 1 8435 0
	movl	_radio+276, %eax
	testl	%eax, %eax
	je	.L605
	.loc 1 8438 0
	cmpl	$0, -56(%ebp)
	je	.L805
	.loc 1 8439 0
	movzwl	32(%eax), %eax
	movl	-56(%ebp), %edx
	call	pdu_node_tx_release
.LVL1031:
.L805:
	.loc 1 8441 0
	cmpb	$0, -44(%ebp)
	je	.L605
.L804:
	.loc 1 8442 0
	movl	_radio+276, %eax
	movzwl	32(%eax), %eax
	call	rx_fc_lock
.LVL1032:
	.loc 1 8443 0
	movl	_radio+276, %eax
	movl	32(%eax), %eax
	movw	%ax, 8(%esi)
	.loc 1 8444 0
	call	packet_rx_enqueue
.LVL1033:
	jmp	.L605
.LVL1034:
.L1048:
.LBE496:
.LBE495:
.LBE463:
.LBE462:
.LBB681:
.LBB682:
	.loc 1 8731 0
	movl	_radio+16, %edx
	cmpl	$4, %edx
	ja	.L807
	jmp	*.L809(,%edx,4)
	.section	.rodata.isr
	.align 4
	.align 4
.L809:
	.long	.L808
	.long	.L810
	.long	.L811
	.long	.L812
	.long	.L812
	.section	.text.isr
.L810:
.LVL1035:
.LBB683:
.LBB684:
	.loc 1 8504 0
	cmpl	$3, %eax
	jne	.L813
	testb	$14, _radio+40
	je	.L813
.LVL1036:
.LBB685:
	.loc 1 8508 0
	call	adv_setup
.LVL1037:
	.loc 1 8510 0
	call	radio_tx_enable
.LVL1038:
	.loc 1 8511 0
	call	radio_tmr_end_capture
.LVL1039:
	jmp	.L605
.LVL1040:
.L813:
.LBE685:
.LBB686:
	.loc 1 8514 0
	call	radio_filter_disable
.LVL1041:
	.loc 1 8517 0
	cmpl	$3, _radio+20
	jne	.L807
	.loc 1 8515 0
	movzbl	_radio+120, %eax
	imull	$39, %eax, %eax
	.loc 1 8517 0
	movb	_radio+42(%eax), %al
	andl	$15, %eax
	decb	%al
	je	.L807
.LBB687:
	.loc 1 8521 0
	pushl	%eax
	pushl	%eax
	leal	-40(%ebp), %eax
	pushl	%eax
	pushl	$1
	call	rand_isr_get
.LVL1042:
	.loc 1 8523 0
	movzbl	-40(%ebp), %eax
	movb	$10, %dl
	.loc 1 8524 0
	addl	$12, %esp
	pushl	$3706
	pushl	$ticker_update_adv_assert
	pushl	$0
	pushl	$0
	pushl	$0
	pushl	$0
	.loc 1 8523 0
	divb	%dl
	.loc 1 8524 0
	pushl	$0
	pushl	$7
	pushl	$452807053
	.loc 1 8523 0
	movzbl	%ah, %eax
	incl	%eax
	movb	%al, -40(%ebp)
	.loc 1 8528 0
	movzbl	%al, %eax
	imull	$1000, %eax, %edx
	.loc 1 8524 0
	movl	$1000000000, %eax
	imull	%edx
	pushl	%edx
	pushl	%eax
	call	__udivdi3
.LVL1043:
	addl	$16, %esp
	pushl	%eax
	pushl	$5
	jmp	.L1081
.LVL1044:
.L811:
.LBE687:
.LBE686:
.LBE684:
.LBE683:
.LBB688:
.LBB689:
	.loc 1 8542 0
	cmpl	$3, %eax
	jne	.L817
.LVL1045:
.LBB690:
	.loc 1 8545 0
	subl	$12, %esp
	pushl	$150
	call	radio_tmr_tifs_set
.LVL1046:
	.loc 1 8546 0
	pushl	$0
	pushl	$0
	pushl	$0
	pushl	$0
	call	radio_switch_complete_and_tx
.LVL1047:
	.loc 1 8547 0
	movzbl	_radio+317, %eax
	movl	_radio+312, %edx
	addl	$20, %esp
	movl	(%edx,%eax,4), %eax
	addl	$12, %eax
	pushl	%eax
	call	radio_pkt_rx_set
.LVL1048:
	.loc 1 8549 0
	call	radio_rssi_measure
.LVL1049:
	.loc 1 8550 0
	movl	$1, _radio+20
	.loc 1 8552 0
	call	radio_rx_enable
.LVL1050:
.L1082:
	.loc 1 8553 0
	call	radio_tmr_end_capture
.LVL1051:
	jmp	.L1069
.LVL1052:
.L817:
.LBE690:
	.loc 1 8555 0
	call	radio_filter_disable
.LVL1053:
	.loc 1 8556 0
	cmpl	$5, _radio+20
	jne	.L807
	.loc 1 8557 0
	subl	$12, %esp
	pushl	$0
	pushl	$0
	pushl	$4
	pushl	$0
	pushl	$0
	call	ticker_stop
.LVL1054:
	addl	$32, %esp
	jmp	.L807
.LVL1055:
.L812:
.LBE689:
.LBE688:
.LBB691:
.LBB692:
	.loc 1 8577 0
	movl	_radio+276, %eax
	testl	%eax, %eax
	je	.L807
	.loc 1 8580 0
	movzbl	163(%eax), %edx
.LVL1056:
	.loc 1 8581 0
	testb	%dl, %dl
	je	.L818
	movl	_radio+16, %ecx
	cmpl	$3, %ecx
	je	.L1068
	testb	$1, 60(%eax)
	jne	.L1068
.L818:
.LVL1057:
	.loc 1 8592 0
	movw	42(%eax), %di
	movw	%di, -48(%ebp)
.LVL1058:
	.loc 1 8593 0
	incl	%edi
.LVL1059:
	.loc 1 8594 0
	cmpb	$0, _radio+280
	.loc 1 8593 0
	movw	%di, -44(%ebp)
.LVL1060:
	.loc 1 8594 0
	je	.L820
	.loc 1 8596 0
	movl	_radio+16, %ecx
	cmpl	$3, %ecx
	jne	.L821
.LBB693:
	.loc 1 8601 0
	call	radio_tmr_aa_restore
.LVL1061:
	movl	%eax, %ebx
.LBB694:
.LBB695:
	.loc 1 6877 0
	movl	$24, %edi
.LVL1062:
.LBE695:
.LBE694:
	.loc 1 8602 0
	call	radio_tmr_ready_get
.LVL1063:
	.loc 1 8604 0
	movl	_radio+276, %esi
	.loc 1 8601 0
	subl	%eax, %ebx
	movl	%ebx, -56(%ebp)
.LVL1064:
	.loc 1 8606 0
	movb	46(%esi), %dl
	.loc 1 8603 0
	movl	76(%esi), %eax
.LVL1065:
	.loc 1 8606 0
	andl	$7, %edx
.LVL1066:
.LBB697:
.LBB696:
	.loc 1 6872 0
	cmpb	$2, %dl
	je	.L823
	.loc 1 6875 0
	cmpb	$4, %dl
	movl	$376, %edi
	movl	$40, %edx
	cmovne	%edx, %edi
.L823:
.LVL1067:
.LBE696:
.LBE697:
	.loc 1 8607 0
	leal	48(%eax,%edi), %ecx
.LVL1068:
	.loc 1 8611 0
	cmpl	%ecx, -56(%ebp)
	movl	%ecx, -60(%ebp)
	ja	.L825
	.loc 1 8613 0
	movl	$1000000000, %edi
	pushl	$7
	pushl	$452807053
	mull	%edi
.LVL1069:
	pushl	%edx
	pushl	%eax
	call	__udivdi3
.LVL1070:
	.loc 1 8616 0
	movl	-60(%ebp), %ecx
	subl	-56(%ebp), %ecx
	.loc 1 8613 0
	movzwl	%ax, %ebx
.LVL1071:
	addl	$16, %esp
.LVL1072:
	.loc 1 8615 0
	pushl	$7
	pushl	$452807053
	movl	%ecx, %eax
.LVL1073:
	mull	%edi
	pushl	%edx
	pushl	%eax
	call	__udivdi3
.LVL1074:
	jmp	.L1065
.LVL1075:
.L825:
	.loc 1 8619 0
	movl	-56(%ebp), %eax
.LVL1076:
	movl	$1000000000, %ecx
.LVL1077:
	pushl	$7
.LVL1078:
	pushl	$452807053
	.loc 1 8622 0
	addl	$48, %edi
	.loc 1 8619 0
	movl	%ecx, -56(%ebp)
	mull	%ecx
	pushl	%edx
	pushl	%eax
	call	__udivdi3
.LVL1079:
	.loc 1 8621 0
	movl	$1000000000, %ecx
	.loc 1 8619 0
	movzwl	%ax, %ebx
.LVL1080:
	.loc 1 8621 0
	movl	%edi, %eax
	mull	%ecx
	.loc 1 8619 0
	addl	$16, %esp
.LVL1081:
	.loc 1 8621 0
	pushl	$7
	pushl	$452807053
	pushl	%edx
	pushl	%eax
	call	__udivdi3
.LVL1082:
.L1065:
	movzwl	%ax, %edx
	.loc 1 8627 0
	movl	292(%esi), %eax
	.loc 1 8621 0
	addl	$16, %esp
.LVL1083:
	.loc 1 8625 0
	movl	$0, 76(%esi)
	.loc 1 8626 0
	movl	$0, 84(%esi)
	.loc 1 8627 0
	testl	%eax, %eax
	je	.L827
.LVL1084:
.LBB698:
	.loc 1 8631 0
	cmpb	$0, 5(%eax)
	jne	.L828
	cmpb	$0, 313(%esi)
	je	.L829
.L828:
	.loc 1 8633 0
	movw	$0, 42(%esi)
	jmp	.L829
.LVL1085:
.L827:
.LBE698:
	.loc 1 8635 0
	testb	$1, 60(%esi)
	je	.L829
	.loc 1 8636 0
	movw	38(%esi), %ax
	movw	%ax, 42(%esi)
	jmp	.L829
.LVL1086:
.L821:
.LBE693:
	.loc 1 8639 0
	testb	%dl, %dl
	je	.L885
	.loc 1 8640 0
	orb	$1, 60(%eax)
.L885:
	.loc 1 8591 0
	xorl	%edx, %edx
.LVL1087:
	.loc 1 8590 0
	xorl	%ebx, %ebx
.LVL1088:
.L829:
	.loc 1 8642 0
	movl	_radio+276, %eax
	movw	$0, 48(%eax)
	jmp	.L830
.LVL1089:
.L820:
	.loc 1 8644 0
	movl	48(%eax), %edx
.LVL1090:
	testw	%dx, %dx
	je	.L831
	.loc 1 8645 0
	cmpw	%dx, -44(%ebp)
	jnb	.L832
	.loc 1 8646 0
	subl	-44(%ebp), %edx
	movw	%dx, 48(%eax)
	jmp	.L886
.L832:
	.loc 1 8648 0
	movl	$62, %edx
	jmp	.L1068
.L831:
	.loc 1 8657 0
	cmpw	$0, 52(%eax)
	jne	.L886
	.loc 1 8658 0
	movw	50(%eax), %dx
	movw	%dx, 52(%eax)
.L886:
	.loc 1 8591 0
	xorl	%edx, %edx
	.loc 1 8590 0
	xorl	%ebx, %ebx
.LVL1091:
.L830:
	.loc 1 8663 0
	movl	_radio+276, %eax
	movl	52(%eax), %esi
	testw	%si, %si
	je	.L833
	.loc 1 8664 0
	cmpw	%si, -44(%ebp)
	jnb	.L834
	.loc 1 8665 0
	subl	-44(%ebp), %esi
	.loc 1 8666 0
	movw	$0, 42(%eax)
	.loc 1 8668 0
	movb	$1, -56(%ebp)
	.loc 1 8667 0
	cmpw	$6, %si
	.loc 1 8665 0
	movw	%si, 52(%eax)
	.loc 1 8667 0
	jbe	.L835
	.loc 1 8670 0
	movl	_radio+16, %esi
	cmpl	$3, %esi
	jne	.L833
	.loc 1 8671 0
	cmpw	$0, -48(%ebp)
	jne	.L835
	.loc 1 8674 0
	movl	88(%eax), %edi
.LVL1092:
	.loc 1 8675 0
	movl	%edi, %esi
	shrl	%esi
	.loc 1 8676 0
	andl	$1, %edi
.LVL1093:
	jne	.L836
	.loc 1 8675 0
	movl	%esi, 88(%eax)
.LVL1094:
	jmp	.L833
.LVL1095:
.L836:
	.loc 1 8677 0
	orl	$-2147483648, %esi
	movl	%esi, 88(%eax)
.LVL1096:
	jmp	.L835
.LVL1097:
.L834:
	.loc 1 8683 0
	movl	$8, %edx
.LVL1098:
	jmp	.L1068
.LVL1099:
.L833:
	.loc 1 8662 0
	movb	$0, -56(%ebp)
.L835:
.LVL1100:
	.loc 1 8691 0
	movl	56(%eax), %esi
	testw	%si, %si
	je	.L837
	.loc 1 8692 0
	cmpw	%si, -44(%ebp)
	jnb	.L838
	.loc 1 8693 0
	subl	-44(%ebp), %esi
	movw	%si, 56(%eax)
	jmp	.L837
.L838:
	.loc 1 8695 0
	movl	$34, %edx
.LVL1101:
.L1068:
	call	terminate_ind_rx_enqueue
.LVL1102:
	.loc 1 8696 0
	movl	_radio+276, %eax
	call	connection_release
.LVL1103:
	.loc 1 8697 0
	movl	$0, _radio+276
	jmp	.L807
.LVL1104:
.L837:
	.loc 1 8703 0
	movb	96(%eax), %cl
	cmpb	%cl, 97(%eax)
	je	.L839
	movl	100(%eax), %edi
	leal	-1(%edi), %esi
	cmpl	$1, %esi
	ja	.L839
	.loc 1 8706 0
	movw	$0, 42(%eax)
.L839:
.LVL1105:
	.loc 1 8709 0
	cmpb	$0, -56(%ebp)
	jne	.L840
	.loc 1 8708 0
	xorl	%esi, %esi
	.loc 1 8709 0
	movl	-48(%ebp), %edi
	cmpw	42(%eax), %di
	je	.L841
.L840:
	.loc 1 8710 0
	movw	42(%eax), %di
	leal	1(%edi), %esi
.LVL1106:
.L841:
	.loc 1 8713 0
	movl	%ebx, %edi
	orl	%edx, %edi
	orw	%si, %di
	jne	.L895
	cmpb	$0, -56(%ebp)
	je	.L807
.L895:
.LBB699:
	.loc 1 8715 0
	movl	32(%eax), %edi
	.loc 1 8717 0
	movzbl	-56(%ebp), %ecx
	movzwl	%si, %esi
	.loc 1 8715 0
	leal	7(%edi), %eax
.LVL1107:
	.loc 1 8717 0
	pushl	%edi
	movzbl	%al, %edi
	pushl	%edi
	pushl	$ticker_update_slave_assert
	pushl	%ecx
	pushl	%esi
	pushl	$0
	pushl	$0
	pushl	%edx
	pushl	%ebx
	pushl	%edi
.LVL1108:
.L1081:
	pushl	$0
	pushl	$0
	call	ticker_update
.LVL1109:
	.loc 1 8724 0
	addl	$48, %esp
	andl	$-3, %eax
.LVL1110:
	je	.L807
	movb	_radio+14, %al
	jmp	.L807
.L808:
.LBE699:
.LBE692:
.LBE691:
	.loc 1 8745 0
	movl	$0, _radio+20
.LBE682:
.LBE681:
	.loc 1 8814 0
	jmp	.L605
.LVL1111:
.L741:
.LBB705:
.LBB679:
.LBB677:
.LBB676:
.LBB674:
.LBB656:
.LBB639:
.LBB622:
.LBB607:
.LBB593:
	.loc 1 7814 0
	movw	$0, 56(%ebx)
	jmp	.L1061
.L791:
	.loc 1 8181 0
	movb	$40, 163(%ebx)
	jmp	.L1061
.LVL1112:
.L859:
.LBE593:
.LBE607:
.LBE622:
.LBE639:
.LBE656:
.LBE674:
	.loc 1 8364 0
	movb	$0, -44(%ebp)
.LBB675:
.LBB657:
.LBB640:
.LBB623:
	.loc 1 8307 0
	movb	$0, -68(%ebp)
	jmp	.L844
.LVL1113:
.L693:
.LBE623:
.LBE640:
.LBE657:
.LBE675:
	.loc 1 8364 0
	movb	$0, -44(%ebp)
.LVL1114:
	jmp	.L845
.LVL1115:
.L807:
.LBE676:
.LBE677:
.LBE679:
.LBE705:
.LBB706:
.LBB704:
	.loc 1 8754 0
	movl	$0, _radio+16
	.loc 1 8755 0
	movl	$0, _radio+20
	.loc 1 8756 0
	movb	$0, _radio+13
	.loc 1 8757 0
	call	radio_tmr_stop
.LVL1116:
.LBB700:
.LBB701:
	.loc 1 8924 0
	pushl	$s_mfy_radio_inactive.8984
	pushl	$0
	pushl	$0
	pushl	$0
	call	mayfly_enqueue
.LVL1117:
.LBE701:
.LBE700:
	.loc 1 8761 0
	movl	_radio, %eax
.LVL1118:
.LBB702:
.LBB703:
	.loc 1 6360 0
	popl	%edx
	popl	%ecx
	movl	4(%eax), %edx
	pushl	$0
.LVL1119:
	pushl	%eax
	call	*4(%edx)
.LVL1120:
.LBE703:
.LBE702:
	.loc 1 8764 0
	addl	$12, %esp
	pushl	$1
	pushl	$1
	pushl	$0
	call	mayfly_enable
.LVL1121:
	jmp	.L1069
.LVL1122:
.L1071:
.LBE704:
.LBE706:
.LBB707:
.LBB680:
.LBB678:
.LBB477:
	.loc 1 7013 0
	call	radio_is_ready
.LVL1123:
.L1069:
	addl	$16, %esp
.L605:
.LBE477:
.LBE678:
.LBE680:
.LBE707:
	.loc 1 8814 0
	movl	-28(%ebp), %eax
	xorl	%gs:20, %eax
	je	.L846
	call	__stack_chk_fail
.LVL1124:
.L846:
	leal	-12(%ebp), %esp
	popl	%ebx
	.cfi_restore 3
	popl	%esi
	.cfi_restore 6
	popl	%edi
	.cfi_restore 7
	popl	%ebp
	.cfi_restore 5
	.cfi_def_cfa 4, 4
	ret
	.cfi_endproc
.LFE229:
	.size	isr, .-isr
	.section	.text.unlikely.isr
.LCOLDE60:
	.section	.text.isr
.LHOTE60:
	.section	.text.unlikely.event_master,"ax",@progbits
.LCOLDB61:
	.section	.text.event_master,"ax",@progbits
.LHOTB61:
	.type	event_master, @function
event_master:
.LFB285:
	.loc 1 10659 0
	.cfi_startproc
.LVL1125:
	pushl	%ebp
	.cfi_def_cfa_offset 8
	.cfi_offset 5, -8
	movl	%esp, %ebp
	.cfi_def_cfa_register 5
	pushl	%edi
	pushl	%esi
	pushl	%ebx
	subl	$28, %esp
	.cfi_offset 7, -12
	.cfi_offset 6, -16
	.cfi_offset 3, -20
	.loc 1 10659 0
	movl	20(%ebp), %ebx
	.loc 1 10672 0
	movl	$2, _radio+20
	.loc 1 10659 0
	movl	%gs:20, %eax
	movl	%eax, -28(%ebp)
	xorl	%eax, %eax
.LVL1126:
	.loc 1 10667 0
	movl	_radio+16, %eax
.LVL1127:
	.loc 1 10669 0
	movb	_radio+12, %al
	.loc 1 10674 0
	movb	32(%ebx), %al
	.loc 1 10671 0
	movl	$4, _radio+16
	.loc 1 10673 0
	movb	$0, _radio+12
	.loc 1 10677 0
	movb	$0, _radio+280
	.loc 1 10678 0
	movb	$0, _radio+281
	.loc 1 10679 0
	movl	%ebx, _radio+276
	.loc 1 10674 0
	addl	$7, %eax
	movb	%al, _radio+13
	.loc 1 10676 0
	movl	8(%ebp), %eax
	movl	%eax, _radio+4
	.loc 1 10680 0
	movl	40(%ebx), %eax
	.loc 1 10681 0
	movw	$0, 40(%ebx)
	.loc 1 10680 0
	movw	%ax, 42(%ebx)
	.loc 1 10682 0
	movl	$2, %eax
	call	packet_tx_enqueue
.LVL1128:
	.loc 1 10683 0
	leal	-32(%ebp), %edx
	movl	%ebx, %eax
	call	prepare_pdu_data_tx
.LVL1129:
	.loc 1 10684 0
	movl	-32(%ebp), %edx
	movb	224(%ebx), %al
	movb	(%edx), %cl
	andl	$1, %eax
	sall	$3, %eax
	andl	$-9, %ecx
	orl	%ecx, %eax
	movb	%al, (%edx)
	.loc 1 10685 0
	movl	224(%ebx), %esi
	andl	$-5, %eax
	leal	(%esi,%esi), %ecx
	leal	23(%ebx), %esi
	andl	$4, %ecx
	orl	%ecx, %eax
	movb	%al, (%edx)
	.loc 1 10686 0
	movl	%ebx, %eax
	call	connection_configure
.LVL1130:
	.loc 1 10687 0
	subl	$12, %esp
	pushl	$150
	call	radio_tmr_tifs_set
.LVL1131:
	.loc 1 10688 0
	movb	46(%ebx), %al
	andl	$7, %eax
	movl	%eax, (%esp)
	call	radio_switch_complete_and_rx
.LVL1132:
	.loc 1 10689 0
	movl	-32(%ebp), %edx
	movl	%ebx, %eax
	call	tx_packet_set
.LVL1133:
	.loc 1 10690 0
	movb	29(%ebx), %cl
	addl	$16, %esp
	testb	$64, %cl
	je	.L1085
	.loc 1 10691 0
	movw	34(%ebx), %ax
	movzwl	30(%ebx), %edx
	subl	$12, %esp
	andl	$63, %ecx
	pushl	%ecx
	movl	%esi, %ecx
	decl	%eax
	movzwl	%ax, %eax
	call	chan_sel_2
.LVL1134:
	addl	$16, %esp
.LVL1135:
	jmp	.L1086
.LVL1136:
.L1085:
.LBB712:
.LBB713:
	.loc 1 9126 0
	movzwl	42(%ebx), %eax
	movzbl	30(%ebx), %edx
.LBE713:
.LBE712:
	.loc 1 10700 0
	andl	$63, %ecx
.LVL1137:
.LBB716:
.LBB715:
	.loc 1 9126 0
	movzbl	31(%ebx), %edi
	incl	%eax
	imull	%edx, %eax
	addl	%edi, %eax
	movl	$37, %edi
	cltd
	idivl	%edi
	.loc 1 9128 0
	movl	%edx, %edi
	.loc 1 9127 0
	movb	%dl, 31(%ebx)
	.loc 1 9126 0
	movb	%dl, %al
.LVL1138:
	.loc 1 9128 0
	shrl	$3, %edi
	movzbl	23(%ebx,%edi), %edi
	movl	%edx, %ebx
.LVL1139:
	andl	$7, %ebx
	btl	%ebx, %edi
	jc	.L1086
.LVL1140:
.LBB714:
	.loc 1 9131 0
	movzbl	%dl, %eax
.LVL1141:
	divb	%cl
	movzbl	%ah, %edx
.LVL1142:
	movl	%esi, %eax
	call	chan_sel_remap
.LVL1143:
.L1086:
.LBE714:
.LBE715:
.LBE716:
	.loc 1 10702 0
	movzbl	%al, %eax
	call	chan_set
.LVL1144:
	.loc 1 10703 0
	pushl	%eax
	movl	8(%ebp), %eax
	pushl	_radio+8
	addl	$9, %eax
	pushl	%eax
	pushl	$1
	call	radio_tmr_start
.LVL1145:
	.loc 1 10707 0
	call	radio_tmr_end_capture
.LVL1146:
.LBB717:
	.loc 1 10711 0
	pushl	$0
	pushl	$ticker_job_disable
	pushl	$0
	pushl	$0
	call	ticker_job_idle_get
.LVL1147:
.LBE717:
	.loc 1 10721 0
	addl	$32, %esp
	movl	-28(%ebp), %eax
	xorl	%gs:20, %eax
	je	.L1087
	call	__stack_chk_fail
.LVL1148:
.L1087:
	leal	-12(%ebp), %esp
	popl	%ebx
	.cfi_restore 3
	popl	%esi
	.cfi_restore 6
	popl	%edi
	.cfi_restore 7
	popl	%ebp
	.cfi_restore 5
	.cfi_def_cfa 4, 4
	ret
	.cfi_endproc
.LFE285:
	.size	event_master, .-event_master
	.section	.text.unlikely.event_master
.LCOLDE61:
	.section	.text.event_master
.LHOTE61:
	.section	.text.unlikely.radio_init,"ax",@progbits
.LCOLDB62:
	.section	.text.radio_init,"ax",@progbits
.LHOTB62:
	.globl	radio_init
	.type	radio_init, @function
radio_init:
.LFB192:
	.loc 1 6642 0
	.cfi_startproc
.LVL1149:
	pushl	%ebp
	.cfi_def_cfa_offset 8
	.cfi_offset 5, -8
	movl	%esp, %ebp
	.cfi_def_cfa_register 5
	pushl	%edi
	pushl	%esi
	pushl	%ebx
	subl	$28, %esp
	.cfi_offset 7, -12
	.cfi_offset 6, -16
	.cfi_offset 3, -20
	.loc 1 6642 0
	movl	32(%ebp), %esi
	movl	36(%ebp), %ecx
	.loc 1 6646 0
	movb	12(%ebp), %dl
	.loc 1 6642 0
	movl	16(%ebp), %eax
	movl	20(%ebp), %ebx
	movl	28(%ebp), %edi
	movl	%esi, -40(%ebp)
	.loc 1 6645 0
	movl	8(%ebp), %esi
	.loc 1 6646 0
	movb	%dl, _radio+288
	.loc 1 6648 0
	movb	%al, _radio+272
	.loc 1 6650 0
	movzbl	%al, %eax
	movl	%eax, -28(%ebp)
	.loc 1 6649 0
	movl	%ecx, _radio+264
	.loc 1 6645 0
	movl	%esi, _radio
	.loc 1 6647 0
	movzwl	40(%ebp), %esi
	.loc 1 6650 0
	imull	$316, %eax, %eax
	.loc 1 6663 0
	movw	%di, _radio+304
	.loc 1 6647 0
	leal	(%ecx,%esi), %edx
	.loc 1 6650 0
	addl	%eax, %ecx
	.loc 1 6651 0
	leal	3(%ebx), %eax
	.loc 1 6653 0
	addl	$4, %ebx
	.loc 1 6656 0
	movl	%ecx, _radio+312
	.loc 1 6647 0
	movl	%edx, -32(%ebp)
.LVL1150:
	.loc 1 6652 0
	movb	24(%ebp), %dl
.LVL1151:
	.loc 1 6653 0
	movb	%bl, _radio+316
	.loc 1 6657 0
	movzbl	%bl, %ebx
	.loc 1 6655 0
	movb	%al, _radio+336
	.loc 1 6657 0
	leal	(%ecx,%ebx,4), %ecx
.LVL1152:
	.loc 1 6652 0
	incl	%edx
	movb	%dl, -33(%ebp)
.LVL1153:
	.loc 1 6654 0
	movb	24(%ebp), %dl
.LVL1154:
	.loc 1 6659 0
	movl	%ecx, _radio+360
	.loc 1 6654 0
	addl	$2, %edx
	movb	%dl, _radio+368
	.loc 1 6660 0
	movzbl	%dl, %edx
	sall	$3, %edx
	addl	%edx, %ecx
.LVL1155:
	.loc 1 6661 0
	movl	%ecx, _radio+364
	.loc 1 6662 0
	addl	%edx, %ecx
.LVL1156:
	.loc 1 6677 0
	movzwl	%di, %edx
	.loc 1 6664 0
	leal	3(%edx), %edi
	cmpl	$40, %edi
	jbe	.L1090
	.loc 1 6679 0
	addl	$18, %edx
	movzbl	%al, %eax
.LVL1157:
	andl	$-4, %edx
	imull	%eax, %edx
	movw	%dx, _radio+306
	jmp	.L1091
.LVL1158:
.L1090:
	.loc 1 6695 0
	movb	$52, %dl
	mulb	%dl
.LVL1159:
	movw	%ax, _radio+306
.L1091:
	.loc 1 6724 0
	movw	_radio+306, %ax
	xorl	%edx, %edx
	movl	$52, %edi
	.loc 1 6729 0
	addl	-28(%ebp), %ebx
	.loc 1 6726 0
	movl	%ecx, _radio+296
	.loc 1 6711 0
	movw	$52, _radio+308
	.loc 1 6724 0
	divw	%di
	movb	%al, _radio+310
	.loc 1 6727 0
	movzwl	_radio+306, %eax
	addl	%eax, %ecx
.LVL1160:
	.loc 1 6729 0
	leal	(%ecx,%ebx,8), %eax
.LVL1161:
	.loc 1 6728 0
	movl	%ecx, _radio+320
	.loc 1 6762 0
	movzbl	-33(%ebp), %ecx
	.loc 1 6732 0
	leal	72(%eax), %edx
.LVL1162:
	.loc 1 6731 0
	movl	%eax, _radio+340
	.loc 1 6745 0
	movl	-40(%ebp), %eax
	.loc 1 6760 0
	movl	%edx, _radio+348
	.loc 1 6745 0
	addl	$10, %eax
	andl	$-4, %eax
.LVL1163:
	movw	%ax, _radio+356
	.loc 1 6762 0
	movzwl	%ax, %eax
.LVL1164:
	imull	%ecx, %eax
	addl	%edx, %eax
.LVL1165:
	.loc 1 6763 0
	subl	-32(%ebp), %eax
.LVL1166:
	je	.L1092
	.loc 1 6764 0
	addl	%esi, %eax
.LVL1167:
	jmp	.L1093
.LVL1168:
.L1092:
	.loc 1 6766 0
	movb	$1, _radio+382
	.loc 1 6767 0
	call	common_init
.LVL1169:
	.loc 1 6768 0
	call	radio_setup
.LVL1170:
	.loc 1 6769 0
	xorl	%eax, %eax
.L1093:
	.loc 1 6770 0
	addl	$28, %esp
	popl	%ebx
	.cfi_restore 3
	popl	%esi
	.cfi_restore 6
	popl	%edi
	.cfi_restore 7
	popl	%ebp
	.cfi_restore 5
	.cfi_def_cfa 4, 4
	ret
	.cfi_endproc
.LFE192:
	.size	radio_init, .-radio_init
	.section	.text.unlikely.radio_init
.LCOLDE62:
	.section	.text.radio_init
.LHOTE62:
	.section	.text.unlikely.radio_hf_clock_get,"ax",@progbits
.LCOLDB63:
	.section	.text.radio_hf_clock_get,"ax",@progbits
.LHOTB63:
	.globl	radio_hf_clock_get
	.type	radio_hf_clock_get, @function
radio_hf_clock_get:
.LFB193:
	.loc 1 6772 0
	.cfi_startproc
	pushl	%ebp
	.cfi_def_cfa_offset 8
	.cfi_offset 5, -8
	.loc 1 6774 0
	movl	_radio, %eax
	.loc 1 6772 0
	movl	%esp, %ebp
	.cfi_def_cfa_register 5
	.loc 1 6774 0
	popl	%ebp
	.cfi_restore 5
	.cfi_def_cfa 4, 4
	ret
	.cfi_endproc
.LFE193:
	.size	radio_hf_clock_get, .-radio_hf_clock_get
	.section	.text.unlikely.radio_hf_clock_get
.LCOLDE63:
	.section	.text.radio_hf_clock_get
.LHOTE63:
	.section	.text.unlikely.ll_reset,"ax",@progbits
.LCOLDB64:
	.section	.text.ll_reset,"ax",@progbits
.LHOTB64:
	.globl	ll_reset
	.type	ll_reset, @function
ll_reset:
.LFB194:
	.loc 1 6776 0
	.cfi_startproc
	pushl	%ebp
	.cfi_def_cfa_offset 8
	.cfi_offset 5, -8
	.loc 1 6778 0
	movl	$3, %edx
	.loc 1 6776 0
	movl	%esp, %ebp
	.cfi_def_cfa_register 5
	pushl	%ebx
	pushl	%eax
	.cfi_offset 3, -12
	.loc 1 6778 0
	movl	$5, %eax
	.loc 1 6780 0
	xorl	%ebx, %ebx
	.loc 1 6778 0
	call	role_disable
.LVL1171:
	.loc 1 6779 0
	movl	$4, %edx
	movl	$6, %eax
	call	role_disable
.LVL1172:
.L1098:
	.loc 1 6780 0 discriminator 1
	movzbl	_radio+272, %eax
	cmpw	%ax, %bx
	jnb	.L1101
	.loc 1 6782 0
	leal	7(%ebx), %eax
	movl	$255, %edx
	.loc 1 6781 0
	incl	%ebx
.LVL1173:
	.loc 1 6782 0
	movzbl	%al, %eax
	call	role_disable
.LVL1174:
	jmp	.L1098
.L1101:
	.loc 1 6806 0
	movw	_radio+306, %ax
	movl	$52, %ecx
	xorl	%edx, %edx
	.loc 1 6808 0
	movb	$0, _radio+317
	.loc 1 6816 0
	subl	$12, %esp
	.loc 1 6811 0
	movb	$0, _radio+369
	.loc 1 6814 0
	movb	$0, _radio+372
	.loc 1 6816 0
	pushl	$0
	.loc 1 6806 0
	divw	%cx
	.loc 1 6785 0
	andb	$-2, _radio+40
	.loc 1 6789 0
	andb	$-2, _radio+224
	.loc 1 6786 0
	movl	$0, _radio+204
	.loc 1 6790 0
	movl	$0, _radio+256
	.loc 1 6793 0
	movw	$52, _radio+308
	.loc 1 6809 0
	movb	$0, _radio+318
	.loc 1 6806 0
	movb	%al, _radio+310
	.loc 1 6810 0
	movb	_radio+316, %al
	.loc 1 6812 0
	movb	$0, _radio+370
	.loc 1 6813 0
	movb	$0, _radio+371
	.loc 1 6810 0
	decl	%eax
	movb	%al, _radio+336
	.loc 1 6815 0
	movb	_radio+380, %al
	movb	%al, _radio+381
	.loc 1 6816 0
	call	ll_filter_reset
.LVL1175:
	.loc 1 6819 0
	addl	$16, %esp
	.loc 1 6820 0
	movl	-4(%ebp), %ebx
.LVL1176:
	leave
	.cfi_restore 5
	.cfi_restore 3
	.cfi_def_cfa 4, 4
	.loc 1 6819 0
	jmp	common_init
.LVL1177:
	.cfi_endproc
.LFE194:
	.size	ll_reset, .-ll_reset
	.section	.text.unlikely.ll_reset
.LCOLDE64:
	.section	.text.ll_reset
.LHOTE64:
	.section	.text.unlikely.ll_radio_state_abort,"ax",@progbits
.LCOLDB65:
	.section	.text.ll_radio_state_abort,"ax",@progbits
.LHOTB65:
	.globl	ll_radio_state_abort
	.type	ll_radio_state_abort, @function
ll_radio_state_abort:
.LFB314:
	.loc 1 11475 0
	.cfi_startproc
	pushl	%ebp
	.cfi_def_cfa_offset 8
	.cfi_offset 5, -8
	movl	%esp, %ebp
	.cfi_def_cfa_register 5
	subl	$8, %esp
	.loc 1 11476 0
	pushl	$5
	pushl	$0
	pushl	$0
	pushl	$0
	call	event_stop
.LVL1178:
	.loc 1 11477 0
	addl	$16, %esp
	leave
	.cfi_restore 5
	.cfi_def_cfa 4, 4
	ret
	.cfi_endproc
.LFE314:
	.size	ll_radio_state_abort, .-ll_radio_state_abort
	.section	.text.unlikely.ll_radio_state_abort
.LCOLDE65:
	.section	.text.ll_radio_state_abort
.LHOTE65:
	.section	.text.unlikely.ll_radio_state_is_idle,"ax",@progbits
.LCOLDB66:
	.section	.text.ll_radio_state_is_idle,"ax",@progbits
.LHOTB66:
	.globl	ll_radio_state_is_idle
	.type	ll_radio_state_is_idle, @function
ll_radio_state_is_idle:
.LFB315:
	.loc 1 11479 0
	.cfi_startproc
	pushl	%ebp
	.cfi_def_cfa_offset 8
	.cfi_offset 5, -8
	movl	%esp, %ebp
	.cfi_def_cfa_register 5
	.loc 1 11481 0
	popl	%ebp
	.cfi_restore 5
	.cfi_def_cfa 4, 4
	.loc 1 11480 0
	jmp	radio_is_idle
.LVL1179:
	.cfi_endproc
.LFE315:
	.size	ll_radio_state_is_idle, .-ll_radio_state_is_idle
	.section	.text.unlikely.ll_radio_state_is_idle
.LCOLDE66:
	.section	.text.ll_radio_state_is_idle
.LHOTE66:
	.section	.text.unlikely.radio_ticks_active_to_start_set,"ax",@progbits
.LCOLDB67:
	.section	.text.radio_ticks_active_to_start_set,"ax",@progbits
.LHOTB67:
	.globl	radio_ticks_active_to_start_set
	.type	radio_ticks_active_to_start_set, @function
radio_ticks_active_to_start_set:
.LFB316:
	.loc 1 11483 0
	.cfi_startproc
.LVL1180:
	pushl	%ebp
	.cfi_def_cfa_offset 8
	.cfi_offset 5, -8
	movl	%esp, %ebp
	.cfi_def_cfa_register 5
	.loc 1 11484 0
	movl	8(%ebp), %eax
	.loc 1 11485 0
	popl	%ebp
	.cfi_restore 5
	.cfi_def_cfa 4, 4
	.loc 1 11484 0
	movl	%eax, _radio+384
	.loc 1 11485 0
	ret
	.cfi_endproc
.LFE316:
	.size	radio_ticks_active_to_start_set, .-radio_ticks_active_to_start_set
	.section	.text.unlikely.radio_ticks_active_to_start_set
.LCOLDE67:
	.section	.text.radio_ticks_active_to_start_set
.LHOTE67:
	.section	.text.unlikely.radio_adv_data_get,"ax",@progbits
.LCOLDB68:
	.section	.text.radio_adv_data_get,"ax",@progbits
.LHOTB68:
	.globl	radio_adv_data_get
	.type	radio_adv_data_get, @function
radio_adv_data_get:
.LFB317:
	.loc 1 11487 0
	.cfi_startproc
	pushl	%ebp
	.cfi_def_cfa_offset 8
	.cfi_offset 5, -8
	.loc 1 11489 0
	movl	$_radio+42, %eax
	.loc 1 11487 0
	movl	%esp, %ebp
	.cfi_def_cfa_register 5
	.loc 1 11489 0
	popl	%ebp
	.cfi_restore 5
	.cfi_def_cfa 4, 4
	ret
	.cfi_endproc
.LFE317:
	.size	radio_adv_data_get, .-radio_adv_data_get
	.section	.text.unlikely.radio_adv_data_get
.LCOLDE68:
	.section	.text.radio_adv_data_get
.LHOTE68:
	.section	.text.unlikely.radio_scan_data_get,"ax",@progbits
.LCOLDB69:
	.section	.text.radio_scan_data_get,"ax",@progbits
.LHOTB69:
	.globl	radio_scan_data_get
	.type	radio_scan_data_get, @function
radio_scan_data_get:
.LFB318:
	.loc 1 11491 0
	.cfi_startproc
	pushl	%ebp
	.cfi_def_cfa_offset 8
	.cfi_offset 5, -8
	.loc 1 11493 0
	movl	$_radio+122, %eax
	.loc 1 11491 0
	movl	%esp, %ebp
	.cfi_def_cfa_register 5
	.loc 1 11493 0
	popl	%ebp
	.cfi_restore 5
	.cfi_def_cfa 4, 4
	ret
	.cfi_endproc
.LFE318:
	.size	radio_scan_data_get, .-radio_scan_data_get
	.section	.text.unlikely.radio_scan_data_get
.LCOLDE69:
	.section	.text.radio_scan_data_get
.LHOTE69:
	.section	.text.unlikely.radio_adv_is_enabled,"ax",@progbits
.LCOLDB70:
	.section	.text.radio_adv_is_enabled,"ax",@progbits
.LHOTB70:
	.globl	radio_adv_is_enabled
	.type	radio_adv_is_enabled, @function
radio_adv_is_enabled:
.LFB324:
	.loc 1 11903 0
	.cfi_startproc
	.loc 1 11904 0
	movb	_radio+40, %al
	.loc 1 11903 0
	pushl	%ebp
	.cfi_def_cfa_offset 8
	.cfi_offset 5, -8
	movl	%esp, %ebp
	.cfi_def_cfa_register 5
	.loc 1 11904 0
	andl	$1, %eax
	.loc 1 11905 0
	popl	%ebp
	.cfi_restore 5
	.cfi_def_cfa 4, 4
	ret
	.cfi_endproc
.LFE324:
	.size	radio_adv_is_enabled, .-radio_adv_is_enabled
	.section	.text.unlikely.radio_adv_is_enabled
.LCOLDE70:
	.section	.text.radio_adv_is_enabled
.LHOTE70:
	.section	.text.unlikely.radio_adv_filter_pol_get,"ax",@progbits
.LCOLDB71:
	.section	.text.radio_adv_filter_pol_get,"ax",@progbits
.LHOTB71:
	.globl	radio_adv_filter_pol_get
	.type	radio_adv_filter_pol_get, @function
radio_adv_filter_pol_get:
.LFB325:
	.loc 1 11907 0
	.cfi_startproc
	xorl	%eax, %eax
	.loc 1 11908 0
	testb	$1, _radio+40
	.loc 1 11907 0
	pushl	%ebp
	.cfi_def_cfa_offset 8
	.cfi_offset 5, -8
	movl	%esp, %ebp
	.cfi_def_cfa_register 5
	.loc 1 11908 0
	je	.L1115
	.loc 1 11909 0
	movb	_radio+41, %al
	shrb	$3, %al
	andl	$3, %eax
.L1115:
	.loc 1 11912 0
	popl	%ebp
	.cfi_restore 5
	.cfi_def_cfa 4, 4
	ret
	.cfi_endproc
.LFE325:
	.size	radio_adv_filter_pol_get, .-radio_adv_filter_pol_get
	.section	.text.unlikely.radio_adv_filter_pol_get
.LCOLDE71:
	.section	.text.radio_adv_filter_pol_get
.LHOTE71:
	.section	.text.unlikely.radio_scan_is_enabled,"ax",@progbits
.LCOLDB72:
	.section	.text.radio_scan_is_enabled,"ax",@progbits
.LHOTB72:
	.globl	radio_scan_is_enabled
	.type	radio_scan_is_enabled, @function
radio_scan_is_enabled:
.LFB328:
	.loc 1 12010 0
	.cfi_startproc
	.loc 1 12011 0
	movb	_radio+224, %al
	.loc 1 12010 0
	pushl	%ebp
	.cfi_def_cfa_offset 8
	.cfi_offset 5, -8
	movl	%esp, %ebp
	.cfi_def_cfa_register 5
	.loc 1 12011 0
	andl	$1, %eax
	.loc 1 12012 0
	popl	%ebp
	.cfi_restore 5
	.cfi_def_cfa 4, 4
	ret
	.cfi_endproc
.LFE328:
	.size	radio_scan_is_enabled, .-radio_scan_is_enabled
	.section	.text.unlikely.radio_scan_is_enabled
.LCOLDE72:
	.section	.text.radio_scan_is_enabled
.LHOTE72:
	.section	.text.unlikely.radio_scan_filter_pol_get,"ax",@progbits
.LCOLDB73:
	.section	.text.radio_scan_filter_pol_get,"ax",@progbits
.LHOTB73:
	.globl	radio_scan_filter_pol_get
	.type	radio_scan_filter_pol_get, @function
radio_scan_filter_pol_get:
.LFB329:
	.loc 1 12014 0
	.cfi_startproc
	xorl	%eax, %eax
	.loc 1 12015 0
	testb	$1, _radio+224
	.loc 1 12014 0
	pushl	%ebp
	.cfi_def_cfa_offset 8
	.cfi_offset 5, -8
	movl	%esp, %ebp
	.cfi_def_cfa_register 5
	.loc 1 12015 0
	je	.L1123
	.loc 1 12016 0
	movb	_radio+225, %al
	shrb	%al
	andl	$3, %eax
.L1123:
	.loc 1 12019 0
	popl	%ebp
	.cfi_restore 5
	.cfi_def_cfa 4, 4
	ret
	.cfi_endproc
.LFE329:
	.size	radio_scan_filter_pol_get, .-radio_scan_filter_pol_get
	.section	.text.unlikely.radio_scan_filter_pol_get
.LCOLDE73:
	.section	.text.radio_scan_filter_pol_get
.LHOTE73:
	.section	.text.unlikely.radio_connect_enable,"ax",@progbits
.LCOLDB74:
	.section	.text.radio_connect_enable,"ax",@progbits
.LHOTB74:
	.globl	radio_connect_enable
	.type	radio_connect_enable, @function
radio_connect_enable:
.LFB330:
	.loc 1 12022 0
	.cfi_startproc
.LVL1181:
	pushl	%ebp
	.cfi_def_cfa_offset 8
	.cfi_offset 5, -8
	movl	%esp, %ebp
	.cfi_def_cfa_register 5
	pushl	%edi
	pushl	%esi
	pushl	%ebx
	.cfi_offset 7, -12
	.cfi_offset 6, -16
	.cfi_offset 3, -20
	.loc 1 12028 0
	movl	$12, %edi
	.loc 1 12022 0
	subl	$76, %esp
	.loc 1 12022 0
	movl	8(%ebp), %eax
	movl	12(%ebp), %esi
	movl	%eax, -44(%ebp)
	movl	16(%ebp), %eax
	movl	%eax, -48(%ebp)
	movl	20(%ebp), %eax
	movl	%eax, -56(%ebp)
	movl	24(%ebp), %eax
	movl	%eax, -60(%ebp)
	movl	%gs:20, %eax
	movl	%eax, -28(%ebp)
	xorl	%eax, %eax
	.loc 1 12027 0
	cmpl	$0, _radio+256
	jne	.L1129
	.loc 1 12030 0
	subl	$12, %esp
	.loc 1 12032 0
	movl	$7, %edi
	.loc 1 12030 0
	pushl	$_radio+324
	call	mem_acquire
.LVL1182:
	.loc 1 12031 0
	addl	$16, %esp
	testl	%eax, %eax
	.loc 1 12030 0
	movl	%eax, -52(%ebp)
.LVL1183:
	.loc 1 12031 0
	je	.L1129
	.loc 1 12034 0
	subl	$12, %esp
	pushl	$_radio+268
	call	mem_acquire
.LVL1184:
	.loc 1 12035 0
	addl	$16, %esp
	testl	%eax, %eax
	.loc 1 12034 0
	movl	%eax, %ebx
	movl	%eax, -40(%ebp)
	.loc 1 12035 0
	jne	.L1130
	.loc 1 12036 0
	pushl	%ebx
	pushl	%ebx
	pushl	$_radio+324
	pushl	-52(%ebp)
	call	mem_release
.LVL1185:
	.loc 1 12037 0
	addl	$16, %esp
	jmp	.L1129
.L1130:
	.loc 1 12039 0
	movb	-44(%ebp), %al
	andl	$1, %eax
	leal	0(,%eax,8), %edx
	movb	_radio+225, %al
	andl	$-9, %eax
	orl	%edx, %eax
	movb	%al, _radio+225
	.loc 1 12040 0
	movl	(%esi), %eax
	movl	%eax, _radio+232
	movw	4(%esi), %ax
	.loc 1 12045 0
	pushl	%ecx
	pushl	%ecx
	pushl	$0
	pushl	$0
	.loc 1 12040 0
	movw	%ax, _radio+236
	.loc 1 12041 0
	movl	-48(%ebp), %eax
	movw	%ax, _radio+244
	.loc 1 12042 0
	movl	-56(%ebp), %eax
	movw	%ax, _radio+246
	.loc 1 12043 0
	movl	-60(%ebp), %eax
	movw	%ax, _radio+248
	.loc 1 12045 0
	call	radio_tx_ready_delay_get
.LVL1186:
	leal	1106(%eax), %edx
	.loc 1 12044 0
	movl	$1000000000, %eax
	pushl	$7
	pushl	$452807053
	mull	%edx
	pushl	%edx
	pushl	%eax
	call	__udivdi3
.LVL1187:
	andl	$16777215, %eax
	.loc 1 12048 0
	addl	$32, %esp
	.loc 1 12044 0
	movl	%eax, _radio+252
	.loc 1 12047 0
	movw	$-1, 32(%ebx)
	.loc 1 12048 0
	movl	$81935, 148(%ebx)
.LVL1188:
.L1165:
.LBB721:
.LBB722:
	.loc 1 9221 0
	movl	$4, %edi
.LVL1189:
.L1132:
	.loc 1 9223 0
	leal	-32(%ebp), %eax
	pushl	%edx
	pushl	%edx
	pushl	%eax
	movl	%edi, %eax
	movzbl	%al, %edx
	pushl	%edx
	call	rand_get
.LVL1190:
	.loc 1 9224 0
	addl	$16, %esp
	testb	%al, %al
	.loc 1 9223 0
	movl	%eax, %edi
.LVL1191:
	.loc 1 9224 0
	je	.L1131
	.loc 1 9225 0
	call	cpu_sleep
.LVL1192:
	jmp	.L1132
.LVL1193:
.L1153:
.LBB723:
	.loc 1 9255 0
	movb	%cl, -88(%ebp)
.LVL1194:
.L1140:
.LBE723:
	.loc 1 9232 0
	decb	-44(%ebp)
.LVL1195:
	cmpb	$-1, -44(%ebp)
	je	.L1174
.LVL1196:
.LBB724:
	.loc 1 9234 0
	movzbl	-44(%ebp), %ecx
	movl	%esi, %edx
	movl	%ecx, -56(%ebp)
	movb	-44(%ebp), %cl
	shrl	%cl, %edx
	movl	%edx, %ecx
	andl	$1, %ecx
.LVL1197:
	.loc 1 9235 0
	cmpb	-88(%ebp), %cl
	jne	.L1133
	.loc 1 9236 0
	incb	-48(%ebp)
.LVL1198:
	.loc 1 9242 0
	cmpb	$6, -48(%ebp)
	ja	.L1134
.L1135:
.LVL1199:
	cmpb	$27, -44(%ebp)
	jbe	.L1175
.L1154:
	.loc 1 9243 0
	cmpb	$26, -44(%ebp)
	jbe	.L1176
.LVL1200:
.L1137:
	.loc 1 9255 0
	cmpb	$24, %al
	jbe	.L1153
	cmpb	$0, -60(%ebp)
	je	.L1141
	movl	%esi, -32(%ebp)
.L1141:
	movl	-56(%ebp), %eax
.LVL1201:
	.loc 1 9256 0
	testb	%cl, %cl
	leal	1(%eax), %ecx
.LVL1202:
	je	.L1142
	.loc 1 9257 0
	orl	$-1, %eax
	sall	%cl, %eax
	andl	%eax, -32(%ebp)
.LVL1203:
.L1143:
.LBE724:
	.loc 1 9264 0
	movl	-32(%ebp), %eax
	xorl	$-1903575338, %eax
	movl	%eax, -36(%ebp)
	.loc 1 9265 0
	pushl	%eax
	pushl	%eax
	leal	-36(%ebp), %eax
	pushl	$4
	pushl	%eax
	call	util_ones_count_get
.LVL1204:
	addl	$16, %esp
	cmpb	$1, %al
	jbe	.L1165
	.loc 1 9269 0
	movl	-32(%ebp), %eax
	movl	%eax, %edx
	movzwl	%ax, %ecx
	shrl	$16, %edx
	cmpl	%edx, %ecx
	je	.L1147
.L1148:
.LVL1205:
.LBE722:
.LBE721:
	.loc 1 12050 0
	movl	%eax, 16(%ebx)
	.loc 1 12051 0
	movl	-40(%ebp), %eax
	.loc 1 12121 0
	xorl	%edi, %edi
	.loc 1 12054 0
	movb	29(%ebx), %dl
	.loc 1 12051 0
	movw	%ax, 20(%ebx)
	movb	-38(%ebp), %al
	.loc 1 12054 0
	andl	$-64, %edx
	.loc 1 12051 0
	movb	%al, 22(%ebx)
	.loc 1 12052 0
	movl	_radio+282, %eax
	movl	%eax, 23(%ebx)
	movb	_radio+286, %al
	movb	%al, 27(%ebx)
	.loc 1 12054 0
	movb	_radio+287, %al
	.loc 1 12056 0
	movb	$6, 30(%ebx)
	.loc 1 12057 0
	movb	$0, 31(%ebx)
	.loc 1 12058 0
	movw	$0, 34(%ebx)
	.loc 1 12054 0
	andl	$63, %eax
	orl	%edx, %eax
	.loc 1 12055 0
	movb	%al, %dl
	.loc 1 12070 0
	andl	$63, %eax
	.loc 1 12055 0
	andl	$-65, %edx
	movb	%dl, 29(%ebx)
	.loc 1 12062 0
	movw	_radio+246, %dx
	.loc 1 12059 0
	movzwl	_radio+244, %ecx
	.loc 1 12060 0
	movw	$0, 40(%ebx)
	.loc 1 12061 0
	movw	$0, 42(%ebx)
	.loc 1 12062 0
	movw	%dx, 38(%ebx)
	.loc 1 12063 0
	movb	_radio+290, %dl
	.loc 1 12059 0
	movw	%cx, 36(%ebx)
	.loc 1 12063 0
	andl	$7, %edx
	.loc 1 12066 0
	orl	$8, %edx
	movb	%dl, 44(%ebx)
	.loc 1 12067 0
	movb	45(%ebx), %dl
	.loc 1 12074 0
	imull	$1250, %ecx, %ecx
	.loc 1 12067 0
	andl	$-8, %edx
	orl	$1, %edx
	movb	%dl, 45(%ebx)
.LVL1206:
	.loc 1 12068 0
	movl	_radio+292, %esi
	andl	$-57, %edx
	.loc 1 12070 0
	movb	%al, 29(%ebx)
	.loc 1 12071 0
	movw	$6, 48(%ebx)
	.loc 1 12068 0
	andl	$7, %esi
	sall	$3, %esi
	orl	%esi, %edx
	movb	%dl, 45(%ebx)
	.loc 1 12069 0
	movb	46(%ebx), %dl
	andl	$-8, %edx
	orl	$1, %edx
	movb	%dl, 46(%ebx)
	.loc 1 12073 0
	andb	$-34, 60(%ebx)
.LVL1207:
	.loc 1 12076 0
	xorl	%edx, %edx
	movzwl	_radio+248, %eax
	.loc 1 12103 0
	movl	$0, 292(%ebx)
	.loc 1 12079 0
	movw	$0, 52(%ebx)
	.loc 1 12082 0
	movw	$0, 56(%ebx)
	.loc 1 12083 0
	movb	$0, 96(%ebx)
	.loc 1 12084 0
	movb	$0, 97(%ebx)
	.loc 1 12076 0
	imull	$10000, %eax, %eax
	.loc 1 12086 0
	andb	$-4, 152(%ebx)
	.loc 1 12087 0
	movb	$0, 160(%ebx)
	.loc 1 12088 0
	movb	$0, 161(%ebx)
	.loc 1 12089 0
	movb	$0, 163(%ebx)
	.loc 1 12091 0
	movb	$0, 180(%ebx)
	.loc 1 12092 0
	movb	$0, 181(%ebx)
	.loc 1 12076 0
	leal	-1(%ecx,%eax), %eax
	.loc 1 12093 0
	movb	$0, 220(%ebx)
	.loc 1 12094 0
	movb	$0, 221(%ebx)
	.loc 1 12076 0
	divl	%ecx
	.loc 1 12080 0
	xorl	%edx, %edx
	.loc 1 12102 0
	movb	$0, 224(%ebx)
	.loc 1 12106 0
	movl	$0, 296(%ebx)
	.loc 1 12109 0
	movl	$0, 300(%ebx)
	.loc 1 12112 0
	movl	$0, 304(%ebx)
	.loc 1 12115 0
	movl	$0, 308(%ebx)
	.loc 1 12118 0
	movb	$0, 312(%ebx)
	.loc 1 12119 0
	movb	$0, 313(%ebx)
	.loc 1 12076 0
	movw	%ax, 50(%ebx)
	.loc 1 12080 0
	leal	39999999(%ecx), %eax
	divl	%ecx
	movw	%ax, 54(%ebx)
	.loc 1 12090 0
	movl	-52(%ebp), %eax
	movl	%eax, 164(%ebx)
	.loc 1 12120 0
	movl	%ebx, _radio+256
.LVL1208:
.L1129:
	.loc 1 12122 0
	movl	%edi, %eax
	movl	-28(%ebp), %edi
	xorl	%gs:20, %edi
	je	.L1149
	call	__stack_chk_fail
.LVL1209:
.L1131:
.LBB728:
.LBB727:
	.loc 1 9231 0
	movl	-32(%ebp), %esi
	movb	$0, -60(%ebp)
.LBB725:
	.loc 1 9250 0
	movl	$1, %edi
.LBE725:
	.loc 1 9228 0
	movb	$31, -44(%ebp)
	.loc 1 9230 0
	movb	$1, -48(%ebp)
	.loc 1 9231 0
	movl	%esi, %eax
	shrl	$31, %eax
	movl	%eax, -88(%ebp)
.LVL1210:
	.loc 1 9229 0
	xorl	%eax, %eax
	jmp	.L1140
.LVL1211:
.L1133:
.LBB726:
	.loc 1 9240 0
	incl	%eax
.LVL1212:
	.loc 1 9238 0
	movb	$1, -48(%ebp)
	jmp	.L1135
.LVL1213:
.L1175:
	.loc 1 9242 0
	testb	%al, %al
	je	.L1152
	jmp	.L1154
.L1176:
	.loc 1 9243 0
	cmpb	$1, %al
	jbe	.L1134
	jmp	.L1137
.L1152:
	.loc 1 9242 0
	xorl	%eax, %eax
.LVL1214:
.L1134:
	.loc 1 9245 0
	testb	%cl, %cl
	.loc 1 9247 0
	movl	%edi, %edx
	movb	-56(%ebp), %cl
.LVL1215:
	.loc 1 9245 0
	je	.L1138
.LVL1216:
	.loc 1 9247 0
	sall	%cl, %edx
	.loc 1 9246 0
	xorl	%ecx, %ecx
	.loc 1 9247 0
	notl	%edx
	andl	%edx, %esi
.LVL1217:
	jmp	.L1139
.LVL1218:
.L1138:
	.loc 1 9250 0
	sall	%cl, %edx
	.loc 1 9249 0
	movb	$1, %cl
	.loc 1 9250 0
	orl	%edx, %esi
.LVL1219:
.L1139:
	.loc 1 9253 0
	incl	%eax
.LVL1220:
	movb	$1, -60(%ebp)
	.loc 1 9252 0
	movb	$1, -48(%ebp)
	jmp	.L1137
.LVL1221:
.L1142:
	.loc 1 9259 0
	movl	$1, %eax
	sall	%cl, %eax
	decl	%eax
	orl	%eax, -32(%ebp)
	jmp	.L1143
.LVL1222:
.L1174:
	cmpb	$0, -60(%ebp)
	je	.L1143
	movl	%esi, -32(%ebp)
	jmp	.L1143
.LVL1223:
.L1147:
.LBE726:
	.loc 1 9269 0
	movl	%eax, %ecx
	movzbl	%al, %edx
	shrl	$24, %ecx
	cmpl	%ecx, %edx
	je	.L1165
	jmp	.L1148
.LVL1224:
.L1149:
.LBE727:
.LBE728:
	.loc 1 12122 0
	leal	-12(%ebp), %esp
	popl	%ebx
	.cfi_restore 3
	popl	%esi
	.cfi_restore 6
	popl	%edi
	.cfi_restore 7
	popl	%ebp
	.cfi_restore 5
	.cfi_def_cfa 4, 4
	ret
	.cfi_endproc
.LFE330:
	.size	radio_connect_enable, .-radio_connect_enable
	.section	.text.unlikely.radio_connect_enable
.LCOLDE74:
	.section	.text.radio_connect_enable
.LHOTE74:
	.section	.text.unlikely.ll_conn_update,"ax",@progbits
.LCOLDB75:
	.section	.text.ll_conn_update,"ax",@progbits
.LHOTB75:
	.globl	ll_conn_update
	.type	ll_conn_update, @function
ll_conn_update:
.LFB332:
	.loc 1 12134 0
	.cfi_startproc
.LVL1225:
	pushl	%ebp
	.cfi_def_cfa_offset 8
	.cfi_offset 5, -8
	movl	%esp, %ebp
	.cfi_def_cfa_register 5
	pushl	%edi
	pushl	%esi
	pushl	%ebx
	subl	$28, %esp
	.cfi_offset 7, -12
	.cfi_offset 6, -16
	.cfi_offset 3, -20
	.loc 1 12134 0
	movl	12(%ebp), %eax
	movl	20(%ebp), %edi
	movl	24(%ebp), %ebx
	movl	28(%ebp), %esi
	movl	%eax, -28(%ebp)
	movl	16(%ebp), %eax
	movb	-28(%ebp), %cl
	movl	%eax, -32(%ebp)
	.loc 1 12136 0
	movzwl	8(%ebp), %eax
	.loc 1 12134 0
	movb	%cl, -33(%ebp)
	.loc 1 12136 0
	call	connection_get
.LVL1226:
	movl	%eax, %edx
.LVL1227:
	.loc 1 12138 0
	movl	$1, %eax
.LVL1228:
	.loc 1 12137 0
	testl	%edx, %edx
	je	.L1194
	.loc 1 12140 0
	cmpb	$0, -28(%ebp)
	movb	-33(%ebp), %cl
	jne	.L1179
	.loc 1 12141 0
	testb	$32, 60(%edx)
	je	.L1180
	.loc 1 12141 0 is_stmt 0 discriminator 1
	testb	$2, 148(%edx)
	jne	.L1186
.L1180:
	.loc 1 12145 0 is_stmt 1
	cmpb	$0, 29(%edx)
	.loc 1 12138 0
	movl	$1, %eax
	.loc 1 12145 0
	js	.L1194
.LVL1229:
	.loc 1 12150 0
	movb	96(%edx), %cl
	cmpb	97(%edx), %cl
	jne	.L1194
	.loc 1 12158 0
	movb	104(%edx), %al
	.loc 1 12161 0
	incl	%ecx
	.loc 1 12153 0
	movb	$1, 120(%edx)
	.loc 1 12154 0
	movl	$0, 116(%edx)
	.loc 1 12155 0
	movw	%di, 106(%edx)
	.loc 1 12156 0
	movw	%bx, 108(%edx)
	.loc 1 12157 0
	movw	%si, 110(%edx)
	.loc 1 12158 0
	andl	$-8, %eax
	.loc 1 12160 0
	movl	$1, 100(%edx)
	.loc 1 12161 0
	movb	%cl, 96(%edx)
	.loc 1 12159 0
	orl	$1, %eax
	movb	%al, 104(%edx)
	jmp	.L1200
.LVL1230:
.L1186:
	.loc 1 12144 0
	movb	$1, %cl
.L1179:
.LVL1231:
	.loc 1 12164 0
	decb	%cl
.LVL1232:
	movb	%cl, -28(%ebp)
	movb	180(%edx), %cl
.LVL1233:
	je	.L1201
	.loc 1 12165 0
	cmpb	181(%edx), %cl
	.loc 1 12138 0
	movl	$1, %eax
	.loc 1 12165 0
	je	.L1194
	.loc 1 12166 0
	movb	182(%edx), %bl
	movb	%bl, %cl
	andl	$7, %ecx
	cmpb	$3, %cl
	jne	.L1194
	.loc 1 12171 0
	movb	-32(%ebp), %al
	.loc 1 12172 0
	andl	$-8, %ebx
	movb	%bl, %cl
	.loc 1 12171 0
	movb	%al, 183(%edx)
	.loc 1 12172 0
	movb	-28(%ebp), %al
	andl	$7, %eax
	orl	%eax, %ecx
	.loc 1 12173 0
	orl	$8, %ecx
	movb	%cl, 182(%edx)
.LVL1234:
.L1200:
	.loc 1 12188 0
	xorl	%eax, %eax
	jmp	.L1194
.LVL1235:
.L1201:
	.loc 1 12175 0
	cmpb	181(%edx), %cl
	.loc 1 12138 0
	movl	$1, %eax
	.loc 1 12175 0
	jne	.L1194
	.loc 1 12183 0
	movb	182(%edx), %al
	.loc 1 12179 0
	movb	$0, 183(%edx)
	.loc 1 12180 0
	movw	%di, 184(%edx)
	.loc 1 12181 0
	movw	%bx, 186(%edx)
	.loc 1 12182 0
	movw	%si, 188(%edx)
	.loc 1 12183 0
	andl	$-8, %eax
	.loc 1 12184 0
	orl	$8, %eax
	movb	%al, 182(%edx)
	.loc 1 12185 0
	leal	1(%ecx), %eax
	movb	%al, 180(%edx)
	jmp	.L1200
.LVL1236:
.L1194:
	.loc 1 12189 0
	addl	$28, %esp
	popl	%ebx
	.cfi_restore 3
	popl	%esi
	.cfi_restore 6
	popl	%edi
	.cfi_restore 7
	popl	%ebp
	.cfi_restore 5
	.cfi_def_cfa 4, 4
	ret
	.cfi_endproc
.LFE332:
	.size	ll_conn_update, .-ll_conn_update
	.section	.text.unlikely.ll_conn_update
.LCOLDE75:
	.section	.text.ll_conn_update
.LHOTE75:
	.section	.text.unlikely.ll_chm_update,"ax",@progbits
.LCOLDB76:
	.section	.text.ll_chm_update,"ax",@progbits
.LHOTB76:
	.globl	ll_chm_update
	.type	ll_chm_update, @function
ll_chm_update:
.LFB333:
	.loc 1 12191 0
	.cfi_startproc
.LVL1237:
	pushl	%ebp
	.cfi_def_cfa_offset 8
	.cfi_offset 5, -8
	movl	%esp, %ebp
	.cfi_def_cfa_register 5
	pushl	%esi
	pushl	%ebx
	.cfi_offset 6, -12
	.cfi_offset 3, -16
	.loc 1 12191 0
	movl	8(%ebp), %esi
	.loc 1 12193 0
	movl	(%esi), %eax
	movl	%eax, _radio+282
	movb	4(%esi), %al
	movb	%al, _radio+286
	.loc 1 12196 0
	pushl	%eax
	pushl	%eax
	pushl	$5
	pushl	$_radio+282
	call	util_ones_count_get
.LVL1238:
	.loc 1 12195 0
	movb	%al, _radio+287
.LVL1239:
	movb	_radio+272, %al
	.loc 1 12199 0
	addl	$16, %esp
	leal	-1(%eax), %ebx
.LVL1240:
.L1203:
	cmpb	$-1, %bl
	je	.L1212
.LBB729:
	.loc 1 12201 0
	movzbl	%bl, %eax
	call	connection_get
.LVL1241:
	.loc 1 12202 0
	testl	%eax, %eax
	je	.L1204
	.loc 1 12202 0 is_stmt 0 discriminator 1
	cmpb	$0, 29(%eax)
	js	.L1204
	.loc 1 12205 0 is_stmt 1
	movb	96(%eax), %cl
	cmpb	97(%eax), %cl
	jne	.L1207
	.loc 1 12208 0
	movl	(%esi), %edx
	.loc 1 12212 0
	incl	%ecx
	.loc 1 12208 0
	movl	%edx, 105(%eax)
	movb	4(%esi), %dl
	.loc 1 12210 0
	movb	$1, 104(%eax)
	.loc 1 12211 0
	movl	$2, 100(%eax)
	.loc 1 12212 0
	movb	%cl, 96(%eax)
	.loc 1 12208 0
	movb	%dl, 109(%eax)
.L1204:
	decl	%ebx
.LVL1242:
	jmp	.L1203
.LVL1243:
.L1212:
.LBE729:
	.loc 1 12214 0
	xorl	%eax, %eax
	jmp	.L1205
.LVL1244:
.L1207:
.LBB730:
	.loc 1 12206 0
	movl	$1, %eax
.LVL1245:
.L1205:
.LBE730:
	.loc 1 12215 0
	leal	-8(%ebp), %esp
	popl	%ebx
	.cfi_restore 3
.LVL1246:
	popl	%esi
	.cfi_restore 6
	popl	%ebp
	.cfi_restore 5
	.cfi_def_cfa 4, 4
	ret
	.cfi_endproc
.LFE333:
	.size	ll_chm_update, .-ll_chm_update
	.section	.text.unlikely.ll_chm_update
.LCOLDE76:
	.section	.text.ll_chm_update
.LHOTE76:
	.section	.text.unlikely.ll_chm_get,"ax",@progbits
.LCOLDB77:
	.section	.text.ll_chm_get,"ax",@progbits
.LHOTB77:
	.globl	ll_chm_get
	.type	ll_chm_get, @function
ll_chm_get:
.LFB334:
	.loc 1 12217 0
	.cfi_startproc
.LVL1247:
	pushl	%ebp
	.cfi_def_cfa_offset 8
	.cfi_offset 5, -8
	movl	%esp, %ebp
	.cfi_def_cfa_register 5
	pushl	%ebx
	pushl	%ecx
	.cfi_offset 3, -12
	.loc 1 12219 0
	movzwl	8(%ebp), %eax
	.loc 1 12217 0
	movl	12(%ebp), %ebx
	.loc 1 12219 0
	call	connection_get
.LVL1248:
	movl	%eax, %edx
.LVL1249:
	movl	$1, %eax
.LVL1250:
	.loc 1 12220 0
	testl	%edx, %edx
	je	.L1214
.L1217:
	.loc 1 12225 0 discriminator 1
	movl	23(%edx), %eax
	.loc 1 12224 0 discriminator 1
	movb	$0, 28(%edx)
	.loc 1 12225 0 discriminator 1
	movl	%eax, (%ebx)
	movb	27(%edx), %al
	movb	%al, 4(%ebx)
	.loc 1 12226 0 discriminator 1
	cmpb	$0, 28(%edx)
	jne	.L1217
	.loc 1 12227 0
	xorl	%eax, %eax
.L1214:
	.loc 1 12228 0
	popl	%edx
.LVL1251:
	popl	%ebx
	.cfi_restore 3
	popl	%ebp
	.cfi_restore 5
	.cfi_def_cfa 4, 4
	ret
	.cfi_endproc
.LFE334:
	.size	ll_chm_get, .-ll_chm_get
	.section	.text.unlikely.ll_chm_get
.LCOLDE77:
	.section	.text.ll_chm_get
.LHOTE77:
	.section	.text.unlikely.ll_start_enc_req_send,"ax",@progbits
.LCOLDB78:
	.section	.text.ll_start_enc_req_send,"ax",@progbits
.LHOTB78:
	.globl	ll_start_enc_req_send
	.type	ll_start_enc_req_send, @function
ll_start_enc_req_send:
.LFB336:
	.loc 1 12295 0
	.cfi_startproc
.LVL1252:
	pushl	%ebp
	.cfi_def_cfa_offset 8
	.cfi_offset 5, -8
	movl	%esp, %ebp
	.cfi_def_cfa_register 5
	pushl	%edi
	pushl	%esi
	pushl	%ebx
	subl	$28, %esp
	.cfi_offset 7, -12
	.cfi_offset 6, -16
	.cfi_offset 3, -20
	.loc 1 12297 0
	movzwl	8(%ebp), %eax
	.loc 1 12295 0
	movl	12(%ebp), %ecx
	movl	16(%ebp), %ebx
	movl	%ecx, -28(%ebp)
	.loc 1 12297 0
	call	connection_get
.LVL1253:
	.loc 1 12298 0
	testl	%eax, %eax
	movl	-28(%ebp), %ecx
	jne	.L1222
.L1226:
	.loc 1 12299 0
	movl	$1, %eax
.LVL1254:
	jmp	.L1223
.LVL1255:
.L1222:
	.loc 1 12301 0
	testb	%cl, %cl
	je	.L1224
	.loc 1 12302 0
	testb	$64, 224(%eax)
	jne	.L1225
	.loc 1 12303 0
	movb	96(%eax), %dl
	cmpb	97(%eax), %dl
	jne	.L1226
	.loc 1 12306 0
	movb	%cl, 105(%eax)
	jmp	.L1228
.L1225:
	.loc 1 12311 0
	movb	161(%eax), %dl
	cmpb	160(%eax), %dl
	jne	.L1226
	.loc 1 12316 0
	incl	%edx
	.loc 1 12315 0
	movb	%cl, 162(%eax)
	.loc 1 12316 0
	movb	%dl, 160(%eax)
	jmp	.L1229
.L1224:
	.loc 1 12319 0
	movl	12(%ebx), %edx
	movl	(%ebx), %edi
	movl	4(%ebx), %esi
	movl	8(%ebx), %ecx
	movl	%edx, 128(%eax)
	.loc 1 12321 0
	movb	96(%eax), %dl
	cmpb	97(%eax), %dl
	.loc 1 12319 0
	movl	%edi, 116(%eax)
	movl	%esi, 120(%eax)
	movl	%ecx, 124(%eax)
	.loc 1 12321 0
	jne	.L1226
	.loc 1 12324 0
	movb	$0, 105(%eax)
.L1228:
	.loc 1 12327 0
	incl	%edx
	.loc 1 12325 0
	movb	$0, 104(%eax)
	.loc 1 12326 0
	movl	$3, 100(%eax)
	.loc 1 12327 0
	movb	%dl, 96(%eax)
.L1229:
	.loc 1 12329 0
	xorl	%eax, %eax
.LVL1256:
.L1223:
	.loc 1 12330 0
	addl	$28, %esp
	popl	%ebx
	.cfi_restore 3
	popl	%esi
	.cfi_restore 6
	popl	%edi
	.cfi_restore 7
	popl	%ebp
	.cfi_restore 5
	.cfi_def_cfa 4, 4
	ret
	.cfi_endproc
.LFE336:
	.size	ll_start_enc_req_send, .-ll_start_enc_req_send
	.section	.text.unlikely.ll_start_enc_req_send
.LCOLDE78:
	.section	.text.ll_start_enc_req_send
.LHOTE78:
	.section	.text.unlikely.ll_feature_req_send,"ax",@progbits
.LCOLDB79:
	.section	.text.ll_feature_req_send,"ax",@progbits
.LHOTB79:
	.globl	ll_feature_req_send
	.type	ll_feature_req_send, @function
ll_feature_req_send:
.LFB337:
	.loc 1 12332 0
	.cfi_startproc
.LVL1257:
	pushl	%ebp
	.cfi_def_cfa_offset 8
	.cfi_offset 5, -8
	movl	%esp, %ebp
	.cfi_def_cfa_register 5
	subl	$8, %esp
	.loc 1 12334 0
	movzwl	8(%ebp), %eax
	call	connection_get
.LVL1258:
	movl	%eax, %edx
.LVL1259:
	.loc 1 12336 0
	movl	$1, %eax
.LVL1260:
	.loc 1 12335 0
	testl	%edx, %edx
	je	.L1231
	.loc 1 12335 0 is_stmt 0 discriminator 1
	movb	96(%edx), %cl
	cmpb	97(%edx), %cl
	jne	.L1231
	.loc 1 12339 0 is_stmt 1
	incl	%ecx
	.loc 1 12338 0
	movl	$4, 100(%edx)
	.loc 1 12340 0
	xorl	%eax, %eax
	.loc 1 12339 0
	movb	%cl, 96(%edx)
.L1231:
	.loc 1 12341 0
	leave
	.cfi_restore 5
	.cfi_def_cfa 4, 4
	ret
	.cfi_endproc
.LFE337:
	.size	ll_feature_req_send, .-ll_feature_req_send
	.section	.text.unlikely.ll_feature_req_send
.LCOLDE79:
	.section	.text.ll_feature_req_send
.LHOTE79:
	.section	.text.unlikely.ll_version_ind_send,"ax",@progbits
.LCOLDB80:
	.section	.text.ll_version_ind_send,"ax",@progbits
.LHOTB80:
	.globl	ll_version_ind_send
	.type	ll_version_ind_send, @function
ll_version_ind_send:
.LFB338:
	.loc 1 12343 0
	.cfi_startproc
.LVL1261:
	pushl	%ebp
	.cfi_def_cfa_offset 8
	.cfi_offset 5, -8
	movl	%esp, %ebp
	.cfi_def_cfa_register 5
	subl	$8, %esp
	.loc 1 12345 0
	movzwl	8(%ebp), %eax
	call	connection_get
.LVL1262:
	movl	%eax, %edx
.LVL1263:
	.loc 1 12347 0
	movl	$1, %eax
.LVL1264:
	.loc 1 12346 0
	testl	%edx, %edx
	je	.L1236
	.loc 1 12346 0 is_stmt 0 discriminator 1
	movb	96(%edx), %cl
	cmpb	97(%edx), %cl
	jne	.L1236
	.loc 1 12350 0 is_stmt 1
	incl	%ecx
	.loc 1 12349 0
	movl	$5, 100(%edx)
	.loc 1 12351 0
	xorl	%eax, %eax
	.loc 1 12350 0
	movb	%cl, 96(%edx)
.L1236:
	.loc 1 12352 0
	leave
	.cfi_restore 5
	.cfi_def_cfa 4, 4
	ret
	.cfi_endproc
.LFE338:
	.size	ll_version_ind_send, .-ll_version_ind_send
	.section	.text.unlikely.ll_version_ind_send
.LCOLDE80:
	.section	.text.ll_version_ind_send
.LHOTE80:
	.section	.text.unlikely.ll_terminate_ind_send,"ax",@progbits
.LCOLDB81:
	.section	.text.ll_terminate_ind_send,"ax",@progbits
.LHOTB81:
	.globl	ll_terminate_ind_send
	.type	ll_terminate_ind_send, @function
ll_terminate_ind_send:
.LFB339:
	.loc 1 12354 0
	.cfi_startproc
.LVL1265:
	pushl	%ebp
	.cfi_def_cfa_offset 8
	.cfi_offset 5, -8
	movl	%esp, %ebp
	.cfi_def_cfa_register 5
	pushl	%ebx
	pushl	%ecx
	.cfi_offset 3, -12
	.loc 1 12356 0
	movzwl	8(%ebp), %eax
	.loc 1 12354 0
	movl	12(%ebp), %ebx
	.loc 1 12356 0
	call	connection_get
.LVL1266:
	movl	%eax, %edx
.LVL1267:
	.loc 1 12358 0
	movl	$1, %eax
.LVL1268:
	.loc 1 12357 0
	testl	%edx, %edx
	je	.L1241
	.loc 1 12357 0 is_stmt 0 discriminator 1
	movb	161(%edx), %cl
	cmpb	160(%edx), %cl
	jne	.L1241
	.loc 1 12361 0 is_stmt 1
	incl	%ecx
	.loc 1 12360 0
	movb	%bl, 162(%edx)
	.loc 1 12362 0
	xorl	%eax, %eax
	.loc 1 12361 0
	movb	%cl, 160(%edx)
.L1241:
	.loc 1 12363 0
	popl	%edx
.LVL1269:
	popl	%ebx
	.cfi_restore 3
	popl	%ebp
	.cfi_restore 5
	.cfi_def_cfa 4, 4
	ret
	.cfi_endproc
.LFE339:
	.size	ll_terminate_ind_send, .-ll_terminate_ind_send
	.section	.text.unlikely.ll_terminate_ind_send
.LCOLDE81:
	.section	.text.ll_terminate_ind_send
.LHOTE81:
	.section	.text.unlikely.ll_tx_power_level_get,"ax",@progbits
.LCOLDB82:
	.section	.text.ll_tx_power_level_get,"ax",@progbits
.LHOTB82:
	.globl	ll_tx_power_level_get
	.type	ll_tx_power_level_get, @function
ll_tx_power_level_get:
.LFB340:
	.loc 1 12365 0
	.cfi_startproc
.LVL1270:
	pushl	%ebp
	.cfi_def_cfa_offset 8
	.cfi_offset 5, -8
	movl	%esp, %ebp
	.cfi_def_cfa_register 5
	subl	$8, %esp
	.loc 1 12367 0
	movzwl	8(%ebp), %eax
	call	connection_get
.LVL1271:
	.loc 1 12368 0
	testl	%eax, %eax
	movl	$1, %edx
	je	.L1246
	.loc 1 12371 0
	movl	16(%ebp), %eax
.LVL1272:
	.loc 1 12372 0
	xorl	%edx, %edx
	.loc 1 12371 0
	movb	$0, (%eax)
.L1246:
	.loc 1 12373 0
	movl	%edx, %eax
	leave
	.cfi_restore 5
	.cfi_def_cfa 4, 4
	ret
	.cfi_endproc
.LFE340:
	.size	ll_tx_power_level_get, .-ll_tx_power_level_get
	.section	.text.unlikely.ll_tx_power_level_get
.LCOLDE82:
	.section	.text.ll_tx_power_level_get
.LHOTE82:
	.section	.text.unlikely.ll_tx_power_get,"ax",@progbits
.LCOLDB83:
	.section	.text.ll_tx_power_get,"ax",@progbits
.LHOTB83:
	.globl	ll_tx_power_get
	.type	ll_tx_power_get, @function
ll_tx_power_get:
.LFB341:
	.loc 1 12375 0
	.cfi_startproc
.LVL1273:
	pushl	%ebp
	.cfi_def_cfa_offset 8
	.cfi_offset 5, -8
	movl	%esp, %ebp
	.cfi_def_cfa_register 5
	.loc 1 12376 0
	movl	8(%ebp), %eax
	movb	$0, (%eax)
	.loc 1 12377 0
	movl	12(%ebp), %eax
	movb	$0, (%eax)
	.loc 1 12378 0
	popl	%ebp
	.cfi_restore 5
	.cfi_def_cfa 4, 4
	ret
	.cfi_endproc
.LFE341:
	.size	ll_tx_power_get, .-ll_tx_power_get
	.section	.text.unlikely.ll_tx_power_get
.LCOLDE83:
	.section	.text.ll_tx_power_get
.LHOTE83:
	.section	.text.unlikely.ll_phy_get,"ax",@progbits
.LCOLDB84:
	.section	.text.ll_phy_get,"ax",@progbits
.LHOTB84:
	.globl	ll_phy_get
	.type	ll_phy_get, @function
ll_phy_get:
.LFB342:
	.loc 1 12380 0
	.cfi_startproc
.LVL1274:
	pushl	%ebp
	.cfi_def_cfa_offset 8
	.cfi_offset 5, -8
	movl	%esp, %ebp
	.cfi_def_cfa_register 5
	subl	$8, %esp
	.loc 1 12382 0
	movzwl	8(%ebp), %eax
	call	connection_get
.LVL1275:
	movl	%eax, %ecx
.LVL1276:
	movl	$1, %eax
.LVL1277:
	.loc 1 12383 0
	testl	%ecx, %ecx
	je	.L1253
	.loc 1 12386 0
	movb	44(%ecx), %dl
	movl	12(%ebp), %eax
	shrb	$3, %dl
	andl	$7, %edx
	movb	%dl, (%eax)
	.loc 1 12387 0
	movb	46(%ecx), %al
	movl	16(%ebp), %edx
	andl	$7, %eax
	movb	%al, (%edx)
	.loc 1 12388 0
	xorl	%eax, %eax
.L1253:
	.loc 1 12389 0
	leave
	.cfi_restore 5
	.cfi_def_cfa 4, 4
	ret
	.cfi_endproc
.LFE342:
	.size	ll_phy_get, .-ll_phy_get
	.section	.text.unlikely.ll_phy_get
.LCOLDE84:
	.section	.text.ll_phy_get
.LHOTE84:
	.section	.text.unlikely.ll_phy_default_set,"ax",@progbits
.LCOLDB85:
	.section	.text.ll_phy_default_set,"ax",@progbits
.LHOTB85:
	.globl	ll_phy_default_set
	.type	ll_phy_default_set, @function
ll_phy_default_set:
.LFB343:
	.loc 1 12391 0
	.cfi_startproc
.LVL1278:
	pushl	%ebp
	.cfi_def_cfa_offset 8
	.cfi_offset 5, -8
	movl	%esp, %ebp
	.cfi_def_cfa_register 5
	.loc 1 12392 0
	movzbl	8(%ebp), %eax
	movw	%ax, _radio+290
	.loc 1 12393 0
	movzbl	12(%ebp), %eax
	.loc 1 12395 0
	popl	%ebp
	.cfi_restore 5
	.cfi_def_cfa 4, 4
	.loc 1 12393 0
	movw	%ax, _radio+292
	.loc 1 12395 0
	xorl	%eax, %eax
	ret
	.cfi_endproc
.LFE343:
	.size	ll_phy_default_set, .-ll_phy_default_set
	.section	.text.unlikely.ll_phy_default_set
.LCOLDE85:
	.section	.text.ll_phy_default_set
.LHOTE85:
	.section	.text.unlikely.ll_phy_req_send,"ax",@progbits
.LCOLDB86:
	.section	.text.ll_phy_req_send,"ax",@progbits
.LHOTB86:
	.globl	ll_phy_req_send
	.type	ll_phy_req_send, @function
ll_phy_req_send:
.LFB344:
	.loc 1 12397 0
	.cfi_startproc
.LVL1279:
	pushl	%ebp
	.cfi_def_cfa_offset 8
	.cfi_offset 5, -8
	movl	%esp, %ebp
	.cfi_def_cfa_register 5
	pushl	%edi
	pushl	%esi
	pushl	%ebx
	subl	$12, %esp
	.cfi_offset 7, -12
	.cfi_offset 6, -16
	.cfi_offset 3, -20
	.loc 1 12399 0
	movzwl	8(%ebp), %eax
	.loc 1 12397 0
	movl	12(%ebp), %esi
	movl	16(%ebp), %edi
	movl	20(%ebp), %ebx
	.loc 1 12399 0
	call	connection_get
.LVL1280:
	movl	%eax, %edx
.LVL1281:
	.loc 1 12402 0
	movl	$1, %eax
.LVL1282:
	.loc 1 12400 0
	testl	%edx, %edx
	je	.L1260
	.loc 1 12400 0 is_stmt 0 discriminator 1
	movb	97(%edx), %cl
	cmpb	%cl, 96(%edx)
	jne	.L1260
	.loc 1 12401 0 is_stmt 1 discriminator 2
	movb	220(%edx), %cl
	.loc 1 12400 0 discriminator 2
	cmpb	221(%edx), %cl
	jne	.L1260
	.loc 1 12405 0
	movb	223(%edx), %al
	.loc 1 12406 0
	andl	$7, %esi
	.loc 1 12407 0
	andl	$1, %edi
	.loc 1 12408 0
	sall	$5, %ebx
	sall	$2, %esi
	.loc 1 12409 0
	incl	%ecx
	.loc 1 12408 0
	orl	%esi, %ebx
	.loc 1 12409 0
	movb	%cl, 220(%edx)
	.loc 1 12405 0
	orl	$2, %eax
	.loc 1 12408 0
	movb	%bl, 222(%edx)
	.loc 1 12407 0
	andl	$-2, %eax
	orl	%edi, %eax
	movb	%al, 223(%edx)
	.loc 1 12410 0
	xorl	%eax, %eax
.L1260:
	.loc 1 12411 0
	addl	$12, %esp
	popl	%ebx
	.cfi_restore 3
	popl	%esi
	.cfi_restore 6
	popl	%edi
	.cfi_restore 7
	popl	%ebp
	.cfi_restore 5
	.cfi_def_cfa 4, 4
	ret
	.cfi_endproc
.LFE344:
	.size	ll_phy_req_send, .-ll_phy_req_send
	.section	.text.unlikely.ll_phy_req_send
.LCOLDE86:
	.section	.text.ll_phy_req_send
.LHOTE86:
	.section	.text.unlikely.radio_rx_get,"ax",@progbits
.LCOLDB87:
	.section	.text.radio_rx_get,"ax",@progbits
.LHOTB87:
	.globl	radio_rx_get
	.type	radio_rx_get, @function
radio_rx_get:
.LFB346:
	.loc 1 12454 0
	.cfi_startproc
.LVL1283:
	pushl	%ebp
	.cfi_def_cfa_offset 8
	.cfi_offset 5, -8
	movl	%esp, %ebp
	.cfi_def_cfa_register 5
	pushl	%edi
	pushl	%esi
	pushl	%ebx
	subl	$44, %esp
	.cfi_offset 7, -12
	.cfi_offset 6, -16
	.cfi_offset 3, -20
	.loc 1 12457 0
	movl	_radio+328, %edx
	.loc 1 12454 0
	movl	8(%ebp), %esi
	movl	%gs:20, %edi
	movl	%edi, -28(%ebp)
	xorl	%edi, %edi
.LVL1284:
	.loc 1 12457 0
	movl	_radio+332, %ecx
	.loc 1 12454 0
	movl	12(%ebp), %eax
	.loc 1 12457 0
	cmpl	%ecx, %edx
	je	.L1266
.LBB731:
	.loc 1 12459 0
	movl	4(%edx), %edi
.LVL1285:
	.loc 1 12460 0
	movl	$_radio+371, %edx
	movzbl	(%edi), %ecx
	call	tx_cmplt_get
.LVL1286:
	.loc 1 12464 0
	testb	%al, %al
	.loc 1 12460 0
	movb	%al, %bl
.LVL1287:
	.loc 1 12464 0
	jne	.L1273
.LBB732:
	.loc 1 12467 0
	movb	_radio+371, %al
.LVL1288:
	.loc 1 12468 0
	movb	$0, -41(%ebp)
	.loc 1 12467 0
	movb	%al, -31(%ebp)
.LVL1289:
.L1268:
	.loc 1 12472 0 discriminator 1
	movzbl	_radio+372, %ecx
	.loc 1 12471 0 discriminator 1
	leal	-31(%ebp), %edx
	leal	-30(%ebp), %eax
	call	tx_cmplt_get
.LVL1290:
	.loc 1 12473 0 discriminator 1
	cmpb	$0, -41(%ebp)
	setne	%cl
	cmpb	%al, -41(%ebp)
	.loc 1 12471 0 discriminator 1
	movb	%al, -41(%ebp)
.LVL1291:
	.loc 1 12473 0 discriminator 1
	setne	%dl
	.loc 1 12474 0 discriminator 1
	orb	%dl, %cl
	jne	.L1268
	.loc 1 12475 0
	movl	%edi, (%esi)
.LBE732:
	jmp	.L1269
.LVL1292:
.L1266:
.LBE731:
	.loc 1 12483 0
	movzbl	_radio+372, %ecx
	.loc 1 12482 0
	movl	$_radio+371, %edx
	call	tx_cmplt_get
.LVL1293:
	movb	%al, %bl
.LVL1294:
.L1273:
	.loc 1 12484 0
	movl	$0, (%esi)
.L1269:
	.loc 1 12489 0
	movb	%bl, %al
	movl	-28(%ebp), %ebx
	xorl	%gs:20, %ebx
.LVL1295:
	je	.L1270
	call	__stack_chk_fail
.LVL1296:
.L1270:
	addl	$44, %esp
	popl	%ebx
	.cfi_restore 3
	popl	%esi
	.cfi_restore 6
	popl	%edi
	.cfi_restore 7
	popl	%ebp
	.cfi_restore 5
	.cfi_def_cfa 4, 4
	ret
	.cfi_endproc
.LFE346:
	.size	radio_rx_get, .-radio_rx_get
	.section	.text.unlikely.radio_rx_get
.LCOLDE87:
	.section	.text.radio_rx_get
.LHOTE87:
	.section	.text.unlikely.radio_rx_mem_release,"ax",@progbits
.LCOLDB88:
	.section	.text.radio_rx_mem_release,"ax",@progbits
.LHOTB88:
	.globl	radio_rx_mem_release
	.type	radio_rx_mem_release, @function
radio_rx_mem_release:
.LFB348:
	.loc 1 12556 0
	.cfi_startproc
.LVL1297:
	pushl	%ebp
	.cfi_def_cfa_offset 8
	.cfi_offset 5, -8
	movl	%esp, %ebp
	.cfi_def_cfa_register 5
	pushl	%esi
	pushl	%ebx
	.cfi_offset 6, -12
	.cfi_offset 3, -16
	.loc 1 12556 0
	movl	8(%ebp), %ebx
	.loc 1 12559 0
	movl	(%ebx), %eax
.LVL1298:
.L1275:
	.loc 1 12560 0
	testl	%eax, %eax
	je	.L1282
.LVL1299:
.LBB733:
	.loc 1 12564 0
	movl	4(%eax), %ecx
	.loc 1 12563 0
	movl	(%eax), %esi
.LVL1300:
	cmpl	$8, %ecx
	ja	.L1276
	movl	$1, %edx
	sall	%cl, %edx
	testl	$494, %edx
	jne	.L1277
	andb	$16, %dl
	je	.L1276
	.loc 1 12576 0
	pushl	%edx
	movzwl	8(%eax), %eax
.LVL1301:
	pushl	%eax
	pushl	$316
	pushl	_radio+264
	call	mem_get
.LVL1302:
	.loc 1 12578 0
	popl	%ecx
	popl	%edx
	pushl	$_radio+268
	jmp	.L1281
.LVL1303:
.L1277:
	.loc 1 12572 0
	pushl	%ecx
	pushl	%ecx
	pushl	$_radio+300
.LVL1304:
.L1281:
	.loc 1 12578 0
	pushl	%eax
	call	mem_release
.LVL1305:
	.loc 1 12579 0
	addl	$16, %esp
.L1276:
.LBE733:
	.loc 1 12556 0
	movl	%esi, %eax
	jmp	.L1275
.LVL1306:
.L1282:
	.loc 1 12585 0
	movl	$0, (%ebx)
	.loc 1 12587 0
	leal	-8(%ebp), %esp
	popl	%ebx
	.cfi_restore 3
	popl	%esi
	.cfi_restore 6
	popl	%ebp
	.cfi_restore 5
	.cfi_def_cfa 4, 4
	.loc 1 12586 0
	jmp	packet_rx_allocate.constprop.12
.LVL1307:
	.cfi_endproc
.LFE348:
	.size	radio_rx_mem_release, .-radio_rx_mem_release
	.section	.text.unlikely.radio_rx_mem_release
.LCOLDE88:
	.section	.text.radio_rx_mem_release
.LHOTE88:
	.section	.text.unlikely.do_radio_rx_fc_set,"ax",@progbits
.LCOLDB89:
	.section	.text.do_radio_rx_fc_set,"ax",@progbits
.LHOTB89:
	.globl	do_radio_rx_fc_set
	.type	do_radio_rx_fc_set, @function
do_radio_rx_fc_set:
.LFB350:
	.loc 1 12601 0
	.cfi_startproc
.LVL1308:
	pushl	%ebp
	.cfi_def_cfa_offset 8
	.cfi_offset 5, -8
	movl	%esp, %ebp
	.cfi_def_cfa_register 5
	pushl	%esi
	pushl	%ebx
	.cfi_offset 6, -12
	.cfi_offset 3, -16
	.loc 1 12601 0
	movl	12(%ebp), %edx
	.loc 1 12602 0
	cmpb	%dl, 16(%ebp)
	.loc 1 12601 0
	movl	8(%ebp), %ebx
	.loc 1 12602 0
	jne	.L1284
	.loc 1 12603 0
	movl	_radio+332, %ecx
	cmpl	%ecx, _radio+328
	.loc 1 12615 0
	movb	$1, %al
	.loc 1 12603 0
	jne	.L1285
.LVL1309:
.LBB737:
.LBB738:
.LBB739:
	.loc 1 12606 0
	testb	%dl, %dl
	movb	$3, %cl
	cmovne	%edx, %ecx
.LVL1310:
	.loc 1 12608 0
	decl	%ecx
.LVL1311:
	movzbl	%cl, %esi
	.loc 1 12609 0
	movb	%cl, _radio+381
	.loc 1 12610 0
	movb	_radio+380, %cl
.LVL1312:
	.loc 1 12608 0
	movw	%bx, _radio+374(%esi,%esi)
	.loc 1 12610 0
	cmpb	%cl, %dl
	je	.L1290
	.loc 1 12611 0
	movb	%dl, _radio+381
.LVL1313:
	jmp	.L1285
.LVL1314:
.L1284:
.LBE739:
.LBE738:
.LBE737:
	.loc 1 12617 0
	testb	%dl, %dl
	jne	.L1287
.LBB745:
.LBB742:
.LBB740:
	.loc 1 12612 0 discriminator 1
	cmpw	%bx, _radio+378
	jmp	.L1292
.L1287:
.LBE740:
.LBE742:
.LBE745:
	.loc 1 12619 0
	movzbl	%dl, %edx
.LBB746:
.LBB743:
.LBB741:
	.loc 1 12612 0
	cmpw	%bx, _radio+372(%edx,%edx)
.L1292:
	setne	%al
.LBE741:
.LBE743:
.LBE746:
	jmp	.L1285
.LVL1315:
.L1290:
.LBB747:
.LBB744:
	.loc 1 12622 0
	xorl	%eax, %eax
.LVL1316:
.L1285:
.LBE744:
.LBE747:
	.loc 1 12623 0
	popl	%ebx
	.cfi_restore 3
	popl	%esi
	.cfi_restore 6
	popl	%ebp
	.cfi_restore 5
	.cfi_def_cfa 4, 4
	ret
	.cfi_endproc
.LFE350:
	.size	do_radio_rx_fc_set, .-do_radio_rx_fc_set
	.section	.text.unlikely.do_radio_rx_fc_set
.LCOLDE89:
	.section	.text.do_radio_rx_fc_set
.LHOTE89:
	.section	.text.unlikely.radio_rx_fc_set,"ax",@progbits
.LCOLDB90:
	.section	.text.radio_rx_fc_set,"ax",@progbits
.LHOTB90:
	.globl	radio_rx_fc_set
	.type	radio_rx_fc_set, @function
radio_rx_fc_set:
.LFB351:
	.loc 1 12625 0
	.cfi_startproc
.LVL1317:
	.loc 1 12626 0
	cmpb	$0, _radio+382
	.loc 1 12625 0
	pushl	%ebp
	.cfi_def_cfa_offset 8
	.cfi_offset 5, -8
	movl	%esp, %ebp
	.cfi_def_cfa_register 5
	pushl	%ebx
	.cfi_offset 3, -12
	.loc 1 12625 0
	movl	8(%ebp), %ecx
	movl	12(%ebp), %ebx
	.loc 1 12626 0
	je	.L1305
.LBB748:
	.loc 1 12629 0
	testb	%bl, %bl
	.loc 1 12627 0
	movzbl	_radio+380, %eax
.LVL1318:
	.loc 1 12628 0
	movzbl	_radio+381, %edx
.LVL1319:
	.loc 1 12629 0
	je	.L1296
	.loc 1 12630 0
	cmpw	$-1, %cx
	je	.L1305
	.loc 1 12631 0
	movzwl	%cx, %ecx
	pushl	%edx
	pushl	%eax
	pushl	%ecx
	call	do_radio_rx_fc_set
.LVL1320:
	addl	$12, %esp
	jmp	.L1295
.LVL1321:
.L1296:
	.loc 1 12633 0
	movl	_radio+328, %ecx
	movl	_radio+332, %ebx
	cmpl	%ebx, %ecx
	jne	.L1305
	cmpb	%dl, %al
	je	.L1305
	.loc 1 12637 0
	movl	_radio+332, %ebx
	.loc 1 12636 0
	movb	%al, _radio+381
	.loc 1 12637 0
	cmpl	%ebx, %ecx
	je	.L1305
	.loc 1 12638 0 discriminator 1
	movb	_radio+380, %cl
	.loc 1 12637 0 discriminator 1
	cmpb	%cl, %al
	jne	.L1305
	.loc 1 12639 0
	movb	%dl, _radio+381
.LVL1322:
.L1305:
.LBE748:
	.loc 1 12643 0
	xorl	%eax, %eax
.L1295:
	.loc 1 12644 0
	movl	-4(%ebp), %ebx
	leave
	.cfi_restore 5
	.cfi_restore 3
	.cfi_def_cfa 4, 4
	ret
	.cfi_endproc
.LFE351:
	.size	radio_rx_fc_set, .-radio_rx_fc_set
	.section	.text.unlikely.radio_rx_fc_set
.LCOLDE90:
	.section	.text.radio_rx_fc_set
.LHOTE90:
	.section	.text.unlikely.radio_rx_fc_get,"ax",@progbits
.LCOLDB91:
	.section	.text.radio_rx_fc_get,"ax",@progbits
.LHOTB91:
	.globl	radio_rx_fc_get
	.type	radio_rx_fc_get, @function
radio_rx_fc_get:
.LFB352:
	.loc 1 12646 0
	.cfi_startproc
.LVL1323:
	pushl	%ebp
	.cfi_def_cfa_offset 8
	.cfi_offset 5, -8
	.loc 1 12648 0
	movzbl	_radio+381, %edx
	.loc 1 12655 0
	xorl	%eax, %eax
	.loc 1 12646 0
	movl	%esp, %ebp
	.cfi_def_cfa_register 5
	pushl	%ebx
	.cfi_offset 3, -12
	.loc 1 12647 0
	movb	_radio+380, %bl
.LVL1324:
	.loc 1 12646 0
	movl	8(%ebp), %ecx
	.loc 1 12649 0
	cmpb	%dl, %bl
	je	.L1307
	.loc 1 12650 0
	testl	%ecx, %ecx
	.loc 1 12653 0
	movb	$1, %al
	.loc 1 12650 0
	je	.L1307
	.loc 1 12651 0
	movw	_radio+374(%edx,%edx), %ax
	movw	%ax, (%ecx)
	.loc 1 12653 0
	movb	$1, %al
.L1307:
	.loc 1 12656 0
	popl	%ebx
	.cfi_restore 3
.LVL1325:
	popl	%ebp
	.cfi_restore 5
	.cfi_def_cfa 4, 4
	ret
	.cfi_endproc
.LFE352:
	.size	radio_rx_fc_get, .-radio_rx_fc_get
	.section	.text.unlikely.radio_rx_fc_get
.LCOLDE91:
	.section	.text.radio_rx_fc_get
.LHOTE91:
	.section	.text.unlikely.radio_tx_mem_acquire,"ax",@progbits
.LCOLDB92:
	.section	.text.radio_tx_mem_acquire,"ax",@progbits
.LHOTB92:
	.globl	radio_tx_mem_acquire
	.type	radio_tx_mem_acquire, @function
radio_tx_mem_acquire:
.LFB353:
	.loc 1 12658 0
	.cfi_startproc
	pushl	%ebp
	.cfi_def_cfa_offset 8
	.cfi_offset 5, -8
	movl	%esp, %ebp
	.cfi_def_cfa_register 5
	subl	$20, %esp
	.loc 1 12659 0
	pushl	$_radio+352
	call	mem_acquire
.LVL1326:
	.loc 1 12660 0
	leave
	.cfi_restore 5
	.cfi_def_cfa 4, 4
	ret
	.cfi_endproc
.LFE353:
	.size	radio_tx_mem_acquire, .-radio_tx_mem_acquire
	.section	.text.unlikely.radio_tx_mem_acquire
.LCOLDE92:
	.section	.text.radio_tx_mem_acquire
.LHOTE92:
	.section	.text.unlikely.radio_tx_mem_release,"ax",@progbits
.LCOLDB93:
	.section	.text.radio_tx_mem_release,"ax",@progbits
.LHOTB93:
	.globl	radio_tx_mem_release
	.type	radio_tx_mem_release, @function
radio_tx_mem_release:
.LFB354:
	.loc 1 12662 0
	.cfi_startproc
.LVL1327:
	pushl	%ebp
	.cfi_def_cfa_offset 8
	.cfi_offset 5, -8
	movl	%esp, %ebp
	.cfi_def_cfa_register 5
	subl	$16, %esp
	.loc 1 12663 0
	pushl	$_radio+352
	pushl	8(%ebp)
	call	mem_release
.LVL1328:
	.loc 1 12664 0
	addl	$16, %esp
	leave
	.cfi_restore 5
	.cfi_def_cfa 4, 4
	ret
	.cfi_endproc
.LFE354:
	.size	radio_tx_mem_release, .-radio_tx_mem_release
	.section	.text.unlikely.radio_tx_mem_release
.LCOLDE93:
	.section	.text.radio_tx_mem_release
.LHOTE93:
	.section	.text.unlikely.radio_tx_mem_enqueue,"ax",@progbits
.LCOLDB94:
	.section	.text.radio_tx_mem_enqueue,"ax",@progbits
.LHOTB94:
	.globl	radio_tx_mem_enqueue
	.type	radio_tx_mem_enqueue, @function
radio_tx_mem_enqueue:
.LFB356:
	.loc 1 12673 0
	.cfi_startproc
.LVL1329:
	pushl	%ebp
	.cfi_def_cfa_offset 8
	.cfi_offset 5, -8
	movl	%esp, %ebp
	.cfi_def_cfa_register 5
	pushl	%edi
	pushl	%esi
	pushl	%ebx
	.cfi_offset 7, -12
	.cfi_offset 6, -16
	.cfi_offset 3, -20
	.loc 1 12684 0
	movl	$1, %esi
	.loc 1 12673 0
	subl	$12, %esp
	.loc 1 12677 0
	movb	_radio+370, %al
	.loc 1 12673 0
	movl	8(%ebp), %edi
	.loc 1 12677 0
	leal	1(%eax), %ebx
.LVL1330:
	.loc 1 12679 0
	cmpb	_radio+368, %bl
	movb	$0, %al
	cmove	%eax, %ebx
.LVL1331:
	.loc 1 12682 0
	movzwl	%di, %eax
	call	connection_get
.LVL1332:
	.loc 1 12683 0
	testl	%eax, %eax
	je	.L1317
	.loc 1 12683 0 is_stmt 0 discriminator 1
	movb	_radio+369, %dl
	cmpb	%dl, %bl
	je	.L1317
	.loc 1 12700 0 is_stmt 1
	movzbl	_radio+370, %ecx
	movl	_radio+360, %edx
	.loc 1 12701 0
	movl	12(%ebp), %esi
	.loc 1 12700 0
