	.file	"def.c"
	.text
.Ltext0:
	.section	.text.unlikely.lwip_htons,"ax",@progbits
.LCOLDB0:
	.section	.text.lwip_htons,"ax",@progbits
.LHOTB0:
	.section	.text.unlikely.lwip_htons
.Ltext_cold0:
	.section	.text.lwip_htons
	.globl	lwip_htons
	.type	lwip_htons, @function
lwip_htons:
.LFB23:
	.file 1 "kernel/protocols/net/core/def.c"
	.loc 1 75 0
	.cfi_startproc
.LVL0:
	pushl	%ebp
	.cfi_def_cfa_offset 8
	.cfi_offset 5, -8
	movl	%esp, %ebp
	.cfi_def_cfa_register 5
	.loc 1 76 0
	movl	8(%ebp), %eax
	.loc 1 77 0
	popl	%ebp
	.cfi_restore 5
	.cfi_def_cfa 4, 4
	.loc 1 76 0
	xchgb	%ah, %al
	.loc 1 77 0
	ret
	.cfi_endproc
.LFE23:
	.size	lwip_htons, .-lwip_htons
	.section	.text.unlikely.lwip_htons
.LCOLDE0:
	.section	.text.lwip_htons
.LHOTE0:
	.section	.text.unlikely.lwip_htonl,"ax",@progbits
.LCOLDB1:
	.section	.text.lwip_htonl,"ax",@progbits
.LHOTB1:
	.globl	lwip_htonl
	.type	lwip_htonl, @function
lwip_htonl:
.LFB24:
	.loc 1 90 0
	.cfi_startproc
.LVL1:
	pushl	%ebp
	.cfi_def_cfa_offset 8
	.cfi_offset 5, -8
	movl	%esp, %ebp
	.cfi_def_cfa_register 5
	movl	8(%ebp), %eax
	.loc 1 92 0
	popl	%ebp
	.cfi_restore 5
	.cfi_def_cfa 4, 4
	bswap	%eax
	ret
	.cfi_endproc
.LFE24:
	.size	lwip_htonl, .-lwip_htonl
	.section	.text.unlikely.lwip_htonl
.LCOLDE1:
	.section	.text.lwip_htonl
.LHOTE1:
	.section	.text.unlikely.lwip_strnstr,"ax",@progbits
.LCOLDB2:
	.section	.text.lwip_strnstr,"ax",@progbits
.LHOTB2:
	.globl	lwip_strnstr
	.type	lwip_strnstr, @function
lwip_strnstr:
.LFB25:
	.loc 1 106 0
	.cfi_startproc
.LVL2:
	pushl	%ebp
	.cfi_def_cfa_offset 8
	.cfi_offset 5, -8
	.loc 1 108 0
	xorl	%eax, %eax
	orl	$-1, %ecx
	.loc 1 106 0
	movl	%esp, %ebp
	.cfi_def_cfa_register 5
	pushl	%edi
	pushl	%esi
	pushl	%ebx
	subl	$12, %esp
	.cfi_offset 7, -12
	.cfi_offset 6, -16
	.cfi_offset 3, -20
	.loc 1 108 0
	movl	12(%ebp), %edi
	.loc 1 106 0
	movl	8(%ebp), %edx
	.loc 1 108 0
	repnz scasb
.LVL3:
	.loc 1 110 0
	movl	%edx, %eax
	.loc 1 108 0
	notl	%ecx
.LVL4:
	.loc 1 109 0
	movl	%ecx, %esi
	decl	%esi
.LVL5:
	je	.L6
	.loc 1 112 0 discriminator 1
	movl	16(%ebp), %edi
	movl	%edx, %ebx
	addl	%edx, %edi
.L7:
.LVL6:
	movb	(%ebx), %al
	testb	%al, %al
	je	.L12
	.loc 1 112 0 is_stmt 0 discriminator 3
	leal	(%ebx,%esi), %edx
	cmpl	%edx, %edi
	jb	.L12
	.loc 1 113 0 is_stmt 1
	movl	12(%ebp), %edx
	cmpb	(%edx), %al
	jne	.L8
	.loc 1 113 0 is_stmt 0 discriminator 1
	pushl	%eax
	pushl	%esi
	pushl	%edx
	pushl	%ebx
	call	strncmp
.LVL7:
	addl	$16, %esp
	testl	%eax, %eax
	je	.L11
.L8:
	.loc 1 112 0 is_stmt 1 discriminator 2
	incl	%ebx
.LVL8:
	jmp	.L7
.L11:
	movl	%ebx, %eax
	jmp	.L6
.L12:
	.loc 1 117 0
	xorl	%eax, %eax
.LVL9:
.L6:
	.loc 1 118 0
	leal	-12(%ebp), %esp
	popl	%ebx
	.cfi_restore 3
	popl	%esi
	.cfi_restore 6
.LVL10:
	popl	%edi
	.cfi_restore 7
	popl	%ebp
	.cfi_restore 5
	.cfi_def_cfa 4, 4
	ret
	.cfi_endproc
.LFE25:
	.size	lwip_strnstr, .-lwip_strnstr
	.section	.text.unlikely.lwip_strnstr
.LCOLDE2:
	.section	.text.lwip_strnstr
.LHOTE2:
	.section	.text.unlikely.lwip_stricmp,"ax",@progbits
.LCOLDB3:
	.section	.text.lwip_stricmp,"ax",@progbits
.LHOTB3:
	.globl	lwip_stricmp
	.type	lwip_stricmp, @function
lwip_stricmp:
.LFB26:
	.loc 1 129 0
	.cfi_startproc
.LVL11:
	pushl	%ebp
	.cfi_def_cfa_offset 8
	.cfi_offset 5, -8
	xorl	%eax, %eax
	movl	%esp, %ebp
	.cfi_def_cfa_register 5
	pushl	%edi
	pushl	%esi
	pushl	%ebx
	.cfi_offset 7, -12
	.cfi_offset 6, -16
	.cfi_offset 3, -20
.LVL12:
.L19:
	.loc 1 134 0
	movl	12(%ebp), %edx
	.loc 1 133 0
	movl	8(%ebp), %esi
	.loc 1 134 0
	movzbl	(%edx,%eax), %edi
	.loc 1 133 0
	movb	(%esi,%eax), %cl
.LVL13:
	.loc 1 135 0
	movl	%edi, %ebx
	cmpb	%bl, %cl
	je	.L17
.LBB2:
	.loc 1 136 0
	movb	%cl, %bl
	orl	$32, %ebx
.LVL14:
	.loc 1 137 0
	leal	-97(%ebx), %esi
	movl	%esi, %edx
	cmpb	$25, %dl
	ja	.L21
.LVL15:
.LBB3:
	.loc 1 141 0
	movl	%edi, %edx
	orl	$32, %edx
	cmpb	%dl, %bl
	jne	.L21
.LVL16:
.L17:
	incl	%eax
.LVL17:
.LBE3:
.LBE2:
	.loc 1 151 0
	testb	%cl, %cl
	jne	.L19
	.loc 1 152 0
	xorl	%eax, %eax
.LVL18:
	jmp	.L18
.LVL19:
.L21:
.LBB4:
	.loc 1 148 0
	movl	$1, %eax
.LVL20:
.L18:
.LBE4:
	.loc 1 153 0
	popl	%ebx
	.cfi_restore 3
	popl	%esi
	.cfi_restore 6
	popl	%edi
	.cfi_restore 7
.LVL21:
	popl	%ebp
	.cfi_restore 5
	.cfi_def_cfa 4, 4
	ret
	.cfi_endproc
.LFE26:
	.size	lwip_stricmp, .-lwip_stricmp
	.section	.text.unlikely.lwip_stricmp
.LCOLDE3:
	.section	.text.lwip_stricmp
.LHOTE3:
	.section	.text.unlikely.lwip_strnicmp,"ax",@progbits
.LCOLDB4:
	.section	.text.lwip_strnicmp,"ax",@progbits
.LHOTB4:
	.globl	lwip_strnicmp
	.type	lwip_strnicmp, @function
lwip_strnicmp:
.LFB27:
	.loc 1 164 0
	.cfi_startproc
.LVL22:
	pushl	%ebp
	.cfi_def_cfa_offset 8
	.cfi_offset 5, -8
	xorl	%eax, %eax
	movl	%esp, %ebp
	.cfi_def_cfa_register 5
	pushl	%edi
	pushl	%esi
	pushl	%ebx
	.cfi_offset 7, -12
	.cfi_offset 6, -16
	.cfi_offset 3, -20
.LVL23:
.L27:
	.loc 1 168 0
	movl	8(%ebp), %esi
	movb	(%esi,%eax), %cl
.LVL24:
	.loc 1 169 0
	movl	12(%ebp), %esi
	movzbl	(%esi,%eax), %edi
.LVL25:
	.loc 1 170 0
	movl	%edi, %ebx
	cmpb	%bl, %cl
	je	.L25
.LBB5:
	.loc 1 171 0
	movb	%cl, %bl
	orl	$32, %ebx
.LVL26:
	.loc 1 172 0
	leal	-97(%ebx), %esi
	movl	%esi, %edx
	cmpb	$25, %dl
	ja	.L29
.LVL27:
.LBB6:
	.loc 1 176 0
	movl	%edi, %edx
	orl	$32, %edx
	cmpb	%dl, %bl
	jne	.L29
.LVL28:
.L25:
.LBE6:
.LBE5:
	.loc 1 186 0
	testb	%cl, %cl
	setne	%cl
.LVL29:
	cmpl	%eax, 16(%ebp)
	setne	%dl
	incl	%eax
.LVL30:
	testb	%dl, %cl
	jne	.L27
	.loc 1 187 0
	xorl	%eax, %eax
.LVL31:
	jmp	.L26
.LVL32:
.L29:
.LBB7:
	.loc 1 183 0
	movl	$1, %eax
.LVL33:
.L26:
.LBE7:
	.loc 1 188 0
	popl	%ebx
	.cfi_restore 3
	popl	%esi
	.cfi_restore 6
	popl	%edi
	.cfi_restore 7
.LVL34:
	popl	%ebp
	.cfi_restore 5
	.cfi_def_cfa 4, 4
	ret
	.cfi_endproc
.LFE27:
	.size	lwip_strnicmp, .-lwip_strnicmp
	.section	.text.unlikely.lwip_strnicmp
.LCOLDE4:
	.section	.text.lwip_strnicmp
.LHOTE4:
	.section	.rodata.str1.1,"aMS",@progbits,1
.LC5:
	.string	"zyxwvutsrqponmlkjihgfedcba9876543210123456789abcdefghijklmnopqrstuvwxyz"
	.section	.text.unlikely.lwip_itoa,"ax",@progbits
.LCOLDB6:
	.section	.text.lwip_itoa,"ax",@progbits
.LHOTB6:
	.globl	lwip_itoa
	.type	lwip_itoa, @function
lwip_itoa:
.LFB28:
	.loc 1 199 0
	.cfi_startproc
.LVL35:
	pushl	%ebp
	.cfi_def_cfa_offset 8
	.cfi_offset 5, -8
	movl	%esp, %ebp
	.cfi_def_cfa_register 5
	pushl	%edi
	pushl	%esi
	pushl	%ebx
	pushl	%edx
	.cfi_offset 7, -12
	.cfi_offset 6, -16
	.cfi_offset 3, -20
	.loc 1 199 0
	movl	8(%ebp), %ecx
.LVL36:
	movl	16(%ebp), %ebx
	.loc 1 201 0
	movl	%ecx, %esi
.LVL37:
.L33:
	.loc 1 207 0 discriminator 1
	movl	%ebx, %eax
	movl	$10, %edi
	cltd
	idivl	%edi
	.loc 1 208 0 discriminator 1
	leal	1(%esi), %edx
	imull	$-10, %eax, %edi
	.loc 1 207 0 discriminator 1
	movl	%eax, -16(%ebp)
.LVL38:
	.loc 1 209 0 discriminator 1
	cmpl	$0, -16(%ebp)
	.loc 1 208 0 discriminator 1
	movb	.LC5+35(%ebx,%edi), %al
.LVL39:
	movb	%al, -1(%edx)
	.loc 1 209 0 discriminator 1
	je	.L39
	movl	%edx, %esi
	movl	-16(%ebp), %ebx
.LVL40:
	jmp	.L33
.LVL41:
.L39:
	.loc 1 212 0
	testl	%ebx, %ebx
	jns	.L34
	.loc 1 213 0
	leal	2(%esi), %edx
.LVL42:
	movb	$45, 1(%esi)
.L34:
	.loc 1 215 0
	leal	-1(%edx), %eax
.LVL43:
	movb	$0, (%edx)
.LVL44:
.L35:
	.loc 1 216 0
	cmpl	%ecx, %eax
	jbe	.L40
	.loc 1 217 0
	movb	(%eax), %dl
.LVL45:
	.loc 1 218 0
	movb	(%ecx), %bl
	decl	%eax
.LVL46:
	.loc 1 219 0
	incl	%ecx
.LVL47:
	.loc 1 218 0
	movb	%bl, 1(%eax)
	.loc 1 219 0
	movb	%dl, -1(%ecx)
	jmp	.L35
.LVL48:
.L40:
	.loc 1 221 0
	popl	%eax
.LVL49:
	popl	%ebx
	.cfi_restore 3
	popl	%esi
	.cfi_restore 6
	popl	%edi
	.cfi_restore 7
	popl	%ebp
	.cfi_restore 5
	.cfi_def_cfa 4, 4
	ret
	.cfi_endproc
.LFE28:
	.size	lwip_itoa, .-lwip_itoa
	.section	.text.unlikely.lwip_itoa
.LCOLDE6:
	.section	.text.lwip_itoa
.LHOTE6:
	.text
.Letext0:
	.section	.text.unlikely.lwip_htons
.Letext_cold0:
	.file 2 "/home/stone/Documents/Ali_IOT/build/compiler/gcc-arm-none-eabi/Linux64/lib/gcc/arm-none-eabi/5.4.1/include/stddef.h"
	.file 3 "././platform/mcu/moc108/include/lwip-2.0.2/arch/cc.h"
	.file 4 "./include/aos/log.h"
	.file 5 "/home/stone/Documents/Ali_IOT/build/compiler/gcc-arm-none-eabi/Linux64/arm-none-eabi/include/string.h"
	.section	.note.GNU-stack,"",@progbits
