	.file	"device.c"
	.text
.Ltext0:
	.section	.text.unlikely.event_poll,"ax",@progbits
.LCOLDB0:
	.section	.text.event_poll,"ax",@progbits
.LHOTB0:
	.section	.text.unlikely.event_poll
.Ltext_cold0:
	.section	.text.event_poll
	.type	event_poll, @function
event_poll:
.LFB28:
	.file 1 "kernel/vfs/device.c"
	.loc 1 159 0
	.cfi_startproc
.LVL0:
	pushl	%ebp
	.cfi_def_cfa_offset 8
	.cfi_offset 5, -8
	movl	%esp, %ebp
	.cfi_def_cfa_register 5
	pushl	%edi
	pushl	%esi
	pushl	%ebx
	subl	$36, %esp
	.cfi_offset 7, -12
	.cfi_offset 6, -16
	.cfi_offset 3, -20
	.loc 1 160 0
	movl	8(%ebp), %eax
	.loc 1 159 0
	movl	12(%ebp), %ecx
	movl	20(%ebp), %esi
	movl	24(%ebp), %edi
	.loc 1 160 0
	movl	4(%eax), %ebx
	.loc 1 162 0
	pushl	$-1
	.loc 1 159 0
	movl	%ecx, -28(%ebp)
	.loc 1 162 0
	pushl	%ebx
	call	aos_mutex_lock
.LVL1:
	.loc 1 163 0
	movl	-28(%ebp), %ecx
	addl	$16, %esp
	testb	%cl, %cl
	jne	.L2
	.loc 1 164 0
	movl	$0, 4(%ebx)
	.loc 1 165 0
	movl	$0, 12(%ebx)
	.loc 1 166 0
	jmp	.L3
.L2:
	.loc 1 173 0
	cmpl	$0, 16(%ebx)
	.loc 1 169 0
	movl	16(%ebp), %eax
	.loc 1 170 0
	movl	%esi, 8(%ebx)
	.loc 1 171 0
	movl	%edi, 12(%ebx)
	.loc 1 169 0
	movl	%eax, 4(%ebx)
	.loc 1 173 0
	je	.L3
	.loc 1 174 0
	orw	$1, 6(%esi)
	.loc 1 175 0
	pushl	%eax
	pushl	%eax
	pushl	%edi
	pushl	%esi
	call	*16(%ebp)
.LVL2:
	addl	$16, %esp
.L3:
	.loc 1 178 0
	subl	$12, %esp
	pushl	%ebx
	call	aos_mutex_unlock
.LVL3:
	.loc 1 181 0
	leal	-12(%ebp), %esp
	xorl	%eax, %eax
	popl	%ebx
	.cfi_restore 3
	popl	%esi
	.cfi_restore 6
	popl	%edi
	.cfi_restore 7
	popl	%ebp
	.cfi_restore 5
	.cfi_def_cfa 4, 4
	ret
	.cfi_endproc
.LFE28:
	.size	event_poll, .-event_poll
	.section	.text.unlikely.event_poll
.LCOLDE0:
	.section	.text.event_poll
.LHOTE0:
	.section	.text.unlikely._event_write,"ax",@progbits
.LCOLDB1:
	.section	.text._event_write,"ax",@progbits
.LHOTB1:
	.type	_event_write, @function
_event_write:
.LFB24:
	.loc 1 68 0
	.cfi_startproc
.LVL4:
	pushl	%ebp
	.cfi_def_cfa_offset 8
	.cfi_offset 5, -8
	movl	%esp, %ebp
	.cfi_def_cfa_register 5
	pushl	%edi
	pushl	%esi
	pushl	%ebx
	subl	$36, %esp
	.cfi_offset 7, -12
	.cfi_offset 6, -16
	.cfi_offset 3, -20
	.loc 1 69 0
	movl	4(%eax), %ebx
.LVL5:
	.loc 1 68 0
	movl	8(%ebp), %esi
	.loc 1 70 0
	pushl	$-1
	.loc 1 68 0
	movl	%edx, -32(%ebp)
	movl	%ecx, -28(%ebp)
	.loc 1 70 0
	pushl	%ebx
	.loc 1 68 0
	movl	%esi, -36(%ebp)
	.loc 1 70 0
	call	aos_mutex_lock
.LVL6:
	.loc 1 76 0
	movl	28(%ebx), %eax
	addl	$16, %esp
	.loc 1 71 0
	movl	-28(%ebp), %ecx
.LVL7:
	.loc 1 74 0
	movl	36(%ebx), %edx
.LVL8:
	.loc 1 76 0
	testl	%eax, %eax
	jle	.L7
	.loc 1 76 0 is_stmt 0 discriminator 1
	cmpl	8(%edx), %ecx
	jne	.L7
.LVL9:
.LBB38:
.LBB39:
	.file 2 "./include/aos/list.h"
	.loc 2 68 0 is_stmt 1
	movl	(%edx), %edi
.LVL10:
	.loc 2 69 0
	movl	4(%edx), %esi
.LVL11:
.LBE39:
.LBE38:
	.loc 1 78 0
	decl	%eax
.LBB41:
.LBB40:
	.loc 2 71 0
	movl	%esi, 4(%edi)
	.loc 2 72 0
	movl	%edi, (%esi)
.LVL12:
.LBE40:
.LBE41:
	.loc 1 78 0
	movl	%eax, 28(%ebx)
	jmp	.L8
.L7:
	.loc 1 80 0
	leal	12(%ecx), %eax
	subl	$12, %esp
	movl	%ecx, -40(%ebp)
	pushl	%eax
	call	aos_malloc
.LVL13:
	.loc 1 83 0
	addl	$16, %esp
	testl	%eax, %eax
	.loc 1 80 0
	movl	%eax, %edx
.LVL14:
	.loc 1 83 0
	movl	-40(%ebp), %ecx
	je	.L12
.LVL15:
.L8:
	.loc 1 88 0
	incl	16(%ebx)
	.loc 1 92 0
	cmpb	$0, -36(%ebp)
	.loc 1 91 0
	leal	12(%edx), %eax
	.loc 1 90 0
	movl	%ecx, 8(%edx)
	.loc 1 91 0
	movl	-32(%ebp), %esi
	movl	%eax, %edi
	rep movsb
	leal	20(%ebx), %ecx
	.loc 1 92 0
	je	.L10
.LVL16:
.LBB42:
.LBB43:
	.loc 2 58 0
	movl	24(%ebx), %eax
.LVL17:
.LBE43:
.LBE42:
	.loc 1 93 0
	movl	%ecx, (%edx)
.LBB47:
.LBB46:
.LBB44:
.LBB45:
	.loc 2 38 0
	movl	%eax, 4(%edx)
	.loc 2 41 0
	movl	%edx, 24(%ebx)
	.loc 2 42 0
	movl	%edx, (%eax)
.LVL18:
	jmp	.L11
.LVL19:
.L10:
.LBE45:
.LBE44:
.LBE46:
.LBE47:
.LBB48:
.LBB49:
	.loc 2 63 0
	movl	20(%ebx), %eax
.LVL20:
.LBE49:
.LBE48:
	.loc 1 95 0
	movl	%ecx, 4(%edx)
.LBB53:
.LBB52:
.LBB50:
.LBB51:
	.loc 2 39 0
	movl	%eax, (%edx)
	.loc 2 41 0
	movl	%edx, 4(%eax)
	.loc 2 42 0
	movl	%edx, 20(%ebx)
.LVL21:
.L11:
.LBE51:
.LBE50:
.LBE52:
.LBE53:
	.loc 1 98 0
	movl	4(%ebx), %edx
.LVL22:
	testl	%edx, %edx
	je	.L9
	.loc 1 99 0
	movl	8(%ebx), %eax
	orw	$1, 6(%eax)
	.loc 1 100 0
	pushl	%ecx
	pushl	%ecx
	pushl	12(%ebx)
	pushl	%eax
	call	*%edx
.LVL23:
	addl	$16, %esp
	jmp	.L9
.LVL24:
.L12:
	.loc 1 84 0
	movl	$-1, -28(%ebp)
.LVL25:
.L9:
	.loc 1 103 0
	subl	$12, %esp
	pushl	%ebx
	call	aos_mutex_unlock
.LVL26:
	.loc 1 105 0
	movl	-28(%ebp), %eax
	leal	-12(%ebp), %esp
	popl	%ebx
	.cfi_restore 3
.LVL27:
	popl	%esi
	.cfi_restore 6
	popl	%edi
	.cfi_restore 7
	popl	%ebp
	.cfi_restore 5
	.cfi_def_cfa 4, 4
	ret
	.cfi_endproc
.LFE24:
	.size	_event_write, .-_event_write
	.section	.text.unlikely._event_write
.LCOLDE1:
	.section	.text._event_write
.LHOTE1:
	.section	.text.unlikely.event_ioctl,"ax",@progbits
.LCOLDB2:
	.section	.text.event_ioctl,"ax",@progbits
.LHOTB2:
	.type	event_ioctl, @function
event_ioctl:
.LFB26:
	.loc 1 113 0
	.cfi_startproc
.LVL28:
	pushl	%ebp
	.cfi_def_cfa_offset 8
	.cfi_offset 5, -8
	movl	%esp, %ebp
	.cfi_def_cfa_register 5
	pushl	%ebx
	.cfi_offset 3, -12
	.loc 1 113 0
	movl	12(%ebp), %ebx
	movl	8(%ebp), %eax
	movl	16(%ebp), %edx
	.loc 1 114 0
	movl	%ebx, %ecx
	.loc 1 117 0
	andl	$15, %ebx
	.loc 1 114 0
	sarl	$4, %ecx
.LVL29:
	.loc 1 117 0
	cmpl	$1, %ebx
	je	.L19
	cmpl	$2, %ebx
	jne	.L24
	.loc 1 121 0
	movl	$1, 8(%ebp)
.LVL30:
	jmp	.L23
.L19:
	.loc 1 119 0
	movl	$0, 8(%ebp)
.L23:
	.loc 1 125 0
	popl	%ebx
	.cfi_remember_state
	.cfi_restore 3
	popl	%ebp
	.cfi_restore 5
	.cfi_def_cfa 4, 4
	.loc 1 121 0
	jmp	_event_write
.LVL31:
.L24:
	.cfi_restore_state
	.loc 1 125 0
	orl	$-1, %eax
.LVL32:
	popl	%ebx
	.cfi_restore 3
	popl	%ebp
	.cfi_restore 5
	.cfi_def_cfa 4, 4
	ret
	.cfi_endproc
.LFE26:
	.size	event_ioctl, .-event_ioctl
	.section	.text.unlikely.event_ioctl
.LCOLDE2:
	.section	.text.event_ioctl
.LHOTE2:
	.section	.text.unlikely.event_write,"ax",@progbits
.LCOLDB3:
	.section	.text.event_write,"ax",@progbits
.LHOTB3:
	.type	event_write, @function
event_write:
.LFB25:
	.loc 1 108 0
	.cfi_startproc
.LVL33:
	pushl	%ebp
	.cfi_def_cfa_offset 8
	.cfi_offset 5, -8
	movl	%esp, %ebp
	.cfi_def_cfa_register 5
	.loc 1 108 0
	movl	8(%ebp), %eax
	.loc 1 109 0
	movl	16(%ebp), %ecx
	movl	$0, 8(%ebp)
.LVL34:
	movl	12(%ebp), %edx
	.loc 1 110 0
	popl	%ebp
	.cfi_restore 5
	.cfi_def_cfa 4, 4
	.loc 1 109 0
	jmp	_event_write
.LVL35:
	.cfi_endproc
.LFE25:
	.size	event_write, .-event_write
	.section	.text.unlikely.event_write
.LCOLDE3:
	.section	.text.event_write
.LHOTE3:
	.section	.text.unlikely.event_open,"ax",@progbits
.LCOLDB4:
	.section	.text.event_open,"ax",@progbits
.LHOTB4:
	.type	event_open, @function
event_open:
.LFB22:
	.loc 1 35 0
	.cfi_startproc
.LVL36:
	pushl	%ebp
	.cfi_def_cfa_offset 8
	.cfi_offset 5, -8
	movl	%esp, %ebp
	.cfi_def_cfa_register 5
	pushl	%edi
	pushl	%ebx
	.cfi_offset 7, -12
	.cfi_offset 3, -16
	.loc 1 36 0
	subl	$12, %esp
	pushl	$40
	call	aos_malloc
.LVL37:
	movl	%eax, %ebx
.LVL38:
	.loc 1 37 0
	movl	$10, %ecx
	xorl	%eax, %eax
.LVL39:
	movl	%ebx, %edi
	rep stosl
	.loc 1 38 0
	movl	%ebx, (%esp)
	call	aos_mutex_new
.LVL40:
	.loc 1 39 0
	leal	20(%ebx), %eax
.LVL41:
.LBB54:
.LBB55:
	.loc 2 77 0
	movl	%eax, 20(%ebx)
	movl	%eax, 24(%ebx)
.LVL42:
.LBE55:
.LBE54:
	.loc 1 40 0
	leal	32(%ebx), %eax
.LVL43:
.LBB56:
.LBB57:
	.loc 2 77 0
	movl	%eax, 32(%ebx)
	movl	%eax, 36(%ebx)
.LVL44:
.LBE57:
.LBE56:
	.loc 1 41 0
	movl	12(%ebp), %eax
	movl	%ebx, 4(%eax)
	.loc 1 43 0
	leal	-8(%ebp), %esp
	xorl	%eax, %eax
	popl	%ebx
	.cfi_restore 3
.LVL45:
	popl	%edi
	.cfi_restore 7
	popl	%ebp
	.cfi_restore 5
	.cfi_def_cfa 4, 4
	ret
	.cfi_endproc
.LFE22:
	.size	event_open, .-event_open
	.section	.text.unlikely.event_open
.LCOLDE4:
	.section	.text.event_open
.LHOTE4:
	.section	.text.unlikely.event_close,"ax",@progbits
.LCOLDB5:
	.section	.text.event_close,"ax",@progbits
.LHOTB5:
	.type	event_close, @function
event_close:
.LFB23:
	.loc 1 46 0
	.cfi_startproc
.LVL46:
	pushl	%ebp
	.cfi_def_cfa_offset 8
	.cfi_offset 5, -8
	movl	%esp, %ebp
	.cfi_def_cfa_register 5
	pushl	%esi
	pushl	%ebx
	.cfi_offset 6, -12
	.cfi_offset 3, -16
	.loc 1 47 0
	movl	8(%ebp), %eax
	.loc 1 48 0
	subl	$12, %esp
	.loc 1 47 0
	movl	4(%eax), %ebx
.LVL47:
	.loc 1 48 0
	pushl	%ebx
	.loc 1 50 0
	leal	20(%ebx), %esi
	.loc 1 48 0
	call	aos_mutex_free
.LVL48:
	.loc 1 50 0
	addl	$16, %esp
.L30:
.LVL49:
.LBB68:
.LBB69:
	.loc 2 88 0
	movl	24(%ebx), %eax
.LVL50:
.LBE69:
.LBE68:
	.loc 1 50 0
	cmpl	%esi, %eax
	je	.L35
.LVL51:
.LBB70:
.LBB71:
.LBB72:
	.loc 2 68 0
	movl	(%eax), %ecx
.LVL52:
	.loc 2 69 0
	movl	4(%eax), %edx
.LVL53:
.LBE72:
.LBE71:
	.loc 1 53 0
	subl	$12, %esp
.LBB74:
.LBB73:
	.loc 2 71 0
	movl	%edx, 4(%ecx)
	.loc 2 72 0
	movl	%ecx, (%edx)
.LVL54:
.LBE73:
.LBE74:
	.loc 1 53 0
	pushl	%eax
	call	aos_free
.LVL55:
	addl	$16, %esp
	jmp	.L30
.L35:
.LBE70:
	.loc 1 56 0
	leal	32(%ebx), %esi
.L32:
.LVL56:
.LBB75:
.LBB76:
	.loc 2 88 0
	movl	36(%ebx), %eax
.LVL57:
.LBE76:
.LBE75:
	.loc 1 56 0
	cmpl	%esi, %eax
	je	.L36
.LVL58:
.LBB77:
.LBB78:
.LBB79:
	.loc 2 68 0
	movl	(%eax), %ecx
.LVL59:
	.loc 2 69 0
	movl	4(%eax), %edx
.LVL60:
.LBE79:
.LBE78:
	.loc 1 59 0
	subl	$12, %esp
.LBB81:
.LBB80:
	.loc 2 71 0
	movl	%edx, 4(%ecx)
	.loc 2 72 0
	movl	%ecx, (%edx)
.LVL61:
.LBE80:
.LBE81:
	.loc 1 59 0
	pushl	%eax
	call	aos_free
.LVL62:
	addl	$16, %esp
	jmp	.L32
.L36:
.LBE77:
	.loc 1 62 0
	subl	$12, %esp
	pushl	%ebx
	call	aos_free
.LVL63:
	.loc 1 65 0
	leal	-8(%ebp), %esp
	xorl	%eax, %eax
	popl	%ebx
	.cfi_restore 3
.LVL64:
	popl	%esi
	.cfi_restore 6
.LVL65:
	popl	%ebp
	.cfi_restore 5
	.cfi_def_cfa 4, 4
	ret
	.cfi_endproc
.LFE23:
	.size	event_close, .-event_close
	.section	.text.unlikely.event_close
.LCOLDE5:
	.section	.text.event_close
.LHOTE5:
	.section	.text.unlikely.event_read,"ax",@progbits
.LCOLDB6:
	.section	.text.event_read,"ax",@progbits
.LHOTB6:
	.type	event_read, @function
event_read:
.LFB27:
	.loc 1 128 0
	.cfi_startproc
.LVL66:
	pushl	%ebp
	.cfi_def_cfa_offset 8
	.cfi_offset 5, -8
	movl	%esp, %ebp
	.cfi_def_cfa_register 5
	pushl	%edi
	pushl	%esi
	pushl	%ebx
	subl	$28, %esp
	.cfi_offset 7, -12
	.cfi_offset 6, -16
	.cfi_offset 3, -20
	.loc 1 129 0
	movl	8(%ebp), %eax
	.loc 1 128 0
	movl	16(%ebp), %esi
	.loc 1 129 0
	movl	4(%eax), %ebx
.LVL67:
	xorl	%eax, %eax
	.loc 1 132 0
	cmpl	$0, 16(%ebx)
	je	.L38
	.loc 1 136 0
	pushl	%eax
.LVL68:
	pushl	%eax
	pushl	$-1
	pushl	%ebx
	call	aos_mutex_lock
.LVL69:
	.loc 1 138 0
	movl	24(%ebx), %eax
.LVL70:
	.loc 1 140 0
	addl	$16, %esp
	.loc 1 141 0
	movl	12(%ebp), %edi
	.loc 1 140 0
	cmpl	%esi, 8(%eax)
.LBB88:
.LBB89:
	.loc 2 68 0
	movl	(%eax), %ecx
.LVL71:
.LBE89:
.LBE88:
	.loc 1 140 0
	cmovbe	8(%eax), %esi
.LBB91:
.LBB90:
	.loc 2 69 0
	movl	4(%eax), %edx
.LVL72:
	.loc 2 71 0
	movl	%edx, 4(%ecx)
	.loc 2 72 0
	movl	%ecx, (%edx)
.LVL73:
.LBE90:
.LBE91:
	.loc 1 140 0
	movl	%esi, -28(%ebp)
.LVL74:
	.loc 1 141 0
	leal	12(%eax), %esi
.LVL75:
	movl	-28(%ebp), %ecx
	rep movsb
	.loc 1 143 0
	movl	28(%ebx), %edx
	cmpl	$3, %edx
	jg	.L39
.LVL76:
.LBB92:
.LBB93:
	.loc 2 58 0
	movl	36(%ebx), %ecx
.LVL77:
.LBE93:
.LBE92:
	.loc 1 144 0
	leal	32(%ebx), %esi
.LVL78:
	.loc 1 145 0
	incl	%edx
	.loc 1 144 0
	movl	%esi, (%eax)
.LBB97:
.LBB96:
.LBB94:
.LBB95:
	.loc 2 38 0
	movl	%ecx, 4(%eax)
	.loc 2 41 0
	movl	%eax, 36(%ebx)
	.loc 2 42 0
	movl	%eax, (%ecx)
.LVL79:
.LBE95:
.LBE94:
.LBE96:
.LBE97:
	.loc 1 145 0
	movl	%edx, 28(%ebx)
	jmp	.L40
.L39:
	.loc 1 147 0
	subl	$12, %esp
	pushl	%eax
	call	aos_free
.LVL80:
	addl	$16, %esp
.L40:
	.loc 1 150 0
	decl	16(%ebx)
	.loc 1 152 0
	subl	$12, %esp
	pushl	%ebx
	call	aos_mutex_unlock
.LVL81:
	.loc 1 154 0
	movl	-28(%ebp), %eax
	addl	$16, %esp
.LVL82:
.L38:
	.loc 1 155 0
	leal	-12(%ebp), %esp
	popl	%ebx
	.cfi_restore 3
.LVL83:
	popl	%esi
	.cfi_restore 6
	popl	%edi
	.cfi_restore 7
	popl	%ebp
	.cfi_restore 5
	.cfi_def_cfa 4, 4
	ret
	.cfi_endproc
.LFE27:
	.size	event_read, .-event_read
	.section	.text.unlikely.event_read
.LCOLDE6:
	.section	.text.event_read
.LHOTE6:
	.section	.rodata.str1.1,"aMS",@progbits,1
.LC7:
	.string	"/dev/event"
	.section	.text.unlikely.vfs_device_init,"ax",@progbits
.LCOLDB8:
	.section	.text.vfs_device_init,"ax",@progbits
.LHOTB8:
	.globl	vfs_device_init
	.type	vfs_device_init, @function
vfs_device_init:
.LFB29:
	.loc 1 193 0
	.cfi_startproc
	.loc 1 197 0
	xorl	%eax, %eax
	.loc 1 196 0
	cmpl	$1, inited
	je	.L50
	.loc 1 193 0
	pushl	%ebp
	.cfi_def_cfa_offset 8
	.cfi_offset 5, -8
	movl	%esp, %ebp
	.cfi_def_cfa_register 5
	subl	$12, %esp
	.loc 1 200 0
	pushl	$0
	pushl	$event_fops
	pushl	$.LC7
	call	aos_register_driver
.LVL84:
	.loc 1 202 0
	addl	$16, %esp
	testl	%eax, %eax
	jne	.L45
	.loc 1 206 0
	movl	$1, inited
.L45:
	.loc 1 209 0
	leave
	.cfi_restore 5
	.cfi_def_cfa 4, 4
.LVL85:
.L50:
	ret
	.cfi_endproc
.LFE29:
	.size	vfs_device_init, .-vfs_device_init
	.section	.text.unlikely.vfs_device_init
.LCOLDE8:
	.section	.text.vfs_device_init
.LHOTE8:
	.section	.rodata.event_fops,"a",@progbits
	.align 4
	.type	event_fops, @object
	.size	event_fops, 24
event_fops:
	.long	event_open
	.long	event_close
	.long	event_read
	.long	event_write
	.long	event_ioctl
	.long	event_poll
	.section	.bss.inited,"aw",@nobits
	.align 4
	.type	inited, @object
	.size	inited, 4
inited:
	.zero	4
	.text
.Letext0:
	.section	.text.unlikely.event_poll
.Letext_cold0:
	.file 3 "/home/stone/Documents/Ali_IOT/build/compiler/gcc-arm-none-eabi/Linux64/lib/gcc/arm-none-eabi/5.4.1/include/stddef.h"
	.file 4 "/home/stone/Documents/Ali_IOT/build/compiler/gcc-arm-none-eabi/Linux64/arm-none-eabi/include/machine/_default_types.h"
	.file 5 "/home/stone/Documents/Ali_IOT/build/compiler/gcc-arm-none-eabi/Linux64/arm-none-eabi/include/sys/_types.h"
	.file 6 "/home/stone/Documents/Ali_IOT/build/compiler/gcc-arm-none-eabi/Linux64/arm-none-eabi/include/sys/_stdint.h"
	.file 7 "/home/stone/Documents/Ali_IOT/build/compiler/gcc-arm-none-eabi/Linux64/arm-none-eabi/include/sys/_timeval.h"
	.file 8 "/home/stone/Documents/Ali_IOT/build/compiler/gcc-arm-none-eabi/Linux64/arm-none-eabi/include/sys/types.h"
	.file 9 "/home/stone/Documents/Ali_IOT/build/compiler/gcc-arm-none-eabi/Linux64/arm-none-eabi/include/sys/stat.h"
	.file 10 "./include/aos/types.h"
	.file 11 "./include/aos/kernel.h"
	.file 12 "./include/aos/vfs.h"
	.file 13 "./kernel/vfs/include/vfs_inode.h"
	.file 14 "./kernel/vfs/include/vfs_register.h"
	.file 15 "./include/aos/log.h"
	.section	.note.GNU-stack,"",@progbits
