	.file	"dhcp.c"
	.text
.Ltext0:
	.section	.text.unlikely.dhcp_set_state,"ax",@progbits
.LCOLDB0:
	.section	.text.dhcp_set_state,"ax",@progbits
.LHOTB0:
	.section	.text.unlikely.dhcp_set_state
.Ltext_cold0:
	.section	.text.dhcp_set_state
	.type	dhcp_set_state, @function
dhcp_set_state:
.LFB46:
	.file 1 "kernel/protocols/net/core/ipv4/dhcp.c"
	.loc 1 1360 0
	.cfi_startproc
.LVL0:
	.loc 1 1361 0
	cmpb	%dl, 9(%eax)
	.loc 1 1360 0
	pushl	%ebp
	.cfi_def_cfa_offset 8
	.cfi_offset 5, -8
	movl	%esp, %ebp
	.cfi_def_cfa_register 5
	.loc 1 1361 0
	je	.L1
	.loc 1 1362 0
	movb	%dl, 9(%eax)
	.loc 1 1363 0
	movb	$0, 10(%eax)
	.loc 1 1364 0
	movw	$0, 22(%eax)
.L1:
	.loc 1 1366 0
	popl	%ebp
	.cfi_restore 5
	.cfi_def_cfa 4, 4
	ret
	.cfi_endproc
.LFE46:
	.size	dhcp_set_state, .-dhcp_set_state
	.section	.text.unlikely.dhcp_set_state
.LCOLDE0:
	.section	.text.dhcp_set_state
.LHOTE0:
	.section	.text.unlikely.dhcp_option,"ax",@progbits
.LCOLDB1:
	.section	.text.dhcp_option,"ax",@progbits
.LHOTB1:
	.type	dhcp_option, @function
dhcp_option:
.LFB47:
	.loc 1 1375 0
	.cfi_startproc
.LVL1:
	pushl	%ebp
	.cfi_def_cfa_offset 8
	.cfi_offset 5, -8
	movl	%esp, %ebp
	.cfi_def_cfa_register 5
	pushl	%edi
	pushl	%esi
	pushl	%ebx
	.cfi_offset 7, -12
	.cfi_offset 6, -16
	.cfi_offset 3, -20
	.loc 1 1377 0
	movzwl	20(%eax), %ebx
	movl	16(%eax), %esi
	leal	1(%ebx), %edi
	movw	%di, 20(%eax)
	movb	%dl, 240(%esi,%ebx)
	.loc 1 1378 0
	movzwl	20(%eax), %edx
.LVL2:
	movl	16(%eax), %ebx
.LVL3:
	leal	1(%edx), %esi
.LVL4:
	movw	%si, 20(%eax)
	movb	%cl, 240(%ebx,%edx)
	.loc 1 1379 0
	popl	%ebx
	.cfi_restore 3
	popl	%esi
	.cfi_restore 6
	popl	%edi
	.cfi_restore 7
	popl	%ebp
	.cfi_restore 5
	.cfi_def_cfa 4, 4
	ret
	.cfi_endproc
.LFE47:
	.size	dhcp_option, .-dhcp_option
	.section	.text.unlikely.dhcp_option
.LCOLDE1:
	.section	.text.dhcp_option
.LHOTE1:
	.section	.text.unlikely.dhcp_option_short,"ax",@progbits
.LCOLDB2:
	.section	.text.dhcp_option_short,"ax",@progbits
.LHOTB2:
	.type	dhcp_option_short, @function
dhcp_option_short:
.LFB49:
	.loc 1 1393 0
	.cfi_startproc
.LVL5:
	.loc 1 1395 0
	movzwl	20(%eax), %ecx
	.loc 1 1393 0
	pushl	%ebp
	.cfi_def_cfa_offset 8
	.cfi_offset 5, -8
	movl	%esp, %ebp
	.cfi_def_cfa_register 5
	pushl	%esi
	pushl	%ebx
	.cfi_offset 6, -12
	.cfi_offset 3, -16
	.loc 1 1395 0
	movl	%edx, %ebx
	leal	1(%ecx), %esi
	shrw	$8, %bx
	movw	%si, 20(%eax)
	movl	16(%eax), %esi
	movb	%bl, 240(%esi,%ecx)
	.loc 1 1396 0
	movzwl	20(%eax), %ecx
	movl	16(%eax), %ebx
	leal	1(%ecx), %esi
	movw	%si, 20(%eax)
	movb	%dl, 240(%ebx,%ecx)
	.loc 1 1397 0
	popl	%ebx
	.cfi_restore 3
	popl	%esi
	.cfi_restore 6
	popl	%ebp
	.cfi_restore 5
	.cfi_def_cfa 4, 4
	ret
	.cfi_endproc
.LFE49:
	.size	dhcp_option_short, .-dhcp_option_short
	.section	.text.unlikely.dhcp_option_short
.LCOLDE2:
	.section	.text.dhcp_option_short
.LHOTE2:
	.section	.text.unlikely.dhcp_option_long,"ax",@progbits
.LCOLDB3:
	.section	.text.dhcp_option_long,"ax",@progbits
.LHOTB3:
	.type	dhcp_option_long, @function
dhcp_option_long:
.LFB50:
	.loc 1 1401 0
	.cfi_startproc
.LVL6:
	.loc 1 1403 0
	movzwl	20(%eax), %ecx
	.loc 1 1401 0
	pushl	%ebp
	.cfi_def_cfa_offset 8
	.cfi_offset 5, -8
	movl	%esp, %ebp
	.cfi_def_cfa_register 5
	pushl	%esi
	pushl	%ebx
	.cfi_offset 6, -12
	.cfi_offset 3, -16
	.loc 1 1403 0
	movl	%edx, %ebx
	leal	1(%ecx), %esi
	shrl	$24, %ebx
	movw	%si, 20(%eax)
	movl	16(%eax), %esi
	movb	%bl, 240(%esi,%ecx)
	.loc 1 1404 0
	movzwl	20(%eax), %ecx
	movl	%edx, %ebx
	shrl	$16, %ebx
	leal	1(%ecx), %esi
	movw	%si, 20(%eax)
	movl	16(%eax), %esi
	movb	%bl, 240(%esi,%ecx)
	.loc 1 1405 0
	movzwl	20(%eax), %ecx
	movzbl	%dh, %ebx
	leal	1(%ecx), %esi
	movw	%si, 20(%eax)
	movl	16(%eax), %esi
	movb	%bl, 240(%esi,%ecx)
	.loc 1 1406 0
	movzwl	20(%eax), %ecx
	movl	16(%eax), %ebx
	leal	1(%ecx), %esi
	movw	%si, 20(%eax)
	movb	%dl, 240(%ebx,%ecx)
	.loc 1 1407 0
	popl	%ebx
	.cfi_restore 3
	popl	%esi
	.cfi_restore 6
	popl	%ebp
	.cfi_restore 5
	.cfi_def_cfa 4, 4
	ret
	.cfi_endproc
.LFE50:
	.size	dhcp_option_long, .-dhcp_option_long
	.section	.text.unlikely.dhcp_option_long
.LCOLDE3:
	.section	.text.dhcp_option_long
.LHOTE3:
	.section	.rodata.str1.1,"aMS",@progbits,1
.LC4:
	.string	"dhcp_create_msg: netif != NULL"
.LC5:
	.string	"dhcp_create_msg: dhcp != NULL"
	.section	.text.unlikely.dhcp_create_msg,"ax",@progbits
.LCOLDB6:
	.section	.text.dhcp_create_msg,"ax",@progbits
.LHOTB6:
	.type	dhcp_create_msg, @function
dhcp_create_msg:
.LFB54:
	.loc 1 1783 0
	.cfi_startproc
.LVL7:
	pushl	%ebp
	.cfi_def_cfa_offset 8
	.cfi_offset 5, -8
	movl	%esp, %ebp
	.cfi_def_cfa_register 5
	pushl	%edi
	pushl	%esi
	pushl	%ebx
	subl	$28, %esp
	.cfi_offset 7, -12
	.cfi_offset 6, -16
	.cfi_offset 3, -20
	.loc 1 1801 0
	testl	%eax, %eax
	.loc 1 1783 0
	movl	%ecx, -28(%ebp)
	.loc 1 1801 0
	jne	.L12
	.loc 1 1801 0 discriminator 1
	subl	$12, %esp
	pushl	$.LC4
	call	bk_printf
.LVL8:
	addl	$16, %esp
	movb	$-16, %dl
	jmp	.L13
.LVL9:
.L12:
	.loc 1 1802 0
	testl	%edx, %edx
	movl	%edx, %ebx
	jne	.L14
	.loc 1 1802 0 discriminator 1
	subl	$12, %esp
	pushl	$.LC5
	call	bk_printf
.LVL10:
	addl	$16, %esp
	movb	$-6, %dl
	jmp	.L13
.LVL11:
.L14:
	movl	%eax, %edi
.LVL12:
	.loc 1 1805 0
	pushl	%eax
	pushl	$0
	pushl	$308
	pushl	$0
	call	pbuf_alloc
.LVL13:
	.loc 1 1806 0
	addl	$16, %esp
	testl	%eax, %eax
	.loc 1 1805 0
	movl	%eax, 12(%ebx)
	.loc 1 1809 0
	movb	$-1, %dl
	.loc 1 1806 0
	je	.L13
	.loc 1 1815 0
	cmpb	$3, -28(%ebp)
	je	.L15
	.loc 1 1817 0
	cmpb	$0, 10(%ebx)
	jne	.L16
.LBB11:
	.loc 1 1819 0
	call	rand
.LVL14:
	movl	%eax, xid.4781
.L16:
.LBE11:
	.loc 1 1824 0
	movl	xid.4781, %eax
	movl	%eax, (%ebx)
.L15:
	.loc 1 1829 0
	movl	12(%ebx), %eax
	.loc 1 1836 0
	subl	$12, %esp
	.loc 1 1829 0
	movl	4(%eax), %eax
	movl	%eax, 16(%ebx)
	.loc 1 1831 0
	movb	$1, (%eax)
	.loc 1 1833 0
	movl	16(%ebx), %eax
	movb	$1, 1(%eax)
	.loc 1 1834 0
	movl	16(%ebx), %eax
	movb	54(%edi), %dl
	movb	%dl, 2(%eax)
	.loc 1 1835 0
	movl	16(%ebx), %eax
	movb	$0, 3(%eax)
	.loc 1 1836 0
	movl	16(%ebx), %esi
	pushl	(%ebx)
	call	lwip_htonl
.LVL15:
	movl	%eax, 4(%esi)
	.loc 1 1843 0
	movl	-28(%ebp), %esi
	addl	$16, %esp
	.loc 1 1837 0
	movl	16(%ebx), %eax
	.loc 1 1843 0
	leal	-7(%esi), %edx
	.loc 1 1837 0
	movw	$0, 8(%eax)
	.loc 1 1840 0
	movw	$0, 10(%eax)
	.loc 1 1843 0
	cmpb	$1, %dl
	.loc 1 1841 0
	movl	$0, 12(%eax)
	.loc 1 1843 0
	jbe	.L17
	cmpb	$4, -28(%ebp)
	je	.L17
	.loc 1 1843 0 is_stmt 0 discriminator 2
	cmpb	$3, -28(%ebp)
	jne	.L18
	.loc 1 1844 0 is_stmt 1
	movzbl	9(%ebx), %esi
	leal	-4(%esi), %edx
	cmpb	$1, %dl
	ja	.L18
.L17:
	.loc 1 1846 0
	movl	4(%edi), %edx
	movl	%edx, 12(%eax)
.L18:
	.loc 1 1848 0
	movl	$0, 16(%eax)
	.loc 1 1849 0
	movl	$0, 20(%eax)
	.loc 1 1850 0
	movl	$0, 24(%eax)
.LVL16:
	xorl	%eax, %eax
.LVL17:
.L20:
	.loc 1 1853 0
	movzbl	54(%edi), %edx
	movl	16(%ebx), %ecx
	cmpw	%ax, %dx
	jbe	.L25
	cmpw	$5, %ax
	ja	.L25
	.loc 1 1853 0 is_stmt 0 discriminator 3
	movb	55(%edi,%eax), %dl
	jmp	.L19
.L25:
	.loc 1 1853 0
	xorl	%edx, %edx
.L19:
	.loc 1 1853 0 discriminator 6
	movb	%dl, 28(%ecx,%eax)
.LVL18:
	incl	%eax
.LVL19:
	.loc 1 1851 0 is_stmt 1 discriminator 6
	cmpl	$16, %eax
	jne	.L20
	xorl	%eax, %eax
.L21:
.LVL20:
	.loc 1 1856 0 discriminator 3
	movl	16(%ebx), %edx
	movb	$0, 44(%edx,%eax)
.LVL21:
	incl	%eax
.LVL22:
	.loc 1 1855 0 discriminator 3
	cmpl	$64, %eax
	jne	.L21
	xorl	%eax, %eax
.L22:
.LVL23:
	.loc 1 1859 0 discriminator 3
	movl	16(%ebx), %edx
	movb	$0, 108(%edx,%eax)
.LVL24:
	incl	%eax
.LVL25:
	.loc 1 1858 0 discriminator 3
	cmpl	$128, %eax
	jne	.L22
	.loc 1 1861 0
	movl	16(%ebx), %eax
	movl	$1666417251, 236(%eax)
	.loc 1 1862 0
	movw	$0, 20(%ebx)
.LVL26:
	xorl	%eax, %eax
.LVL27:
.L23:
	.loc 1 1865 0 discriminator 3
	movl	16(%ebx), %edx
	movb	%al, 240(%edx,%eax)
.LVL28:
	incl	%eax
.LVL29:
	.loc 1 1864 0 discriminator 3
	cmpl	$68, %eax
	jne	.L23
	.loc 1 1868 0
	movl	$1, %ecx
	movl	$53, %edx
	movl	%ebx, %eax
	call	dhcp_option
.LVL30:
.LBB12:
.LBB13:
	.loc 1 1388 0
	movzwl	20(%ebx), %eax
	movl	16(%ebx), %edx
	leal	1(%eax), %ecx
	movw	%cx, 20(%ebx)
	movb	-28(%ebp), %cl
	movb	%cl, 240(%edx,%eax)
.LBE13:
.LBE12:
	.loc 1 1870 0
	xorl	%edx, %edx
.LVL31:
.L13:
	.loc 1 1871 0
	leal	-12(%ebp), %esp
	movb	%dl, %al
	popl	%ebx
	.cfi_restore 3
	popl	%esi
	.cfi_restore 6
	popl	%edi
	.cfi_restore 7
	popl	%ebp
	.cfi_restore 5
	.cfi_def_cfa 4, 4
	ret
	.cfi_endproc
.LFE54:
	.size	dhcp_create_msg, .-dhcp_create_msg
	.section	.text.unlikely.dhcp_create_msg
.LCOLDE6:
	.section	.text.dhcp_create_msg
.LHOTE6:
	.section	.rodata.str1.1
.LC7:
	.string	"dhcp_delete_msg: dhcp != NULL"
	.section	.text.unlikely.dhcp_delete_msg,"ax",@progbits
.LCOLDB8:
	.section	.text.dhcp_delete_msg,"ax",@progbits
.LHOTB8:
	.type	dhcp_delete_msg, @function
dhcp_delete_msg:
.LFB55:
	.loc 1 1880 0
	.cfi_startproc
.LVL32:
	pushl	%ebp
	.cfi_def_cfa_offset 8
	.cfi_offset 5, -8
	.loc 1 1881 0
	testl	%eax, %eax
	.loc 1 1880 0
	movl	%esp, %ebp
	.cfi_def_cfa_register 5
	pushl	%ebx
	pushl	%edx
	.cfi_offset 3, -12
	.loc 1 1881 0
	jne	.L38
	.loc 1 1881 0 discriminator 1
	subl	$12, %esp
	pushl	$.LC7
	call	bk_printf
.LVL33:
	addl	$16, %esp
	jmp	.L37
.LVL34:
.L38:
	movl	%eax, %ebx
	.loc 1 1884 0
	movl	12(%eax), %eax
.LVL35:
	testl	%eax, %eax
	je	.L40
	.loc 1 1885 0
	subl	$12, %esp
	pushl	%eax
	call	pbuf_free
.LVL36:
	addl	$16, %esp
.L40:
	.loc 1 1887 0
	movl	$0, 12(%ebx)
	.loc 1 1888 0
	movl	$0, 16(%ebx)
.LVL37:
.L37:
	.loc 1 1889 0
	movl	-4(%ebp), %ebx
	leave
	.cfi_restore 5
	.cfi_restore 3
	.cfi_def_cfa 4, 4
	ret
	.cfi_endproc
.LFE55:
	.size	dhcp_delete_msg, .-dhcp_delete_msg
	.section	.text.unlikely.dhcp_delete_msg
.LCOLDE8:
	.section	.text.dhcp_delete_msg
.LHOTE8:
	.section	.text.unlikely.dhcp_inc_pcb_refcount,"ax",@progbits
.LCOLDB9:
	.section	.text.dhcp_inc_pcb_refcount,"ax",@progbits
.LHOTB9:
	.type	dhcp_inc_pcb_refcount, @function
dhcp_inc_pcb_refcount:
.LFB23:
	.loc 1 199 0
	.cfi_startproc
	.loc 1 200 0
	cmpb	$0, dhcp_pcb_refcount
	jne	.L50
	.loc 1 199 0
	pushl	%ebp
	.cfi_def_cfa_offset 8
	.cfi_offset 5, -8
	movl	%esp, %ebp
	.cfi_def_cfa_register 5
	subl	$8, %esp
	.loc 1 204 0
	call	udp_new
.LVL38:
	movl	%eax, %edx
	movl	%eax, dhcp_pcb
	.loc 1 207 0
	movb	$-1, %al
	.loc 1 206 0
	testl	%edx, %edx
	je	.L47
	.loc 1 210 0
	orb	$32, 8(%edx)
	.loc 1 213 0
	pushl	%eax
	pushl	$68
	pushl	$ip_addr_any
	pushl	%edx
	call	udp_bind
.LVL39:
	.loc 1 214 0
	addl	$12, %esp
	pushl	$67
	pushl	$ip_addr_any
	pushl	dhcp_pcb
	call	udp_connect
.LVL40:
	.loc 1 215 0
	addl	$12, %esp
	pushl	$0
	pushl	$dhcp_recv
	pushl	dhcp_pcb
	call	udp_recv
.LVL41:
	.loc 1 218 0
	incb	dhcp_pcb_refcount
	.loc 1 215 0
	addl	$16, %esp
	.loc 1 220 0
	xorl	%eax, %eax
.L47:
	.loc 1 221 0
	leave
	.cfi_restore 5
	.cfi_def_cfa 4, 4
	ret
.L50:
	.loc 1 218 0
	incb	dhcp_pcb_refcount
	.loc 1 220 0
	xorl	%eax, %eax
	.loc 1 221 0
	ret
	.cfi_endproc
.LFE23:
	.size	dhcp_inc_pcb_refcount, .-dhcp_inc_pcb_refcount
	.section	.text.unlikely.dhcp_inc_pcb_refcount
.LCOLDE9:
	.section	.text.dhcp_inc_pcb_refcount
.LHOTE9:
	.section	.rodata.str1.1
.LC10:
	.string	"dhcp_bind: netif != NULL"
.LC11:
	.string	"dhcp_bind: dhcp != NULL"
	.section	.text.unlikely.dhcp_bind,"ax",@progbits
.LCOLDB12:
.LHOTB12:
	.type	dhcp_bind, @function
dhcp_bind:
.LFB40:
	.loc 1 1002 0
	.cfi_startproc
.LVL42:
	pushl	%ebp
	.cfi_def_cfa_offset 8
	.cfi_offset 5, -8
	movl	%esp, %ebp
	.cfi_def_cfa_register 5
	pushl	%esi
	pushl	%ebx
	.cfi_offset 6, -12
	.cfi_offset 3, -16
	movl	%eax, %ebx
	subl	$16, %esp
	.loc 1 1002 0
	movl	%gs:20, %eax
	movl	%eax, -12(%ebp)
	xorl	%eax, %eax
.LVL43:
	.loc 1 1006 0
	testl	%ebx, %ebx
	jne	.L52
	.loc 1 1006 0 discriminator 1
	subl	$12, %esp
	pushl	$.LC10
	jmp	.L88
.L52:
	.loc 1 1007 0
	movl	36(%ebx), %ecx
.LVL44:
	.loc 1 1008 0
	testl	%ecx, %ecx
	jne	.L54
	.loc 1 1008 0 discriminator 1
	subl	$12, %esp
	pushl	$.LC11
.LVL45:
.L88:
	call	bk_printf
.LVL46:
	jmp	.L87
.LVL47:
.L54:
	.loc 1 1014 0
	movl	52(%ecx), %eax
	.loc 1 1012 0
	movw	$0, 32(%ecx)
	.loc 1 1014 0
	cmpl	$-1, %eax
	je	.L56
	.loc 1 1017 0
	addl	$30, %eax
	xorl	%edx, %edx
	movl	$60, %esi
	divl	%esi
.LVL48:
	movl	$65535, %edx
	cmpl	$65535, %eax
	cmova	%edx, %eax
.LVL49:
	.loc 1 1021 0
	movl	$1, %edx
	testl	%eax, %eax
	cmove	%edx, %eax
.LVL50:
	movw	%ax, 34(%ecx)
.LVL51:
.L56:
	.loc 1 1029 0
	movl	56(%ecx), %eax
	cmpl	$-1, %eax
	je	.L59
	.loc 1 1032 0
	addl	$30, %eax
	xorl	%edx, %edx
	movl	$60, %esi
	divl	%esi
.LVL52:
	movl	$65535, %edx
	cmpl	$65535, %eax
	cmova	%edx, %eax
.LVL53:
	.loc 1 1036 0
	movl	$1, %edx
	testl	%eax, %eax
	cmove	%edx, %eax
.LVL54:
	movw	%ax, 24(%ecx)
	.loc 1 1041 0
	movw	%ax, 28(%ecx)
.LVL55:
.L59:
	.loc 1 1044 0
	movl	60(%ecx), %eax
	cmpl	$-1, %eax
	je	.L62
	.loc 1 1046 0
	addl	$30, %eax
	xorl	%edx, %edx
	movl	$60, %esi
	divl	%esi
.LVL56:
	movl	$65535, %edx
	cmpl	$65535, %eax
	cmova	%edx, %eax
.LVL57:
	.loc 1 1050 0
	movl	$1, %edx
	testl	%eax, %eax
	cmove	%edx, %eax
.LVL58:
	movw	%ax, 26(%ecx)
	.loc 1 1055 0
	movw	%ax, 30(%ecx)
.LVL59:
.L62:
	.loc 1 1059 0
	movw	26(%ecx), %ax
	cmpw	%ax, 24(%ecx)
	jb	.L65
	testw	%ax, %ax
	je	.L65
	.loc 1 1060 0
	movw	$0, 24(%ecx)
.L65:
	.loc 1 1063 0
	cmpb	$0, 11(%ecx)
	je	.L66
	.loc 1 1065 0
	movl	44(%ecx), %eax
	jmp	.L86
.L66:
.LBB14:
	.loc 1 1068 0
	movb	40(%ecx), %al
.LVL60:
	.loc 1 1069 0
	testb	%al, %al
	js	.L68
	.loc 1 1070 0
	movl	$255, -20(%ebp)
	jmp	.L67
.L68:
	.loc 1 1072 0
	cmpb	$-64, %al
	sbbl	%eax, %eax
.LVL61:
	andl	$-16711680, %eax
	addl	$16777215, %eax
.LVL62:
.L86:
	movl	%eax, -20(%ebp)
.L67:
.LBE14:
	.loc 1 1078 0
	movl	48(%ecx), %eax
	.loc 1 1080 0
	testl	%eax, %eax
	.loc 1 1078 0
	movl	%eax, -16(%ebp)
	.loc 1 1080 0
	jne	.L70
	.loc 1 1084 0
	movl	40(%ecx), %eax
	andl	-20(%ebp), %eax
	orl	$16777216, %eax
	movl	%eax, -16(%ebp)
.L70:
	.loc 1 1098 0
	movl	%ecx, %eax
	movl	$10, %edx
	call	dhcp_set_state
.LVL63:
	.loc 1 1100 0
	leal	-16(%ebp), %eax
	addl	$40, %ecx
	pushl	%eax
	leal	-20(%ebp), %eax
	pushl	%eax
	pushl	%ecx
	pushl	%ebx
	call	netif_set_addr
.LVL64:
.L87:
	addl	$16, %esp
	.loc 1 1102 0
	movl	-12(%ebp), %eax
	xorl	%gs:20, %eax
	je	.L72
	call	__stack_chk_fail
.LVL65:
.L72:
	leal	-8(%ebp), %esp
	popl	%ebx
	.cfi_restore 3
.LVL66:
	popl	%esi
	.cfi_restore 6
	popl	%ebp
	.cfi_restore 5
	.cfi_def_cfa 4, 4
	ret
	.cfi_endproc
.LFE40:
	.size	dhcp_bind, .-dhcp_bind
.LCOLDE12:
.LHOTE12:
	.section	.rodata.str1.1
.LC13:
	.string	"dhcp_option_trailer: dhcp != NULL"
	.section	.text.unlikely.dhcp_option_trailer,"ax",@progbits
.LCOLDB14:
	.section	.text.dhcp_option_trailer,"ax",@progbits
.LHOTB14:
	.type	dhcp_option_trailer, @function
dhcp_option_trailer:
.LFB56:
	.loc 1 1901 0
	.cfi_startproc
.LVL67:
	pushl	%ebp
	.cfi_def_cfa_offset 8
	.cfi_offset 5, -8
	.loc 1 1902 0
	testl	%eax, %eax
	.loc 1 1901 0
	movl	%esp, %ebp
	.cfi_def_cfa_register 5
	pushl	%ebx
	pushl	%edx
	.cfi_offset 3, -12
	.loc 1 1902 0
	jne	.L90
	.loc 1 1902 0 discriminator 1
	subl	$12, %esp
	pushl	$.LC13
	call	bk_printf
.LVL68:
	addl	$16, %esp
	jmp	.L89
.LVL69:
.L90:
	.loc 1 1905 0
	movzwl	20(%eax), %edx
	movl	16(%eax), %ecx
	leal	1(%edx), %ebx
	movw	%bx, 20(%eax)
	movb	$-1, 240(%ecx,%edx)
.LVL70:
.L92:
.LBB17:
.LBB18:
	.loc 1 1907 0
	movzwl	20(%eax), %edx
	cmpw	$67, %dx
	ja	.L89
	.loc 1 1910 0
	movl	16(%eax), %ecx
	leal	1(%edx), %ebx
	movw	%bx, 20(%eax)
	movb	$0, 240(%ecx,%edx)
	jmp	.L92
.LVL71:
.L89:
.LBE18:
.LBE17:
	.loc 1 1912 0
	movl	-4(%ebp), %ebx
	leave
	.cfi_restore 5
	.cfi_restore 3
	.cfi_def_cfa 4, 4
	ret
	.cfi_endproc
.LFE56:
	.size	dhcp_option_trailer, .-dhcp_option_trailer
	.section	.text.unlikely.dhcp_option_trailer
.LCOLDE14:
	.section	.text.dhcp_option_trailer
.LHOTE14:
	.section	.text.unlikely.dhcp_dec_pcb_refcount,"ax",@progbits
.LCOLDB15:
	.section	.text.dhcp_dec_pcb_refcount,"ax",@progbits
.LHOTB15:
	.type	dhcp_dec_pcb_refcount, @function
dhcp_dec_pcb_refcount:
.LFB24:
	.loc 1 226 0
	.cfi_startproc
	.loc 1 230 0
	decb	dhcp_pcb_refcount
	jne	.L99
	.loc 1 226 0
	pushl	%ebp
	.cfi_def_cfa_offset 8
	.cfi_offset 5, -8
	movl	%esp, %ebp
	.cfi_def_cfa_register 5
	subl	$20, %esp
.LBB21:
.LBB22:
	.loc 1 231 0
	pushl	dhcp_pcb
	call	udp_remove
.LVL72:
	.loc 1 232 0
	movl	$0, dhcp_pcb
	addl	$16, %esp
.LBE22:
.LBE21:
	.loc 1 234 0
	leave
	.cfi_restore 5
	.cfi_def_cfa 4, 4
.L99:
	ret
	.cfi_endproc
.LFE24:
	.size	dhcp_dec_pcb_refcount, .-dhcp_dec_pcb_refcount
	.section	.text.unlikely.dhcp_dec_pcb_refcount
.LCOLDE15:
	.section	.text.dhcp_dec_pcb_refcount
.LHOTE15:
	.section	.text.unlikely.dhcp_handle_ack.isra.4,"ax",@progbits
.LCOLDB16:
.LHOTB16:
	.type	dhcp_handle_ack.isra.4, @function
dhcp_handle_ack.isra.4:
.LFB62:
	.loc 1 569 0
	.cfi_startproc
	pushl	%ebp
	.cfi_def_cfa_offset 8
	.cfi_offset 5, -8
	movl	%esp, %ebp
	.cfi_def_cfa_register 5
	pushl	%ebx
	.cfi_offset 3, -12
	movl	%eax, %ebx
	subl	$20, %esp
	.loc 1 581 0
	movl	$0, 44(%ebx)
	.loc 1 582 0
	movl	$0, 48(%ebx)
	.loc 1 569 0
	movl	%gs:20, %eax
	movl	%eax, -12(%ebp)
	xorl	%eax, %eax
.LVL73:
	.loc 1 588 0
	cmpb	$0, dhcp_rx_options_given+3
	je	.L101
	.loc 1 590 0
	movl	dhcp_rx_options_val+12, %eax
	movl	%eax, 52(%ebx)
.L101:
	.loc 1 593 0
	cmpb	$0, dhcp_rx_options_given+4
	.loc 1 595 0
	movl	dhcp_rx_options_val+16, %eax
	.loc 1 593 0
	jne	.L112
	.loc 1 598 0
	movl	52(%ebx), %eax
	shrl	%eax
.L112:
	.loc 1 602 0
	cmpb	$0, dhcp_rx_options_given+5
	.loc 1 598 0
	movl	%eax, 56(%ebx)
	.loc 1 604 0
	movl	dhcp_rx_options_val+20, %eax
	.loc 1 602 0
	jne	.L113
	.loc 1 607 0
	imull	$7, 52(%ebx), %eax
	shrl	$3, %eax
.L113:
	movl	%eax, 60(%ebx)
	.loc 1 611 0
	movl	4(%ebx), %eax
	.loc 1 620 0
	cmpb	$0, dhcp_rx_options_given+6
	.loc 1 611 0
	movl	16(%eax), %eax
	movl	%eax, 40(%ebx)
	.loc 1 620 0
	je	.L106
	.loc 1 622 0
	subl	$12, %esp
	pushl	dhcp_rx_options_val+24
	call	lwip_htonl
.LVL74:
	.loc 1 623 0
	movb	$1, 11(%ebx)
	.loc 1 622 0
	movl	%eax, 44(%ebx)
	.loc 1 623 0
	addl	$16, %esp
	jmp	.L107
.L106:
	.loc 1 625 0
	movb	$0, 11(%ebx)
.L107:
	.loc 1 629 0
	cmpb	$0, dhcp_rx_options_given+7
	je	.L108
	.loc 1 630 0
	subl	$12, %esp
	pushl	dhcp_rx_options_val+28
	call	lwip_htonl
.LVL75:
	addl	$16, %esp
	movl	%eax, 48(%ebx)
.L108:
.LVL76:
	.loc 1 643 0
	cmpb	$0, dhcp_rx_options_given+8
	je	.L100
.LBB23:
	.loc 1 645 0
	subl	$12, %esp
	pushl	dhcp_rx_options_val+32
	call	lwip_htonl
.LVL77:
	.loc 1 646 0
	popl	%ecx
	popl	%ebx
.LVL78:
	leal	-16(%ebp), %ebx
	.loc 1 645 0
	movl	%eax, -16(%ebp)
	.loc 1 646 0
	pushl	%ebx
	pushl	$0
	call	dns_setserver
.LVL79:
.LBE23:
	.loc 1 643 0
	addl	$16, %esp
	cmpb	$0, dhcp_rx_options_given+9
	je	.L100
.LBB24:
	.loc 1 645 0
	subl	$12, %esp
	pushl	dhcp_rx_options_val+36
	call	lwip_htonl
.LVL80:
	movl	%eax, -16(%ebp)
	.loc 1 646 0
	popl	%eax
	popl	%edx
	pushl	%ebx
	pushl	$1
	call	dns_setserver
.LVL81:
	addl	$16, %esp
.LVL82:
.L100:
.LBE24:
	.loc 1 649 0
	movl	-12(%ebp), %eax
	xorl	%gs:20, %eax
	je	.L110
	call	__stack_chk_fail
.LVL83:
.L110:
	movl	-4(%ebp), %ebx
	leave
	.cfi_restore 5
	.cfi_restore 3
	.cfi_def_cfa 4, 4
	ret
	.cfi_endproc
.LFE62:
	.size	dhcp_handle_ack.isra.4, .-dhcp_handle_ack.isra.4
.LCOLDE16:
.LHOTE16:
	.section	.text.unlikely.dhcp_option_hostname.isra.1,"ax",@progbits
.LCOLDB17:
	.section	.text.dhcp_option_hostname.isra.1,"ax",@progbits
.LHOTB17:
	.type	dhcp_option_hostname.isra.1, @function
dhcp_option_hostname.isra.1:
.LFB59:
	.loc 1 1411 0
	.cfi_startproc
.LVL84:
	.loc 1 1413 0
	testl	%edx, %edx
	je	.L124
	.loc 1 1411 0
	pushl	%ebp
	.cfi_def_cfa_offset 8
	.cfi_offset 5, -8
	movl	%esp, %ebp
	.cfi_def_cfa_register 5
	pushl	%edi
	pushl	%esi
	pushl	%ebx
	pushl	%ecx
	.cfi_offset 7, -12
	.cfi_offset 6, -16
	.cfi_offset 3, -20
	movl	%eax, %ebx
.LBB29:
	.loc 1 1414 0
	orl	$-1, %ecx
	xorl	%eax, %eax
.LVL85:
	movl	%edx, %edi
	repnz scasb
	movl	%ecx, %esi
	notl	%esi
	movl	%esi, %ecx
.LVL86:
	.loc 1 1415 0
	decl	%ecx
.LVL87:
	je	.L114
	movl	%edx, %edi
.LVL88:
.LBB30:
	.loc 1 1422 0
	movzwl	20(%ebx), %edx
.LVL89:
	movl	$65, %eax
	subl	%edx, %eax
.LVL90:
	.loc 1 1424 0
	movl	$12, %edx
	.loc 1 1422 0
	cmpl	%ecx, %eax
	cmovbe	%eax, %ecx
.LVL91:
	.loc 1 1424 0
	movl	%ebx, %eax
.LVL92:
	.loc 1 1422 0
	movl	%ecx, -16(%ebp)
.LVL93:
	.loc 1 1424 0
	movzbl	-16(%ebp), %ecx
.LVL94:
	call	dhcp_option
.LVL95:
	xorl	%eax, %eax
.LVL96:
.L117:
	.loc 1 1425 0
	cmpl	%eax, -16(%ebp)
	je	.L114
.LVL97:
.LBB31:
.LBB32:
	.loc 1 1388 0
	movzwl	20(%ebx), %edx
.LBE32:
.LBE31:
	.loc 1 1426 0
	movb	(%edi,%eax), %cl
.LVL98:
	incl	%eax
.LVL99:
.LBB34:
.LBB33:
	.loc 1 1388 0
	leal	1(%edx), %esi
	movw	%si, 20(%ebx)
	movl	16(%ebx), %esi
	movb	%cl, 240(%esi,%edx)
	jmp	.L117
.LVL100:
.L114:
.LBE33:
.LBE34:
.LBE30:
.LBE29:
	.loc 1 1430 0
	popl	%eax
	popl	%ebx
	.cfi_restore 3
.LVL101:
	popl	%esi
	.cfi_restore 6
	popl	%edi
	.cfi_restore 7
	popl	%ebp
	.cfi_restore 5
	.cfi_def_cfa 4, 4
.L124:
	ret
	.cfi_endproc
.LFE59:
	.size	dhcp_option_hostname.isra.1, .-dhcp_option_hostname.isra.1
	.section	.text.unlikely.dhcp_option_hostname.isra.1
.LCOLDE17:
	.section	.text.dhcp_option_hostname.isra.1
.LHOTE17:
	.section	.text.unlikely.dhcp_discover,"ax",@progbits
.LCOLDB18:
	.section	.text.dhcp_discover,"ax",@progbits
.LHOTB18:
	.type	dhcp_discover, @function
dhcp_discover:
.LFB39:
	.loc 1 946 0
	.cfi_startproc
.LVL102:
	pushl	%ebp
	.cfi_def_cfa_offset 8
	.cfi_offset 5, -8
	.loc 1 953 0
	movl	$6, %edx
	.loc 1 946 0
	movl	%esp, %ebp
	.cfi_def_cfa_register 5
	pushl	%edi
	pushl	%esi
	pushl	%ebx
	.cfi_offset 7, -12
	.cfi_offset 6, -16
	.cfi_offset 3, -20
	movl	%eax, %esi
	subl	$28, %esp
	.loc 1 947 0
	movl	36(%eax), %ebx
.LVL103:
	.loc 1 953 0
	movl	%ebx, %eax
.LVL104:
	.loc 1 952 0
	movl	$0, 40(%ebx)
	.loc 1 953 0
	call	dhcp_set_state
.LVL105:
	.loc 1 955 0
	movl	$1, %ecx
	movl	%ebx, %edx
	movl	%esi, %eax
	call	dhcp_create_msg
.LVL106:
	.loc 1 956 0
	testb	%al, %al
	.loc 1 955 0
	movb	%al, -25(%ebp)
.LVL107:
	.loc 1 956 0
	jne	.L126
	.loc 1 959 0
	movl	$2, %ecx
	movl	$57, %edx
	movl	%ebx, %eax
.LVL108:
	call	dhcp_option
.LVL109:
	.loc 1 960 0
	movzwl	52(%esi), %edx
	movl	%ebx, %eax
	call	dhcp_option_short
.LVL110:
	.loc 1 962 0
	movl	%ebx, %eax
	movl	$4, %ecx
	movl	$55, %edx
	call	dhcp_option
.LVL111:
	xorl	%eax, %eax
.LVL112:
.L127:
.LBB37:
.LBB38:
	.loc 1 1388 0 discriminator 3
	movzwl	20(%ebx), %edx
	movl	16(%ebx), %edi
	incl	%eax
.LVL113:
	leal	1(%edx), %ecx
	movw	%cx, 20(%ebx)
	movb	dhcp_discover_request_options-1(%eax), %cl
.LBE38:
.LBE37:
	.loc 1 963 0 discriminator 3
	cmpl	$4, %eax
.LBB40:
.LBB39:
	.loc 1 1388 0 discriminator 3
	movb	%cl, 240(%edi,%edx)
.LVL114:
.LBE39:
.LBE40:
	.loc 1 963 0 discriminator 3
	jne	.L127
	.loc 1 966 0
	movl	%ebx, %eax
	call	dhcp_option_trailer
.LVL115:
	.loc 1 969 0
	pushl	%eax
	pushl	%eax
	movl	20(%ebx), %eax
	addw	$240, %ax
	movzwl	%ax, %eax
	pushl	%eax
	pushl	12(%ebx)
	call	pbuf_realloc
.LVL116:
	.loc 1 972 0
	popl	%edx
	popl	%ecx
	pushl	$ip_addr_any
	pushl	%esi
	pushl	$67
	pushl	$ip_addr_broadcast
	pushl	12(%ebx)
	pushl	dhcp_pcb
	call	udp_sendto_if_src
.LVL117:
	.loc 1 974 0
	addl	$32, %esp
	movl	%ebx, %eax
	call	dhcp_delete_msg
.LVL118:
.L126:
	.loc 1 979 0
	movb	10(%ebx), %al
	cmpb	$-1, %al
	je	.L128
	.loc 1 980 0
	incl	%eax
	movb	%al, 10(%ebx)
.L128:
	.loc 1 988 0
	movb	10(%ebx), %cl
	movl	$-5536, %eax
	cmpb	$5, %cl
	ja	.L129
	.loc 1 988 0 is_stmt 0 discriminator 1
	movl	$1000, %eax
	sall	%cl, %eax
.L129:
.LVL119:
	.loc 1 989 0 is_stmt 1 discriminator 4
	movzwl	%ax, %eax
	movl	$500, %ecx
	addl	$499, %eax
.LVL120:
	cltd
	idivl	%ecx
.LVL121:
	movw	%ax, 22(%ebx)
	.loc 1 992 0 discriminator 4
	movb	-25(%ebp), %al
	leal	-12(%ebp), %esp
	popl	%ebx
	.cfi_restore 3
.LVL122:
	popl	%esi
	.cfi_restore 6
.LVL123:
	popl	%edi
	.cfi_restore 7
	popl	%ebp
	.cfi_restore 5
	.cfi_def_cfa 4, 4
.LVL124:
	ret
	.cfi_endproc
.LFE39:
	.size	dhcp_discover, .-dhcp_discover
	.section	.text.unlikely.dhcp_discover
.LCOLDE18:
	.section	.text.dhcp_discover
.LHOTE18:
	.section	.text.unlikely.dhcp_reboot,"ax",@progbits
.LCOLDB19:
	.section	.text.dhcp_reboot,"ax",@progbits
.LHOTB19:
	.type	dhcp_reboot, @function
dhcp_reboot:
.LFB43:
	.loc 1 1214 0
	.cfi_startproc
.LVL125:
	pushl	%ebp
	.cfi_def_cfa_offset 8
	.cfi_offset 5, -8
	.loc 1 1220 0
	movl	$3, %edx
	.loc 1 1214 0
	movl	%esp, %ebp
	.cfi_def_cfa_register 5
	pushl	%edi
	pushl	%esi
	pushl	%ebx
	.cfi_offset 7, -12
	.cfi_offset 6, -16
	.cfi_offset 3, -20
	movl	%eax, %esi
	subl	$28, %esp
	.loc 1 1215 0
	movl	36(%eax), %ebx
.LVL126:
	.loc 1 1220 0
	movl	%ebx, %eax
.LVL127:
	call	dhcp_set_state
.LVL128:
	.loc 1 1223 0
	movl	$3, %ecx
	movl	%ebx, %edx
	movl	%esi, %eax
	call	dhcp_create_msg
.LVL129:
	.loc 1 1224 0
	testb	%al, %al
	.loc 1 1223 0
	movb	%al, -25(%ebp)
.LVL130:
	.loc 1 1224 0
	jne	.L137
	.loc 1 1225 0
	movl	$2, %ecx
	movl	$57, %edx
	movl	%ebx, %eax
.LVL131:
	call	dhcp_option
.LVL132:
	.loc 1 1226 0
	movl	$576, %edx
	movl	%ebx, %eax
	call	dhcp_option_short
.LVL133:
	.loc 1 1228 0
	movl	$4, %ecx
	movl	$50, %edx
	movl	%ebx, %eax
	call	dhcp_option
.LVL134:
	.loc 1 1229 0
	subl	$12, %esp
	pushl	40(%ebx)
	call	lwip_htonl
.LVL135:
	movl	%eax, %edx
	movl	%ebx, %eax
	call	dhcp_option_long
.LVL136:
	.loc 1 1231 0
	movl	%ebx, %eax
	movl	$4, %ecx
	movl	$55, %edx
	call	dhcp_option
.LVL137:
	addl	$16, %esp
	xorl	%eax, %eax
.LVL138:
.L138:
.LBB43:
.LBB44:
	.loc 1 1388 0 discriminator 3
	movzwl	20(%ebx), %edx
	movl	16(%ebx), %edi
	incl	%eax
.LVL139:
	leal	1(%edx), %ecx
	movw	%cx, 20(%ebx)
	movb	dhcp_discover_request_options-1(%eax), %cl
.LBE44:
.LBE43:
	.loc 1 1232 0 discriminator 3
	cmpl	$4, %eax
.LBB46:
.LBB45:
	.loc 1 1388 0 discriminator 3
	movb	%cl, 240(%edi,%edx)
.LVL140:
.LBE45:
.LBE46:
	.loc 1 1232 0 discriminator 3
	jne	.L138
	.loc 1 1236 0
	movl	%ebx, %eax
	call	dhcp_option_trailer
.LVL141:
	.loc 1 1238 0
	pushl	%eax
	pushl	%eax
	movl	20(%ebx), %eax
	addw	$240, %ax
	movzwl	%ax, %eax
	pushl	%eax
	pushl	12(%ebx)
	call	pbuf_realloc
.LVL142:
	.loc 1 1241 0
	movl	%esi, (%esp)
	pushl	$67
	pushl	$ip_addr_broadcast
	pushl	12(%ebx)
	pushl	dhcp_pcb
	call	udp_sendto_if
.LVL143:
	.loc 1 1242 0
	addl	$32, %esp
	movl	%ebx, %eax
	call	dhcp_delete_msg
.LVL144:
.L137:
	.loc 1 1247 0
	movb	10(%ebx), %al
	cmpb	$-1, %al
	je	.L139
	.loc 1 1248 0
	incl	%eax
	movb	%al, 10(%ebx)
.L139:
	.loc 1 1250 0
	movb	10(%ebx), %dl
	movl	$10000, %eax
	cmpb	$9, %dl
	ja	.L140
	.loc 1 1250 0 is_stmt 0 discriminator 1
	movzbl	%dl, %eax
	imulw	$1000, %ax, %ax
.L140:
.LVL145:
	.loc 1 1251 0 is_stmt 1 discriminator 4
	movzwl	%ax, %eax
	movl	$500, %ecx
	addl	$499, %eax
.LVL146:
	cltd
	idivl	%ecx
.LVL147:
	movw	%ax, 22(%ebx)
	.loc 1 1254 0 discriminator 4
	movb	-25(%ebp), %al
	leal	-12(%ebp), %esp
	popl	%ebx
	.cfi_restore 3
.LVL148:
	popl	%esi
	.cfi_restore 6
.LVL149:
	popl	%edi
	.cfi_restore 7
	popl	%ebp
	.cfi_restore 5
	.cfi_def_cfa 4, 4
.LVL150:
	ret
	.cfi_endproc
.LFE43:
	.size	dhcp_reboot, .-dhcp_reboot
	.section	.text.unlikely.dhcp_reboot
.LCOLDE19:
	.section	.text.dhcp_reboot
.LHOTE19:
	.section	.text.unlikely.dhcp_select,"ax",@progbits
.LCOLDB20:
	.section	.text.dhcp_select,"ax",@progbits
.LHOTB20:
	.type	dhcp_select, @function
dhcp_select:
.LFB27:
	.loc 1 337 0
	.cfi_startproc
.LVL151:
	pushl	%ebp
	.cfi_def_cfa_offset 8
	.cfi_offset 5, -8
	.loc 1 344 0
	movl	$1, %edx
	.loc 1 337 0
	movl	%esp, %ebp
	.cfi_def_cfa_register 5
	pushl	%edi
	pushl	%esi
	pushl	%ebx
	.cfi_offset 7, -12
	.cfi_offset 6, -16
	.cfi_offset 3, -20
	movl	%eax, %esi
	subl	$28, %esp
	.loc 1 338 0
	movl	36(%eax), %ebx
.LVL152:
	.loc 1 344 0
	movl	%ebx, %eax
.LVL153:
	call	dhcp_set_state
.LVL154:
	.loc 1 347 0
	movl	$3, %ecx
	movl	%ebx, %edx
	movl	%esi, %eax
	call	dhcp_create_msg
.LVL155:
	.loc 1 348 0
	testb	%al, %al
	.loc 1 347 0
	movb	%al, -25(%ebp)
.LVL156:
	.loc 1 348 0
	jne	.L148
	.loc 1 349 0
	movl	$2, %ecx
	movl	$57, %edx
	movl	%ebx, %eax
.LVL157:
	call	dhcp_option
.LVL158:
	.loc 1 350 0
	movzwl	52(%esi), %edx
	movl	%ebx, %eax
	call	dhcp_option_short
.LVL159:
	.loc 1 353 0
	movl	$4, %ecx
	movl	$50, %edx
	movl	%ebx, %eax
	call	dhcp_option
.LVL160:
	.loc 1 354 0
	subl	$12, %esp
	pushl	40(%ebx)
	call	lwip_htonl
.LVL161:
	movl	%eax, %edx
	movl	%ebx, %eax
	call	dhcp_option_long
.LVL162:
	.loc 1 356 0
	movl	$4, %ecx
	movl	$54, %edx
	movl	%ebx, %eax
	call	dhcp_option
.LVL163:
	.loc 1 357 0
	popl	%edi
	pushl	36(%ebx)
	call	lwip_htonl
.LVL164:
	movl	%eax, %edx
	movl	%ebx, %eax
	call	dhcp_option_long
.LVL165:
	.loc 1 359 0
	movl	%ebx, %eax
	movl	$4, %ecx
	movl	$55, %edx
	call	dhcp_option
.LVL166:
	addl	$16, %esp
	xorl	%eax, %eax
.LVL167:
.L149:
.LBB49:
.LBB50:
	.loc 1 1388 0 discriminator 3
	movzwl	20(%ebx), %edx
	movl	16(%ebx), %edi
	incl	%eax
.LVL168:
	leal	1(%edx), %ecx
	movw	%cx, 20(%ebx)
	movb	dhcp_discover_request_options-1(%eax), %cl
.LBE50:
.LBE49:
	.loc 1 360 0 discriminator 3
	cmpl	$4, %eax
.LBB52:
.LBB51:
	.loc 1 1388 0 discriminator 3
	movb	%cl, 240(%edi,%edx)
.LVL169:
.LBE51:
.LBE52:
	.loc 1 360 0 discriminator 3
	jne	.L149
	.loc 1 365 0
	movl	48(%esi), %edx
	movl	%ebx, %eax
	call	dhcp_option_hostname.isra.1
.LVL170:
	.loc 1 368 0
	movl	%ebx, %eax
	call	dhcp_option_trailer
.LVL171:
	.loc 1 370 0
	pushl	%eax
	pushl	%eax
	movl	20(%ebx), %eax
	addw	$240, %ax
	movzwl	%ax, %eax
	pushl	%eax
	pushl	12(%ebx)
	call	pbuf_realloc
.LVL172:
	.loc 1 373 0
	popl	%edx
	popl	%ecx
	pushl	$ip_addr_any
	pushl	%esi
	pushl	$67
	pushl	$ip_addr_broadcast
	pushl	12(%ebx)
	pushl	dhcp_pcb
	call	udp_sendto_if_src
.LVL173:
	.loc 1 374 0
	addl	$32, %esp
	movl	%ebx, %eax
	call	dhcp_delete_msg
.LVL174:
.L148:
	.loc 1 379 0
	movb	10(%ebx), %al
	cmpb	$-1, %al
	je	.L150
	.loc 1 380 0
	incl	%eax
	movb	%al, 10(%ebx)
.L150:
	.loc 1 382 0
	movb	10(%ebx), %cl
	movl	$-5536, %eax
	cmpb	$5, %cl
	ja	.L151
	.loc 1 382 0 is_stmt 0 discriminator 1
	movl	$1000, %eax
	sall	%cl, %eax
.L151:
.LVL175:
	.loc 1 383 0 is_stmt 1 discriminator 4
	movzwl	%ax, %eax
	movl	$500, %ecx
	addl	$499, %eax
.LVL176:
	cltd
	idivl	%ecx
.LVL177:
	movw	%ax, 22(%ebx)
	.loc 1 386 0 discriminator 4
	movb	-25(%ebp), %al
	leal	-12(%ebp), %esp
	popl	%ebx
	.cfi_restore 3
.LVL178:
	popl	%esi
	.cfi_restore 6
.LVL179:
	popl	%edi
	.cfi_restore 7
	popl	%ebp
	.cfi_restore 5
	.cfi_def_cfa 4, 4
.LVL180:
	ret
	.cfi_endproc
.LFE27:
	.size	dhcp_select, .-dhcp_select
	.section	.text.unlikely.dhcp_select
.LCOLDE20:
	.section	.text.dhcp_select
.LHOTE20:
	.section	.rodata.str1.1
.LC21:
	.string	"len == 4"
.LC22:
	.string	"len >= decode_len"
.LC23:
	.string	"len %% 4 == 0"
.LC24:
	.string	"len == 1"
.LC25:
	.string	"decode_len %% 4 == 0"
.LC26:
	.string	"invalid decode_len"
	.section	.text.unlikely.dhcp_recv,"ax",@progbits
.LCOLDB27:
	.section	.text.dhcp_recv,"ax",@progbits
.LHOTB27:
	.type	dhcp_recv, @function
dhcp_recv:
.LFB53:
	.loc 1 1659 0
	.cfi_startproc
.LVL181:
	pushl	%ebp
	.cfi_def_cfa_offset 8
	.cfi_offset 5, -8
	movl	%esp, %ebp
	.cfi_def_cfa_register 5
	pushl	%edi
	pushl	%esi
	pushl	%ebx
	subl	$60, %esp
	.cfi_offset 7, -12
	.cfi_offset 6, -16
	.cfi_offset 3, -20
	.loc 1 1659 0
	movl	16(%ebp), %eax
	.loc 1 1660 0
	movl	ip_data+4, %ebx
.LVL182:
	.loc 1 1659 0
	movl	%eax, -52(%ebp)
	movl	%gs:20, %eax
	movl	%eax, -28(%ebp)
	xorl	%eax, %eax
	.loc 1 1661 0
	movl	36(%ebx), %eax
	.loc 1 1669 0
	testl	%eax, %eax
	.loc 1 1661 0
	movl	%eax, -44(%ebp)
.LVL183:
	.loc 1 1669 0
	je	.L159
	.loc 1 1669 0 discriminator 1
	cmpb	$0, 8(%eax)
	je	.L208
	.loc 1 1686 0
	movl	-52(%ebp), %eax
.LVL184:
	cmpw	$43, 10(%eax)
	jbe	.L208
	.loc 1 1662 0
	movl	4(%eax), %edx
	.loc 1 1691 0
	cmpb	$2, (%edx)
	jne	.L208
	.loc 1 1696 0 discriminator 1
	movb	54(%ebx), %al
	movb	%al, -46(%ebp)
	xorl	%eax, %eax
.L161:
.LVL185:
	cmpb	$5, %al
	ja	.L226
	cmpb	%al, -46(%ebp)
	jbe	.L226
	.loc 1 1697 0
	movb	28(%edx,%eax), %cl
	cmpb	%cl, 55(%ebx,%eax)
	jne	.L208
.LVL186:
	incl	%eax
.LVL187:
	jmp	.L161
.LVL188:
.L226:
	.loc 1 1705 0
	subl	$12, %esp
	pushl	4(%edx)
	call	lwip_htonl
.LVL189:
	movl	-44(%ebp), %esi
	addl	$16, %esp
	cmpl	(%esi), %eax
	jne	.L208
.LVL190:
.LBB62:
.LBB63:
	.loc 1 1456 0
	movl	$dhcp_rx_options_given, %edx
	xorl	%eax, %eax
	movl	$10, %ecx
	movl	%edx, %edi
	rep stosb
	.loc 1 1458 0
	movl	-52(%ebp), %eax
	cmpw	$43, 10(%eax)
	jbe	.L208
	.loc 1 1461 0
	movl	4(%eax), %eax
	.loc 1 1453 0
	movl	$0, -64(%ebp)
	.loc 1 1470 0
	movl	$240, %ecx
	.loc 1 1461 0
	movl	%eax, 4(%esi)
.LVL191:
	.loc 1 1472 0
	movl	-52(%ebp), %eax
	movl	8(%eax), %eax
	movw	%ax, -46(%ebp)
.LVL192:
.L164:
	.loc 1 1470 0
	movl	-52(%ebp), %esi
.LVL193:
.L165:
	.loc 1 1475 0
	movw	10(%esi), %ax
	cmpw	%cx, %ax
	ja	.L275
.LVL194:
	.loc 1 1478 0
	movl	(%esi), %esi
.LVL195:
	.loc 1 1476 0
	subl	%eax, %ecx
.LVL196:
	.loc 1 1477 0
	subw	%ax, -46(%ebp)
.LVL197:
	.loc 1 1475 0
	testl	%esi, %esi
	jne	.L165
	jmp	.L208
.LVL198:
.L211:
	.loc 1 1487 0
	movl	-60(%ebp), %edi
	movzwl	%cx, %eax
	movb	(%edi,%eax), %dl
	cmpb	$-1, %dl
	je	.L203
	cmpw	-46(%ebp), %cx
	jnb	.L203
.LVL199:
.LBB64:
	.loc 1 1492 0
	leal	2(%ecx), %edi
	movw	%di, -48(%ebp)
.LVL200:
	.loc 1 1494 0
	leal	1(%eax), %edi
.LVL201:
	movl	%edi, -56(%ebp)
	movzwl	10(%esi), %edi
	cmpl	%edi, -56(%ebp)
	jge	.L168
	.loc 1 1495 0
	movl	-60(%ebp), %edi
	movzbl	1(%edi,%eax), %eax
.LVL202:
.L169:
	.loc 1 1501 0
	cmpb	$51, %dl
	je	.L179
	ja	.L215
	cmpb	$1, %dl
	je	.L173
	jnb	.L279
.L171:
.LVL203:
	.loc 1 1507 0
	decl	%ecx
.LVL204:
	.loc 1 1491 0
	orl	$-1, %edi
	.loc 1 1505 0
	xorl	%edx, %edx
.LVL205:
	xorl	%eax, %eax
.LVL206:
.L172:
	.loc 1 1566 0
	testb	%dl, %dl
	.loc 1 1565 0
	leal	2(%ecx,%eax), %ecx
.LVL207:
	.loc 1 1566 0
	je	.L186
.LBB65:
	.loc 1 1567 0
	movl	$0, -32(%ebp)
.LVL208:
.L187:
	.loc 1 1571 0
	cmpb	$0, dhcp_rx_options_given(%edi)
	je	.L280
.LVL209:
.L186:
.LBE65:
	.loc 1 1595 0
	movw	10(%esi), %ax
	cmpw	%cx, %ax
	ja	.L211
.LVL210:
	.loc 1 1597 0
	subw	%ax, -46(%ebp)
.LVL211:
	.loc 1 1596 0
	subl	%eax, %ecx
.LVL212:
	.loc 1 1598 0
	cmpw	-46(%ebp), %cx
	jnb	.L203
	cmpw	$0, -46(%ebp)
	je	.L203
	.loc 1 1599 0
	movl	(%esi), %esi
.LVL213:
.L275:
	.loc 1 1601 0
	movl	4(%esi), %eax
	movl	%eax, -60(%ebp)
.LVL214:
	jmp	.L211
.LVL215:
.L203:
.LBE64:
	.loc 1 1609 0
	cmpb	$0, dhcp_rx_options_given
	jne	.L199
	jmp	.L200
.LVL216:
.L168:
.LBB68:
	.loc 1 1497 0
	movl	(%esi), %eax
	testl	%eax, %eax
	je	.L170
	movl	4(%eax), %eax
	movzbl	(%eax), %eax
	jmp	.L169
.LVL217:
.L199:
.LBE68:
.LBB69:
	.loc 1 1610 0
	movl	dhcp_rx_options_val, %eax
.LVL218:
	.loc 1 1611 0
	movb	$0, dhcp_rx_options_given
	.loc 1 1612 0
	cmpl	$1, %eax
	je	.L204
	.loc 1 1615 0
	cmpl	$2, %eax
	jne	.L281
.LVL219:
.L205:
.LBE69:
	.loc 1 1646 0
	movl	$0, -64(%ebp)
	.loc 1 1648 0
	movw	$108, -46(%ebp)
.LVL220:
	.loc 1 1647 0
	movl	$44, %ecx
	jmp	.L164
.LVL221:
.L281:
.LBB70:
	.loc 1 1618 0
	cmpl	$3, %eax
	jne	.L200
	jmp	.L282
.LVL222:
.L280:
.LBE70:
.LBB71:
.LBB66:
	.loc 1 1572 0
	movw	$4, -56(%ebp)
	cmpb	$3, %dl
	movzbl	%dl, %eax
	cmova	-56(%ebp), %ax
	movl	%ecx, -72(%ebp)
	movb	%dl, -65(%ebp)
	movw	%ax, -56(%ebp)
.LVL223:
	.loc 1 1573 0
	movzwl	-48(%ebp), %eax
.LVL224:
	pushl	%eax
	movzwl	-56(%ebp), %eax
	pushl	%eax
	leal	-32(%ebp), %eax
	pushl	%eax
	pushl	%esi
	call	pbuf_copy_partial
.LVL225:
	addl	$16, %esp
	cmpw	%ax, -56(%ebp)
	je	.L283
.LVL226:
.L208:
.LBE66:
.LBE71:
.LBE63:
.LBE62:
	.loc 1 1769 0
	movl	-44(%ebp), %eax
	movl	$0, 4(%eax)
.L159:
	.loc 1 1771 0
	subl	$12, %esp
	pushl	-52(%ebp)
	call	pbuf_free
.LVL227:
	.loc 1 1772 0
	movl	-28(%ebp), %eax
	xorl	%gs:20, %eax
	je	.L218
	call	__stack_chk_fail
.LVL228:
.L200:
.LBB76:
.LBB74:
	.loc 1 1645 0
	cmpl	$0, -64(%ebp)
	jne	.L205
.LVL229:
.LBE74:
.LBE76:
	.loc 1 1719 0
	cmpb	$0, dhcp_rx_options_given+1
	je	.L208
	.loc 1 1725 0
	movl	dhcp_rx_options_val+4, %eax
.LVL230:
	.loc 1 1727 0
	cmpb	$5, %al
	jne	.L206
	.loc 1 1730 0
	movl	-44(%ebp), %eax
.LVL231:
	movb	9(%eax), %al
	cmpb	$1, %al
	je	.L276
	.loc 1 1746 0
	subl	$3, %eax
	cmpb	$2, %al
	ja	.L208
.L276:
	.loc 1 1748 0
	movl	36(%ebx), %eax
	call	dhcp_handle_ack.isra.4
.LVL232:
	.loc 1 1749 0
	movl	%ebx, %eax
	call	dhcp_bind
.LVL233:
	jmp	.L208
.LVL234:
.L206:
	.loc 1 1753 0
	cmpb	$6, %al
	jne	.L209
	.loc 1 1754 0 discriminator 1
	movl	-44(%ebp), %eax
.LVL235:
	movb	9(%eax), %al
	.loc 1 1755 0 discriminator 1
	leal	-3(%eax), %edx
	cmpb	$2, %dl
	jbe	.L227
	decb	%al
	jne	.L208
.L227:
.LVL236:
.LBB77:
.LBB78:
	.loc 1 257 0
	movl	36(%ebx), %eax
	movl	$12, %edx
	call	dhcp_set_state
.LVL237:
	.loc 1 259 0
	pushl	$ip_addr_any
	pushl	$ip_addr_any
	pushl	$ip_addr_any
	pushl	%ebx
	call	netif_set_addr
.LVL238:
	.loc 1 261 0
	movl	%ebx, %eax
	call	dhcp_discover
.LVL239:
	jmp	.L277
.LVL240:
.L209:
.LBE78:
.LBE77:
	.loc 1 1760 0
	cmpb	$2, %al
	jne	.L208
	.loc 1 1760 0 is_stmt 0 discriminator 1
	movl	-44(%ebp), %eax
.LVL241:
	cmpb	$6, 9(%eax)
	jne	.L208
.LBB79:
.LBB80:
	.loc 1 311 0 is_stmt 1
	cmpb	$0, dhcp_rx_options_given+2
.LBE80:
.LBE79:
	.loc 1 1762 0
	movw	$0, 22(%eax)
.LVL242:
.LBB82:
.LBB81:
	.loc 1 306 0
	movl	36(%ebx), %esi
.LVL243:
	.loc 1 311 0
	je	.L208
	.loc 1 312 0
	subl	$12, %esp
	pushl	dhcp_rx_options_val+8
	call	lwip_htonl
.LVL244:
	movl	%eax, 36(%esi)
	.loc 1 316 0
	movl	4(%esi), %eax
	movl	16(%eax), %eax
	movl	%eax, 40(%esi)
	.loc 1 320 0
	movl	%ebx, %eax
	call	dhcp_select
.LVL245:
.L277:
	addl	$16, %esp
	jmp	.L208
.LVL246:
.L282:
.LBE81:
.LBE82:
.LBB83:
.LBB75:
.LBB72:
	.loc 1 1619 0
	movl	$1, -64(%ebp)
.LVL247:
.L204:
.LBE72:
	.loc 1 1643 0
	movw	$236, -46(%ebp)
.LVL248:
	.loc 1 1642 0
	movl	$108, %ecx
	jmp	.L164
.LVL249:
.L179:
.LBB73:
	.loc 1 1527 0
	cmpb	$4, %al
	je	.L284
.LVL250:
.L174:
	.loc 1 1510 0
	subl	$12, %esp
	pushl	$.LC21
.LVL251:
	jmp	.L278
.LVL252:
.L284:
	.loc 1 1527 0
	movb	$4, %dl
.LVL253:
	.loc 1 1528 0
	movl	$3, %edi
	jmp	.L172
.LVL254:
.L283:
.LBB67:
	.loc 1 1576 0
	movb	-65(%ebp), %dl
	movl	-72(%ebp), %ecx
	cmpb	$4, %dl
	jbe	.L191
	.loc 1 1578 0
	testb	$3, %dl
	je	.L192
	subl	$12, %esp
	pushl	$.LC25
	jmp	.L278
.L192:
	.loc 1 1580 0
	subl	$12, %esp
	pushl	-32(%ebp)
	movb	%dl, -65(%ebp)
.LVL255:
	movl	%ecx, -56(%ebp)
.LVL256:
	.loc 1 1579 0
	movb	$1, dhcp_rx_options_given(%edi)
	.loc 1 1580 0
	call	lwip_htonl
.LVL257:
	.loc 1 1581 0
	movb	-65(%ebp), %dl
	.loc 1 1580 0
	movl	%eax, dhcp_rx_options_val(,%edi,4)
	.loc 1 1583 0
	addl	$16, %esp
	.loc 1 1582 0
	addw	$4, -48(%ebp)
.LVL258:
	.loc 1 1583 0
	incl	%edi
.LVL259:
	movl	-56(%ebp), %ecx
	.loc 1 1581 0
	subl	$4, %edx
.LVL260:
	jmp	.L187
.LVL261:
.L191:
	.loc 1 1585 0
	jne	.L193
	.loc 1 1586 0
	subl	$12, %esp
	pushl	-32(%ebp)
	movl	%ecx, -56(%ebp)
.LVL262:
	call	lwip_htonl
.LVL263:
	addl	$16, %esp
	movl	%eax, -32(%ebp)
	movl	-56(%ebp), %ecx
	jmp	.L194
.LVL264:
.L193:
	.loc 1 1588 0
	decb	%dl
.LVL265:
	je	.L195
	subl	$12, %esp
	pushl	$.LC26
.LVL266:
.L278:
	call	bk_printf
.LVL267:
	jmp	.L277
.LVL268:
.L195:
	.loc 1 1589 0
	movzbl	-32(%ebp), %eax
	movl	%eax, -32(%ebp)
.LVL269:
.L194:
	.loc 1 1592 0
	movl	-32(%ebp), %eax
	.loc 1 1591 0
	movb	$1, dhcp_rx_options_given(%edi)
	.loc 1 1592 0
	movl	%eax, dhcp_rx_options_val(,%edi,4)
	jmp	.L186
.LVL270:
.L173:
.LBE67:
	.loc 1 1510 0
	cmpb	$4, %al
	jne	.L174
	movb	$4, %dl
.LVL271:
	.loc 1 1511 0
	movl	$6, %edi
	jmp	.L172
.LVL272:
.L279:
	.loc 1 1501 0
	cmpb	$3, %dl
	jne	.L285
.LVL273:
	.loc 1 1515 0
	cmpb	$3, %al
	ja	.L220
.LVL274:
.L176:
	subl	$12, %esp
	pushl	$.LC22
.LVL275:
	jmp	.L278
.LVL276:
.L220:
	.loc 1 1516 0
	movl	$7, %edi
	.loc 1 1514 0
	movb	$4, %dl
.LVL277:
	jmp	.L172
.LVL278:
.L285:
	.loc 1 1501 0
	cmpb	$6, %dl
	jne	.L214
.L177:
	.loc 1 1520 0
	testb	$3, %al
	je	.L178
	subl	$12, %esp
	pushl	$.LC23
	jmp	.L278
.L178:
	.loc 1 1522 0
	cmpb	$8, %al
	movb	$8, %dl
.LVL279:
	cmovbe	%eax, %edx
.LVL280:
	.loc 1 1523 0
	cmpb	%dl, %al
	jb	.L176
	.loc 1 1524 0
	movl	$8, %edi
	jmp	.L172
.LVL281:
.L170:
	.loc 1 1501 0
	cmpb	$51, %dl
	je	.L174
	ja	.L217
	cmpb	$1, %dl
	je	.L174
	jb	.L171
	cmpb	$3, %dl
	je	.L176
	.loc 1 1497 0
	xorl	%eax, %eax
	.loc 1 1501 0
	cmpb	$6, %dl
	je	.L177
.LVL282:
.L224:
	.loc 1 1497 0
	xorl	%eax, %eax
.LVL283:
.L214:
	.loc 1 1565 0
	movl	-48(%ebp), %ecx
	addl	%eax, %ecx
	jmp	.L186
.LVL284:
.L215:
	.loc 1 1501 0
	cmpb	$54, %dl
	jne	.L286
	.loc 1 1549 0
	cmpb	$4, %al
	jne	.L174
	movb	$4, %dl
.LVL285:
	.loc 1 1550 0
	movl	$2, %edi
	jmp	.L172
.LVL286:
.L286:
	.loc 1 1501 0
	ja	.L216
	cmpb	$52, %dl
	jne	.L287
	.loc 1 1541 0
	cmpb	$1, %al
	je	.L221
.L181:
	subl	$12, %esp
	pushl	$.LC24
	jmp	.L278
.L221:
	movb	$1, %dl
.LVL287:
	.loc 1 1542 0
	xorl	%edi, %edi
	jmp	.L172
.LVL288:
.L287:
	.loc 1 1501 0
	cmpb	$53, %dl
	jne	.L214
	.loc 1 1545 0
	cmpb	$1, %al
	jne	.L181
	movb	$1, %dl
.LVL289:
	.loc 1 1546 0
	movl	$1, %edi
	jmp	.L172
.LVL290:
.L216:
	.loc 1 1501 0
	cmpb	$58, %dl
	jne	.L288
	.loc 1 1553 0
	cmpb	$4, %al
	jne	.L174
	movb	$4, %dl
.LVL291:
	.loc 1 1554 0
	movl	$4, %edi
	jmp	.L172
.LVL292:
.L288:
	.loc 1 1501 0
	cmpb	$59, %dl
	jne	.L214
	.loc 1 1557 0
	cmpb	$4, %al
	jne	.L174
	movb	$4, %dl
.LVL293:
	.loc 1 1558 0
	movl	$5, %edi
	jmp	.L172
.LVL294:
.L217:
	.loc 1 1501 0
	cmpb	$54, %dl
	je	.L174
	jb	.L181
	subl	$58, %edx
.LVL295:
	cmpb	$1, %dl
	jbe	.L174
	jmp	.L224
.LVL296:
.L218:
.LBE73:
.LBE75:
.LBE83:
	.loc 1 1772 0
	leal	-12(%ebp), %esp
	popl	%ebx
	.cfi_restore 3
.LVL297:
	popl	%esi
	.cfi_restore 6
	popl	%edi
	.cfi_restore 7
	popl	%ebp
	.cfi_restore 5
	.cfi_def_cfa 4, 4
	ret
	.cfi_endproc
.LFE53:
	.size	dhcp_recv, .-dhcp_recv
	.section	.text.unlikely.dhcp_recv
.LCOLDE27:
	.section	.text.dhcp_recv
.LHOTE27:
	.section	.text.unlikely.dhcp_set_struct,"ax",@progbits
.LCOLDB28:
	.section	.text.dhcp_set_struct,"ax",@progbits
.LHOTB28:
	.globl	dhcp_set_struct
	.type	dhcp_set_struct, @function
dhcp_set_struct:
.LFB34:
	.loc 1 661 0
	.cfi_startproc
.LVL298:
	pushl	%ebp
	.cfi_def_cfa_offset 8
	.cfi_offset 5, -8
	.loc 1 667 0
	xorl	%eax, %eax
	movl	$16, %ecx
	.loc 1 661 0
	movl	%esp, %ebp
	.cfi_def_cfa_register 5
	pushl	%edi
	.cfi_offset 7, -12
	.loc 1 661 0
	movl	12(%ebp), %edx
	.loc 1 667 0
	movl	%edx, %edi
	rep stosl
	.loc 1 669 0
	movl	8(%ebp), %eax
	movl	%edx, 36(%eax)
	.loc 1 670 0
	popl	%edi
	.cfi_restore 7
	popl	%ebp
	.cfi_restore 5
	.cfi_def_cfa 4, 4
	ret
	.cfi_endproc
.LFE34:
	.size	dhcp_set_struct, .-dhcp_set_struct
	.section	.text.unlikely.dhcp_set_struct
.LCOLDE28:
	.section	.text.dhcp_set_struct
.LHOTE28:
	.section	.text.unlikely.dhcp_cleanup,"ax",@progbits
.LCOLDB29:
	.section	.text.dhcp_cleanup,"ax",@progbits
.LHOTB29:
	.globl	dhcp_cleanup
	.type	dhcp_cleanup, @function
dhcp_cleanup:
.LFB35:
	.loc 1 682 0
	.cfi_startproc
.LVL299:
	pushl	%ebp
	.cfi_def_cfa_offset 8
	.cfi_offset 5, -8
	movl	%esp, %ebp
	.cfi_def_cfa_register 5
	pushl	%ebx
	pushl	%eax
	.cfi_offset 3, -12
	.loc 1 682 0
	movl	8(%ebp), %ebx
	.loc 1 685 0
	movl	36(%ebx), %eax
	testl	%eax, %eax
	je	.L291
	.loc 1 686 0
	subl	$12, %esp
	pushl	%eax
	call	mem_free
.LVL300:
	.loc 1 687 0
	movl	$0, 36(%ebx)
	addl	$16, %esp
.L291:
	.loc 1 689 0
	movl	-4(%ebp), %ebx
	leave
	.cfi_restore 5
	.cfi_restore 3
	.cfi_def_cfa 4, 4
	ret
	.cfi_endproc
.LFE35:
	.size	dhcp_cleanup, .-dhcp_cleanup
	.section	.text.unlikely.dhcp_cleanup
.LCOLDE29:
	.section	.text.dhcp_cleanup
.LHOTE29:
	.section	.rodata.str1.1
.LC30:
	.string	"netif != NULL"
	.section	.text.unlikely.dhcp_inform,"ax",@progbits
.LCOLDB31:
	.section	.text.dhcp_inform,"ax",@progbits
.LHOTB31:
	.globl	dhcp_inform
	.type	dhcp_inform, @function
dhcp_inform:
.LFB37:
	.loc 1 787 0
	.cfi_startproc
.LVL301:
	pushl	%ebp
	.cfi_def_cfa_offset 8
	.cfi_offset 5, -8
	movl	%esp, %ebp
	.cfi_def_cfa_register 5
	pushl	%edi
	pushl	%esi
	pushl	%ebx
	subl	$92, %esp
	.cfi_offset 7, -12
	.cfi_offset 6, -16
	.cfi_offset 3, -20
	.loc 1 787 0
	movl	8(%ebp), %esi
	movl	%gs:20, %eax
	movl	%eax, -28(%ebp)
	xorl	%eax, %eax
.LVL302:
	.loc 1 791 0
	testl	%esi, %esi
	jne	.L298
	.loc 1 791 0 discriminator 1
	subl	$12, %esp
	pushl	$.LC30
	call	bk_printf
.LVL303:
	addl	$16, %esp
	jmp	.L297
.L298:
	.loc 1 793 0
	call	dhcp_inc_pcb_refcount
.LVL304:
	testb	%al, %al
	jne	.L297
	.loc 1 797 0
	leal	-92(%ebp), %ebx
	xorl	%eax, %eax
	movl	$16, %ecx
	.loc 1 798 0
	movl	$7, %edx
	.loc 1 797 0
	movl	%ebx, %edi
	rep stosl
	.loc 1 798 0
	movl	%ebx, %eax
	call	dhcp_set_state
.LVL305:
	.loc 1 801 0
	movl	$8, %ecx
	movl	%ebx, %edx
	movl	%esi, %eax
	call	dhcp_create_msg
.LVL306:
	.loc 1 802 0
	testb	%al, %al
	jne	.L300
	.loc 1 803 0
	movl	$2, %ecx
	movl	$57, %edx
	movl	%ebx, %eax
.LVL307:
	call	dhcp_option
.LVL308:
	.loc 1 804 0
	movzwl	52(%esi), %edx
	movl	%ebx, %eax
	call	dhcp_option_short
.LVL309:
	.loc 1 806 0
	movl	%ebx, %eax
	call	dhcp_option_trailer
.LVL310:
	.loc 1 808 0
	pushl	%eax
	pushl	%eax
	movl	-72(%ebp), %eax
	addw	$240, %ax
	movzwl	%ax, %eax
	pushl	%eax
	pushl	-80(%ebp)
	call	pbuf_realloc
.LVL311:
	.loc 1 812 0
	movl	%esi, (%esp)
	pushl	$67
	pushl	$ip_addr_broadcast
	pushl	-80(%ebp)
	pushl	dhcp_pcb
	call	udp_sendto_if
.LVL312:
	.loc 1 814 0
	addl	$32, %esp
	movl	%ebx, %eax
	call	dhcp_delete_msg
.LVL313:
.L300:
	.loc 1 819 0
	call	dhcp_dec_pcb_refcount
.LVL314:
.L297:
	.loc 1 820 0
	movl	-28(%ebp), %eax
	xorl	%gs:20, %eax
	je	.L302
	call	__stack_chk_fail
.LVL315:
.L302:
	leal	-12(%ebp), %esp
	popl	%ebx
	.cfi_restore 3
	popl	%esi
	.cfi_restore 6
	popl	%edi
	.cfi_restore 7
	popl	%ebp
	.cfi_restore 5
	.cfi_def_cfa 4, 4
	ret
	.cfi_endproc
.LFE37:
	.size	dhcp_inform, .-dhcp_inform
	.section	.text.unlikely.dhcp_inform
.LCOLDE31:
	.section	.text.dhcp_inform
.LHOTE31:
	.section	.text.unlikely.dhcp_network_changed,"ax",@progbits
.LCOLDB32:
	.section	.text.dhcp_network_changed,"ax",@progbits
.LHOTB32:
	.globl	dhcp_network_changed
	.type	dhcp_network_changed, @function
dhcp_network_changed:
.LFB38:
	.loc 1 829 0
	.cfi_startproc
.LVL316:
	pushl	%ebp
	.cfi_def_cfa_offset 8
	.cfi_offset 5, -8
	movl	%esp, %ebp
	.cfi_def_cfa_register 5
	.loc 1 829 0
	movl	8(%ebp), %eax
	.loc 1 830 0
	movl	36(%eax), %edx
.LVL317:
	.loc 1 832 0
	testl	%edx, %edx
	je	.L304
	.loc 1 834 0
	movb	9(%edx), %cl
	cmpb	$5, %cl
	ja	.L307
	cmpb	$3, %cl
	jnb	.L308
	testb	%cl, %cl
	je	.L304
	jmp	.L306
.L307:
	cmpb	$10, %cl
	jne	.L306
.L308:
	.loc 1 839 0
	movb	$0, 10(%edx)
	.loc 1 860 0
	popl	%ebp
	.cfi_remember_state
	.cfi_restore 5
	.cfi_def_cfa 4, 4
	.loc 1 840 0
	jmp	dhcp_reboot
.LVL318:
.L306:
	.cfi_restore_state
	.loc 1 856 0
	movb	$0, 10(%edx)
	.loc 1 860 0
	popl	%ebp
	.cfi_remember_state
	.cfi_restore 5
	.cfi_def_cfa 4, 4
	.loc 1 857 0
	jmp	dhcp_discover
.LVL319:
.L304:
	.cfi_restore_state
	.loc 1 860 0
	popl	%ebp
	.cfi_restore 5
	.cfi_def_cfa 4, 4
	ret
	.cfi_endproc
.LFE38:
	.size	dhcp_network_changed, .-dhcp_network_changed
	.section	.text.unlikely.dhcp_network_changed
.LCOLDE32:
	.section	.text.dhcp_network_changed
.LHOTE32:
	.section	.text.unlikely.dhcp_renew,"ax",@progbits
.LCOLDB33:
	.section	.text.dhcp_renew,"ax",@progbits
.LHOTB33:
	.globl	dhcp_renew
	.type	dhcp_renew, @function
dhcp_renew:
.LFB41:
	.loc 1 1112 0
	.cfi_startproc
.LVL320:
	pushl	%ebp
	.cfi_def_cfa_offset 8
	.cfi_offset 5, -8
	.loc 1 1118 0
	movl	$5, %edx
	.loc 1 1112 0
	movl	%esp, %ebp
	.cfi_def_cfa_register 5
	pushl	%edi
	pushl	%esi
	pushl	%ebx
	subl	$28, %esp
	.cfi_offset 7, -12
	.cfi_offset 6, -16
	.cfi_offset 3, -20
	.loc 1 1112 0
	movl	8(%ebp), %esi
	.loc 1 1113 0
	movl	36(%esi), %ebx
.LVL321:
	.loc 1 1118 0
	movl	%ebx, %eax
	call	dhcp_set_state
.LVL322:
	.loc 1 1121 0
	movl	$3, %ecx
	movl	%ebx, %edx
	movl	%esi, %eax
	call	dhcp_create_msg
.LVL323:
	.loc 1 1122 0
	testb	%al, %al
	.loc 1 1121 0
	movb	%al, -25(%ebp)
.LVL324:
	.loc 1 1122 0
	jne	.L320
	.loc 1 1123 0
	movl	$2, %ecx
	movl	$57, %edx
	movl	%ebx, %eax
.LVL325:
	call	dhcp_option
.LVL326:
	.loc 1 1124 0
	movzwl	52(%esi), %edx
	movl	%ebx, %eax
	call	dhcp_option_short
.LVL327:
	.loc 1 1126 0
	movl	%ebx, %eax
	movl	$4, %ecx
	movl	$55, %edx
	call	dhcp_option
.LVL328:
	xorl	%eax, %eax
.LVL329:
.L321:
.LBB86:
.LBB87:
	.loc 1 1388 0 discriminator 3
	movzwl	20(%ebx), %edx
	movl	16(%ebx), %edi
	incl	%eax
.LVL330:
	leal	1(%edx), %ecx
	movw	%cx, 20(%ebx)
	movb	dhcp_discover_request_options-1(%eax), %cl
.LBE87:
.LBE86:
	.loc 1 1127 0 discriminator 3
	cmpl	$4, %eax
.LBB89:
.LBB88:
	.loc 1 1388 0 discriminator 3
	movb	%cl, 240(%edi,%edx)
.LVL331:
.LBE88:
.LBE89:
	.loc 1 1127 0 discriminator 3
	jne	.L321
	.loc 1 1132 0
	movl	48(%esi), %edx
	movl	%ebx, %eax
	call	dhcp_option_hostname.isra.1
.LVL332:
	.loc 1 1136 0
	movl	%ebx, %eax
	call	dhcp_option_trailer
.LVL333:
	.loc 1 1138 0
	pushl	%eax
	pushl	%eax
	movl	20(%ebx), %eax
	addw	$240, %ax
	movzwl	%ax, %eax
	pushl	%eax
	pushl	12(%ebx)
	call	pbuf_realloc
.LVL334:
	.loc 1 1140 0
	leal	36(%ebx), %eax
	movl	%esi, (%esp)
	pushl	$67
	pushl	%eax
	pushl	12(%ebx)
	pushl	dhcp_pcb
	call	udp_sendto_if
.LVL335:
	.loc 1 1141 0
	addl	$32, %esp
	movl	%ebx, %eax
	call	dhcp_delete_msg
.LVL336:
.L320:
	.loc 1 1147 0
	movb	10(%ebx), %al
	cmpb	$-1, %al
	je	.L322
	.loc 1 1148 0
	incl	%eax
	movb	%al, 10(%ebx)
.L322:
	.loc 1 1151 0
	movb	10(%ebx), %dl
	movl	$20000, %eax
	cmpb	$9, %dl
	ja	.L323
	.loc 1 1151 0 is_stmt 0 discriminator 1
	movzbl	%dl, %eax
	imulw	$2000, %ax, %ax
.L323:
.LVL337:
	.loc 1 1152 0 is_stmt 1 discriminator 4
	movzwl	%ax, %eax
	movl	$500, %ecx
	addl	$499, %eax
.LVL338:
	cltd
	idivl	%ecx
.LVL339:
	movw	%ax, 22(%ebx)
	.loc 1 1155 0 discriminator 4
	movb	-25(%ebp), %al
	leal	-12(%ebp), %esp
	popl	%ebx
	.cfi_restore 3
.LVL340:
	popl	%esi
	.cfi_restore 6
	popl	%edi
	.cfi_restore 7
	popl	%ebp
	.cfi_restore 5
	.cfi_def_cfa 4, 4
	ret
	.cfi_endproc
.LFE41:
	.size	dhcp_renew, .-dhcp_renew
	.section	.text.unlikely.dhcp_renew
.LCOLDE33:
	.section	.text.dhcp_renew
.LHOTE33:
	.section	.rodata.str1.1
.LC34:
	.string	"dhcp_stop: netif != NULL"
	.section	.text.unlikely.dhcp_stop,"ax",@progbits
.LCOLDB35:
	.section	.text.dhcp_stop,"ax",@progbits
.LHOTB35:
	.globl	dhcp_stop
	.type	dhcp_stop, @function
dhcp_stop:
.LFB45:
	.loc 1 1328 0
	.cfi_startproc
.LVL341:
	pushl	%ebp
	.cfi_def_cfa_offset 8
	.cfi_offset 5, -8
	movl	%esp, %ebp
	.cfi_def_cfa_register 5
	pushl	%ebx
	pushl	%ecx
	.cfi_offset 3, -12
	.loc 1 1328 0
	movl	8(%ebp), %eax
	.loc 1 1330 0
	testl	%eax, %eax
	jne	.L331
	.loc 1 1330 0 discriminator 1
	movl	$.LC34, 8(%ebp)
.LVL342:
	.loc 1 1351 0 discriminator 1
	popl	%edx
	popl	%ebx
	.cfi_remember_state
	.cfi_restore 3
	popl	%ebp
	.cfi_restore 5
	.cfi_def_cfa 4, 4
	.loc 1 1330 0 discriminator 1
	jmp	bk_printf
.LVL343:
.L331:
	.cfi_restore_state
	.loc 1 1331 0
	movl	36(%eax), %ebx
.LVL344:
	.loc 1 1335 0
	testl	%ebx, %ebx
	je	.L330
	.loc 1 1344 0
	xorl	%edx, %edx
	movl	%ebx, %eax
	call	dhcp_set_state
.LVL345:
	.loc 1 1346 0
	cmpb	$0, 8(%ebx)
	je	.L330
	.loc 1 1347 0
	call	dhcp_dec_pcb_refcount
.LVL346:
	.loc 1 1348 0
	movb	$0, 8(%ebx)
.L330:
	.loc 1 1351 0
	popl	%eax
	popl	%ebx
	.cfi_restore 3
.LVL347:
	popl	%ebp
	.cfi_restore 5
	.cfi_def_cfa 4, 4
	ret
	.cfi_endproc
.LFE45:
	.size	dhcp_stop, .-dhcp_stop
	.section	.text.unlikely.dhcp_stop
.LCOLDE35:
	.section	.text.dhcp_stop
.LHOTE35:
	.section	.rodata.str1.1
.LC36:
	.string	"netif is not up, old style port?"
	.section	.text.unlikely.dhcp_start,"ax",@progbits
.LCOLDB37:
	.section	.text.dhcp_start,"ax",@progbits
.LHOTB37:
	.globl	dhcp_start
	.type	dhcp_start, @function
dhcp_start:
.LFB36:
	.loc 1 706 0
	.cfi_startproc
.LVL348:
	pushl	%ebp
	.cfi_def_cfa_offset 8
	.cfi_offset 5, -8
	movl	%esp, %ebp
	.cfi_def_cfa_register 5
	pushl	%edi
	pushl	%esi
	pushl	%ebx
	subl	$12, %esp
	.cfi_offset 7, -12
	.cfi_offset 6, -16
	.cfi_offset 3, -20
	.loc 1 706 0
	movl	8(%ebp), %esi
	.loc 1 710 0
	testl	%esi, %esi
	jne	.L337
	.loc 1 710 0 discriminator 1
	subl	$12, %esp
	pushl	$.LC30
	jmp	.L351
.L337:
	.loc 1 711 0
	testb	$1, 61(%esi)
	jne	.L339
	.loc 1 711 0 is_stmt 0 discriminator 1
	subl	$12, %esp
	pushl	$.LC36
.L351:
	call	bk_printf
.LVL349:
	movl	$-16, %edi
	addl	$16, %esp
	jmp	.L338
.L339:
	.loc 1 716 0 is_stmt 1
	cmpw	$575, 52(%esi)
	.loc 1 712 0
	movl	36(%esi), %ebx
.LVL350:
	.loc 1 716 0
	jbe	.L352
	.loc 1 722 0
	testl	%ebx, %ebx
	jne	.L341
	.loc 1 724 0
	subl	$12, %esp
	pushl	$64
	call	mem_malloc
.LVL351:
	.loc 1 725 0
	addl	$16, %esp
	testl	%eax, %eax
	.loc 1 724 0
	movl	%eax, %ebx
.LVL352:
	.loc 1 725 0
	je	.L352
	.loc 1 731 0
	movl	%eax, 36(%esi)
	jmp	.L343
.LVL353:
.L341:
	.loc 1 739 0
	cmpb	$0, 8(%ebx)
	je	.L343
	.loc 1 740 0
	call	dhcp_dec_pcb_refcount
.LVL354:
.L343:
	.loc 1 746 0
	xorl	%eax, %eax
	movl	$16, %ecx
	movl	%ebx, %edi
	rep stosl
	.loc 1 751 0
	call	dhcp_inc_pcb_refcount
.LVL355:
	testb	%al, %al
	movl	%eax, %edi
	jne	.L352
	.loc 1 754 0
	movb	$1, 8(%ebx)
	.loc 1 766 0
	movl	%esi, %eax
	call	dhcp_discover
.LVL356:
	.loc 1 767 0
	testb	%al, %al
	je	.L338
	.loc 1 769 0
	subl	$12, %esp
	pushl	%esi
	call	dhcp_stop
.LVL357:
	.loc 1 770 0
	addl	$16, %esp
.L352:
	movl	$-1, %edi
.LVL358:
.L338:
	.loc 1 773 0
	leal	-12(%ebp), %esp
	movl	%edi, %eax
	popl	%ebx
	.cfi_restore 3
	popl	%esi
	.cfi_restore 6
	popl	%edi
	.cfi_restore 7
	popl	%ebp
	.cfi_restore 5
	.cfi_def_cfa 4, 4
	ret
	.cfi_endproc
.LFE36:
	.size	dhcp_start, .-dhcp_start
	.section	.text.unlikely.dhcp_start
.LCOLDE37:
	.section	.text.dhcp_start
.LHOTE37:
	.section	.text.unlikely.dhcp_supplied_address,"ax",@progbits
.LCOLDB38:
	.section	.text.dhcp_supplied_address,"ax",@progbits
.LHOTB38:
	.globl	dhcp_supplied_address
	.type	dhcp_supplied_address, @function
dhcp_supplied_address:
.LFB57:
	.loc 1 1922 0
	.cfi_startproc
.LVL359:
	pushl	%ebp
	.cfi_def_cfa_offset 8
	.cfi_offset 5, -8
	.loc 1 1927 0
	xorl	%eax, %eax
	.loc 1 1922 0
	movl	%esp, %ebp
	.cfi_def_cfa_register 5
	.loc 1 1922 0
	movl	8(%ebp), %edx
	.loc 1 1923 0
	testl	%edx, %edx
	je	.L354
	.loc 1 1923 0 discriminator 1
	movl	36(%edx), %edx
	testl	%edx, %edx
	je	.L354
.LVL360:
.LBB90:
	.loc 1 1925 0
	movb	9(%edx), %dl
.LVL361:
	cmpb	$10, %dl
	sete	%cl
	cmpb	$5, %dl
	sete	%al
	orl	%ecx, %eax
.LVL362:
.L354:
.LBE90:
	.loc 1 1928 0
	popl	%ebp
	.cfi_restore 5
	.cfi_def_cfa 4, 4
	ret
	.cfi_endproc
.LFE57:
	.size	dhcp_supplied_address, .-dhcp_supplied_address
	.section	.text.unlikely.dhcp_supplied_address
.LCOLDE38:
	.section	.text.dhcp_supplied_address
.LHOTE38:
	.section	.text.unlikely.dhcp_release,"ax",@progbits
.LCOLDB39:
	.section	.text.dhcp_release,"ax",@progbits
.LHOTB39:
	.globl	dhcp_release
	.type	dhcp_release, @function
dhcp_release:
.LFB44:
	.loc 1 1265 0
	.cfi_startproc
.LVL363:
	pushl	%ebp
	.cfi_def_cfa_offset 8
	.cfi_offset 5, -8
	movl	%esp, %ebp
	.cfi_def_cfa_register 5
	pushl	%edi
	pushl	%esi
	pushl	%ebx
	subl	$28, %esp
	.cfi_offset 7, -12
	.cfi_offset 6, -16
	.cfi_offset 3, -20
	.loc 1 1265 0
	movl	8(%ebp), %esi
	movl	%gs:20, %eax
	movl	%eax, -28(%ebp)
	xorl	%eax, %eax
	.loc 1 1273 0
	movb	$-16, %al
	.loc 1 1266 0
	movl	36(%esi), %ebx
.LVL364:
	.loc 1 1272 0
	testl	%ebx, %ebx
	je	.L359
	.loc 1 1275 0
	movl	36(%ebx), %eax
	.loc 1 1277 0
	pushl	%esi
	.loc 1 1275 0
	movl	%eax, -32(%ebp)
	.loc 1 1277 0
	call	dhcp_supplied_address
.LVL365:
	popl	%ecx
	movl	%eax, %edi
.LVL366:
	.loc 1 1280 0
	xorl	%edx, %edx
	movl	%ebx, %eax
.LVL367:
	call	dhcp_set_state
.LVL368:
	.loc 1 1292 0
	movl	%edi, %ecx
	.loc 1 1294 0
	xorl	%eax, %eax
	.loc 1 1282 0
	movl	$0, 36(%ebx)
	.loc 1 1292 0
	testb	%cl, %cl
	.loc 1 1283 0
	movl	$0, 40(%ebx)
	.loc 1 1284 0
	movl	$0, 44(%ebx)
	.loc 1 1285 0
	movl	$0, 48(%ebx)
	.loc 1 1289 0
	movl	$0, 60(%ebx)
	movl	$0, 56(%ebx)
	movl	$0, 52(%ebx)
	.loc 1 1290 0
	movw	$0, 34(%ebx)
	movw	$0, 32(%ebx)
	movw	$0, 30(%ebx)
	movw	$0, 28(%ebx)
	.loc 1 1292 0
	je	.L359
	.loc 1 1298 0
	movl	$7, %ecx
	movl	%ebx, %edx
	movl	%esi, %eax
	call	dhcp_create_msg
.LVL369:
	.loc 1 1299 0
	testb	%al, %al
	.loc 1 1298 0
	movl	%eax, %edi
.LVL370:
	.loc 1 1299 0
	jne	.L360
	.loc 1 1300 0
	movl	$4, %ecx
	movl	$54, %edx
	movl	%ebx, %eax
.LVL371:
	call	dhcp_option
.LVL372:
	.loc 1 1301 0
	subl	$12, %esp
	pushl	-32(%ebp)
	call	lwip_htonl
.LVL373:
	movl	%eax, %edx
	movl	%ebx, %eax
	call	dhcp_option_long
.LVL374:
	.loc 1 1303 0
	movl	%ebx, %eax
	call	dhcp_option_trailer
.LVL375:
	.loc 1 1305 0
	popl	%eax
	movl	20(%ebx), %eax
	popl	%edx
	addw	$240, %ax
	movzwl	%ax, %eax
	pushl	%eax
	pushl	12(%ebx)
	call	pbuf_realloc
.LVL376:
	.loc 1 1307 0
	leal	-32(%ebp), %eax
	movl	%esi, (%esp)
	pushl	$67
	pushl	%eax
	pushl	12(%ebx)
	pushl	dhcp_pcb
	call	udp_sendto_if
.LVL377:
	.loc 1 1308 0
	addl	$32, %esp
	movl	%ebx, %eax
	call	dhcp_delete_msg
.LVL378:
.L360:
	.loc 1 1315 0
	pushl	$ip_addr_any
	pushl	$ip_addr_any
	pushl	$ip_addr_any
	pushl	%esi
	call	netif_set_addr
.LVL379:
	.loc 1 1317 0
	addl	$16, %esp
	.loc 1 1298 0
	movl	%edi, %eax
.LVL380:
.L359:
	.loc 1 1318 0
	movl	-28(%ebp), %ecx
	xorl	%gs:20, %ecx
	je	.L361
	call	__stack_chk_fail
.LVL381:
.L361:
	leal	-12(%ebp), %esp
	popl	%ebx
	.cfi_restore 3
.LVL382:
	popl	%esi
	.cfi_restore 6
	popl	%edi
	.cfi_restore 7
	popl	%ebp
	.cfi_restore 5
	.cfi_def_cfa 4, 4
	ret
	.cfi_endproc
.LFE44:
	.size	dhcp_release, .-dhcp_release
	.section	.text.unlikely.dhcp_release
.LCOLDE39:
	.section	.text.dhcp_release
.LHOTE39:
	.section	.text.unlikely.dhcp_coarse_tmr,"ax",@progbits
.LCOLDB40:
	.section	.text.dhcp_coarse_tmr,"ax",@progbits
.LHOTB40:
	.globl	dhcp_coarse_tmr
	.type	dhcp_coarse_tmr, @function
dhcp_coarse_tmr:
.LFB28:
	.loc 1 394 0
	.cfi_startproc
	pushl	%ebp
	.cfi_def_cfa_offset 8
	.cfi_offset 5, -8
	movl	%esp, %ebp
	.cfi_def_cfa_register 5
	pushl	%edi
	pushl	%esi
	pushl	%ebx
	subl	$12, %esp
	.cfi_offset 7, -12
	.cfi_offset 6, -16
	.cfi_offset 3, -20
	.loc 1 395 0
	movl	netif_list, %esi
.LVL383:
.L367:
	.loc 1 398 0
	testl	%esi, %esi
	je	.L401
.LBB100:
	.loc 1 400 0
	movl	36(%esi), %ebx
.LVL384:
	.loc 1 401 0
	testl	%ebx, %ebx
	je	.L369
	.loc 1 401 0 discriminator 1
	movb	9(%ebx), %al
	testb	%al, %al
	je	.L369
	.loc 1 403 0
	movw	34(%ebx), %cx
	testw	%cx, %cx
	je	.L371
	.loc 1 403 0 is_stmt 0 discriminator 1
	movl	32(%ebx), %edi
	leal	1(%edi), %edx
	cmpw	%dx, %cx
	movw	%dx, 32(%ebx)
	jne	.L371
	.loc 1 406 0 is_stmt 1
	subl	$12, %esp
	pushl	%esi
	call	dhcp_release
.LVL385:
	.loc 1 407 0
	movl	%esi, %eax
	call	dhcp_discover
.LVL386:
	addl	$16, %esp
	jmp	.L369
.L371:
	.loc 1 409 0
	movw	30(%ebx), %dx
	testw	%dx, %dx
	je	.L372
	.loc 1 409 0 is_stmt 0 discriminator 1
	leal	-1(%edx), %ecx
	decw	%dx
	movw	%cx, 30(%ebx)
	jne	.L372
.LVL387:
.LBB101:
.LBB102:
	.loc 1 547 0 is_stmt 1
	cmpb	$10, %al
	ja	.L369
	.loc 1 548 0
	movl	$1074, %edx
	btl	%eax, %edx
	jnc	.L369
.LVL388:
.LBB103:
.LBB104:
	.loc 1 1170 0
	movl	$4, %edx
	movl	%ebx, %eax
	call	dhcp_set_state
.LVL389:
	.loc 1 1173 0
	movl	$3, %ecx
	movl	%ebx, %edx
	movl	%esi, %eax
	call	dhcp_create_msg
.LVL390:
	.loc 1 1174 0
	testb	%al, %al
	jne	.L373
	.loc 1 1175 0
	movl	$2, %ecx
	movl	$57, %edx
	movl	%ebx, %eax
.LVL391:
	call	dhcp_option
.LVL392:
	.loc 1 1176 0
	movzwl	52(%esi), %edx
	movl	%ebx, %eax
	call	dhcp_option_short
.LVL393:
	.loc 1 1178 0
	movl	%ebx, %eax
	movl	$4, %ecx
	movl	$55, %edx
	call	dhcp_option
.LVL394:
	xorl	%eax, %eax
.LVL395:
.L374:
.LBB105:
.LBB106:
	.loc 1 1388 0
	movzwl	20(%ebx), %edx
.LBE106:
.LBE105:
	.loc 1 1180 0
	movb	dhcp_discover_request_options(%eax), %cl
.LVL396:
	incl	%eax
.LVL397:
	.loc 1 1179 0
	cmpl	$4, %eax
.LBB108:
.LBB107:
	.loc 1 1388 0
	leal	1(%edx), %edi
	movw	%di, 20(%ebx)
	movl	16(%ebx), %edi
	movb	%cl, 240(%edi,%edx)
.LVL398:
.LBE107:
.LBE108:
	.loc 1 1179 0
	jne	.L374
	.loc 1 1184 0
	movl	48(%esi), %edx
	movl	%ebx, %eax
	call	dhcp_option_hostname.isra.1
.LVL399:
	.loc 1 1187 0
	movl	%ebx, %eax
	call	dhcp_option_trailer
.LVL400:
	.loc 1 1189 0
	pushl	%eax
	pushl	%eax
	movl	20(%ebx), %eax
	addw	$240, %ax
	movzwl	%ax, %eax
	pushl	%eax
	pushl	12(%ebx)
	call	pbuf_realloc
.LVL401:
	.loc 1 1192 0
	movl	%esi, (%esp)
	pushl	$67
	pushl	$ip_addr_broadcast
	pushl	12(%ebx)
	pushl	dhcp_pcb
	call	udp_sendto_if
.LVL402:
	.loc 1 1193 0
	addl	$32, %esp
	movl	%ebx, %eax
	call	dhcp_delete_msg
.LVL403:
.L373:
	.loc 1 1198 0
	movb	10(%ebx), %al
	cmpb	$-1, %al
	je	.L375
	.loc 1 1199 0
	incl	%eax
	movb	%al, 10(%ebx)
.L375:
	.loc 1 1201 0
	movb	10(%ebx), %dl
	movl	$10000, %eax
	cmpb	$9, %dl
	ja	.L376
	movzbl	%dl, %eax
	imulw	$1000, %ax, %ax
.L376:
.LVL404:
	.loc 1 1202 0
	movzwl	%ax, %eax
	movl	$500, %ecx
	addl	$499, %eax
.LVL405:
	cltd
	idivl	%ecx
.LVL406:
.LBE104:
.LBE103:
	.loc 1 556 0
	movzwl	32(%ebx), %edx
.LBB110:
.LBB109:
	.loc 1 1202 0
	movw	%ax, 22(%ebx)
.LVL407:
.LBE109:
.LBE110:
	.loc 1 556 0
	movzwl	34(%ebx), %eax
	subl	%edx, %eax
	cmpl	$1, %eax
	jle	.L369
	.loc 1 558 0
	sarl	%eax
	movw	%ax, 30(%ebx)
	jmp	.L369
.LVL408:
.L372:
.LBE102:
.LBE101:
	.loc 1 414 0
	movl	28(%ebx), %edx
	testw	%dx, %dx
	je	.L369
	.loc 1 414 0 is_stmt 0 discriminator 1
	leal	-1(%edx), %ecx
	decw	%dx
	movw	%cx, 28(%ebx)
	jne	.L369
.LVL409:
.LBB111:
.LBB112:
	.loc 1 519 0 is_stmt 1
	movb	%al, %dl
	andl	$-5, %edx
	decb	%dl
	je	.L380
	cmpb	$10, %al
	jne	.L369
.L380:
	.loc 1 527 0
	subl	$12, %esp
	pushl	%esi
	call	dhcp_renew
.LVL410:
	.loc 1 529 0
	movzwl	26(%ebx), %eax
	movzwl	32(%ebx), %edx
	addl	$16, %esp
	subl	%edx, %eax
	cmpl	$1, %eax
	jle	.L369
	.loc 1 531 0
	sarl	%eax
	movw	%ax, 28(%ebx)
.LVL411:
.L369:
.LBE112:
.LBE111:
	.loc 1 421 0
	movl	(%esi), %esi
.LVL412:
	jmp	.L367
.LVL413:
.L401:
.LBE100:
	.loc 1 423 0
	leal	-12(%ebp), %esp
	popl	%ebx
	.cfi_restore 3
	popl	%esi
	.cfi_restore 6
.LVL414:
	popl	%edi
	.cfi_restore 7
	popl	%ebp
	.cfi_restore 5
	.cfi_def_cfa 4, 4
	ret
	.cfi_endproc
.LFE28:
	.size	dhcp_coarse_tmr, .-dhcp_coarse_tmr
	.section	.text.unlikely.dhcp_coarse_tmr
.LCOLDE40:
	.section	.text.dhcp_coarse_tmr
.LHOTE40:
	.section	.text.unlikely.dhcp_fine_tmr,"ax",@progbits
.LCOLDB41:
	.section	.text.dhcp_fine_tmr,"ax",@progbits
.LHOTB41:
	.globl	dhcp_fine_tmr
	.type	dhcp_fine_tmr, @function
dhcp_fine_tmr:
.LFB29:
	.loc 1 434 0
	.cfi_startproc
	pushl	%ebp
	.cfi_def_cfa_offset 8
	.cfi_offset 5, -8
	movl	%esp, %ebp
	.cfi_def_cfa_register 5
	pushl	%ebx
	pushl	%eax
	.cfi_offset 3, -12
	.loc 1 435 0
	movl	netif_list, %ebx
.LVL415:
.L403:
	.loc 1 437 0
	testl	%ebx, %ebx
	je	.L416
.LBB116:
	.loc 1 438 0
	movl	36(%ebx), %eax
.LVL416:
	.loc 1 440 0
	testl	%eax, %eax
	je	.L405
	.loc 1 442 0
	movw	22(%eax), %dx
	cmpw	$1, %dx
	jbe	.L406
	.loc 1 443 0
	decl	%edx
	movw	%dx, 22(%eax)
	jmp	.L405
.L406:
	.loc 1 445 0
	jne	.L405
.LBB117:
.LBB118:
	.loc 1 473 0
	movb	9(%eax), %dl
.LBE118:
.LBE117:
	.loc 1 446 0
	movw	$0, 22(%eax)
.LVL417:
.LBB120:
.LBB119:
	.loc 1 473 0
	cmpb	$12, %dl
	je	.L414
	cmpb	$6, %dl
	jne	.L408
.L414:
	.loc 1 475 0
	movl	%ebx, %eax
.LVL418:
	jmp	.L412
.LVL419:
.L408:
	.loc 1 477 0
	cmpb	$1, %dl
	jne	.L410
	.loc 1 479 0
	cmpb	$5, 10(%eax)
	ja	.L411
	.loc 1 480 0
	movl	%ebx, %eax
.LVL420:
	call	dhcp_select
.LVL421:
	jmp	.L405
.LVL422:
.L411:
	.loc 1 483 0
	subl	$12, %esp
	pushl	%ebx
	call	dhcp_release
.LVL423:
	.loc 1 484 0
	movl	%ebx, %eax
	call	dhcp_discover
.LVL424:
	addl	$16, %esp
	jmp	.L405
.LVL425:
.L410:
	.loc 1 499 0
	cmpb	$3, %dl
	jne	.L405
	.loc 1 500 0
	cmpb	$1, 10(%eax)
	.loc 1 501 0
	movl	%ebx, %eax
.LVL426:
	.loc 1 500 0
	ja	.L412
.LVL427:
	.loc 1 501 0
	call	dhcp_reboot
.LVL428:
	jmp	.L405
.LVL429:
.L412:
	.loc 1 503 0
	call	dhcp_discover
.LVL430:
.L405:
.LBE119:
.LBE120:
	.loc 1 454 0
	movl	(%ebx), %ebx
.LVL431:
	jmp	.L403
.L416:
.LBE116:
	.loc 1 456 0
	movl	-4(%ebp), %ebx
.LVL432:
	leave
	.cfi_restore 5
	.cfi_restore 3
	.cfi_def_cfa 4, 4
	ret
	.cfi_endproc
.LFE29:
	.size	dhcp_fine_tmr, .-dhcp_fine_tmr
	.section	.text.unlikely.dhcp_fine_tmr
.LCOLDE41:
	.section	.text.dhcp_fine_tmr
.LHOTE41:
	.section	.bss.xid.4781,"aw",@nobits
	.align 4
	.type	xid.4781, @object
	.size	xid.4781, 4
xid.4781:
	.zero	4
	.section	.bss.dhcp_pcb_refcount,"aw",@nobits
	.type	dhcp_pcb_refcount, @object
	.size	dhcp_pcb_refcount, 1
dhcp_pcb_refcount:
	.zero	1
	.section	.bss.dhcp_pcb,"aw",@nobits
	.align 4
	.type	dhcp_pcb, @object
	.size	dhcp_pcb, 4
dhcp_pcb:
	.zero	4
	.section	.rodata.dhcp_discover_request_options,"a",@progbits
	.align 4
	.type	dhcp_discover_request_options, @object
	.size	dhcp_discover_request_options, 4
dhcp_discover_request_options:
	.byte	1
	.byte	3
	.byte	28
	.byte	6
	.globl	dhcp_rx_options_given
	.section	.bss.dhcp_rx_options_given,"aw",@nobits
	.align 4
	.type	dhcp_rx_options_given, @object
	.size	dhcp_rx_options_given, 10
dhcp_rx_options_given:
	.zero	10
	.globl	dhcp_rx_options_val
	.section	.bss.dhcp_rx_options_val,"aw",@nobits
	.align 32
	.type	dhcp_rx_options_val, @object
	.size	dhcp_rx_options_val, 40
dhcp_rx_options_val:
	.zero	40
	.text
.Letext0:
	.section	.text.unlikely.dhcp_set_state
.Letext_cold0:
	.file 2 "/home/stone/Documents/Ali_IOT/build/compiler/gcc-arm-none-eabi/Linux64/lib/gcc/arm-none-eabi/5.4.1/include/stddef.h"
	.file 3 "././platform/mcu/moc108/include/lwip-2.0.2/arch/cc.h"
	.file 4 "./kernel/protocols/net/include/lwip/err.h"
	.file 5 "./kernel/protocols/net/include/lwip/memp.h"
	.file 6 "./kernel/protocols/net/include/lwip/pbuf.h"
	.file 7 "./kernel/protocols/net/include/lwip/ip4_addr.h"
	.file 8 "./kernel/protocols/net/include/lwip/ip_addr.h"
	.file 9 "./kernel/protocols/net/include/lwip/netif.h"
	.file 10 "./kernel/protocols/net/include/lwip/prot/ip4.h"
	.file 11 "./kernel/protocols/net/include/lwip/ip.h"
	.file 12 "./kernel/protocols/net/include/lwip/udp.h"
	.file 13 "./kernel/protocols/net/include/lwip/dhcp.h"
	.file 14 "./kernel/protocols/net/include/lwip/prot/dhcp.h"
	.file 15 "./include/aos/log.h"
	.file 16 "././platform/mcu/moc108/include/driver/uart_pub.h"
	.file 17 "./kernel/protocols/net/include/lwip/def.h"
	.file 18 "./kernel/protocols/net/include/lwip/dns.h"
	.file 19 "./kernel/protocols/net/include/lwip/mem.h"
	.section	.note.GNU-stack,"",@progbits
