	.file	"digest_algorithm.c"
	.text
.Ltext0:
	.section	.text.unlikely.reverse_32bit,"ax",@progbits
.LCOLDB0:
	.section	.text.reverse_32bit,"ax",@progbits
.LHOTB0:
	.section	.text.unlikely.reverse_32bit
.Ltext_cold0:
	.section	.text.reverse_32bit
	.type	reverse_32bit, @function
reverse_32bit:
.LFB2:
	.file 1 "utility/digest_algorithm/sha2.c"
	.loc 1 259 0
	.cfi_startproc
.LVL0:
	pushl	%ebp
	.cfi_def_cfa_offset 8
	.cfi_offset 5, -8
	bswap	%eax
.LVL1:
	movl	%esp, %ebp
	.cfi_def_cfa_register 5
	.loc 1 262 0
	popl	%ebp
	.cfi_restore 5
	.cfi_def_cfa 4, 4
	ret
	.cfi_endproc
.LFE2:
	.size	reverse_32bit, .-reverse_32bit
	.section	.text.unlikely.reverse_32bit
.LCOLDE0:
	.section	.text.reverse_32bit
.LHOTE0:
	.section	.text.unlikely.reverse_64bit,"ax",@progbits
.LCOLDB1:
	.section	.text.reverse_64bit,"ax",@progbits
.LHOTB1:
	.type	reverse_64bit, @function
reverse_64bit:
.LFB4:
	.loc 1 274 0
	.cfi_startproc
.LVL2:
	pushl	%ebp
	.cfi_def_cfa_offset 8
	.cfi_offset 5, -8
	bswap	%eax
.LVL3:
	movl	%eax, %ecx
	movl	%edx, %eax
	movl	%esp, %ebp
	.cfi_def_cfa_register 5
	bswap	%eax
	.loc 1 281 0
	movl	%ecx, %edx
	popl	%ebp
	.cfi_restore 5
	.cfi_def_cfa 4, 4
	ret
	.cfi_endproc
.LFE4:
	.size	reverse_64bit, .-reverse_64bit
	.section	.text.unlikely.reverse_64bit
.LCOLDE1:
	.section	.text.reverse_64bit
.LHOTE1:
	.section	.text.unlikely.SHA256_Transform,"ax",@progbits
.LCOLDB2:
	.section	.text.SHA256_Transform,"ax",@progbits
.LHOTB2:
	.type	SHA256_Transform, @function
SHA256_Transform:
.LFB10:
	.loc 1 328 0
	.cfi_startproc
.LVL4:
	pushl	%ebp
	.cfi_def_cfa_offset 8
	.cfi_offset 5, -8
	movl	%esp, %ebp
	.cfi_def_cfa_register 5
	pushl	%edi
	pushl	%esi
	pushl	%ebx
	subl	$52, %esp
	.cfi_offset 7, -12
	.cfi_offset 6, -16
	.cfi_offset 3, -20
	.loc 1 328 0
	movl	%eax, -16(%ebp)
	.loc 1 333 0
	addl	$40, %eax
.LVL5:
	movl	%eax, -56(%ebp)
.LVL6:
	.loc 1 336 0
	movl	-16(%ebp), %eax
.LVL7:
	.loc 1 328 0
	movl	%edx, -64(%ebp)
	.loc 1 343 0
	movl	$0, -44(%ebp)
	.loc 1 336 0
	movl	(%eax), %eax
	movl	%eax, -20(%ebp)
.LVL8:
	.loc 1 337 0
	movl	-16(%ebp), %eax
.LVL9:
	movl	4(%eax), %eax
	movl	%eax, -28(%ebp)
.LVL10:
	.loc 1 338 0
	movl	-16(%ebp), %eax
.LVL11:
	movl	8(%eax), %eax
	movl	%eax, -48(%ebp)
.LVL12:
	.loc 1 339 0
	movl	-16(%ebp), %eax
.LVL13:
	movl	12(%eax), %eax
	movl	%eax, -60(%ebp)
.LVL14:
	.loc 1 340 0
	movl	-16(%ebp), %eax
.LVL15:
	movl	16(%eax), %eax
	movl	%eax, -24(%ebp)
.LVL16:
	.loc 1 341 0
	movl	-16(%ebp), %eax
.LVL17:
	movl	20(%eax), %eax
	movl	%eax, -40(%ebp)
.LVL18:
	.loc 1 342 0
	movl	-16(%ebp), %eax
.LVL19:
	movl	24(%eax), %eax
	movl	%eax, -52(%ebp)
.LVL20:
	.loc 1 343 0
	movl	-16(%ebp), %eax
.LVL21:
	movl	28(%eax), %edi
.LVL22:
.L6:
.LBB54:
.LBB55:
	.loc 1 296 0 discriminator 1
	movl	-44(%ebp), %ebx
	movl	-64(%ebp), %eax
	movl	(%eax,%ebx), %eax
	call	reverse_32bit
.LVL23:
.LBE55:
.LBE54:
	.loc 1 348 0 discriminator 1
	movl	-56(%ebp), %ecx
	.loc 1 351 0 discriminator 1
	movl	-24(%ebp), %esi
	.loc 1 348 0 discriminator 1
	movl	%eax, (%ecx,%ebx)
	.loc 1 351 0 discriminator 1
	movl	-24(%ebp), %ebx
	rorl	$6, %esi
	movl	-44(%ebp), %ecx
	addl	$4, -44(%ebp)
.LVL24:
	rorl	$11, %ebx
	xorl	%esi, %ebx
	movl	-24(%ebp), %esi
	addl	K256(%ecx), %eax
	.loc 1 357 0 discriminator 1
	movl	-60(%ebp), %ecx
.LVL25:
	.loc 1 351 0 discriminator 1
	roll	$7, %esi
	xorl	%esi, %ebx
	movl	-24(%ebp), %esi
	andl	-40(%ebp), %esi
	addl	%eax, %ebx
	movl	-24(%ebp), %eax
	notl	%eax
	andl	-52(%ebp), %eax
	xorl	%eax, %esi
	leal	(%ebx,%esi), %eax
	.loc 1 353 0 discriminator 1
	movl	-20(%ebp), %esi
	movl	-20(%ebp), %ebx
	.loc 1 351 0 discriminator 1
	addl	%edi, %eax
.LVL26:
	.loc 1 353 0 discriminator 1
	movl	-48(%ebp), %edi
.LVL27:
	xorl	-28(%ebp), %edi
	rorl	$13, %ebx
	rorl	$2, %esi
	andl	-20(%ebp), %edi
	xorl	%ebx, %esi
	movl	-20(%ebp), %ebx
	.loc 1 357 0 discriminator 1
	addl	%eax, %ecx
	movl	%ecx, -32(%ebp)
	.loc 1 353 0 discriminator 1
	roll	$10, %ebx
	xorl	%ebx, %esi
	movl	-28(%ebp), %ebx
	andl	-48(%ebp), %ebx
	xorl	%edi, %ebx
	movl	-52(%ebp), %edi
	addl	%ebx, %esi
.LVL28:
	.loc 1 361 0 discriminator 1
	addl	%esi, %eax
.LVL29:
	.loc 1 364 0 discriminator 1
	cmpl	$64, -44(%ebp)
	.loc 1 361 0 discriminator 1
	movl	%eax, -36(%ebp)
.LVL30:
	movl	-48(%ebp), %eax
.LVL31:
	movl	%eax, -60(%ebp)
	.loc 1 364 0 discriminator 1
	je	.L12
	movl	-40(%ebp), %eax
	movl	%eax, -52(%ebp)
.LVL32:
	movl	-24(%ebp), %eax
	movl	%eax, -40(%ebp)
.LVL33:
	.loc 1 357 0
	movl	-32(%ebp), %eax
	movl	%eax, -24(%ebp)
.LVL34:
	movl	-28(%ebp), %eax
	movl	%eax, -48(%ebp)
.LVL35:
	movl	-20(%ebp), %eax
	movl	%eax, -28(%ebp)
.LVL36:
	.loc 1 361 0
	movl	-36(%ebp), %eax
	movl	%eax, -20(%ebp)
.LVL37:
	jmp	.L6
.LVL38:
.L12:
	movl	$16, -44(%ebp)
.LVL39:
.L7:
	.loc 1 368 0 discriminator 1
	incl	-44(%ebp)
.LVL40:
	movl	-56(%ebp), %ecx
	movl	-44(%ebp), %eax
	andl	$15, %eax
	movl	(%ecx,%eax,4), %edx
.LVL41:
	.loc 1 369 0 discriminator 1
	movl	%edx, %esi
	movl	%edx, %eax
	shrl	$3, %edx
.LVL42:
	roll	$14, %eax
.LVL43:
	rorl	$7, %esi
.LVL44:
	xorl	%eax, %esi
	.loc 1 370 0 discriminator 1
	movl	-44(%ebp), %eax
	.loc 1 369 0 discriminator 1
	movl	%esi, -60(%ebp)
	movl	%edx, %esi
.LVL45:
	.loc 1 375 0 discriminator 1
	xorl	-60(%ebp), %esi
.LVL46:
	.loc 1 370 0 discriminator 1
	addl	$13, %eax
	andl	$15, %eax
	movl	(%ecx,%eax,4), %edx
.LVL47:
	.loc 1 371 0 discriminator 1
	movl	%edx, %edi
	movl	%edx, %eax
	shrl	$10, %edx
.LVL48:
	roll	$13, %eax
.LVL49:
	roll	$15, %edi
.LVL50:
	xorl	%eax, %edi
.LVL51:
	.loc 1 375 0 discriminator 1
	movl	-44(%ebp), %eax
	xorl	%edi, %edx
.LVL52:
	movl	-32(%ebp), %edi
	leal	60(,%eax,4), %ebx
	addl	$8, %eax
	andl	$15, %eax
	roll	$7, %edi
	andl	$60, %ebx
	movl	(%ecx,%eax,4), %eax
	addl	%ecx, %ebx
	movl	-44(%ebp), %ecx
	addl	(%ebx), %eax
	addl	%eax, %esi
.LVL53:
	leal	(%esi,%edx), %eax
	movl	-32(%ebp), %esi
	movl	-32(%ebp), %edx
.LVL54:
	movl	%eax, (%ebx)
.LVL55:
	.loc 1 376 0 discriminator 1
	movl	-28(%ebp), %ebx
	rorl	$11, %edx
	rorl	$6, %esi
	xorl	%edx, %esi
	movl	K256-4(,%ecx,4), %edx
	xorl	%edi, %esi
	movl	-32(%ebp), %edi
	addl	%eax, %edx
	movl	-36(%ebp), %eax
	addl	%edx, %esi
	notl	%edi
	movl	-32(%ebp), %edx
	andl	-40(%ebp), %edi
	andl	-24(%ebp), %edx
	xorl	%edi, %edx
	.loc 1 380 0 discriminator 1
	movl	-48(%ebp), %edi
	addl	%edx, %esi
	.loc 1 376 0 discriminator 1
	movl	-36(%ebp), %edx
	.loc 1 374 0 discriminator 1
	addl	-52(%ebp), %esi
.LVL56:
	.loc 1 376 0 discriminator 1
	rorl	$2, %edx
	rorl	$13, %eax
	xorl	-20(%ebp), %ebx
	xorl	%eax, %edx
	movl	-36(%ebp), %eax
	andl	-36(%ebp), %ebx
	.loc 1 380 0 discriminator 1
	addl	%esi, %edi
	.loc 1 376 0 discriminator 1
	roll	$10, %eax
	xorl	%eax, %edx
	movl	-20(%ebp), %eax
	andl	-28(%ebp), %eax
	xorl	%ebx, %eax
	addl	%eax, %edx
.LVL57:
	movl	-28(%ebp), %eax
	.loc 1 384 0 discriminator 1
	addl	%esi, %edx
.LVL58:
	.loc 1 387 0 discriminator 1
	cmpl	$64, %ecx
	movl	%eax, -48(%ebp)
	movl	-40(%ebp), %eax
	movl	%eax, -52(%ebp)
	je	.L13
	movl	-24(%ebp), %eax
	movl	%eax, -40(%ebp)
.LVL59:
	movl	-32(%ebp), %eax
	.loc 1 380 0
	movl	%edi, -32(%ebp)
.LVL60:
	movl	%eax, -24(%ebp)
.LVL61:
	movl	-20(%ebp), %eax
.LVL62:
	movl	%eax, -28(%ebp)
.LVL63:
	movl	-36(%ebp), %eax
	.loc 1 384 0
	movl	%edx, -36(%ebp)
.LVL64:
	movl	%eax, -20(%ebp)
.LVL65:
	jmp	.L7
.LVL66:
.L13:
	.loc 1 390 0
	movl	-16(%ebp), %eax
.LVL67:
	.loc 1 391 0
	movl	-16(%ebp), %ecx
	.loc 1 390 0
	addl	%edx, (%eax)
	.loc 1 391 0
	movl	-36(%ebp), %eax
	.loc 1 394 0
	addl	%edi, 16(%ecx)
	.loc 1 391 0
	addl	%eax, 4(%ecx)
	.loc 1 392 0
	movl	-20(%ebp), %eax
	addl	%eax, 8(%ecx)
	.loc 1 393 0
	movl	-28(%ebp), %eax
	addl	%eax, 12(%ecx)
	.loc 1 395 0
	movl	-32(%ebp), %eax
	addl	%eax, 20(%ecx)
	.loc 1 396 0
	movl	-24(%ebp), %eax
	addl	%eax, 24(%ecx)
	.loc 1 397 0
	movl	-40(%ebp), %eax
	addl	%eax, 28(%ecx)
.LVL68:
	.loc 1 401 0
	addl	$52, %esp
	popl	%ebx
	.cfi_restore 3
	popl	%esi
	.cfi_restore 6
	popl	%edi
	.cfi_restore 7
	popl	%ebp
	.cfi_restore 5
	.cfi_def_cfa 4, 4
.LVL69:
	ret
	.cfi_endproc
.LFE10:
	.size	SHA256_Transform, .-SHA256_Transform
	.section	.text.unlikely.SHA256_Transform
.LCOLDE2:
	.section	.text.SHA256_Transform
.LHOTE2:
	.section	.text.unlikely.SHA512_Transform,"ax",@progbits
.LCOLDB3:
	.section	.text.SHA512_Transform,"ax",@progbits
.LHOTB3:
	.type	SHA512_Transform, @function
SHA512_Transform:
.LFB14:
	.loc 1 529 0
	.cfi_startproc
.LVL70:
	pushl	%ebp
	.cfi_def_cfa_offset 8
	.cfi_offset 5, -8
	movl	%esp, %ebp
	.cfi_def_cfa_register 5
	pushl	%edi
	pushl	%esi
	pushl	%ebx
	subl	$180, %esp
	.cfi_offset 7, -12
	.cfi_offset 6, -16
	.cfi_offset 3, -20
	.loc 1 529 0
	movl	%eax, -20(%ebp)
	.loc 1 531 0
	addl	$80, %eax
.LVL71:
	movl	%eax, -92(%ebp)
.LVL72:
	.loc 1 535 0
	movl	-20(%ebp), %eax
.LVL73:
	.loc 1 529 0
	movl	%edx, -96(%ebp)
	.loc 1 535 0
	movl	4(%eax), %edx
.LVL74:
	movl	(%eax), %eax
	movl	%eax, -32(%ebp)
	.loc 1 536 0
	movl	-20(%ebp), %eax
	.loc 1 535 0
	movl	%edx, -28(%ebp)
.LVL75:
	.loc 1 536 0
	movl	12(%eax), %edx
	movl	8(%eax), %eax
	movl	%eax, -48(%ebp)
	.loc 1 537 0
	movl	-20(%ebp), %eax
	.loc 1 536 0
	movl	%edx, -44(%ebp)
.LVL76:
	.loc 1 537 0
	movl	20(%eax), %edx
	movl	16(%eax), %eax
	movl	%eax, -80(%ebp)
	.loc 1 538 0
	movl	-20(%ebp), %eax
	.loc 1 537 0
	movl	%edx, -76(%ebp)
.LVL77:
	.loc 1 538 0
	movl	28(%eax), %edx
	movl	24(%eax), %eax
	movl	%eax, -104(%ebp)
	.loc 1 539 0
	movl	-20(%ebp), %eax
	.loc 1 538 0
	movl	%edx, -100(%ebp)
.LVL78:
	.loc 1 539 0
	movl	36(%eax), %edx
	movl	32(%eax), %eax
	movl	%eax, -40(%ebp)
	movl	%edx, -36(%ebp)
.LVL79:
	.loc 1 540 0
	movl	-20(%ebp), %eax
	.loc 1 542 0
	movl	$0, -24(%ebp)
	.loc 1 540 0
	movl	44(%eax), %edx
	movl	40(%eax), %eax
	movl	%eax, -64(%ebp)
	.loc 1 541 0
	movl	-20(%ebp), %eax
	.loc 1 540 0
	movl	%edx, -60(%ebp)
.LVL80:
	.loc 1 541 0
	movl	52(%eax), %edx
	movl	48(%eax), %eax
	movl	%eax, -88(%ebp)
	.loc 1 542 0
	movl	-20(%ebp), %eax
	.loc 1 541 0
	movl	%edx, -84(%ebp)
.LVL81:
	.loc 1 542 0
	movl	60(%eax), %edx
	movl	56(%eax), %eax
	movl	%edx, -108(%ebp)
.LVL82:
	movl	%eax, -112(%ebp)
.LVL83:
.L15:
.LBB56:
.LBB57:
.LBB58:
	.loc 1 306 0 discriminator 1
	movl	-24(%ebp), %edi
	movl	-96(%ebp), %eax
	movl	4(%eax,%edi), %edx
	movl	(%eax,%edi), %eax
	call	reverse_64bit
.LVL84:
.LBE58:
.LBE57:
.LBE56:
	.loc 1 547 0 discriminator 1
	movl	-92(%ebp), %edi
	movl	-24(%ebp), %ebx
	.loc 1 548 0 discriminator 1
	movl	-40(%ebp), %esi
	movl	-40(%ebp), %ecx
.LBB61:
.LBB60:
.LBB59:
	.loc 1 306 0 discriminator 1
	movl	%eax, -56(%ebp)
	movl	%edx, -52(%ebp)
.LBE59:
.LBE60:
.LBE61:
	.loc 1 547 0 discriminator 1
	movl	%eax, (%edi,%ebx)
	movl	%edx, 4(%edi,%ebx)
	.loc 1 548 0 discriminator 1
	movl	-36(%ebp), %edi
	movl	%esi, %ebx
	movl	%ecx, %eax
	movl	-52(%ebp), %edx
	shrdl	$14, %edi, %esi
	shrdl	$14, %ebx, %edi
	movl	-36(%ebp), %ebx
	shrdl	$18, %ebx, %ecx
	shrdl	$18, %eax, %ebx
	xorl	%ecx, %esi
	movl	-40(%ebp), %ecx
	xorl	%ebx, %edi
	movl	-36(%ebp), %ebx
	movl	%ecx, %eax
	shldl	$23, %ebx, %ecx
	shldl	$23, %eax, %ebx
	xorl	%ecx, %esi
	movl	-56(%ebp), %eax
	xorl	%ebx, %edi
	movl	%esi, -120(%ebp)
	movl	%edi, -116(%ebp)
	movl	-24(%ebp), %edi
	addl	K512(%edi), %eax
	adcl	K512+4(%edi), %edx
	addl	-120(%ebp), %eax
	adcl	-116(%ebp), %edx
	movl	%eax, %esi
	movl	-36(%ebp), %eax
	movl	%edx, %edi
	movl	-40(%ebp), %edx
	notl	%eax
	andl	-84(%ebp), %eax
	notl	%edx
	andl	-88(%ebp), %edx
	movl	-40(%ebp), %ebx
	movl	-36(%ebp), %ecx
	andl	-60(%ebp), %ecx
	andl	-64(%ebp), %ebx
	xorl	%ecx, %eax
	.loc 1 550 0 discriminator 1
	movl	-32(%ebp), %ecx
	.loc 1 548 0 discriminator 1
	xorl	%ebx, %edx
	.loc 1 550 0 discriminator 1
	movl	-28(%ebp), %ebx
	.loc 1 548 0 discriminator 1
	movl	%eax, -124(%ebp)
	movl	%edx, -128(%ebp)
	addl	-128(%ebp), %esi
	adcl	-124(%ebp), %edi
	.loc 1 550 0 discriminator 1
	movl	%ecx, %eax
	.loc 1 548 0 discriminator 1
	addl	-112(%ebp), %esi
	adcl	-108(%ebp), %edi
	.loc 1 550 0 discriminator 1
	movl	-28(%ebp), %edx
	shrdl	$28, %ebx, %ecx
	shrdl	$28, %eax, %ebx
	movl	-32(%ebp), %eax
	.loc 1 548 0 discriminator 1
	movl	%esi, -72(%ebp)
	movl	%edi, -68(%ebp)
.LVL85:
	.loc 1 550 0 discriminator 1
	movl	%eax, %esi
	shldl	$30, %edx, %eax
	shldl	$30, %esi, %edx
	xorl	%eax, %ecx
	movl	-32(%ebp), %eax
	xorl	%edx, %ebx
	movl	-28(%ebp), %edx
	movl	%eax, %esi
	shldl	$25, %edx, %eax
	shldl	$25, %esi, %edx
	xorl	%eax, %ecx
	movl	-76(%ebp), %eax
	xorl	-44(%ebp), %eax
	xorl	%edx, %ebx
	movl	-80(%ebp), %edx
	xorl	-48(%ebp), %edx
	andl	-32(%ebp), %edx
	andl	-28(%ebp), %eax
	movl	%ecx, -136(%ebp)
	movl	%ebx, -132(%ebp)
	movl	-44(%ebp), %ecx
	movl	-48(%ebp), %ebx
	andl	-76(%ebp), %ecx
	andl	-80(%ebp), %ebx
	xorl	%ecx, %eax
	xorl	%ebx, %edx
	movl	%edx, -144(%ebp)
	movl	%eax, -140(%ebp)
	movl	-136(%ebp), %eax
	addl	-144(%ebp), %eax
	.loc 1 558 0 discriminator 1
	movl	-72(%ebp), %esi
	.loc 1 550 0 discriminator 1
	movl	-132(%ebp), %edx
	adcl	-140(%ebp), %edx
.LVL86:
	.loc 1 558 0 discriminator 1
	movl	-68(%ebp), %edi
	.loc 1 554 0 discriminator 1
	movl	-104(%ebp), %ecx
	addl	-72(%ebp), %ecx
	movl	-100(%ebp), %ebx
	adcl	-68(%ebp), %ebx
	.loc 1 558 0 discriminator 1
	addl	%eax, %esi
	movl	-80(%ebp), %eax
.LVL87:
	movl	%esi, -72(%ebp)
.LVL88:
	adcl	%edx, %edi
	movl	-76(%ebp), %edx
	addl	$8, -24(%ebp)
.LVL89:
	.loc 1 561 0 discriminator 1
	cmpl	$128, -24(%ebp)
	.loc 1 554 0 discriminator 1
	movl	%ecx, -56(%ebp)
	movl	%eax, -104(%ebp)
.LVL90:
	movl	-88(%ebp), %eax
	movl	%edx, -100(%ebp)
	movl	-84(%ebp), %edx
	movl	%ebx, -52(%ebp)
.LVL91:
	.loc 1 558 0 discriminator 1
	movl	%edi, -68(%ebp)
.LVL92:
	movl	%eax, -112(%ebp)
	movl	%edx, -108(%ebp)
	.loc 1 561 0 discriminator 1
	je	.L20
	movl	-64(%ebp), %eax
	movl	-60(%ebp), %edx
	movl	%eax, -88(%ebp)
.LVL93:
	movl	%edx, -84(%ebp)
	movl	-40(%ebp), %eax
	movl	-36(%ebp), %edx
	movl	%eax, -64(%ebp)
.LVL94:
	movl	%edx, -60(%ebp)
	.loc 1 554 0
	movl	-56(%ebp), %eax
	movl	-52(%ebp), %edx
	movl	%eax, -40(%ebp)
.LVL95:
	movl	%edx, -36(%ebp)
	movl	-48(%ebp), %eax
	movl	-44(%ebp), %edx
	movl	%eax, -80(%ebp)
.LVL96:
	movl	%edx, -76(%ebp)
	movl	-32(%ebp), %eax
	movl	-28(%ebp), %edx
	movl	%eax, -48(%ebp)
.LVL97:
	movl	%edx, -44(%ebp)
	.loc 1 558 0
	movl	-72(%ebp), %eax
	movl	-68(%ebp), %edx
	movl	%eax, -32(%ebp)
.LVL98:
	movl	%edx, -28(%ebp)
	jmp	.L15
.LVL99:
.L20:
	movl	$16, -24(%ebp)
.LVL100:
.L16:
	.loc 1 565 0 discriminator 1
	incl	-24(%ebp)
.LVL101:
	movl	-92(%ebp), %edi
	movl	-24(%ebp), %eax
	andl	$15, %eax
	movl	4(%edi,%eax,8), %edx
	movl	(%edi,%eax,8), %eax
	movl	%edx, -100(%ebp)
.LVL102:
	movl	%eax, -104(%ebp)
.LVL103:
	.loc 1 566 0 discriminator 1
	movl	%eax, %esi
	movl	-104(%ebp), %ecx
	movl	-100(%ebp), %ebx
	movl	%edx, %edi
	shrdl	$1, %edx, %esi
	shrdl	$1, %eax, %edi
	movl	%ecx, %eax
	movl	-100(%ebp), %edx
	shrdl	$8, %ebx, %ecx
	shrdl	$8, %eax, %ebx
	movl	%esi, %eax
	xorl	%ecx, %eax
	movl	%eax, -120(%ebp)
	movl	%edi, %eax
	.loc 1 567 0 discriminator 1
	movl	-92(%ebp), %edi
	.loc 1 566 0 discriminator 1
	xorl	%ebx, %eax
	movl	%eax, -128(%ebp)
	movl	-104(%ebp), %eax
	shrdl	$7, %edx, %eax
	shrl	$7, %edx
	movl	%eax, -112(%ebp)
	.loc 1 567 0 discriminator 1
	movl	-24(%ebp), %eax
	.loc 1 566 0 discriminator 1
	movl	%edx, -108(%ebp)
.LVL104:
	.loc 1 567 0 discriminator 1
	addl	$13, %eax
	andl	$15, %eax
	movl	4(%edi,%eax,8), %edx
	movl	(%edi,%eax,8), %eax
	movl	%edx, -100(%ebp)
.LVL105:
	movl	%eax, -104(%ebp)
.LVL106:
	.loc 1 568 0 discriminator 1
	movl	%eax, %esi
	movl	-104(%ebp), %ecx
	movl	-100(%ebp), %ebx
	movl	%edx, %edi
	shrdl	$19, %edx, %esi
	shrdl	$19, %eax, %edi
	movl	%ecx, %eax
	movl	-100(%ebp), %edx
	shldl	$3, %ebx, %ecx
	shldl	$3, %eax, %ebx
	movl	%esi, %eax
	xorl	%ecx, %eax
	movl	%eax, -136(%ebp)
	movl	%edi, %eax
	xorl	%ebx, %eax
	movl	%eax, -144(%ebp)
	movl	-104(%ebp), %eax
	shrdl	$6, %edx, %eax
	shrl	$6, %edx
	movl	%eax, %ecx
	.loc 1 572 0 discriminator 1
	movl	-24(%ebp), %eax
	.loc 1 568 0 discriminator 1
	movl	%edx, %ebx
.LVL107:
	.loc 1 572 0 discriminator 1
	leal	120(,%eax,8), %esi
	addl	$8, %eax
	andl	$15, %eax
	andl	$120, %esi
	addl	-92(%ebp), %esi
	movl	%esi, %edi
	movl	%esi, -104(%ebp)
	movl	(%esi), %esi
	movl	4(%edi), %edi
	movl	-92(%ebp), %edx
	addl	(%edx,%eax,8), %esi
	adcl	4(%edx,%eax,8), %edi
	movl	%esi, %eax
	movl	%edi, %edx
	movl	-120(%ebp), %edi
	xorl	-112(%ebp), %edi
	movl	%edi, -152(%ebp)
	movl	-128(%ebp), %edi
	xorl	-108(%ebp), %edi
	addl	-152(%ebp), %eax
	movl	%edi, -148(%ebp)
	movl	-136(%ebp), %edi
	adcl	-148(%ebp), %edx
	xorl	%ecx, %edi
	movl	-56(%ebp), %ecx
.LVL108:
	movl	%edi, -160(%ebp)
	movl	-144(%ebp), %edi
	xorl	%ebx, %edi
	addl	-160(%ebp), %eax
	movl	-52(%ebp), %ebx
	movl	%edi, -156(%ebp)
	adcl	-156(%ebp), %edx
	movl	%eax, -112(%ebp)
.LVL109:
	movl	%ecx, %eax
	movl	%edx, -108(%ebp)
	movl	-52(%ebp), %edx
	shrdl	$14, %ebx, %ecx
	shrdl	$14, %eax, %ebx
	movl	-56(%ebp), %eax
	movl	%eax, %edi
	shrdl	$18, %edx, %eax
	shrdl	$18, %edi, %edx
	xorl	%eax, %ecx
	movl	-56(%ebp), %eax
	movl	-24(%ebp), %edi
	xorl	%edx, %ebx
	movl	-52(%ebp), %edx
	movl	%eax, %esi
	shldl	$23, %edx, %eax
	shldl	$23, %esi, %edx
	xorl	%eax, %ecx
	xorl	%edx, %ebx
	movl	%ecx, -168(%ebp)
	movl	%ebx, -164(%ebp)
	movl	-112(%ebp), %eax
	addl	K512-8(,%edi,8), %eax
	movl	-108(%ebp), %edx
	adcl	K512-4(,%edi,8), %edx
	addl	-168(%ebp), %eax
	adcl	-164(%ebp), %edx
	movl	-56(%ebp), %edi
	andl	-40(%ebp), %edi
	movl	%eax, %ecx
	movl	-52(%ebp), %eax
	movl	%edx, %ebx
	movl	-56(%ebp), %edx
	movl	%edi, %esi
	movl	-52(%ebp), %edi
	andl	-36(%ebp), %edi
	notl	%eax
	andl	-60(%ebp), %eax
	notl	%edx
	andl	-64(%ebp), %edx
	movl	%edi, -120(%ebp)
	xorl	-120(%ebp), %eax
	movl	-104(%ebp), %edi
	xorl	%esi, %edx
	movl	-108(%ebp), %esi
	movl	%edx, -176(%ebp)
	movl	%ebx, %edx
	movl	-112(%ebp), %ebx
	movl	%eax, -172(%ebp)
	movl	%ecx, %eax
	addl	-176(%ebp), %eax
	adcl	-172(%ebp), %edx
	movl	%esi, 4(%edi)
	.loc 1 571 0 discriminator 1
	movl	-88(%ebp), %esi
	.loc 1 572 0 discriminator 1
	movl	%ebx, (%edi)
	.loc 1 571 0 discriminator 1
	movl	-84(%ebp), %edi
	addl	%eax, %esi
	adcl	%edx, %edi
	movl	%esi, -88(%ebp)
.LVL110:
	movl	%edi, -84(%ebp)
.LVL111:
	.loc 1 573 0 discriminator 1
	movl	-72(%ebp), %ecx
	movl	-68(%ebp), %ebx
	movl	-68(%ebp), %edx
	movl	%ecx, %eax
	shrdl	$28, %ebx, %ecx
	shrdl	$28, %eax, %ebx
	movl	-72(%ebp), %eax
	movl	%eax, %edi
	shldl	$30, %edx, %eax
	shldl	$30, %edi, %edx
	xorl	%eax, %ecx
	movl	-72(%ebp), %eax
	xorl	%edx, %ebx
	movl	-68(%ebp), %edx
	movl	%eax, %esi
	shldl	$25, %edx, %eax
	shldl	$25, %esi, %edx
	xorl	%eax, %ecx
	movl	-44(%ebp), %eax
	xorl	-28(%ebp), %eax
	xorl	%edx, %ebx
	movl	-48(%ebp), %edx
	xorl	-32(%ebp), %edx
	movl	%ecx, -184(%ebp)
	movl	%ebx, -180(%ebp)
	andl	-72(%ebp), %edx
	andl	-68(%ebp), %eax
	movl	-32(%ebp), %ebx
	movl	-28(%ebp), %ecx
	andl	-48(%ebp), %ebx
	andl	-44(%ebp), %ecx
	xorl	%ebx, %edx
	xorl	%ecx, %eax
	.loc 1 577 0 discriminator 1
	movl	-80(%ebp), %ecx
	.loc 1 573 0 discriminator 1
	movl	%edx, -192(%ebp)
	movl	%eax, -188(%ebp)
	movl	-184(%ebp), %eax
	addl	-192(%ebp), %eax
	movl	-180(%ebp), %edx
	adcl	-188(%ebp), %edx
.LVL112:
	.loc 1 577 0 discriminator 1
	addl	-88(%ebp), %ecx
	movl	-76(%ebp), %ebx
	adcl	-84(%ebp), %ebx
.LVL113:
	.loc 1 581 0 discriminator 1
	addl	-88(%ebp), %eax
.LVL114:
	adcl	-84(%ebp), %edx
.LVL115:
	movl	-48(%ebp), %esi
	movl	-44(%ebp), %edi
	.loc 1 584 0 discriminator 1
	cmpl	$80, -24(%ebp)
	movl	%esi, -80(%ebp)
	movl	-64(%ebp), %esi
	movl	%edi, -76(%ebp)
	movl	-60(%ebp), %edi
	movl	%esi, -88(%ebp)
.LVL116:
	movl	%edi, -84(%ebp)
	je	.L21
	movl	-40(%ebp), %esi
	movl	-36(%ebp), %edi
	movl	%esi, -64(%ebp)
.LVL117:
	movl	-56(%ebp), %esi
	movl	%edi, -60(%ebp)
	movl	-52(%ebp), %edi
	.loc 1 577 0
	movl	%ebx, -52(%ebp)
.LVL118:
	movl	-32(%ebp), %ebx
	movl	%esi, -40(%ebp)
.LVL119:
	movl	-28(%ebp), %esi
	movl	%edi, -36(%ebp)
	movl	%ecx, -56(%ebp)
	movl	%ebx, -48(%ebp)
.LVL120:
	movl	-72(%ebp), %ebx
	movl	%esi, -44(%ebp)
	movl	-68(%ebp), %esi
	.loc 1 581 0
	movl	%eax, -72(%ebp)
.LVL121:
	movl	%edx, -68(%ebp)
	movl	%ebx, -32(%ebp)
.LVL122:
	movl	%esi, -28(%ebp)
	jmp	.L16
.LVL123:
.L21:
	.loc 1 587 0
	movl	-20(%ebp), %esi
	addl	%eax, (%esi)
	.loc 1 588 0
	movl	-72(%ebp), %eax
.LVL124:
	.loc 1 587 0
	adcl	%edx, 4(%esi)
	.loc 1 588 0
	movl	-68(%ebp), %edx
	addl	%eax, 8(%esi)
	.loc 1 589 0
	movl	-32(%ebp), %eax
	.loc 1 588 0
	adcl	%edx, 12(%esi)
	.loc 1 589 0
	addl	%eax, 16(%esi)
	movl	-28(%ebp), %edx
	.loc 1 590 0
	movl	-48(%ebp), %eax
	.loc 1 589 0
	adcl	%edx, 20(%esi)
	.loc 1 590 0
	addl	%eax, 24(%esi)
	movl	-44(%ebp), %edx
	adcl	%edx, 28(%esi)
	.loc 1 591 0
	addl	%ecx, 32(%esi)
	adcl	%ebx, 36(%esi)
	.loc 1 592 0
	movl	-56(%ebp), %eax
	addl	%eax, 40(%esi)
	movl	-52(%ebp), %edx
	.loc 1 593 0
	movl	-40(%ebp), %eax
	.loc 1 592 0
	adcl	%edx, 44(%esi)
	.loc 1 593 0
	addl	%eax, 48(%esi)
	movl	-36(%ebp), %edx
	.loc 1 594 0
	movl	-64(%ebp), %eax
	.loc 1 593 0
	adcl	%edx, 52(%esi)
	.loc 1 594 0
	addl	%eax, 56(%esi)
	movl	-60(%ebp), %edx
	adcl	%edx, 60(%esi)
.LVL125:
	.loc 1 598 0
	addl	$180, %esp
	popl	%ebx
	.cfi_restore 3
	popl	%esi
	.cfi_restore 6
	popl	%edi
	.cfi_restore 7
	popl	%ebp
	.cfi_restore 5
	.cfi_def_cfa 4, 4
.LVL126:
	ret
	.cfi_endproc
.LFE14:
	.size	SHA512_Transform, .-SHA512_Transform
	.section	.text.unlikely.SHA512_Transform
.LCOLDE3:
	.section	.text.SHA512_Transform
.LHOTE3:
	.section	.text.unlikely.SHA256_Init,"ax",@progbits
.LCOLDB4:
	.section	.text.SHA256_Init,"ax",@progbits
.LHOTB4:
	.type	SHA256_Init, @function
SHA256_Init:
.LFB9:
	.loc 1 317 0
	.cfi_startproc
.LVL127:
	.loc 1 318 0
	testl	%eax, %eax
	je	.L29
	.loc 1 317 0
	pushl	%ebp
	.cfi_def_cfa_offset 8
	.cfi_offset 5, -8
	movl	%eax, %edx
	.loc 1 321 0
	movl	$8, %eax
.LVL128:
	movl	%eax, %ecx
	.loc 1 317 0
	movl	%esp, %ebp
	.cfi_def_cfa_register 5
	pushl	%edi
	.cfi_offset 7, -12
	.loc 1 321 0
	movl	%edx, %edi
	.loc 1 317 0
	pushl	%esi
	.cfi_offset 6, -16
	.loc 1 321 0
	movl	$sha256_initial_hash_value, %esi
	.loc 1 317 0
	pushl	%ebx
	.cfi_offset 3, -20
	.loc 1 321 0
	rep movsl
	.loc 1 322 0
	leal	40(%edx), %ebx
	movl	%ebx, %edi
	.loc 1 321 0
	movl	%ecx, %eax
	.loc 1 322 0
	movl	$16, %ecx
	rep stosl
	.loc 1 323 0
	movl	$0, 32(%edx)
	movl	$0, 36(%edx)
	.loc 1 324 0
	popl	%ebx
	.cfi_restore 3
	popl	%esi
	.cfi_restore 6
	popl	%edi
	.cfi_restore 7
	popl	%ebp
	.cfi_restore 5
	.cfi_def_cfa 4, 4
.LVL129:
.L29:
	ret
	.cfi_endproc
.LFE9:
	.size	SHA256_Init, .-SHA256_Init
	.section	.text.unlikely.SHA256_Init
.LCOLDE4:
	.section	.text.SHA256_Init
.LHOTE4:
	.section	.text.unlikely.SHA384_Init,"ax",@progbits
.LCOLDB5:
	.section	.text.SHA384_Init,"ax",@progbits
.LHOTB5:
	.type	SHA384_Init, @function
SHA384_Init:
.LFB18:
	.loc 1 727 0
	.cfi_startproc
.LVL130:
	.loc 1 728 0
	testl	%eax, %eax
	je	.L37
	.loc 1 727 0
	pushl	%ebp
	.cfi_def_cfa_offset 8
	.cfi_offset 5, -8
	movl	%eax, %edx
	.loc 1 731 0
	movl	$16, %eax
.LVL131:
	movl	%eax, %ecx
	.loc 1 727 0
	movl	%esp, %ebp
	.cfi_def_cfa_register 5
	pushl	%edi
	.cfi_offset 7, -12
	.loc 1 731 0
	movl	%edx, %edi
	.loc 1 727 0
	pushl	%esi
	.cfi_offset 6, -16
	.loc 1 731 0
	movl	$sha384_initial_hash_value, %esi
	.loc 1 727 0
	pushl	%ebx
	.cfi_offset 3, -20
	.loc 1 731 0
	rep movsl
	.loc 1 732 0
	leal	80(%edx), %ebx
	movl	%ebx, %edi
	.loc 1 731 0
	movl	%ecx, %eax
	.loc 1 732 0
	movl	$32, %ecx
	rep stosl
	.loc 1 733 0
	movl	$0, 72(%edx)
	movl	$0, 76(%edx)
	movl	$0, 64(%edx)
	movl	$0, 68(%edx)
	.loc 1 734 0
	popl	%ebx
	.cfi_restore 3
	popl	%esi
	.cfi_restore 6
	popl	%edi
	.cfi_restore 7
	popl	%ebp
	.cfi_restore 5
	.cfi_def_cfa 4, 4
.LVL132:
.L37:
	ret
	.cfi_endproc
.LFE18:
	.size	SHA384_Init, .-SHA384_Init
	.section	.text.unlikely.SHA384_Init
.LCOLDE5:
	.section	.text.SHA384_Init
.LHOTE5:
	.section	.text.unlikely.SHA512_Init,"ax",@progbits
.LCOLDB6:
	.section	.text.SHA512_Init,"ax",@progbits
.LHOTB6:
	.type	SHA512_Init, @function
SHA512_Init:
.LFB13:
	.loc 1 519 0
	.cfi_startproc
.LVL133:
	.loc 1 520 0
	testl	%eax, %eax
	je	.L45
	.loc 1 519 0
	pushl	%ebp
	.cfi_def_cfa_offset 8
	.cfi_offset 5, -8
	movl	%eax, %edx
	.loc 1 523 0
	movl	$16, %eax
.LVL134:
	movl	%eax, %ecx
	.loc 1 519 0
	movl	%esp, %ebp
	.cfi_def_cfa_register 5
	pushl	%edi
	.cfi_offset 7, -12
	.loc 1 523 0
	movl	%edx, %edi
	.loc 1 519 0
	pushl	%esi
	.cfi_offset 6, -16
	.loc 1 523 0
	movl	$sha512_initial_hash_value, %esi
	.loc 1 519 0
	pushl	%ebx
	.cfi_offset 3, -20
	.loc 1 523 0
	rep movsl
	.loc 1 524 0
	leal	80(%edx), %ebx
	movl	%ebx, %edi
	.loc 1 523 0
	movl	%ecx, %eax
	.loc 1 524 0
	movl	$32, %ecx
	rep stosl
	.loc 1 525 0
	movl	$0, 72(%edx)
	movl	$0, 76(%edx)
	movl	$0, 64(%edx)
	movl	$0, 68(%edx)
	.loc 1 526 0
	popl	%ebx
	.cfi_restore 3
	popl	%esi
	.cfi_restore 6
	popl	%edi
	.cfi_restore 7
	popl	%ebp
	.cfi_restore 5
	.cfi_def_cfa 4, 4
.LVL135:
.L45:
	ret
	.cfi_endproc
.LFE13:
	.size	SHA512_Init, .-SHA512_Init
	.section	.text.unlikely.SHA512_Init
.LCOLDE6:
	.section	.text.SHA512_Init
.LHOTE6:
	.section	.text.unlikely.SHA256_Final,"ax",@progbits
.LCOLDB7:
	.section	.text.SHA256_Final,"ax",@progbits
.LHOTB7:
	.type	SHA256_Final, @function
SHA256_Final:
.LFB12:
	.loc 1 456 0
	.cfi_startproc
.LVL136:
	.loc 1 461 0
	testl	%edx, %edx
	je	.L64
	.loc 1 456 0
	pushl	%ebp
	.cfi_def_cfa_offset 8
	.cfi_offset 5, -8
	movl	%esp, %ebp
	.cfi_def_cfa_register 5
	pushl	%edi
	pushl	%esi
	pushl	%ebx
	.cfi_offset 7, -12
	.cfi_offset 6, -16
	.cfi_offset 3, -20
	movl	%edx, %esi
	subl	$12, %esp
	.loc 1 466 0
	testl	%eax, %eax
	movl	%eax, -20(%ebp)
	jne	.L48
.LVL137:
.L54:
	.loc 1 512 0
	movl	%esi, %edi
	movl	$26, %ecx
	xorl	%eax, %eax
	rep stosl
.LVL138:
	.loc 1 514 0
	addl	$12, %esp
	popl	%ebx
	.cfi_remember_state
	.cfi_restore 3
	popl	%esi
	.cfi_restore 6
.LVL139:
	popl	%edi
	.cfi_restore 7
	popl	%ebp
	.cfi_restore 5
	.cfi_def_cfa 4, 4
.LVL140:
	jmp	.L64
.LVL141:
.L48:
	.cfi_restore_state
	.loc 1 467 0
	movl	32(%edx), %eax
.LVL142:
	movl	36(%edx), %edx
.LVL143:
	movl	%eax, %ecx
	shrdl	$3, %edx, %ecx
	movl	%ecx, %ebx
	andl	$63, %ebx
.LVL144:
.LBB62:
.LBB63:
	.loc 1 306 0
	call	reverse_64bit
.LVL145:
.LBE63:
.LBE62:
	.loc 1 468 0
	movl	%eax, 32(%esi)
	leal	40(%esi), %eax
	.loc 1 469 0
	testl	%ebx, %ebx
	.loc 1 468 0
	movl	%edx, 36(%esi)
	movl	%eax, -24(%ebp)
	.loc 1 469 0
	je	.L49
	.loc 1 471 0
	leal	1(%ebx), %eax
.LVL146:
	movb	$-128, 40(%esi,%ebx)
	.loc 1 473 0
	cmpl	$56, %eax
	ja	.L50
	.loc 1 475 0
	leal	41(%esi,%ebx), %edx
	movl	$56, %ecx
	subl	%eax, %ecx
	xorl	%eax, %eax
.LVL147:
	movl	%edx, %edi
	rep stosb
	jmp	.L51
.LVL148:
.L50:
	.loc 1 478 0
	cmpl	$64, %eax
	je	.L52
	.loc 1 479 0
	leal	41(%esi,%ebx), %edx
	movl	$64, %ecx
	subl	%eax, %ecx
	xorl	%eax, %eax
.LVL149:
	movl	%edx, %edi
	rep stosb
.L52:
	.loc 1 482 0
	leal	40(%esi), %edx
	movl	%esi, %eax
	.loc 1 485 0
	leal	40(%esi), %edi
	.loc 1 482 0
	call	SHA256_Transform
.LVL150:
	.loc 1 485 0
	movl	$14, %ecx
	xorl	%eax, %eax
	rep stosl
	jmp	.L51
.LVL151:
.L49:
	.loc 1 489 0
	leal	40(%esi), %edi
	movl	$14, %ecx
	movl	%ebx, %eax
	rep stosl
	.loc 1 492 0
	movb	$-128, 40(%esi)
.LVL152:
.L51:
	.loc 1 495 0
	movl	36(%esi), %edx
	movl	32(%esi), %eax
	movl	%edx, 100(%esi)
	.loc 1 499 0
	leal	40(%esi), %edx
	.loc 1 495 0
	movl	%eax, 96(%esi)
	.loc 1 499 0
	movl	%esi, %eax
	call	SHA256_Transform
.LVL153:
.LBB64:
	.loc 1 504 0
	xorl	%edx, %edx
.LVL154:
.L53:
.LBB65:
.LBB66:
.LBB67:
	.loc 1 296 0 discriminator 3
	movl	(%esi,%edx,4), %eax
	call	reverse_32bit
.LVL155:
.LBE67:
.LBE66:
.LBE65:
	.loc 1 506 0 discriminator 3
	movl	-20(%ebp), %edi
	.loc 1 505 0 discriminator 3
	movl	%eax, (%esi,%edx,4)
.LVL156:
	.loc 1 506 0 discriminator 3
	movl	%eax, (%edi,%edx,4)
	.loc 1 504 0 discriminator 3
	incl	%edx
.LVL157:
	cmpl	$8, %edx
	jne	.L53
	jmp	.L54
.LVL158:
.L64:
	.cfi_def_cfa 4, 4
	.cfi_restore 3
	.cfi_restore 5
	.cfi_restore 6
	.cfi_restore 7
.LBE64:
	.loc 1 514 0
	ret
	.cfi_endproc
.LFE12:
	.size	SHA256_Final, .-SHA256_Final
	.section	.text.unlikely.SHA256_Final
.LCOLDE7:
	.section	.text.SHA256_Final
.LHOTE7:
	.section	.text.unlikely.SHA512_Last,"ax",@progbits
.LCOLDB8:
	.section	.text.SHA512_Last,"ax",@progbits
.LHOTB8:
	.type	SHA512_Last, @function
SHA512_Last:
.LFB16:
	.loc 1 653 0
	.cfi_startproc
.LVL159:
	pushl	%ebp
	.cfi_def_cfa_offset 8
	.cfi_offset 5, -8
	movl	%esp, %ebp
	.cfi_def_cfa_register 5
	pushl	%edi
	pushl	%esi
	pushl	%ebx
	.cfi_offset 7, -12
	.cfi_offset 6, -16
	.cfi_offset 3, -20
	movl	%eax, %esi
	subl	$12, %esp
	.loc 1 656 0
	movl	64(%eax), %eax
.LVL160:
	movl	68(%esi), %edx
	movl	%eax, %ecx
	shrdl	$3, %edx, %ecx
	movl	%ecx, %ebx
.LBB68:
.LBB69:
	.loc 1 306 0
	call	reverse_64bit
.LVL161:
.LBE69:
.LBE68:
	.loc 1 658 0
	movl	%eax, 64(%esi)
	movl	%edx, 68(%esi)
	.loc 1 656 0
	andl	$127, %ebx
.LVL162:
.LBB70:
.LBB71:
	.loc 1 306 0
	movl	72(%esi), %eax
	movl	76(%esi), %edx
	call	reverse_64bit
.LVL163:
.LBE71:
.LBE70:
	.loc 1 659 0
	movl	%eax, 72(%esi)
	leal	80(%esi), %eax
	.loc 1 661 0
	testl	%ebx, %ebx
	.loc 1 659 0
	movl	%edx, 76(%esi)
	movl	%eax, -20(%ebp)
	.loc 1 661 0
	je	.L66
	.loc 1 663 0
	leal	1(%ebx), %eax
.LVL164:
	movb	$-128, 80(%esi,%ebx)
	.loc 1 665 0
	cmpl	$112, %eax
	ja	.L67
	.loc 1 667 0
	leal	81(%esi,%ebx), %edx
	movl	$112, %ecx
	subl	%eax, %ecx
	xorl	%eax, %eax
.LVL165:
	movl	%edx, %edi
	jmp	.L74
.LVL166:
.L67:
	.loc 1 670 0
	cmpl	$128, %eax
	je	.L69
	.loc 1 671 0
	leal	81(%esi,%ebx), %edx
	movl	$128, %ecx
	subl	%eax, %ecx
	xorl	%eax, %eax
.LVL167:
	movl	%edx, %edi
	rep stosb
.L69:
	.loc 1 674 0
	leal	80(%esi), %edx
	movl	%esi, %eax
	.loc 1 677 0
	leal	80(%esi), %edi
	.loc 1 674 0
	call	SHA512_Transform
.LVL168:
	.loc 1 677 0
	movl	$126, %ecx
	xorl	%eax, %eax
.L74:
	rep stosb
	jmp	.L68
.LVL169:
.L66:
	.loc 1 681 0
	leal	80(%esi), %edi
	movl	$28, %ecx
	movl	%ebx, %eax
	rep stosl
	.loc 1 684 0
	movb	$-128, 80(%esi)
.LVL170:
.L68:
	.loc 1 687 0
	movl	72(%esi), %eax
	movl	76(%esi), %edx
	movl	%eax, 192(%esi)
	movl	%edx, 196(%esi)
	.loc 1 689 0
	movl	64(%esi), %eax
	movl	68(%esi), %edx
	movl	%eax, 200(%esi)
	movl	%edx, 204(%esi)
	.loc 1 694 0
	addl	$12, %esp
	popl	%ebx
	.cfi_restore 3
	.loc 1 693 0
	leal	80(%esi), %edx
	movl	%esi, %eax
	.loc 1 694 0
	popl	%esi
	.cfi_restore 6
.LVL171:
	popl	%edi
	.cfi_restore 7
	popl	%ebp
	.cfi_restore 5
	.cfi_def_cfa 4, 4
	.loc 1 693 0
	jmp	SHA512_Transform
.LVL172:
	.cfi_endproc
.LFE16:
	.size	SHA512_Last, .-SHA512_Last
	.section	.text.unlikely.SHA512_Last
.LCOLDE8:
	.section	.text.SHA512_Last
.LHOTE8:
	.section	.text.unlikely.SHA384_Final,"ax",@progbits
.LCOLDB9:
	.section	.text.SHA384_Final,"ax",@progbits
.LHOTB9:
	.type	SHA384_Final, @function
SHA384_Final:
.LFB20:
	.loc 1 743 0
	.cfi_startproc
.LVL173:
	.loc 1 747 0
	testl	%edx, %edx
	je	.L86
	.loc 1 743 0
	pushl	%ebp
	.cfi_def_cfa_offset 8
	.cfi_offset 5, -8
	.loc 1 752 0
	testl	%eax, %eax
	.loc 1 743 0
	movl	%esp, %ebp
	.cfi_def_cfa_register 5
	pushl	%edi
	.cfi_offset 7, -12
	movl	%eax, %edi
	pushl	%esi
	pushl	%ebx
	.cfi_offset 6, -16
	.cfi_offset 3, -20
	movl	%edx, %ebx
	pushl	%ecx
	.loc 1 752 0
	jne	.L77
.LVL174:
.L79:
	.loc 1 767 0
	movl	$0, (%ebx)
	.loc 1 768 0
	popl	%eax
	popl	%ebx
	.cfi_remember_state
	.cfi_restore 3
.LVL175:
	popl	%esi
	.cfi_restore 6
	popl	%edi
	.cfi_restore 7
.LVL176:
	popl	%ebp
	.cfi_restore 5
	.cfi_def_cfa 4, 4
	jmp	.L86
.LVL177:
.L77:
	.cfi_restore_state
	.loc 1 753 0
	movl	%edx, %eax
.LVL178:
.LBB72:
	.loc 1 759 0
	xorl	%esi, %esi
.LBE72:
	.loc 1 753 0
	call	SHA512_Last
.LVL179:
.L78:
.LBB76:
.LBB73:
.LBB74:
.LBB75:
	.loc 1 306 0 discriminator 3
	movl	(%ebx,%esi,8), %eax
	movl	4(%ebx,%esi,8), %edx
	call	reverse_64bit
.LVL180:
.LBE75:
.LBE74:
.LBE73:
	.loc 1 760 0 discriminator 3
	movl	%eax, (%ebx,%esi,8)
	movl	%edx, 4(%ebx,%esi,8)
.LVL181:
	.loc 1 761 0 discriminator 3
	movl	%eax, (%edi,%esi,8)
	movl	%edx, 4(%edi,%esi,8)
	.loc 1 759 0 discriminator 3
	incl	%esi
.LVL182:
	cmpl	$6, %esi
	jne	.L78
	jmp	.L79
.LVL183:
.L86:
	.cfi_def_cfa 4, 4
	.cfi_restore 3
	.cfi_restore 5
	.cfi_restore 6
	.cfi_restore 7
.LBE76:
	.loc 1 768 0
	ret
	.cfi_endproc
.LFE20:
	.size	SHA384_Final, .-SHA384_Final
	.section	.text.unlikely.SHA384_Final
.LCOLDE9:
	.section	.text.SHA384_Final
.LHOTE9:
	.section	.text.unlikely.SHA512_Final,"ax",@progbits
.LCOLDB10:
	.section	.text.SHA512_Final,"ax",@progbits
.LHOTB10:
	.type	SHA512_Final, @function
SHA512_Final:
.LFB17:
	.loc 1 697 0
	.cfi_startproc
.LVL184:
	.loc 1 701 0
	testl	%edx, %edx
	je	.L98
	.loc 1 697 0
	pushl	%ebp
	.cfi_def_cfa_offset 8
	.cfi_offset 5, -8
	.loc 1 706 0
	testl	%eax, %eax
	.loc 1 697 0
	movl	%esp, %ebp
	.cfi_def_cfa_register 5
	pushl	%edi
	.cfi_offset 7, -12
	movl	%eax, %edi
	pushl	%esi
	pushl	%ebx
	.cfi_offset 6, -16
	.cfi_offset 3, -20
	movl	%edx, %ebx
	pushl	%ecx
	.loc 1 706 0
	jne	.L89
.LVL185:
.L91:
	.loc 1 721 0
	xorl	%eax, %eax
	movl	%ebx, %edi
.LVL186:
	movl	$52, %ecx
	rep stosl
	.loc 1 722 0
	popl	%eax
	popl	%ebx
	.cfi_remember_state
	.cfi_restore 3
.LVL187:
	popl	%esi
	.cfi_restore 6
	popl	%edi
	.cfi_restore 7
	popl	%ebp
	.cfi_restore 5
	.cfi_def_cfa 4, 4
	jmp	.L98
.LVL188:
.L89:
	.cfi_restore_state
	.loc 1 707 0
	movl	%edx, %eax
.LVL189:
.LBB77:
	.loc 1 713 0
	xorl	%esi, %esi
.LBE77:
	.loc 1 707 0
	call	SHA512_Last
.LVL190:
.L90:
.LBB81:
.LBB78:
.LBB79:
.LBB80:
	.loc 1 306 0 discriminator 3
	movl	(%ebx,%esi,8), %eax
	movl	4(%ebx,%esi,8), %edx
	call	reverse_64bit
.LVL191:
.LBE80:
.LBE79:
.LBE78:
	.loc 1 714 0 discriminator 3
	movl	%eax, (%ebx,%esi,8)
	movl	%edx, 4(%ebx,%esi,8)
.LVL192:
	.loc 1 715 0 discriminator 3
	movl	%eax, (%edi,%esi,8)
	movl	%edx, 4(%edi,%esi,8)
	.loc 1 713 0 discriminator 3
	incl	%esi
.LVL193:
	cmpl	$8, %esi
	jne	.L90
	jmp	.L91
.LVL194:
.L98:
	.cfi_def_cfa 4, 4
	.cfi_restore 3
	.cfi_restore 5
	.cfi_restore 6
	.cfi_restore 7
.LBE81:
	.loc 1 722 0
	ret
	.cfi_endproc
.LFE17:
	.size	SHA512_Final, .-SHA512_Final
	.section	.text.unlikely.SHA512_Final
.LCOLDE10:
	.section	.text.SHA512_Final
.LHOTE10:
	.section	.text.unlikely.SHA256_Update.part.0,"ax",@progbits
.LCOLDB11:
	.section	.text.SHA256_Update.part.0,"ax",@progbits
.LHOTB11:
	.type	SHA256_Update.part.0, @function
SHA256_Update.part.0:
.LFB56:
	.loc 1 404 0
	.cfi_startproc
.LVL195:
	pushl	%ebp
	.cfi_def_cfa_offset 8
	.cfi_offset 5, -8
	movl	%esp, %ebp
	.cfi_def_cfa_register 5
	pushl	%edi
	pushl	%esi
	pushl	%ebx
	.cfi_offset 7, -12
	.cfi_offset 6, -16
	.cfi_offset 3, -20
	movl	%eax, %ebx
	movl	%edx, %esi
	subl	$12, %esp
	.loc 1 418 0
	movl	32(%eax), %eax
.LVL196:
	movl	36(%ebx), %edx
.LVL197:
	.loc 1 404 0
	movl	%ecx, -20(%ebp)
	.loc 1 418 0
	shrdl	$3, %edx, %eax
.LVL198:
	.loc 1 419 0
	andl	$63, %eax
.LVL199:
	je	.L100
	.loc 1 421 0
	movl	$64, %edx
	subl	%eax, %edx
.LVL200:
	leal	32(%eax), %eax
.LVL201:
	.loc 1 423 0
	cmpl	%ecx, %edx
	.loc 1 425 0
	leal	8(%ebx,%eax), %eax
.LVL202:
	movl	%eax, %edi
	.loc 1 423 0
	ja	.L101
	.loc 1 425 0
	movl	%edx, %ecx
.LVL203:
	.loc 1 426 0
	leal	0(,%edx,8), %eax
	.loc 1 425 0
	rep movsb
.LVL204:
	.loc 1 426 0
	xorl	%edi, %edi
	addl	%eax, 32(%ebx)
.LVL205:
	.loc 1 429 0
	movl	%ebx, %eax
	.loc 1 426 0
	adcl	%edi, 36(%ebx)
	.loc 1 427 0
	subl	%edx, -20(%ebp)
.LVL206:
	.loc 1 429 0
	leal	40(%ebx), %edx
.LVL207:
	.loc 1 425 0
	movl	%esi, %ecx
.LVL208:
	.loc 1 428 0
	movl	%ecx, %esi
.LVL209:
	.loc 1 429 0
	call	SHA256_Transform
.LVL210:
.L100:
	.loc 1 404 0
	movl	-20(%ebp), %edi
	jmp	.L102
.LVL211:
.L101:
	.loc 1 433 0
	movl	-20(%ebp), %eax
	.loc 1 432 0
	movl	-20(%ebp), %ecx
.LVL212:
	rep movsb
.LVL213:
	.loc 1 433 0
	sall	$3, %eax
	jmp	.L112
.LVL214:
.L102:
	movl	-20(%ebp), %edx
	subl	%edi, %edx
	addl	%esi, %edx
.LVL215:
	.loc 1 439 0
	cmpl	$63, %edi
	jbe	.L113
	.loc 1 441 0
	movl	%ebx, %eax
	call	SHA256_Transform
.LVL216:
	.loc 1 442 0
	addl	$512, 32(%ebx)
	adcl	$0, 36(%ebx)
	.loc 1 443 0
	subl	$64, %edi
.LVL217:
	jmp	.L102
.LVL218:
.L113:
	movl	-20(%ebp), %edx
.LVL219:
	shrl	$6, %edx
	movl	%edx, %eax
	sall	$6, %eax
	addl	%eax, %esi
.LVL220:
	imull	$-64, %edx, %edx
	.loc 1 446 0
	addl	-20(%ebp), %edx
	je	.L99
	.loc 1 448 0
	leal	40(%ebx), %eax
	movl	%edx, %ecx
	movl	%eax, %edi
.LVL221:
	.loc 1 449 0
	leal	0(,%edx,8), %eax
	.loc 1 448 0
	rep movsb
.L112:
	.loc 1 449 0
	xorl	%edx, %edx
	addl	%eax, 32(%ebx)
	adcl	%edx, 36(%ebx)
.L99:
	.loc 1 453 0
	addl	$12, %esp
	popl	%ebx
	.cfi_restore 3
.LVL222:
	popl	%esi
	.cfi_restore 6
	popl	%edi
	.cfi_restore 7
	popl	%ebp
	.cfi_restore 5
	.cfi_def_cfa 4, 4
	ret
	.cfi_endproc
.LFE56:
	.size	SHA256_Update.part.0, .-SHA256_Update.part.0
	.section	.text.unlikely.SHA256_Update.part.0
.LCOLDE11:
	.section	.text.SHA256_Update.part.0
.LHOTE11:
	.section	.text.unlikely.SHA512_Update,"ax",@progbits
.LCOLDB12:
	.section	.text.SHA512_Update,"ax",@progbits
.LHOTB12:
	.type	SHA512_Update, @function
SHA512_Update:
.LFB15:
	.loc 1 602 0
	.cfi_startproc
.LVL223:
	pushl	%ebp
	.cfi_def_cfa_offset 8
	.cfi_offset 5, -8
	movl	%esp, %ebp
	.cfi_def_cfa_register 5
	pushl	%edi
	pushl	%esi
	pushl	%ebx
	subl	$20, %esp
	.cfi_offset 7, -12
	.cfi_offset 6, -16
	.cfi_offset 3, -20
	.loc 1 605 0
	testl	%ecx, %ecx
	.loc 1 602 0
	movl	%ecx, -20(%ebp)
	.loc 1 605 0
	je	.L114
	.loc 1 611 0
	testl	%eax, %eax
	movl	%eax, %ebx
	je	.L114
	testl	%edx, %edx
	movl	%edx, %esi
	je	.L114
.LVL224:
.LBB84:
.LBB85:
	.loc 1 615 0
	movl	64(%eax), %eax
.LVL225:
	movl	68(%ebx), %edx
.LVL226:
	shrdl	$3, %edx, %eax
.LVL227:
	.loc 1 616 0
	andl	$127, %eax
.LVL228:
	je	.L118
	.loc 1 618 0
	movl	$128, %edx
	subl	%eax, %edx
	.loc 1 620 0
	cmpl	%edx, -20(%ebp)
	leal	80(%eax), %eax
.LVL229:
	.loc 1 618 0
	movl	%edx, -24(%ebp)
.LVL230:
	.loc 1 620 0
	movl	%edx, %ecx
.LVL231:
	jb	.L119
	.loc 1 622 0
	addl	%ebx, %eax
.LVL232:
	movl	%eax, %edi
	rep movsb
.LVL233:
	.loc 1 623 0
	leal	0(,%edx,8), %ecx
	xorl	%edi, %edi
	movl	%edi, %edx
.LVL234:
	movl	%ecx, %eax
	addl	64(%ebx), %eax
	adcl	68(%ebx), %edx
	.loc 1 622 0
	movl	%esi, -28(%ebp)
	.loc 1 623 0
	movl	%eax, 64(%ebx)
.LVL235:
	cmpl	%edx, %edi
	movl	%edx, 68(%ebx)
	jb	.L120
	ja	.L128
	cmpl	%eax, %ecx
	jbe	.L120
.L128:
	addl	$1, 72(%ebx)
	adcl	$0, 76(%ebx)
.L120:
.LVL236:
	.loc 1 626 0
	leal	80(%ebx), %edx
	movl	%ebx, %eax
	.loc 1 624 0
	movl	-24(%ebp), %edi
	.loc 1 625 0
	movl	-28(%ebp), %esi
.LVL237:
	.loc 1 624 0
	subl	%edi, -20(%ebp)
.LVL238:
	.loc 1 626 0
	call	SHA512_Transform
.LVL239:
.L118:
.LBE85:
.LBE84:
	.loc 1 602 0
	movl	-20(%ebp), %edi
	jmp	.L122
.LVL240:
.L119:
.LBB87:
.LBB86:
	.loc 1 629 0
	addl	%ebx, %eax
.LVL241:
	movl	-20(%ebp), %ecx
	movl	%eax, %edi
	rep movsb
.LVL242:
	.loc 1 630 0
	movl	-20(%ebp), %ecx
	sall	$3, %ecx
	jmp	.L143
.LVL243:
.L126:
	.loc 1 638 0
	movl	%ebx, %eax
	call	SHA512_Transform
.LVL244:
	.loc 1 639 0
	movl	64(%ebx), %eax
	movl	68(%ebx), %edx
	addl	$1024, %eax
	adcl	$0, %edx
	movl	%eax, 64(%ebx)
	cmpl	$0, %edx
	movl	%edx, 68(%ebx)
	jbe	.L144
.L124:
	.loc 1 640 0
	addl	$-128, %edi
.LVL245:
.L122:
	movl	-20(%ebp), %edx
	subl	%edi, %edx
	addl	%esi, %edx
.LVL246:
	.loc 1 636 0
	cmpl	$127, %edi
	ja	.L126
	jmp	.L145
.LVL247:
.L144:
	.loc 1 639 0
	cmpl	$1023, %eax
	ja	.L124
	addl	$1, 72(%ebx)
	adcl	$0, 76(%ebx)
	jmp	.L124
.LVL248:
.L145:
	movl	-20(%ebp), %edx
.LVL249:
	shrl	$7, %edx
	movl	%edx, %eax
	sall	$7, %eax
	addl	%eax, %esi
.LVL250:
	imull	$-128, %edx, %edx
	.loc 1 643 0
	addl	-20(%ebp), %edx
	je	.L114
	.loc 1 645 0
	leal	80(%ebx), %eax
	movl	%edx, %ecx
	movl	%eax, %edi
.LVL251:
	rep movsb
	.loc 1 646 0
	leal	0(,%edx,8), %ecx
.L143:
	xorl	%edi, %edi
	movl	%ecx, %eax
	addl	64(%ebx), %eax
	movl	%edi, %edx
	adcl	68(%ebx), %edx
	movl	%eax, 64(%ebx)
	cmpl	%edx, %edi
	movl	%edx, 68(%ebx)
	jb	.L114
	ja	.L131
	cmpl	%eax, %ecx
	jbe	.L114
.L131:
	addl	$1, 72(%ebx)
	adcl	$0, 76(%ebx)
.LVL252:
.L114:
.LBE86:
.LBE87:
	.loc 1 650 0
	addl	$20, %esp
	popl	%ebx
	.cfi_restore 3
	popl	%esi
	.cfi_restore 6
	popl	%edi
	.cfi_restore 7
	popl	%ebp
	.cfi_restore 5
	.cfi_def_cfa 4, 4
	ret
	.cfi_endproc
.LFE15:
	.size	SHA512_Update, .-SHA512_Update
	.section	.text.unlikely.SHA512_Update
.LCOLDE12:
	.section	.text.SHA512_Update
.LHOTE12:
	.section	.text.unlikely.os_htole32,"ax",@progbits
.LCOLDB13:
	.section	.text.os_htole32,"ax",@progbits
.LHOTB13:
	.globl	os_htole32
	.type	os_htole32, @function
os_htole32:
.LFB3:
	.loc 1 265 0
	.cfi_startproc
.LVL253:
	pushl	%ebp
	.cfi_def_cfa_offset 8
	.cfi_offset 5, -8
	movl	%esp, %ebp
	.cfi_def_cfa_register 5
	.loc 1 271 0
	movl	8(%ebp), %eax
	popl	%ebp
	.cfi_restore 5
	.cfi_def_cfa 4, 4
	ret
	.cfi_endproc
.LFE3:
	.size	os_htole32, .-os_htole32
	.section	.text.unlikely.os_htole32
.LCOLDE13:
	.section	.text.os_htole32
.LHOTE13:
	.section	.text.unlikely.os_be32toh,"ax",@progbits
.LCOLDB14:
	.section	.text.os_be32toh,"ax",@progbits
.LHOTB14:
	.globl	os_be32toh
	.type	os_be32toh, @function
os_be32toh:
.LFB61:
	.cfi_startproc
	pushl	%ebp
	.cfi_def_cfa_offset 8
	.cfi_offset 5, -8
	movl	%esp, %ebp
	.cfi_def_cfa_register 5
	movl	8(%ebp), %eax
	popl	%ebp
	.cfi_restore 5
	.cfi_def_cfa 4, 4
	jmp	reverse_32bit
	.cfi_endproc
.LFE61:
	.size	os_be32toh, .-os_be32toh
	.section	.text.unlikely.os_be32toh
.LCOLDE14:
	.section	.text.os_be32toh
.LHOTE14:
	.section	.text.unlikely.os_htobe32,"ax",@progbits
.LCOLDB15:
	.section	.text.os_htobe32,"ax",@progbits
.LHOTB15:
	.globl	os_htobe32
	.type	os_htobe32, @function
os_htobe32:
.LFB6:
	.loc 1 291 0
	.cfi_startproc
.LVL254:
	.loc 1 291 0
	pushl	%ebp
	.cfi_def_cfa_offset 8
	.cfi_offset 5, -8
	movl	%esp, %ebp
	.cfi_def_cfa_register 5
	.loc 1 296 0
	movl	8(%ebp), %eax
	.loc 1 297 0
	popl	%ebp
	.cfi_restore 5
	.cfi_def_cfa 4, 4
	.loc 1 296 0
	jmp	reverse_32bit
.LVL255:
	.cfi_endproc
.LFE6:
	.size	os_htobe32, .-os_htobe32
	.section	.text.unlikely.os_htobe32
.LCOLDE15:
	.section	.text.os_htobe32
.LHOTE15:
	.section	.text.unlikely.os_htobe64,"ax",@progbits
.LCOLDB16:
	.section	.text.os_htobe64,"ax",@progbits
.LHOTB16:
	.globl	os_htobe64
	.type	os_htobe64, @function
os_htobe64:
.LFB59:
	.cfi_startproc
	pushl	%ebp
	.cfi_def_cfa_offset 8
	.cfi_offset 5, -8
	movl	%esp, %ebp
	.cfi_def_cfa_register 5
	movl	8(%ebp), %eax
	movl	12(%ebp), %edx
	popl	%ebp
	.cfi_restore 5
	.cfi_def_cfa 4, 4
	jmp	reverse_64bit
	.cfi_endproc
.LFE59:
	.size	os_htobe64, .-os_htobe64
	.section	.text.unlikely.os_htobe64
.LCOLDE16:
	.section	.text.os_htobe64
.LHOTE16:
	.section	.text.unlikely.os_be64toh,"ax",@progbits
.LCOLDB17:
	.section	.text.os_be64toh,"ax",@progbits
.LHOTB17:
	.globl	os_be64toh
	.type	os_be64toh, @function
os_be64toh:
.LFB8:
	.loc 1 311 0
	.cfi_startproc
.LVL256:
	.loc 1 311 0
	pushl	%ebp
	.cfi_def_cfa_offset 8
	.cfi_offset 5, -8
	movl	%esp, %ebp
	.cfi_def_cfa_register 5
.LVL257:
.LBB88:
.LBB89:
	.loc 1 306 0
	movl	8(%ebp), %eax
	movl	12(%ebp), %edx
.LBE89:
.LBE88:
	.loc 1 313 0
	popl	%ebp
	.cfi_restore 5
	.cfi_def_cfa 4, 4
.LBB91:
.LBB90:
	.loc 1 306 0
	jmp	reverse_64bit
.LVL258:
.LBE90:
.LBE91:
	.cfi_endproc
.LFE8:
	.size	os_be64toh, .-os_be64toh
	.section	.text.unlikely.os_be64toh
.LCOLDE17:
	.section	.text.os_be64toh
.LHOTE17:
	.section	.text.unlikely.digest_md5_init,"ax",@progbits
.LCOLDB18:
	.section	.text.digest_md5_init,"ax",@progbits
.LHOTB18:
	.globl	digest_md5_init
	.type	digest_md5_init, @function
digest_md5_init:
.LFB38:
	.file 2 "utility/digest_algorithm/digest_algorithm.c"
	.loc 2 14 0
	.cfi_startproc
	pushl	%ebp
	.cfi_def_cfa_offset 8
	.cfi_offset 5, -8
	movl	%esp, %ebp
	.cfi_def_cfa_register 5
	subl	$36, %esp
	.loc 2 15 0
	pushl	$88
	call	aos_malloc
.LVL259:
	.loc 2 16 0
	addl	$16, %esp
	testl	%eax, %eax
	je	.L157
	.loc 2 20 0
	subl	$12, %esp
	movl	%eax, -12(%ebp)
	pushl	%eax
	call	MD5_Init
.LVL260:
	.loc 2 21 0
	movl	-12(%ebp), %eax
	addl	$16, %esp
.LVL261:
.L157:
	.loc 2 22 0
	leave
	.cfi_restore 5
	.cfi_def_cfa 4, 4
	ret
	.cfi_endproc
.LFE38:
	.size	digest_md5_init, .-digest_md5_init
	.section	.text.unlikely.digest_md5_init
.LCOLDE18:
	.section	.text.digest_md5_init
.LHOTE18:
	.section	.text.unlikely.digest_md5_update,"ax",@progbits
.LCOLDB19:
	.section	.text.digest_md5_update,"ax",@progbits
.LHOTB19:
	.globl	digest_md5_update
	.type	digest_md5_update, @function
digest_md5_update:
.LFB39:
	.loc 2 25 0
	.cfi_startproc
.LVL262:
	pushl	%ebp
	.cfi_def_cfa_offset 8
	.cfi_offset 5, -8
	movl	%esp, %ebp
	.cfi_def_cfa_register 5
	subl	$12, %esp
	.loc 2 26 0
	pushl	16(%ebp)
	pushl	12(%ebp)
	pushl	8(%ebp)
	call	MD5_Update
.LVL263:
	.loc 2 28 0
	xorl	%eax, %eax
	leave
	.cfi_restore 5
	.cfi_def_cfa 4, 4
	ret
	.cfi_endproc
.LFE39:
	.size	digest_md5_update, .-digest_md5_update
	.section	.text.unlikely.digest_md5_update
.LCOLDE19:
	.section	.text.digest_md5_update
.LHOTE19:
	.section	.text.unlikely.digest_md5_final,"ax",@progbits
.LCOLDB20:
	.section	.text.digest_md5_final,"ax",@progbits
.LHOTB20:
	.globl	digest_md5_final
	.type	digest_md5_final, @function
digest_md5_final:
.LFB40:
	.loc 2 31 0
	.cfi_startproc
.LVL264:
	pushl	%ebp
	.cfi_def_cfa_offset 8
	.cfi_offset 5, -8
	movl	%esp, %ebp
	.cfi_def_cfa_register 5
	pushl	%ebx
	subl	$12, %esp
	.cfi_offset 3, -12
	.loc 2 31 0
	movl	8(%ebp), %ebx
	.loc 2 32 0
	pushl	%ebx
	pushl	12(%ebp)
	call	MD5_Final
.LVL265:
	.loc 2 33 0
	movl	%ebx, (%esp)
	call	aos_free
.LVL266:
	.loc 2 35 0
	xorl	%eax, %eax
	movl	-4(%ebp), %ebx
	leave
	.cfi_restore 5
	.cfi_restore 3
	.cfi_def_cfa 4, 4
	ret
	.cfi_endproc
.LFE40:
	.size	digest_md5_final, .-digest_md5_final
	.section	.text.unlikely.digest_md5_final
.LCOLDE20:
	.section	.text.digest_md5_final
.LHOTE20:
	.section	.text.unlikely.digest_md5,"ax",@progbits
.LCOLDB21:
	.section	.text.digest_md5,"ax",@progbits
.LHOTB21:
	.globl	digest_md5
	.type	digest_md5, @function
digest_md5:
.LFB41:
	.loc 2 38 0
	.cfi_startproc
.LVL267:
	pushl	%ebp
	.cfi_def_cfa_offset 8
	.cfi_offset 5, -8
	movl	%esp, %ebp
	.cfi_def_cfa_register 5
	pushl	%ebx
	subl	$16, %esp
	.cfi_offset 3, -12
	.loc 2 39 0
	pushl	$88
	call	aos_malloc
.LVL268:
	movl	%eax, %ebx
.LVL269:
	.loc 2 40 0
	addl	$16, %esp
	orl	$-1, %eax
.LVL270:
	testl	%ebx, %ebx
	je	.L167
	.loc 2 44 0
	subl	$12, %esp
	pushl	%ebx
	call	MD5_Init
.LVL271:
	.loc 2 45 0
	addl	$12, %esp
	pushl	12(%ebp)
	pushl	8(%ebp)
	pushl	%ebx
	call	MD5_Update
.LVL272:
	.loc 2 46 0
	popl	%eax
	popl	%edx
	pushl	%ebx
	pushl	16(%ebp)
	call	MD5_Final
.LVL273:
	.loc 2 47 0
	movl	%ebx, (%esp)
	call	aos_free
.LVL274:
	.loc 2 48 0
	addl	$16, %esp
	xorl	%eax, %eax
.L167:
	.loc 2 49 0
	movl	-4(%ebp), %ebx
.LVL275:
	leave
	.cfi_restore 5
	.cfi_restore 3
	.cfi_def_cfa 4, 4
	ret
	.cfi_endproc
.LFE41:
	.size	digest_md5, .-digest_md5
	.section	.text.unlikely.digest_md5
.LCOLDE21:
	.section	.text.digest_md5
.LHOTE21:
	.section	.rodata.str1.1,"aMS",@progbits,1
.LC22:
	.string	"%02x"
	.section	.text.unlikely.digest_md5_file,"ax",@progbits
.LCOLDB23:
	.section	.text.digest_md5_file,"ax",@progbits
.LHOTB23:
	.globl	digest_md5_file
	.type	digest_md5_file, @function
digest_md5_file:
.LFB42:
	.loc 2 52 0
	.cfi_startproc
.LVL276:
	pushl	%ebp
	.cfi_def_cfa_offset 8
	.cfi_offset 5, -8
	movl	%esp, %ebp
	.cfi_def_cfa_register 5
	pushl	%edi
	pushl	%esi
	pushl	%ebx
	subl	$580, %esp
	.cfi_offset 7, -12
	.cfi_offset 6, -16
	.cfi_offset 3, -20
	.loc 2 52 0
	movl	12(%ebp), %eax
	.loc 2 58 0
	pushl	$0
	pushl	8(%ebp)
	.loc 2 52 0
	movl	%eax, -572(%ebp)
	movl	%gs:20, %eax
	movl	%eax, -28(%ebp)
	xorl	%eax, %eax
	.loc 2 58 0
	call	aos_open
.LVL277:
	movl	%eax, %esi
.LVL278:
	.loc 2 59 0
	addl	$16, %esp
	.loc 2 60 0
	orl	$-1, %eax
.LVL279:
	.loc 2 59 0
	testl	%esi, %esi
	js	.L172
	.loc 2 63 0
	subl	$12, %esp
	pushl	$88
	call	aos_malloc
.LVL280:
	.loc 2 64 0
	addl	$16, %esp
	testl	%eax, %eax
	.loc 2 63 0
	movl	%eax, %ebx
.LVL281:
	.loc 2 64 0
	jne	.L173
	.loc 2 65 0
	subl	$12, %esp
	pushl	%esi
	call	aos_close
.LVL282:
	.loc 2 66 0
	addl	$16, %esp
	orl	$-1, %eax
	jmp	.L172
.LVL283:
.L173:
	.loc 2 69 0
	subl	$12, %esp
	.loc 2 72 0
	leal	-540(%ebp), %edi
	.loc 2 69 0
	pushl	%eax
	call	MD5_Init
.LVL284:
	addl	$16, %esp
.L176:
	.loc 2 72 0
	pushl	%eax
	pushl	$512
	pushl	%edi
	pushl	%esi
	call	aos_read
.LVL285:
	.loc 2 73 0
	addl	$16, %esp
	testl	%eax, %eax
	jg	.L174
.LVL286:
.L177:
	.loc 2 78 0
	leal	-556(%ebp), %edi
	pushl	%ecx
	pushl	%ecx
	pushl	%ebx
	pushl	%edi
	call	MD5_Final
.LVL287:
	addl	$16, %esp
	.loc 2 80 0
	xorl	%edx, %edx
	jmp	.L175
.LVL288:
.L174:
	.loc 2 74 0
	pushl	%edx
	pushl	%eax
	pushl	%edi
	pushl	%ebx
	movl	%eax, -576(%ebp)
	call	MD5_Update
.LVL289:
	.loc 2 76 0
	movl	-576(%ebp), %eax
	addl	$16, %esp
	cmpl	$512, %eax
	je	.L176
	jmp	.L177
.LVL290:
.L175:
	.loc 2 81 0 discriminator 3
	pushl	%eax
	movzbl	(%edi,%edx), %eax
	movl	%edx, -576(%ebp)
	pushl	%eax
	leal	(%edx,%edx), %eax
	addl	-572(%ebp), %eax
	pushl	$.LC22
	pushl	%eax
	call	sprintf
.LVL291:
	.loc 2 80 0 discriminator 3
	movl	-576(%ebp), %edx
	addl	$16, %esp
	incl	%edx
.LVL292:
	cmpl	$16, %edx
	jne	.L175
	.loc 2 84 0
	subl	$12, %esp
	pushl	%esi
	call	aos_close
.LVL293:
	.loc 2 85 0
	movl	%ebx, (%esp)
	call	aos_free
.LVL294:
	.loc 2 86 0
	addl	$16, %esp
	xorl	%eax, %eax
.LVL295:
.L172:
	.loc 2 87 0
	movl	-28(%ebp), %ecx
	xorl	%gs:20, %ecx
	je	.L178
	call	__stack_chk_fail
.LVL296:
.L178:
	leal	-12(%ebp), %esp
	popl	%ebx
	.cfi_restore 3
	popl	%esi
	.cfi_restore 6
.LVL297:
	popl	%edi
	.cfi_restore 7
	popl	%ebp
	.cfi_restore 5
	.cfi_def_cfa 4, 4
	ret
	.cfi_endproc
.LFE42:
	.size	digest_md5_file, .-digest_md5_file
	.section	.text.unlikely.digest_md5_file
.LCOLDE23:
	.section	.text.digest_md5_file
.LHOTE23:
	.section	.text.unlikely.digest_sha256_init,"ax",@progbits
.LCOLDB24:
	.section	.text.digest_sha256_init,"ax",@progbits
.LHOTB24:
	.globl	digest_sha256_init
	.type	digest_sha256_init, @function
digest_sha256_init:
.LFB43:
	.loc 2 90 0
	.cfi_startproc
	pushl	%ebp
	.cfi_def_cfa_offset 8
	.cfi_offset 5, -8
	movl	%esp, %ebp
	.cfi_def_cfa_register 5
	pushl	%ebx
	subl	$16, %esp
	.cfi_offset 3, -12
	.loc 2 91 0
	pushl	$104
	call	aos_malloc
.LVL298:
	.loc 2 92 0
	addl	$16, %esp
	testl	%eax, %eax
	.loc 2 91 0
	movl	%eax, %ebx
.LVL299:
	.loc 2 92 0
	je	.L185
	.loc 2 96 0
	call	SHA256_Init
.LVL300:
.L185:
	.loc 2 99 0
	movl	%ebx, %eax
	movl	-4(%ebp), %ebx
.LVL301:
	leave
	.cfi_restore 5
	.cfi_restore 3
	.cfi_def_cfa 4, 4
	ret
	.cfi_endproc
.LFE43:
	.size	digest_sha256_init, .-digest_sha256_init
	.section	.text.unlikely.digest_sha256_init
.LCOLDE24:
	.section	.text.digest_sha256_init
.LHOTE24:
	.section	.text.unlikely.digest_sha256_update,"ax",@progbits
.LCOLDB25:
	.section	.text.digest_sha256_update,"ax",@progbits
.LHOTB25:
	.globl	digest_sha256_update
	.type	digest_sha256_update, @function
digest_sha256_update:
.LFB44:
	.loc 2 102 0
	.cfi_startproc
.LVL302:
	pushl	%ebp
	.cfi_def_cfa_offset 8
	.cfi_offset 5, -8
	movl	%esp, %ebp
	.cfi_def_cfa_register 5
	.loc 2 102 0
	movl	16(%ebp), %ecx
	movl	8(%ebp), %eax
.LVL303:
	movl	12(%ebp), %edx
.LVL304:
.LBB94:
.LBB95:
	.loc 1 409 0
	testl	%ecx, %ecx
	je	.L191
	.loc 1 415 0
	testl	%eax, %eax
	je	.L191
	testl	%edx, %edx
	je	.L191
	call	SHA256_Update.part.0
.LVL305:
.L191:
.LBE95:
.LBE94:
	.loc 2 105 0
	xorl	%eax, %eax
	popl	%ebp
	.cfi_restore 5
	.cfi_def_cfa 4, 4
	ret
	.cfi_endproc
.LFE44:
	.size	digest_sha256_update, .-digest_sha256_update
	.section	.text.unlikely.digest_sha256_update
.LCOLDE25:
	.section	.text.digest_sha256_update
.LHOTE25:
	.section	.text.unlikely.digest_sha256_final,"ax",@progbits
.LCOLDB26:
	.section	.text.digest_sha256_final,"ax",@progbits
.LHOTB26:
	.globl	digest_sha256_final
	.type	digest_sha256_final, @function
digest_sha256_final:
.LFB45:
	.loc 2 108 0
	.cfi_startproc
.LVL306:
	pushl	%ebp
	.cfi_def_cfa_offset 8
	.cfi_offset 5, -8
	movl	%esp, %ebp
	.cfi_def_cfa_register 5
	pushl	%ebx
	pushl	%eax
	.cfi_offset 3, -12
	.loc 2 108 0
	movl	8(%ebp), %ebx
	.loc 2 109 0
	movl	12(%ebp), %eax
	movl	%ebx, %edx
	call	SHA256_Final
.LVL307:
	.loc 2 110 0
	subl	$12, %esp
	pushl	%ebx
	call	aos_free
.LVL308:
	.loc 2 112 0
	xorl	%eax, %eax
	movl	-4(%ebp), %ebx
	leave
	.cfi_restore 5
	.cfi_restore 3
	.cfi_def_cfa 4, 4
	ret
	.cfi_endproc
.LFE45:
	.size	digest_sha256_final, .-digest_sha256_final
	.section	.text.unlikely.digest_sha256_final
.LCOLDE26:
	.section	.text.digest_sha256_final
.LHOTE26:
	.section	.text.unlikely.digest_sha256,"ax",@progbits
.LCOLDB27:
	.section	.text.digest_sha256,"ax",@progbits
.LHOTB27:
	.globl	digest_sha256
	.type	digest_sha256, @function
digest_sha256:
.LFB46:
	.loc 2 115 0
	.cfi_startproc
.LVL309:
	pushl	%ebp
	.cfi_def_cfa_offset 8
	.cfi_offset 5, -8
	movl	%esp, %ebp
	.cfi_def_cfa_register 5
	pushl	%edi
	pushl	%esi
	pushl	%ebx
	subl	$24, %esp
	.cfi_offset 7, -12
	.cfi_offset 6, -16
	.cfi_offset 3, -20
	.loc 2 115 0
	movl	12(%ebp), %esi
	.loc 2 116 0
	pushl	$104
	call	aos_malloc
.LVL310:
	movl	%eax, %ebx
.LVL311:
	.loc 2 117 0
	addl	$16, %esp
	orl	$-1, %eax
.LVL312:
	testl	%ebx, %ebx
	je	.L199
	.loc 2 121 0
	xorl	%eax, %eax
	movl	$26, %ecx
	movl	%ebx, %edi
	rep stosl
	.loc 2 123 0
	movl	%ebx, %eax
	call	SHA256_Init
.LVL313:
.LBB98:
.LBB99:
	.loc 1 409 0
	testl	%esi, %esi
	je	.L200
	.loc 1 415 0
	cmpl	$0, 8(%ebp)
	je	.L200
	movl	8(%ebp), %edx
	movl	%esi, %ecx
	movl	%ebx, %eax
	call	SHA256_Update.part.0
.LVL314:
.L200:
.LBE99:
.LBE98:
	.loc 2 125 0
	movl	16(%ebp), %eax
	movl	%ebx, %edx
	call	SHA256_Final
.LVL315:
	.loc 2 126 0
	subl	$12, %esp
	pushl	%ebx
	call	aos_free
.LVL316:
	.loc 2 128 0
	addl	$16, %esp
	xorl	%eax, %eax
.L199:
	.loc 2 129 0
	leal	-12(%ebp), %esp
	popl	%ebx
	.cfi_restore 3
.LVL317:
	popl	%esi
	.cfi_restore 6
	popl	%edi
	.cfi_restore 7
	popl	%ebp
	.cfi_restore 5
	.cfi_def_cfa 4, 4
	ret
	.cfi_endproc
.LFE46:
	.size	digest_sha256, .-digest_sha256
	.section	.text.unlikely.digest_sha256
.LCOLDE27:
	.section	.text.digest_sha256
.LHOTE27:
	.section	.text.unlikely.digest_sha384_init,"ax",@progbits
.LCOLDB28:
	.section	.text.digest_sha384_init,"ax",@progbits
.LHOTB28:
	.globl	digest_sha384_init
	.type	digest_sha384_init, @function
digest_sha384_init:
.LFB47:
	.loc 2 132 0
	.cfi_startproc
	pushl	%ebp
	.cfi_def_cfa_offset 8
	.cfi_offset 5, -8
	movl	%esp, %ebp
	.cfi_def_cfa_register 5
	pushl	%ebx
	subl	$16, %esp
	.cfi_offset 3, -12
	.loc 2 133 0
	pushl	$208
	call	aos_malloc
.LVL318:
	.loc 2 134 0
	addl	$16, %esp
	testl	%eax, %eax
	.loc 2 133 0
	movl	%eax, %ebx
.LVL319:
	.loc 2 134 0
	je	.L211
	.loc 2 138 0
	call	SHA384_Init
.LVL320:
.L211:
	.loc 2 141 0
	movl	%ebx, %eax
	movl	-4(%ebp), %ebx
.LVL321:
	leave
	.cfi_restore 5
	.cfi_restore 3
	.cfi_def_cfa 4, 4
	ret
	.cfi_endproc
.LFE47:
	.size	digest_sha384_init, .-digest_sha384_init
	.section	.text.unlikely.digest_sha384_init
.LCOLDE28:
	.section	.text.digest_sha384_init
.LHOTE28:
	.section	.text.unlikely.digest_sha384_update,"ax",@progbits
.LCOLDB29:
	.section	.text.digest_sha384_update,"ax",@progbits
.LHOTB29:
	.globl	digest_sha384_update
	.type	digest_sha384_update, @function
digest_sha384_update:
.LFB63:
	.cfi_startproc
	pushl	%ebp
	.cfi_def_cfa_offset 8
	.cfi_offset 5, -8
	movl	%esp, %ebp
	.cfi_def_cfa_register 5
	movl	8(%ebp), %eax
	movl	16(%ebp), %ecx
	movl	12(%ebp), %edx
	call	SHA512_Update
	xorl	%eax, %eax
	popl	%ebp
	.cfi_restore 5
	.cfi_def_cfa 4, 4
	ret
	.cfi_endproc
.LFE63:
	.size	digest_sha384_update, .-digest_sha384_update
	.section	.text.unlikely.digest_sha384_update
.LCOLDE29:
	.section	.text.digest_sha384_update
.LHOTE29:
	.section	.text.unlikely.digest_sha384_final,"ax",@progbits
.LCOLDB30:
	.section	.text.digest_sha384_final,"ax",@progbits
.LHOTB30:
	.globl	digest_sha384_final
	.type	digest_sha384_final, @function
digest_sha384_final:
.LFB49:
	.loc 2 150 0
	.cfi_startproc
.LVL322:
	.loc 2 150 0
	pushl	%ebp
	.cfi_def_cfa_offset 8
	.cfi_offset 5, -8
	movl	%esp, %ebp
	.cfi_def_cfa_register 5
	pushl	%ebx
	pushl	%eax
	.cfi_offset 3, -12
	.loc 2 150 0
	movl	8(%ebp), %ebx
	.loc 2 151 0
	movl	12(%ebp), %eax
	movl	%ebx, %edx
	call	SHA384_Final
.LVL323:
	.loc 2 152 0
	subl	$12, %esp
	pushl	%ebx
	call	aos_free
.LVL324:
	.loc 2 154 0
	xorl	%eax, %eax
	movl	-4(%ebp), %ebx
	leave
	.cfi_restore 5
	.cfi_restore 3
	.cfi_def_cfa 4, 4
	ret
	.cfi_endproc
.LFE49:
	.size	digest_sha384_final, .-digest_sha384_final
	.section	.text.unlikely.digest_sha384_final
.LCOLDE30:
	.section	.text.digest_sha384_final
.LHOTE30:
	.section	.text.unlikely.digest_sha384,"ax",@progbits
.LCOLDB31:
	.section	.text.digest_sha384,"ax",@progbits
.LHOTB31:
	.globl	digest_sha384
	.type	digest_sha384, @function
digest_sha384:
.LFB50:
	.loc 2 157 0
	.cfi_startproc
.LVL325:
	pushl	%ebp
	.cfi_def_cfa_offset 8
	.cfi_offset 5, -8
	movl	%esp, %ebp
	.cfi_def_cfa_register 5
	pushl	%ebx
	subl	$16, %esp
	.cfi_offset 3, -12
	.loc 2 158 0
	pushl	$208
	call	aos_malloc
.LVL326:
	movl	%eax, %ebx
.LVL327:
	.loc 2 159 0
	addl	$16, %esp
	orl	$-1, %eax
.LVL328:
	testl	%ebx, %ebx
	je	.L221
	.loc 2 163 0
	movl	%ebx, %eax
	call	SHA384_Init
.LVL329:
.LBB100:
.LBB101:
	.loc 1 739 0
	movl	12(%ebp), %ecx
	movl	8(%ebp), %edx
	movl	%ebx, %eax
	call	SHA512_Update
.LVL330:
.LBE101:
.LBE100:
	.loc 2 165 0
	movl	16(%ebp), %eax
	movl	%ebx, %edx
	call	SHA384_Final
.LVL331:
	.loc 2 166 0
	subl	$12, %esp
	pushl	%ebx
	call	aos_free
.LVL332:
	.loc 2 168 0
	addl	$16, %esp
	xorl	%eax, %eax
.L221:
	.loc 2 169 0
	movl	-4(%ebp), %ebx
.LVL333:
	leave
	.cfi_restore 5
	.cfi_restore 3
	.cfi_def_cfa 4, 4
	ret
	.cfi_endproc
.LFE50:
	.size	digest_sha384, .-digest_sha384
	.section	.text.unlikely.digest_sha384
.LCOLDE31:
	.section	.text.digest_sha384
.LHOTE31:
	.section	.text.unlikely.digest_sha512_init,"ax",@progbits
.LCOLDB32:
	.section	.text.digest_sha512_init,"ax",@progbits
.LHOTB32:
	.globl	digest_sha512_init
	.type	digest_sha512_init, @function
digest_sha512_init:
.LFB51:
	.loc 2 172 0
	.cfi_startproc
	pushl	%ebp
	.cfi_def_cfa_offset 8
	.cfi_offset 5, -8
	movl	%esp, %ebp
	.cfi_def_cfa_register 5
	pushl	%ebx
	subl	$16, %esp
	.cfi_offset 3, -12
	.loc 2 173 0
	pushl	$208
	call	aos_malloc
.LVL334:
	.loc 2 174 0
	addl	$16, %esp
	testl	%eax, %eax
	.loc 2 173 0
	movl	%eax, %ebx
.LVL335:
	.loc 2 174 0
	je	.L226
	.loc 2 178 0
	call	SHA512_Init
.LVL336:
.L226:
	.loc 2 181 0
	movl	%ebx, %eax
	movl	-4(%ebp), %ebx
.LVL337:
	leave
	.cfi_restore 5
	.cfi_restore 3
	.cfi_def_cfa 4, 4
	ret
	.cfi_endproc
.LFE51:
	.size	digest_sha512_init, .-digest_sha512_init
	.section	.text.unlikely.digest_sha512_init
.LCOLDE32:
	.section	.text.digest_sha512_init
.LHOTE32:
	.section	.text.unlikely.digest_sha512_update,"ax",@progbits
.LCOLDB33:
	.section	.text.digest_sha512_update,"ax",@progbits
.LHOTB33:
	.globl	digest_sha512_update
	.type	digest_sha512_update, @function
digest_sha512_update:
.LFB52:
	.loc 2 184 0
	.cfi_startproc
.LVL338:
	pushl	%ebp
	.cfi_def_cfa_offset 8
	.cfi_offset 5, -8
	movl	%esp, %ebp
	.cfi_def_cfa_register 5
	.loc 2 185 0
	movl	8(%ebp), %eax
	movl	16(%ebp), %ecx
	movl	12(%ebp), %edx
	call	SHA512_Update
.LVL339:
	.loc 2 187 0
	xorl	%eax, %eax
	popl	%ebp
	.cfi_restore 5
	.cfi_def_cfa 4, 4
	ret
	.cfi_endproc
.LFE52:
	.size	digest_sha512_update, .-digest_sha512_update
	.section	.text.unlikely.digest_sha512_update
.LCOLDE33:
	.section	.text.digest_sha512_update
.LHOTE33:
	.section	.text.unlikely.digest_sha512_final,"ax",@progbits
.LCOLDB34:
	.section	.text.digest_sha512_final,"ax",@progbits
.LHOTB34:
	.globl	digest_sha512_final
	.type	digest_sha512_final, @function
digest_sha512_final:
.LFB53:
	.loc 2 190 0
	.cfi_startproc
.LVL340:
	pushl	%ebp
	.cfi_def_cfa_offset 8
	.cfi_offset 5, -8
	movl	%esp, %ebp
	.cfi_def_cfa_register 5
	pushl	%ebx
	pushl	%eax
	.cfi_offset 3, -12
	.loc 2 190 0
	movl	8(%ebp), %ebx
	.loc 2 191 0
	movl	12(%ebp), %eax
	movl	%ebx, %edx
	call	SHA512_Final
.LVL341:
	.loc 2 192 0
	subl	$12, %esp
	pushl	%ebx
	call	aos_free
.LVL342:
	.loc 2 194 0
	xorl	%eax, %eax
	movl	-4(%ebp), %ebx
	leave
	.cfi_restore 5
	.cfi_restore 3
	.cfi_def_cfa 4, 4
	ret
	.cfi_endproc
.LFE53:
	.size	digest_sha512_final, .-digest_sha512_final
	.section	.text.unlikely.digest_sha512_final
.LCOLDE34:
	.section	.text.digest_sha512_final
.LHOTE34:
	.section	.text.unlikely.digest_sha512,"ax",@progbits
.LCOLDB35:
	.section	.text.digest_sha512,"ax",@progbits
.LHOTB35:
	.globl	digest_sha512
	.type	digest_sha512, @function
digest_sha512:
.LFB54:
	.loc 2 197 0
	.cfi_startproc
.LVL343:
	pushl	%ebp
	.cfi_def_cfa_offset 8
	.cfi_offset 5, -8
	movl	%esp, %ebp
	.cfi_def_cfa_register 5
	pushl	%ebx
	subl	$16, %esp
	.cfi_offset 3, -12
	.loc 2 198 0
	pushl	$208
	call	aos_malloc
.LVL344:
	movl	%eax, %ebx
.LVL345:
	.loc 2 199 0
	addl	$16, %esp
	orl	$-1, %eax
.LVL346:
	testl	%ebx, %ebx
	je	.L236
	.loc 2 203 0
	movl	%ebx, %eax
	call	SHA512_Init
.LVL347:
	.loc 2 204 0
	movl	12(%ebp), %ecx
	movl	8(%ebp), %edx
	movl	%ebx, %eax
	call	SHA512_Update
.LVL348:
	.loc 2 205 0
	movl	16(%ebp), %eax
	movl	%ebx, %edx
	call	SHA512_Final
.LVL349:
	.loc 2 206 0
	subl	$12, %esp
	pushl	%ebx
	call	aos_free
.LVL350:
	.loc 2 208 0
	addl	$16, %esp
	xorl	%eax, %eax
.L236:
	.loc 2 209 0
	movl	-4(%ebp), %ebx
.LVL351:
	leave
	.cfi_restore 5
	.cfi_restore 3
	.cfi_def_cfa 4, 4
	ret
	.cfi_endproc
.LFE54:
	.size	digest_sha512, .-digest_sha512
	.section	.text.unlikely.digest_sha512
.LCOLDE35:
	.section	.text.digest_sha512
.LHOTE35:
	.section	.text.unlikely.digest_hmac,"ax",@progbits
.LCOLDB36:
	.section	.text.digest_hmac,"ax",@progbits
.LHOTB36:
	.globl	digest_hmac
	.type	digest_hmac, @function
digest_hmac:
.LFB55:
	.loc 2 214 0
	.cfi_startproc
.LVL352:
	pushl	%ebp
	.cfi_def_cfa_offset 8
	.cfi_offset 5, -8
	movl	%esp, %ebp
	.cfi_def_cfa_register 5
	pushl	%edi
	pushl	%esi
	pushl	%ebx
	subl	$188, %esp
	.cfi_offset 7, -12
	.cfi_offset 6, -16
	.cfi_offset 3, -20
	.loc 2 214 0
	movl	12(%ebp), %eax
	movl	28(%ebp), %ebx
	movl	%eax, -192(%ebp)
	movl	20(%ebp), %eax
	movl	%eax, -188(%ebp)
	movl	%gs:20, %eax
	movl	%eax, -28(%ebp)
	xorl	%eax, %eax
	.loc 2 232 0
	orl	$-1, %eax
	.loc 2 215 0
	cmpl	$0, 8(%ebp)
	jne	.L241
.LVL353:
.LBB115:
.LBB116:
	.file 3 "utility/digest_algorithm/hmac.c"
	.loc 3 17 0
	cmpl	$64, 24(%ebp)
	jbe	.L243
.LBB117:
	.loc 3 19 0
	call	digest_md5_init
.LVL354:
	movl	%eax, %edi
.LVL355:
.LVL356:
.LBB118:
.LBB119:
	.loc 2 26 0
	pushl	%eax
	pushl	24(%ebp)
	pushl	-188(%ebp)
	pushl	%edi
.LBE119:
.LBE118:
	.loc 3 21 0
	leal	-174(%ebp), %esi
.LBB121:
.LBB120:
	.loc 2 26 0
	call	MD5_Update
.LVL357:
.LBE120:
.LBE121:
	.loc 3 21 0
	popl	%eax
	popl	%edx
	pushl	%esi
	pushl	%edi
	call	digest_md5_final
.LVL358:
	addl	$16, %esp
	.loc 3 23 0
	movl	$16, 24(%ebp)
	.loc 3 22 0
	movl	%esi, -188(%ebp)
.LVL359:
.L243:
.LBE117:
	.loc 3 27 0
	leal	-93(%ebp), %edx
	.loc 3 26 0
	leal	-158(%ebp), %edi
	xorl	%eax, %eax
	movl	$65, %ecx
	.loc 3 28 0
	movl	-188(%ebp), %esi
	.loc 3 26 0
	rep stosb
	.loc 3 27 0
	movl	$65, %ecx
	movl	%edx, %edi
	rep stosb
	.loc 3 28 0
	leal	-158(%ebp), %edi
	movl	24(%ebp), %ecx
	.loc 3 31 0
	xorl	%eax, %eax
	.loc 3 28 0
	rep movsb
	.loc 3 29 0
	movl	%edx, %edi
	movl	-188(%ebp), %esi
	movl	24(%ebp), %ecx
	rep movsb
.LVL360:
.L244:
	.loc 3 32 0
	xorb	$54, -158(%ebp,%eax)
	.loc 3 33 0
	xorb	$92, -93(%ebp,%eax)
	.loc 3 31 0
	incl	%eax
.LVL361:
	cmpl	$64, %eax
	.loc 3 32 0
	leal	-158(%ebp), %edx
	.loc 3 33 0
	leal	-93(%ebp), %edi
	.loc 3 31 0
	jne	.L244
	movl	%edx, -188(%ebp)
.LVL362:
	.loc 3 36 0
	call	digest_md5_init
.LVL363:
.LBB122:
.LBB123:
	.loc 2 26 0
	movl	-188(%ebp), %edx
.LBE123:
.LBE122:
	.loc 3 36 0
	movl	%eax, %esi
.LVL364:
.LVL365:
.LBB125:
.LBB124:
	.loc 2 26 0
	pushl	%eax
	pushl	$64
	pushl	%edx
	pushl	%esi
	call	MD5_Update
.LVL366:
.LBE124:
.LBE125:
.LBB126:
.LBB127:
	addl	$12, %esp
	pushl	16(%ebp)
	pushl	-192(%ebp)
	pushl	%esi
	call	MD5_Update
.LVL367:
.LBE127:
.LBE126:
	.loc 3 39 0
	popl	%edx
	popl	%ecx
	pushl	%ebx
	pushl	%esi
	call	digest_md5_final
.LVL368:
	.loc 3 41 0
	call	digest_md5_init
.LVL369:
.LBB128:
.LBB129:
	.loc 2 26 0
	addl	$12, %esp
.LBE129:
.LBE128:
	.loc 3 41 0
	movl	%eax, %esi
.LVL370:
.LBB131:
.LBB130:
	.loc 2 26 0
	pushl	$64
	pushl	%edi
	pushl	%eax
	call	MD5_Update
.LVL371:
.LBE130:
.LBE131:
.LBB132:
.LBB133:
	addl	$12, %esp
	pushl	$16
	pushl	%ebx
	pushl	%esi
	call	MD5_Update
.LVL372:
.LBE133:
.LBE132:
	.loc 3 44 0
	popl	%edi
	popl	%eax
	pushl	%ebx
	pushl	%esi
	call	digest_md5_final
.LVL373:
.LBE116:
.LBE115:
	.loc 2 217 0
	addl	$16, %esp
	xorl	%eax, %eax
.L241:
	.loc 2 233 0
	movl	-28(%ebp), %ebx
	xorl	%gs:20, %ebx
	je	.L245
	call	__stack_chk_fail
.LVL374:
.L245:
	leal	-12(%ebp), %esp
	popl	%ebx
	.cfi_restore 3
	popl	%esi
	.cfi_restore 6
	popl	%edi
	.cfi_restore 7
	popl	%ebp
	.cfi_restore 5
	.cfi_def_cfa 4, 4
	ret
	.cfi_endproc
.LFE55:
	.size	digest_hmac, .-digest_hmac
	.section	.text.unlikely.digest_hmac
.LCOLDE36:
	.section	.text.digest_hmac
.LHOTE36:
	.section	.rodata.sha512_initial_hash_value,"a",@progbits
	.align 32
	.type	sha512_initial_hash_value, @object
	.size	sha512_initial_hash_value, 64
sha512_initial_hash_value:
	.long	-205731576
	.long	1779033703
	.long	-2067093701
	.long	-1150833019
	.long	-23791573
	.long	1013904242
	.long	1595750129
	.long	-1521486534
	.long	-1377402159
	.long	1359893119
	.long	725511199
	.long	-1694144372
	.long	-79577749
	.long	528734635
	.long	327033209
	.long	1541459225
	.section	.rodata.sha384_initial_hash_value,"a",@progbits
	.align 32
	.type	sha384_initial_hash_value, @object
	.size	sha384_initial_hash_value, 64
sha384_initial_hash_value:
	.long	-1056596264
	.long	-876896931
	.long	914150663
	.long	1654270250
	.long	812702999
	.long	-1856437926
	.long	-150054599
	.long	355462360
	.long	-4191439
	.long	1731405415
	.long	1750603025
	.long	-1900787065
	.long	1694076839
	.long	-619958771
	.long	-1090891868
	.long	1203062813
	.section	.rodata.K512,"a",@progbits
	.align 32
	.type	K512, @object
	.size	K512, 640
K512:
	.long	-685199838
	.long	1116352408
	.long	602891725
	.long	1899447441
	.long	-330482897
	.long	-1245643825
	.long	-2121671748
	.long	-373957723
	.long	-213338824
	.long	961987163
	.long	-1241133031
	.long	1508970993
	.long	-1357295717
	.long	-1841331548
	.long	-630357736
	.long	-1424204075
	.long	-1560083902
	.long	-670586216
	.long	1164996542
	.long	310598401
	.long	1323610764
	.long	607225278
	.long	-704662302
	.long	1426881987
	.long	-226784913
	.long	1925078388
	.long	991336113
	.long	-2132889090
	.long	633803317
	.long	-1680079193
	.long	-815192428
	.long	-1046744716
	.long	-1628353838
	.long	-459576895
	.long	944711139
	.long	-272742522
	.long	-1953704523
	.long	264347078
	.long	2007800933
	.long	604807628
	.long	1495990901
	.long	770255983
	.long	1856431235
	.long	1249150122
	.long	-1119749164
	.long	1555081692
	.long	-2096016459
	.long	1996064986
	.long	-295247957
	.long	-1740746414
	.long	766784016
	.long	-1473132947
	.long	-1728372417
	.long	-1341970488
	.long	-1091629340
	.long	-1084653625
	.long	1034457026
	.long	-958395405
	.long	-1828018395
	.long	-710438585
	.long	-536640913
	.long	113926993
	.long	168717936
	.long	338241895
	.long	1188179964
	.long	666307205
	.long	1546045734
	.long	773529912
	.long	1522805485
	.long	1294757372
	.long	-1651133473
	.long	1396182291
	.long	-1951439906
	.long	1695183700
	.long	1014477480
	.long	1986661051
	.long	1206759142
	.long	-2117940946
	.long	344077627
	.long	-1838011259
	.long	1290863460
	.long	-1564481375
	.long	-1136513023
	.long	-1474664885
	.long	-789014639
	.long	-1035236496
	.long	106217008
	.long	-949202525
	.long	-688958952
	.long	-778901479
	.long	1432725776
	.long	-694614492
	.long	1467031594
	.long	-200395387
	.long	851169720
	.long	275423344
	.long	-1194143544
	.long	430227734
	.long	1363258195
	.long	506948616
	.long	-544281703
	.long	659060556
	.long	-509917016
	.long	883997877
	.long	-976659869
	.long	958139571
	.long	-482243893
	.long	1322822218
	.long	2003034995
	.long	1537002063
	.long	-692930397
	.long	1747873779
	.long	1575990012
	.long	1955562222
	.long	1125592928
	.long	2024104815
	.long	-1578062990
	.long	-2067236844
	.long	442776044
	.long	-1933114872
	.long	593698344
	.long	-1866530822
	.long	-561857047
	.long	-1538233109
	.long	-1295615723
	.long	-1090935817
	.long	-479046869
	.long	-965641998
	.long	-366583396
	.long	-903397682
	.long	566280711
	.long	-779700025
	.long	-840897762
	.long	-354779690
	.long	-294727304
	.long	-176337025
	.long	1914138554
	.long	116418474
	.long	-1563912026
	.long	174292421
	.long	-1090974290
	.long	289380356
	.long	320620315
	.long	460393269
	.long	587496836
	.long	685471733
	.long	1086792851
	.long	852142971
	.long	365543100
	.long	1017036298
	.long	-1676669620
	.long	1126000580
	.long	-885112138
	.long	1288033470
	.long	-60457430
	.long	1501505948
	.long	987167468
	.long	1607167915
	.long	1246189591
	.long	1816402316
	.section	.rodata.sha256_initial_hash_value,"a",@progbits
	.align 32
	.type	sha256_initial_hash_value, @object
	.size	sha256_initial_hash_value, 32
sha256_initial_hash_value:
	.long	1779033703
	.long	-1150833019
	.long	1013904242
	.long	-1521486534
	.long	1359893119
	.long	-1694144372
	.long	528734635
	.long	1541459225
	.section	.rodata.K256,"a",@progbits
	.align 32
	.type	K256, @object
	.size	K256, 256
K256:
	.long	1116352408
	.long	1899447441
	.long	-1245643825
	.long	-373957723
	.long	961987163
	.long	1508970993
	.long	-1841331548
	.long	-1424204075
	.long	-670586216
	.long	310598401
	.long	607225278
	.long	1426881987
	.long	1925078388
	.long	-2132889090
	.long	-1680079193
	.long	-1046744716
	.long	-459576895
	.long	-272742522
	.long	264347078
	.long	604807628
	.long	770255983
	.long	1249150122
	.long	1555081692
	.long	1996064986
	.long	-1740746414
	.long	-1473132947
	.long	-1341970488
	.long	-1084653625
	.long	-958395405
	.long	-710438585
	.long	113926993
	.long	338241895
	.long	666307205
	.long	773529912
	.long	1294757372
	.long	1396182291
	.long	1695183700
	.long	1986661051
	.long	-2117940946
	.long	-1838011259
	.long	-1564481375
	.long	-1474664885
	.long	-1035236496
	.long	-949202525
	.long	-778901479
	.long	-694614492
	.long	-200395387
	.long	275423344
	.long	430227734
	.long	506948616
	.long	659060556
	.long	883997877
	.long	958139571
	.long	1322822218
	.long	1537002063
	.long	1747873779
	.long	1955562222
	.long	2024104815
	.long	-2067236844
	.long	-1933114872
	.long	-1866530822
	.long	-1538233109
	.long	-1090935817
	.long	-965641998
	.text
.Letext0:
	.section	.text.unlikely.reverse_32bit
.Letext_cold0:
	.file 4 "/home/stone/Documents/Ali_IOT/build/compiler/gcc-arm-none-eabi/Linux64/arm-none-eabi/include/machine/_default_types.h"
	.file 5 "/home/stone/Documents/Ali_IOT/build/compiler/gcc-arm-none-eabi/Linux64/arm-none-eabi/include/sys/_stdint.h"
	.file 6 "utility/digest_algorithm/md5.h"
	.file 7 "./include/aos/kernel.h"
	.file 8 "./include/aos/vfs.h"
	.file 9 "/home/stone/Documents/Ali_IOT/build/compiler/gcc-arm-none-eabi/Linux64/arm-none-eabi/include/stdio.h"
	.file 10 "utility/digest_algorithm/digest_algorithm.h"
	.file 11 "./include/aos/log.h"
	.section	.note.GNU-stack,"",@progbits
