	.file	"dns.c"
	.text
.Ltext0:
	.section	.text.unlikely.dns_call_found,"ax",@progbits
.LCOLDB0:
	.section	.text.dns_call_found,"ax",@progbits
.LHOTB0:
	.section	.text.unlikely.dns_call_found
.Ltext_cold0:
	.section	.text.dns_call_found
	.type	dns_call_found, @function
dns_call_found:
.LFB33:
	.file 1 "kernel/protocols/net/core/dns.c"
	.loc 1 827 0
	.cfi_startproc
.LVL0:
	pushl	%ebp
	.cfi_def_cfa_offset 8
	.cfi_offset 5, -8
	movl	%esp, %ebp
	.cfi_def_cfa_register 5
	pushl	%edi
	pushl	%esi
	.cfi_offset 7, -12
	.cfi_offset 6, -16
	.loc 1 848 0
	movzbl	%al, %esi
	.loc 1 827 0
	pushl	%ebx
	.cfi_offset 3, -20
	movl	$dns_requests, %ebx
	.loc 1 848 0
	imull	$272, %esi, %esi
	.loc 1 827 0
	subl	$28, %esp
	.loc 1 827 0
	movb	%al, -29(%ebp)
.LVL1:
.L3:
	.loc 1 847 0
	movl	(%ebx), %edi
	testl	%edi, %edi
	movl	%edi, -28(%ebp)
	je	.L2
	.loc 1 847 0 is_stmt 0 discriminator 1
	movb	-29(%ebp), %cl
	cmpb	%cl, 8(%ebx)
	jne	.L2
	.loc 1 848 0 is_stmt 1
	leal	dns_table+16(%esi), %edi
	movl	%eax, -40(%ebp)
	movl	%edx, -36(%ebp)
	pushl	%eax
	movl	-28(%ebp), %eax
	pushl	4(%ebx)
	pushl	%edx
	pushl	%edi
	call	*%eax
.LVL2:
	.loc 1 850 0
	movl	-40(%ebp), %eax
	movl	-36(%ebp), %edx
	addl	$16, %esp
	movl	$0, (%ebx)
.L2:
	addl	$12, %ebx
	.loc 1 846 0 discriminator 2
	cmpl	$dns_requests+24, %ebx
	jne	.L3
.LVL3:
	.loc 1 862 0
	testb	%al, %al
	movzbl	%al, %edx
	je	.L4
	.loc 1 865 0
	cmpb	$2, dns_table+10
	jne	.L4
	.loc 1 866 0
	imull	$272, %edx, %ecx
	movb	dns_table+15(%ecx), %cl
	cmpb	%cl, dns_table+15
	je	.L5
.L4:
.LVL4:
	.loc 1 862 0
	decb	%al
.LVL5:
	je	.L6
	.loc 1 865 0
	cmpb	$2, dns_table+282
	jne	.L6
	.loc 1 866 0
	imull	$272, %edx, %eax
	movb	dns_table+15(%eax), %al
	cmpb	%al, dns_table+287
	jne	.L6
.LVL6:
.L5:
	.loc 1 868 0
	imull	$272, %edx, %eax
	movb	$2, dns_table+15(%eax)
.L6:
	.loc 1 873 0
	imull	$272, %edx, %edx
	movzbl	dns_table+15(%edx), %eax
	leal	dns_table(%edx), %ebx
	cmpb	$1, %al
	ja	.L1
	.loc 1 875 0
	subl	$12, %esp
	pushl	dns_pcbs(,%eax,4)
	call	udp_remove
.LVL7:
	.loc 1 876 0
	movzbl	15(%ebx), %eax
	.loc 1 877 0
	addl	$16, %esp
	movb	$2, 15(%ebx)
	.loc 1 876 0
	movl	$0, dns_pcbs(,%eax,4)
.L1:
	.loc 1 880 0
	leal	-12(%ebp), %esp
	popl	%ebx
	.cfi_restore 3
	popl	%esi
	.cfi_restore 6
	popl	%edi
	.cfi_restore 7
	popl	%ebp
	.cfi_restore 5
	.cfi_def_cfa 4, 4
	ret
	.cfi_endproc
.LFE33:
	.size	dns_call_found, .-dns_call_found
	.section	.text.unlikely.dns_call_found
.LCOLDE0:
	.section	.text.dns_call_found
.LHOTE0:
	.section	.text.unlikely.dns_send,"ax",@progbits
.LCOLDB1:
	.section	.text.dns_send,"ax",@progbits
.LHOTB1:
	.type	dns_send, @function
dns_send:
.LFB30:
	.loc 1 668 0
	.cfi_startproc
.LVL8:
	pushl	%ebp
	.cfi_def_cfa_offset 8
	.cfi_offset 5, -8
	.loc 1 677 0
	movzbl	%al, %eax
	.loc 1 668 0
	movl	%esp, %ebp
	.cfi_def_cfa_register 5
	pushl	%edi
	pushl	%esi
	pushl	%ebx
	subl	$60, %esp
	.cfi_offset 7, -12
	.cfi_offset 6, -16
	.cfi_offset 3, -20
	.loc 1 677 0
	movl	%eax, -60(%ebp)
.LVL9:
	.loc 1 682 0
	imull	$272, %eax, %eax
.LVL10:
	.loc 1 668 0
	movl	%gs:20, %ebx
	movl	%ebx, -28(%ebp)
	xorl	%ebx, %ebx
	.loc 1 682 0
	leal	dns_table(%eax), %esi
.LVL11:
	movzbl	11(%esi), %edx
	cmpl	$0, dns_servers(,%edx,4)
	jne	.L15
	.loc 1 685 0
	movl	-60(%ebp), %eax
	xorl	%edx, %edx
	call	dns_call_found
.LVL12:
	.loc 1 687 0
	movb	$0, 10(%esi)
	.loc 1 688 0
	xorl	%eax, %eax
	jmp	.L16
.L15:
	.loc 1 692 0
	addl	$dns_table+16, %eax
	orl	$-1, %ecx
	movl	%eax, -64(%ebp)
	movl	-64(%ebp), %edi
	xorl	%eax, %eax
	repnz scasb
	pushl	%ebx
	pushl	$0
	movl	%ecx, %eax
	notl	%eax
	addl	$17, %eax
	movzwl	%ax, %eax
	pushl	%eax
	pushl	$0
	call	pbuf_alloc
.LVL13:
	movl	%eax, %ebx
.LVL14:
	.loc 1 694 0
	addl	$16, %esp
	.loc 1 742 0
	movb	$-1, %al
.LVL15:
	.loc 1 694 0
	testl	%ebx, %ebx
	je	.L16
	.loc 1 696 0
	leal	-40(%ebp), %edx
	xorl	%eax, %eax
	movl	$3, %ecx
	.loc 1 697 0
	subl	$12, %esp
	.loc 1 696 0
	movl	%edx, %edi
	movl	%edx, -68(%ebp)
	rep stosl
	.loc 1 697 0
	movzwl	8(%esi), %eax
	.loc 1 705 0
	movl	$12, %esi
.LVL16:
	.loc 1 697 0
	pushl	%eax
	call	lwip_htons
.LVL17:
	.loc 1 700 0
	movl	-68(%ebp), %edx
	addl	$12, %esp
	.loc 1 697 0
	movw	%ax, -40(%ebp)
	.loc 1 700 0
	pushl	$12
	.loc 1 698 0
	movb	$1, -38(%ebp)
	.loc 1 699 0
	movw	$256, -36(%ebp)
	.loc 1 700 0
	pushl	%edx
	pushl	%ebx
	call	pbuf_take
.LVL18:
	.loc 1 702 0
	movl	-64(%ebp), %edi
	addl	$16, %esp
	decl	%edi
.LVL19:
.L20:
	.loc 1 707 0
	leal	1(%edi), %ecx
.LVL20:
	.loc 1 709 0
	xorl	%edx, %edx
	.loc 1 707 0
	movl	%ecx, %edi
.LVL21:
.L17:
	.loc 1 709 0 discriminator 1
	movb	(%edi), %al
	cmpb	$46, %al
	je	.L23
	testb	%al, %al
	je	.L23
	.loc 1 710 0 discriminator 3
	incl	%edx
.LVL22:
	.loc 1 709 0 discriminator 3
	incl	%edi
.LVL23:
	jmp	.L17
.L23:
	.loc 1 712 0
	movl	%edi, %eax
	movl	%ecx, -72(%ebp)
	.loc 1 713 0
	movb	%dl, -68(%ebp)
	.loc 1 712 0
	subl	%ecx, %eax
.LVL24:
	.loc 1 713 0
	pushl	%ecx
	.loc 1 712 0
	movl	%eax, -64(%ebp)
.LVL25:
	.loc 1 713 0
	movzbl	%dl, %eax
	pushl	%eax
	movzwl	%si, %eax
	pushl	%eax
	pushl	%ebx
	call	pbuf_put_at
.LVL26:
	.loc 1 714 0
	leal	1(%esi), %eax
	movl	-72(%ebp), %ecx
	movzwl	%ax, %eax
	pushl	%eax
	movzwl	-64(%ebp), %eax
	pushl	%eax
	pushl	%ecx
	pushl	%ebx
	call	pbuf_take_at
.LVL27:
	.loc 1 715 0
	movzbl	-68(%ebp), %edx
	.loc 1 716 0
	addl	$32, %esp
	.loc 1 715 0
	addl	%esi, %edx
	.loc 1 716 0
	cmpb	$0, (%edi)
	.loc 1 715 0
	leal	1(%edx), %esi
.LVL28:
	.loc 1 716 0
	jne	.L20
	.loc 1 717 0
	movzwl	%si, %esi
	pushl	%eax
	pushl	$0
	pushl	%esi
	pushl	%ebx
	movl	%edx, -64(%ebp)
.LVL29:
	call	pbuf_put_at
.LVL30:
	.loc 1 727 0
	movl	-64(%ebp), %edx
	leal	-44(%ebp), %eax
	.loc 1 724 0
	movw	$256, -44(%ebp)
	.loc 1 726 0
	movw	$256, -42(%ebp)
	.loc 1 727 0
	addl	$2, %edx
	movzwl	%dx, %edx
	pushl	%edx
	pushl	$4
	pushl	%eax
	pushl	%ebx
	call	pbuf_take_at
.LVL31:
	.loc 1 737 0
	imull	$272, -60(%ebp), %eax
	addl	$32, %esp
	pushl	$53
	movzbl	dns_table+11(%eax), %edx
	addl	$dns_table, %eax
	leal	dns_servers(,%edx,4), %edx
	pushl	%edx
	pushl	%ebx
	movzbl	15(%eax), %eax
	pushl	dns_pcbs(,%eax,4)
	call	udp_sendto
.LVL32:
	movl	%eax, %esi
.LVL33:
	.loc 1 740 0
	movl	%ebx, (%esp)
	call	pbuf_free
.LVL34:
	addl	$16, %esp
	.loc 1 737 0
	movl	%esi, %eax
.LVL35:
.L16:
	.loc 1 746 0
	movl	-28(%ebp), %ebx
	xorl	%gs:20, %ebx
	je	.L21
	call	__stack_chk_fail
.LVL36:
.L21:
	leal	-12(%ebp), %esp
	popl	%ebx
	.cfi_restore 3
	popl	%esi
	.cfi_restore 6
	popl	%edi
	.cfi_restore 7
	popl	%ebp
	.cfi_restore 5
	.cfi_def_cfa 4, 4
.LVL37:
	ret
	.cfi_endproc
.LFE30:
	.size	dns_send, .-dns_send
	.section	.text.unlikely.dns_send
.LCOLDE1:
	.section	.text.dns_send
.LHOTE1:
	.section	.text.unlikely.dns_check_entry,"ax",@progbits
.LCOLDB2:
	.section	.text.dns_check_entry,"ax",@progbits
.LHOTB2:
	.type	dns_check_entry, @function
dns_check_entry:
.LFB35:
	.loc 1 915 0
	.cfi_startproc
.LVL38:
	pushl	%ebp
	.cfi_def_cfa_offset 8
	.cfi_offset 5, -8
	movl	%esp, %ebp
	.cfi_def_cfa_register 5
	pushl	%esi
	.cfi_offset 6, -12
	.loc 1 917 0
	movzbl	%al, %esi
.LVL39:
	.loc 1 922 0
	imull	$272, %esi, %edx
	.loc 1 915 0
	pushl	%ebx
	.cfi_offset 3, -16
	.loc 1 922 0
	leal	dns_table(%edx), %ebx
.LVL40:
	movb	10(%ebx), %al
.LVL41:
	cmpb	$2, %al
	je	.L31
	cmpb	$3, %al
	je	.L32
	decb	%al
	jne	.L29
.L46:
.LBB5:
.LBB6:
	.loc 1 890 0
	call	rand
.LVL42:
	.loc 1 894 0
	cmpb	$2, dns_table+10
	.loc 1 890 0
	movl	%eax, %edx
.LVL43:
	.loc 1 894 0
	jne	.L34
	cmpw	dns_table+8, %ax
	je	.L46
.L34:
.LVL44:
	cmpb	$2, dns_table+282
	je	.L35
.L36:
.LVL45:
.LBE6:
.LBE5:
	.loc 1 925 0
	imull	$272, %esi, %eax
	movw	%dx, dns_table+8(%eax)
	.loc 1 926 0
	movb	$2, dns_table+10(%eax)
	.loc 1 927 0
	movb	$0, dns_table+11(%eax)
	.loc 1 928 0
	movb	$1, dns_table+12(%eax)
	.loc 1 929 0
	movb	$0, dns_table+13(%eax)
	jmp	.L39
.LVL46:
.L35:
.LBB8:
.LBB7:
	.loc 1 894 0
	cmpw	dns_table+280, %ax
	jne	.L36
	jmp	.L46
.LVL47:
.L31:
.LBE7:
.LBE8:
	.loc 1 939 0
	decb	12(%ebx)
	jne	.L29
	.loc 1 940 0
	movzbl	num_dns, %ecx
	movb	13(%ebx), %al
	.loc 1 941 0
	movb	$1, 12(%ebx)
	.loc 1 940 0
	incl	%eax
	leal	0(,%ecx,4), %edx
	movb	%al, 13(%ebx)
	movzbl	%al, %eax
	cmpl	%edx, %eax
	jne	.L38
	.loc 1 945 0
	xorl	%edx, %edx
	movl	%esi, %eax
	.loc 1 942 0
	movb	$0, 13(%ebx)
	.loc 1 945 0
	call	dns_call_found
.LVL48:
	.loc 1 946 0
	movb	$0, 10(%ebx)
	.loc 1 947 0
	jmp	.L29
.L38:
	.loc 1 952 0
	movzbl	11(%ebx), %eax
	incl	%eax
	cltd
	idivl	%ecx
.LVL49:
	.loc 1 953 0
	cmpb	$1, %dl
	ja	.L39
	.loc 1 953 0 is_stmt 0 discriminator 1
	cmpl	$0, dns_servers(,%edx,4)
	je	.L39
	.loc 1 954 0 is_stmt 1
	movb	%dl, 11(%ebx)
.LVL50:
.L39:
	.loc 1 980 0
	popl	%ebx
	.cfi_remember_state
	.cfi_restore 3
.LVL51:
	.loc 1 958 0
	movl	%esi, %eax
	.loc 1 980 0
	popl	%esi
	.cfi_restore 6
.LVL52:
	popl	%ebp
	.cfi_restore 5
	.cfi_def_cfa 4, 4
	.loc 1 958 0
	jmp	dns_send
.LVL53:
.L32:
	.cfi_restore_state
	.loc 1 967 0
	movl	dns_table(%edx), %eax
	testl	%eax, %eax
	jne	.L40
.L41:
	.loc 1 970 0
	imull	$272, %esi, %esi
	movb	$0, dns_table+10(%esi)
	jmp	.L29
.L40:
	.loc 1 967 0 discriminator 1
	decl	%eax
	testl	%eax, %eax
	movl	%eax, dns_table(%edx)
	je	.L41
.L29:
	.loc 1 980 0
	popl	%ebx
	.cfi_restore 3
.LVL54:
	popl	%esi
	.cfi_restore 6
	popl	%ebp
	.cfi_restore 5
	.cfi_def_cfa 4, 4
	ret
	.cfi_endproc
.LFE35:
	.size	dns_check_entry, .-dns_check_entry
	.section	.text.unlikely.dns_check_entry
.LCOLDE2:
	.section	.text.dns_check_entry
.LHOTE2:
	.section	.text.unlikely.dns_recv,"ax",@progbits
.LCOLDB3:
	.section	.text.dns_recv,"ax",@progbits
.LHOTB3:
	.type	dns_recv, @function
dns_recv:
.LFB38:
	.loc 1 1032 0
	.cfi_startproc
.LVL55:
	pushl	%ebp
	.cfi_def_cfa_offset 8
	.cfi_offset 5, -8
	movl	%esp, %ebp
	.cfi_def_cfa_register 5
	pushl	%edi
	pushl	%esi
	pushl	%ebx
	subl	$76, %esp
	.cfi_offset 7, -12
	.cfi_offset 6, -16
	.cfi_offset 3, -20
	.loc 1 1032 0
	movl	16(%ebp), %ebx
	movl	20(%ebp), %edi
	movl	%gs:20, %eax
	movl	%eax, -28(%ebp)
	xorl	%eax, %eax
	.loc 1 1046 0
	cmpw	$15, 8(%ebx)
	jbe	.L67
	.loc 1 1053 0
	leal	-40(%ebp), %eax
	pushl	$0
	pushl	$12
	pushl	%eax
	pushl	%ebx
	call	pbuf_copy_partial
.LVL56:
	addl	$16, %esp
	cmpw	$12, %ax
	jne	.L67
	.loc 1 1055 0
	movzwl	-40(%ebp), %eax
	subl	$12, %esp
	pushl	%eax
	call	lwip_htons
.LVL57:
.LBB18:
	.loc 1 1058 0
	addl	$16, %esp
	cmpb	$2, dns_table+10
	jne	.L52
	cmpw	dns_table+8, %ax
	je	.L70
.L52:
.LVL58:
	cmpb	$2, dns_table+282
	jne	.L67
	cmpw	dns_table+280, %ax
	jne	.L67
	.loc 1 1057 0
	movl	$1, -76(%ebp)
	jmp	.L53
.LVL59:
.L70:
	movl	$0, -76(%ebp)
.LVL60:
.L53:
	.loc 1 1063 0
	movzwl	-36(%ebp), %eax
.LVL61:
	subl	$12, %esp
	pushl	%eax
	call	lwip_htons
.LVL62:
	movl	%eax, %esi
.LVL63:
	.loc 1 1064 0
	movzwl	-34(%ebp), %eax
.LVL64:
	movl	%eax, (%esp)
	call	lwip_htons
.LVL65:
	.loc 1 1071 0
	addl	$16, %esp
	cmpb	$0, -38(%ebp)
	.loc 1 1064 0
	movw	%ax, -78(%ebp)
.LVL66:
	.loc 1 1071 0
	jns	.L67
	decw	%si
.LVL67:
	jne	.L67
	.loc 1 1078 0
	imull	$272, -76(%ebp), %esi
	movzbl	dns_table+11(%esi), %eax
.LVL68:
	movl	dns_servers(,%eax,4), %eax
	cmpl	%eax, (%edi)
	jne	.L67
	.loc 1 1084 0
	addl	$dns_table+16, %esi
.LVL69:
.LBB19:
.LBB20:
	.loc 1 586 0
	movl	$12, %edi
.L57:
.LVL70:
	.loc 1 589 0
	leal	1(%edi), %eax
	movzwl	%di, %edx
	movw	%ax, -80(%ebp)
.LVL71:
.LVL72:
	pushl	%eax
	pushl	%eax
	pushl	%edx
	pushl	%ebx
	call	pbuf_try_get_at
.LVL73:
	.loc 1 590 0
	addl	$16, %esp
	testl	%eax, %eax
	js	.L67
	.loc 1 594 0
	movl	%eax, %edx
	andl	$192, %edx
	cmpl	$192, %edx
	je	.L67
	movl	-80(%ebp), %edi
	addl	%esi, %eax
.LVL74:
	movl	%eax, -84(%ebp)
.LVL75:
.L55:
	.loc 1 599 0
	cmpl	%esi, -84(%ebp)
	movzwl	%di, %eax
	je	.L90
.LBB21:
	.loc 1 600 0
	pushl	%ecx
	pushl	%ecx
	pushl	%eax
	pushl	%ebx
	call	pbuf_try_get_at
.LVL76:
	.loc 1 601 0
	addl	$16, %esp
	testl	%eax, %eax
	js	.L67
	.loc 1 604 0
	movsbl	(%esi), %ecx
	movzbl	%al, %eax
.LVL77:
	cmpl	%eax, %ecx
	jne	.L67
	.loc 1 607 0
	incl	%edi
.LVL78:
	.loc 1 608 0
	incl	%esi
.LVL79:
	jmp	.L55
.L90:
.LBE21:
	.loc 1 611 0
	movl	-84(%ebp), %esi
.LVL80:
	.loc 1 613 0
	pushl	%edx
	pushl	%edx
	pushl	%eax
	pushl	%ebx
	.loc 1 611 0
	incl	%esi
.LVL81:
	.loc 1 613 0
	call	pbuf_try_get_at
.LVL82:
	.loc 1 614 0
	addl	$16, %esp
	testl	%eax, %eax
	js	.L67
	.loc 1 617 0
	jne	.L57
	.loc 1 619 0
	leal	1(%edi), %eax
.LVL83:
.LBE20:
.LBE19:
	.loc 1 1085 0
	cmpw	$-1, %ax
	je	.L67
	.loc 1 1091 0
	movzwl	%ax, %eax
	pushl	%eax
	leal	-56(%ebp), %eax
	pushl	$4
	pushl	%eax
	pushl	%ebx
	call	pbuf_copy_partial
.LVL84:
	addl	$16, %esp
	cmpw	$4, %ax
	jne	.L67
	.loc 1 1094 0
	cmpw	$256, -54(%ebp)
	jne	.L67
	.loc 1 1095 0
	cmpw	$256, -56(%ebp)
	jne	.L67
	.loc 1 1104 0
	testb	$15, -37(%ebp)
	.loc 1 1101 0
	leal	5(%edi), %edx
.LVL85:
	.loc 1 1115 0
	leal	-52(%ebp), %edi
.LVL86:
	.loc 1 1104 0
	je	.L59
.L58:
	.loc 1 1186 0
	subl	$12, %esp
	pushl	%ebx
	call	pbuf_free
.LVL87:
	.loc 1 1187 0
	movl	-76(%ebp), %eax
	xorl	%edx, %edx
	call	dns_call_found
.LVL88:
	.loc 1 1188 0
	imull	$272, -76(%ebp), %eax
	movb	$0, dns_table+10(%eax)
	jmp	.L89
.LVL89:
.L93:
	.loc 1 1107 0 discriminator 1
	cmpw	8(%ebx), %dx
	jnb	.L58
.LVL90:
.L62:
.LBB22:
.LBB23:
	.loc 1 636 0
	leal	1(%edx), %esi
.LVL91:
	movzwl	%dx, %edx
	pushl	%eax
	pushl	%eax
	pushl	%edx
	pushl	%ebx
	call	pbuf_try_get_at
.LVL92:
	.loc 1 637 0
	addl	$16, %esp
	testl	%eax, %eax
	js	.L67
	.loc 1 641 0
	movl	%eax, %edx
	andl	$192, %edx
	cmpl	$192, %edx
	jne	.L91
.LVL93:
.L61:
	.loc 1 657 0
	leal	1(%esi), %eax
.LVL94:
.LBE23:
.LBE22:
	.loc 1 1110 0
	cmpw	$-1, %ax
	je	.L67
	.loc 1 1115 0
	movzwl	%ax, %eax
	pushl	%eax
	pushl	$10
	pushl	%edi
	pushl	%ebx
	call	pbuf_copy_partial
.LVL95:
	addl	$16, %esp
	cmpw	$10, %ax
	jne	.L67
	.loc 1 1120 0
	cmpw	$256, -50(%ebp)
	.loc 1 1118 0
	leal	11(%esi), %eax
	movw	%ax, -84(%ebp)
.LVL96:
	movzwl	%ax, %esi
.LVL97:
	.loc 1 1120 0
	je	.L92
.L63:
	.loc 1 1161 0
	movzwl	-44(%ebp), %eax
.LVL98:
	subl	$12, %esp
	pushl	%eax
	call	lwip_htons
.LVL99:
	movzwl	%ax, %eax
	addl	$16, %esp
	addl	%esi, %eax
	cmpl	$65535, %eax
	jg	.L67
	.loc 1 1164 0
	movzwl	-44(%ebp), %eax
	subl	$12, %esp
	pushl	%eax
	call	lwip_htons
.LVL100:
	movl	-84(%ebp), %edx
	.loc 1 1165 0
	decw	-78(%ebp)
.LVL101:
	addl	$16, %esp
	.loc 1 1164 0
	addl	%eax, %edx
.LVL102:
.L59:
	.loc 1 1107 0
	cmpw	$0, -78(%ebp)
	jne	.L93
	jmp	.L58
.LVL103:
.L91:
.LBB25:
.LBB24:
	.loc 1 646 0
	movzwl	8(%ebx), %ecx
	movzwl	%si, %edx
	addl	%eax, %edx
	cmpl	%ecx, %edx
	jge	.L67
	.loc 1 649 0
	leal	(%esi,%eax), %edx
.LVL104:
	.loc 1 651 0
	pushl	%ecx
	pushl	%ecx
	movzwl	%dx, %eax
.LVL105:
	movl	%edx, -84(%ebp)
	pushl	%eax
	pushl	%ebx
	call	pbuf_try_get_at
.LVL106:
	.loc 1 652 0
	addl	$16, %esp
	testl	%eax, %eax
	js	.L67
	.loc 1 655 0
	movl	-84(%ebp), %edx
	jne	.L62
	.loc 1 649 0
	movl	%edx, %esi
	jmp	.L61
.LVL107:
.L92:
.LBE24:
.LBE25:
	.loc 1 1122 0
	cmpw	$256, -52(%ebp)
	jne	.L63
	.loc 1 1122 0 is_stmt 0 discriminator 1
	cmpw	$1024, -44(%ebp)
	jne	.L63
.LBB26:
	.loc 1 1129 0 is_stmt 1
	leal	-60(%ebp), %eax
.LVL108:
	pushl	%esi
	pushl	$4
	pushl	%eax
	pushl	%ebx
	call	pbuf_copy_partial
.LVL109:
	addl	$16, %esp
	cmpw	$4, %ax
	jne	.L67
	.loc 1 1132 0
	imull	$272, -76(%ebp), %esi
	.loc 1 1133 0
	subl	$12, %esp
	.loc 1 1132 0
	movl	-60(%ebp), %eax
	.loc 1 1133 0
	pushl	%ebx
	.loc 1 1132 0
	movl	%eax, dns_table+4(%esi)
	.loc 1 1133 0
	call	pbuf_free
.LVL110:
	.loc 1 1135 0
	popl	%eax
	pushl	-48(%ebp)
	call	lwip_htonl
.LVL111:
.LBB27:
.LBB28:
	.loc 1 1011 0
	addl	$16, %esp
	cmpl	$604800, %eax
	.loc 1 1003 0
	movb	$3, dns_table+10(%esi)
	.loc 1 1010 0
	movl	%eax, dns_table(%esi)
	.loc 1 1011 0
	jbe	.L65
	.loc 1 1012 0
	movl	$604800, dns_table(%esi)
.L65:
	.loc 1 1014 0
	imull	$272, -76(%ebp), %esi
	movl	-76(%ebp), %eax
.LVL112:
	leal	dns_table+4(%esi), %edx
	call	dns_call_found
.LVL113:
	.loc 1 1016 0
	cmpl	$0, dns_table(%esi)
	jne	.L50
	.loc 1 1022 0
	cmpb	$3, dns_table+10(%esi)
	jne	.L50
	.loc 1 1023 0
	movb	$0, dns_table+10(%esi)
.LVL114:
	jmp	.L50
.LVL115:
.L67:
.LBE28:
.LBE27:
.LBE26:
.LBE18:
	.loc 1 1196 0
	subl	$12, %esp
	pushl	%ebx
	call	pbuf_free
.LVL116:
.L89:
	.loc 1 1197 0
	addl	$16, %esp
.L50:
	.loc 1 1198 0
	movl	-28(%ebp), %eax
	xorl	%gs:20, %eax
	je	.L69
	call	__stack_chk_fail
.LVL117:
.L69:
	leal	-12(%ebp), %esp
	popl	%ebx
	.cfi_restore 3
	popl	%esi
	.cfi_restore 6
	popl	%edi
	.cfi_restore 7
	popl	%ebp
	.cfi_restore 5
	.cfi_def_cfa 4, 4
	ret
	.cfi_endproc
.LFE38:
	.size	dns_recv, .-dns_recv
	.section	.text.unlikely.dns_recv
.LCOLDE3:
	.section	.text.dns_recv
.LHOTE3:
	.section	.text.unlikely.dns_setserver,"ax",@progbits
.LCOLDB4:
	.section	.text.dns_setserver,"ax",@progbits
.LHOTB4:
	.globl	dns_setserver
	.type	dns_setserver, @function
dns_setserver:
.LFB24:
	.loc 1 339 0
	.cfi_startproc
.LVL118:
	pushl	%ebp
	.cfi_def_cfa_offset 8
	.cfi_offset 5, -8
	movl	%esp, %ebp
	.cfi_def_cfa_register 5
	.loc 1 339 0
	movl	8(%ebp), %eax
	movl	12(%ebp), %edx
	.loc 1 340 0
	leal	1(%eax), %ecx
	.loc 1 342 0
	cmpb	$1, %al
	.loc 1 340 0
	movb	%cl, num_dns
	.loc 1 342 0
	ja	.L94
.LVL119:
.LBB31:
.LBB32:
	.loc 1 343 0
	testl	%edx, %edx
	movzbl	%al, %eax
	je	.L96
	.loc 1 344 0
	movl	(%edx), %edx
	jmp	.L98
.LVL120:
.L96:
	.loc 1 346 0
	movl	ip_addr_any, %edx
.LVL121:
.L98:
	movl	%edx, dns_servers(,%eax,4)
.LVL122:
.L94:
.LBE32:
.LBE31:
	.loc 1 349 0
	popl	%ebp
	.cfi_restore 5
	.cfi_def_cfa 4, 4
	ret
	.cfi_endproc
.LFE24:
	.size	dns_setserver, .-dns_setserver
	.section	.text.unlikely.dns_setserver
.LCOLDE4:
	.section	.text.dns_setserver
.LHOTE4:
	.section	.rodata.str1.1,"aMS",@progbits,1
.LC5:
	.string	"208.67.222.222"
	.section	.text.unlikely.dns_init,"ax",@progbits
.LCOLDB6:
	.section	.text.dns_init,"ax",@progbits
.LHOTB6:
	.globl	dns_init
	.type	dns_init, @function
dns_init:
.LFB23:
	.loc 1 293 0
	.cfi_startproc
	pushl	%ebp
	.cfi_def_cfa_offset 8
	.cfi_offset 5, -8
	movl	%esp, %ebp
	.cfi_def_cfa_register 5
	subl	$36, %esp
	.loc 1 297 0
	pushl	$.LC5
	.loc 1 293 0
	movl	%gs:20, %eax
	movl	%eax, -12(%ebp)
	xorl	%eax, %eax
	.loc 1 297 0
	call	ipaddr_addr
.LVL123:
	movl	%eax, -16(%ebp)
	.loc 1 298 0
	popl	%eax
	leal	-16(%ebp), %eax
	popl	%edx
	pushl	%eax
	pushl	$0
	call	dns_setserver
.LVL124:
	.loc 1 328 0
	addl	$16, %esp
	movl	-12(%ebp), %eax
	xorl	%gs:20, %eax
	je	.L100
	call	__stack_chk_fail
.LVL125:
.L100:
	leave
	.cfi_restore 5
	.cfi_def_cfa 4, 4
	ret
	.cfi_endproc
.LFE23:
	.size	dns_init, .-dns_init
	.section	.text.unlikely.dns_init
.LCOLDE6:
	.section	.text.dns_init
.LHOTE6:
	.section	.text.unlikely.dns_getserver,"ax",@progbits
.LCOLDB7:
	.section	.text.dns_getserver,"ax",@progbits
.LHOTB7:
	.globl	dns_getserver
	.type	dns_getserver, @function
dns_getserver:
.LFB25:
	.loc 1 361 0
	.cfi_startproc
.LVL126:
	pushl	%ebp
	.cfi_def_cfa_offset 8
	.cfi_offset 5, -8
	movl	$ip_addr_any, %eax
	movl	%esp, %ebp
	.cfi_def_cfa_register 5
	.loc 1 361 0
	movl	8(%ebp), %edx
	.loc 1 362 0
	cmpb	$1, %dl
	ja	.L103
	.loc 1 363 0
	movzbl	%dl, %edx
	leal	dns_servers(,%edx,4), %eax
.L103:
	.loc 1 367 0
	popl	%ebp
	.cfi_restore 5
	.cfi_def_cfa 4, 4
	ret
	.cfi_endproc
.LFE25:
	.size	dns_getserver, .-dns_getserver
	.section	.text.unlikely.dns_getserver
.LCOLDE7:
	.section	.text.dns_getserver
.LHOTE7:
	.section	.text.unlikely.dns_tmr,"ax",@progbits
.LCOLDB8:
	.section	.text.dns_tmr,"ax",@progbits
.LHOTB8:
	.globl	dns_tmr
	.type	dns_tmr, @function
dns_tmr:
.LFB26:
	.loc 1 375 0
	.cfi_startproc
.LVL127:
	pushl	%ebp
	.cfi_def_cfa_offset 8
	.cfi_offset 5, -8
.LBB35:
.LBB36:
	.loc 1 991 0
	xorl	%eax, %eax
.LBE36:
.LBE35:
	.loc 1 375 0
	movl	%esp, %ebp
	.cfi_def_cfa_register 5
	subl	$8, %esp
.LBB39:
.LBB37:
	.loc 1 991 0
	call	dns_check_entry
.LVL128:
.LBE37:
.LBE39:
	.loc 1 378 0
	leave
	.cfi_restore 5
	.cfi_def_cfa 4, 4
.LBB40:
.LBB38:
	.loc 1 991 0
	movl	$1, %eax
	jmp	dns_check_entry
.LVL129:
.LBE38:
.LBE40:
	.cfi_endproc
.LFE26:
	.size	dns_tmr, .-dns_tmr
	.section	.text.unlikely.dns_tmr
.LCOLDE8:
	.section	.text.dns_tmr
.LHOTE8:
	.section	.rodata.str1.1
.LC9:
	.string	"localhost"
	.section	.text.unlikely.dns_gethostbyname_addrtype,"ax",@progbits
.LCOLDB10:
	.section	.text.dns_gethostbyname_addrtype,"ax",@progbits
.LHOTB10:
	.globl	dns_gethostbyname_addrtype
	.type	dns_gethostbyname_addrtype, @function
dns_gethostbyname_addrtype:
.LFB41:
	.loc 1 1379 0
	.cfi_startproc
.LVL130:
	pushl	%ebp
	.cfi_def_cfa_offset 8
	.cfi_offset 5, -8
	movl	%esp, %ebp
	.cfi_def_cfa_register 5
	pushl	%edi
	pushl	%esi
	pushl	%ebx
	.cfi_offset 7, -12
	.cfi_offset 6, -16
	.cfi_offset 3, -20
	.loc 1 1385 0
	movl	$-16, %edi
	.loc 1 1379 0
	subl	$28, %esp
	.loc 1 1379 0
	movl	12(%ebp), %ebx
	movl	8(%ebp), %esi
	.loc 1 1383 0
	testl	%ebx, %ebx
	je	.L156
	testl	%esi, %esi
	sete	%al
	je	.L156
	.loc 1 1384 0
	cmpb	$0, (%esi)
	je	.L156
	.loc 1 1392 0
	orl	$-1, %ecx
	movl	%esi, %edi
	repnz scasb
.LVL131:
	.loc 1 1385 0
	movl	$-16, %edi
	.loc 1 1392 0
	notl	%ecx
	leal	-1(%ecx), %eax
	.loc 1 1393 0
	cmpl	$255, %eax
	.loc 1 1392 0
	movl	%eax, -36(%ebp)
.LVL132:
	.loc 1 1393 0
	ja	.L156
.LVL133:
	.loc 1 1400 0
	pushl	%eax
	pushl	%eax
	pushl	$.LC9
	pushl	%esi
	call	strcmp
.LVL134:
	addl	$16, %esp
	testl	%eax, %eax
	jne	.L111
	.loc 1 1401 0
	movl	$16777343, (%ebx)
	jmp	.L166
.L111:
	.loc 1 1407 0
	pushl	%eax
	pushl	%eax
	.loc 1 1413 0
	xorl	%edi, %edi
	.loc 1 1407 0
	pushl	%ebx
	pushl	%esi
	call	ip4addr_aton
.LVL135:
	addl	$16, %esp
	testl	%eax, %eax
	movl	%eax, -32(%ebp)
	jne	.L156
.LVL136:
.LBB50:
.LBB51:
	.loc 1 555 0
	cmpb	$3, dns_table+10
	jne	.L112
	.loc 1 556 0
	pushl	%eax
	pushl	$256
	pushl	$dns_table+16
	pushl	%esi
	call	lwip_strnicmp
.LVL137:
	.loc 1 555 0
	addl	$16, %esp
	testl	%eax, %eax
	je	.L113
.L112:
.LVL138:
	cmpb	$3, dns_table+282
	jne	.L114
	.loc 1 556 0
	pushl	%edi
	pushl	$256
	pushl	$dns_table+288
	pushl	%esi
	call	lwip_strnicmp
.LVL139:
	.loc 1 555 0
	addl	$16, %esp
	testl	%eax, %eax
	jne	.L114
	movl	$1, %eax
.LVL140:
.L113:
	.loc 1 562 0
	imull	$272, %eax, %eax
	movl	dns_table+4(%eax), %eax
	movl	%eax, (%ebx)
.L166:
.LBE51:
.LBE50:
	.loc 1 1418 0
	xorl	%edi, %edi
	jmp	.L156
.LVL141:
.L114:
	.loc 1 1438 0
	cmpl	$0, dns_servers
	.loc 1 1439 0
	movl	$-6, %edi
	.loc 1 1438 0
	je	.L156
	movl	$dns_table+16, %ebx
	movb	$0, -25(%ebp)
.L118:
.LVL142:
.LBB52:
.LBB53:
	.loc 1 1223 0
	cmpb	$2, -6(%ebx)
	jne	.L116
	.loc 1 1224 0
	pushl	%ecx
	pushl	$256
	pushl	%ebx
	pushl	%esi
	call	lwip_strnicmp
.LVL143:
	.loc 1 1223 0
	addl	$16, %esp
	testl	%eax, %eax
	jne	.L116
.LVL144:
	.loc 1 1235 0
	cmpl	$0, dns_requests
	je	.L117
.LVL145:
	cmpl	$0, dns_requests+12
	jne	.L116
	movl	$1, %eax
.LVL146:
.L117:
	.loc 1 1236 0
	imull	$12, %eax, %eax
	movl	16(%ebp), %esi
	leal	dns_requests(%eax), %edx
	movl	%esi, dns_requests(%eax)
	.loc 1 1237 0
	movl	20(%ebp), %eax
	movl	%eax, 4(%edx)
	.loc 1 1238 0
	movb	-25(%ebp), %al
	movb	%al, 8(%edx)
	jmp	.L167
.L116:
	.loc 1 1222 0
	incb	-25(%ebp)
.LVL147:
	addl	$272, %ebx
	cmpb	$2, -25(%ebp)
	jne	.L118
	.loc 1 1255 0
	movb	dns_table+10, %cl
	.loc 1 1260 0
	movb	dns_seqno, %dl
.LVL148:
	.loc 1 1255 0
	testb	%cl, %cl
	je	.L140
	.loc 1 1259 0
	xorl	%eax, %eax
	cmpb	$3, %cl
	jne	.L120
	.loc 1 1260 0
	movzbl	-25(%ebp), %edi
	movb	%dl, %al
	subb	dns_table+14, %al
	movb	$0, %cl
	cmovne	%ecx, %edi
	movl	%edi, %ecx
	movb	%cl, -25(%ebp)
.L120:
.LVL149:
	.loc 1 1255 0
	movb	dns_table+282, %cl
	testb	%cl, %cl
	jne	.L121
	.loc 1 1252 0
	movb	$1, -25(%ebp)
.LVL150:
	.loc 1 1253 0
	movl	$1, %ebx
	jmp	.L119
.LVL151:
.L140:
	xorl	%ebx, %ebx
	.loc 1 1255 0
	movb	$0, -25(%ebp)
.LVL152:
.L119:
	.loc 1 1253 0
	imull	$272, %ebx, %ebx
	addl	$dns_table, %ebx
	jmp	.L122
.LVL153:
.L121:
	.loc 1 1259 0
	cmpb	$3, %cl
	jne	.L123
	.loc 1 1260 0
	movb	%dl, %cl
	subb	dns_table+286, %cl
	cmpb	%al, %cl
	jbe	.L123
	.loc 1 1252 0
	movb	$1, -25(%ebp)
.LVL154:
	jmp	.L164
.LVL155:
.L123:
	.loc 1 1269 0
	cmpb	$2, -25(%ebp)
	.loc 1 1272 0
	movl	$-1, %edi
	.loc 1 1269 0
	je	.L156
.LVL156:
.L164:
	movzbl	-25(%ebp), %ebx
	.loc 1 1272 0
	movl	$-1, %edi
	.loc 1 1269 0
	imull	$272, %ebx, %ebx
	addl	$dns_table, %ebx
	cmpb	$3, 10(%ebx)
	jne	.L156
.LVL157:
.L122:
	.loc 1 1284 0
	cmpl	$0, dns_requests
	je	.L124
.LVL158:
	cmpl	$0, dns_requests+12
	.loc 1 1272 0
	movl	$-1, %edi
	.loc 1 1284 0
	jne	.L156
	movl	$1, -32(%ebp)
.LVL159:
.L124:
	.loc 1 1294 0
	imull	$12, -32(%ebp), %edi
	.loc 1 1305 0
	movb	%dl, 14(%ebx)
	.loc 1 1308 0
	movl	16(%ebp), %edx
	.loc 1 1311 0
	leal	16(%ebx), %eax
	.loc 1 1310 0
	cmpl	$255, -36(%ebp)
	.loc 1 1294 0
	movb	-25(%ebp), %cl
	.loc 1 1304 0
	movb	$1, 10(%ebx)
	.loc 1 1308 0
	movl	%edx, dns_requests(%edi)
	.loc 1 1309 0
	movl	20(%ebp), %edx
	.loc 1 1294 0
	movb	%cl, dns_requests+8(%edi)
	.loc 1 1309 0
	movl	%edx, dns_requests+4(%edi)
	.loc 1 1310 0
	movl	$255, %edx
	cmovbe	-36(%ebp), %edx
.LVL160:
.LBB54:
.LBB55:
	.loc 1 790 0
	cmpl	$0, dns_pcbs
.LBE55:
.LBE54:
	.loc 1 1311 0
	movl	%eax, %edi
	movl	%edx, %ecx
	rep movsb
	.loc 1 1312 0
	movb	$0, 16(%ebx,%edx)
.LVL161:
.LBB65:
.LBB63:
	.loc 1 790 0
	je	.L145
.LVL162:
	cmpl	$0, dns_pcbs+4
	je	.L168
.LVL163:
.L126:
	.loc 1 804 0
	movb	dns_last_pcb_idx, %al
	.loc 1 806 0
	movb	$0, %dl
	.loc 1 804 0
	incl	%eax
.LVL164:
	.loc 1 806 0
	cmpb	$2, %al
	cmovnb	%edx, %eax
.LVL165:
	.loc 1 808 0
	movzbl	%al, %edx
	cmpl	$0, dns_pcbs(,%edx,4)
	jne	.L133
.LVL166:
	xorl	$1, %eax
.LVL167:
	.loc 1 813 0
	movb	$2, %dl
	.loc 1 808 0
	andl	$1, %eax
.LVL168:
	movzbl	%al, %ecx
	cmpl	$0, dns_pcbs(,%ecx,4)
	je	.L131
.LVL169:
.L133:
	.loc 1 809 0
	movb	%al, dns_last_pcb_idx
	movb	%al, %dl
.L131:
.LBE63:
.LBE65:
	.loc 1 1316 0
	cmpb	$2, %dl
	.loc 1 1315 0
	movb	%dl, 15(%ebx)
	.loc 1 1316 0
	jne	.L134
	.loc 1 1320 0
	imull	$12, -32(%ebp), %eax
	.loc 1 1319 0
	movb	$0, 10(%ebx)
	.loc 1 1321 0
	movl	$-1, %edi
	.loc 1 1320 0
	movl	$0, dns_requests(%eax)
	jmp	.L156
.L134:
	.loc 1 1329 0
	movzbl	-25(%ebp), %eax
	.loc 1 1326 0
	incb	dns_seqno
	.loc 1 1329 0
	call	dns_check_entry
.LVL170:
.L167:
	.loc 1 1332 0
	movl	$-5, %edi
	jmp	.L156
.LVL171:
.L145:
.LBB66:
.LBB64:
	.loc 1 789 0
	xorl	%esi, %esi
	jmp	.L125
.LVL172:
.L168:
	movl	$1, %esi
.LVL173:
.L125:
.LBB56:
.LBB57:
	.loc 1 755 0
	subl	$12, %esp
.LBE57:
.LBE56:
	.loc 1 795 0
	movl	%esi, %eax
.LBB61:
.LBB59:
	.loc 1 755 0
	pushl	$46
.LBE59:
.LBE61:
	.loc 1 795 0
	movzbl	%al, %eax
	movl	%eax, -36(%ebp)
.LVL174:
.LBB62:
.LBB60:
	.loc 1 755 0
	call	udp_new_ip_type
.LVL175:
	movl	%eax, %edi
.LVL176:
	.loc 1 756 0
	addl	$16, %esp
	.loc 1 758 0
	xorl	%eax, %eax
.LVL177:
	.loc 1 756 0
	testl	%edi, %edi
	je	.L130
.L127:
.LBB58:
	.loc 1 761 0
	call	rand
.LVL178:
	.loc 1 762 0
	cmpw	$1023, %ax
	jbe	.L127
	.loc 1 767 0
	movzwl	%ax, %eax
	pushl	%edx
	pushl	%eax
	pushl	$ip_addr_any
	pushl	%edi
	call	udp_bind
.LVL179:
.LBE58:
	.loc 1 768 0
	addl	$16, %esp
	cmpb	$-8, %al
	je	.L127
	.loc 1 769 0
	testb	%al, %al
	je	.L129
	.loc 1 770 0
	subl	$12, %esp
	pushl	%edi
	call	udp_remove
.LVL180:
	addl	$16, %esp
	.loc 1 771 0
	xorl	%eax, %eax
	jmp	.L130
.LVL181:
.L129:
.LVL182:
	.loc 1 773 0
	pushl	%eax
	pushl	$0
	pushl	$dns_recv
	pushl	%edi
	call	udp_recv
.LVL183:
	addl	$16, %esp
	movl	%edi, %eax
.L130:
.LVL184:
.LBE60:
.LBE62:
	.loc 1 795 0
	movl	-36(%ebp), %edx
	.loc 1 796 0
	testl	%eax, %eax
	.loc 1 795 0
	movl	%eax, dns_pcbs(,%edx,4)
	.loc 1 796 0
	je	.L126
	.loc 1 798 0
	movl	%esi, %eax
	movl	%esi, %edx
	movb	%al, dns_last_pcb_idx
	jmp	.L131
.LVL185:
.L156:
.LBE64:
.LBE66:
.LBE53:
.LBE52:
	.loc 1 1444 0
	leal	-12(%ebp), %esp
	movl	%edi, %eax
	popl	%ebx
	.cfi_restore 3
	popl	%esi
	.cfi_restore 6
	popl	%edi
	.cfi_restore 7
	popl	%ebp
	.cfi_restore 5
	.cfi_def_cfa 4, 4
	ret
	.cfi_endproc
.LFE41:
	.size	dns_gethostbyname_addrtype, .-dns_gethostbyname_addrtype
	.section	.text.unlikely.dns_gethostbyname_addrtype
.LCOLDE10:
	.section	.text.dns_gethostbyname_addrtype
.LHOTE10:
	.section	.text.unlikely.dns_gethostbyname,"ax",@progbits
.LCOLDB11:
	.section	.text.dns_gethostbyname,"ax",@progbits
.LHOTB11:
	.globl	dns_gethostbyname
	.type	dns_gethostbyname, @function
dns_gethostbyname:
.LFB40:
	.loc 1 1358 0
	.cfi_startproc
.LVL186:
	pushl	%ebp
	.cfi_def_cfa_offset 8
	.cfi_offset 5, -8
	movl	%esp, %ebp
	.cfi_def_cfa_register 5
	subl	$20, %esp
	.loc 1 1359 0
	pushl	$0
	pushl	20(%ebp)
	pushl	16(%ebp)
	pushl	12(%ebp)
	pushl	8(%ebp)
	call	dns_gethostbyname_addrtype
.LVL187:
	.loc 1 1360 0
	leave
	.cfi_restore 5
	.cfi_def_cfa 4, 4
	ret
	.cfi_endproc
.LFE40:
	.size	dns_gethostbyname, .-dns_gethostbyname
	.section	.text.unlikely.dns_gethostbyname
.LCOLDE11:
	.section	.text.dns_gethostbyname
.LHOTE11:
	.section	.bss.num_dns,"aw",@nobits
	.type	num_dns, @object
	.size	num_dns, 1
num_dns:
	.zero	1
	.section	.bss.dns_servers,"aw",@nobits
	.align 4
	.type	dns_servers, @object
	.size	dns_servers, 8
dns_servers:
	.zero	8
	.section	.bss.dns_requests,"aw",@nobits
	.align 4
	.type	dns_requests, @object
	.size	dns_requests, 24
dns_requests:
	.zero	24
	.section	.bss.dns_table,"aw",@nobits
	.align 32
	.type	dns_table, @object
	.size	dns_table, 544
dns_table:
	.zero	544
	.section	.bss.dns_seqno,"aw",@nobits
	.type	dns_seqno, @object
	.size	dns_seqno, 1
dns_seqno:
	.zero	1
	.section	.bss.dns_last_pcb_idx,"aw",@nobits
	.type	dns_last_pcb_idx, @object
	.size	dns_last_pcb_idx, 1
dns_last_pcb_idx:
	.zero	1
	.section	.bss.dns_pcbs,"aw",@nobits
	.align 4
	.type	dns_pcbs, @object
	.size	dns_pcbs, 8
dns_pcbs:
	.zero	8
	.text
.Letext0:
	.section	.text.unlikely.dns_call_found
.Letext_cold0:
	.file 2 "/home/stone/Documents/Ali_IOT/build/compiler/gcc-arm-none-eabi/Linux64/lib/gcc/arm-none-eabi/5.4.1/include/stddef.h"
	.file 3 "/home/stone/Documents/Ali_IOT/build/compiler/gcc-arm-none-eabi/Linux64/arm-none-eabi/include/machine/_default_types.h"
	.file 4 "/home/stone/Documents/Ali_IOT/build/compiler/gcc-arm-none-eabi/Linux64/arm-none-eabi/include/sys/_stdint.h"
	.file 5 "././platform/mcu/moc108/include/lwip-2.0.2/arch/cc.h"
	.file 6 "./kernel/protocols/net/include/lwip/err.h"
	.file 7 "./kernel/protocols/net/include/lwip/pbuf.h"
	.file 8 "./kernel/protocols/net/include/lwip/ip4_addr.h"
	.file 9 "./kernel/protocols/net/include/lwip/ip_addr.h"
	.file 10 "./kernel/protocols/net/include/lwip/memp.h"
	.file 11 "./kernel/protocols/net/include/lwip/netif.h"
	.file 12 "./kernel/protocols/net/include/lwip/udp.h"
	.file 13 "./kernel/protocols/net/include/lwip/dns.h"
	.file 14 "./kernel/protocols/net/include/lwip/prot/dns.h"
	.file 15 "./include/aos/log.h"
	.file 16 "./kernel/protocols/net/include/lwip/def.h"
	.file 17 "/home/stone/Documents/Ali_IOT/build/compiler/gcc-arm-none-eabi/Linux64/arm-none-eabi/include/string.h"
	.section	.note.GNU-stack,"",@progbits
