	.file	"dumpsys.c"
	.text
.Ltext0:
	.section	.text.unlikely.mm_leak_timer_cb,"ax",@progbits
.LCOLDB9:
	.section	.text.mm_leak_timer_cb,"ax",@progbits
.LHOTB9:
	.section	.text.unlikely.mm_leak_timer_cb
.Ltext_cold0:
	.section	.text.mm_leak_timer_cb
	.globl	mm_leak_timer_cb
	.type	mm_leak_timer_cb, @function
mm_leak_timer_cb:
.LFB32:
	.file 1 "tools/cli/dumpsys.c"
	.loc 1 260 0
	.cfi_startproc
.LVL0:
	pushl	%ebp
	.cfi_def_cfa_offset 8
	.cfi_offset 5, -8
	movl	%esp, %ebp
	.cfi_def_cfa_register 5
	subl	$20, %esp
	.loc 1 261 0
	pushl	$0
	call	dumpsys_mm_info_func
.LVL1:
	.loc 1 263 0
	xorl	%eax, %eax
	leave
	.cfi_restore 5
	.cfi_def_cfa 4, 4
	ret
	.cfi_endproc
.LFE32:
	.size	mm_leak_timer_cb, .-mm_leak_timer_cb
	.section	.text.unlikely.mm_leak_timer_cb
.LCOLDE9:
	.section	.text.mm_leak_timer_cb
.LHOTE9:
	.section	.rodata.str1.1,"aMS",@progbits,1
.LC10:
	.string	"anonym"
.LC12:
	.string	"%s------------------------------------------------------------------------\r\n"
.LC13:
	.string	"%s"
.LC14:
	.string	"%sName               State    Prio StackSize MinFreesize Runtime Candidate\r\n"
.LC15:
	.string	"%s%-19s%-9s%-5d%-10d%-12u%-9u%-11c\r\n"
.LC0:
	.string	"ERROR"
.LC1:
	.string	"RDY"
.LC2:
	.string	"PEND"
.LC3:
	.string	"SUS"
.LC4:
	.string	"PEND_SUS"
.LC5:
	.string	"SLP"
.LC6:
	.string	"SLP_SUS"
.LC7:
	.string	"DELETED"
	.section	.rodata
	.align 32
.LC11:
	.long	.LC0
	.long	.LC1
	.long	.LC2
	.long	.LC3
	.long	.LC4
	.long	.LC5
	.long	.LC6
	.long	.LC7
	.section	.text.unlikely.dumpsys_task_func,"ax",@progbits
.LCOLDB16:
	.section	.text.dumpsys_task_func,"ax",@progbits
.LHOTB16:
	.globl	dumpsys_task_func
	.type	dumpsys_task_func, @function
dumpsys_task_func:
.LFB29:
	.loc 1 35 0
	.cfi_startproc
.LVL2:
	pushl	%ebp
	.cfi_def_cfa_offset 8
	.cfi_offset 5, -8
	movl	%esp, %ebp
	.cfi_def_cfa_register 5
	pushl	%edi
	pushl	%esi
	pushl	%ebx
	.cfi_offset 7, -12
	.cfi_offset 6, -16
	.cfi_offset 3, -20
	.loc 1 40 0
	movl	$8, %ebx
	leal	-336(%ebp), %edi
	movl	%ebx, %ecx
	movl	$.LC11, %esi
	.loc 1 35 0
	subl	$360, %esp
	.loc 1 37 0
	movl	$0, -340(%ebp)
.LVL3:
	.loc 1 40 0
	rep movsl
	.loc 1 35 0
	movl	%gs:20, %eax
	movl	%eax, -28(%ebp)
	xorl	%eax, %eax
	.loc 1 56 0
	leal	-284(%ebp), %edi
	.loc 1 40 0
	movl	%ecx, %ebx
.LVL4:
	.loc 1 56 0
	movl	$64, %ecx
	rep stosl
.LVL5:
	.loc 1 61 0
	pushl	$2048
	call	aos_malloc
.LVL6:
	.loc 1 62 0
	addl	$16, %esp
	.loc 1 61 0
	movl	%eax, -348(%ebp)
.LVL7:
	.loc 1 62 0
	cmpl	$0, -348(%ebp)
	movl	$105, %eax
.LVL8:
	je	.L4
	.loc 1 65 0
	movl	-348(%ebp), %edi
	movl	%ebx, %eax
	movl	$512, %ecx
	leal	-284(%ebp), %esi
	rep stosl
	.loc 1 85 0
	movl	%esi, %edi
	.loc 1 67 0
	call	krhino_sched_disable
.LVL9:
	.loc 1 77 0
	pushl	%eax
	pushl	%eax
	pushl	$0
	pushl	$g_ready_queue
	call	preferred_cpu_ready_task_get
.LVL10:
	.loc 1 78 0
	movl	g_preferred_ready_task, %eax
	.loc 1 82 0
	pushl	$esc_tag
	pushl	$.LC12
	pushl	$255
	pushl	%esi
	.loc 1 78 0
	movl	%eax, -360(%ebp)
.LVL11:
	.loc 1 82 0
	call	snprintf
.LVL12:
	.loc 1 85 0
	xorl	%eax, %eax
	orl	$-1, %ecx
	addl	$32, %esp
	repnz scasb
	notl	%ecx
	decl	%ecx
	cmpl	$2047, %ecx
	jbe	.L5
	.loc 1 85 0 is_stmt 0 discriminator 1
	pushl	%eax
	pushl	%eax
	pushl	-348(%ebp)
	pushl	$.LC13
	call	csp_printf
.LVL13:
	addl	$16, %esp
.L5:
	.loc 1 85 0 discriminator 3
	orl	$-1, %ebx
	xorl	%eax, %eax
	movl	%esi, %edi
	movl	%ebx, %ecx
	repnz scasb
	pushl	%esi
	pushl	$.LC13
	movl	%esi, %edi
	notl	%ecx
	pushl	%ecx
	pushl	-348(%ebp)
	call	snprintf
.LVL14:
	xorl	%eax, %eax
	movl	%ebx, %ecx
	repnz scasb
	.loc 1 103 0 is_stmt 1 discriminator 3
	pushl	$esc_tag
	pushl	$.LC14
	.loc 1 108 0 discriminator 3
	movl	%esi, %edi
	.loc 1 85 0 discriminator 3
	notl	%ecx
	.loc 1 103 0 discriminator 3
	pushl	$255
	pushl	%esi
	.loc 1 85 0 discriminator 3
	leal	-1(%ecx), %edx
	movl	%edx, -352(%ebp)
.LVL15:
	.loc 1 103 0 discriminator 3
	call	snprintf
.LVL16:
	.loc 1 108 0 discriminator 3
	xorl	%eax, %eax
	movl	%ebx, %ecx
	movl	-352(%ebp), %edx
	repnz scasb
	movl	$2048, %eax
	addl	$32, %esp
	movl	%ecx, %ebx
	subl	%edx, %eax
	notl	%ebx
	decl	%ebx
	cmpl	%ebx, %eax
	ja	.L6
	.loc 1 108 0 is_stmt 0 discriminator 1
	pushl	%eax
	pushl	%eax
	pushl	-348(%ebp)
	pushl	$.LC13
	call	csp_printf
.LVL17:
	addl	$16, %esp
	xorl	%edx, %edx
.LVL18:
.L6:
	.loc 1 108 0 discriminator 3
	leal	-284(%ebp), %ebx
	xorl	%eax, %eax
	orl	$-1, %ecx
	movl	%ebx, %edi
	repnz scasb
	movl	-348(%ebp), %eax
	pushl	%ebx
	movl	%ebx, %edi
	notl	%ecx
	pushl	$.LC13
	movl	%edx, -352(%ebp)
	pushl	%ecx
	addl	%edx, %eax
	pushl	%eax
	call	snprintf
.LVL19:
	xorl	%eax, %eax
	orl	$-1, %ecx
	movl	-352(%ebp), %edx
	repnz scasb
	.loc 1 109 0 is_stmt 1 discriminator 3
	pushl	$esc_tag
	pushl	$.LC12
	.loc 1 112 0 discriminator 3
	movl	%ebx, %edi
	.loc 1 109 0 discriminator 3
	pushl	$255
	pushl	%ebx
	.loc 1 108 0 discriminator 3
	notl	%ecx
	leal	-1(%edx,%ecx), %esi
.LVL20:
	.loc 1 109 0 discriminator 3
	call	snprintf
.LVL21:
	.loc 1 112 0 discriminator 3
	xorl	%eax, %eax
	orl	$-1, %ecx
	addl	$32, %esp
	repnz scasb
	movl	$2048, %eax
	notl	%ecx
	subl	%esi, %eax
	decl	%ecx
	cmpl	%ecx, %eax
	ja	.L7
	.loc 1 112 0 is_stmt 0 discriminator 1
	pushl	%eax
	pushl	%eax
	xorl	%esi, %esi
.LVL22:
	pushl	-348(%ebp)
	pushl	$.LC13
	call	csp_printf
.LVL23:
	addl	$16, %esp
.LVL24:
.L7:
	.loc 1 112 0 discriminator 3
	movl	%ebx, %edi
	xorl	%eax, %eax
	orl	$-1, %ecx
	repnz scasb
	movl	-348(%ebp), %eax
	pushl	%ebx
	movl	%ebx, %edi
	notl	%ecx
	pushl	$.LC13
	pushl	%ecx
	addl	%esi, %eax
	pushl	%eax
	call	snprintf
.LVL25:
	xorl	%eax, %eax
	orl	$-1, %ecx
	repnz scasb
	movl	%ecx, %ebx
	notl	%ebx
	leal	-1(%esi,%ebx), %eax
	.loc 1 114 0 is_stmt 1 discriminator 3
	movl	g_kobj_list, %ebx
	.loc 1 112 0 discriminator 3
	movl	%eax, -352(%ebp)
.LVL26:
.L28:
	.loc 1 114 0 discriminator 3
	addl	$16, %esp
.LVL27:
	cmpl	$g_kobj_list, %ebx
	je	.L30
.LBB13:
	.loc 1 115 0
	leal	-40(%ebx), %edi
.LVL28:
	.loc 1 117 0
	pushl	%eax
	pushl	%eax
	leal	-340(%ebp), %eax
	pushl	%eax
	pushl	%edi
	call	krhino_task_stack_min_free
.LVL29:
	.loc 1 119 0
	addl	$16, %esp
	testl	%eax, %eax
	je	.L9
	.loc 1 120 0
	movl	$0, -340(%ebp)
.L9:
	.loc 1 127 0
	movl	-36(%ebx), %esi
	.loc 1 130 0
	movl	$.LC10, %eax
.LVL30:
	.loc 1 150 0
	movl	$89, %edx
	.loc 1 155 0
	movl	$0, %ecx
	.loc 1 130 0
	testl	%esi, %esi
	cmove	%eax, %esi
.LVL31:
	.loc 1 150 0
	cmpl	%edi, -360(%ebp)
	movl	$78, %eax
	.loc 1 171 0
	movl	%esi, %edi
.LVL32:
	.loc 1 150 0
	cmovne	%eax, %edx
.LVL33:
	.loc 1 155 0
	movl	44(%ebx), %eax
	cmpl	$7, %eax
	cmovbe	%eax, %ecx
	.loc 1 171 0
	xorl	%eax, %eax
	.loc 1 155 0
	movl	%ecx, -356(%ebp)
.LVL34:
	.loc 1 171 0
	orl	$-1, %ecx
.LVL35:
	repnz scasb
.LVL36:
	notl	%ecx
	decl	%ecx
	cmpl	$18, %ecx
	jbe	.L13
	.loc 1 172 0
	leal	-303(%ebp), %edi
	movl	$19, %ecx
	rep stosb
	.loc 1 173 0
	movl	$18, %ecx
	leal	-303(%ebp), %edi
	movl	-36(%ebx), %esi
	rep movsb
.LVL37:
	.loc 1 174 0
	leal	-303(%ebp), %esi
.LVL38:
.L13:
	.loc 1 182 0
	pushl	%eax
	pushl	%edx
	pushl	$0
	pushl	-340(%ebp)
	pushl	-20(%ebx)
	movzbl	79(%ebx), %eax
	pushl	%eax
	movl	-356(%ebp), %eax
	pushl	-336(%ebp,%eax,4)
	pushl	%esi
	leal	-284(%ebp), %esi
.LVL39:
	pushl	$esc_tag
.LVL40:
	pushl	$.LC15
.LVL41:
	pushl	$255
.LVL42:
	pushl	%esi
.LVL43:
	.loc 1 187 0
	movl	%esi, %edi
	.loc 1 182 0
	call	snprintf
.LVL44:
	.loc 1 187 0
	xorl	%eax, %eax
	orl	$-1, %ecx
	addl	$48, %esp
	repnz scasb
	movl	$2048, %eax
	subl	-352(%ebp), %eax
	notl	%ecx
	decl	%ecx
	cmpl	%ecx, %eax
	ja	.L14
	.loc 1 187 0 is_stmt 0 discriminator 1
	pushl	%edi
	pushl	%edi
	pushl	-348(%ebp)
	pushl	$.LC13
	call	csp_printf
.LVL45:
	addl	$16, %esp
	movl	$0, -352(%ebp)
.LVL46:
.L14:
	.loc 1 187 0 discriminator 3
	movl	%esi, %edi
	xorl	%eax, %eax
	orl	$-1, %ecx
	repnz scasb
	movl	-348(%ebp), %eax
	addl	-352(%ebp), %eax
	movl	%esi, %edi
	notl	%ecx
	pushl	%esi
	pushl	$.LC13
	pushl	%ecx
	pushl	%eax
	call	snprintf
.LVL47:
	xorl	%eax, %eax
	orl	$-1, %ecx
.LBE13:
	.loc 1 114 0 is_stmt 1 discriminator 3
	movl	(%ebx), %ebx
.LVL48:
.LBB14:
	.loc 1 187 0 discriminator 3
	repnz scasb
	movl	-352(%ebp), %eax
	movl	%ecx, %esi
	notl	%esi
	leal	-1(%eax,%esi), %eax
	movl	%eax, -352(%ebp)
.LVL49:
	jmp	.L28
.LVL50:
.L30:
.LBE14:
	.loc 1 211 0
	leal	-284(%ebp), %ebx
.LVL51:
	pushl	$esc_tag
	pushl	$.LC12
	pushl	$255
	pushl	%ebx
	.loc 1 214 0
	movl	%ebx, %edi
	.loc 1 211 0
	call	snprintf
.LVL52:
	.loc 1 214 0
	xorl	%eax, %eax
	orl	$-1, %ecx
	addl	$16, %esp
	repnz scasb
	movl	$2048, %eax
	subl	-352(%ebp), %eax
	notl	%ecx
	decl	%ecx
	cmpl	%ecx, %eax
	ja	.L16
	.loc 1 214 0 is_stmt 0 discriminator 1
	pushl	%esi
	pushl	%esi
	pushl	-348(%ebp)
	pushl	$.LC13
	call	csp_printf
.LVL53:
	addl	$16, %esp
	movl	$0, -352(%ebp)
.LVL54:
.L16:
	.loc 1 214 0 discriminator 3
	xorl	%eax, %eax
	orl	$-1, %ecx
	movl	%ebx, %edi
	repnz scasb
	movl	-352(%ebp), %eax
	addl	-348(%ebp), %eax
	notl	%ecx
	pushl	%ebx
	pushl	$.LC13
	pushl	%ecx
	pushl	%eax
	call	snprintf
.LVL55:
	.loc 1 215 0 is_stmt 1 discriminator 3
	call	krhino_sched_enable
.LVL56:
	.loc 1 217 0 discriminator 3
	popl	%eax
	popl	%edx
	pushl	-348(%ebp)
	pushl	$.LC13
	call	csp_printf
.LVL57:
	.loc 1 218 0 discriminator 3
	popl	%ecx
	pushl	-348(%ebp)
	call	aos_free
.LVL58:
	.loc 1 219 0 discriminator 3
	addl	$16, %esp
	xorl	%eax, %eax
.LVL59:
.L4:
	.loc 1 220 0
	movl	-28(%ebp), %edx
	xorl	%gs:20, %edx
	je	.L17
	call	__stack_chk_fail
.LVL60:
.L17:
	leal	-12(%ebp), %esp
	popl	%ebx
	.cfi_restore 3
	popl	%esi
	.cfi_restore 6
	popl	%edi
	.cfi_restore 7
	popl	%ebp
	.cfi_restore 5
	.cfi_def_cfa 4, 4
	ret
	.cfi_endproc
.LFE29:
	.size	dumpsys_task_func, .-dumpsys_task_func
	.section	.text.unlikely.dumpsys_task_func
.LCOLDE16:
	.section	.text.dumpsys_task_func
.LHOTE16:
	.section	.text.unlikely.task_cmd,"ax",@progbits
.LCOLDB17:
	.section	.text.task_cmd,"ax",@progbits
.LHOTB17:
	.type	task_cmd, @function
task_cmd:
.LFB37:
	.loc 1 455 0
	.cfi_startproc
.LVL61:
	pushl	%ebp
	.cfi_def_cfa_offset 8
	.cfi_offset 5, -8
	movl	%esp, %ebp
	.cfi_def_cfa_register 5
	.loc 1 456 0
	movl	$1, 16(%ebp)
.LVL62:
	movl	$0, 12(%ebp)
.LVL63:
	movl	$0, 8(%ebp)
.LVL64:
	.loc 1 457 0
	popl	%ebp
	.cfi_restore 5
	.cfi_def_cfa 4, 4
	.loc 1 456 0
	jmp	dumpsys_task_func
.LVL65:
	.cfi_endproc
.LFE37:
	.size	task_cmd, .-task_cmd
	.section	.text.unlikely.task_cmd
.LCOLDE17:
	.section	.text.task_cmd
.LHOTE17:
	.section	.text.unlikely.dumpsys_mm_leak_func,"ax",@progbits
.LCOLDB18:
	.section	.text.dumpsys_mm_leak_func,"ax",@progbits
.LHOTB18:
	.globl	dumpsys_mm_leak_func
	.type	dumpsys_mm_leak_func, @function
dumpsys_mm_leak_func:
.LFB31:
	.loc 1 254 0
	.cfi_startproc
.LVL66:
	pushl	%ebp
	.cfi_def_cfa_offset 8
	.cfi_offset 5, -8
	movl	%esp, %ebp
	.cfi_def_cfa_register 5
	subl	$8, %esp
	.loc 1 255 0
	call	dump_mmleak
.LVL67:
	.loc 1 257 0
	xorl	%eax, %eax
	leave
	.cfi_restore 5
	.cfi_def_cfa 4, 4
	ret
	.cfi_endproc
.LFE31:
	.size	dumpsys_mm_leak_func, .-dumpsys_mm_leak_func
	.section	.text.unlikely.dumpsys_mm_leak_func
.LCOLDE18:
	.section	.text.dumpsys_mm_leak_func
.LHOTE18:
	.section	.rodata.str1.1
.LC19:
	.string	"start"
.LC20:
	.string	"mm_leak_check_timer"
.LC21:
	.string	"stop"
	.section	.text.unlikely.dumpsys_mm_leak_check_func,"ax",@progbits
.LCOLDB22:
	.section	.text.dumpsys_mm_leak_check_func,"ax",@progbits
.LHOTB22:
	.globl	dumpsys_mm_leak_check_func
	.type	dumpsys_mm_leak_check_func, @function
dumpsys_mm_leak_check_func:
.LFB33:
	.loc 1 267 0
	.cfi_startproc
.LVL68:
	pushl	%ebp
	.cfi_def_cfa_offset 8
	.cfi_offset 5, -8
	movl	%esp, %ebp
	.cfi_def_cfa_register 5
	pushl	%edi
	pushl	%esi
	pushl	%ebx
	subl	$12, %esp
	.cfi_offset 7, -12
	.cfi_offset 6, -16
	.cfi_offset 3, -20
	.loc 1 271 0
	cmpl	$2, 16(%ebp)
	.loc 1 267 0
	movl	20(%ebp), %ebx
	.loc 1 271 0
	jle	.L51
	.loc 1 271 0 is_stmt 0 discriminator 1
	pushl	%esi
	pushl	%esi
	pushl	$.LC19
	pushl	8(%ebx)
	call	strcmp
.LVL69:
	addl	$16, %esp
	testl	%eax, %eax
	jne	.L38
	.loc 1 272 0 is_stmt 1
	cmpl	$0, run_flag.4607
	jne	.L39
	.loc 1 269 0
	xorl	%edx, %edx
	.loc 1 273 0
	cmpl	$3, 16(%ebp)
	.loc 1 269 0
	movl	$10000, %eax
	.loc 1 273 0
	je	.L40
	.loc 1 273 0 discriminator 1
	movl	12(%ebx), %ecx
	.loc 1 273 0 discriminator 1
	testl	%ecx, %ecx
	je	.L40
.LBB15:
	.loc 1 274 0
	subl	$12, %esp
	pushl	%ecx
	call	atoi
.LVL70:
	imull	$1000, %eax, %eax
	addl	$16, %esp
	cltd
.LVL71:
.L40:
.LBE15:
	.loc 1 277 0
	pushl	%ecx
	pushl	%ecx
	pushl	%edx
	pushl	%eax
	call	krhino_ms_to_ticks
.LVL72:
	movl	$0, (%esp)
	pushl	$0
	pushl	%edx
	pushl	%eax
	pushl	$0
	pushl	$10
	pushl	$mm_leak_timer_cb
	pushl	$.LC20
	pushl	$g_mm_leak_check_timer
	call	krhino_timer_create
.LVL73:
	addl	$48, %esp
	jmp	.L41
.LVL74:
.L39:
	.loc 1 281 0
	movl	12(%ebx), %eax
	.loc 1 281 0
	testl	%eax, %eax
	je	.L41
.LBB16:
	.loc 1 282 0
	subl	$12, %esp
	pushl	%eax
	call	atoi
.LVL75:
	imull	$1000, %eax, %esi
	.loc 1 284 0
	addl	$16, %esp
	.loc 1 282 0
	movl	%esi, %edi
	sarl	$31, %edi
.LVL76:
	.loc 1 284 0
	cmpl	$1, run_flag.4607
	jne	.L42
	.loc 1 285 0
	subl	$12, %esp
	pushl	$g_mm_leak_check_timer
	call	krhino_timer_stop
.LVL77:
	addl	$16, %esp
.L42:
	.loc 1 288 0
	pushl	%edx
	pushl	%edx
	pushl	%edi
	pushl	%esi
	call	krhino_ms_to_ticks
.LVL78:
	movl	%edx, (%esp)
	pushl	%eax
	pushl	$0
	pushl	$10
	pushl	$g_mm_leak_check_timer
	call	krhino_timer_change
.LVL79:
	addl	$32, %esp
.LVL80:
.L41:
.LBE16:
	.loc 1 293 0
	subl	$12, %esp
	.loc 1 292 0
	movl	$1, run_flag.4607
	.loc 1 293 0
	pushl	$g_mm_leak_check_timer
	call	krhino_timer_start
.LVL81:
	addl	$16, %esp
.L38:
	.loc 1 296 0
	pushl	%eax
	pushl	%eax
	pushl	$.LC21
	pushl	8(%ebx)
	call	strcmp
.LVL82:
	addl	$16, %esp
	testl	%eax, %eax
	jne	.L51
	.loc 1 297 0
	subl	$12, %esp
	pushl	$g_mm_leak_check_timer
	call	krhino_timer_stop
.LVL83:
	.loc 1 298 0
	movl	$2, run_flag.4607
	addl	$16, %esp
.L51:
	.loc 1 302 0
	leal	-12(%ebp), %esp
	xorl	%eax, %eax
	popl	%ebx
	.cfi_restore 3
	popl	%esi
	.cfi_restore 6
	popl	%edi
	.cfi_restore 7
	popl	%ebp
	.cfi_restore 5
	.cfi_def_cfa 4, 4
	ret
	.cfi_endproc
.LFE33:
	.size	dumpsys_mm_leak_check_func, .-dumpsys_mm_leak_check_func
	.section	.text.unlikely.dumpsys_mm_leak_check_func
.LCOLDE22:
	.section	.text.dumpsys_mm_leak_check_func
.LHOTE22:
	.section	.rodata.str1.1
.LC23:
	.string	"%s\r\n%08x:"
.LC24:
	.string	"%s%08x "
.LC25:
	.string	"%s\r\n-----------------end----------------\r\n\r\n"
	.section	.text.unlikely.dump_task_stack,"ax",@progbits
.LCOLDB26:
	.section	.text.dump_task_stack,"ax",@progbits
.LHOTB26:
	.globl	dump_task_stack
	.type	dump_task_stack, @function
dump_task_stack:
.LFB35:
	.loc 1 379 0
	.cfi_startproc
.LVL84:
	pushl	%ebp
	.cfi_def_cfa_offset 8
	.cfi_offset 5, -8
	.loc 1 385 0
	movl	$64, %ecx
	.loc 1 379 0
	movl	%esp, %ebp
	.cfi_def_cfa_register 5
	pushl	%edi
	pushl	%esi
	pushl	%ebx
	.cfi_offset 7, -12
	.cfi_offset 6, -16
	.cfi_offset 3, -20
	.loc 1 385 0
	leal	-540(%ebp), %edi
	.loc 1 379 0
	subl	$568, %esp
	.loc 1 380 0
	movl	$0, -544(%ebp)
.LVL85:
	.loc 1 379 0
	movl	8(%ebp), %esi
	movl	%gs:20, %eax
	movl	%eax, -28(%ebp)
	xorl	%eax, %eax
	.loc 1 385 0
	rep stosl
.LVL86:
	.loc 1 388 0
	leal	-284(%ebp), %edi
	movl	$64, %ecx
	rep stosl
.LVL87:
	.loc 1 392 0
	pushl	$2048
	call	aos_malloc
.LVL88:
	movl	%eax, %ebx
.LVL89:
	.loc 1 393 0
	addl	$16, %esp
	.loc 1 394 0
	movl	$105, %eax
.LVL90:
	.loc 1 393 0
	testl	%ebx, %ebx
	je	.L54
	.loc 1 396 0
	xorl	%eax, %eax
	movl	$512, %ecx
	movl	%ebx, %edi
	rep stosl
	.loc 1 397 0
	call	krhino_sched_disable
.LVL91:
	.loc 1 399 0
	movl	20(%esi), %edx
	movl	16(%esi), %eax
	leal	(%eax,%edx,4), %eax
	movl	%eax, -564(%ebp)
.LVL92:
.LVL93:
	.loc 1 401 0
	pushl	%eax
	pushl	%eax
	leal	-544(%ebp), %eax
	pushl	%eax
	pushl	%esi
	call	krhino_task_stack_cur_free
.LVL94:
	.loc 1 402 0
	addl	$16, %esp
	testl	%eax, %eax
	jne	.L55
	.loc 1 403 0
	movl	20(%esi), %eax
.LVL95:
	subl	-544(%ebp), %eax
	movl	16(%esi), %edx
	.loc 1 383 0
	movl	$0, -560(%ebp)
	.loc 1 389 0
	xorl	%esi, %esi
	.loc 1 403 0
	leal	(%edx,%eax,4), %eax
	movl	%eax, -556(%ebp)
.LVL96:
	.loc 1 411 0
	jmp	.L56
.LVL97:
.L55:
	.loc 1 405 0
	subl	$12, %esp
	pushl	$2
	call	k_err_proc
.LVL98:
	.loc 1 406 0
	movl	%ebx, (%esp)
	call	aos_free
.LVL99:
	.loc 1 407 0
	call	krhino_sched_enable
.LVL100:
	.loc 1 408 0
	addl	$16, %esp
	movl	$1, %eax
	jmp	.L54
.LVL101:
.L60:
	.loc 1 412 0
	testb	$3, -560(%ebp)
	je	.L66
.L57:
	.loc 1 416 0
	movl	-556(%ebp), %eax
	.loc 1 417 0
	leal	-540(%ebp), %edi
	.loc 1 416 0
	pushl	(%eax)
	leal	-540(%ebp), %eax
	pushl	$esc_tag
	pushl	$.LC24
	pushl	%eax
	call	sprintf
.LVL102:
	.loc 1 417 0
	xorl	%eax, %eax
	orl	$-1, %ecx
	addl	$16, %esp
	repnz scasb
	movl	$2048, %eax
	notl	%ecx
	subl	%esi, %eax
	decl	%ecx
	cmpl	%ecx, %eax
	ja	.L59
.LVL103:
	.loc 1 417 0 is_stmt 0 discriminator 1
	pushl	%esi
	pushl	%esi
	xorl	%esi, %esi
	pushl	%ebx
	pushl	$.LC13
	call	csp_printf
.LVL104:
	addl	$16, %esp
.LVL105:
.L59:
	.loc 1 417 0 discriminator 3
	leal	-540(%ebp), %edi
	xorl	%eax, %eax
	orl	$-1, %ecx
	repnz scasb
	leal	-540(%ebp), %eax
	leal	-540(%ebp), %edi
	notl	%ecx
	pushl	%eax
	leal	(%ebx,%esi), %eax
	pushl	$.LC13
	pushl	%ecx
	pushl	%eax
	call	snprintf
.LVL106:
	orl	$-1, %ecx
	xorl	%eax, %eax
	.loc 1 419 0 is_stmt 1 discriminator 3
	addl	$16, %esp
	.loc 1 417 0 discriminator 3
	repnz scasb
	.loc 1 418 0 discriminator 3
	incl	-560(%ebp)
.LVL107:
	.loc 1 419 0 discriminator 3
	addl	$4, -556(%ebp)
.LVL108:
	.loc 1 417 0 discriminator 3
	notl	%ecx
	leal	-1(%esi,%ecx), %esi
.LVL109:
.L56:
	.loc 1 411 0
	movl	-564(%ebp), %edx
	cmpl	%edx, -556(%ebp)
	jb	.L60
	jmp	.L67
.L66:
	.loc 1 413 0
	leal	-540(%ebp), %eax
	pushl	-556(%ebp)
	pushl	$esc_tag
	pushl	$.LC23
	.loc 1 414 0
	leal	-540(%ebp), %edi
	.loc 1 413 0
	pushl	%eax
	call	sprintf
.LVL110:
	.loc 1 414 0
	xorl	%eax, %eax
	orl	$-1, %ecx
	addl	$16, %esp
	repnz scasb
	movl	$2048, %eax
	notl	%ecx
	subl	%esi, %eax
	decl	%ecx
	cmpl	%ecx, %eax
	ja	.L58
	.loc 1 414 0 is_stmt 0 discriminator 1
	pushl	%edi
	pushl	%edi
	xorl	%esi, %esi
.LVL111:
	pushl	%ebx
	pushl	$.LC13
	call	csp_printf
.LVL112:
	addl	$16, %esp
.LVL113:
.L58:
	.loc 1 414 0 discriminator 3
	leal	-540(%ebp), %edi
	xorl	%eax, %eax
	orl	$-1, %ecx
	repnz scasb
	leal	-540(%ebp), %eax
	leal	-540(%ebp), %edi
	notl	%ecx
	pushl	%eax
	leal	(%ebx,%esi), %eax
	pushl	$.LC13
	pushl	%ecx
	pushl	%eax
	call	snprintf
.LVL114:
	orl	$-1, %ecx
	xorl	%eax, %eax
	addl	$16, %esp
	repnz scasb
	notl	%ecx
	leal	-1(%esi,%ecx), %esi
.LVL115:
	jmp	.L57
.L67:
	.loc 1 421 0 is_stmt 1
	leal	-284(%ebp), %esi
.LVL116:
	pushl	$esc_tag
	pushl	$.LC25
	pushl	$255
	pushl	%esi
	.loc 1 422 0
	movl	%esi, %edi
	.loc 1 421 0
	call	snprintf
.LVL117:
	.loc 1 422 0
	xorl	%eax, %eax
	orl	$-1, %ecx
	addl	$16, %esp
	repnz scasb
	movl	$2048, %eax
	subl	-544(%ebp), %eax
	notl	%ecx
	decl	%ecx
	cmpl	%ecx, %eax
	ja	.L61
	.loc 1 422 0 is_stmt 0 discriminator 1
	pushl	%ecx
	pushl	%ecx
	pushl	%ebx
	pushl	$.LC13
	call	csp_printf
.LVL118:
	movl	$0, -544(%ebp)
	addl	$16, %esp
.L61:
	.loc 1 422 0 discriminator 3
	movl	%esi, %edi
	xorl	%eax, %eax
	orl	$-1, %ecx
	repnz scasb
	movl	-544(%ebp), %eax
	pushl	%esi
	movl	%esi, %edi
	notl	%ecx
	pushl	$.LC13
	pushl	%ecx
	addl	%ebx, %eax
	pushl	%eax
	call	snprintf
.LVL119:
	xorl	%eax, %eax
	orl	$-1, %ecx
	repnz scasb
	movl	%ecx, %esi
	notl	%esi
	decl	%esi
	addl	%esi, -544(%ebp)
	.loc 1 423 0 is_stmt 1 discriminator 3
	call	krhino_sched_enable
.LVL120:
	.loc 1 425 0 discriminator 3
	popl	%eax
	popl	%edx
	pushl	%ebx
	pushl	$.LC13
	call	csp_printf
.LVL121:
	.loc 1 426 0 discriminator 3
	movl	%ebx, (%esp)
	call	aos_free
.LVL122:
	.loc 1 427 0 discriminator 3
	addl	$16, %esp
	xorl	%eax, %eax
.LVL123:
.L54:
	.loc 1 429 0
	movl	-28(%ebp), %edx
	xorl	%gs:20, %edx
	je	.L62
	call	__stack_chk_fail
.LVL124:
.L62:
	leal	-12(%ebp), %esp
	popl	%ebx
	.cfi_restore 3
.LVL125:
	popl	%esi
	.cfi_restore 6
	popl	%edi
	.cfi_restore 7
	popl	%ebp
	.cfi_restore 5
	.cfi_def_cfa 4, 4
	ret
	.cfi_endproc
.LFE35:
	.size	dump_task_stack, .-dump_task_stack
	.section	.text.unlikely.dump_task_stack
.LCOLDE26:
	.section	.text.dump_task_stack
.LHOTE26:
	.section	.rodata.str1.1
.LC27:
	.string	"all"
.LC28:
	.string	"%s------task %s stack -------"
	.section	.text.unlikely.dump_task_stack_byname,"ax",@progbits
.LCOLDB29:
	.section	.text.dump_task_stack_byname,"ax",@progbits
.LHOTB29:
	.globl	dump_task_stack_byname
	.type	dump_task_stack_byname, @function
dump_task_stack_byname:
.LFB36:
	.loc 1 432 0
	.cfi_startproc
.LVL126:
	pushl	%ebp
	.cfi_def_cfa_offset 8
	.cfi_offset 5, -8
	movl	%esp, %ebp
	.cfi_def_cfa_register 5
	pushl	%edi
	pushl	%esi
	pushl	%ebx
	subl	$20, %esp
	.cfi_offset 7, -12
	.cfi_offset 6, -16
	.cfi_offset 3, -20
	.loc 1 432 0
	movl	8(%ebp), %esi
	.loc 1 439 0
	pushl	$.LC27
	pushl	%esi
	call	strcmp
.LVL127:
	.loc 1 443 0
	movl	g_kobj_list, %ebx
	.loc 1 439 0
	addl	$16, %esp
	movl	%eax, %edi
.LVL128:
.L69:
	.loc 1 443 0 discriminator 1
	cmpl	$g_kobj_list, %ebx
	je	.L77
.LVL129:
	.loc 1 445 0
	testl	%edi, %edi
	je	.L70
	.loc 1 445 0 is_stmt 0 discriminator 1
	pushl	%edx
	pushl	%edx
	pushl	-36(%ebx)
	pushl	%esi
	call	strcmp
.LVL130:
	addl	$16, %esp
	testl	%eax, %eax
	jne	.L71
.L70:
	.loc 1 446 0 is_stmt 1
	pushl	%eax
	pushl	-36(%ebx)
	pushl	$esc_tag
	pushl	$.LC28
	call	csp_printf
.LVL131:
	.loc 1 447 0
	leal	-40(%ebx), %eax
	movl	%eax, (%esp)
	call	dump_task_stack
.LVL132:
	addl	$16, %esp
.L71:
	.loc 1 443 0 discriminator 2
	movl	(%ebx), %ebx
.LVL133:
	jmp	.L69
.L77:
	.loc 1 452 0
	leal	-12(%ebp), %esp
	xorl	%eax, %eax
	popl	%ebx
	.cfi_restore 3
.LVL134:
	popl	%esi
	.cfi_restore 6
	popl	%edi
	.cfi_restore 7
.LVL135:
	popl	%ebp
	.cfi_restore 5
	.cfi_def_cfa 4, 4
	ret
	.cfi_endproc
.LFE36:
	.size	dump_task_stack_byname, .-dump_task_stack_byname
	.section	.text.unlikely.dump_task_stack_byname
.LCOLDE29:
	.section	.text.dump_task_stack_byname
.LHOTE29:
	.section	.rodata.str1.1
.LC30:
	.string	"task"
.LC31:
	.string	"detail"
.LC32:
	.string	"task_stack"
.LC33:
	.string	"info"
.LC34:
	.string	"%s---------------------------------------------\r\n"
.LC35:
	.string	"%sMax sched disable time  :%-10d\r\n"
.LC36:
	.string	"%sMax intrpt disable time :%-10d\r\n"
.LC37:
	.string	"mm_info"
.LC38:
	.string	"mm_leak"
.LC39:
	.string	"mm_monitor"
.LC40:
	.string	"%sdumpsys help:\r\n"
.LC41:
	.string	"%s\tdumpsys task         : show the task info.\r\n"
.LC42:
	.string	"%s\tdumpsys task_stack   : show the task stack info.\r\n"
.LC43:
	.string	"%s\tdumpsys mm_info      : show the memory has alloced.\r\n"
.LC44:
	.string	"%s\tdumpsys mm_leak      : show the memory maybe leak.\r\n"
.LC45:
	.string	"%s\tdumpsys mm_monitor   : [start/stop] [round time] fire a timerto monitor mm, default 10s.\r\n"
	.section	.text.unlikely.dumpsys_func,"ax",@progbits
.LCOLDB46:
	.section	.text.dumpsys_func,"ax",@progbits
.LHOTB46:
	.globl	dumpsys_func
	.type	dumpsys_func, @function
dumpsys_func:
.LFB34:
	.loc 1 307 0
	.cfi_startproc
.LVL136:
	pushl	%ebp
	.cfi_def_cfa_offset 8
	.cfi_offset 5, -8
	movl	%esp, %ebp
	.cfi_def_cfa_register 5
	pushl	%edi
	pushl	%esi
	pushl	%ebx
	subl	$28, %esp
	.cfi_offset 7, -12
	.cfi_offset 6, -16
	.cfi_offset 3, -20
	.loc 1 307 0
	movl	16(%ebp), %eax
	movl	8(%ebp), %ebx
	movl	12(%ebp), %esi
	movl	20(%ebp), %edx
	movl	%eax, -28(%ebp)
	.loc 1 310 0
	decl	%eax
	jle	.L79
	.loc 1 310 0 is_stmt 0 discriminator 1
	movl	4(%edx), %edi
	pushl	%eax
	pushl	%eax
	pushl	$.LC30
	movl	%edx, -32(%ebp)
	pushl	%edi
	call	strcmp
.LVL137:
	addl	$16, %esp
	testl	%eax, %eax
	movl	-32(%ebp), %edx
	jne	.L80
	.loc 1 311 0 is_stmt 1
	cmpl	$3, -28(%ebp)
	jne	.L81
	.loc 1 311 0 is_stmt 0 discriminator 1
	pushl	%eax
	pushl	%eax
	pushl	$.LC31
	pushl	8(%edx)
	call	strcmp
.LVL138:
	addl	$16, %esp
	testl	%eax, %eax
	jne	.L81
	.loc 1 312 0 is_stmt 1
	movl	$1, 16(%ebp)
	jmp	.L89
.L81:
	.loc 1 314 0
	movl	$0, 16(%ebp)
	movl	%esi, 12(%ebp)
	movl	%ebx, 8(%ebp)
.L89:
	.loc 1 376 0
	leal	-12(%ebp), %esp
	popl	%ebx
	.cfi_remember_state
	.cfi_restore 3
	popl	%esi
	.cfi_restore 6
	popl	%edi
	.cfi_restore 7
	popl	%ebp
	.cfi_restore 5
	.cfi_def_cfa 4, 4
	.loc 1 314 0
	jmp	dumpsys_task_func
.LVL139:
.L80:
	.cfi_restore_state
.LBB24:
.LBB25:
	.loc 1 320 0
	pushl	%eax
	pushl	%eax
	pushl	$.LC32
	pushl	%edi
	movl	%edx, -32(%ebp)
.LVL140:
	call	strcmp
.LVL141:
	addl	$16, %esp
	testl	%eax, %eax
	movl	-32(%ebp), %edx
	jne	.L82
.LVL142:
	.loc 1 321 0
	cmpl	$3, -28(%ebp)
	jne	.L83
	.loc 1 322 0
	movl	8(%edx), %eax
	jmp	.L90
.L83:
	.loc 1 324 0
	call	krhino_cur_task_get
.LVL143:
	movl	4(%eax), %eax
.L90:
	movl	%eax, 8(%ebp)
.LBE25:
.LBE24:
	.loc 1 376 0
	leal	-12(%ebp), %esp
	popl	%ebx
	.cfi_remember_state
	.cfi_restore 3
.LVL144:
	popl	%esi
	.cfi_restore 6
.LVL145:
	popl	%edi
	.cfi_restore 7
	popl	%ebp
	.cfi_restore 5
	.cfi_def_cfa 4, 4
.LBB34:
.LBB31:
	.loc 1 324 0
	jmp	dump_task_stack_byname
.LVL146:
.L82:
	.cfi_restore_state
	.loc 1 330 0
	cmpl	$2, -28(%ebp)
	jne	.L84
	pushl	%eax
	pushl	%eax
	pushl	$.LC33
	pushl	%edi
	call	strcmp
.LVL147:
	addl	$16, %esp
	testl	%eax, %eax
	jne	.L85
.LVL148:
.LVL149:
.LBB26:
.LBB27:
	.loc 1 226 0
	pushl	%esi
	pushl	$esc_tag
	pushl	$.LC34
	pushl	%ebx
	call	sprintf
.LVL150:
	movl	%eax, %esi
.LVL151:
	.loc 1 236 0
	cwtl
	pushl	$0
	addl	%ebx, %eax
.LVL152:
	pushl	$esc_tag
	pushl	$.LC35
	pushl	%eax
	call	sprintf
.LVL153:
	addl	%eax, %esi
.LVL154:
	.loc 1 243 0
	addl	$32, %esp
	movswl	%si, %eax
	pushl	$0
	pushl	$esc_tag
	addl	%ebx, %eax
	pushl	$.LC36
	pushl	%eax
	call	sprintf
.LVL155:
	.loc 1 246 0
	addl	%esi, %eax
.LVL156:
	addl	$12, %esp
	cwtl
	pushl	$esc_tag
	pushl	$.LC34
	addl	%eax, %ebx
.LVL157:
	pushl	%ebx
	call	sprintf
.LVL158:
	addl	$16, %esp
	jmp	.L86
.LVL159:
.L85:
.LBE27:
.LBE26:
	.loc 1 336 0
	pushl	%ecx
	pushl	%ecx
	pushl	$.LC37
	pushl	%edi
	call	strcmp
.LVL160:
	addl	$16, %esp
	testl	%eax, %eax
	jne	.L87
	.loc 1 337 0
	movl	$0, 8(%ebp)
.LBE31:
.LBE34:
	.loc 1 376 0
	leal	-12(%ebp), %esp
	popl	%ebx
	.cfi_remember_state
	.cfi_restore 3
.LVL161:
	popl	%esi
	.cfi_restore 6
.LVL162:
	popl	%edi
	.cfi_restore 7
	popl	%ebp
	.cfi_restore 5
	.cfi_def_cfa 4, 4
.LBB35:
.LBB32:
	.loc 1 337 0
	jmp	dumpsys_mm_info_func
.LVL163:
.L87:
	.cfi_restore_state
	.loc 1 343 0
	pushl	%edx
	pushl	%edx
	pushl	$.LC38
	pushl	%edi
	call	strcmp
.LVL164:
	addl	$16, %esp
	testl	%eax, %eax
	jne	.L79
.LVL165:
.LBB28:
.LBB29:
	.loc 1 255 0
	call	dump_mmleak
.LVL166:
	jmp	.L86
.LVL167:
.L84:
	movl	%edx, -32(%ebp)
.LBE29:
.LBE28:
	.loc 1 346 0
	jle	.L79
	pushl	%eax
	pushl	%eax
	pushl	$.LC39
	pushl	%edi
	call	strcmp
.LVL168:
	addl	$16, %esp
	testl	%eax, %eax
	movl	-32(%ebp), %edx
	jne	.L79
.LVL169:
	.loc 1 347 0
	movl	-28(%ebp), %eax
	movl	%esi, 12(%ebp)
	movl	%ebx, 8(%ebp)
	movl	%edx, 20(%ebp)
	movl	%eax, 16(%ebp)
.LBE32:
.LBE35:
	.loc 1 376 0
	leal	-12(%ebp), %esp
	popl	%ebx
	.cfi_remember_state
	.cfi_restore 3
.LVL170:
	popl	%esi
	.cfi_restore 6
.LVL171:
	popl	%edi
	.cfi_restore 7
	popl	%ebp
	.cfi_restore 5
	.cfi_def_cfa 4, 4
.LBB36:
.LBB33:
	.loc 1 347 0
	jmp	dumpsys_mm_leak_check_func
.LVL172:
.L79:
	.cfi_restore_state
.LBB30:
	.loc 1 353 0
	pushl	$esc_tag
	pushl	$.LC40
	pushl	%esi
	pushl	%ebx
	call	snprintf
.LVL173:
	movl	%eax, %edi
.LVL174:
	.loc 1 355 0
	movl	%esi, %eax
.LVL175:
	pushl	$esc_tag
	subl	%edi, %eax
	pushl	$.LC41
	pushl	%eax
	leal	(%ebx,%edi), %eax
	pushl	%eax
	call	snprintf
.LVL176:
	addl	%eax, %edi
.LVL177:
	.loc 1 358 0
	movl	%esi, %eax
	addl	$32, %esp
	subl	%edi, %eax
	pushl	$esc_tag
	pushl	$.LC42
	pushl	%eax
	leal	(%ebx,%edi), %eax
	pushl	%eax
	call	snprintf
.LVL178:
	addl	%eax, %edi
.LVL179:
	.loc 1 361 0
	movl	%esi, %eax
	pushl	$esc_tag
	subl	%edi, %eax
	pushl	$.LC43
	pushl	%eax
	leal	(%ebx,%edi), %eax
	pushl	%eax
	call	snprintf
.LVL180:
	addl	%eax, %edi
.LVL181:
	.loc 1 364 0
	movl	%esi, %eax
	addl	$32, %esp
	subl	%edi, %eax
	pushl	$esc_tag
	pushl	$.LC44
	pushl	%eax
	leal	(%ebx,%edi), %eax
	pushl	%eax
	call	snprintf
.LVL182:
	addl	%edi, %eax
.LVL183:
	.loc 1 366 0
	pushl	$esc_tag
	pushl	$.LC45
	subl	%eax, %esi
	addl	%ebx, %eax
.LVL184:
	pushl	%esi
	pushl	%eax
	call	snprintf
.LVL185:
	addl	$32, %esp
.L86:
.LBE30:
.LBE33:
.LBE36:
	.loc 1 376 0
	leal	-12(%ebp), %esp
	xorl	%eax, %eax
	popl	%ebx
	.cfi_restore 3
	popl	%esi
	.cfi_restore 6
	popl	%edi
	.cfi_restore 7
	popl	%ebp
	.cfi_restore 5
	.cfi_def_cfa 4, 4
	ret
	.cfi_endproc
.LFE34:
	.size	dumpsys_func, .-dumpsys_func
	.section	.text.unlikely.dumpsys_func
.LCOLDE46:
	.section	.text.dumpsys_func
.LHOTE46:
	.section	.text.unlikely.dumpsys_cmd,"ax",@progbits
.LCOLDB47:
	.section	.text.dumpsys_cmd,"ax",@progbits
.LHOTB47:
	.type	dumpsys_cmd, @function
dumpsys_cmd:
.LFB38:
	.loc 1 460 0
	.cfi_startproc
.LVL186:
	pushl	%ebp
	.cfi_def_cfa_offset 8
	.cfi_offset 5, -8
	movl	%esp, %ebp
	.cfi_def_cfa_register 5
	.loc 1 462 0
	popl	%ebp
	.cfi_restore 5
	.cfi_def_cfa 4, 4
	.loc 1 461 0
	jmp	dumpsys_func
.LVL187:
	.cfi_endproc
.LFE38:
	.size	dumpsys_cmd, .-dumpsys_cmd
	.section	.text.unlikely.dumpsys_cmd
.LCOLDE47:
	.section	.text.dumpsys_cmd
.LHOTE47:
	.section	.text.unlikely.dumpsys_cli_init,"ax",@progbits
.LCOLDB48:
	.section	.text.dumpsys_cli_init,"ax",@progbits
.LHOTB48:
	.globl	dumpsys_cli_init
	.type	dumpsys_cli_init, @function
dumpsys_cli_init:
.LFB39:
	.loc 1 471 0
	.cfi_startproc
	pushl	%ebp
	.cfi_def_cfa_offset 8
	.cfi_offset 5, -8
	movl	%esp, %ebp
	.cfi_def_cfa_register 5
	subl	$16, %esp
	.loc 1 472 0
	pushl	$2
	pushl	$dumpsys_cli_cmd
	call	aos_cli_register_commands
.LVL188:
	.loc 1 473 0
	addl	$16, %esp
	leave
	.cfi_restore 5
	.cfi_def_cfa 4, 4
	ret
	.cfi_endproc
.LFE39:
	.size	dumpsys_cli_init, .-dumpsys_cli_init
	.section	.text.unlikely.dumpsys_cli_init
.LCOLDE48:
	.section	.text.dumpsys_cli_init
.LHOTE48:
	.section	.bss.run_flag.4607,"aw",@nobits
	.align 4
	.type	run_flag.4607, @object
	.size	run_flag.4607, 4
run_flag.4607:
	.zero	4
	.globl	dumpsys_cli_cmd
	.section	.rodata.str1.1
.LC49:
	.string	"tasklist"
.LC50:
	.string	"list all thread info"
.LC51:
	.string	"dumpsys"
.LC52:
	.string	"dump system info"
	.section	.data.dumpsys_cli_cmd,"aw",@progbits
	.align 4
	.type	dumpsys_cli_cmd, @object
	.size	dumpsys_cli_cmd, 24
dumpsys_cli_cmd:
	.long	.LC49
	.long	.LC50
	.long	task_cmd
	.long	.LC51
	.long	.LC52
	.long	dumpsys_cmd
	.globl	g_mm_leak_check_timer
	.section	.bss.g_mm_leak_check_timer,"aw",@nobits
	.align 32
	.type	g_mm_leak_check_timer, @object
	.size	g_mm_leak_check_timer, 68
g_mm_leak_check_timer:
	.zero	68
	.text
.Letext0:
	.section	.text.unlikely.mm_leak_timer_cb
.Letext_cold0:
	.file 2 "/home/stone/Documents/Ali_IOT/build/compiler/gcc-arm-none-eabi/Linux64/lib/gcc/arm-none-eabi/5.4.1/include/stddef.h"
	.file 3 "/home/stone/Documents/Ali_IOT/build/compiler/gcc-arm-none-eabi/Linux64/arm-none-eabi/include/machine/_default_types.h"
	.file 4 "/home/stone/Documents/Ali_IOT/build/compiler/gcc-arm-none-eabi/Linux64/arm-none-eabi/include/sys/_stdint.h"
	.file 5 "./include/aos/cli.h"
	.file 6 "././platform/arch/arm/armv5/./gcc/k_types.h"
	.file 7 "./kernel/rhino/core/include/k_err.h"
	.file 8 "./kernel/rhino/core/include/k_sys.h"
	.file 9 "./kernel/rhino/core/include/k_list.h"
	.file 10 "./kernel/rhino/core/include/k_obj.h"
	.file 11 "./kernel/rhino/core/include/k_sched.h"
	.file 12 "./kernel/rhino/core/include/k_task.h"
	.file 13 "./kernel/rhino/core/include/k_mutex.h"
	.file 14 "./kernel/rhino/core/include/k_sem.h"
	.file 15 "./kernel/rhino/core/include/k_timer.h"
	.file 16 "./include/aos/log.h"
	.file 17 "./kernel/rhino/core/include/k_internal.h"
	.file 18 "./kernel/rhino/core/include/k_mm_debug.h"
	.file 19 "/home/stone/Documents/Ali_IOT/build/compiler/gcc-arm-none-eabi/Linux64/arm-none-eabi/include/stdio.h"
	.file 20 "./include/aos/internal/log_impl.h"
	.file 21 "./include/aos/kernel.h"
	.file 22 "./kernel/rhino/core/include/k_time.h"
	.file 23 "/home/stone/Documents/Ali_IOT/build/compiler/gcc-arm-none-eabi/Linux64/arm-none-eabi/include/string.h"
	.file 24 "././platform/arch/arm/armv5/./gcc/port.h"
	.section	.note.GNU-stack,"",@progbits
