	.file	"ecb.c"
	.text
.Ltext0:
	.section	.text.unlikely.do_ecb,"ax",@progbits
.LCOLDB1:
	.section	.text.do_ecb,"ax",@progbits
.LHOTB1:
	.section	.text.unlikely.do_ecb
.Ltext_cold0:
	.section	.text.do_ecb
	.type	do_ecb, @function
do_ecb:
.LFB184:
	.file 1 "src/ecb.c"
	.loc 1 5359 0
	.cfi_startproc
.LVL0:
	pushl	%ebp
	.cfi_def_cfa_offset 8
	.cfi_offset 5, -8
	movl	%esp, %ebp
	.cfi_def_cfa_register 5
.L7:
	.loc 1 5361 0
	movl	$1, 1073799172
	.loc 1 5362 0
	movl	%eax, 1073800452
	.loc 1 5363 0
	movl	$0, 1073799424
	.loc 1 5364 0
	movl	$0, 1073799428
	.loc 1 5365 0
	movl	$1, 1073799168
.L3:
	.loc 1 5366 0
	movl	1073799424, %edx
	testl	%edx, %edx
	jne	.L2
	.loc 1 5367 0 discriminator 1
	movl	1073799428, %edx
	.loc 1 5366 0 discriminator 1
	testl	%edx, %edx
	jne	.L2
	.loc 1 5368 0
	movl	1073800452, %edx
	.loc 1 5367 0
	testl	%edx, %edx
	jne	.L3
.L2:
	.loc 1 5370 0
	movl	$1, 1073799172
	.loc 1 5371 0
	movl	1073799428, %edx
	testl	%edx, %edx
	jne	.L7
	.loc 1 5371 0 is_stmt 0 discriminator 1
	movl	1073800452, %edx
	testl	%edx, %edx
	je	.L7
	.loc 1 5372 0 is_stmt 1
	movl	$0, 1073800452
	.loc 1 5373 0
	popl	%ebp
	.cfi_restore 5
	.cfi_def_cfa 4, 4
	ret
	.cfi_endproc
.LFE184:
	.size	do_ecb, .-do_ecb
	.section	.text.unlikely.do_ecb
.LCOLDE1:
	.section	.text.do_ecb
.LHOTE1:
	.section	.text.unlikely.ecb_cb,"ax",@progbits
.LCOLDB2:
	.section	.text.ecb_cb,"ax",@progbits
.LHOTB2:
	.type	ecb_cb, @function
ecb_cb:
.LFB190:
	.loc 1 5450 0
	.cfi_startproc
.LVL1:
	pushl	%ebp
	.cfi_def_cfa_offset 8
	.cfi_offset 5, -8
	movl	%esp, %ebp
	.cfi_def_cfa_register 5
	.loc 1 5450 0
	movl	8(%ebp), %edx
	movl	16(%ebp), %eax
.LVL2:
	.loc 1 5455 0
	testl	%edx, %edx
	.loc 1 5453 0
	movl	$1, (%eax)
	.loc 1 5454 0
	movl	%edx, 4(%eax)
	.loc 1 5455 0
	jne	.L11
	.loc 1 5456 0
	addl	$8, %eax
	movl	$16, 16(%ebp)
.LVL3:
	movl	%eax, 8(%ebp)
.LVL4:
	.loc 1 5459 0
	popl	%ebp
	.cfi_remember_state
	.cfi_restore 5
	.cfi_def_cfa 4, 4
	.loc 1 5456 0
	jmp	mem_rcopy
.LVL5:
.L11:
	.cfi_restore_state
	.loc 1 5459 0
	popl	%ebp
	.cfi_restore 5
	.cfi_def_cfa 4, 4
	ret
	.cfi_endproc
.LFE190:
	.size	ecb_cb, .-ecb_cb
	.section	.text.unlikely.ecb_cb
.LCOLDE2:
	.section	.text.ecb_cb
.LHOTE2:
	.section	.text.unlikely.ecb_encrypt_be,"ax",@progbits
.LCOLDB3:
	.section	.text.ecb_encrypt_be,"ax",@progbits
.LHOTB3:
	.globl	ecb_encrypt_be
	.type	ecb_encrypt_be, @function
ecb_encrypt_be:
.LFB185:
	.loc 1 5376 0
	.cfi_startproc
.LVL6:
	pushl	%ebp
	.cfi_def_cfa_offset 8
	.cfi_offset 5, -8
	movl	%esp, %ebp
	.cfi_def_cfa_register 5
	pushl	%ebx
	subl	$68, %esp
	.cfi_offset 3, -12
	.loc 1 5376 0
	movl	8(%ebp), %edx
	movl	12(%ebp), %eax
	movl	%gs:20, %ecx
	movl	%ecx, -12(%ebp)
	xorl	%ecx, %ecx
	movl	16(%ebp), %ebx
	.loc 1 5378 0
	movl	(%edx), %ecx
	movl	%ecx, -60(%ebp)
	movl	4(%edx), %ecx
	movl	%ecx, -56(%ebp)
	movl	8(%edx), %ecx
	movl	12(%edx), %edx
	movl	%ecx, -52(%ebp)
	movl	%edx, -48(%ebp)
	.loc 1 5379 0
	movl	(%eax), %edx
	movl	%edx, -44(%ebp)
	movl	4(%eax), %edx
	movl	%edx, -40(%ebp)
	movl	8(%eax), %edx
	movl	12(%eax), %eax
	movl	%edx, -36(%ebp)
	movl	%eax, -32(%ebp)
	.loc 1 5380 0
	leal	-60(%ebp), %eax
	call	do_ecb
.LVL7:
	.loc 1 5381 0
	movl	-28(%ebp), %eax
	movl	%eax, (%ebx)
	movl	-24(%ebp), %eax
	movl	%eax, 4(%ebx)
	movl	-20(%ebp), %eax
	movl	%eax, 8(%ebx)
	movl	-16(%ebp), %eax
	movl	%eax, 12(%ebx)
	.loc 1 5382 0
	movl	-12(%ebp), %eax
	xorl	%gs:20, %eax
	je	.L15
	call	__stack_chk_fail
.LVL8:
.L15:
	addl	$68, %esp
	popl	%ebx
	.cfi_restore 3
	popl	%ebp
	.cfi_restore 5
	.cfi_def_cfa 4, 4
	ret
	.cfi_endproc
.LFE185:
	.size	ecb_encrypt_be, .-ecb_encrypt_be
	.section	.text.unlikely.ecb_encrypt_be
.LCOLDE3:
	.section	.text.ecb_encrypt_be
.LHOTE3:
	.section	.text.unlikely.ecb_encrypt,"ax",@progbits
.LCOLDB4:
	.section	.text.ecb_encrypt,"ax",@progbits
.LHOTB4:
	.globl	ecb_encrypt
	.type	ecb_encrypt, @function
ecb_encrypt:
.LFB186:
	.loc 1 5385 0
	.cfi_startproc
.LVL9:
	pushl	%ebp
	.cfi_def_cfa_offset 8
	.cfi_offset 5, -8
	movl	%esp, %ebp
	.cfi_def_cfa_register 5
	pushl	%edi
	pushl	%esi
	pushl	%ebx
	.cfi_offset 7, -12
	.cfi_offset 6, -16
	.cfi_offset 3, -20
	.loc 1 5387 0
	leal	-76(%ebp), %edi
	.loc 1 5385 0
	subl	$96, %esp
	.loc 1 5385 0
	movl	12(%ebp), %eax
	movl	16(%ebp), %esi
	.loc 1 5387 0
	pushl	$16
	pushl	8(%ebp)
	pushl	%edi
	.loc 1 5385 0
	movl	20(%ebp), %ebx
	movl	%eax, -92(%ebp)
	movl	%gs:20, %eax
	movl	%eax, -28(%ebp)
	xorl	%eax, %eax
	.loc 1 5387 0
	call	mem_rcopy
.LVL10:
	.loc 1 5388 0
	movl	-92(%ebp), %eax
	addl	$12, %esp
	pushl	$16
	pushl	%eax
	leal	-60(%ebp), %eax
	pushl	%eax
	call	mem_rcopy
.LVL11:
	.loc 1 5389 0
	movl	%edi, %eax
	call	do_ecb
.LVL12:
	.loc 1 5390 0
	addl	$16, %esp
	testl	%esi, %esi
	je	.L18
	.loc 1 5391 0
	pushl	%eax
	leal	-44(%ebp), %eax
	pushl	$16
	pushl	%eax
	pushl	%esi
	call	mem_rcopy
.LVL13:
	addl	$16, %esp
.L18:
	.loc 1 5394 0
	testl	%ebx, %ebx
	je	.L17
	.loc 1 5395 0
	movl	-44(%ebp), %eax
	movl	%eax, (%ebx)
	movl	-40(%ebp), %eax
	movl	%eax, 4(%ebx)
	movl	-36(%ebp), %eax
	movl	%eax, 8(%ebx)
	movl	-32(%ebp), %eax
	movl	%eax, 12(%ebx)
.L17:
	.loc 1 5398 0
	movl	-28(%ebp), %eax
	xorl	%gs:20, %eax
	je	.L20
	call	__stack_chk_fail
.LVL14:
.L20:
	leal	-12(%ebp), %esp
	popl	%ebx
	.cfi_restore 3
	popl	%esi
	.cfi_restore 6
	popl	%edi
	.cfi_restore 7
	popl	%ebp
	.cfi_restore 5
	.cfi_def_cfa 4, 4
	ret
	.cfi_endproc
.LFE186:
	.size	ecb_encrypt, .-ecb_encrypt
	.section	.text.unlikely.ecb_encrypt
.LCOLDE4:
	.section	.text.ecb_encrypt
.LHOTE4:
	.section	.text.unlikely.ecb_encrypt_nonblocking,"ax",@progbits
.LCOLDB5:
	.section	.text.ecb_encrypt_nonblocking,"ax",@progbits
.LHOTB5:
	.globl	ecb_encrypt_nonblocking
	.type	ecb_encrypt_nonblocking, @function
ecb_encrypt_nonblocking:
.LFB187:
	.loc 1 5400 0
	.cfi_startproc
.LVL15:
	pushl	%ebp
	.cfi_def_cfa_offset 8
	.cfi_offset 5, -8
	movl	%esp, %ebp
	.cfi_def_cfa_register 5
	pushl	%ebx
	.cfi_offset 3, -12
	pushl	%ebx
	.loc 1 5400 0
	movl	8(%ebp), %ebx
	.loc 1 5401 0
	movl	48(%ebx), %eax
	testl	%eax, %eax
	je	.L29
	.loc 1 5402 0
	pushl	%ecx
	pushl	$16
	pushl	%eax
	pushl	%ebx
	call	mem_rcopy
.LVL16:
	addl	$16, %esp
.L29:
	.loc 1 5405 0
	movl	52(%ebx), %eax
	testl	%eax, %eax
	je	.L30
	.loc 1 5406 0
	pushl	%edx
	pushl	$16
	pushl	%eax
	leal	16(%ebx), %eax
	pushl	%eax
	call	mem_rcopy
.LVL17:
	addl	$16, %esp
.L30:
	.loc 1 5415 0
	subl	$12, %esp
	.loc 1 5410 0
	movl	%ebx, 1073800452
	.loc 1 5411 0
	movl	$0, 1073799424
	.loc 1 5412 0
	movl	$0, 1073799428
	.loc 1 5413 0
	movl	$3, 1073799940
.LVL18:
.LBB10:
.LBB11:
	.loc 1 2017 0
	movl	$16384, -536812928
.LVL19:
.LBE11:
.LBE10:
	.loc 1 5415 0
	pushl	$14
	call	irq_enable
.LVL20:
	.loc 1 5416 0
	movl	$1, 1073799168
	.loc 1 5418 0
	xorl	%eax, %eax
	movl	-4(%ebp), %ebx
	leave
	.cfi_restore 5
	.cfi_restore 3
	.cfi_def_cfa 4, 4
	ret
	.cfi_endproc
.LFE187:
	.size	ecb_encrypt_nonblocking, .-ecb_encrypt_nonblocking
	.section	.text.unlikely.ecb_encrypt_nonblocking
.LCOLDE5:
	.section	.text.ecb_encrypt_nonblocking
.LHOTE5:
	.section	.text.unlikely.isr_ecb,"ax",@progbits
.LCOLDB6:
	.section	.text.isr_ecb,"ax",@progbits
.LHOTB6:
	.globl	isr_ecb
	.type	isr_ecb, @function
isr_ecb:
.LFB189:
	.loc 1 5425 0
	.cfi_startproc
.LVL21:
	pushl	%ebp
	.cfi_def_cfa_offset 8
	.cfi_offset 5, -8
	movl	%esp, %ebp
	.cfi_def_cfa_register 5
	pushl	%ebx
	pushl	%eax
	.cfi_offset 3, -12
	.loc 1 5427 0
	movl	1073799428, %eax
	testl	%eax, %eax
	je	.L39
.LBB18:
.LBB19:
.LBB20:
	.loc 1 5422 0
	subl	$12, %esp
.LBE20:
.LBE19:
	.loc 1 5428 0
	movl	1073800452, %ebx
.LVL22:
.LBB22:
.LBB21:
	.loc 1 5421 0
	movl	$1, 1073799172
	.loc 1 5422 0
	pushl	$14
	call	irq_disable
.LVL23:
.LBE21:
.LBE22:
	.loc 1 5430 0
	addl	$12, %esp
	pushl	60(%ebx)
	pushl	$0
	pushl	$1
	jmp	.L45
.LVL24:
.L39:
.LBE18:
	.loc 1 5434 0
	movl	1073799424, %eax
	testl	%eax, %eax
	je	.L38
.LBB23:
	.loc 1 5435 0
	movl	1073800452, %ebx
.LVL25:
.LBB24:
.LBB25:
	.loc 1 5422 0
	subl	$12, %esp
	.loc 1 5421 0
	movl	$1, 1073799172
	.loc 1 5422 0
	pushl	$14
	call	irq_disable
.LVL26:
.LBE25:
.LBE24:
	.loc 1 5437 0
	leal	32(%ebx), %eax
	addl	$12, %esp
	pushl	60(%ebx)
	pushl	%eax
	pushl	$0
.LVL27:
.L45:
	call	*56(%ebx)
.LVL28:
.LBE23:
	addl	$16, %esp
.L38:
	.loc 1 5443 0
	movl	-4(%ebp), %ebx
	leave
	.cfi_restore 5
	.cfi_restore 3
	.cfi_def_cfa 4, 4
	ret
	.cfi_endproc
.LFE189:
	.size	isr_ecb, .-isr_ecb
	.section	.text.unlikely.isr_ecb
.LCOLDE6:
	.section	.text.isr_ecb
.LHOTE6:
	.section	.rodata
	.align 4
.LC0:
	.byte	0
	.byte	17
	.byte	34
	.byte	51
	.byte	68
	.byte	85
	.byte	102
	.byte	119
	.byte	-120
	.byte	-103
	.byte	0
	.byte	17
	.byte	34
	.byte	51
	.byte	68
	.byte	85
	.section	.text.unlikely.ecb_ut,"ax",@progbits
.LCOLDB7:
	.section	.text.ecb_ut,"ax",@progbits
.LHOTB7:
	.globl	ecb_ut
	.type	ecb_ut, @function
ecb_ut:
.LFB191:
	.loc 1 5461 0
	.cfi_startproc
	pushl	%ebp
	.cfi_def_cfa_offset 8
	.cfi_offset 5, -8
	.loc 1 5462 0
	movl	$4, %ecx
	.loc 1 5461 0
	movl	%esp, %ebp
	.cfi_def_cfa_register 5
	pushl	%edi
	pushl	%esi
	pushl	%ebx
	.cfi_offset 7, -12
	.cfi_offset 6, -16
	.cfi_offset 3, -20
	.loc 1 5462 0
	leal	-76(%ebp), %edi
	.loc 1 5471 0
	leal	-76(%ebp), %ebx
	.loc 1 5462 0
	movl	$.LC0, %esi
	.loc 1 5461 0
	subl	$156, %esp
	.loc 1 5462 0
	rep movsl
	.loc 1 5464 0
	leal	-60(%ebp), %edi
	movl	$.LC0, %esi
	movl	$4, %ecx
	.loc 1 5461 0
	movl	%gs:20, %eax
	movl	%eax, -28(%ebp)
	xorl	%eax, %eax
	.loc 1 5464 0
	rep movsl
.LVL29:
	.loc 1 5471 0
	leal	-60(%ebp), %edi
	leal	-44(%ebp), %esi
	pushl	$0
	pushl	%esi
	pushl	%edi
	pushl	%ebx
	call	ecb_encrypt
.LVL30:
	.loc 1 5478 0
	leal	-164(%ebp), %eax
	.loc 1 5474 0
	movl	$0, -164(%ebp)
	.loc 1 5475 0
	movl	%ebx, -92(%ebp)
	.loc 1 5476 0
	movl	%edi, -88(%ebp)
	.loc 1 5477 0
	movl	$ecb_cb, -84(%ebp)
	.loc 1 5478 0
	movl	%eax, -80(%ebp)
	.loc 1 5479 0
	leal	-140(%ebp), %eax
	movl	%eax, (%esp)
	call	ecb_encrypt_nonblocking
.LVL31:
	addl	$16, %esp
.L47:
.LBB26:
.LBB27:
	.loc 1 1278 0 discriminator 1
#APP
# 1278 "src/ecb.c" 1
	wfe
# 0 "" 2
#NO_APP
.LBE27:
.LBE26:
.LBB28:
.LBB29:
	.loc 1 1282 0 discriminator 1
#APP
# 1282 "src/ecb.c" 1
	sev
# 0 "" 2
#NO_APP
.LBE29:
.LBE28:
.LBB30:
.LBB31:
	.loc 1 1278 0 discriminator 1
#APP
# 1278 "src/ecb.c" 1
	wfe
# 0 "" 2
#NO_APP
.LBE31:
.LBE30:
	.loc 1 5484 0 discriminator 1
	movl	-164(%ebp), %eax
	testl	%eax, %eax
	je	.L47
	.loc 1 5485 0
	movl	-160(%ebp), %eax
	testl	%eax, %eax
	jne	.L48
	.loc 1 5488 0
	pushl	%eax
	leal	-156(%ebp), %eax
	pushl	$16
	pushl	%eax
	pushl	%esi
	call	memcmp
.LVL32:
	addl	$16, %esp
.LVL33:
.L48:
	.loc 1 5493 0
	movl	-28(%ebp), %edx
	xorl	%gs:20, %edx
	je	.L49
	call	__stack_chk_fail
.LVL34:
.L49:
	leal	-12(%ebp), %esp
	popl	%ebx
	.cfi_restore 3
	popl	%esi
	.cfi_restore 6
	popl	%edi
	.cfi_restore 7
	popl	%ebp
	.cfi_restore 5
	.cfi_def_cfa 4, 4
	ret
	.cfi_endproc
.LFE191:
	.size	ecb_ut, .-ecb_ut
	.section	.text.unlikely.ecb_ut
.LCOLDE7:
	.section	.text.ecb_ut
.LHOTE7:
	.text
.Letext0:
	.section	.text.unlikely.do_ecb
.Letext_cold0:
	.section	.note.GNU-stack,"",@progbits
