	.file	"ecc.c"
	.text
.Ltext0:
	.section	.text.unlikely.uECC_vli_add,"ax",@progbits
.LCOLDB0:
	.section	.text.uECC_vli_add,"ax",@progbits
.LHOTB0:
	.section	.text.unlikely.uECC_vli_add
.Ltext_cold0:
	.section	.text.uECC_vli_add
	.type	uECC_vli_add, @function
uECC_vli_add:
.LFB14:
	.file 1 "src/ecc.c"
	.loc 1 515 0
	.cfi_startproc
.LVL0:
	pushl	%ebp
	.cfi_def_cfa_offset 8
	.cfi_offset 5, -8
	movl	%esp, %ebp
	.cfi_def_cfa_register 5
	pushl	%edi
	pushl	%esi
	pushl	%ebx
	.cfi_offset 7, -12
	.cfi_offset 6, -16
	.cfi_offset 3, -20
	movl	%eax, %edi
	subl	$12, %esp
	.loc 1 515 0
	movb	8(%ebp), %al
.LVL1:
	movl	%ecx, -24(%ebp)
	.loc 1 518 0
	movb	$0, -13(%ebp)
	.loc 1 515 0
	movb	%al, -14(%ebp)
	.loc 1 516 0
	xorl	%eax, %eax
.LVL2:
.L2:
	.loc 1 518 0 discriminator 1
	movb	-14(%ebp), %bl
	cmpb	%bl, -13(%ebp)
	jge	.L6
.LBB13:
	.loc 1 519 0 discriminator 3
	movsbl	-13(%ebp), %esi
	movl	-24(%ebp), %ecx
	movl	(%edx,%esi,4), %ebx
	addl	(%ecx,%esi,4), %ebx
.LBB14:
.LBB15:
	.loc 1 498 0 discriminator 3
	xorl	%ecx, %ecx
.LBE15:
.LBE14:
	.loc 1 519 0 discriminator 3
	addl	%eax, %ebx
.LVL3:
.LBB18:
.LBB16:
	.loc 1 498 0 discriminator 3
	cmpl	%ebx, (%edx,%esi,4)
	sete	%cl
	imull	%ecx, %eax
.LVL4:
	movl	%eax, -20(%ebp)
	xorl	%eax, %eax
	cmpl	%ebx, (%edx,%esi,4)
	seta	%al
	movl	%eax, %ecx
	xorl	%eax, %eax
	cmpl	%ebx, (%edx,%esi,4)
.LBE16:
.LBE18:
	.loc 1 522 0 discriminator 3
	movl	%ebx, (%edi,%esi,4)
.LVL5:
.LBB19:
.LBB17:
	.loc 1 498 0 discriminator 3
	setne	%al
	incb	-13(%ebp)
.LVL6:
	imull	%ecx, %eax
	orl	-20(%ebp), %eax
.LVL7:
	jmp	.L2
.LVL8:
.L6:
.LBE17:
.LBE19:
.LBE13:
	.loc 1 525 0
	addl	$12, %esp
	popl	%ebx
	.cfi_restore 3
	popl	%esi
	.cfi_restore 6
	popl	%edi
	.cfi_restore 7
.LVL9:
	popl	%ebp
	.cfi_restore 5
	.cfi_def_cfa 4, 4
	ret
	.cfi_endproc
.LFE14:
	.size	uECC_vli_add, .-uECC_vli_add
	.section	.text.unlikely.uECC_vli_add
.LCOLDE0:
	.section	.text.uECC_vli_add
.LHOTE0:
	.section	.text.unlikely.uECC_vli_rshift1,"ax",@progbits
.LCOLDB1:
	.section	.text.uECC_vli_rshift1,"ax",@progbits
.LHOTB1:
	.type	uECC_vli_rshift1, @function
uECC_vli_rshift1:
.LFB16:
	.loc 1 535 0
	.cfi_startproc
.LVL10:
	pushl	%ebp
	.cfi_def_cfa_offset 8
	.cfi_offset 5, -8
	movsbl	%dl, %edx
	.loc 1 537 0
	xorl	%ecx, %ecx
	leal	(%eax,%edx,4), %edx
.LVL11:
	.loc 1 535 0
	movl	%esp, %ebp
	.cfi_def_cfa_register 5
	pushl	%esi
	pushl	%ebx
	.cfi_offset 6, -12
	.cfi_offset 3, -16
.LVL12:
.L8:
	.loc 1 539 0
	cmpl	%edx, %eax
	jnb	.L11
.LBB20:
	.loc 1 540 0
	movl	-4(%edx), %ebx
.LVL13:
	subl	$4, %edx
.LVL14:
	.loc 1 541 0
	movl	%ebx, %esi
	.loc 1 542 0
	sall	$31, %ebx
.LVL15:
	.loc 1 541 0
	shrl	%esi
.LVL16:
	orl	%esi, %ecx
.LVL17:
	movl	%ecx, (%edx)
.LVL18:
	.loc 1 542 0
	movl	%ebx, %ecx
.LVL19:
	jmp	.L8
.LVL20:
.L11:
.LBE20:
	.loc 1 544 0
	popl	%ebx
	.cfi_restore 3
	popl	%esi
	.cfi_restore 6
	popl	%ebp
	.cfi_restore 5
	.cfi_def_cfa 4, 4
	ret
	.cfi_endproc
.LFE16:
	.size	uECC_vli_rshift1, .-uECC_vli_rshift1
	.section	.text.unlikely.uECC_vli_rshift1
.LCOLDE1:
	.section	.text.uECC_vli_rshift1
.LHOTE1:
	.section	.text.unlikely.vli_modInv_update,"ax",@progbits
.LCOLDB2:
	.section	.text.vli_modInv_update,"ax",@progbits
.LHOTB2:
	.type	vli_modInv_update, @function
vli_modInv_update:
.LFB25:
	.loc 1 663 0
	.cfi_startproc
.LVL21:
	pushl	%ebp
	.cfi_def_cfa_offset 8
	.cfi_offset 5, -8
	movl	%esp, %ebp
	.cfi_def_cfa_register 5
	pushl	%edi
	.cfi_offset 7, -12
	xorl	%edi, %edi
	pushl	%esi
	pushl	%ebx
	.cfi_offset 6, -16
	.cfi_offset 3, -20
	movsbl	%cl, %esi
	.loc 1 665 0
	testb	$1, (%eax)
	.loc 1 663 0
	movl	%eax, %ebx
.LVL22:
	.loc 1 665 0
	je	.L13
	.loc 1 666 0
	pushl	%esi
	movl	%edx, %ecx
.LVL23:
	movl	%eax, %edx
.LVL24:
	call	uECC_vli_add
.LVL25:
	movl	%eax, %edi
.LVL26:
	popl	%eax
.LVL27:
.L13:
	.loc 1 668 0
	movl	%esi, %edx
	movl	%ebx, %eax
	call	uECC_vli_rshift1
.LVL28:
	.loc 1 669 0
	testl	%edi, %edi
	je	.L12
.LVL29:
.LBB23:
.LBB24:
	.loc 1 670 0
	orl	$-2147483648, -4(%ebx,%esi,4)
.LVL30:
.L12:
.LBE24:
.LBE23:
	.loc 1 672 0
	leal	-12(%ebp), %esp
	popl	%ebx
	.cfi_restore 3
.LVL31:
	popl	%esi
	.cfi_restore 6
.LVL32:
	popl	%edi
	.cfi_restore 7
.LVL33:
	popl	%ebp
	.cfi_restore 5
	.cfi_def_cfa 4, 4
	ret
	.cfi_endproc
.LFE25:
	.size	vli_modInv_update, .-vli_modInv_update
	.section	.text.unlikely.vli_modInv_update
.LCOLDE2:
	.section	.text.vli_modInv_update
.LHOTE2:
	.section	.text.unlikely.uECC_vli_mult,"ax",@progbits
.LCOLDB3:
	.section	.text.uECC_vli_mult,"ax",@progbits
.LHOTB3:
	.type	uECC_vli_mult, @function
uECC_vli_mult:
.LFB18:
	.loc 1 557 0
	.cfi_startproc
.LVL34:
	pushl	%ebp
	.cfi_def_cfa_offset 8
	.cfi_offset 5, -8
	movl	%esp, %ebp
	.cfi_def_cfa_register 5
	pushl	%edi
	pushl	%esi
	pushl	%ebx
	.cfi_offset 7, -12
	.cfi_offset 6, -16
	.cfi_offset 3, -20
	.loc 1 562 0
	xorl	%esi, %esi
	.loc 1 559 0
	xorl	%ebx, %ebx
	.loc 1 557 0
	subl	$60, %esp
	.loc 1 557 0
	movl	%eax, -36(%ebp)
	movl	8(%ebp), %eax
.LVL35:
	movl	%edx, -56(%ebp)
	movl	%ecx, -68(%ebp)
	.loc 1 558 0
	movl	$0, -20(%ebp)
	.loc 1 557 0
	movl	%eax, -40(%ebp)
	movb	-40(%ebp), %al
	movb	%al, -22(%ebp)
.LVL36:
.L23:
	movl	%esi, %eax
	.loc 1 562 0 discriminator 1
	cmpb	-22(%ebp), %al
	movb	%al, -23(%ebp)
.LVL37:
	jge	.L36
	movl	$0, -52(%ebp)
	movb	$0, -21(%ebp)
.LVL38:
.L26:
	.loc 1 564 0 discriminator 3
	movsbl	-21(%ebp), %eax
	movl	-56(%ebp), %ecx
	movl	%esi, %edx
.LBB29:
.LBB30:
	.loc 1 549 0 discriminator 3
	movl	%ebx, -44(%ebp)
.LBE30:
.LBE29:
	.loc 1 564 0 discriminator 3
	subl	%eax, %edx
	movl	(%ecx,%eax,4), %eax
.LVL39:
.LBB33:
.LBB31:
	.loc 1 548 0 discriminator 3
	movl	-68(%ebp), %ecx
	mull	(%ecx,%edx,4)
.LVL40:
	.loc 1 551 0 discriminator 3
	movl	$1, %ecx
	.loc 1 548 0 discriminator 3
	movl	%eax, -32(%ebp)
.LVL41:
	.loc 1 549 0 discriminator 3
	movl	-20(%ebp), %eax
	.loc 1 548 0 discriminator 3
	movl	%edx, -28(%ebp)
.LVL42:
	.loc 1 550 0 discriminator 3
	movl	-28(%ebp), %edx
	.loc 1 549 0 discriminator 3
	movl	%eax, -48(%ebp)
.LVL43:
	.loc 1 550 0 discriminator 3
	movl	-32(%ebp), %eax
	addl	-48(%ebp), %eax
	adcl	-44(%ebp), %edx
.LVL44:
	.loc 1 551 0 discriminator 3
	cmpl	%edx, -28(%ebp)
	ja	.L24
	jb	.L25
	cmpl	%eax, -32(%ebp)
	ja	.L24
.L25:
	xorl	%ecx, %ecx
.L24:
	incb	-21(%ebp)
.LVL45:
	addl	%ecx, -52(%ebp)
.LVL46:
	.loc 1 552 0 discriminator 3
	movl	%edx, %ebx
.LVL47:
.LBE31:
.LBE33:
	.loc 1 563 0 discriminator 3
	movb	-21(%ebp), %cl
	cmpb	%cl, -23(%ebp)
.LBB34:
.LBB32:
	.loc 1 553 0 discriminator 3
	movl	%eax, -20(%ebp)
.LVL48:
.LBE32:
.LBE34:
	.loc 1 563 0 discriminator 3
	jge	.L26
.LVL49:
	.loc 1 566 0 discriminator 2
	movl	-36(%ebp), %edi
	movl	%edx, -20(%ebp)
	movl	-52(%ebp), %ebx
	movl	%eax, (%edi,%esi,4)
.LVL50:
	incl	%esi
.LVL51:
	jmp	.L23
.LVL52:
.L36:
	.loc 1 571 0
	movsbl	-40(%ebp), %eax
.LVL53:
	xorl	%esi, %esi
.LVL54:
	leal	-1(%eax,%eax), %eax
	movl	%eax, -52(%ebp)
.LVL55:
.L28:
	movb	-22(%ebp), %al
	addl	%esi, %eax
	movb	%al, -21(%ebp)
.LVL56:
	.loc 1 571 0 is_stmt 0 discriminator 1
	movsbl	%al, %eax
.LVL57:
	cmpl	-52(%ebp), %eax
	movl	%eax, -48(%ebp)
	jge	.L37
	leal	1(%esi), %eax
	.loc 1 572 0 is_stmt 1
	movl	$0, -32(%ebp)
	movl	%eax, %edi
.LVL58:
.L29:
	.loc 1 572 0 is_stmt 0 discriminator 1
	movb	-22(%ebp), %dl
	movl	%edi, %eax
	cmpb	%dl, %al
	jge	.L38
	.loc 1 573 0 is_stmt 1 discriminator 3
	movl	-56(%ebp), %ecx
	movl	-48(%ebp), %edx
	movl	%edi, %eax
	movsbl	%al, %eax
.LBB35:
.LBB36:
	.loc 1 549 0 discriminator 3
	movl	%ebx, -60(%ebp)
	.loc 1 550 0 discriminator 3
	movl	-60(%ebp), %ebx
.LBE36:
.LBE35:
	.loc 1 573 0 discriminator 3
	subl	%eax, %edx
	movl	(%ecx,%eax,4), %eax
.LVL59:
.LBB38:
.LBB37:
	.loc 1 548 0 discriminator 3
	movl	-68(%ebp), %ecx
	mull	(%ecx,%edx,4)
.LVL60:
	.loc 1 549 0 discriminator 3
	movl	-20(%ebp), %ecx
	.loc 1 551 0 discriminator 3
	movl	$1, -20(%ebp)
.LVL61:
	.loc 1 549 0 discriminator 3
	movl	%ecx, -64(%ebp)
.LVL62:
	.loc 1 550 0 discriminator 3
	movl	-64(%ebp), %ecx
	addl	%eax, %ecx
.LVL63:
	adcl	%edx, %ebx
.LVL64:
	.loc 1 551 0 discriminator 3
	cmpl	%ebx, %edx
	ja	.L30
	jb	.L31
	cmpl	%ecx, %eax
	ja	.L30
.L31:
	movl	$0, -20(%ebp)
.L30:
.LVL65:
	movl	%edi, %eax
.LVL66:
	movl	-20(%ebp), %edx
.LVL67:
	.loc 1 553 0 discriminator 3
	movl	%ecx, -20(%ebp)
.LVL68:
	incl	%eax
.LVL69:
	.loc 1 551 0 discriminator 3
	addl	%edx, -32(%ebp)
.LVL70:
	movl	%eax, %edi
.LVL71:
	jmp	.L29
.LVL72:
.L38:
.LBE37:
.LBE38:
	.loc 1 575 0 discriminator 2
	movsbl	-21(%ebp), %eax
.LVL73:
	movl	-20(%ebp), %edx
	incl	%esi
	movl	-36(%ebp), %edi
.LVL74:
	movl	%ebx, -20(%ebp)
.LVL75:
	movl	-32(%ebp), %ebx
.LVL76:
	movl	%edx, (%edi,%eax,4)
.LVL77:
	jmp	.L28
.LVL78:
.L37:
	.loc 1 580 0
	movsbl	-40(%ebp), %eax
	movl	-20(%ebp), %esi
	movl	-36(%ebp), %ebx
.LVL79:
	movl	%esi, -4(%ebx,%eax,8)
.LVL80:
	.loc 1 581 0
	addl	$60, %esp
	popl	%ebx
	.cfi_restore 3
	popl	%esi
	.cfi_restore 6
	popl	%edi
	.cfi_restore 7
	popl	%ebp
	.cfi_restore 5
	.cfi_def_cfa 4, 4
	ret
	.cfi_endproc
.LFE18:
	.size	uECC_vli_mult, .-uECC_vli_mult
	.section	.text.unlikely.uECC_vli_mult
.LCOLDE3:
	.section	.text.uECC_vli_mult
.LHOTE3:
	.section	.text.unlikely.uECC_set_rng,"ax",@progbits
.LCOLDB4:
	.section	.text.uECC_set_rng,"ax",@progbits
.LHOTB4:
	.globl	uECC_set_rng
	.type	uECC_set_rng, @function
uECC_set_rng:
.LFB0:
	.loc 1 405 0
	.cfi_startproc
.LVL81:
	pushl	%ebp
	.cfi_def_cfa_offset 8
	.cfi_offset 5, -8
	movl	%esp, %ebp
	.cfi_def_cfa_register 5
	.loc 1 406 0
	movl	8(%ebp), %eax
	.loc 1 407 0
	popl	%ebp
	.cfi_restore 5
	.cfi_def_cfa 4, 4
	.loc 1 406 0
	movl	%eax, g_rng_function
	.loc 1 407 0
	ret
	.cfi_endproc
.LFE0:
	.size	uECC_set_rng, .-uECC_set_rng
	.section	.text.unlikely.uECC_set_rng
.LCOLDE4:
	.section	.text.uECC_set_rng
.LHOTE4:
	.section	.text.unlikely.uECC_get_rng,"ax",@progbits
.LCOLDB5:
	.section	.text.uECC_get_rng,"ax",@progbits
.LHOTB5:
	.globl	uECC_get_rng
	.type	uECC_get_rng, @function
uECC_get_rng:
.LFB1:
	.loc 1 409 0
	.cfi_startproc
	pushl	%ebp
	.cfi_def_cfa_offset 8
	.cfi_offset 5, -8
	.loc 1 411 0
	movl	g_rng_function, %eax
	.loc 1 409 0
	movl	%esp, %ebp
	.cfi_def_cfa_register 5
	.loc 1 411 0
	popl	%ebp
	.cfi_restore 5
	.cfi_def_cfa 4, 4
	ret
	.cfi_endproc
.LFE1:
	.size	uECC_get_rng, .-uECC_get_rng
	.section	.text.unlikely.uECC_get_rng
.LCOLDE5:
	.section	.text.uECC_get_rng
.LHOTE5:
	.section	.text.unlikely.uECC_curve_private_key_size,"ax",@progbits
.LCOLDB6:
	.section	.text.uECC_curve_private_key_size,"ax",@progbits
.LHOTB6:
	.globl	uECC_curve_private_key_size
	.type	uECC_curve_private_key_size, @function
uECC_curve_private_key_size:
.LFB2:
	.loc 1 413 0
	.cfi_startproc
.LVL82:
	pushl	%ebp
	.cfi_def_cfa_offset 8
	.cfi_offset 5, -8
	.loc 1 414 0
	movl	$8, %ecx
	.loc 1 413 0
	movl	%esp, %ebp
	.cfi_def_cfa_register 5
	.loc 1 414 0
	movl	8(%ebp), %eax
	.loc 1 415 0
	popl	%ebp
	.cfi_restore 5
	.cfi_def_cfa 4, 4
	.loc 1 414 0
	movswl	2(%eax), %eax
	addl	$7, %eax
	cltd
	idivl	%ecx
	.loc 1 415 0
	ret
	.cfi_endproc
.LFE2:
	.size	uECC_curve_private_key_size, .-uECC_curve_private_key_size
	.section	.text.unlikely.uECC_curve_private_key_size
.LCOLDE6:
	.section	.text.uECC_curve_private_key_size
.LHOTE6:
	.section	.text.unlikely.uECC_curve_public_key_size,"ax",@progbits
.LCOLDB7:
	.section	.text.uECC_curve_public_key_size,"ax",@progbits
.LHOTB7:
	.globl	uECC_curve_public_key_size
	.type	uECC_curve_public_key_size, @function
uECC_curve_public_key_size:
.LFB3:
	.loc 1 417 0
	.cfi_startproc
.LVL83:
	pushl	%ebp
	.cfi_def_cfa_offset 8
	.cfi_offset 5, -8
	movl	%esp, %ebp
	.cfi_def_cfa_register 5
	.loc 1 418 0
	movl	8(%ebp), %eax
	.loc 1 419 0
	popl	%ebp
	.cfi_restore 5
	.cfi_def_cfa 4, 4
	.loc 1 418 0
	movsbl	1(%eax), %eax
	addl	%eax, %eax
	.loc 1 419 0
	ret
	.cfi_endproc
.LFE3:
	.size	uECC_curve_public_key_size, .-uECC_curve_public_key_size
	.section	.text.unlikely.uECC_curve_public_key_size
.LCOLDE7:
	.section	.text.uECC_curve_public_key_size
.LHOTE7:
	.section	.text.unlikely.uECC_vli_clear,"ax",@progbits
.LCOLDB8:
	.section	.text.uECC_vli_clear,"ax",@progbits
.LHOTB8:
	.globl	uECC_vli_clear
	.type	uECC_vli_clear, @function
uECC_vli_clear:
.LFB4:
	.loc 1 421 0
	.cfi_startproc
.LVL84:
	pushl	%ebp
	.cfi_def_cfa_offset 8
	.cfi_offset 5, -8
	.loc 1 423 0
	xorl	%eax, %eax
	.loc 1 421 0
	movl	%esp, %ebp
	.cfi_def_cfa_register 5
	pushl	%ebx
	.cfi_offset 3, -12
	.loc 1 421 0
	movl	8(%ebp), %ecx
	movb	12(%ebp), %dl
.LVL85:
.L48:
	.loc 1 423 0 discriminator 1
	cmpb	%dl, %al
	jge	.L51
	.loc 1 424 0 discriminator 3
	movsbl	%al, %ebx
	incl	%eax
.LVL86:
	movl	$0, (%ecx,%ebx,4)
	jmp	.L48
.LVL87:
.L51:
	.loc 1 426 0
	popl	%ebx
	.cfi_restore 3
	popl	%ebp
	.cfi_restore 5
	.cfi_def_cfa 4, 4
	ret
	.cfi_endproc
.LFE4:
	.size	uECC_vli_clear, .-uECC_vli_clear
	.section	.text.unlikely.uECC_vli_clear
.LCOLDE8:
	.section	.text.uECC_vli_clear
.LHOTE8:
	.section	.text.unlikely.uECC_vli_isZero,"ax",@progbits
.LCOLDB9:
	.section	.text.uECC_vli_isZero,"ax",@progbits
.LHOTB9:
	.globl	uECC_vli_isZero
	.type	uECC_vli_isZero, @function
uECC_vli_isZero:
.LFB5:
	.loc 1 428 0
	.cfi_startproc
.LVL88:
	pushl	%ebp
	.cfi_def_cfa_offset 8
	.cfi_offset 5, -8
	.loc 1 431 0
	xorl	%eax, %eax
	.loc 1 429 0
	xorl	%edx, %edx
	.loc 1 428 0
	movl	%esp, %ebp
	.cfi_def_cfa_register 5
	pushl	%esi
	pushl	%ebx
	.cfi_offset 6, -12
	.cfi_offset 3, -16
	.loc 1 428 0
	movb	12(%ebp), %cl
.LVL89:
.L53:
	.loc 1 431 0 discriminator 1
	cmpb	%cl, %al
	jge	.L56
	.loc 1 432 0 discriminator 3
	movl	8(%ebp), %esi
	movsbl	%al, %ebx
	incl	%eax
.LVL90:
	orl	(%esi,%ebx,4), %edx
.LVL91:
	jmp	.L53
.LVL92:
.L56:
	.loc 1 434 0
	xorl	%eax, %eax
.LVL93:
	testl	%edx, %edx
	.loc 1 435 0
	popl	%ebx
	.cfi_restore 3
	.loc 1 434 0
	sete	%al
	.loc 1 435 0
	popl	%esi
	.cfi_restore 6
	popl	%ebp
	.cfi_restore 5
	.cfi_def_cfa 4, 4
	ret
	.cfi_endproc
.LFE5:
	.size	uECC_vli_isZero, .-uECC_vli_isZero
	.section	.text.unlikely.uECC_vli_isZero
.LCOLDE9:
	.section	.text.uECC_vli_isZero
.LHOTE9:
	.section	.text.unlikely.uECC_vli_testBit,"ax",@progbits
.LCOLDB10:
	.section	.text.uECC_vli_testBit,"ax",@progbits
.LHOTB10:
	.globl	uECC_vli_testBit
	.type	uECC_vli_testBit, @function
uECC_vli_testBit:
.LFB6:
	.loc 1 437 0
	.cfi_startproc
.LVL94:
	pushl	%ebp
	.cfi_def_cfa_offset 8
	.cfi_offset 5, -8
	.loc 1 438 0
	movl	$1, %eax
	.loc 1 437 0
	movl	%esp, %ebp
	.cfi_def_cfa_register 5
	.loc 1 437 0
	movl	12(%ebp), %ecx
	.loc 1 438 0
	movl	%ecx, %edx
	sall	%cl, %eax
	movl	8(%ebp), %ecx
	sarw	$5, %dx
	movswl	%dx, %edx
	andl	(%ecx,%edx,4), %eax
	.loc 1 440 0
	popl	%ebp
	.cfi_restore 5
	.cfi_def_cfa 4, 4
	ret
	.cfi_endproc
.LFE6:
	.size	uECC_vli_testBit, .-uECC_vli_testBit
	.section	.text.unlikely.uECC_vli_testBit
.LCOLDE10:
	.section	.text.uECC_vli_testBit
.LHOTE10:
	.section	.text.unlikely.uECC_vli_numBits,"ax",@progbits
.LCOLDB11:
	.section	.text.uECC_vli_numBits,"ax",@progbits
.LHOTB11:
	.globl	uECC_vli_numBits
	.type	uECC_vli_numBits, @function
uECC_vli_numBits:
.LFB8:
	.loc 1 451 0
	.cfi_startproc
.LVL95:
	pushl	%ebp
	.cfi_def_cfa_offset 8
	.cfi_offset 5, -8
	movl	%esp, %ebp
	.cfi_def_cfa_register 5
.LBB41:
.LBB42:
	.loc 1 445 0
	movb	12(%ebp), %al
.LBE42:
.LBE41:
	.loc 1 451 0
	movl	8(%ebp), %ecx
.LVL96:
.LBB45:
.LBB43:
	.loc 1 445 0
	leal	-1(%eax), %edx
.LVL97:
.L60:
	testb	%dl, %dl
	jns	.L61
.L65:
.LVL98:
.LBE43:
.LBE45:
	.loc 1 456 0
	xorl	%eax, %eax
	.loc 1 455 0
	incb	%dl
	je	.L62
	.loc 1 458 0
	movsbl	%dl, %eax
	movl	-4(%ecx,%eax,4), %eax
.LVL99:
	.loc 1 459 0
	xorl	%ecx, %ecx
	jmp	.L66
.LVL100:
.L61:
.LBB46:
.LBB44:
	.loc 1 445 0
	movsbl	%dl, %eax
	cmpl	$0, (%ecx,%eax,4)
	jne	.L65
	decl	%edx
.LVL101:
	jmp	.L60
.LVL102:
.L66:
.LBE44:
.LBE46:
	.loc 1 459 0 discriminator 1
	testl	%eax, %eax
	je	.L72
	.loc 1 460 0 discriminator 3
	shrl	%eax
.LVL103:
	.loc 1 459 0 discriminator 3
	incl	%ecx
.LVL104:
	jmp	.L66
.L72:
	.loc 1 462 0
	movsbw	%dl, %ax
.LVL105:
	decl	%eax
	sall	$5, %eax
	addl	%ecx, %eax
.LVL106:
.L62:
	.loc 1 463 0
	popl	%ebp
	.cfi_restore 5
	.cfi_def_cfa 4, 4
	ret
	.cfi_endproc
.LFE8:
	.size	uECC_vli_numBits, .-uECC_vli_numBits
	.section	.text.unlikely.uECC_vli_numBits
.LCOLDE11:
	.section	.text.uECC_vli_numBits
.LHOTE11:
	.section	.text.unlikely.uECC_vli_set,"ax",@progbits
.LCOLDB12:
	.section	.text.uECC_vli_set,"ax",@progbits
.LHOTB12:
	.globl	uECC_vli_set
	.type	uECC_vli_set, @function
uECC_vli_set:
.LFB9:
	.loc 1 466 0
	.cfi_startproc
.LVL107:
	pushl	%ebp
	.cfi_def_cfa_offset 8
	.cfi_offset 5, -8
	.loc 1 468 0
	xorl	%eax, %eax
	.loc 1 466 0
	movl	%esp, %ebp
	.cfi_def_cfa_register 5
	pushl	%edi
	pushl	%esi
	movb	16(%ebp), %cl
	pushl	%ebx
	.cfi_offset 7, -12
	.cfi_offset 6, -16
	.cfi_offset 3, -20
	.loc 1 466 0
	movl	12(%ebp), %ebx
.LVL108:
.L74:
	.loc 1 468 0 discriminator 1
	cmpb	%cl, %al
	jge	.L77
	.loc 1 469 0 discriminator 3
	movsbl	%al, %edx
	movl	8(%ebp), %esi
	incl	%eax
.LVL109:
	movl	(%ebx,%edx,4), %edi
	movl	%edi, (%esi,%edx,4)
	jmp	.L74
.LVL110:
.L77:
	.loc 1 471 0
	popl	%ebx
	.cfi_restore 3
.LVL111:
	popl	%esi
	.cfi_restore 6
	popl	%edi
	.cfi_restore 7
	popl	%ebp
	.cfi_restore 5
	.cfi_def_cfa 4, 4
	ret
	.cfi_endproc
.LFE9:
	.size	uECC_vli_set, .-uECC_vli_set
	.section	.text.unlikely.uECC_vli_set
.LCOLDE12:
	.section	.text.uECC_vli_set
.LHOTE12:
	.section	.text.unlikely.uECC_vli_cmp_unsafe,"ax",@progbits
.LCOLDB13:
	.section	.text.uECC_vli_cmp_unsafe,"ax",@progbits
.LHOTB13:
	.globl	uECC_vli_cmp_unsafe
	.type	uECC_vli_cmp_unsafe, @function
uECC_vli_cmp_unsafe:
.LFB10:
	.loc 1 475 0
	.cfi_startproc
.LVL112:
	pushl	%ebp
	.cfi_def_cfa_offset 8
	.cfi_offset 5, -8
	movl	%esp, %ebp
	.cfi_def_cfa_register 5
	pushl	%ebx
	.cfi_offset 3, -12
	.loc 1 475 0
	movl	8(%ebp), %ecx
	.loc 1 477 0
	movb	16(%ebp), %al
.L85:
	decl	%eax
.LVL113:
	.loc 1 477 0 is_stmt 0 discriminator 2
	testb	%al, %al
	js	.L86
	.loc 1 478 0 is_stmt 1
	movl	12(%ebp), %ebx
	movsbl	%al, %edx
	movl	(%ebx,%edx,4), %ebx
	cmpl	%ebx, (%ecx,%edx,4)
	ja	.L82
	.loc 1 480 0
	jnb	.L85
	.loc 1 481 0
	movb	$-1, %al
.LVL114:
	jmp	.L80
.LVL115:
.L86:
	.loc 1 484 0
	xorl	%eax, %eax
.LVL116:
	jmp	.L80
.LVL117:
.L82:
	.loc 1 479 0
	movb	$1, %al
.LVL118:
.L80:
	.loc 1 485 0
	popl	%ebx
	.cfi_restore 3
	popl	%ebp
	.cfi_restore 5
	.cfi_def_cfa 4, 4
	ret
	.cfi_endproc
.LFE10:
	.size	uECC_vli_cmp_unsafe, .-uECC_vli_cmp_unsafe
	.section	.text.unlikely.uECC_vli_cmp_unsafe
.LCOLDE13:
	.section	.text.uECC_vli_cmp_unsafe
.LHOTE13:
	.section	.text.unlikely.uECC_vli_equal,"ax",@progbits
.LCOLDB14:
	.section	.text.uECC_vli_equal,"ax",@progbits
.LHOTB14:
	.globl	uECC_vli_equal
	.type	uECC_vli_equal, @function
uECC_vli_equal:
.LFB11:
	.loc 1 488 0
	.cfi_startproc
.LVL119:
	pushl	%ebp
	.cfi_def_cfa_offset 8
	.cfi_offset 5, -8
	.loc 1 489 0
	xorl	%edx, %edx
	.loc 1 488 0
	movl	%esp, %ebp
	.cfi_def_cfa_register 5
	pushl	%edi
	pushl	%esi
	.loc 1 491 0
	movb	16(%ebp), %al
	.loc 1 488 0
	pushl	%ebx
	.cfi_offset 7, -12
	.cfi_offset 6, -16
	.cfi_offset 3, -20
	.loc 1 488 0
	movl	8(%ebp), %ebx
	.loc 1 491 0
	decl	%eax
.LVL120:
.L88:
	.loc 1 491 0 is_stmt 0 discriminator 1
	testb	%al, %al
	js	.L91
	.loc 1 492 0 is_stmt 1 discriminator 3
	movl	12(%ebp), %edi
	movsbl	%al, %esi
	decl	%eax
.LVL121:
	movl	(%ebx,%esi,4), %ecx
	xorl	(%edi,%esi,4), %ecx
	orl	%ecx, %edx
.LVL122:
	jmp	.L88
.LVL123:
.L91:
	.loc 1 494 0
	xorl	%eax, %eax
.LVL124:
	testl	%edx, %edx
	.loc 1 495 0
	popl	%ebx
	.cfi_restore 3
.LVL125:
	.loc 1 494 0
	setne	%al
	.loc 1 495 0
	popl	%esi
	.cfi_restore 6
	popl	%edi
	.cfi_restore 7
	popl	%ebp
	.cfi_restore 5
	.cfi_def_cfa 4, 4
	ret
	.cfi_endproc
.LFE11:
	.size	uECC_vli_equal, .-uECC_vli_equal
	.section	.text.unlikely.uECC_vli_equal
.LCOLDE14:
	.section	.text.uECC_vli_equal
.LHOTE14:
	.section	.text.unlikely.cond_set,"ax",@progbits
.LCOLDB15:
	.section	.text.cond_set,"ax",@progbits
.LHOTB15:
	.globl	cond_set
	.type	cond_set, @function
cond_set:
.LFB12:
	.loc 1 497 0
	.cfi_startproc
.LVL126:
	pushl	%ebp
	.cfi_def_cfa_offset 8
	.cfi_offset 5, -8
	.loc 1 498 0
	xorl	%eax, %eax
	.loc 1 497 0
	movl	%esp, %ebp
	.cfi_def_cfa_register 5
	.loc 1 497 0
	movl	16(%ebp), %edx
	.loc 1 498 0
	testl	%edx, %edx
	sete	%al
	imull	8(%ebp), %edx
	imull	12(%ebp), %eax
	.loc 1 499 0
	popl	%ebp
	.cfi_restore 5
	.cfi_def_cfa 4, 4
	.loc 1 498 0
	orl	%edx, %eax
	.loc 1 499 0
	ret
	.cfi_endproc
.LFE12:
	.size	cond_set, .-cond_set
	.section	.text.unlikely.cond_set
.LCOLDE15:
	.section	.text.cond_set
.LHOTE15:
	.section	.text.unlikely.uECC_vli_sub,"ax",@progbits
.LCOLDB16:
	.section	.text.uECC_vli_sub,"ax",@progbits
.LHOTB16:
	.globl	uECC_vli_sub
	.type	uECC_vli_sub, @function
uECC_vli_sub:
.LFB13:
	.loc 1 502 0
	.cfi_startproc
.LVL127:
	pushl	%ebp
	.cfi_def_cfa_offset 8
	.cfi_offset 5, -8
	movl	%esp, %ebp
	.cfi_def_cfa_register 5
	pushl	%edi
	pushl	%esi
	pushl	%ebx
	pushl	%ecx
	.cfi_offset 7, -12
	.cfi_offset 6, -16
	.cfi_offset 3, -20
	.loc 1 502 0
	movb	20(%ebp), %al
	.loc 1 505 0
	movb	$0, -13(%ebp)
	.loc 1 502 0
	movb	%al, -14(%ebp)
	.loc 1 503 0
	xorl	%eax, %eax
.LVL128:
.L95:
	.loc 1 505 0 discriminator 1
	movb	-14(%ebp), %bl
	cmpb	%bl, -13(%ebp)
	jge	.L98
.LBB47:
	.loc 1 506 0 discriminator 3
	movsbl	-13(%ebp), %esi
	movl	12(%ebp), %ecx
	movl	16(%ebp), %edi
	movl	(%ecx,%esi,4), %ebx
.LBB48:
.LBB49:
	.loc 1 498 0 discriminator 3
	xorl	%ecx, %ecx
.LBE49:
.LBE48:
	.loc 1 506 0 discriminator 3
	movl	%ebx, %edx
	subl	(%edi,%esi,4), %edx
	subl	%eax, %edx
.LVL129:
.LBB52:
.LBB50:
	.loc 1 498 0 discriminator 3
	cmpl	%edx, %ebx
	sete	%cl
	movl	%ecx, %edi
	xorl	%ecx, %ecx
	imull	%edi, %eax
.LVL130:
	cmpl	%edx, %ebx
	setb	%cl
	cmpl	%edx, %ebx
	setne	%bl
.LVL131:
	movl	%ecx, %edi
	incb	-13(%ebp)
.LVL132:
	movzbl	%bl, %ebx
	imull	%ebx, %edi
.LBE50:
.LBE52:
	.loc 1 509 0 discriminator 3
	movl	8(%ebp), %ebx
.LBB53:
.LBB51:
	.loc 1 498 0 discriminator 3
	orl	%edi, %eax
.LVL133:
.LBE51:
.LBE53:
	.loc 1 509 0 discriminator 3
	movl	%edx, (%ebx,%esi,4)
.LVL134:
	jmp	.L95
.LVL135:
.L98:
.LBE47:
	.loc 1 512 0
	popl	%edx
	popl	%ebx
	.cfi_restore 3
	popl	%esi
	.cfi_restore 6
	popl	%edi
	.cfi_restore 7
	popl	%ebp
	.cfi_restore 5
	.cfi_def_cfa 4, 4
	ret
	.cfi_endproc
.LFE13:
	.size	uECC_vli_sub, .-uECC_vli_sub
	.section	.text.unlikely.uECC_vli_sub
.LCOLDE16:
	.section	.text.uECC_vli_sub
.LHOTE16:
	.section	.text.unlikely.vli_mmod_fast_secp256r1,"ax",@progbits
.LCOLDB17:
	.section	.text.vli_mmod_fast_secp256r1,"ax",@progbits
.LHOTB17:
	.globl	vli_mmod_fast_secp256r1
	.type	vli_mmod_fast_secp256r1, @function
vli_mmod_fast_secp256r1:
.LFB30:
	.loc 1 768 0
	.cfi_startproc
.LVL136:
	pushl	%ebp
	.cfi_def_cfa_offset 8
	.cfi_offset 5, -8
	movl	%esp, %ebp
	.cfi_def_cfa_register 5
	pushl	%edi
	pushl	%esi
	pushl	%ebx
	.cfi_offset 7, -12
	.cfi_offset 6, -16
	.cfi_offset 3, -20
	.loc 1 778 0
	leal	-60(%ebp), %edi
	.loc 1 768 0
	subl	$76, %esp
	.loc 1 768 0
	movl	12(%ebp), %ebx
	movl	8(%ebp), %esi
	.loc 1 771 0
	pushl	$8
	.loc 1 768 0
	movl	%gs:20, %eax
	movl	%eax, -28(%ebp)
	xorl	%eax, %eax
	.loc 1 771 0
	pushl	%ebx
	pushl	%esi
	call	uECC_vli_set
.LVL137:
	.loc 1 773 0
	movl	44(%ebx), %eax
	.loc 1 778 0
	movl	%edi, %ecx
	movl	%edi, %edx
	.loc 1 772 0
	movl	$0, -52(%ebp)
	movl	$0, -56(%ebp)
	movl	$0, -60(%ebp)
	.loc 1 773 0
	movl	%eax, -48(%ebp)
	.loc 1 774 0
	movl	48(%ebx), %eax
	movl	%eax, -44(%ebp)
	.loc 1 775 0
	movl	52(%ebx), %eax
	movl	%eax, -40(%ebp)
	.loc 1 776 0
	movl	56(%ebx), %eax
	movl	%eax, -36(%ebp)
	.loc 1 777 0
	movl	60(%ebx), %eax
	.loc 1 778 0
	pushl	$8
	.loc 1 777 0
	movl	%eax, -32(%ebp)
	.loc 1 778 0
	movl	%edi, %eax
	call	uECC_vli_add
.LVL138:
	.loc 1 779 0
	pushl	$8
	movl	%edi, %ecx
	.loc 1 778 0
	movl	%eax, -76(%ebp)
.LVL139:
	.loc 1 779 0
	movl	%esi, %edx
	movl	%esi, %eax
.LVL140:
	call	uECC_vli_add
.LVL141:
	addl	-76(%ebp), %eax
	.loc 1 785 0
	movl	%edi, %ecx
	movl	%edi, %edx
	.loc 1 784 0
	movl	$0, -32(%ebp)
	.loc 1 779 0
	movl	%eax, -76(%ebp)
.LVL142:
	.loc 1 780 0
	movl	48(%ebx), %eax
.LVL143:
	movl	%eax, -48(%ebp)
	.loc 1 781 0
	movl	52(%ebx), %eax
	movl	%eax, -44(%ebp)
	.loc 1 782 0
	movl	56(%ebx), %eax
	movl	%eax, -40(%ebp)
	.loc 1 783 0
	movl	60(%ebx), %eax
	.loc 1 785 0
	pushl	$8
	.loc 1 783 0
	movl	%eax, -36(%ebp)
	.loc 1 785 0
	movl	%edi, %eax
	call	uECC_vli_add
.LVL144:
	addl	-76(%ebp), %eax
	.loc 1 786 0
	pushl	$8
	movl	%edi, %ecx
	movl	%esi, %edx
	.loc 1 785 0
	movl	%eax, -76(%ebp)
.LVL145:
	.loc 1 786 0
	movl	%esi, %eax
.LVL146:
	call	uECC_vli_add
.LVL147:
	addl	-76(%ebp), %eax
	.loc 1 793 0
	movl	%edi, %ecx
	movl	%esi, %edx
	.loc 1 790 0
	movl	$0, -40(%ebp)
	movl	$0, -44(%ebp)
	movl	$0, -48(%ebp)
	.loc 1 786 0
	movl	%eax, -76(%ebp)
.LVL148:
	.loc 1 787 0
	movl	32(%ebx), %eax
.LVL149:
	movl	%eax, -60(%ebp)
	.loc 1 788 0
	movl	36(%ebx), %eax
	movl	%eax, -56(%ebp)
	.loc 1 789 0
	movl	40(%ebx), %eax
	movl	%eax, -52(%ebp)
	.loc 1 791 0
	movl	56(%ebx), %eax
	movl	%eax, -36(%ebp)
	.loc 1 792 0
	movl	60(%ebx), %eax
	.loc 1 793 0
	pushl	$8
	.loc 1 792 0
	movl	%eax, -32(%ebp)
	.loc 1 793 0
	movl	%esi, %eax
	call	uECC_vli_add
.LVL150:
	addl	-76(%ebp), %eax
	.loc 1 798 0
	movl	56(%ebx), %edx
	.loc 1 802 0
	addl	$32, %esp
	movl	%edi, %ecx
	.loc 1 798 0
	movl	%edx, -44(%ebp)
	.loc 1 799 0
	movl	60(%ebx), %edx
	.loc 1 793 0
	movl	%eax, -76(%ebp)
.LVL151:
	.loc 1 794 0
	movl	36(%ebx), %eax
.LVL152:
	.loc 1 799 0
	movl	%edx, -40(%ebp)
	.loc 1 802 0
	movl	%esi, %edx
	.loc 1 794 0
	movl	%eax, -60(%ebp)
	.loc 1 795 0
	movl	40(%ebx), %eax
	movl	%eax, -56(%ebp)
	.loc 1 796 0
	movl	44(%ebx), %eax
	movl	%eax, -52(%ebp)
	.loc 1 797 0
	movl	52(%ebx), %eax
	movl	%eax, -48(%ebp)
	.loc 1 800 0
	movl	%eax, -36(%ebp)
	.loc 1 801 0
	movl	32(%ebx), %eax
	.loc 1 802 0
	pushl	$8
	.loc 1 801 0
	movl	%eax, -32(%ebp)
	.loc 1 802 0
	movl	%esi, %eax
	call	uECC_vli_add
.LVL153:
	addl	-76(%ebp), %eax
	.loc 1 806 0
	movl	$0, -40(%ebp)
	movl	$0, -44(%ebp)
	movl	$0, -48(%ebp)
	.loc 1 802 0
	movl	%eax, -76(%ebp)
.LVL154:
	.loc 1 803 0
	movl	44(%ebx), %eax
.LVL155:
	movl	%eax, -60(%ebp)
	.loc 1 804 0
	movl	48(%ebx), %eax
	movl	%eax, -56(%ebp)
	.loc 1 805 0
	movl	52(%ebx), %eax
	movl	%eax, -52(%ebp)
	.loc 1 807 0
	movl	32(%ebx), %eax
	movl	%eax, -36(%ebp)
	.loc 1 808 0
	movl	40(%ebx), %eax
	.loc 1 809 0
	pushl	$8
	pushl	%edi
	pushl	%esi
	pushl	%esi
	.loc 1 808 0
	movl	%eax, -32(%ebp)
	.loc 1 809 0
	call	uECC_vli_sub
.LVL156:
	movl	-76(%ebp), %ecx
	.loc 1 814 0
	movl	$0, -40(%ebp)
	movl	$0, -44(%ebp)
	.loc 1 809 0
	subl	%eax, %ecx
	.loc 1 810 0
	movl	48(%ebx), %eax
	.loc 1 809 0
	movl	%ecx, -76(%ebp)
.LVL157:
	.loc 1 810 0
	movl	%eax, -60(%ebp)
	.loc 1 811 0
	movl	52(%ebx), %eax
	movl	%eax, -56(%ebp)
	.loc 1 812 0
	movl	56(%ebx), %eax
	movl	%eax, -52(%ebp)
	.loc 1 813 0
	movl	60(%ebx), %eax
	movl	%eax, -48(%ebp)
	.loc 1 815 0
	movl	36(%ebx), %eax
	movl	%eax, -36(%ebp)
	.loc 1 816 0
	movl	44(%ebx), %eax
	.loc 1 817 0
	pushl	$8
	pushl	%edi
	pushl	%esi
	pushl	%esi
	.loc 1 816 0
	movl	%eax, -32(%ebp)
	.loc 1 817 0
	call	uECC_vli_sub
.LVL158:
	movl	-76(%ebp), %ecx
	.loc 1 826 0
	addl	$36, %esp
	.loc 1 824 0
	movl	$0, -36(%ebp)
	.loc 1 817 0
	subl	%eax, %ecx
	.loc 1 818 0
	movl	52(%ebx), %eax
	.loc 1 817 0
	movl	%ecx, -76(%ebp)
.LVL159:
	.loc 1 818 0
	movl	%eax, -60(%ebp)
	.loc 1 819 0
	movl	56(%ebx), %eax
	movl	%eax, -56(%ebp)
	.loc 1 820 0
	movl	60(%ebx), %eax
	movl	%eax, -52(%ebp)
	.loc 1 821 0
	movl	32(%ebx), %eax
	movl	%eax, -48(%ebp)
	.loc 1 822 0
	movl	36(%ebx), %eax
	movl	%eax, -44(%ebp)
	.loc 1 823 0
	movl	40(%ebx), %eax
	movl	%eax, -40(%ebp)
	.loc 1 825 0
	movl	48(%ebx), %eax
	.loc 1 826 0
	pushl	$8
	pushl	%edi
	pushl	%esi
	pushl	%esi
	.loc 1 825 0
	movl	%eax, -32(%ebp)
	.loc 1 826 0
	call	uECC_vli_sub
.LVL160:
	movl	-76(%ebp), %edx
	.loc 1 829 0
	movl	$0, -52(%ebp)
	.loc 1 833 0
	movl	$0, -36(%ebp)
	.loc 1 826 0
	subl	%eax, %edx
	.loc 1 827 0
	movl	56(%ebx), %eax
	.loc 1 826 0
	movl	%edx, -76(%ebp)
.LVL161:
	.loc 1 827 0
	movl	%eax, -60(%ebp)
	.loc 1 828 0
	movl	60(%ebx), %eax
	movl	%eax, -56(%ebp)
	.loc 1 830 0
	movl	36(%ebx), %eax
	movl	%eax, -48(%ebp)
	.loc 1 831 0
	movl	40(%ebx), %eax
	movl	%eax, -44(%ebp)
	.loc 1 832 0
	movl	44(%ebx), %eax
	movl	%eax, -40(%ebp)
	.loc 1 834 0
	movl	52(%ebx), %eax
	.loc 1 835 0
	pushl	$8
	pushl	%edi
	pushl	%esi
	pushl	%esi
	.loc 1 834 0
	movl	%eax, -32(%ebp)
	.loc 1 835 0
	call	uECC_vli_sub
.LVL162:
	.loc 1 836 0
	movl	-76(%ebp), %edi
	addl	$32, %esp
	subl	%eax, %edi
.LVL163:
	jns	.L101
.L102:
	.loc 1 838 0 discriminator 1
	pushl	$8
	movl	%esi, %edx
	movl	$curve_secp256r1+4, %ecx
	movl	%esi, %eax
	call	uECC_vli_add
.LVL164:
	.loc 1 840 0 discriminator 1
	addl	%eax, %edi
.LVL165:
	popl	%edx
	js	.L102
	jmp	.L99
.L108:
	.loc 1 843 0 discriminator 1
	pushl	$8
	pushl	%esi
	pushl	$curve_secp256r1+4
	call	uECC_vli_cmp_unsafe
.LVL166:
	addl	$12, %esp
	.loc 1 842 0 discriminator 1
	decb	%al
	je	.L99
.L103:
	.loc 1 844 0
	pushl	$8
	pushl	$curve_secp256r1+4
	pushl	%esi
	pushl	%esi
	call	uECC_vli_sub
.LVL167:
	addl	$16, %esp
	subl	%eax, %edi
.LVL168:
.L101:
	.loc 1 842 0
	testl	%edi, %edi
	je	.L108
	jmp	.L103
.L99:
	.loc 1 847 0
	movl	-28(%ebp), %eax
	xorl	%gs:20, %eax
	je	.L105
	call	__stack_chk_fail
.LVL169:
.L105:
	leal	-12(%ebp), %esp
	popl	%ebx
	.cfi_restore 3
	popl	%esi
	.cfi_restore 6
	popl	%edi
	.cfi_restore 7
.LVL170:
	popl	%ebp
	.cfi_restore 5
	.cfi_def_cfa 4, 4
	ret
	.cfi_endproc
.LFE30:
	.size	vli_mmod_fast_secp256r1, .-vli_mmod_fast_secp256r1
	.section	.text.unlikely.vli_mmod_fast_secp256r1
.LCOLDE17:
	.section	.text.vli_mmod_fast_secp256r1
.LHOTE17:
	.section	.text.unlikely.uECC_vli_cmp,"ax",@progbits
.LCOLDB18:
	.section	.text.uECC_vli_cmp,"ax",@progbits
.LHOTB18:
	.globl	uECC_vli_cmp
	.type	uECC_vli_cmp, @function
uECC_vli_cmp:
.LFB15:
	.loc 1 528 0
	.cfi_startproc
.LVL171:
	pushl	%ebp
	.cfi_def_cfa_offset 8
	.cfi_offset 5, -8
	movl	%esp, %ebp
	.cfi_def_cfa_register 5
	pushl	%edi
	pushl	%esi
	pushl	%ebx
	.cfi_offset 7, -12
	.cfi_offset 6, -16
	.cfi_offset 3, -20
	.loc 1 530 0
	leal	-60(%ebp), %ebx
	.loc 1 528 0
	subl	$60, %esp
	.loc 1 530 0
	movsbl	16(%ebp), %esi
	.loc 1 528 0
	movl	%gs:20, %eax
	movl	%eax, -28(%ebp)
	xorl	%eax, %eax
	.loc 1 530 0
	pushl	%esi
	pushl	12(%ebp)
	pushl	8(%ebp)
	pushl	%ebx
	call	uECC_vli_sub
.LVL172:
	.loc 1 531 0
	pushl	%esi
	pushl	%ebx
	.loc 1 530 0
	movl	%eax, %edi
.LVL173:
	.loc 1 531 0
	call	uECC_vli_isZero
.LVL174:
	.loc 1 532 0
	addl	$24, %esp
	testl	%eax, %eax
	sete	%al
.LVL175:
	testl	%edi, %edi
	setne	%dl
	addl	%edx, %edx
	subl	%edx, %eax
	.loc 1 533 0
	movl	-28(%ebp), %ecx
	xorl	%gs:20, %ecx
	je	.L110
	call	__stack_chk_fail
.LVL176:
.L110:
	leal	-12(%ebp), %esp
	popl	%ebx
	.cfi_restore 3
	popl	%esi
	.cfi_restore 6
	popl	%edi
	.cfi_restore 7
.LVL177:
	popl	%ebp
	.cfi_restore 5
	.cfi_def_cfa 4, 4
	ret
	.cfi_endproc
.LFE15:
	.size	uECC_vli_cmp, .-uECC_vli_cmp
	.section	.text.unlikely.uECC_vli_cmp
.LCOLDE18:
	.section	.text.uECC_vli_cmp
.LHOTE18:
	.section	.text.unlikely.uECC_vli_modAdd,"ax",@progbits
.LCOLDB19:
	.section	.text.uECC_vli_modAdd,"ax",@progbits
.LHOTB19:
	.globl	uECC_vli_modAdd
	.type	uECC_vli_modAdd, @function
uECC_vli_modAdd:
.LFB19:
	.loc 1 585 0
	.cfi_startproc
.LVL178:
	pushl	%ebp
	.cfi_def_cfa_offset 8
	.cfi_offset 5, -8
	movl	%esp, %ebp
	.cfi_def_cfa_register 5
	pushl	%edi
	pushl	%esi
	.cfi_offset 7, -12
	.cfi_offset 6, -16
	.loc 1 586 0
	movsbl	24(%ebp), %esi
	.loc 1 585 0
	pushl	%ebx
	.cfi_offset 3, -20
	.loc 1 585 0
	movl	8(%ebp), %ebx
	.loc 1 586 0
	movl	12(%ebp), %edx
	movl	16(%ebp), %ecx
	.loc 1 585 0
	movl	20(%ebp), %edi
	.loc 1 586 0
	pushl	%esi
	movl	%ebx, %eax
	call	uECC_vli_add
.LVL179:
	.loc 1 587 0
	testl	%eax, %eax
	popl	%edx
	jne	.L113
	.loc 1 587 0 is_stmt 0 discriminator 1
	pushl	%esi
	pushl	%ebx
	pushl	%edi
	call	uECC_vli_cmp_unsafe
.LVL180:
	addl	$12, %esp
	decb	%al
	je	.L112
.L113:
	.loc 1 588 0 is_stmt 1
	movl	%esi, 20(%ebp)
	movl	%edi, 16(%ebp)
	movl	%ebx, 12(%ebp)
	movl	%ebx, 8(%ebp)
	.loc 1 590 0
	leal	-12(%ebp), %esp
	popl	%ebx
	.cfi_remember_state
	.cfi_restore 3
	popl	%esi
	.cfi_restore 6
	popl	%edi
	.cfi_restore 7
	popl	%ebp
	.cfi_restore 5
	.cfi_def_cfa 4, 4
	.loc 1 588 0
	jmp	uECC_vli_sub
.LVL181:
.L112:
	.cfi_restore_state
	.loc 1 590 0
	leal	-12(%ebp), %esp
	popl	%ebx
	.cfi_restore 3
	popl	%esi
	.cfi_restore 6
	popl	%edi
	.cfi_restore 7
	popl	%ebp
	.cfi_restore 5
	.cfi_def_cfa 4, 4
	ret
	.cfi_endproc
.LFE19:
	.size	uECC_vli_modAdd, .-uECC_vli_modAdd
	.section	.text.unlikely.uECC_vli_modAdd
.LCOLDE19:
	.section	.text.uECC_vli_modAdd
.LHOTE19:
	.section	.text.unlikely.uECC_vli_modSub,"ax",@progbits
.LCOLDB20:
	.section	.text.uECC_vli_modSub,"ax",@progbits
.LHOTB20:
	.globl	uECC_vli_modSub
	.type	uECC_vli_modSub, @function
uECC_vli_modSub:
.LFB20:
	.loc 1 594 0
	.cfi_startproc
.LVL182:
	pushl	%ebp
	.cfi_def_cfa_offset 8
	.cfi_offset 5, -8
	movl	%esp, %ebp
	.cfi_def_cfa_register 5
	pushl	%edi
	pushl	%esi
	.cfi_offset 7, -12
	.cfi_offset 6, -16
	.loc 1 595 0
	movsbl	24(%ebp), %esi
	.loc 1 594 0
	pushl	%ebx
	.cfi_offset 3, -20
	.loc 1 594 0
	movl	8(%ebp), %ebx
	movl	20(%ebp), %edi
	.loc 1 595 0
	pushl	%esi
	pushl	16(%ebp)
	pushl	12(%ebp)
	pushl	%ebx
	call	uECC_vli_sub
.LVL183:
	.loc 1 596 0
	addl	$16, %esp
	testl	%eax, %eax
	je	.L116
	.loc 1 597 0
	movl	%esi, 8(%ebp)
	.loc 1 599 0
	leal	-12(%ebp), %esp
	.loc 1 597 0
	movl	%edi, %ecx
	movl	%ebx, %edx
	movl	%ebx, %eax
.LVL184:
	.loc 1 599 0
	popl	%ebx
	.cfi_remember_state
	.cfi_restore 3
	popl	%esi
	.cfi_restore 6
	popl	%edi
	.cfi_restore 7
	popl	%ebp
	.cfi_restore 5
	.cfi_def_cfa 4, 4
	.loc 1 597 0
	jmp	uECC_vli_add
.LVL185:
.L116:
	.cfi_restore_state
	.loc 1 599 0
	leal	-12(%ebp), %esp
	popl	%ebx
	.cfi_restore 3
	popl	%esi
	.cfi_restore 6
	popl	%edi
	.cfi_restore 7
	popl	%ebp
	.cfi_restore 5
	.cfi_def_cfa 4, 4
	ret
	.cfi_endproc
.LFE20:
	.size	uECC_vli_modSub, .-uECC_vli_modSub
	.section	.text.unlikely.uECC_vli_modSub
.LCOLDE20:
	.section	.text.uECC_vli_modSub
.LHOTE20:
	.section	.text.unlikely.uECC_vli_mmod,"ax",@progbits
.LCOLDB21:
	.section	.text.uECC_vli_mmod,"ax",@progbits
.LHOTB21:
	.globl	uECC_vli_mmod
	.type	uECC_vli_mmod, @function
uECC_vli_mmod:
.LFB21:
	.loc 1 602 0
	.cfi_startproc
.LVL186:
	pushl	%ebp
	.cfi_def_cfa_offset 8
	.cfi_offset 5, -8
	movl	%esp, %ebp
	.cfi_def_cfa_register 5
	pushl	%edi
	pushl	%esi
	pushl	%ebx
	subl	$188, %esp
	.cfi_offset 7, -12
	.cfi_offset 6, -16
	.cfi_offset 3, -20
	.loc 1 602 0
	movl	8(%ebp), %eax
	movl	20(%ebp), %edx
	movl	16(%ebp), %esi
	movl	%eax, -188(%ebp)
	.loc 1 608 0
	movsbl	%dl, %ebx
	.loc 1 602 0
	movb	%dl, -176(%ebp)
	movl	%gs:20, %eax
	movl	%eax, -28(%ebp)
	xorl	%eax, %eax
	.loc 1 605 0
	leal	-92(%ebp), %eax
	.loc 1 608 0
	pushl	%ebx
	pushl	%esi
	movl	%edx, -172(%ebp)
	.loc 1 605 0
	movl	%eax, -164(%ebp)
	movl	12(%ebp), %eax
	movl	%eax, -160(%ebp)
	.loc 1 608 0
	call	uECC_vli_numBits
.LVL187:
	popl	%edx
	.loc 1 607 0
	movl	-172(%ebp), %edx
	.loc 1 608 0
	popl	%ecx
	.loc 1 609 0
	movl	$32, %ecx
	.loc 1 607 0
	movsbw	%dl, %dx
	sall	$6, %edx
	subl	%eax, %edx
	movw	%dx, -172(%ebp)
.LVL188:
	.loc 1 609 0
	movl	%edx, %eax
	sarw	$15, %dx
.LVL189:
	idivw	%cx
.LVL190:
	.loc 1 612 0
	movsbl	%al, %edi
	leal	-156(%ebp), %eax
	.loc 1 609 0
	movl	%edx, -184(%ebp)
.LVL191:
	.loc 1 612 0
	pushl	%edi
	pushl	%eax
	movl	%eax, -180(%ebp)
	call	uECC_vli_clear
.LVL192:
	.loc 1 613 0
	popl	%eax
	popl	%edx
	movl	-184(%ebp), %edx
	movl	-180(%ebp), %eax
	testw	%dx, %dx
	jle	.L120
	.loc 1 614 0
	movsbl	-176(%ebp), %ecx
	leal	(%eax,%edi,4), %eax
	.loc 1 613 0
	xorl	%edi, %edi
	movl	%eax, -180(%ebp)
	xorl	%eax, %eax
	.loc 1 614 0
	movl	%ecx, -184(%ebp)
.LVL193:
	.loc 1 615 0
	movswl	%dx, %ecx
	movl	%ecx, -176(%ebp)
.LVL194:
.L121:
	.loc 1 614 0 discriminator 1
	cmpl	-184(%ebp), %eax
	jnb	.L123
	.loc 1 615 0 discriminator 3
	movl	(%esi,%eax,4), %edx
	movb	-176(%ebp), %cl
	sall	%cl, %edx
	movl	-180(%ebp), %ecx
	orl	%edx, %edi
.LVL195:
	movl	%edi, (%ecx,%eax,4)
	.loc 1 616 0 discriminator 3
	movl	$32, %ecx
	subl	-176(%ebp), %ecx
	movl	(%esi,%eax,4), %edi
	.loc 1 614 0 discriminator 3
	incl	%eax
.LVL196:
	.loc 1 616 0 discriminator 3
	shrl	%cl, %edi
.LVL197:
	jmp	.L121
.LVL198:
.L120:
	.loc 1 619 0
	leal	(%eax,%edi,4), %eax
	pushl	%ebx
	pushl	%esi
	pushl	%eax
	call	uECC_vli_set
.LVL199:
	addl	$12, %esp
.LVL200:
.L123:
	leal	(%ebx,%ebx), %eax
	movl	%eax, -192(%ebp)
.LBB54:
	.loc 1 635 0 discriminator 1
	leal	-156(%ebp), %eax
	leal	(%eax,%ebx,4), %esi
	.loc 1 632 0 discriminator 1
	movl	%eax, -200(%ebp)
	.loc 1 635 0 discriminator 1
	movl	%esi, -184(%ebp)
	movl	$1, %esi
.LVL201:
.L124:
.LBE54:
	.loc 1 621 0 discriminator 1
	cmpw	$0, -172(%ebp)
	js	.L127
.LBB58:
.LBB55:
	.loc 1 629 0 discriminator 1
	movl	$1, %eax
.LBE55:
.LBE58:
	movb	$0, -180(%ebp)
	xorl	%edi, %edi
.LBB59:
.LBB56:
	subl	%esi, %eax
	movl	%eax, -196(%ebp)
.L128:
.LVL202:
.LBE56:
	.loc 1 624 0 discriminator 1
	movsbl	-180(%ebp), %edx
	cmpl	-192(%ebp), %edx
	jge	.L131
.LBB57:
	.loc 1 625 0
	movl	-164(%ebp,%esi,4), %eax
	movl	(%eax,%edx,4), %ecx
	movl	%ecx, %eax
	subl	-156(%ebp,%edx,4), %eax
	subl	%edi, %eax
	.loc 1 626 0
	cmpl	%eax, %ecx
	.loc 1 625 0
	movl	%eax, -176(%ebp)
.LVL203:
	.loc 1 627 0
	setb	%al
.LVL204:
	cmpl	-176(%ebp), %ecx
	movzbl	%al, %eax
	cmovne	%eax, %edi
.LVL205:
	.loc 1 629 0
	movl	-196(%ebp), %eax
	incb	-180(%ebp)
.LVL206:
	movl	-164(%ebp,%eax,4), %ecx
	movl	-176(%ebp), %eax
	movl	%eax, (%ecx,%edx,4)
	jmp	.L128
.LVL207:
.L131:
.LBE57:
	.loc 1 631 0 discriminator 2
	xorl	%eax, %eax
	cmpl	%edi, %esi
	.loc 1 632 0 discriminator 2
	movl	%ebx, %edx
	.loc 1 631 0 discriminator 2
	sete	%al
	movl	%eax, %esi
.LVL208:
	.loc 1 632 0 discriminator 2
	movl	-200(%ebp), %eax
.LVL209:
	call	uECC_vli_rshift1
.LVL210:
	.loc 1 633 0 discriminator 2
	movl	-156(%ebp,%ebx,4), %eax
	.loc 1 635 0 discriminator 2
	movl	%ebx, %edx
	.loc 1 633 0 discriminator 2
	sall	$31, %eax
	orl	%eax, -160(%ebp,%ebx,4)
	.loc 1 635 0 discriminator 2
	movl	-184(%ebp), %eax
	call	uECC_vli_rshift1
.LVL211:
	decw	-172(%ebp)
.LVL212:
	jmp	.L124
.LVL213:
.L127:
.LBE59:
	.loc 1 637 0
	pushl	%ebx
	pushl	-164(%ebp,%esi,4)
	pushl	-188(%ebp)
	call	uECC_vli_set
.LVL214:
	.loc 1 638 0
	addl	$12, %esp
	movl	-28(%ebp), %eax
	xorl	%gs:20, %eax
	je	.L129
	call	__stack_chk_fail
.LVL215:
.L129:
	leal	-12(%ebp), %esp
	popl	%ebx
	.cfi_restore 3
	popl	%esi
	.cfi_restore 6
.LVL216:
	popl	%edi
	.cfi_restore 7
	popl	%ebp
	.cfi_restore 5
	.cfi_def_cfa 4, 4
	ret
	.cfi_endproc
.LFE21:
	.size	uECC_vli_mmod, .-uECC_vli_mmod
	.section	.text.unlikely.uECC_vli_mmod
.LCOLDE21:
	.section	.text.uECC_vli_mmod
.LHOTE21:
	.section	.text.unlikely.uECC_vli_modMult,"ax",@progbits
.LCOLDB22:
	.section	.text.uECC_vli_modMult,"ax",@progbits
.LHOTB22:
	.globl	uECC_vli_modMult
	.type	uECC_vli_modMult, @function
uECC_vli_modMult:
.LFB22:
	.loc 1 642 0
	.cfi_startproc
.LVL217:
	pushl	%ebp
	.cfi_def_cfa_offset 8
	.cfi_offset 5, -8
	movl	%esp, %ebp
	.cfi_def_cfa_register 5
	pushl	%edi
	pushl	%esi
	pushl	%ebx
	.cfi_offset 7, -12
	.cfi_offset 6, -16
	.cfi_offset 3, -20
	.loc 1 644 0
	leal	-92(%ebp), %ebx
	.loc 1 642 0
	subl	$112, %esp
	.loc 1 644 0
	movsbl	24(%ebp), %esi
	.loc 1 642 0
	movl	8(%ebp), %eax
	.loc 1 644 0
	movl	16(%ebp), %ecx
	movl	12(%ebp), %edx
	.loc 1 642 0
	movl	20(%ebp), %edi
	movl	%eax, -108(%ebp)
	.loc 1 644 0
	pushl	%esi
	.loc 1 642 0
	movl	%gs:20, %eax
	movl	%eax, -28(%ebp)
	xorl	%eax, %eax
	.loc 1 644 0
	movl	%ebx, %eax
	call	uECC_vli_mult
.LVL218:
	.loc 1 645 0
	popl	%eax
	popl	%edx
	pushl	%esi
	pushl	%edi
	pushl	%ebx
	pushl	-108(%ebp)
	call	uECC_vli_mmod
.LVL219:
	.loc 1 646 0
	addl	$16, %esp
	movl	-28(%ebp), %eax
	xorl	%gs:20, %eax
	je	.L133
	call	__stack_chk_fail
.LVL220:
.L133:
	leal	-12(%ebp), %esp
	popl	%ebx
	.cfi_restore 3
	popl	%esi
	.cfi_restore 6
	popl	%edi
	.cfi_restore 7
	popl	%ebp
	.cfi_restore 5
	.cfi_def_cfa 4, 4
	ret
	.cfi_endproc
.LFE22:
	.size	uECC_vli_modMult, .-uECC_vli_modMult
	.section	.text.unlikely.uECC_vli_modMult
.LCOLDE22:
	.section	.text.uECC_vli_modMult
.LHOTE22:
	.section	.text.unlikely.uECC_vli_modMult_fast,"ax",@progbits
.LCOLDB23:
	.section	.text.uECC_vli_modMult_fast,"ax",@progbits
.LHOTB23:
	.globl	uECC_vli_modMult_fast
	.type	uECC_vli_modMult_fast, @function
uECC_vli_modMult_fast:
.LFB23:
	.loc 1 649 0
	.cfi_startproc
.LVL221:
	pushl	%ebp
	.cfi_def_cfa_offset 8
	.cfi_offset 5, -8
	movl	%esp, %ebp
	.cfi_def_cfa_register 5
	pushl	%edi
	pushl	%esi
	pushl	%ebx
	.cfi_offset 7, -12
	.cfi_offset 6, -16
	.cfi_offset 3, -20
	.loc 1 651 0
	leal	-92(%ebp), %esi
	.loc 1 649 0
	subl	$96, %esp
	.loc 1 649 0
	movl	20(%ebp), %ebx
	movl	8(%ebp), %edi
	movl	%gs:20, %eax
	movl	%eax, -28(%ebp)
	xorl	%eax, %eax
	.loc 1 651 0
	movl	16(%ebp), %ecx
	movl	12(%ebp), %edx
	movsbl	(%ebx), %eax
	pushl	%eax
	movl	%esi, %eax
	call	uECC_vli_mult
.LVL222:
	.loc 1 652 0
	pushl	%esi
	pushl	%edi
	call	*172(%ebx)
.LVL223:
	.loc 1 653 0
	addl	$16, %esp
	movl	-28(%ebp), %eax
	xorl	%gs:20, %eax
	je	.L136
	call	__stack_chk_fail
.LVL224:
.L136:
	leal	-12(%ebp), %esp
	popl	%ebx
	.cfi_restore 3
	popl	%esi
	.cfi_restore 6
	popl	%edi
	.cfi_restore 7
	popl	%ebp
	.cfi_restore 5
	.cfi_def_cfa 4, 4
	ret
	.cfi_endproc
.LFE23:
	.size	uECC_vli_modMult_fast, .-uECC_vli_modMult_fast
	.section	.text.unlikely.uECC_vli_modMult_fast
.LCOLDE23:
	.section	.text.uECC_vli_modMult_fast
.LHOTE23:
	.section	.text.unlikely.uECC_vli_modSquare_fast,"ax",@progbits
.LCOLDB24:
	.section	.text.uECC_vli_modSquare_fast,"ax",@progbits
.LHOTB24:
	.type	uECC_vli_modSquare_fast, @function
uECC_vli_modSquare_fast:
.LFB24:
	.loc 1 657 0
	.cfi_startproc
.LVL225:
	pushl	%ebp
	.cfi_def_cfa_offset 8
	.cfi_offset 5, -8
	movl	%esp, %ebp
	.cfi_def_cfa_register 5
	subl	$8, %esp
	.loc 1 658 0
	pushl	%ecx
	pushl	%edx
	pushl	%edx
	pushl	%eax
	call	uECC_vli_modMult_fast
.LVL226:
	.loc 1 659 0
	addl	$16, %esp
	leave
	.cfi_restore 5
	.cfi_def_cfa 4, 4
	ret
	.cfi_endproc
.LFE24:
	.size	uECC_vli_modSquare_fast, .-uECC_vli_modSquare_fast
	.section	.text.unlikely.uECC_vli_modSquare_fast
.LCOLDE24:
	.section	.text.uECC_vli_modSquare_fast
.LHOTE24:
	.section	.text.unlikely.double_jacobian_default,"ax",@progbits
.LCOLDB25:
	.section	.text.double_jacobian_default,"ax",@progbits
.LHOTB25:
	.globl	double_jacobian_default
	.type	double_jacobian_default, @function
double_jacobian_default:
.LFB27:
	.loc 1 717 0
	.cfi_startproc
.LVL227:
	pushl	%ebp
	.cfi_def_cfa_offset 8
	.cfi_offset 5, -8
	movl	%esp, %ebp
	.cfi_def_cfa_register 5
.LVL228:
	pushl	%edi
.LVL229:
	pushl	%esi
	pushl	%ebx
	subl	$108, %esp
	.cfi_offset 7, -12
	.cfi_offset 6, -16
	.cfi_offset 3, -20
	.loc 1 717 0
	movl	12(%ebp), %eax
	movl	16(%ebp), %esi
	movl	8(%ebp), %ebx
	movl	%eax, -116(%ebp)
	movl	20(%ebp), %eax
	movl	%eax, -112(%ebp)
	movl	%gs:20, %eax
	movl	%eax, -28(%ebp)
	xorl	%eax, %eax
	.loc 1 721 0
	movl	-112(%ebp), %eax
	movsbl	(%eax), %edi
	pushl	%edi
	pushl	%esi
	call	uECC_vli_isZero
.LVL230:
	testl	%eax, %eax
	popl	%edx
	popl	%ecx
	jne	.L140
	.loc 1 724 0
	movl	-112(%ebp), %ecx
	movl	-116(%ebp), %edx
	leal	-92(%ebp), %eax
	call	uECC_vli_modSquare_fast
.LVL231:
	.loc 1 725 0
	leal	-92(%ebp), %eax
	pushl	-112(%ebp)
	pushl	%eax
	leal	-60(%ebp), %eax
	pushl	%ebx
	pushl	%eax
	call	uECC_vli_modMult_fast
.LVL232:
	.loc 1 726 0
	leal	-92(%ebp), %edx
	movl	-112(%ebp), %ecx
	movl	%edx, %eax
	call	uECC_vli_modSquare_fast
.LVL233:
	.loc 1 727 0
	pushl	-112(%ebp)
	pushl	%esi
	pushl	-116(%ebp)
	pushl	-116(%ebp)
	call	uECC_vli_modMult_fast
.LVL234:
	.loc 1 728 0
	movl	-112(%ebp), %ecx
	movl	%esi, %edx
	addl	$32, %esp
	movl	%esi, %eax
	call	uECC_vli_modSquare_fast
.LVL235:
	.loc 1 729 0
	movl	-112(%ebp), %eax
	subl	$12, %esp
	pushl	%edi
	addl	$4, %eax
	pushl	%eax
	pushl	%esi
	pushl	%ebx
	pushl	%ebx
	movl	%eax, -108(%ebp)
	call	uECC_vli_modAdd
.LVL236:
	.loc 1 730 0
	addl	$20, %esp
	pushl	%edi
	pushl	-108(%ebp)
	pushl	%esi
	pushl	%esi
	pushl	%esi
	call	uECC_vli_modAdd
.LVL237:
	.loc 1 731 0
	addl	$20, %esp
	pushl	%edi
	pushl	-108(%ebp)
	pushl	%esi
	pushl	%ebx
	pushl	%esi
	call	uECC_vli_modSub
.LVL238:
	.loc 1 732 0
	addl	$32, %esp
	pushl	-112(%ebp)
	pushl	%esi
	pushl	%ebx
	pushl	%ebx
	call	uECC_vli_modMult_fast
.LVL239:
	.loc 1 733 0
	movl	%edi, (%esp)
	pushl	-108(%ebp)
	pushl	%ebx
	pushl	%ebx
	pushl	%esi
	call	uECC_vli_modAdd
.LVL240:
	.loc 1 734 0
	addl	$20, %esp
	pushl	%edi
	pushl	-108(%ebp)
	pushl	%esi
	pushl	%ebx
	pushl	%ebx
	call	uECC_vli_modAdd
.LVL241:
	.loc 1 735 0
	addl	$32, %esp
	testb	$1, (%ebx)
	je	.L142
.LBB60:
	.loc 1 736 0
	subl	$12, %esp
	movl	-108(%ebp), %ecx
	movl	%ebx, %edx
	pushl	%edi
	movl	%ebx, %eax
	call	uECC_vli_add
.LVL242:
	.loc 1 737 0
	movl	%edi, %edx
	.loc 1 736 0
	movl	%eax, -120(%ebp)
.LVL243:
	.loc 1 737 0
	movl	%ebx, %eax
.LVL244:
	call	uECC_vli_rshift1
.LVL245:
	.loc 1 738 0
	movl	-120(%ebp), %eax
.LBE60:
	addl	$16, %esp
.LBB61:
	sall	$31, %eax
	orl	%eax, -4(%ebx,%edi,4)
.LBE61:
	jmp	.L143
.LVL246:
.L142:
	.loc 1 740 0
	movl	%edi, %edx
	movl	%ebx, %eax
	call	uECC_vli_rshift1
.LVL247:
.L143:
	.loc 1 742 0
	movl	-112(%ebp), %ecx
	movl	%ebx, %edx
	movl	%esi, %eax
	call	uECC_vli_modSquare_fast
.LVL248:
	.loc 1 743 0
	leal	-60(%ebp), %eax
	subl	$12, %esp
	pushl	%edi
	pushl	-108(%ebp)
	pushl	%eax
	pushl	%esi
	pushl	%esi
	movl	%eax, -120(%ebp)
	call	uECC_vli_modSub
.LVL249:
	.loc 1 744 0
	movl	-120(%ebp), %eax
	addl	$20, %esp
	pushl	%edi
	pushl	-108(%ebp)
	pushl	%eax
	pushl	%esi
	pushl	%esi
	call	uECC_vli_modSub
.LVL250:
	.loc 1 745 0
	movl	-120(%ebp), %eax
	addl	$20, %esp
	pushl	%edi
	pushl	-108(%ebp)
	pushl	%esi
	pushl	%eax
	pushl	%eax
	call	uECC_vli_modSub
.LVL251:
	.loc 1 746 0
	movl	-120(%ebp), %eax
	addl	$32, %esp
	pushl	-112(%ebp)
	pushl	%eax
	pushl	%ebx
	pushl	%ebx
	call	uECC_vli_modMult_fast
.LVL252:
	.loc 1 747 0
	leal	-92(%ebp), %eax
	movl	%edi, (%esp)
	pushl	-108(%ebp)
	pushl	%eax
	pushl	%ebx
	pushl	%eax
	movl	%eax, -108(%ebp)
	call	uECC_vli_modSub
.LVL253:
	.loc 1 748 0
	addl	$28, %esp
	pushl	%edi
	pushl	%esi
	pushl	%ebx
	call	uECC_vli_set
.LVL254:
	.loc 1 749 0
	addl	$12, %esp
	pushl	%edi
	pushl	-116(%ebp)
	pushl	%esi
	call	uECC_vli_set
.LVL255:
	.loc 1 750 0
	movl	-108(%ebp), %eax
	addl	$12, %esp
	pushl	%edi
	pushl	%eax
	pushl	-116(%ebp)
	call	uECC_vli_set
.LVL256:
	addl	$16, %esp
.L140:
	.loc 1 751 0
	movl	-28(%ebp), %eax
	xorl	%gs:20, %eax
	je	.L145
	call	__stack_chk_fail
.LVL257:
.L145:
	leal	-12(%ebp), %esp
	popl	%ebx
	.cfi_restore 3
	popl	%esi
	.cfi_restore 6
	popl	%edi
	.cfi_restore 7
	popl	%ebp
	.cfi_restore 5
	.cfi_def_cfa 4, 4
	ret
	.cfi_endproc
.LFE27:
	.size	double_jacobian_default, .-double_jacobian_default
	.section	.text.unlikely.double_jacobian_default
.LCOLDE25:
	.section	.text.double_jacobian_default
.LHOTE25:
	.section	.text.unlikely.x_side_default,"ax",@progbits
.LCOLDB26:
	.section	.text.x_side_default,"ax",@progbits
.LHOTB26:
	.globl	x_side_default
	.type	x_side_default, @function
x_side_default:
.LFB28:
	.loc 1 755 0
	.cfi_startproc
.LVL258:
	pushl	%ebp
	.cfi_def_cfa_offset 8
	.cfi_offset 5, -8
	.loc 1 756 0
	movl	$8, %ecx
	.loc 1 755 0
	movl	%esp, %ebp
	.cfi_def_cfa_register 5
	pushl	%edi
	pushl	%esi
	pushl	%ebx
	.cfi_offset 7, -12
	.cfi_offset 6, -16
	.cfi_offset 3, -20
	.loc 1 756 0
	leal	-60(%ebp), %edi
	.loc 1 755 0
	subl	$76, %esp
	.loc 1 755 0
	movl	12(%ebp), %eax
	movl	16(%ebp), %esi
	movl	8(%ebp), %ebx
	movl	%eax, -76(%ebp)
	.loc 1 758 0
	movl	-76(%ebp), %edx
	.loc 1 755 0
	movl	%gs:20, %eax
	movl	%eax, -28(%ebp)
	xorl	%eax, %eax
	.loc 1 756 0
	rep stosl
	.loc 1 757 0
	movb	(%esi), %al
	.loc 1 758 0
	movl	%esi, %ecx
	.loc 1 756 0
	movl	$3, -60(%ebp)
	.loc 1 757 0
	movb	%al, -80(%ebp)
.LVL259:
	.loc 1 758 0
	movl	%ebx, %eax
.LVL260:
	call	uECC_vli_modSquare_fast
.LVL261:
	.loc 1 759 0
	movsbl	-80(%ebp), %edi
	leal	4(%esi), %eax
	leal	-60(%ebp), %edx
	subl	$12, %esp
	movl	%eax, -80(%ebp)
.LVL262:
	pushl	%edi
	pushl	%eax
	pushl	%edx
	pushl	%ebx
	pushl	%ebx
	call	uECC_vli_modSub
.LVL263:
	.loc 1 760 0
	addl	$32, %esp
	pushl	%esi
	pushl	-76(%ebp)
	.loc 1 761 0
	addl	$132, %esi
	.loc 1 760 0
	pushl	%ebx
	pushl	%ebx
	call	uECC_vli_modMult_fast
.LVL264:
	.loc 1 761 0
	movl	-80(%ebp), %eax
	movl	%edi, (%esp)
	pushl	%eax
	pushl	%esi
	pushl	%ebx
	pushl	%ebx
	call	uECC_vli_modAdd
.LVL265:
	.loc 1 762 0
	addl	$32, %esp
	movl	-28(%ebp), %eax
	xorl	%gs:20, %eax
	je	.L148
	call	__stack_chk_fail
.LVL266:
.L148:
	leal	-12(%ebp), %esp
	popl	%ebx
	.cfi_restore 3
	popl	%esi
	.cfi_restore 6
	popl	%edi
	.cfi_restore 7
	popl	%ebp
	.cfi_restore 5
	.cfi_def_cfa 4, 4
	ret
	.cfi_endproc
.LFE28:
	.size	x_side_default, .-x_side_default
	.section	.text.unlikely.x_side_default
.LCOLDE26:
	.section	.text.x_side_default
.LHOTE26:
	.section	.text.unlikely.XYcZ_addC,"ax",@progbits
.LCOLDB27:
	.section	.text.XYcZ_addC,"ax",@progbits
.LHOTB27:
	.type	XYcZ_addC, @function
XYcZ_addC:
.LFB35:
	.loc 1 904 0
	.cfi_startproc
.LVL267:
	pushl	%ebp
	.cfi_def_cfa_offset 8
	.cfi_offset 5, -8
	movl	%esp, %ebp
	.cfi_def_cfa_register 5
	pushl	%edi
	pushl	%esi
	pushl	%ebx
	.cfi_offset 7, -12
	.cfi_offset 6, -16
	.cfi_offset 3, -20
	movl	%ecx, %edi
	subl	$140, %esp
	.loc 1 904 0
	movl	%eax, -144(%ebp)
	movl	8(%ebp), %eax
.LVL268:
	movl	%edx, -152(%ebp)
	movl	%eax, -148(%ebp)
	movl	12(%ebp), %eax
	movl	%eax, -140(%ebp)
	movl	%gs:20, %eax
	movl	%eax, -28(%ebp)
	xorl	%eax, %eax
.LVL269:
	.loc 1 909 0
	movl	-140(%ebp), %eax
	movsbl	(%eax), %ebx
	leal	4(%eax), %esi
	leal	-124(%ebp), %eax
	pushl	%ebx
.LVL270:
	pushl	%esi
	pushl	-144(%ebp)
	pushl	%ecx
	pushl	%eax
	call	uECC_vli_modSub
.LVL271:
	.loc 1 910 0
	leal	-124(%ebp), %edx
	movl	-140(%ebp), %ecx
	addl	$20, %esp
	movl	%edx, %eax
	call	uECC_vli_modSquare_fast
.LVL272:
	.loc 1 911 0
	leal	-124(%ebp), %eax
	pushl	-140(%ebp)
	pushl	%eax
	pushl	-144(%ebp)
	pushl	-144(%ebp)
	call	uECC_vli_modMult_fast
.LVL273:
	.loc 1 912 0
	leal	-124(%ebp), %eax
	pushl	-140(%ebp)
	pushl	%eax
	pushl	%edi
	pushl	%edi
	call	uECC_vli_modMult_fast
.LVL274:
	.loc 1 913 0
	leal	-124(%ebp), %eax
	addl	$20, %esp
	pushl	%ebx
	pushl	%esi
	pushl	-152(%ebp)
	pushl	-148(%ebp)
	pushl	%eax
	call	uECC_vli_modAdd
.LVL275:
	.loc 1 914 0
	addl	$20, %esp
	pushl	%ebx
	pushl	%esi
	pushl	-152(%ebp)
	pushl	-148(%ebp)
	pushl	-148(%ebp)
	call	uECC_vli_modSub
.LVL276:
	.loc 1 915 0
	leal	-92(%ebp), %eax
	addl	$20, %esp
	pushl	%ebx
	pushl	%esi
	pushl	-144(%ebp)
	pushl	%edi
	pushl	%eax
	call	uECC_vli_modSub
.LVL277:
	.loc 1 916 0
	leal	-92(%ebp), %eax
	addl	$32, %esp
	pushl	-140(%ebp)
	pushl	%eax
	pushl	-152(%ebp)
	pushl	-152(%ebp)
	call	uECC_vli_modMult_fast
.LVL278:
	.loc 1 917 0
	leal	-92(%ebp), %eax
	movl	%ebx, (%esp)
	pushl	%esi
	pushl	%edi
	pushl	-144(%ebp)
	pushl	%eax
	call	uECC_vli_modAdd
.LVL279:
	.loc 1 918 0
	movl	-140(%ebp), %ecx
	movl	-148(%ebp), %edx
	addl	$32, %esp
	movl	%edi, %eax
	call	uECC_vli_modSquare_fast
.LVL280:
	.loc 1 919 0
	leal	-92(%ebp), %eax
	subl	$12, %esp
	pushl	%ebx
	pushl	%esi
	pushl	%eax
	pushl	%edi
	pushl	%edi
	call	uECC_vli_modSub
.LVL281:
	.loc 1 920 0
	addl	$20, %esp
	pushl	%ebx
	pushl	%esi
	pushl	%edi
	leal	-60(%ebp), %edi
.LVL282:
	pushl	-144(%ebp)
.LVL283:
	pushl	%edi
.LVL284:
	call	uECC_vli_modSub
.LVL285:
	.loc 1 921 0
	addl	$32, %esp
	pushl	-140(%ebp)
	pushl	%edi
	pushl	-148(%ebp)
	pushl	-148(%ebp)
	call	uECC_vli_modMult_fast
.LVL286:
	.loc 1 922 0
	movl	%ebx, (%esp)
	pushl	%esi
	pushl	-152(%ebp)
	pushl	-148(%ebp)
	pushl	-148(%ebp)
	call	uECC_vli_modSub
.LVL287:
	.loc 1 923 0
	movl	-140(%ebp), %ecx
	leal	-124(%ebp), %edx
	addl	$32, %esp
	movl	%edi, %eax
	call	uECC_vli_modSquare_fast
.LVL288:
	.loc 1 924 0
	leal	-92(%ebp), %eax
	subl	$12, %esp
	pushl	%ebx
	pushl	%esi
	pushl	%eax
	pushl	%edi
	pushl	%edi
	call	uECC_vli_modSub
.LVL289:
	.loc 1 925 0
	leal	-92(%ebp), %eax
	addl	$20, %esp
	pushl	%ebx
	pushl	%esi
	pushl	-144(%ebp)
	pushl	%edi
	pushl	%eax
	call	uECC_vli_modSub
.LVL290:
	.loc 1 926 0
	leal	-124(%ebp), %eax
	addl	$32, %esp
	pushl	-140(%ebp)
	pushl	%eax
	leal	-92(%ebp), %eax
	pushl	%eax
	pushl	%eax
	call	uECC_vli_modMult_fast
.LVL291:
	.loc 1 927 0
	leal	-92(%ebp), %eax
	movl	%ebx, (%esp)
	pushl	%esi
	pushl	-152(%ebp)
	pushl	%eax
	pushl	-152(%ebp)
	call	uECC_vli_modSub
.LVL292:
	.loc 1 928 0
	addl	$28, %esp
	pushl	%ebx
	pushl	%edi
	pushl	-144(%ebp)
	call	uECC_vli_set
.LVL293:
	.loc 1 929 0
	addl	$16, %esp
	movl	-28(%ebp), %eax
	xorl	%gs:20, %eax
	je	.L151
	call	__stack_chk_fail
.LVL294:
.L151:
	leal	-12(%ebp), %esp
	popl	%ebx
	.cfi_restore 3
.LVL295:
	popl	%esi
	.cfi_restore 6
	popl	%edi
	.cfi_restore 7
	popl	%ebp
	.cfi_restore 5
	.cfi_def_cfa 4, 4
	ret
	.cfi_endproc
.LFE35:
	.size	XYcZ_addC, .-XYcZ_addC
	.section	.text.unlikely.XYcZ_addC
.LCOLDE27:
	.section	.text.XYcZ_addC
.LHOTE27:
	.section	.text.unlikely.uECC_vli_modInv,"ax",@progbits
.LCOLDB28:
	.section	.text.uECC_vli_modInv,"ax",@progbits
.LHOTB28:
	.globl	uECC_vli_modInv
	.type	uECC_vli_modInv, @function
uECC_vli_modInv:
.LFB26:
	.loc 1 675 0
	.cfi_startproc
.LVL296:
	pushl	%ebp
	.cfi_def_cfa_offset 8
	.cfi_offset 5, -8
	movl	%esp, %ebp
	.cfi_def_cfa_register 5
	pushl	%edi
	pushl	%esi
	pushl	%ebx
	subl	$172, %esp
	.cfi_offset 7, -12
	.cfi_offset 6, -16
	.cfi_offset 3, -20
	.loc 1 675 0
	movl	8(%ebp), %eax
	.loc 1 679 0
	movsbl	20(%ebp), %ebx
	.loc 1 675 0
	movl	12(%ebp), %esi
	movl	%eax, -180(%ebp)
	movl	16(%ebp), %eax
	.loc 1 679 0
	pushl	%ebx
	pushl	%esi
	.loc 1 675 0
	movl	%eax, -172(%ebp)
	movl	%gs:20, %eax
	movl	%eax, -28(%ebp)
	xorl	%eax, %eax
	.loc 1 679 0
	call	uECC_vli_isZero
.LVL297:
	testl	%eax, %eax
	popl	%ecx
	popl	%edi
	je	.L154
	.loc 1 680 0
	pushl	%ebx
	pushl	-180(%ebp)
	call	uECC_vli_clear
.LVL298:
	.loc 1 681 0
	popl	%eax
	popl	%edx
	jmp	.L153
.L154:
	.loc 1 683 0
	leal	-156(%ebp), %edi
	pushl	%ebx
	pushl	%esi
	.loc 1 684 0
	leal	-124(%ebp), %esi
	.loc 1 683 0
	pushl	%edi
	call	uECC_vli_set
.LVL299:
	.loc 1 684 0
	pushl	%ebx
	pushl	-172(%ebp)
	pushl	%esi
	call	uECC_vli_set
.LVL300:
	.loc 1 685 0
	leal	-92(%ebp), %eax
	pushl	%ebx
	pushl	%eax
	call	uECC_vli_clear
.LVL301:
	.loc 1 687 0
	leal	-60(%ebp), %eax
	addl	$32, %esp
	.loc 1 686 0
	movl	$1, -92(%ebp)
	.loc 1 687 0
	pushl	%ebx
	pushl	%eax
	call	uECC_vli_clear
.LVL302:
	.loc 1 688 0
	popl	%ecx
	popl	%eax
	movl	%edi, -176(%ebp)
.L156:
	pushl	%ebx
	pushl	%esi
	pushl	-176(%ebp)
	call	uECC_vli_cmp_unsafe
.LVL303:
	addl	$12, %esp
.LVL304:
	testb	%al, %al
	je	.L168
	.loc 1 689 0
	testb	$1, -156(%ebp)
	jne	.L157
	.loc 1 690 0
	movl	-176(%ebp), %eax
.LVL305:
	movl	%ebx, %edx
	call	uECC_vli_rshift1
.LVL306:
	.loc 1 691 0
	movl	%ebx, %ecx
	movl	-172(%ebp), %edx
	leal	-92(%ebp), %eax
	jmp	.L166
.LVL307:
.L157:
	.loc 1 692 0
	testb	$1, -124(%ebp)
	leal	-60(%ebp), %edi
	jne	.L159
	.loc 1 693 0
	movl	%ebx, %edx
	movl	%esi, %eax
.LVL308:
	call	uECC_vli_rshift1
.LVL309:
	.loc 1 694 0
	movl	-172(%ebp), %edx
	movl	%ebx, %ecx
	movl	%edi, %eax
.L166:
	call	vli_modInv_update
.LVL310:
	jmp	.L156
.LVL311:
.L159:
	.loc 1 695 0
	testb	%al, %al
	jle	.L160
	.loc 1 696 0
	pushl	%ebx
	pushl	%esi
	pushl	-176(%ebp)
	pushl	-176(%ebp)
	call	uECC_vli_sub
.LVL312:
	.loc 1 697 0
	movl	-176(%ebp), %eax
	movl	%ebx, %edx
	call	uECC_vli_rshift1
.LVL313:
	.loc 1 698 0
	pushl	%ebx
	pushl	%edi
	leal	-92(%ebp), %edi
	pushl	%edi
	call	uECC_vli_cmp_unsafe
.LVL314:
	addl	$28, %esp
	testb	%al, %al
	jns	.L161
	.loc 1 699 0
	movl	-172(%ebp), %ecx
	pushl	%ebx
	movl	%edi, %edx
	movl	%edi, %eax
	call	uECC_vli_add
.LVL315:
	popl	%edx
.L161:
	.loc 1 701 0
	leal	-60(%ebp), %eax
	pushl	%ebx
	leal	-92(%ebp), %edi
	pushl	%eax
	jmp	.L167
.LVL316:
.L160:
	.loc 1 704 0
	pushl	%ebx
	pushl	-176(%ebp)
	pushl	%esi
	pushl	%esi
	call	uECC_vli_sub
.LVL317:
	.loc 1 705 0
	movl	%ebx, %edx
	movl	%esi, %eax
	call	uECC_vli_rshift1
.LVL318:
	.loc 1 706 0
	leal	-92(%ebp), %eax
	pushl	%ebx
	pushl	%eax
	pushl	%edi
	call	uECC_vli_cmp_unsafe
.LVL319:
	addl	$28, %esp
	testb	%al, %al
	jns	.L162
	.loc 1 707 0
	movl	-172(%ebp), %ecx
	pushl	%ebx
	movl	%edi, %edx
	movl	%edi, %eax
	call	uECC_vli_add
.LVL320:
	popl	%eax
.L162:
	.loc 1 709 0
	leal	-92(%ebp), %eax
	pushl	%ebx
	leal	-60(%ebp), %edi
	pushl	%eax
.L167:
	pushl	%edi
	pushl	%edi
	call	uECC_vli_sub
.LVL321:
	.loc 1 710 0
	movl	-172(%ebp), %edx
	movl	%ebx, %ecx
	movl	%edi, %eax
	call	vli_modInv_update
.LVL322:
	addl	$16, %esp
	jmp	.L156
.LVL323:
.L168:
	.loc 1 713 0
	leal	-92(%ebp), %eax
.LVL324:
	pushl	%ebx
	pushl	%eax
	pushl	-180(%ebp)
	call	uECC_vli_set
.LVL325:
	addl	$12, %esp
.L153:
	.loc 1 714 0
	movl	-28(%ebp), %eax
	xorl	%gs:20, %eax
	je	.L164
	call	__stack_chk_fail
.LVL326:
.L164:
	leal	-12(%ebp), %esp
	popl	%ebx
	.cfi_restore 3
	popl	%esi
	.cfi_restore 6
	popl	%edi
	.cfi_restore 7
	popl	%ebp
	.cfi_restore 5
	.cfi_def_cfa 4, 4
	ret
	.cfi_endproc
.LFE26:
	.size	uECC_vli_modInv, .-uECC_vli_modInv
	.section	.text.unlikely.uECC_vli_modInv
.LCOLDE28:
	.section	.text.uECC_vli_modInv
.LHOTE28:
	.section	.text.unlikely.uECC_secp256r1,"ax",@progbits
.LCOLDB29:
	.section	.text.uECC_secp256r1,"ax",@progbits
.LHOTB29:
	.globl	uECC_secp256r1
	.type	uECC_secp256r1, @function
uECC_secp256r1:
.LFB29:
	.loc 1 764 0
	.cfi_startproc
	pushl	%ebp
	.cfi_def_cfa_offset 8
	.cfi_offset 5, -8
	.loc 1 766 0
	movl	$curve_secp256r1, %eax
	.loc 1 764 0
	movl	%esp, %ebp
	.cfi_def_cfa_register 5
	.loc 1 766 0
	popl	%ebp
	.cfi_restore 5
	.cfi_def_cfa 4, 4
	ret
	.cfi_endproc
.LFE29:
	.size	uECC_secp256r1, .-uECC_secp256r1
	.section	.text.unlikely.uECC_secp256r1
.LCOLDE29:
	.section	.text.uECC_secp256r1
.LHOTE29:
	.section	.text.unlikely.EccPoint_isZero,"ax",@progbits
.LCOLDB30:
	.section	.text.EccPoint_isZero,"ax",@progbits
.LHOTB30:
	.globl	EccPoint_isZero
	.type	EccPoint_isZero, @function
EccPoint_isZero:
.LFB31:
	.loc 1 849 0
	.cfi_startproc
.LVL327:
	pushl	%ebp
	.cfi_def_cfa_offset 8
	.cfi_offset 5, -8
	movl	%esp, %ebp
	.cfi_def_cfa_register 5
	.loc 1 850 0
	movl	12(%ebp), %eax
	movb	(%eax), %al
	addl	%eax, %eax
	movsbl	%al, %eax
	movl	%eax, 12(%ebp)
.LVL328:
	.loc 1 851 0
	popl	%ebp
	.cfi_restore 5
	.cfi_def_cfa 4, 4
	.loc 1 850 0
	jmp	uECC_vli_isZero
.LVL329:
	.cfi_endproc
.LFE31:
	.size	EccPoint_isZero, .-EccPoint_isZero
	.section	.text.unlikely.EccPoint_isZero
.LCOLDE30:
	.section	.text.EccPoint_isZero
.LHOTE30:
	.section	.text.unlikely.apply_z,"ax",@progbits
.LCOLDB31:
	.section	.text.apply_z,"ax",@progbits
.LHOTB31:
	.globl	apply_z
	.type	apply_z, @function
apply_z:
.LFB32:
	.loc 1 854 0
	.cfi_startproc
.LVL330:
	pushl	%ebp
	.cfi_def_cfa_offset 8
	.cfi_offset 5, -8
	movl	%esp, %ebp
	.cfi_def_cfa_register 5
	pushl	%edi
	pushl	%esi
	pushl	%ebx
	.cfi_offset 7, -12
	.cfi_offset 6, -16
	.cfi_offset 3, -20
	.loc 1 856 0
	leal	-60(%ebp), %ebx
	.loc 1 854 0
	subl	$76, %esp
	.loc 1 854 0
	movl	12(%ebp), %eax
	movl	20(%ebp), %esi
	movl	8(%ebp), %edi
	movl	%eax, -76(%ebp)
	movl	16(%ebp), %eax
	.loc 1 856 0
	movl	%esi, %ecx
	.loc 1 854 0
	movl	%eax, -80(%ebp)
	.loc 1 856 0
	movl	-80(%ebp), %edx
	.loc 1 854 0
	movl	%gs:20, %eax
	movl	%eax, -28(%ebp)
	xorl	%eax, %eax
	.loc 1 856 0
	movl	%ebx, %eax
	call	uECC_vli_modSquare_fast
.LVL331:
	.loc 1 857 0
	pushl	%esi
	pushl	%ebx
	pushl	%edi
	pushl	%edi
	call	uECC_vli_modMult_fast
.LVL332:
	.loc 1 858 0
	pushl	%esi
	pushl	-80(%ebp)
	pushl	%ebx
	pushl	%ebx
	call	uECC_vli_modMult_fast
.LVL333:
	.loc 1 859 0
	addl	$32, %esp
	pushl	%esi
	pushl	%ebx
	pushl	-76(%ebp)
	pushl	-76(%ebp)
	call	uECC_vli_modMult_fast
.LVL334:
	.loc 1 860 0
	addl	$16, %esp
	movl	-28(%ebp), %eax
	xorl	%gs:20, %eax
	je	.L174
	call	__stack_chk_fail
.LVL335:
.L174:
	leal	-12(%ebp), %esp
	popl	%ebx
	.cfi_restore 3
	popl	%esi
	.cfi_restore 6
	popl	%edi
	.cfi_restore 7
	popl	%ebp
	.cfi_restore 5
	.cfi_def_cfa 4, 4
	ret
	.cfi_endproc
.LFE32:
	.size	apply_z, .-apply_z
	.section	.text.unlikely.apply_z
.LCOLDE31:
	.section	.text.apply_z
.LHOTE31:
	.section	.text.unlikely.XYcZ_add,"ax",@progbits
.LCOLDB32:
	.section	.text.XYcZ_add,"ax",@progbits
.LHOTB32:
	.globl	XYcZ_add
	.type	XYcZ_add, @function
XYcZ_add:
.LFB34:
	.loc 1 883 0
	.cfi_startproc
.LVL336:
	pushl	%ebp
	.cfi_def_cfa_offset 8
	.cfi_offset 5, -8
	movl	%esp, %ebp
	.cfi_def_cfa_register 5
	pushl	%edi
	pushl	%esi
	pushl	%ebx
	.cfi_offset 7, -12
	.cfi_offset 6, -16
	.cfi_offset 3, -20
	.loc 1 886 0
	leal	-60(%ebp), %ebx
	.loc 1 883 0
	subl	$92, %esp
	.loc 1 883 0
	movl	8(%ebp), %eax
	movl	16(%ebp), %esi
	movl	%eax, -88(%ebp)
	movl	12(%ebp), %eax
	movl	%eax, -92(%ebp)
	movl	20(%ebp), %eax
	movl	%eax, -84(%ebp)
	movl	24(%ebp), %eax
	movl	%eax, -76(%ebp)
	movl	%gs:20, %eax
	movl	%eax, -28(%ebp)
	xorl	%eax, %eax
.LVL337:
	.loc 1 886 0
	movl	-76(%ebp), %eax
	movsbl	(%eax), %edi
	addl	$4, %eax
	movl	%eax, -80(%ebp)
	pushl	%edi
.LVL338:
	pushl	%eax
	pushl	-88(%ebp)
	pushl	%esi
	pushl	%ebx
	call	uECC_vli_modSub
.LVL339:
	.loc 1 887 0
	movl	-76(%ebp), %ecx
	addl	$20, %esp
	movl	%ebx, %edx
	movl	%ebx, %eax
	call	uECC_vli_modSquare_fast
.LVL340:
	.loc 1 888 0
	pushl	-76(%ebp)
	pushl	%ebx
	pushl	-88(%ebp)
	pushl	-88(%ebp)
	call	uECC_vli_modMult_fast
.LVL341:
	.loc 1 889 0
	pushl	-76(%ebp)
	pushl	%ebx
	pushl	%esi
	pushl	%esi
	call	uECC_vli_modMult_fast
.LVL342:
	.loc 1 890 0
	addl	$20, %esp
	pushl	%edi
	pushl	-80(%ebp)
	pushl	-92(%ebp)
	pushl	-84(%ebp)
	pushl	-84(%ebp)
	call	uECC_vli_modSub
.LVL343:
	.loc 1 891 0
	movl	-76(%ebp), %ecx
	movl	-84(%ebp), %edx
	movl	%ebx, %eax
	addl	$32, %esp
	call	uECC_vli_modSquare_fast
.LVL344:
	.loc 1 892 0
	subl	$12, %esp
	pushl	%edi
	pushl	-80(%ebp)
	pushl	-88(%ebp)
	pushl	%ebx
	pushl	%ebx
	call	uECC_vli_modSub
.LVL345:
	.loc 1 893 0
	addl	$20, %esp
	pushl	%edi
	pushl	-80(%ebp)
	pushl	%esi
	pushl	%ebx
	pushl	%ebx
	call	uECC_vli_modSub
.LVL346:
	.loc 1 894 0
	addl	$20, %esp
	pushl	%edi
	pushl	-80(%ebp)
	pushl	-88(%ebp)
	pushl	%esi
	pushl	%esi
	call	uECC_vli_modSub
.LVL347:
	.loc 1 895 0
	addl	$32, %esp
	pushl	-76(%ebp)
	pushl	%esi
	pushl	-92(%ebp)
	pushl	-92(%ebp)
	call	uECC_vli_modMult_fast
.LVL348:
	.loc 1 896 0
	movl	%edi, (%esp)
	pushl	-80(%ebp)
	pushl	%ebx
	pushl	-88(%ebp)
	pushl	%esi
	call	uECC_vli_modSub
.LVL349:
	.loc 1 897 0
	addl	$32, %esp
	pushl	-76(%ebp)
	pushl	%esi
	pushl	-84(%ebp)
	pushl	-84(%ebp)
	call	uECC_vli_modMult_fast
.LVL350:
	.loc 1 898 0
	movl	%edi, (%esp)
	pushl	-80(%ebp)
	pushl	-92(%ebp)
	pushl	-84(%ebp)
	pushl	-84(%ebp)
	call	uECC_vli_modSub
.LVL351:
	.loc 1 899 0
	addl	$28, %esp
	pushl	%edi
	pushl	%ebx
	pushl	%esi
	call	uECC_vli_set
.LVL352:
	.loc 1 900 0
	addl	$16, %esp
	movl	-28(%ebp), %eax
	xorl	%gs:20, %eax
	je	.L177
	call	__stack_chk_fail
.LVL353:
.L177:
	leal	-12(%ebp), %esp
	popl	%ebx
	.cfi_restore 3
	popl	%esi
	.cfi_restore 6
	popl	%edi
	.cfi_restore 7
.LVL354:
	popl	%ebp
	.cfi_restore 5
	.cfi_def_cfa 4, 4
	ret
	.cfi_endproc
.LFE34:
	.size	XYcZ_add, .-XYcZ_add
	.section	.text.unlikely.XYcZ_add
.LCOLDE32:
	.section	.text.XYcZ_add
.LHOTE32:
	.section	.text.unlikely.EccPoint_mult,"ax",@progbits
.LCOLDB33:
	.section	.text.EccPoint_mult,"ax",@progbits
.LHOTB33:
	.globl	EccPoint_mult
	.type	EccPoint_mult, @function
EccPoint_mult:
.LFB36:
	.loc 1 934 0
	.cfi_startproc
.LVL355:
	pushl	%ebp
	.cfi_def_cfa_offset 8
	.cfi_offset 5, -8
	movl	%esp, %ebp
	.cfi_def_cfa_register 5
	pushl	%edi
	pushl	%esi
	pushl	%ebx
	subl	$236, %esp
	.cfi_offset 7, -12
	.cfi_offset 6, -16
	.cfi_offset 3, -20
	.loc 1 934 0
	movl	8(%ebp), %eax
	movl	28(%ebp), %edi
.LVL356:
	movl	20(%ebp), %ebx
	movl	%eax, -236(%ebp)
	movl	12(%ebp), %eax
	movl	%eax, -216(%ebp)
	movl	16(%ebp), %eax
	movl	%eax, -232(%ebp)
	movl	24(%ebp), %eax
	movl	%eax, -208(%ebp)
	movl	%gs:20, %eax
	movl	%eax, -28(%ebp)
	xorl	%eax, %eax
	.loc 1 941 0
	movsbl	(%edi), %eax
	pushl	%eax
.LVL357:
	movl	%eax, -204(%ebp)
	leal	-124(%ebp), %eax
.LVL358:
	pushl	-216(%ebp)
.LVL359:
	pushl	%eax
.LVL360:
	call	uECC_vli_set
.LVL361:
	.loc 1 942 0
	movl	-204(%ebp), %eax
	pushl	-204(%ebp)
	sall	$2, %eax
	movl	%eax, -220(%ebp)
	movl	-216(%ebp), %eax
	addl	-220(%ebp), %eax
	pushl	%eax
	movl	%eax, -224(%ebp)
	leal	-60(%ebp), %eax
	pushl	%eax
	call	uECC_vli_set
.LVL362:
.LBB66:
.LBB67:
	.loc 1 868 0
	addl	$24, %esp
	testl	%ebx, %ebx
	movsbl	(%edi), %esi
	leal	-188(%ebp), %eax
	je	.L180
	.loc 1 869 0
	pushl	%esi
.LVL363:
	pushl	%ebx
	pushl	%eax
	call	uECC_vli_set
.LVL364:
	addl	$12, %esp
	jmp	.L181
.LVL365:
.L180:
	.loc 1 871 0
	pushl	%esi
.LVL366:
	pushl	%eax
	call	uECC_vli_clear
.LVL367:
	.loc 1 872 0
	popl	%ecx
	popl	%ebx
.LVL368:
	movl	$1, -188(%ebp)
.L181:
	.loc 1 874 0
	leal	-124(%ebp), %edx
.LVL369:
	leal	-156(%ebp), %eax
.LVL370:
	pushl	%esi
	.loc 1 876 0
	leal	-188(%ebp), %ebx
	.loc 1 874 0
	pushl	%edx
	pushl	%eax
	movl	%edx, -212(%ebp)
	call	uECC_vli_set
.LVL371:
	.loc 1 875 0
	pushl	%esi
	leal	-92(%ebp), %eax
.LVL372:
	leal	-60(%ebp), %esi
.LVL373:
	pushl	%esi
.LVL374:
	pushl	%eax
.LVL375:
	call	uECC_vli_set
.LVL376:
	.loc 1 876 0
	movl	-212(%ebp), %edx
	addl	$24, %esp
	pushl	%edi
	pushl	%ebx
	pushl	%esi
	pushl	%edx
	call	apply_z
.LVL377:
	.loc 1 877 0
	movl	-212(%ebp), %edx
	pushl	%edi
	pushl	%ebx
	pushl	%esi
	pushl	%edx
	call	*164(%edi)
.LVL378:
	.loc 1 878 0
	leal	-92(%ebp), %eax
.LVL379:
	addl	$32, %esp
	pushl	%edi
	pushl	%ebx
	pushl	%eax
	leal	-156(%ebp), %eax
.LVL380:
	pushl	%eax
.LVL381:
	call	apply_z
.LVL382:
.LBE67:
.LBE66:
	.loc 1 944 0
	movl	-208(%ebp), %eax
	addl	$16, %esp
	subl	$2, %eax
	movw	%ax, -208(%ebp)
.LVL383:
	.loc 1 946 0
	leal	-92(%ebp), %eax
.LVL384:
	movl	%eax, -240(%ebp)
	leal	-156(%ebp), %eax
	movl	%eax, -244(%ebp)
.LVL385:
.L182:
	.loc 1 944 0 discriminator 1
	cmpw	$0, -208(%ebp)
	jle	.L186
	.loc 1 945 0 discriminator 3
	movswl	-208(%ebp), %eax
	pushl	%ebx
	pushl	%ebx
	.loc 1 946 0 discriminator 3
	movl	$1, %ebx
	.loc 1 945 0 discriminator 3
	pushl	%eax
	pushl	-232(%ebp)
	call	uECC_vli_testBit
.LVL386:
	testl	%eax, %eax
	.loc 1 946 0 discriminator 3
	movl	-240(%ebp), %ecx
	.loc 1 945 0 discriminator 3
	sete	%al
	movzbl	%al, %eax
.LVL387:
	popl	%esi
	.loc 1 946 0 discriminator 3
	subl	%eax, %ebx
	.loc 1 945 0 discriminator 3
	popl	%edx
	.loc 1 946 0 discriminator 3
	movl	%eax, %edx
	sall	$5, %ebx
	movl	%ecx, %eax
.LVL388:
	sall	$5, %edx
.LVL389:
	addl	%ebx, %eax
	addl	-244(%ebp), %ebx
	leal	(%ecx,%edx), %esi
	addl	-244(%ebp), %edx
	pushl	%edi
	movl	%eax, -228(%ebp)
	pushl	%esi
	movl	%edx, %ecx
	movl	%edx, -212(%ebp)
	movl	%eax, %edx
	movl	%ebx, %eax
	call	XYcZ_addC
.LVL390:
	.loc 1 947 0 discriminator 3
	movl	%edi, (%esp)
	pushl	-228(%ebp)
	pushl	%ebx
	pushl	%esi
	pushl	-212(%ebp)
	call	XYcZ_add
.LVL391:
	decw	-208(%ebp)
.LVL392:
	addl	$32, %esp
	jmp	.L182
.L186:
	movl	-232(%ebp), %eax
	.loc 1 950 0
	leal	-92(%ebp), %esi
	.loc 1 951 0
	leal	-188(%ebp), %ebx
	movl	(%eax), %edx
	andl	$1, %edx
	xorl	$1, %edx
.LVL393:
	.loc 1 950 0
	movl	%edx, %eax
	sall	$5, %eax
	leal	(%esi,%eax), %ecx
	movl	%ecx, -228(%ebp)
	leal	-156(%ebp), %ecx
	addl	%ecx, %eax
	movl	%eax, -232(%ebp)
	movl	$1, %eax
	subl	%edx, %eax
.LVL394:
	pushl	%edx
	pushl	%edx
	sall	$5, %eax
	pushl	%edi
	pushl	-228(%ebp)
	leal	(%esi,%eax), %ecx
	movl	%ecx, -208(%ebp)
.LVL395:
	leal	-156(%ebp), %ecx
	movl	-208(%ebp), %edx
	addl	%ecx, %eax
	movl	-232(%ebp), %ecx
	movl	%eax, -212(%ebp)
	call	XYcZ_addC
.LVL396:
	.loc 1 951 0
	leal	4(%edi), %edx
	leal	-156(%ebp), %eax
	popl	%ecx
	pushl	-204(%ebp)
	pushl	%edx
	pushl	%eax
	leal	-124(%ebp), %eax
	movl	%edx, -240(%ebp)
	pushl	%eax
	pushl	%ebx
	call	uECC_vli_modSub
.LVL397:
	.loc 1 952 0
	addl	$32, %esp
	pushl	%edi
	pushl	-208(%ebp)
	pushl	%ebx
	pushl	%ebx
	call	uECC_vli_modMult_fast
.LVL398:
	.loc 1 953 0
	pushl	%edi
	pushl	-216(%ebp)
	pushl	%ebx
	pushl	%ebx
	call	uECC_vli_modMult_fast
.LVL399:
	.loc 1 954 0
	movl	-240(%ebp), %edx
	addl	$32, %esp
	pushl	-204(%ebp)
	pushl	%edx
	pushl	%ebx
	pushl	%ebx
	call	uECC_vli_modInv
.LVL400:
	.loc 1 955 0
	pushl	%edi
	pushl	-224(%ebp)
	pushl	%ebx
	pushl	%ebx
	call	uECC_vli_modMult_fast
.LVL401:
	.loc 1 956 0
	addl	$32, %esp
	pushl	%edi
	pushl	-212(%ebp)
	pushl	%ebx
	pushl	%ebx
	call	uECC_vli_modMult_fast
.LVL402:
	.loc 1 957 0
	movl	%edi, (%esp)
	pushl	-208(%ebp)
	pushl	-212(%ebp)
	pushl	-228(%ebp)
	pushl	-232(%ebp)
	call	XYcZ_add
.LVL403:
	.loc 1 958 0
	leal	-156(%ebp), %eax
	addl	$32, %esp
	pushl	%edi
	pushl	%ebx
	pushl	%esi
	pushl	%eax
	call	apply_z
.LVL404:
	.loc 1 959 0
	leal	-156(%ebp), %eax
	addl	$12, %esp
	pushl	-204(%ebp)
	pushl	%eax
	pushl	-236(%ebp)
	call	uECC_vli_set
.LVL405:
	.loc 1 960 0
	movl	-236(%ebp), %eax
	addl	-220(%ebp), %eax
	addl	$12, %esp
	pushl	-204(%ebp)
	pushl	%esi
	pushl	%eax
	call	uECC_vli_set
.LVL406:
	.loc 1 961 0
	addl	$16, %esp
	movl	-28(%ebp), %eax
	xorl	%gs:20, %eax
	je	.L184
	call	__stack_chk_fail
.LVL407:
.L184:
	leal	-12(%ebp), %esp
	popl	%ebx
	.cfi_restore 3
	popl	%esi
	.cfi_restore 6
	popl	%edi
	.cfi_restore 7
	popl	%ebp
	.cfi_restore 5
	.cfi_def_cfa 4, 4
	ret
	.cfi_endproc
.LFE36:
	.size	EccPoint_mult, .-EccPoint_mult
	.section	.text.unlikely.EccPoint_mult
.LCOLDE33:
	.section	.text.EccPoint_mult
.LHOTE33:
	.section	.text.unlikely.regularize_k,"ax",@progbits
.LCOLDB34:
	.section	.text.regularize_k,"ax",@progbits
.LHOTB34:
	.globl	regularize_k
	.type	regularize_k, @function
regularize_k:
.LFB37:
	.loc 1 964 0
	.cfi_startproc
.LVL408:
	pushl	%ebp
	.cfi_def_cfa_offset 8
	.cfi_offset 5, -8
	movl	%esp, %ebp
	.cfi_def_cfa_register 5
	pushl	%edi
	pushl	%esi
	pushl	%ebx
	.cfi_offset 7, -12
	.cfi_offset 6, -16
	.cfi_offset 3, -20
	pushl	%ebx
	.loc 1 967 0
	movl	$32, %esi
	.loc 1 964 0
	movl	20(%ebp), %ecx
	.loc 1 965 0
	movswl	2(%ecx), %edi
.LVL409:
	.loc 1 967 0
	leal	31(%edi), %eax
	cltd
	idivl	%esi
	movl	8(%ebp), %edx
	movsbl	%al, %ebx
	leal	36(%ecx), %eax
	pushl	%ebx
.LVL410:
	movl	%eax, -16(%ebp)
	movl	%eax, %ecx
	movl	12(%ebp), %eax
	call	uECC_vli_add
.LVL411:
	testl	%eax, %eax
	popl	%esi
	movl	$1, %esi
	jne	.L188
	.loc 1 967 0 is_stmt 0 discriminator 2
	movl	%ebx, %eax
	xorl	%esi, %esi
	sall	$5, %eax
	cmpl	%eax, %edi
	jge	.L188
	.loc 1 969 0 is_stmt 1
	pushl	%edi
	pushl	12(%ebp)
	call	uECC_vli_testBit
.LVL412:
	popl	%edx
	.loc 1 967 0
	testl	%eax, %eax
	.loc 1 969 0
	popl	%ecx
	.loc 1 967 0
	setne	%al
	movzbl	%al, %eax
	movl	%eax, %esi
.L188:
.LVL413:
	.loc 1 970 0 discriminator 5
	movl	-16(%ebp), %ecx
	movl	12(%ebp), %edx
	movl	16(%ebp), %eax
	pushl	%ebx
	call	uECC_vli_add
.LVL414:
	.loc 1 972 0 discriminator 5
	leal	-12(%ebp), %esp
	movl	%esi, %eax
	popl	%ebx
	.cfi_restore 3
	popl	%esi
	.cfi_restore 6
.LVL415:
	popl	%edi
	.cfi_restore 7
.LVL416:
	popl	%ebp
	.cfi_restore 5
	.cfi_def_cfa 4, 4
	ret
	.cfi_endproc
.LFE37:
	.size	regularize_k, .-regularize_k
	.section	.text.unlikely.regularize_k
.LCOLDE34:
	.section	.text.regularize_k
.LHOTE34:
	.section	.text.unlikely.EccPoint_compute_public_key,"ax",@progbits
.LCOLDB35:
	.section	.text.EccPoint_compute_public_key,"ax",@progbits
.LHOTB35:
	.globl	EccPoint_compute_public_key
	.type	EccPoint_compute_public_key, @function
EccPoint_compute_public_key:
.LFB38:
	.loc 1 976 0
	.cfi_startproc
.LVL417:
	pushl	%ebp
	.cfi_def_cfa_offset 8
	.cfi_offset 5, -8
	movl	%esp, %ebp
	.cfi_def_cfa_register 5
	pushl	%esi
	pushl	%ebx
	.loc 1 979 0
	leal	-44(%ebp), %edx
	.loc 1 976 0
	subl	$80, %esp
	.cfi_offset 6, -12
	.cfi_offset 3, -16
	.loc 1 976 0
	movl	16(%ebp), %ebx
	movl	8(%ebp), %esi
	movl	%gs:20, %eax
	movl	%eax, -12(%ebp)
	xorl	%eax, %eax
	.loc 1 979 0
	leal	-76(%ebp), %eax
	movl	%edx, -80(%ebp)
	.loc 1 981 0
	pushl	%ebx
	pushl	%edx
	pushl	%eax
	pushl	12(%ebp)
	.loc 1 979 0
	movl	%eax, -84(%ebp)
	.loc 1 981 0
	call	regularize_k
.LVL418:
	.loc 1 982 0
	popl	%edx
	popl	%ecx
	movw	2(%ebx), %cx
	testl	%eax, %eax
	pushl	%ebx
	sete	%al
.LVL419:
	movzbl	%al, %eax
	leal	1(%ecx), %edx
	movswl	%dx, %edx
	pushl	%edx
	pushl	$0
	pushl	-84(%ebp,%eax,4)
	leal	68(%ebx), %eax
	pushl	%eax
	pushl	%esi
	call	EccPoint_mult
.LVL420:
	.loc 1 983 0
	addl	$24, %esp
	pushl	%ebx
	pushl	%esi
	call	EccPoint_isZero
.LVL421:
	addl	$16, %esp
	testl	%eax, %eax
	sete	%al
	.loc 1 987 0
	movl	-12(%ebp), %ecx
	xorl	%gs:20, %ecx
	je	.L193
	call	__stack_chk_fail
.LVL422:
.L193:
	leal	-8(%ebp), %esp
	movzbl	%al, %eax
	popl	%ebx
	.cfi_restore 3
	popl	%esi
	.cfi_restore 6
	popl	%ebp
	.cfi_restore 5
	.cfi_def_cfa 4, 4
	ret
	.cfi_endproc
.LFE38:
	.size	EccPoint_compute_public_key, .-EccPoint_compute_public_key
	.section	.text.unlikely.EccPoint_compute_public_key
.LCOLDE35:
	.section	.text.EccPoint_compute_public_key
.LHOTE35:
	.section	.text.unlikely.uECC_vli_nativeToBytes,"ax",@progbits
.LCOLDB36:
	.section	.text.uECC_vli_nativeToBytes,"ax",@progbits
.LHOTB36:
	.globl	uECC_vli_nativeToBytes
	.type	uECC_vli_nativeToBytes, @function
uECC_vli_nativeToBytes:
.LFB39:
	.loc 1 990 0
	.cfi_startproc
.LVL423:
	pushl	%ebp
	.cfi_def_cfa_offset 8
	.cfi_offset 5, -8
	movl	%esp, %ebp
	.cfi_def_cfa_register 5
	pushl	%edi
	pushl	%esi
	pushl	%ebx
	pushl	%edx
	.cfi_offset 7, -12
	.cfi_offset 6, -16
	.cfi_offset 3, -20
	.loc 1 992 0
	xorl	%edx, %edx
	.loc 1 990 0
	movl	12(%ebp), %esi
.LBB68:
	.loc 1 993 0
	leal	-1(%esi), %edi
.LVL424:
.L196:
.LBE68:
	.loc 1 992 0 discriminator 1
	movsbl	%dl, %eax
	cmpl	%esi, %eax
	jge	.L199
.LBB69:
	.loc 1 993 0 discriminator 3
	movl	%edi, %ecx
	incl	%edx
.LVL425:
	subl	%eax, %ecx
.LVL426:
	.loc 1 994 0 discriminator 3
	movl	%ecx, %ebx
	andl	$3, %ecx
.LVL427:
	sall	$3, %ecx
	shrl	$2, %ebx
.LVL428:
	movl	%ecx, -16(%ebp)
	movl	16(%ebp), %ecx
	movl	(%ecx,%ebx,4), %ebx
	movb	-16(%ebp), %cl
	shrl	%cl, %ebx
	movl	8(%ebp), %ecx
	movb	%bl, (%ecx,%eax)
	jmp	.L196
.LVL429:
.L199:
.LBE69:
	.loc 1 996 0
	popl	%eax
	popl	%ebx
	.cfi_restore 3
	popl	%esi
	.cfi_restore 6
	popl	%edi
	.cfi_restore 7
	popl	%ebp
	.cfi_restore 5
	.cfi_def_cfa 4, 4
	ret
	.cfi_endproc
.LFE39:
	.size	uECC_vli_nativeToBytes, .-uECC_vli_nativeToBytes
	.section	.text.unlikely.uECC_vli_nativeToBytes
.LCOLDE36:
	.section	.text.uECC_vli_nativeToBytes
.LHOTE36:
	.section	.text.unlikely.uECC_vli_bytesToNative,"ax",@progbits
.LCOLDB37:
	.section	.text.uECC_vli_bytesToNative,"ax",@progbits
.LHOTB37:
	.globl	uECC_vli_bytesToNative
	.type	uECC_vli_bytesToNative, @function
uECC_vli_bytesToNative:
.LFB40:
	.loc 1 999 0
	.cfi_startproc
.LVL430:
	pushl	%ebp
	.cfi_def_cfa_offset 8
	.cfi_offset 5, -8
	.loc 1 1001 0
	movl	$4, %ecx
	.loc 1 999 0
	movl	%esp, %ebp
	.cfi_def_cfa_register 5
	pushl	%edi
	pushl	%esi
	.loc 1 1001 0
	movl	16(%ebp), %eax
	.loc 1 999 0
	pushl	%ebx
	.cfi_offset 7, -12
	.cfi_offset 6, -16
	.cfi_offset 3, -20
	.loc 1 1001 0
	addl	$3, %eax
	cltd
	idivl	%ecx
	movsbl	%al, %eax
	pushl	%eax
	pushl	8(%ebp)
	call	uECC_vli_clear
.LVL431:
	.loc 1 1002 0
	popl	%eax
.LBB70:
	.loc 1 1003 0
	movl	16(%ebp), %edi
.LBE70:
	.loc 1 1002 0
	xorl	%eax, %eax
	popl	%edx
.LBB71:
	.loc 1 1003 0
	decl	%edi
.LVL432:
.L201:
.LBE71:
	.loc 1 1002 0 discriminator 1
	movsbl	%al, %edx
	cmpl	%edx, 16(%ebp)
	jle	.L204
.LBB72:
	.loc 1 1004 0 discriminator 3
	movl	12(%ebp), %ebx
	.loc 1 1003 0 discriminator 3
	movl	%edi, %ecx
	incl	%eax
.LVL433:
	subl	%edx, %ecx
.LVL434:
	.loc 1 1004 0 discriminator 3
	movl	%ecx, %esi
	andl	$3, %ecx
.LVL435:
	movzbl	(%ebx,%edx), %edx
	movl	8(%ebp), %ebx
	andl	$-4, %esi
.LVL436:
	sall	$3, %ecx
	sall	%cl, %edx
	orl	%edx, (%ebx,%esi)
	jmp	.L201
.LVL437:
.L204:
.LBE72:
	.loc 1 1007 0
	leal	-12(%ebp), %esp
	popl	%ebx
	.cfi_restore 3
	popl	%esi
	.cfi_restore 6
	popl	%edi
	.cfi_restore 7
	popl	%ebp
	.cfi_restore 5
	.cfi_def_cfa 4, 4
	ret
	.cfi_endproc
.LFE40:
	.size	uECC_vli_bytesToNative, .-uECC_vli_bytesToNative
	.section	.text.unlikely.uECC_vli_bytesToNative
.LCOLDE37:
	.section	.text.uECC_vli_bytesToNative
.LHOTE37:
	.section	.text.unlikely.uECC_generate_random_int,"ax",@progbits
.LCOLDB38:
	.section	.text.uECC_generate_random_int,"ax",@progbits
.LHOTB38:
	.globl	uECC_generate_random_int
	.type	uECC_generate_random_int, @function
uECC_generate_random_int:
.LFB41:
	.loc 1 1010 0
	.cfi_startproc
.LVL438:
	pushl	%ebp
	.cfi_def_cfa_offset 8
	.cfi_offset 5, -8
	movl	%esp, %ebp
	.cfi_def_cfa_register 5
	pushl	%edi
	pushl	%esi
	pushl	%ebx
	subl	$28, %esp
	.cfi_offset 7, -12
	.cfi_offset 6, -16
	.cfi_offset 3, -20
	.loc 1 1010 0
	movl	16(%ebp), %ecx
	.loc 1 1013 0
	movsbl	%cl, %ebx
	movl	%ecx, -28(%ebp)
	pushl	%ebx
	pushl	12(%ebp)
	call	uECC_vli_numBits
.LVL439:
	.loc 1 1014 0
	cmpl	$0, g_rng_function
	movl	-28(%ebp), %ecx
	.loc 1 1013 0
	popl	%esi
	popl	%edi
.LVL440:
	.loc 1 1014 0
	jne	.L206
.LVL441:
.L208:
	.loc 1 1015 0
	xorl	%eax, %eax
	jmp	.L207
.LVL442:
.L206:
	.loc 1 1021 0
	movl	8(%ebp), %edx
	.loc 1 1022 0
	movsbw	%cl, %cx
	.loc 1 1018 0
	leal	0(,%ebx,4), %esi
	.loc 1 1022 0
	sall	$5, %ecx
	movl	$64, -28(%ebp)
	subl	%eax, %ecx
	orl	$-1, %eax
.LVL443:
	shrl	%cl, %eax
	.loc 1 1021 0
	leal	-4(%edx,%esi), %edi
	.loc 1 1022 0
	movl	%eax, -32(%ebp)
.L210:
.LVL444:
	.loc 1 1018 0
	pushl	%ecx
	pushl	%ecx
	pushl	%esi
	pushl	8(%ebp)
	call	*g_rng_function
.LVL445:
	addl	$16, %esp
	testl	%eax, %eax
	je	.L208
	.loc 1 1021 0
	movl	-32(%ebp), %eax
	andl	%eax, (%edi)
	.loc 1 1023 0
	pushl	%edx
	pushl	%edx
	pushl	%ebx
	pushl	8(%ebp)
	call	uECC_vli_isZero
.LVL446:
	addl	$16, %esp
	testl	%eax, %eax
	je	.L209
.L211:
.LVL447:
	.loc 1 1017 0
	decl	-28(%ebp)
.LVL448:
	jne	.L210
	jmp	.L208
.LVL449:
.L209:
	.loc 1 1024 0 discriminator 1
	pushl	%eax
	pushl	%ebx
	pushl	8(%ebp)
	pushl	12(%ebp)
	call	uECC_vli_cmp
.LVL450:
	.loc 1 1023 0 discriminator 1
	addl	$16, %esp
	decb	%al
	jne	.L211
	.loc 1 1025 0
	movl	$1, %eax
.LVL451:
.L207:
	.loc 1 1029 0
	leal	-12(%ebp), %esp
	popl	%ebx
	.cfi_restore 3
	popl	%esi
	.cfi_restore 6
	popl	%edi
	.cfi_restore 7
	popl	%ebp
	.cfi_restore 5
	.cfi_def_cfa 4, 4
	ret
	.cfi_endproc
.LFE41:
	.size	uECC_generate_random_int, .-uECC_generate_random_int
	.section	.text.unlikely.uECC_generate_random_int
.LCOLDE38:
	.section	.text.uECC_generate_random_int
.LHOTE38:
	.section	.text.unlikely.uECC_valid_point,"ax",@progbits
.LCOLDB39:
	.section	.text.uECC_valid_point,"ax",@progbits
.LHOTB39:
	.globl	uECC_valid_point
	.type	uECC_valid_point, @function
uECC_valid_point:
.LFB42:
	.loc 1 1031 0
	.cfi_startproc
.LVL452:
	pushl	%ebp
	.cfi_def_cfa_offset 8
	.cfi_offset 5, -8
	movl	%esp, %ebp
	.cfi_def_cfa_register 5
	pushl	%edi
	pushl	%esi
	pushl	%ebx
	subl	$108, %esp
	.cfi_offset 7, -12
	.cfi_offset 6, -16
	.cfi_offset 3, -20
	.loc 1 1031 0
	movl	12(%ebp), %esi
	movl	8(%ebp), %edi
	movl	%gs:20, %eax
	movl	%eax, -28(%ebp)
	xorl	%eax, %eax
	.loc 1 1034 0
	movsbl	(%esi), %ebx
.LVL453:
	.loc 1 1035 0
	pushl	%esi
	pushl	%edi
	call	EccPoint_isZero
.LVL454:
	popl	%edx
	movl	%eax, %edx
	.loc 1 1036 0
	orl	$-1, %eax
	.loc 1 1035 0
	testl	%edx, %edx
	popl	%ecx
	jne	.L218
	.loc 1 1038 0
	leal	4(%esi), %ecx
	pushl	%ebx
	pushl	%edi
	pushl	%ecx
	movl	%ecx, -112(%ebp)
	call	uECC_vli_cmp_unsafe
.LVL455:
	movb	%al, %dl
	addl	$12, %esp
	.loc 1 1040 0
	movl	$-2, %eax
	.loc 1 1038 0
	decb	%dl
	jne	.L218
	.loc 1 1039 0 discriminator 1
	movl	-112(%ebp), %ecx
	leal	(%edi,%ebx,4), %edx
	pushl	%ebx
	pushl	%edx
	movl	%edx, -108(%ebp)
	pushl	%ecx
	call	uECC_vli_cmp_unsafe
.LVL456:
	movb	%al, %cl
	addl	$12, %esp
	.loc 1 1040 0 discriminator 1
	movl	$-2, %eax
	.loc 1 1038 0 discriminator 1
	decb	%cl
	jne	.L218
	.loc 1 1042 0
	movl	-108(%ebp), %edx
	leal	-92(%ebp), %eax
	movl	%esi, %ecx
	call	uECC_vli_modSquare_fast
.LVL457:
	.loc 1 1043 0
	pushl	%eax
	pushl	%esi
	pushl	%edi
	leal	-60(%ebp), %edi
	pushl	%edi
	call	*168(%esi)
.LVL458:
	.loc 1 1044 0
	leal	-92(%ebp), %eax
	addl	$12, %esp
	pushl	%ebx
	pushl	%edi
	pushl	%eax
	call	uECC_vli_equal
.LVL459:
	addl	$16, %esp
	.loc 1 1046 0
	cmpl	$1, %eax
	sbbl	%eax, %eax
	notl	%eax
	andl	$-3, %eax
.L218:
	.loc 1 1047 0
	movl	-28(%ebp), %ebx
	xorl	%gs:20, %ebx
.LVL460:
	je	.L219
	call	__stack_chk_fail
.LVL461:
.L219:
	leal	-12(%ebp), %esp
	popl	%ebx
	.cfi_restore 3
	popl	%esi
	.cfi_restore 6
	popl	%edi
	.cfi_restore 7
	popl	%ebp
	.cfi_restore 5
	.cfi_def_cfa 4, 4
	ret
	.cfi_endproc
.LFE42:
	.size	uECC_valid_point, .-uECC_valid_point
	.section	.text.unlikely.uECC_valid_point
.LCOLDE39:
	.section	.text.uECC_valid_point
.LHOTE39:
	.section	.text.unlikely.uECC_valid_public_key,"ax",@progbits
.LCOLDB40:
	.section	.text.uECC_valid_public_key,"ax",@progbits
.LHOTB40:
	.globl	uECC_valid_public_key
	.type	uECC_valid_public_key, @function
uECC_valid_public_key:
.LFB43:
	.loc 1 1049 0
	.cfi_startproc
.LVL462:
	pushl	%ebp
	.cfi_def_cfa_offset 8
	.cfi_offset 5, -8
	movl	%esp, %ebp
	.cfi_def_cfa_register 5
	pushl	%edi
	pushl	%esi
	pushl	%ebx
	.cfi_offset 7, -12
	.cfi_offset 6, -16
	.cfi_offset 3, -20
	.loc 1 1051 0
	leal	-92(%ebp), %esi
	.loc 1 1049 0
	subl	$92, %esp
	.loc 1 1049 0
	movl	12(%ebp), %ebx
	movl	8(%ebp), %edi
	movl	%gs:20, %eax
	movl	%eax, -28(%ebp)
	xorl	%eax, %eax
	.loc 1 1051 0
	movsbl	1(%ebx), %eax
	pushl	%eax
	pushl	%edi
	pushl	%esi
	call	uECC_vli_bytesToNative
.LVL463:
	.loc 1 1052 0
	movsbl	1(%ebx), %eax
	pushl	%eax
	addl	%edi, %eax
	pushl	%eax
	movsbl	(%ebx), %eax
	leal	(%esi,%eax,4), %eax
	pushl	%eax
	call	uECC_vli_bytesToNative
.LVL464:
	.loc 1 1056 0
	leal	68(%ebx), %eax
	pushl	$16
	pushl	%eax
	pushl	%esi
	call	uECC_vli_cmp_unsafe
.LVL465:
	movb	%al, %dl
	addl	$36, %esp
	movl	$-4, %eax
	testb	%dl, %dl
	je	.L226
	.loc 1 1059 0
	pushl	%eax
	pushl	%eax
	pushl	%ebx
	pushl	%esi
	call	uECC_valid_point
.LVL466:
	addl	$16, %esp
.L226:
	.loc 1 1060 0
	movl	-28(%ebp), %ecx
	xorl	%gs:20, %ecx
	je	.L227
	call	__stack_chk_fail
.LVL467:
.L227:
	leal	-12(%ebp), %esp
	popl	%ebx
	.cfi_restore 3
	popl	%esi
	.cfi_restore 6
	popl	%edi
	.cfi_restore 7
	popl	%ebp
	.cfi_restore 5
	.cfi_def_cfa 4, 4
	ret
	.cfi_endproc
.LFE43:
	.size	uECC_valid_public_key, .-uECC_valid_public_key
	.section	.text.unlikely.uECC_valid_public_key
.LCOLDE40:
	.section	.text.uECC_valid_public_key
.LHOTE40:
	.section	.text.unlikely.uECC_compute_public_key,"ax",@progbits
.LCOLDB41:
	.section	.text.uECC_compute_public_key,"ax",@progbits
.LHOTB41:
	.globl	uECC_compute_public_key
	.type	uECC_compute_public_key, @function
uECC_compute_public_key:
.LFB44:
	.loc 1 1063 0
	.cfi_startproc
.LVL468:
	pushl	%ebp
	.cfi_def_cfa_offset 8
	.cfi_offset 5, -8
	.loc 1 1066 0
	movl	$8, %ecx
	.loc 1 1063 0
	movl	%esp, %ebp
	.cfi_def_cfa_register 5
	pushl	%edi
	pushl	%esi
	pushl	%ebx
	.cfi_offset 7, -12
	.cfi_offset 6, -16
	.cfi_offset 3, -20
	.loc 1 1066 0
	leal	-124(%ebp), %esi
	.loc 1 1063 0
	subl	$140, %esp
	.loc 1 1063 0
	movl	16(%ebp), %ebx
	movl	12(%ebp), %edi
	movl	%gs:20, %eax
	movl	%eax, -28(%ebp)
	xorl	%eax, %eax
	.loc 1 1066 0
	movswl	2(%ebx), %eax
	addl	$7, %eax
	cltd
	idivl	%ecx
	pushl	%eax
	pushl	8(%ebp)
	pushl	%esi
	call	uECC_vli_bytesToNative
.LVL469:
	.loc 1 1070 0
	movswl	2(%ebx), %eax
	movl	$32, %ecx
	addl	$31, %eax
	cltd
	idivl	%ecx
	movsbl	%al, %edx
	pushl	%edx
	pushl	%esi
	movl	%edx, -140(%ebp)
	call	uECC_vli_isZero
.LVL470:
	addl	$20, %esp
	testl	%eax, %eax
	movl	-140(%ebp), %edx
	je	.L232
.L234:
	.loc 1 1071 0
	xorl	%eax, %eax
	jmp	.L233
.L232:
	.loc 1 1073 0
	leal	36(%ebx), %eax
	pushl	%ecx
	pushl	%edx
	pushl	%esi
	pushl	%eax
	call	uECC_vli_cmp
.LVL471:
	addl	$16, %esp
	decb	%al
	jne	.L234
	.loc 1 1076 0
	pushl	%edx
	pushl	%ebx
	pushl	%esi
	leal	-92(%ebp), %esi
	pushl	%esi
	call	EccPoint_compute_public_key
.LVL472:
	addl	$16, %esp
	testl	%eax, %eax
	je	.L234
	.loc 1 1079 0
	pushl	%eax
	pushl	%esi
	movsbl	1(%ebx), %eax
	pushl	%eax
	pushl	%edi
	call	uECC_vli_nativeToBytes
.LVL473:
	.loc 1 1080 0
	movsbl	(%ebx), %eax
	addl	$12, %esp
	leal	(%esi,%eax,4), %eax
	pushl	%eax
	movsbl	1(%ebx), %eax
	addl	%eax, %edi
	pushl	%eax
	pushl	%edi
	call	uECC_vli_nativeToBytes
.LVL474:
	.loc 1 1083 0
	addl	$16, %esp
	movl	$1, %eax
.L233:
	.loc 1 1084 0
	movl	-28(%ebp), %ecx
	xorl	%gs:20, %ecx
	je	.L235
	call	__stack_chk_fail
.LVL475:
.L235:
	leal	-12(%ebp), %esp
	popl	%ebx
	.cfi_restore 3
	popl	%esi
	.cfi_restore 6
	popl	%edi
	.cfi_restore 7
	popl	%ebp
	.cfi_restore 5
	.cfi_def_cfa 4, 4
	ret
	.cfi_endproc
.LFE44:
	.size	uECC_compute_public_key, .-uECC_compute_public_key
	.section	.text.unlikely.uECC_compute_public_key
.LCOLDE41:
	.section	.text.uECC_compute_public_key
.LHOTE41:
	.section	.data.g_rng_function,"aw",@progbits
	.align 4
	.type	g_rng_function, @object
	.size	g_rng_function, 4
g_rng_function:
	.long	default_CSPRNG
	.section	.rodata.curve_secp256r1,"a",@progbits
	.align 32
	.type	curve_secp256r1, @object
	.size	curve_secp256r1, 176
curve_secp256r1:
	.byte	8
	.byte	32
	.value	256
	.long	-1
	.long	-1
	.long	-1
	.long	0
	.long	0
	.long	0
	.long	1
	.long	-1
	.long	-60611247
	.long	-205927742
	.long	-1491624316
	.long	-1125713235
	.long	-1
	.long	-1
	.long	0
	.long	-1
	.long	-661077354
	.long	-190760635
	.long	770388896
	.long	1996717441
	.long	1671708914
	.long	-121837851
	.long	-517193145
	.long	1796723186
	.long	935285237
	.long	-877248408
	.long	1798397646
	.long	734933847
	.long	2081398294
	.long	-1897403574
	.long	-31817829
	.long	1340293858
	.long	668098635
	.long	1003371582
	.long	-866930442
	.long	1696401072
	.long	1989707452
	.long	-1276396203
	.long	-1439001625
	.long	1522939352
	.long	double_jacobian_default
	.long	x_side_default
	.long	vli_mmod_fast_secp256r1
	.text
.Letext0:
	.section	.text.unlikely.uECC_vli_add
.Letext_cold0:
	.section	.note.GNU-stack,"",@progbits
