	.file	"ecc_dh.c"
	.text
.Ltext0:
	.section	.text.unlikely.uECC_make_key_with_d,"ax",@progbits
.LCOLDB0:
	.section	.text.uECC_make_key_with_d,"ax",@progbits
.LHOTB0:
	.section	.text.unlikely.uECC_make_key_with_d
.Ltext_cold0:
	.section	.text.uECC_make_key_with_d
	.globl	uECC_make_key_with_d
	.type	uECC_make_key_with_d, @function
uECC_make_key_with_d:
.LFB0:
	.file 1 "src/ecc_dh.c"
	.loc 1 408 0
	.cfi_startproc
.LVL0:
	pushl	%ebp
	.cfi_def_cfa_offset 8
	.cfi_offset 5, -8
	.loc 1 411 0
	movl	$8, %ecx
	.loc 1 408 0
	movl	%esp, %ebp
	.cfi_def_cfa_register 5
	pushl	%edi
	pushl	%esi
	.loc 1 411 0
	leal	-124(%ebp), %edx
	.loc 1 408 0
	pushl	%ebx
	.cfi_offset 7, -12
	.cfi_offset 6, -16
	.cfi_offset 3, -20
	.loc 1 411 0
	movl	%edx, %edi
	.loc 1 408 0
	subl	$144, %esp
	.loc 1 408 0
	movl	8(%ebp), %eax
	movl	16(%ebp), %esi
	movl	20(%ebp), %ebx
	.loc 1 411 0
	rep movsl
	.loc 1 412 0
	leal	-92(%ebp), %esi
	.loc 1 408 0
	movl	%eax, -140(%ebp)
	movl	12(%ebp), %eax
	.loc 1 412 0
	pushl	%ebx
	pushl	%edx
	pushl	%esi
	movl	%edx, -148(%ebp)
	.loc 1 408 0
	movl	%eax, -144(%ebp)
	movl	%gs:20, %eax
	movl	%eax, -28(%ebp)
	xorl	%eax, %eax
	.loc 1 412 0
	call	EccPoint_compute_public_key
.LVL1:
	addl	$16, %esp
	xorl	%ecx, %ecx
	testl	%eax, %eax
	movl	-148(%ebp), %edx
	je	.L2
	.loc 1 413 0
	pushl	%eax
	movswl	2(%ebx), %eax
	movl	$8, %ecx
	pushl	%edx
	addl	$7, %eax
	cltd
	idivl	%ecx
	pushl	%eax
	pushl	-144(%ebp)
	call	uECC_vli_nativeToBytes
.LVL2:
	.loc 1 416 0
	addl	$12, %esp
	pushl	%esi
	movsbl	1(%ebx), %eax
	pushl	%eax
	pushl	-140(%ebp)
	call	uECC_vli_nativeToBytes
.LVL3:
	.loc 1 419 0
	movsbl	(%ebx), %eax
	addl	$12, %esp
	leal	(%esi,%eax,4), %eax
	pushl	%eax
	movsbl	1(%ebx), %eax
	pushl	%eax
	addl	-140(%ebp), %eax
	pushl	%eax
	call	uECC_vli_nativeToBytes
.LVL4:
	.loc 1 423 0
	addl	$16, %esp
	movl	$1, %ecx
.L2:
	.loc 1 426 0
	movl	-28(%ebp), %edi
	xorl	%gs:20, %edi
	movl	%ecx, %eax
	je	.L3
	call	__stack_chk_fail
.LVL5:
.L3:
	leal	-12(%ebp), %esp
	popl	%ebx
	.cfi_restore 3
	popl	%esi
	.cfi_restore 6
	popl	%edi
	.cfi_restore 7
	popl	%ebp
	.cfi_restore 5
	.cfi_def_cfa 4, 4
	ret
	.cfi_endproc
.LFE0:
	.size	uECC_make_key_with_d, .-uECC_make_key_with_d
	.section	.text.unlikely.uECC_make_key_with_d
.LCOLDE0:
	.section	.text.uECC_make_key_with_d
.LHOTE0:
	.section	.text.unlikely.uECC_make_key,"ax",@progbits
.LCOLDB1:
	.section	.text.uECC_make_key,"ax",@progbits
.LHOTB1:
	.globl	uECC_make_key
	.type	uECC_make_key, @function
uECC_make_key:
.LFB1:
	.loc 1 428 0
	.cfi_startproc
.LVL6:
	pushl	%ebp
	.cfi_def_cfa_offset 8
	.cfi_offset 5, -8
	movl	%esp, %ebp
	.cfi_def_cfa_register 5
	pushl	%edi
	pushl	%esi
	pushl	%ebx
	subl	$204, %esp
	.cfi_offset 7, -12
	.cfi_offset 6, -16
	.cfi_offset 3, -20
	.loc 1 428 0
	movl	8(%ebp), %eax
	movl	16(%ebp), %ebx
	movl	$64, -208(%ebp)
	movl	%eax, -204(%ebp)
	movl	12(%ebp), %eax
	movl	%eax, -212(%ebp)
	movl	%gs:20, %eax
	movl	%eax, -28(%ebp)
	xorl	%eax, %eax
.LVL7:
.LBB2:
	.loc 1 439 0
	leal	36(%ebx), %eax
	movl	%eax, -216(%ebp)
.LVL8:
.L14:
	.loc 1 434 0
	call	uECC_get_rng
.LVL9:
	.loc 1 435 0
	testl	%eax, %eax
	jne	.L10
.LVL10:
.L12:
	.loc 1 437 0
	xorl	%eax, %eax
	jmp	.L11
.LVL11:
.L10:
	.loc 1 436 0 discriminator 1
	pushl	%edx
	pushl	%edx
	leal	-156(%ebp), %edx
	pushl	$64
	pushl	%edx
	call	*%eax
.LVL12:
	.loc 1 435 0 discriminator 1
	addl	$16, %esp
	testl	%eax, %eax
	je	.L12
	.loc 1 439 0
	movswl	2(%ebx), %eax
	movl	$32, %ecx
	leal	-188(%ebp), %edi
	.loc 1 440 0
	leal	-92(%ebp), %esi
	.loc 1 439 0
	addl	$31, %eax
	cltd
	idivl	%ecx
	movsbl	%al, %eax
	pushl	%eax
	leal	-156(%ebp), %eax
	pushl	-216(%ebp)
	pushl	%eax
	pushl	%edi
	call	uECC_vli_mmod
.LVL13:
	.loc 1 440 0
	addl	$12, %esp
	pushl	%ebx
	pushl	%edi
	pushl	%esi
	call	EccPoint_compute_public_key
.LVL14:
	addl	$16, %esp
	testl	%eax, %eax
	je	.L13
	.loc 1 441 0
	pushl	%eax
	movswl	2(%ebx), %eax
	movl	$8, %ecx
	pushl	%edi
	addl	$7, %eax
	cltd
	idivl	%ecx
	pushl	%eax
	pushl	-212(%ebp)
	call	uECC_vli_nativeToBytes
.LVL15:
	.loc 1 444 0
	addl	$12, %esp
	pushl	%esi
	movsbl	1(%ebx), %eax
	pushl	%eax
	pushl	-204(%ebp)
	call	uECC_vli_nativeToBytes
.LVL16:
	.loc 1 447 0
	movsbl	(%ebx), %eax
	addl	$12, %esp
	leal	(%esi,%eax,4), %eax
	pushl	%eax
	movsbl	1(%ebx), %eax
	pushl	%eax
	addl	-204(%ebp), %eax
	pushl	%eax
	call	uECC_vli_nativeToBytes
.LVL17:
	.loc 1 451 0
	addl	$16, %esp
	movl	$1, %eax
	jmp	.L11
.L13:
.LVL18:
.LBE2:
	.loc 1 433 0 discriminator 2
	decl	-208(%ebp)
.LVL19:
	jne	.L14
	jmp	.L12
.L11:
	.loc 1 455 0
	movl	-28(%ebp), %ecx
	xorl	%gs:20, %ecx
	je	.L15
	call	__stack_chk_fail
.LVL20:
.L15:
	leal	-12(%ebp), %esp
	popl	%ebx
	.cfi_restore 3
	popl	%esi
	.cfi_restore 6
	popl	%edi
	.cfi_restore 7
	popl	%ebp
	.cfi_restore 5
	.cfi_def_cfa 4, 4
	ret
	.cfi_endproc
.LFE1:
	.size	uECC_make_key, .-uECC_make_key
	.section	.text.unlikely.uECC_make_key
.LCOLDE1:
	.section	.text.uECC_make_key
.LHOTE1:
	.section	.text.unlikely.uECC_shared_secret,"ax",@progbits
.LCOLDB2:
	.section	.text.uECC_shared_secret,"ax",@progbits
.LHOTB2:
	.globl	uECC_shared_secret
	.type	uECC_shared_secret, @function
uECC_shared_secret:
.LFB2:
	.loc 1 458 0
	.cfi_startproc
.LVL21:
	pushl	%ebp
	.cfi_def_cfa_offset 8
	.cfi_offset 5, -8
	movl	%esp, %ebp
	.cfi_def_cfa_register 5
	pushl	%edi
	pushl	%esi
	pushl	%ebx
	.cfi_offset 7, -12
	.cfi_offset 6, -16
	.cfi_offset 3, -20
	.loc 1 468 0
	movl	$8, %edi
	.loc 1 462 0
	leal	-156(%ebp), %ecx
	.loc 1 458 0
	subl	$176, %esp
	.loc 1 458 0
	movl	8(%ebp), %eax
	movl	20(%ebp), %esi
	.loc 1 462 0
	movl	%ecx, -164(%ebp)
	.loc 1 468 0
	movl	%ecx, -184(%ebp)
	.loc 1 458 0
	movl	%eax, -172(%ebp)
	movl	16(%ebp), %eax
	.loc 1 466 0
	movsbl	1(%esi), %ebx
	.loc 1 458 0
	movl	%eax, -180(%ebp)
	movl	%gs:20, %eax
	movl	%eax, -28(%ebp)
	xorl	%eax, %eax
	.loc 1 462 0
	leal	-124(%ebp), %eax
	movl	%eax, -160(%ebp)
.LVL22:
	.loc 1 465 0
	movb	(%esi), %al
	movb	%al, -173(%ebp)
.LVL23:
	.loc 1 468 0
	movswl	2(%esi), %eax
.LVL24:
	addl	$7, %eax
	cltd
	idivl	%edi
	.loc 1 471 0
	leal	-92(%ebp), %edi
	.loc 1 468 0
	pushl	%eax
.LVL25:
	pushl	12(%ebp)
	pushl	%ecx
	call	uECC_vli_bytesToNative
.LVL26:
	.loc 1 471 0
	addl	$12, %esp
	pushl	%ebx
	pushl	-172(%ebp)
	pushl	%edi
	call	uECC_vli_bytesToNative
.LVL27:
	.loc 1 474 0
	movl	-172(%ebp), %eax
	addl	$12, %esp
	pushl	%ebx
	addl	%ebx, %eax
	pushl	%eax
	movsbl	-173(%ebp), %eax
	leal	(%edi,%eax,4), %eax
	pushl	%eax
	call	uECC_vli_bytesToNative
.LVL28:
	.loc 1 477 0
	movl	-184(%ebp), %ecx
	leal	-124(%ebp), %eax
	pushl	%esi
	pushl	%eax
	pushl	%ecx
	pushl	%ecx
	call	regularize_k
.LVL29:
	.loc 1 485 0
	movw	2(%esi), %dx
	addl	$24, %esp
	pushl	%esi
	incl	%edx
	testl	%eax, %eax
	sete	%al
.LVL30:
	movswl	%dx, %edx
	movzbl	%al, %eax
	pushl	%edx
	pushl	$0
	pushl	-164(%ebp,%eax,4)
	pushl	%edi
	pushl	%edi
	call	EccPoint_mult
.LVL31:
	.loc 1 487 0
	addl	$28, %esp
	pushl	%edi
	pushl	%ebx
	pushl	-180(%ebp)
	call	uECC_vli_nativeToBytes
.LVL32:
	.loc 1 488 0
	popl	%eax
	popl	%edx
	pushl	%esi
	pushl	%edi
	call	EccPoint_isZero
.LVL33:
.LDL1:
	.loc 1 493 0
	addl	$16, %esp
	testl	%eax, %eax
	sete	%al
.LVL34:
	.loc 1 494 0
	movl	-28(%ebp), %edx
	xorl	%gs:20, %edx
	je	.L22
	call	__stack_chk_fail
.LVL35:
.L22:
	leal	-12(%ebp), %esp
	movzbl	%al, %eax
	popl	%ebx
	.cfi_restore 3
.LVL36:
	popl	%esi
	.cfi_restore 6
	popl	%edi
	.cfi_restore 7
	popl	%ebp
	.cfi_restore 5
	.cfi_def_cfa 4, 4
	ret
	.cfi_endproc
.LFE2:
	.size	uECC_shared_secret, .-uECC_shared_secret
	.section	.text.unlikely.uECC_shared_secret
.LCOLDE2:
	.section	.text.uECC_shared_secret
.LHOTE2:
	.text
.Letext0:
	.section	.text.unlikely.uECC_make_key_with_d
.Letext_cold0:
	.section	.note.GNU-stack,"",@progbits
