	.file	"etharp.c"
	.text
.Ltext0:
	.section	.text.unlikely.etharp_free_entry,"ax",@progbits
.LCOLDB0:
	.section	.text.etharp_free_entry,"ax",@progbits
.LHOTB0:
	.section	.text.unlikely.etharp_free_entry
.Ltext_cold0:
	.section	.text.etharp_free_entry
	.type	etharp_free_entry, @function
etharp_free_entry:
.LFB17:
	.file 1 "kernel/protocols/net/core/ipv4/etharp.c"
	.loc 1 163 0
	.cfi_startproc
.LVL0:
	pushl	%ebp
	.cfi_def_cfa_offset 8
	.cfi_offset 5, -8
	movl	%esp, %ebp
	.cfi_def_cfa_register 5
	pushl	%esi
	pushl	%ebx
	.cfi_offset 6, -12
	.cfi_offset 3, -16
	.loc 1 167 0
	imull	$24, %eax, %esi
	.loc 1 163 0
	movl	%eax, %ebx
	.loc 1 167 0
	movl	arp_table(%esi), %eax
.LVL1:
	testl	%eax, %eax
	je	.L2
	.loc 1 170 0
	subl	$12, %esp
	pushl	%eax
	call	pbuf_free
.LVL2:
	.loc 1 171 0
	movl	$0, arp_table(%esi)
	addl	$16, %esp
.L2:
	.loc 1 174 0
	imull	$24, %ebx, %eax
	.loc 1 180 0
	movl	ethzero, %edx
	movl	%edx, arp_table+12(%eax)
	movw	ethzero+4, %dx
	.loc 1 174 0
	movb	$0, arp_table+20(%eax)
	.loc 1 177 0
	movw	$0, arp_table+18(%eax)
	.loc 1 178 0
	movl	$0, arp_table+8(%eax)
	.loc 1 179 0
	movl	$0, arp_table+4(%eax)
	.loc 1 180 0
	movw	%dx, arp_table+16(%eax)
	.loc 1 182 0
	leal	-8(%ebp), %esp
	popl	%ebx
	.cfi_restore 3
.LVL3:
	popl	%esi
	.cfi_restore 6
	popl	%ebp
	.cfi_restore 5
	.cfi_def_cfa 4, 4
	ret
	.cfi_endproc
.LFE17:
	.size	etharp_free_entry, .-etharp_free_entry
	.section	.text.unlikely.etharp_free_entry
.LCOLDE0:
	.section	.text.etharp_free_entry
.LHOTE0:
	.section	.text.unlikely.etharp_find_entry,"ax",@progbits
.LCOLDB1:
	.section	.text.etharp_find_entry,"ax",@progbits
.LHOTB1:
	.type	etharp_find_entry, @function
etharp_find_entry:
.LFB19:
	.loc 1 251 0
	.cfi_startproc
.LVL4:
	pushl	%ebp
	.cfi_def_cfa_offset 8
	.cfi_offset 5, -8
	.loc 1 277 0
	xorl	%ecx, %ecx
.LVL5:
	.loc 1 251 0
	movl	%esp, %ebp
	.cfi_def_cfa_register 5
	pushl	%edi
	pushl	%esi
	pushl	%ebx
	.cfi_offset 7, -12
	.cfi_offset 6, -16
	.cfi_offset 3, -20
	movl	%eax, %esi
	movl	$arp_table, %ebx
	.loc 1 258 0
	xorl	%edi, %edi
	.loc 1 251 0
	subl	$28, %esp
	.loc 1 251 0
	movl	%edx, -36(%ebp)
	.loc 1 258 0
	movw	$0, -32(%ebp)
	movw	$0, -30(%ebp)
	.loc 1 256 0
	movb	$10, -28(%ebp)
	.loc 1 253 0
	movb	$10, -27(%ebp)
	.loc 1 252 0
	movb	$10, -26(%ebp)
	movb	$10, -25(%ebp)
.LVL6:
.L14:
.LBB2:
	.loc 1 280 0
	cmpb	$10, -27(%ebp)
	.loc 1 278 0
	movb	20(%ebx), %al
.LVL7:
	.loc 1 280 0
	jne	.L9
	testb	%al, %al
	jne	.L9
.LVL8:
	.loc 1 283 0
	movb	%cl, -27(%ebp)
	jmp	.L10
.LVL9:
.L9:
	.loc 1 284 0
	testb	%al, %al
	je	.L10
	.loc 1 288 0
	testl	%esi, %esi
	je	.L11
	.loc 1 288 0 is_stmt 0 discriminator 1
	movl	4(%ebx), %edx
	cmpl	%edx, (%esi)
	jne	.L11
	.loc 1 295 0 is_stmt 1
	movb	%cl, %al
.LVL10:
	jmp	.L43
.LVL11:
.L11:
	.loc 1 298 0
	decb	%al
.LVL12:
	movw	18(%ebx), %ax
	jne	.L44
	.loc 1 300 0
	cmpl	$0, (%ebx)
	je	.L13
	.loc 1 301 0
	cmpw	%di, %ax
	jb	.L10
.LVL13:
	.loc 1 302 0
	movb	%cl, -28(%ebp)
.LVL14:
	movl	%eax, %edi
.LVL15:
.L10:
.LBE2:
	.loc 1 277 0 discriminator 2
	incl	%ecx
.LVL16:
	addl	$24, %ebx
	cmpb	$10, %cl
	jne	.L14
	.loc 1 332 0
	testb	$2, -36(%ebp)
	.loc 1 336 0
	movb	$-1, %al
	.loc 1 332 0
	jne	.L43
	.loc 1 350 0 discriminator 1
	movb	-27(%ebp), %bl
	movl	-36(%ebp), %edx
	.loc 1 332 0 discriminator 1
	cmpb	$10, %bl
	jne	.L17
	.loc 1 334 0
	andb	$1, %dl
	je	.L43
	.loc 1 354 0
	cmpb	$10, -26(%ebp)
	je	.L18
	.loc 1 356 0
	movb	-26(%ebp), %bl
.LVL17:
	jmp	.L19
.LVL18:
.L18:
	.loc 1 361 0
	cmpb	$10, -25(%ebp)
	je	.L20
	.loc 1 363 0
	movb	-25(%ebp), %bl
.LVL19:
	jmp	.L19
.LVL20:
.L20:
	.loc 1 366 0
	cmpb	$10, -28(%ebp)
	.loc 1 336 0
	movb	$-1, %al
	.loc 1 366 0
	je	.L43
	.loc 1 368 0
	movb	-28(%ebp), %bl
.LVL21:
.L19:
	.loc 1 378 0
	movzbl	%bl, %eax
	call	etharp_free_entry
.LVL22:
.L17:
	.loc 1 386 0
	testl	%esi, %esi
	movzbl	%bl, %eax
	je	.L21
	.loc 1 388 0
	movl	(%esi), %ecx
	imull	$24, %eax, %edx
	movl	%ecx, arp_table+4(%edx)
.L21:
	.loc 1 390 0
	imull	$24, %eax, %eax
	movw	$0, arp_table+18(%eax)
	.loc 1 394 0
	movb	%bl, %al
	jmp	.L43
.LVL23:
.L13:
.LBB3:
	.loc 1 308 0
	cmpw	-30(%ebp), %ax
	jb	.L10
.LVL24:
	.loc 1 309 0
	movb	%cl, -25(%ebp)
.LVL25:
	movw	%ax, -30(%ebp)
	jmp	.L10
.LVL26:
.L44:
	.loc 1 321 0
	cmpw	-32(%ebp), %ax
	jb	.L10
.LVL27:
	.loc 1 322 0
	movb	%cl, -26(%ebp)
.LVL28:
	movw	%ax, -32(%ebp)
	jmp	.L10
.LVL29:
.L43:
.LBE3:
	.loc 1 395 0
	addl	$28, %esp
	popl	%ebx
	.cfi_restore 3
	popl	%esi
	.cfi_restore 6
.LVL30:
	popl	%edi
	.cfi_restore 7
.LVL31:
	popl	%ebp
	.cfi_restore 5
	.cfi_def_cfa 4, 4
.LVL32:
	ret
	.cfi_endproc
.LFE19:
	.size	etharp_find_entry, .-etharp_find_entry
	.section	.text.unlikely.etharp_find_entry
.LCOLDE1:
	.section	.text.etharp_find_entry
.LHOTE1:
	.section	.text.unlikely.etharp_raw.constprop.0,"ax",@progbits
.LCOLDB2:
	.section	.text.etharp_raw.constprop.0,"ax",@progbits
.LHOTB2:
	.type	etharp_raw.constprop.0, @function
etharp_raw.constprop.0:
.LFB31:
	.loc 1 1120 0
	.cfi_startproc
.LVL33:
	pushl	%ebp
	.cfi_def_cfa_offset 8
	.cfi_offset 5, -8
	movl	%esp, %ebp
	.cfi_def_cfa_register 5
	pushl	%edi
	pushl	%esi
	pushl	%ebx
	.cfi_offset 7, -12
	.cfi_offset 6, -16
	.cfi_offset 3, -20
	movl	%ecx, %edi
	subl	$32, %esp
	.loc 1 1120 0
	movl	%eax, -28(%ebp)
	movl	%edx, -32(%ebp)
	.loc 1 1133 0
	pushl	$0
	pushl	$28
	pushl	$2
	.loc 1 1120 0
	movl	8(%ebp), %ebx
	.loc 1 1133 0
	call	pbuf_alloc
.LVL34:
	.loc 1 1135 0
	addl	$16, %esp
	testl	%eax, %eax
	je	.L48
	.loc 1 1146 0
	subl	$12, %esp
	.loc 1 1144 0
	movl	4(%eax), %edx
	movl	%eax, %esi
	.loc 1 1146 0
	pushl	$1
	.loc 1 1144 0
	movl	%edx, -36(%ebp)
.LVL35:
	.loc 1 1146 0
	call	lwip_htons
.LVL36:
	movl	-36(%ebp), %edx
	movw	%ax, 6(%edx)
	.loc 1 1152 0
	movl	(%ebx), %eax
	movl	%eax, 8(%edx)
	movw	4(%ebx), %ax
	movw	%ax, 12(%edx)
	.loc 1 1153 0
	movl	ethzero, %eax
	movl	%eax, 18(%edx)
	movw	ethzero+4, %ax
	movw	%ax, 22(%edx)
	.loc 1 1156 0
	movl	12(%ebp), %eax
	movl	(%eax), %eax
	movl	%eax, 14(%edx)
	.loc 1 1157 0
	movl	16(%ebp), %eax
	movl	(%eax), %eax
	.loc 1 1159 0
	movw	$256, (%edx)
	.loc 1 1160 0
	movw	$8, 2(%edx)
	.loc 1 1162 0
	movb	$6, 4(%edx)
	.loc 1 1163 0
	movb	$4, 5(%edx)
	.loc 1 1157 0
	movl	%eax, 24(%edx)
	.loc 1 1175 0
	movl	$2054, (%esp)
	pushl	%edi
	pushl	-32(%ebp)
	pushl	%esi
	pushl	-28(%ebp)
	call	ethernet_output
.LVL37:
	.loc 1 1180 0
	addl	$20, %esp
	pushl	%esi
	call	pbuf_free
.LVL38:
	addl	$16, %esp
	.loc 1 1184 0
	xorl	%eax, %eax
	jmp	.L47
.LVL39:
.L48:
	.loc 1 1139 0
	movb	$-1, %al
.LVL40:
.L47:
	.loc 1 1185 0
	leal	-12(%ebp), %esp
	popl	%ebx
	.cfi_restore 3
	popl	%esi
	.cfi_restore 6
	popl	%edi
	.cfi_restore 7
.LVL41:
	popl	%ebp
	.cfi_restore 5
	.cfi_def_cfa 4, 4
	ret
	.cfi_endproc
.LFE31:
	.size	etharp_raw.constprop.0, .-etharp_raw.constprop.0
	.section	.text.unlikely.etharp_raw.constprop.0
.LCOLDE2:
	.section	.text.etharp_raw.constprop.0
.LHOTE2:
	.section	.text.unlikely.etharp_cleanup_netif,"ax",@progbits
.LCOLDB3:
	.section	.text.etharp_cleanup_netif,"ax",@progbits
.LHOTB3:
	.globl	etharp_cleanup_netif
	.type	etharp_cleanup_netif, @function
etharp_cleanup_netif:
.LFB21:
	.loc 1 552 0
	.cfi_startproc
.LVL42:
	pushl	%ebp
	.cfi_def_cfa_offset 8
	.cfi_offset 5, -8
	movl	%esp, %ebp
	.cfi_def_cfa_register 5
	pushl	%esi
	.cfi_offset 6, -12
	movl	$arp_table, %esi
	pushl	%ebx
	.cfi_offset 3, -16
	.loc 1 552 0
	xorl	%ebx, %ebx
.LVL43:
.L52:
.LBB4:
	.loc 1 557 0
	cmpb	$0, 20(%esi)
	je	.L51
	.loc 1 557 0 is_stmt 0 discriminator 1
	movl	8(%ebp), %eax
	cmpl	%eax, 8(%esi)
	jne	.L51
	.loc 1 558 0 is_stmt 1
	movl	%ebx, %eax
	call	etharp_free_entry
.LVL44:
.L51:
	incl	%ebx
.LVL45:
	addl	$24, %esi
.LBE4:
	.loc 1 555 0 discriminator 2
	cmpl	$10, %ebx
	jne	.L52
	.loc 1 561 0
	popl	%ebx
	.cfi_restore 3
	popl	%esi
	.cfi_restore 6
	popl	%ebp
	.cfi_restore 5
	.cfi_def_cfa 4, 4
	ret
	.cfi_endproc
.LFE21:
	.size	etharp_cleanup_netif, .-etharp_cleanup_netif
	.section	.text.unlikely.etharp_cleanup_netif
.LCOLDE3:
	.section	.text.etharp_cleanup_netif
.LHOTE3:
	.section	.text.unlikely.etharp_find_addr,"ax",@progbits
.LCOLDB4:
	.section	.text.etharp_find_addr,"ax",@progbits
.LHOTB4:
	.globl	etharp_find_addr
	.type	etharp_find_addr, @function
etharp_find_addr:
.LFB22:
	.loc 1 577 0
	.cfi_startproc
.LVL46:
	pushl	%ebp
	.cfi_def_cfa_offset 8
	.cfi_offset 5, -8
	.loc 1 585 0
	movl	$2, %edx
	.loc 1 577 0
	movl	%esp, %ebp
	.cfi_def_cfa_register 5
	pushl	%ebx
	pushl	%ecx
	.cfi_offset 3, -12
	.loc 1 585 0
	movl	8(%ebp), %ecx
	movl	12(%ebp), %eax
	call	etharp_find_entry
.LVL47:
	.loc 1 586 0
	testb	%al, %al
	.loc 1 591 0
	movb	$-1, %cl
	.loc 1 586 0
	js	.L56
	.loc 1 586 0 is_stmt 0 discriminator 1
	movsbl	%al, %edx
	imull	$24, %edx, %edx
	addl	$arp_table, %edx
	cmpb	$1, 20(%edx)
	jbe	.L56
	.loc 1 587 0 is_stmt 1
	movl	16(%ebp), %ecx
	leal	12(%edx), %ebx
	.loc 1 588 0
	addl	$4, %edx
	.loc 1 587 0
	movl	%ebx, (%ecx)
	.loc 1 588 0
	movl	20(%ebp), %ecx
	movl	%edx, (%ecx)
	.loc 1 589 0
	movb	%al, %cl
.L56:
	.loc 1 592 0
	popl	%edx
	movb	%cl, %al
.LVL48:
	popl	%ebx
	.cfi_restore 3
	popl	%ebp
	.cfi_restore 5
	.cfi_def_cfa 4, 4
	ret
	.cfi_endproc
.LFE22:
	.size	etharp_find_addr, .-etharp_find_addr
	.section	.text.unlikely.etharp_find_addr
.LCOLDE4:
	.section	.text.etharp_find_addr
.LHOTE4:
	.section	.text.unlikely.etharp_get_entry,"ax",@progbits
.LCOLDB5:
	.section	.text.etharp_get_entry,"ax",@progbits
.LHOTB5:
	.globl	etharp_get_entry
	.type	etharp_get_entry, @function
etharp_get_entry:
.LFB23:
	.loc 1 605 0
	.cfi_startproc
.LVL49:
	pushl	%ebp
	.cfi_def_cfa_offset 8
	.cfi_offset 5, -8
	.loc 1 616 0
	xorl	%eax, %eax
	.loc 1 605 0
	movl	%esp, %ebp
	.cfi_def_cfa_register 5
	.loc 1 605 0
	movl	8(%ebp), %edx
	.loc 1 610 0
	cmpb	$9, %dl
	ja	.L61
	.loc 1 610 0 is_stmt 0 discriminator 1
	movzbl	%dl, %edx
	imull	$24, %edx, %edx
	addl	$arp_table, %edx
	cmpb	$1, 20(%edx)
	jbe	.L61
	.loc 1 611 0 is_stmt 1
	movl	12(%ebp), %eax
	leal	4(%edx), %ecx
	.loc 1 613 0
	addl	$12, %edx
	.loc 1 611 0
	movl	%ecx, (%eax)
	.loc 1 612 0
	movl	16(%ebp), %eax
	movl	-4(%edx), %ecx
	movl	%ecx, (%eax)
	.loc 1 613 0
	movl	20(%ebp), %eax
	movl	%edx, (%eax)
	.loc 1 614 0
	movb	$1, %al
.L61:
	.loc 1 618 0
	popl	%ebp
	.cfi_restore 5
	.cfi_def_cfa 4, 4
	ret
	.cfi_endproc
.LFE23:
	.size	etharp_get_entry, .-etharp_get_entry
	.section	.text.unlikely.etharp_get_entry
.LCOLDE5:
	.section	.text.etharp_get_entry
.LHOTE5:
	.section	.rodata.str1.1,"aMS",@progbits,1
.LC6:
	.string	"netif != NULL"
	.section	.text.unlikely.etharp_input,"ax",@progbits
.LCOLDB7:
	.section	.text.etharp_input,"ax",@progbits
.LHOTB7:
	.globl	etharp_input
	.type	etharp_input, @function
etharp_input:
.LFB24:
	.loc 1 634 0
	.cfi_startproc
.LVL50:
	pushl	%ebp
	.cfi_def_cfa_offset 8
	.cfi_offset 5, -8
	movl	%esp, %ebp
	.cfi_def_cfa_register 5
	pushl	%edi
	pushl	%esi
	pushl	%ebx
	subl	$44, %esp
	.cfi_offset 7, -12
	.cfi_offset 6, -16
	.cfi_offset 3, -20
	.loc 1 634 0
	movl	8(%ebp), %eax
	movl	12(%ebp), %esi
	movl	%eax, -48(%ebp)
	movl	%gs:20, %eax
	movl	%eax, -28(%ebp)
	xorl	%eax, %eax
	.loc 1 640 0
	testl	%esi, %esi
	jne	.L66
	.loc 1 640 0 discriminator 1
	subl	$12, %esp
	pushl	$.LC6
	call	bk_printf
.LVL51:
	jmp	.L90
.L66:
	.loc 1 642 0
	movl	-48(%ebp), %eax
	movl	4(%eax), %ebx
.LVL52:
	.loc 1 645 0
	cmpw	$256, (%ebx)
	jne	.L74
	.loc 1 645 0 is_stmt 0 discriminator 1
	cmpb	$6, 4(%ebx)
	jne	.L74
	.loc 1 646 0 is_stmt 1
	cmpb	$4, 5(%ebx)
	jne	.L74
	.loc 1 647 0
	cmpw	$8, 2(%ebx)
	jne	.L74
	.loc 1 672 0
	movl	4(%esi), %eax
	.loc 1 668 0
	movl	14(%ebx), %ecx
	.loc 1 669 0
	movl	24(%ebx), %edi
.LVL53:
	.loc 1 672 0
	testl	%eax, %eax
	.loc 1 668 0
	movl	%ecx, -32(%ebp)
	.loc 1 672 0
	je	.L78
.LVL54:
	.loc 1 676 0
	cmpl	%eax, %edi
	.loc 1 684 0
	setne	%dl
	.loc 1 676 0
	sete	-41(%ebp)
.LVL55:
	.loc 1 684 0
	movzbl	%dl, %edx
	incl	%edx
	cmpl	%eax, %edi
	movzbl	-41(%ebp), %edi
.LVL56:
	movb	$0, %al
	cmovne	%eax, %edi
	movl	%edi, %eax
	movb	%al, -41(%ebp)
	jmp	.L70
.LVL57:
.L78:
	.loc 1 673 0
	movb	$0, -41(%ebp)
	.loc 1 684 0
	movl	$2, %edx
.LVL58:
.L70:
.LBB8:
.LBB9:
	.loc 1 425 0 discriminator 4
	testl	%ecx, %ecx
	movl	%edx, -52(%ebp)
.LBE9:
.LBE8:
	.loc 1 684 0 discriminator 4
	leal	8(%ebx), %edi
.LVL59:
.LBB12:
.LBB11:
	.loc 1 425 0 discriminator 4
	je	.L72
	.loc 1 426 0
	pushl	%eax
.LVL60:
	pushl	%eax
	pushl	%esi
	pushl	%ecx
	call	ip4_addr_isbroadcast_u32
.LVL61:
	.loc 1 425 0
	addl	$16, %esp
	testb	%al, %al
	jne	.L72
	.loc 1 426 0
	movl	-32(%ebp), %eax
	andl	$240, %eax
	cmpl	$224, %eax
	je	.L72
	.loc 1 432 0
	movl	-52(%ebp), %edx
	leal	-32(%ebp), %eax
.LVL62:
	movl	%esi, %ecx
	call	etharp_find_entry
.LVL63:
	.loc 1 434 0
	testb	%al, %al
	js	.L72
	.loc 1 449 0
	movsbl	%al, %eax
	imull	$24, %eax, %eax
.LVL64:
	movb	$2, arp_table+20(%eax)
	.loc 1 453 0
	movl	%esi, arp_table+8(%eax)
	.loc 1 459 0
	movl	8(%ebx), %ecx
	.loc 1 475 0
	movl	arp_table(%eax), %edx
	.loc 1 459 0
	movl	%ecx, arp_table+12(%eax)
	movw	4(%edi), %cx
	.loc 1 475 0
	testl	%edx, %edx
	.loc 1 461 0
	movw	$0, arp_table+18(%eax)
	.loc 1 459 0
	movw	%cx, arp_table+16(%eax)
	.loc 1 475 0
	je	.L72
.LVL65:
.LBB10:
	.loc 1 477 0
	movl	$0, arp_table(%eax)
	.loc 1 480 0
	leal	55(%esi), %eax
	subl	$12, %esp
	pushl	$2048
	pushl	%edi
	pushl	%eax
	pushl	%edx
	pushl	%esi
	movl	%edx, -52(%ebp)
.LVL66:
	call	ethernet_output
.LVL67:
	.loc 1 482 0
	movl	-52(%ebp), %edx
	addl	$20, %esp
	pushl	%edx
	call	pbuf_free
.LVL68:
	addl	$16, %esp
.LVL69:
.L72:
.LBE10:
.LBE11:
.LBE12:
	.loc 1 688 0
	cmpw	$256, 6(%ebx)
	jne	.L74
	.loc 1 697 0
	cmpb	$0, -41(%ebp)
	je	.L74
	.loc 1 703 0
	subl	$12, %esp
	pushl	$2
	call	lwip_htons
.LVL70:
	movw	%ax, 6(%ebx)
	.loc 1 705 0
	movl	14(%ebx), %eax
	.loc 1 714 0
	movl	8(%ebx), %edx
	.loc 1 705 0
	movl	%eax, 24(%ebx)
	.loc 1 706 0
	movl	4(%esi), %eax
	.loc 1 714 0
	movl	%edx, 18(%ebx)
	.loc 1 706 0
	movl	%eax, 14(%ebx)
	.loc 1 714 0
	movw	4(%edi), %dx
	leal	18(%ebx), %eax
	movw	%dx, 22(%ebx)
	.loc 1 715 0
	movl	55(%esi), %edx
	movl	%edx, 8(%ebx)
	movw	59(%esi), %dx
	movw	%dx, 4(%edi)
	.loc 1 727 0
	movl	$2054, (%esp)
	pushl	%eax
	pushl	%edi
	pushl	-48(%ebp)
	pushl	%esi
	call	ethernet_output
.LVL71:
	addl	$32, %esp
.L74:
	.loc 1 757 0 discriminator 7
	subl	$12, %esp
	pushl	-48(%ebp)
	call	pbuf_free
.LVL72:
.L90:
	addl	$16, %esp
	.loc 1 758 0 discriminator 7
	movl	-28(%ebp), %eax
	xorl	%gs:20, %eax
	je	.L77
	.loc 1 758 0 is_stmt 0
	call	__stack_chk_fail
.LVL73:
.L77:
	leal	-12(%ebp), %esp
	popl	%ebx
	.cfi_restore 3
	popl	%esi
	.cfi_restore 6
	popl	%edi
	.cfi_restore 7
	popl	%ebp
	.cfi_restore 5
	.cfi_def_cfa 4, 4
	ret
	.cfi_endproc
.LFE24:
	.size	etharp_input, .-etharp_input
	.section	.text.unlikely.etharp_input
.LCOLDE7:
	.section	.text.etharp_input
.LHOTE7:
	.section	.text.unlikely.etharp_request,"ax",@progbits
.LCOLDB8:
	.section	.text.etharp_request,"ax",@progbits
.LHOTB8:
	.globl	etharp_request
	.type	etharp_request, @function
etharp_request:
.LFB30:
	.loc 1 1218 0 is_stmt 1
	.cfi_startproc
.LVL74:
	pushl	%ebp
	.cfi_def_cfa_offset 8
	.cfi_offset 5, -8
	movl	%esp, %ebp
	.cfi_def_cfa_register 5
	subl	$12, %esp
	.loc 1 1218 0
	movl	8(%ebp), %eax
.LVL75:
.LBB15:
.LBB16:
	.loc 1 1202 0
	pushl	12(%ebp)
	.loc 1 1203 0
	leal	4(%eax), %ecx
	.loc 1 1202 0
	leal	55(%eax), %edx
	pushl	%ecx
	pushl	%edx
	movl	$ethbroadcast, %ecx
	call	etharp_raw.constprop.0
.LVL76:
.LBE16:
.LBE15:
	.loc 1 1221 0
	leave
	.cfi_restore 5
	.cfi_def_cfa 4, 4
	ret
	.cfi_endproc
.LFE30:
	.size	etharp_request, .-etharp_request
	.section	.text.unlikely.etharp_request
.LCOLDE8:
	.section	.text.etharp_request
.LHOTE8:
	.section	.text.unlikely.etharp_tmr,"ax",@progbits
.LCOLDB9:
	.section	.text.etharp_tmr,"ax",@progbits
.LHOTB9:
	.globl	etharp_tmr
	.type	etharp_tmr, @function
etharp_tmr:
.LFB18:
	.loc 1 192 0
	.cfi_startproc
.LVL77:
	pushl	%ebp
	.cfi_def_cfa_offset 8
	.cfi_offset 5, -8
	movl	%esp, %ebp
	.cfi_def_cfa_register 5
	pushl	%esi
	.cfi_offset 6, -12
	xorl	%esi, %esi
	pushl	%ebx
	.cfi_offset 3, -16
	movl	$arp_table+4, %ebx
.LVL78:
.L100:
.LBB17:
	.loc 1 198 0
	movb	16(%ebx), %dl
.LVL79:
	.loc 1 199 0
	testb	%dl, %dl
	je	.L95
	.loc 1 204 0
	movw	14(%ebx), %ax
	incl	%eax
	.loc 1 205 0
	cmpw	$299, %ax
	.loc 1 204 0
	movw	%ax, 14(%ebx)
	.loc 1 205 0
	ja	.L96
	.loc 1 205 0 is_stmt 0 discriminator 1
	cmpb	$1, %dl
	jne	.L97
	.loc 1 206 0 is_stmt 1
	cmpw	$4, %ax
	jbe	.L98
.L96:
	.loc 1 212 0
	movl	%esi, %eax
	call	etharp_free_entry
.LVL80:
	jmp	.L95
.LVL81:
.L97:
	.loc 1 213 0
	cmpb	$3, %dl
	jne	.L99
	.loc 1 215 0
	movb	$4, 16(%ebx)
	jmp	.L95
.L98:
	.loc 1 222 0
	pushl	%eax
	pushl	%eax
	pushl	%ebx
	pushl	4(%ebx)
	call	etharp_request
.LVL82:
	addl	$16, %esp
.L95:
.LVL83:
	incl	%esi
.LVL84:
	addl	$24, %ebx
.LBE17:
	.loc 1 197 0 discriminator 2
	cmpl	$10, %esi
	jne	.L100
	.loc 1 226 0
	leal	-8(%ebp), %esp
	popl	%ebx
	.cfi_remember_state
	.cfi_restore 3
	popl	%esi
	.cfi_restore 6
	popl	%ebp
	.cfi_restore 5
	.cfi_def_cfa 4, 4
	ret
.LVL85:
.L99:
	.cfi_restore_state
.LBB18:
	.loc 1 216 0
	cmpb	$4, %dl
	jne	.L95
	.loc 1 219 0
	movb	$2, 16(%ebx)
	jmp	.L95
.LBE18:
	.cfi_endproc
.LFE18:
	.size	etharp_tmr, .-etharp_tmr
	.section	.text.unlikely.etharp_tmr
.LCOLDE9:
	.section	.text.etharp_tmr
.LHOTE9:
	.section	.text.unlikely.etharp_output_to_arp_index,"ax",@progbits
.LCOLDB10:
	.section	.text.etharp_output_to_arp_index,"ax",@progbits
.LHOTB10:
	.type	etharp_output_to_arp_index, @function
etharp_output_to_arp_index:
.LFB25:
	.loc 1 765 0
	.cfi_startproc
.LVL86:
	pushl	%ebp
	.cfi_def_cfa_offset 8
	.cfi_offset 5, -8
	movl	%esp, %ebp
	.cfi_def_cfa_register 5
	pushl	%edi
	pushl	%esi
	.cfi_offset 7, -12
	.cfi_offset 6, -16
	.loc 1 771 0
	movzbl	%cl, %esi
	.loc 1 765 0
	pushl	%ebx
	movl	%eax, %edi
	.cfi_offset 3, -20
	.loc 1 771 0
	imull	$24, %esi, %ebx
	.loc 1 765 0
	subl	$28, %esp
	.loc 1 765 0
	movl	%edx, -28(%ebp)
	.loc 1 771 0
	addl	$arp_table, %ebx
	cmpb	$2, 20(%ebx)
	jne	.L108
	.loc 1 772 0
	movw	18(%ebx), %ax
.LVL87:
	cmpw	$284, %ax
	jbe	.L109
	.loc 1 774 0
	leal	4(%ebx), %eax
.LVL88:
	pushl	%edx
	pushl	%edx
	pushl	%eax
	pushl	%edi
	call	etharp_request
.LVL89:
	jmp	.L114
.LVL90:
.L109:
	.loc 1 777 0
	cmpw	$269, %ax
	jbe	.L108
.LVL91:
.LBB21:
.LBB22:
	.loc 1 1202 0
	pushl	%eax
.LBE22:
.LBE21:
	.loc 1 779 0
	leal	4(%ebx), %eax
.LBB25:
.LBB23:
	.loc 1 1202 0
	leal	55(%edi), %edx
.LVL92:
.LBE23:
.LBE25:
	.loc 1 779 0
	leal	12(%ebx), %ecx
.LVL93:
.LBB26:
.LBB24:
	.loc 1 1202 0
	pushl	%eax
	.loc 1 1203 0
	leal	4(%edi), %eax
	.loc 1 1202 0
	pushl	%eax
	pushl	%edx
	movl	%edi, %eax
	call	etharp_raw.constprop.0
.LVL94:
.L114:
.LBE24:
.LBE26:
	.loc 1 779 0
	addl	$16, %esp
	testb	%al, %al
	jne	.L108
	.loc 1 780 0
	movb	$3, 20(%ebx)
.L108:
	.loc 1 785 0
	imull	$24, %esi, %esi
.LVL95:
	leal	55(%edi), %eax
	subl	$12, %esp
	pushl	$2048
	addl	$arp_table+12, %esi
	pushl	%esi
	pushl	%eax
	pushl	-28(%ebp)
	pushl	%edi
	call	ethernet_output
.LVL96:
	.loc 1 786 0
	leal	-12(%ebp), %esp
	popl	%ebx
	.cfi_restore 3
	popl	%esi
	.cfi_restore 6
	popl	%edi
	.cfi_restore 7
.LVL97:
	popl	%ebp
	.cfi_restore 5
	.cfi_def_cfa 4, 4
.LVL98:
	ret
	.cfi_endproc
.LFE25:
	.size	etharp_output_to_arp_index, .-etharp_output_to_arp_index
	.section	.text.unlikely.etharp_output_to_arp_index
.LCOLDE10:
	.section	.text.etharp_output_to_arp_index
.LHOTE10:
	.section	.text.unlikely.etharp_query,"ax",@progbits
.LCOLDB11:
	.section	.text.etharp_query,"ax",@progbits
.LHOTB11:
	.globl	etharp_query
	.type	etharp_query, @function
etharp_query:
.LFB27:
	.loc 1 949 0
	.cfi_startproc
.LVL99:
	pushl	%ebp
	.cfi_def_cfa_offset 8
	.cfi_offset 5, -8
	movl	%esp, %ebp
	.cfi_def_cfa_register 5
	pushl	%edi
	pushl	%esi
	pushl	%ebx
	subl	$36, %esp
	.cfi_offset 7, -12
	.cfi_offset 6, -16
	.cfi_offset 3, -20
	.loc 1 949 0
	movl	8(%ebp), %edi
.LVL100:
	.loc 1 956 0
	movl	12(%ebp), %eax
	.loc 1 949 0
	movl	16(%ebp), %ebx
	.loc 1 956 0
	pushl	%edi
	pushl	(%eax)
	call	ip4_addr_isbroadcast_u32
.LVL101:
	addl	$16, %esp
	testb	%al, %al
	.loc 1 960 0
	movb	$-16, %dl
	.loc 1 956 0
	jne	.L140
	.loc 1 957 0 discriminator 1
	movl	12(%ebp), %eax
	movl	(%eax), %eax
	.loc 1 958 0 discriminator 1
	movl	%eax, %edx
	andl	$240, %edx
	cmpl	$224, %edx
	je	.L130
	testl	%eax, %eax
	je	.L130
	.loc 1 964 0
	movl	12(%ebp), %eax
	movl	%edi, %ecx
	movl	$1, %edx
	call	etharp_find_entry
.LVL102:
	.loc 1 967 0
	testb	%al, %al
	.loc 1 964 0
	movb	%al, %cl
.LVL103:
	movb	%al, %dl
	.loc 1 967 0
	js	.L140
	.loc 1 977 0
	movsbl	%al, %esi
	.loc 1 952 0
	xorl	%edx, %edx
	.loc 1 977 0
	imull	$24, %esi, %eax
.LVL104:
	addl	$arp_table, %eax
	cmpb	$0, 20(%eax)
	jne	.L117
.LVL105:
	.loc 1 979 0
	movb	$1, 20(%eax)
	.loc 1 981 0
	movl	%edi, 8(%eax)
	.loc 1 978 0
	movl	$1, %edx
.LVL106:
.L117:
	.loc 1 990 0
	testl	%ebx, %ebx
	je	.L137
	testl	%edx, %edx
	.loc 1 951 0
	movb	$-1, %al
	.loc 1 990 0
	je	.L118
.L137:
	.loc 1 992 0
	pushl	%eax
	pushl	%eax
	pushl	12(%ebp)
	pushl	%edi
	movb	%cl, -25(%ebp)
	call	etharp_request
.LVL107:
	.loc 1 999 0
	addl	$16, %esp
	testl	%ebx, %ebx
	.loc 1 1000 0
	movb	%al, %dl
	.loc 1 999 0
	movb	-25(%ebp), %cl
	je	.L140
.LVL108:
.L118:
	.loc 1 1007 0
	imull	$24, %esi, %edx
	addl	$arp_table, %edx
	cmpb	$1, 20(%edx)
	jbe	.L120
	.loc 1 950 0
	leal	55(%edi), %eax
.LVL109:
	.loc 1 1011 0
	subl	$12, %esp
	addl	$12, %edx
	pushl	$2048
	pushl	%edx
	pushl	%eax
	pushl	%ebx
	pushl	%edi
	.loc 1 1009 0
	movb	%cl, etharp_cached_entry
	.loc 1 1011 0
	call	ethernet_output
.LVL110:
	addl	$32, %esp
	movb	%al, %dl
	jmp	.L140
.L120:
.LBB27:
	movb	%al, %dl
.LBE27:
	movl	%ebx, %eax
.LVL111:
	.loc 1 1013 0
	jne	.L140
.L121:
.LVL112:
.LBB28:
	.loc 1 1021 0
	testl	%eax, %eax
	je	.L146
	.loc 1 1023 0
	cmpb	$1, 12(%eax)
	jne	.L122
	.loc 1 1027 0
	movl	(%eax), %eax
.LVL113:
	jmp	.L121
.LVL114:
.L130:
.LBE28:
	.loc 1 960 0
	movb	$-16, %dl
	jmp	.L140
.LVL115:
.L146:
.LBB29:
	.loc 1 1041 0
	subl	$12, %esp
	pushl	%ebx
	call	pbuf_ref
.LVL116:
	.loc 1 1044 0
	addl	$16, %esp
	testl	%ebx, %ebx
	je	.L126
.LVL117:
.L125:
	.loc 1 1087 0
	imull	$24, %esi, %eax
	movl	arp_table(%eax), %eax
	testl	%eax, %eax
	je	.L127
	.loc 1 1089 0
	subl	$12, %esp
	pushl	%eax
	call	pbuf_free
.LVL118:
	addl	$16, %esp
.L127:
	.loc 1 1091 0
	imull	$24, %esi, %esi
.LVL119:
	.loc 1 1092 0
	xorl	%edx, %edx
	.loc 1 1091 0
	movl	%ebx, arp_table(%esi)
.LVL120:
	jmp	.L140
.LVL121:
.L122:
	.loc 1 1031 0
	movzwl	8(%eax), %eax
.LVL122:
.LVL123:
	pushl	%edx
	pushl	$0
	pushl	%eax
	pushl	$2
	call	pbuf_alloc
.LVL124:
	.loc 1 1032 0
	addl	$16, %esp
	testl	%eax, %eax
	.loc 1 1031 0
	movl	%eax, %edi
.LVL125:
	.loc 1 1032 0
	je	.L126
	.loc 1 1033 0
	pushl	%ecx
	pushl	%ecx
	pushl	%ebx
	pushl	%edi
	movl	%edi, %ebx
	call	pbuf_copy
.LVL126:
	addl	$16, %esp
	testb	%al, %al
	je	.L125
	.loc 1 1034 0
	subl	$12, %esp
	pushl	%edi
	call	pbuf_free
.LVL127:
	addl	$16, %esp
.LVL128:
.L126:
	.loc 1 1098 0
	movb	$-1, %dl
.LVL129:
.L140:
.LBE29:
	.loc 1 1102 0
	leal	-12(%ebp), %esp
	movb	%dl, %al
	popl	%ebx
	.cfi_restore 3
	popl	%esi
	.cfi_restore 6
	popl	%edi
	.cfi_restore 7
	popl	%ebp
	.cfi_restore 5
	.cfi_def_cfa 4, 4
	ret
	.cfi_endproc
.LFE27:
	.size	etharp_query, .-etharp_query
	.section	.text.unlikely.etharp_query
.LCOLDE11:
	.section	.text.etharp_query
.LHOTE11:
	.section	.text.unlikely.etharp_output,"ax",@progbits
.LCOLDB12:
	.section	.text.etharp_output,"ax",@progbits
.LHOTB12:
	.globl	etharp_output
	.type	etharp_output, @function
etharp_output:
.LFB26:
	.loc 1 808 0
	.cfi_startproc
.LVL130:
	pushl	%ebp
	.cfi_def_cfa_offset 8
	.cfi_offset 5, -8
	movl	%esp, %ebp
	.cfi_def_cfa_register 5
	pushl	%edi
	pushl	%esi
	pushl	%ebx
	subl	$52, %esp
	.cfi_offset 7, -12
	.cfi_offset 6, -16
	.cfi_offset 3, -20
	.loc 1 808 0
	movl	8(%ebp), %ebx
	movl	16(%ebp), %esi
	movl	12(%ebp), %edx
	movl	%gs:20, %eax
	movl	%eax, -28(%ebp)
	xorl	%eax, %eax
.LVL131:
	.loc 1 821 0
	pushl	%ebx
	pushl	(%esi)
	.loc 1 808 0
	movl	%edx, -44(%ebp)
	.loc 1 821 0
	call	ip4_addr_isbroadcast_u32
.LVL132:
	addl	$16, %esp
	testb	%al, %al
	movl	-44(%ebp), %edx
	jne	.L156
	.loc 1 825 0
	movl	(%esi), %eax
	movl	%eax, %ecx
	andl	$240, %ecx
	cmpl	$224, %ecx
	jne	.L149
	.loc 1 830 0
	movb	1(%esi), %al
	.loc 1 827 0
	movb	$1, -34(%ebp)
	.loc 1 828 0
	movb	$0, -33(%ebp)
	.loc 1 829 0
	movb	$94, -32(%ebp)
	.loc 1 830 0
	andl	$127, %eax
	movb	%al, -31(%ebp)
	.loc 1 831 0
	movb	2(%esi), %al
	movb	%al, -30(%ebp)
	.loc 1 832 0
	movb	3(%esi), %al
	movb	%al, -29(%ebp)
.LVL133:
	.loc 1 834 0
	leal	-34(%ebp), %eax
.LVL134:
	jmp	.L148
.LVL135:
.L149:
.LBB30:
	.loc 1 840 0
	movl	4(%ebx), %ecx
	xorl	%eax, %ecx
	testl	%ecx, 8(%ebx)
	je	.L150
	.loc 1 840 0 is_stmt 0 discriminator 1
	cmpw	$-343, %ax
	je	.L150
	.loc 1 859 0 is_stmt 1
	cmpl	$0, 12(%ebx)
	.loc 1 865 0
	movb	$-4, %al
	.loc 1 859 0
	je	.L151
	.loc 1 861 0
	leal	12(%ebx), %esi
.LVL136:
.L150:
	.loc 1 876 0
	movzbl	etharp_cached_entry, %ecx
	imull	$24, %ecx, %eax
	addl	$arp_table, %eax
	cmpb	$1, 20(%eax)
	jbe	.L152
	.loc 1 876 0 is_stmt 0 discriminator 1
	movl	4(%eax), %eax
	cmpl	%eax, (%esi)
	je	.L166
.L152:
	movl	$arp_table, %eax
.LBE30:
	.loc 1 808 0 is_stmt 1
	xorl	%ecx, %ecx
.L154:
.LVL137:
.LBB31:
	.loc 1 893 0
	cmpb	$1, 20(%eax)
	jbe	.L153
	.loc 1 893 0 is_stmt 0 discriminator 1
	movl	4(%eax), %edi
	cmpl	%edi, (%esi)
	jne	.L153
	.loc 1 899 0 is_stmt 1
	movb	%cl, etharp_cached_entry
.LVL138:
.L166:
	.loc 1 900 0
	movl	%ebx, %eax
	call	etharp_output_to_arp_index
.LVL139:
	jmp	.L151
.LVL140:
.L153:
	incl	%ecx
.LVL141:
	addl	$24, %eax
	.loc 1 892 0 discriminator 2
	cmpl	$10, %ecx
	jne	.L154
	.loc 1 905 0
	pushl	%eax
	pushl	%edx
	pushl	%esi
	pushl	%ebx
	call	etharp_query
.LVL142:
	addl	$16, %esp
	jmp	.L151
.L156:
.LBE31:
	.loc 1 823 0
	movl	$ethbroadcast, %eax
.L148:
.LVL143:
	.loc 1 911 0
	subl	$12, %esp
	pushl	$2048
	pushl	%eax
	leal	55(%ebx), %eax
.LVL144:
	pushl	%eax
.LVL145:
	pushl	%edx
.LVL146:
	pushl	%ebx
.LVL147:
	call	ethernet_output
.LVL148:
	addl	$32, %esp
.L151:
	.loc 1 912 0
	movl	-28(%ebp), %edi
	xorl	%gs:20, %edi
	je	.L155
	call	__stack_chk_fail
.LVL149:
.L155:
	leal	-12(%ebp), %esp
	popl	%ebx
	.cfi_restore 3
	popl	%esi
	.cfi_restore 6
.LVL150:
	popl	%edi
	.cfi_restore 7
	popl	%ebp
	.cfi_restore 5
	.cfi_def_cfa 4, 4
	ret
	.cfi_endproc
.LFE26:
	.size	etharp_output, .-etharp_output
	.section	.text.unlikely.etharp_output
.LCOLDE12:
	.section	.text.etharp_output
.LHOTE12:
	.section	.bss.etharp_cached_entry,"aw",@nobits
	.type	etharp_cached_entry, @object
	.size	etharp_cached_entry, 1
etharp_cached_entry:
	.zero	1
	.section	.bss.arp_table,"aw",@nobits
	.align 32
	.type	arp_table, @object
	.size	arp_table, 240
arp_table:
	.zero	240
	.text
.Letext0:
	.section	.text.unlikely.etharp_free_entry
.Letext_cold0:
	.file 2 "././platform/mcu/moc108/include/lwip-2.0.2/arch/cc.h"
	.file 3 "./kernel/protocols/net/include/lwip/err.h"
	.file 4 "./kernel/protocols/net/include/lwip/pbuf.h"
	.file 5 "./kernel/protocols/net/include/lwip/ip4_addr.h"
	.file 6 "./kernel/protocols/net/include/lwip/ip_addr.h"
	.file 7 "./kernel/protocols/net/include/lwip/memp.h"
	.file 8 "./kernel/protocols/net/include/lwip/netif.h"
	.file 9 "./kernel/protocols/net/include/lwip/prot/ethernet.h"
	.file 10 "./kernel/protocols/net/include/lwip/prot/etharp.h"
	.file 11 "./include/aos/log.h"
	.file 12 "./kernel/protocols/net/include/netif/ethernet.h"
	.file 13 "./kernel/protocols/net/include/lwip/def.h"
	.file 14 "././platform/mcu/moc108/include/driver/uart_pub.h"
	.section	.note.GNU-stack,"",@progbits
