	.file	"gatt.c"
	.text
.Ltext0:
	.section	.text.unlikely.sc_ccc_cfg_changed,"ax",@progbits
.LCOLDB0:
	.section	.text.sc_ccc_cfg_changed,"ax",@progbits
.LHOTB0:
	.section	.text.unlikely.sc_ccc_cfg_changed
.Ltext_cold0:
	.section	.text.sc_ccc_cfg_changed
	.type	sc_ccc_cfg_changed, @function
sc_ccc_cfg_changed:
.LFB82:
	.file 1 "src/gatt.c"
	.loc 1 4130 0
	.cfi_startproc
.LVL0:
	pushl	%ebp
	.cfi_def_cfa_offset 8
	.cfi_offset 5, -8
	movl	%esp, %ebp
	.cfi_def_cfa_register 5
	.loc 1 4132 0
	popl	%ebp
	.cfi_restore 5
	.cfi_def_cfa 4, 4
	ret
	.cfi_endproc
.LFE82:
	.size	sc_ccc_cfg_changed, .-sc_ccc_cfg_changed
	.section	.text.unlikely.sc_ccc_cfg_changed
.LCOLDE0:
	.section	.text.sc_ccc_cfg_changed
.LHOTE0:
	.section	.text.unlikely.find_next,"ax",@progbits
.LCOLDB1:
	.section	.text.find_next,"ax",@progbits
.LHOTB1:
	.type	find_next, @function
find_next:
.LFB97:
	.loc 1 4469 0
	.cfi_startproc
.LVL1:
	pushl	%ebp
	.cfi_def_cfa_offset 8
	.cfi_offset 5, -8
	movl	%esp, %ebp
	.cfi_def_cfa_register 5
.LVL2:
	.loc 1 4471 0
	movl	12(%ebp), %eax
	movl	8(%ebp), %edx
	movl	%edx, (%eax)
	.loc 1 4473 0
	xorl	%eax, %eax
	popl	%ebp
	.cfi_restore 5
	.cfi_def_cfa 4, 4
	ret
	.cfi_endproc
.LFE97:
	.size	find_next, .-find_next
	.section	.text.unlikely.find_next
.LCOLDE1:
	.section	.text.find_next
.LHOTE1:
	.section	.text.unlikely.gatt_ccc_changed,"ax",@progbits
.LCOLDB2:
	.section	.text.gatt_ccc_changed,"ax",@progbits
.LHOTB2:
	.type	gatt_ccc_changed, @function
gatt_ccc_changed:
.LFB100:
	.loc 1 4505 0
	.cfi_startproc
.LVL3:
	pushl	%ebp
	.cfi_def_cfa_offset 8
	.cfi_offset 5, -8
	.loc 1 4507 0
	xorl	%ecx, %ecx
	.loc 1 4505 0
	movl	%esp, %ebp
	.cfi_def_cfa_register 5
	pushl	%edi
	pushl	%esi
	pushl	%ebx
	.cfi_offset 7, -12
	.cfi_offset 6, -16
	.cfi_offset 3, -20
	.loc 1 4508 0
	xorl	%ebx, %ebx
	.loc 1 4505 0
	subl	$12, %esp
	movl	4(%edx), %edi
.LVL4:
.L6:
	.loc 1 4508 0 discriminator 1
	cmpl	%edi, %ebx
	je	.L11
	.loc 1 4509 0
	movl	%ebx, %esi
	sall	$4, %esi
	addl	(%edx), %esi
	movzwl	8(%esi), %esi
	cmpw	%si, %cx
	cmovb	%esi, %ecx
.LVL5:
	.loc 1 4508 0
	incl	%ebx
.LVL6:
	jmp	.L6
.L11:
	.loc 1 4514 0
	cmpw	8(%edx), %cx
	je	.L5
.LVL7:
	.loc 1 4516 0
	pushl	%ebx
	pushl	%ebx
	pushl	%ecx
	pushl	%eax
	.loc 1 4515 0
	movw	%cx, 8(%edx)
	.loc 1 4516 0
	call	*12(%edx)
.LVL8:
	addl	$16, %esp
.L5:
	.loc 1 4518 0
	leal	-12(%ebp), %esp
	popl	%ebx
	.cfi_restore 3
	popl	%esi
	.cfi_restore 6
	popl	%edi
	.cfi_restore 7
	popl	%ebp
	.cfi_restore 5
	.cfi_def_cfa 4, 4
	ret
	.cfi_endproc
.LFE100:
	.size	gatt_ccc_changed, .-gatt_ccc_changed
	.section	.text.unlikely.gatt_ccc_changed
.LCOLDE2:
	.section	.text.gatt_ccc_changed
.LHOTE2:
	.section	.text.unlikely.gatt_indicate_rsp,"ax",@progbits
.LCOLDB3:
	.section	.text.gatt_indicate_rsp,"ax",@progbits
.LHOTB3:
	.type	gatt_indicate_rsp, @function
gatt_indicate_rsp:
.LFB106:
	.loc 1 4620 0
	.cfi_startproc
.LVL9:
	pushl	%ebp
	.cfi_def_cfa_offset 8
	.cfi_offset 5, -8
	movl	%esp, %ebp
	.cfi_def_cfa_register 5
	.loc 1 4622 0
	movzbl	12(%ebp), %edx
	.loc 1 4620 0
	movl	24(%ebp), %eax
.LVL10:
	.loc 1 4622 0
	movl	%edx, 16(%ebp)
.LVL11:
	movl	24(%eax), %edx
	movl	%edx, 12(%ebp)
.LVL12:
	movl	28(%eax), %eax
	.loc 1 4623 0
	popl	%ebp
	.cfi_restore 5
	.cfi_def_cfa 4, 4
	.loc 1 4622 0
	jmp	*%eax
.LVL13:
	.cfi_endproc
.LFE106:
	.size	gatt_indicate_rsp, .-gatt_indicate_rsp
	.section	.text.unlikely.gatt_indicate_rsp
.LCOLDE3:
	.section	.text.gatt_indicate_rsp
.LHOTE3:
	.section	.text.unlikely.bt_gatt_attr_write_ccc,"ax",@progbits
.LCOLDB4:
	.section	.text.bt_gatt_attr_write_ccc,"ax",@progbits
.LHOTB4:
	.globl	bt_gatt_attr_write_ccc
	.type	bt_gatt_attr_write_ccc, @function
bt_gatt_attr_write_ccc:
.LFB101:
	.loc 1 4522 0
	.cfi_startproc
.LVL14:
	pushl	%ebp
	.cfi_def_cfa_offset 8
	.cfi_offset 5, -8
	movl	%esp, %ebp
	.cfi_def_cfa_register 5
	pushl	%edi
	pushl	%esi
	pushl	%ebx
	subl	$28, %esp
	.cfi_offset 7, -12
	.cfi_offset 6, -16
	.cfi_offset 3, -20
	.loc 1 4522 0
	movl	24(%ebp), %eax
	.loc 1 4523 0
	movl	12(%ebp), %edi
	.loc 1 4522 0
	movl	8(%ebp), %esi
	movl	16(%ebp), %edx
	movl	20(%ebp), %ecx
	.loc 1 4527 0
	movl	$-7, -28(%ebp)
	.loc 1 4526 0
	cmpw	$2, %ax
	.loc 1 4523 0
	movl	12(%edi), %ebx
.LVL15:
	.loc 1 4526 0
	ja	.L15
	.loc 1 4529 0
	movzwl	%cx, %edi
	movzwl	%ax, %eax
	addl	%edi, %eax
	movl	%edi, -28(%ebp)
	cmpl	$2, %eax
	jg	.L27
.LVL16:
.LBB49:
.LBB50:
	.loc 1 983 0
	movzbl	1(%edx), %eax
	movzbl	(%edx), %edx
.LVL17:
	sall	$8, %eax
	orl	%eax, %edx
	movw	%dx, -30(%ebp)
.LVL18:
.LBE50:
.LBE49:
	.loc 1 4533 0
	xorl	%edx, %edx
.LVL19:
.L16:
	.loc 1 4533 0 is_stmt 0 discriminator 1
	cmpl	4(%ebx), %edx
	jnb	.L21
	.loc 1 4534 0 is_stmt 1
	pushl	%eax
	pushl	%eax
	movl	%edx, %eax
	sall	$4, %eax
	addl	(%ebx), %eax
	movl	%edx, -36(%ebp)
	incl	%eax
	pushl	%eax
	pushl	%esi
	call	bt_conn_addr_le_cmp
.LVL20:
	addl	$16, %esp
	testl	%eax, %eax
	movl	-36(%ebp), %edx
	jne	.L17
.LVL21:
.L21:
	.loc 1 4538 0
	movl	4(%ebx), %ecx
	cmpl	%ecx, %edx
	jne	.L18
	xorl	%edx, %edx
	jmp	.L19
.LVL22:
.L17:
	.loc 1 4533 0 discriminator 2
	incl	%edx
.LVL23:
	jmp	.L16
.L24:
	movl	%edx, %eax
	sall	$4, %eax
	movl	%eax, -36(%ebp)
	.loc 1 4540 0
	addl	(%ebx), %eax
	cmpb	$0, (%eax)
	je	.L22
	.loc 1 4539 0
	incl	%edx
.LVL24:
.L19:
	.loc 1 4539 0 is_stmt 0 discriminator 1
	cmpl	%ecx, %edx
	jne	.L24
	jmp	.L28
.L22:
.LVL25:
.LBB51:
.LBB52:
	.loc 1 1046 0 is_stmt 1
	incl	%eax
.LVL26:
	addl	$64, %esi
.LVL27:
.LBE52:
.LBE51:
	.loc 1 4544 0
	cmpw	$0, -30(%ebp)
.LBB54:
.LBB53:
	.loc 1 1046 0
	movl	$7, %ecx
	movl	%eax, %edi
	rep movsb
.LVL28:
.LBE53:
.LBE54:
	.loc 1 4544 0
	je	.L23
	.loc 1 4545 0
	movl	(%ebx), %eax
	movl	-36(%ebp), %esi
	movb	$1, (%eax,%esi)
.L23:
	.loc 1 4551 0
	cmpl	4(%ebx), %edx
	jne	.L25
	jmp	.L28
.LVL29:
.L18:
	.loc 1 4555 0
	cmpw	$0, -30(%ebp)
	jne	.L25
	.loc 1 4556 0
	movl	%edx, %eax
	sall	$4, %eax
	addl	(%ebx), %eax
	movb	$0, (%eax)
.L25:
.LVL30:
	.loc 1 4560 0
	sall	$4, %edx
.LVL31:
	movw	-30(%ebp), %ax
	addl	(%ebx), %edx
	.loc 1 4562 0
	cmpw	%ax, 8(%ebx)
	.loc 1 4560 0
	movw	%ax, 8(%edx)
	.loc 1 4562 0
	je	.L15
	.loc 1 4563 0
	movl	12(%ebp), %eax
	movl	%ebx, %edx
	call	gatt_ccc_changed
.LVL32:
	jmp	.L15
.L27:
	.loc 1 4530 0
	movl	$-13, -28(%ebp)
	jmp	.L15
.LVL33:
.L28:
	.loc 1 4553 0
	movl	$-17, -28(%ebp)
.LVL34:
.L15:
	.loc 1 4566 0
	movl	-28(%ebp), %eax
	leal	-12(%ebp), %esp
	popl	%ebx
	.cfi_restore 3
.LVL35:
	popl	%esi
	.cfi_restore 6
	popl	%edi
	.cfi_restore 7
	popl	%ebp
	.cfi_restore 5
	.cfi_def_cfa 4, 4
	ret
	.cfi_endproc
.LFE101:
	.size	bt_gatt_attr_write_ccc, .-bt_gatt_attr_write_ccc
	.section	.text.unlikely.bt_gatt_attr_write_ccc
.LCOLDE4:
	.section	.text.bt_gatt_attr_write_ccc
.LHOTE4:
	.section	.text.unlikely.get_service_handles,"ax",@progbits
.LCOLDB5:
	.section	.text.get_service_handles,"ax",@progbits
.LHOTB5:
	.type	get_service_handles, @function
get_service_handles:
.LFB93:
	.loc 1 4351 0
	.cfi_startproc
.LVL36:
	pushl	%ebp
	.cfi_def_cfa_offset 8
	.cfi_offset 5, -8
	movl	%esp, %ebp
	.cfi_def_cfa_register 5
	pushl	%esi
	pushl	%ebx
	subl	$24, %esp
	.cfi_offset 6, -12
	.cfi_offset 3, -16
	.loc 1 4351 0
	movl	8(%ebp), %ebx
	movl	12(%ebp), %esi
	movl	%gs:20, %eax
	movl	%eax, -12(%ebp)
	xorl	%eax, %eax
.LVL37:
	.loc 1 4353 0
	leal	-20(%ebp), %eax
	movb	$0, -20(%ebp)
	movw	$10240, -18(%ebp)
	pushl	%eax
	pushl	(%ebx)
	call	bt_uuid_cmp
.LVL38:
	addl	$16, %esp
	testl	%eax, %eax
	jne	.L34
.L36:
	.loc 1 4355 0
	xorl	%eax, %eax
	jmp	.L35
.L34:
.LVL39:
.LBB57:
.LBB58:
	.loc 1 4354 0
	pushl	%eax
	pushl	%eax
	leal	-16(%ebp), %eax
	movb	$0, -16(%ebp)
	movw	$10241, -14(%ebp)
	pushl	%eax
	pushl	(%ebx)
	call	bt_uuid_cmp
.LVL40:
	.loc 1 4353 0
	addl	$16, %esp
	testl	%eax, %eax
	je	.L36
	.loc 1 4357 0
	movl	16(%ebx), %eax
	movw	%ax, 2(%esi)
	.loc 1 4358 0
	movb	$1, %al
.LVL41:
.L35:
.LBE58:
.LBE57:
	.loc 1 4359 0
	movl	-12(%ebp), %edx
	xorl	%gs:20, %edx
	je	.L37
	call	__stack_chk_fail
.LVL42:
.L37:
	leal	-8(%ebp), %esp
	popl	%ebx
	.cfi_restore 3
	popl	%esi
	.cfi_restore 6
.LVL43:
	popl	%ebp
	.cfi_restore 5
	.cfi_def_cfa 4, 4
	ret
	.cfi_endproc
.LFE93:
	.size	get_service_handles, .-get_service_handles
	.section	.text.unlikely.get_service_handles
.LCOLDE5:
	.section	.text.get_service_handles
.LHOTE5:
	.section	.text.unlikely.gatt_notify,"ax",@progbits
.LCOLDB6:
	.section	.text.gatt_notify,"ax",@progbits
.LHOTB6:
	.type	gatt_notify, @function
gatt_notify:
.LFB105:
	.loc 1 4602 0
	.cfi_startproc
.LVL44:
	pushl	%ebp
	.cfi_def_cfa_offset 8
	.cfi_offset 5, -8
	movl	%esp, %ebp
	.cfi_def_cfa_register 5
	pushl	%edi
	pushl	%esi
	pushl	%ebx
	.cfi_offset 7, -12
	.cfi_offset 6, -16
	.cfi_offset 3, -20
	movl	%edx, %edi
	subl	$32, %esp
	.loc 1 4602 0
	movl	%eax, -28(%ebp)
	.loc 1 4605 0
	movl	8(%ebp), %eax
.LVL45:
	.loc 1 4602 0
	movl	%ecx, -32(%ebp)
	.loc 1 4605 0
	addl	$2, %eax
	pushl	%eax
	pushl	$27
	pushl	-28(%ebp)
	call	bt_att_create_pdu
.LVL46:
	.loc 1 4606 0
	addl	$16, %esp
	testl	%eax, %eax
	je	.L44
	.loc 1 4611 0
	leal	8(%eax), %edx
	movl	%eax, %ebx
.LVL47:
	pushl	%eax
	pushl	%eax
	pushl	$2
	pushl	%edx
	movl	%edx, -36(%ebp)
	call	net_buf_simple_add
.LVL48:
	.loc 1 4612 0
	movw	%di, (%eax)
	.loc 1 4611 0
	movl	%eax, %esi
.LVL49:
	.loc 1 4613 0
	popl	%edx
	movl	-36(%ebp), %edx
	popl	%ecx
	pushl	8(%ebp)
	pushl	%edx
	call	net_buf_simple_add
.LVL50:
	.loc 1 4614 0
	leal	2(%esi), %eax
	movl	8(%ebp), %ecx
	movl	-32(%ebp), %esi
.LVL51:
	movl	%eax, %edi
	rep movsb
.LVL52:
.LBB61:
.LBB62:
	.loc 1 3781 0
	pushl	$0
	pushl	%ebx
	pushl	$4
	pushl	-28(%ebp)
	call	bt_l2cap_send_cb
.LVL53:
	addl	$32, %esp
.LBE62:
.LBE61:
	.loc 1 4616 0
	xorl	%eax, %eax
	jmp	.L43
.LVL54:
.L44:
	.loc 1 4608 0
	movl	$-12, %eax
.LVL55:
.L43:
	.loc 1 4617 0
	leal	-12(%ebp), %esp
	popl	%ebx
	.cfi_restore 3
	popl	%esi
	.cfi_restore 6
	popl	%edi
	.cfi_restore 7
	popl	%ebp
	.cfi_restore 5
	.cfi_def_cfa 4, 4
	ret
	.cfi_endproc
.LFE105:
	.size	gatt_notify, .-gatt_notify
	.section	.text.unlikely.gatt_notify
.LCOLDE6:
	.section	.text.gatt_notify
.LHOTE6:
	.section	.text.unlikely.gatt_indicate,"ax",@progbits
.LCOLDB7:
	.section	.text.gatt_indicate,"ax",@progbits
.LHOTB7:
	.type	gatt_indicate, @function
gatt_indicate:
.LFB108:
	.loc 1 4646 0
	.cfi_startproc
.LVL56:
	pushl	%ebp
	.cfi_def_cfa_offset 8
	.cfi_offset 5, -8
	movl	%esp, %ebp
	.cfi_def_cfa_register 5
	pushl	%edi
	pushl	%esi
	pushl	%ebx
	.cfi_offset 7, -12
	.cfi_offset 6, -16
	.cfi_offset 3, -20
	movl	%edx, %ebx
	subl	$32, %esp
	.loc 1 4646 0
	movl	%eax, -28(%ebp)
	.loc 1 4649 0
	movzwl	36(%edx), %eax
.LVL57:
	addl	$2, %eax
	pushl	%eax
	pushl	$29
	pushl	-28(%ebp)
	call	bt_att_create_pdu
.LVL58:
	.loc 1 4651 0
	addl	$16, %esp
	testl	%eax, %eax
	je	.L48
	.loc 1 4656 0
	leal	8(%eax), %edi
	movl	%eax, -32(%ebp)
.LVL59:
	pushl	%eax
	pushl	%eax
	pushl	$2
	pushl	%edi
	call	net_buf_simple_add
.LVL60:
	movl	%eax, %esi
.LVL61:
	.loc 1 4657 0
	movl	24(%ebx), %eax
.LVL62:
	movl	16(%eax), %eax
	movw	%ax, (%esi)
	.loc 1 4658 0
	movzwl	36(%ebx), %eax
	popl	%edx
	popl	%ecx
	pushl	%eax
	pushl	%edi
	call	net_buf_simple_add
.LVL63:
	.loc 1 4659 0
	leal	2(%esi), %eax
	movzwl	36(%ebx), %ecx
	movl	32(%ebx), %esi
.LVL64:
.LBB66:
.LBB67:
.LBB68:
	.loc 1 4631 0
	movl	-32(%ebp), %edx
.LBE68:
.LBE67:
.LBE66:
	.loc 1 4659 0
	movl	%eax, %edi
	rep movsb
.LVL65:
.LBB71:
.LBB70:
.LBB69:
	.loc 1 4631 0
	movl	%edx, 16(%ebx)
	.loc 1 4632 0
	movl	$gatt_indicate_rsp, 4(%ebx)
	.loc 1 4633 0
	movl	$0, 8(%ebx)
	.loc 1 4634 0
	popl	%esi
	popl	%edi
	pushl	%ebx
	pushl	-28(%ebp)
	call	bt_att_req_send
.LVL66:
	movl	%eax, %ebx
.LVL67:
.LBE69:
	.loc 1 4638 0
	addl	$16, %esp
	xorl	%eax, %eax
.LVL68:
	testl	%ebx, %ebx
	movl	-32(%ebp), %edx
	je	.L47
	.loc 1 4640 0
	subl	$12, %esp
	pushl	%edx
	call	net_buf_unref
.LVL69:
	addl	$16, %esp
	movl	%ebx, %eax
	jmp	.L47
.LVL70:
.L48:
.LBE70:
.LBE71:
	.loc 1 4653 0
	movl	$-12, %eax
.LVL71:
.L47:
	.loc 1 4663 0
	leal	-12(%ebp), %esp
	popl	%ebx
	.cfi_restore 3
	popl	%esi
	.cfi_restore 6
	popl	%edi
	.cfi_restore 7
	popl	%ebp
	.cfi_restore 5
	.cfi_def_cfa 4, 4
.LVL72:
	ret
	.cfi_endproc
.LFE108:
	.size	gatt_indicate, .-gatt_indicate
	.section	.text.unlikely.gatt_indicate
.LCOLDE7:
	.section	.text.gatt_indicate
.LHOTE7:
	.section	.text.unlikely.gatt_register,"ax",@progbits
.LCOLDB8:
	.section	.text.gatt_register,"ax",@progbits
.LHOTB8:
	.type	gatt_register, @function
gatt_register:
.LFB83:
	.loc 1 4148 0
	.cfi_startproc
.LVL73:
	.loc 1 4153 0
	cmpl	$0, db
	.loc 1 4148 0
	pushl	%ebp
	.cfi_def_cfa_offset 8
	.cfi_offset 5, -8
	movl	%esp, %ebp
	.cfi_def_cfa_register 5
	pushl	%esi
	pushl	%ebx
	.cfi_offset 6, -12
	.cfi_offset 3, -16
	.loc 1 4151 0
	movl	(%eax), %edx
.LVL74:
	.loc 1 4152 0
	movl	4(%eax), %ebx
.LVL75:
	.loc 1 4153 0
	je	.L62
	movl	db+4, %esi
.LVL76:
	.loc 1 4163 0
	testl	%esi, %esi
	je	.L54
.LVL77:
	.loc 1 4166 0 discriminator 1
	movzwl	-4(%esi), %ecx
	imull	$20, %ecx, %ecx
	addl	-8(%esi), %ecx
	movl	-4(%ecx), %esi
.LVL78:
	jmp	.L55
.LVL79:
.L62:
	.loc 1 4154 0
	xorl	%esi, %esi
	jmp	.L55
.LVL80:
.L70:
	.loc 1 4168 0 discriminator 1
	testw	%bx, %bx
	je	.L64
	.loc 1 4169 0
	movw	16(%edx), %cx
	testw	%cx, %cx
	jne	.L56
	.loc 1 4170 0
	leal	1(%esi), %ecx
.LVL81:
	movw	%cx, 16(%edx)
.LVL82:
.L57:
	.loc 1 4168 0
	addl	$20, %edx
.LVL83:
	decl	%ebx
.LVL84:
	movl	%ecx, %esi
.LVL85:
.L55:
	.loc 1 4168 0 is_stmt 0 discriminator 1
	testl	%edx, %edx
	jne	.L70
	jmp	.L64
.L56:
	.loc 1 4171 0 is_stmt 1
	cmpw	%cx, %si
	jb	.L57
	jmp	.L63
.L64:
	.loc 1 4179 0
	leal	8(%eax), %edx
.LVL86:
.LBB74:
.LBB75:
	.loc 1 116 0
	movl	$0, 8(%eax)
	.loc 1 119 0
	movl	db+4, %eax
.LVL87:
	testl	%eax, %eax
	jne	.L61
	.loc 1 120 0
	movl	%edx, db+4
	.loc 1 121 0
	movl	%edx, db
	jmp	.L68
.L61:
	.loc 1 123 0
	movl	%edx, (%eax)
	.loc 1 124 0
	movl	%edx, db+4
.LBE75:
.LBE74:
	.loc 1 4180 0
	xorl	%eax, %eax
	jmp	.L68
.LVL88:
.L63:
	.loc 1 4175 0
	movl	$-22, %eax
.LVL89:
	jmp	.L68
.LVL90:
.L54:
	.loc 1 4166 0
	movl	0, %eax
.LVL91:
	ud2
.LVL92:
.L68:
	.loc 1 4181 0
	popl	%ebx
	.cfi_restore 3
.LVL93:
	popl	%esi
	.cfi_restore 6
.LVL94:
	popl	%ebp
	.cfi_restore 5
	.cfi_def_cfa 4, 4
	ret
	.cfi_endproc
.LFE83:
	.size	gatt_register, .-gatt_register
	.section	.text.unlikely.gatt_register
.LCOLDE8:
	.section	.text.gatt_register
.LHOTE8:
	.section	.text.unlikely.sc_indicate.constprop.16,"ax",@progbits
.LCOLDB9:
	.section	.text.sc_indicate.constprop.16,"ax",@progbits
.LHOTB9:
	.type	sc_indicate.constprop.16, @function
sc_indicate.constprop.16:
.LFB129:
	.loc 1 4259 0
	.cfi_startproc
.LVL95:
	pushl	%ebp
	.cfi_def_cfa_offset 8
	.cfi_offset 5, -8
	movl	%esp, %ebp
	.cfi_def_cfa_register 5
	pushl	%esi
	pushl	%ebx
	.cfi_offset 6, -12
	.cfi_offset 3, -16
	.loc 1 4259 0
	movl	%edx, %ebx
.LVL96:
.LBB82:
.LBB83:
	.loc 1 864 0
	pushl	%edx
	pushl	%edx
	pushl	$1
	pushl	$gatt_sc+80
.LVL97:
.LBE83:
.LBE82:
	.loc 1 4259 0
	movl	%eax, %esi
.LBB85:
.LBB84:
	.loc 1 864 0
	call	atomic_or
.LVL98:
.LBE84:
.LBE85:
	.loc 1 4261 0
	addl	$16, %esp
	testb	$1, %al
	jne	.L72
	.loc 1 4262 0
	movw	%si, gatt_sc+40
	jmp	.L80
.L72:
.LVL99:
.LBB86:
.LBB87:
	.loc 1 4244 0
	cmpw	gatt_sc+40, %si
	jb	.L74
	cmpw	gatt_sc+42, %bx
	ja	.L75
	jmp	.L71
.L74:
	.loc 1 4250 0
	movw	%si, gatt_sc+40
.L75:
	.loc 1 4252 0
	cmpw	gatt_sc+42, %bx
	jbe	.L73
.LVL100:
.L80:
	.loc 1 4253 0
	movw	%bx, gatt_sc+42
.L73:
.LVL101:
.LBE87:
.LBE86:
.LBB88:
.LBB89:
	.loc 1 850 0
	subl	$12, %esp
	pushl	$gatt_sc+80
.LVL102:
	call	atomic_get
.LVL103:
.LBE89:
.LBE88:
	.loc 1 4270 0
	addl	$16, %esp
	testb	$2, %al
	jne	.L71
	.loc 1 4274 0
	pushl	%eax
	pushl	%eax
	pushl	$10
	pushl	$gatt_sc+44
	call	k_delayed_work_submit
.LVL104:
	addl	$16, %esp
.L71:
	.loc 1 4275 0
	leal	-8(%ebp), %esp
	popl	%ebx
	.cfi_restore 3
	popl	%esi
	.cfi_restore 6
	popl	%ebp
	.cfi_restore 5
	.cfi_def_cfa 4, 4
	ret
	.cfi_endproc
.LFE129:
	.size	sc_indicate.constprop.16, .-sc_indicate.constprop.16
	.section	.text.unlikely.sc_indicate.constprop.16
.LCOLDE9:
	.section	.text.sc_indicate.constprop.16
.LHOTE9:
	.section	.text.unlikely.connected_cb,"ax",@progbits
.LCOLDB10:
	.section	.text.connected_cb,"ax",@progbits
.LHOTB10:
	.type	connected_cb, @function
connected_cb:
.LFB115:
	.loc 1 4778 0
	.cfi_startproc
.LVL105:
	pushl	%ebp
	.cfi_def_cfa_offset 8
	.cfi_offset 5, -8
	movl	%esp, %ebp
	.cfi_def_cfa_register 5
.LVL106:
	pushl	%edi
	pushl	%esi
	pushl	%ebx
	subl	$12, %esp
	.cfi_offset 7, -12
	.cfi_offset 6, -16
	.cfi_offset 3, -20
	.loc 1 4782 0
	movl	8(%ebp), %eax
	cmpl	$bt_gatt_attr_write_ccc, 8(%eax)
	jne	.L83
.LVL107:
.LBB94:
.LBB95:
	.loc 1 4785 0
	movl	12(%eax), %edi
.LVL108:
	.loc 1 4786 0
	xorl	%esi, %esi
.LVL109:
.L84:
	cmpl	4(%edi), %esi
	jnb	.L83
	.loc 1 4787 0
	pushl	%eax
	pushl	%eax
	movl	%esi, %ebx
	movl	(%edi), %eax
	sall	$4, %ebx
	addl	%ebx, %eax
	incl	%eax
	pushl	%eax
	pushl	12(%ebp)
	call	bt_conn_addr_le_cmp
.LVL110:
	addl	$16, %esp
	testl	%eax, %eax
	jne	.L85
	.loc 1 4790 0
	movl	(%edi), %eax
	cmpw	$0, 8(%eax,%ebx)
	je	.L85
	.loc 1 4791 0
	movl	8(%ebp), %eax
	movl	%edi, %edx
	call	gatt_ccc_changed
.LVL111:
	.loc 1 4792 0
	cmpl	$sc_ccc_cfg, (%edi)
	jne	.L83
	.loc 1 4793 0
	addl	$sc_ccc_cfg, %ebx
.LVL112:
.LBB96:
.LBB97:
	.loc 1 4770 0
	movzwl	12(%ebx), %eax
	testw	%ax, %ax
	jne	.L87
	cmpw	$0, 14(%ebx)
	je	.L83
.L87:
	.loc 1 4774 0
	movzwl	14(%ebx), %edx
	call	sc_indicate.constprop.16
.LVL113:
	.loc 1 4775 0
	movl	$0, 12(%ebx)
	jmp	.L83
.LVL114:
.L85:
.LBE97:
.LBE96:
	.loc 1 4786 0
	incl	%esi
.LVL115:
	jmp	.L84
.LVL116:
.L83:
.LBE95:
.LBE94:
	.loc 1 4799 0
	leal	-12(%ebp), %esp
	movb	$1, %al
	popl	%ebx
	.cfi_restore 3
	popl	%esi
	.cfi_restore 6
	popl	%edi
	.cfi_restore 7
	popl	%ebp
	.cfi_restore 5
	.cfi_def_cfa 4, 4
	ret
	.cfi_endproc
.LFE115:
	.size	connected_cb, .-connected_cb
	.section	.text.unlikely.connected_cb
.LCOLDE10:
	.section	.text.connected_cb
.LHOTE10:
	.section	.text.unlikely.sc_indicate_rsp,"ax",@progbits
.LCOLDB11:
	.section	.text.sc_indicate_rsp,"ax",@progbits
.LHOTB11:
	.type	sc_indicate_rsp, @function
sc_indicate_rsp:
.LFB84:
	.loc 1 4196 0
	.cfi_startproc
.LVL117:
	pushl	%ebp
	.cfi_def_cfa_offset 8
	.cfi_offset 5, -8
	movl	%esp, %ebp
	.cfi_def_cfa_register 5
	subl	$16, %esp
.LBB106:
.LBB107:
	.loc 1 870 0
	pushl	$-3
	pushl	$gatt_sc+80
.LVL118:
	call	atomic_and
.LVL119:
.LBE107:
.LBE106:
.LBB108:
.LBB109:
	.loc 1 850 0
	movl	$gatt_sc+80, (%esp)
.LVL120:
	call	atomic_get
.LVL121:
.LBE109:
.LBE108:
	.loc 1 4199 0
	addl	$16, %esp
	testb	$1, %al
	je	.L90
.LVL122:
.LBB110:
.LBB111:
	.loc 1 4200 0
	movl	$0, 12(%ebp)
.LVL123:
	movl	$gatt_sc+44, 8(%ebp)
.LVL124:
.LBE111:
.LBE110:
	.loc 1 4202 0
	leave
	.cfi_remember_state
	.cfi_restore 5
	.cfi_def_cfa 4, 4
.LBB113:
.LBB112:
	.loc 1 4200 0
	jmp	k_delayed_work_submit
.LVL125:
.L90:
	.cfi_restore_state
.LBE112:
.LBE113:
	.loc 1 4202 0
	leave
	.cfi_restore 5
	.cfi_def_cfa 4, 4
	ret
	.cfi_endproc
.LFE84:
	.size	sc_indicate_rsp, .-sc_indicate_rsp
	.section	.text.unlikely.sc_indicate_rsp
.LCOLDE11:
	.section	.text.sc_indicate_rsp
.LHOTE11:
	.section	.text.unlikely.disconnected_cb,"ax",@progbits
.LCOLDB12:
	.section	.text.disconnected_cb,"ax",@progbits
.LHOTB12:
	.type	disconnected_cb, @function
disconnected_cb:
.LFB116:
	.loc 1 4801 0
	.cfi_startproc
.LVL126:
	pushl	%ebp
	.cfi_def_cfa_offset 8
	.cfi_offset 5, -8
	movl	%esp, %ebp
	.cfi_def_cfa_register 5
.LVL127:
	pushl	%edi
	pushl	%esi
	pushl	%ebx
	subl	$28, %esp
	.cfi_offset 7, -12
	.cfi_offset 6, -16
	.cfi_offset 3, -20
	.loc 1 4805 0
	movl	8(%ebp), %eax
	cmpl	$bt_gatt_attr_write_ccc, 8(%eax)
	jne	.L95
.LVL128:
.LBB119:
.LBB120:
	.loc 1 4808 0
	movl	12(%eax), %ebx
.LVL129:
	.loc 1 4809 0
	cmpw	$0, 8(%ebx)
	je	.L95
	.loc 1 4827 0
	movl	12(%ebp), %eax
.LVL130:
	.loc 1 4809 0
	movl	$0, -28(%ebp)
	.loc 1 4827 0
	addl	$64, %eax
	movl	%eax, -32(%ebp)
.L97:
.LVL131:
	.loc 1 4812 0
	movl	-28(%ebp), %eax
	cmpl	4(%ebx), %eax
	jnb	.L113
	movl	-28(%ebp), %esi
	.loc 1 4813 0
	movl	(%ebx), %eax
	sall	$4, %esi
	addl	%esi, %eax
	cmpw	$0, 8(%eax)
	je	.L99
	.loc 1 4816 0
	incl	%eax
	pushl	%ecx
	pushl	%ecx
	pushl	%eax
	pushl	12(%ebp)
	call	bt_conn_addr_le_cmp
.LVL132:
	addl	$16, %esp
	testl	%eax, %eax
	je	.L100
.LBB121:
	.loc 1 4818 0
	addl	(%ebx), %esi
	subl	$12, %esp
	incl	%esi
	pushl	%esi
	call	bt_conn_lookup_addr_le
.LVL133:
	.loc 1 4819 0
	addl	$16, %esp
	testl	%eax, %eax
	je	.L99
	.loc 1 4820 0
	cmpb	$3, 12(%eax)
	jne	.L102
	.loc 1 4821 0
	subl	$12, %esp
	pushl	%eax
	call	bt_conn_unref
.LVL134:
	jmp	.L112
.LVL135:
.L102:
	.loc 1 4824 0
	subl	$12, %esp
	pushl	%eax
	call	bt_conn_unref
.LVL136:
	addl	$16, %esp
	jmp	.L99
.L100:
.LBE121:
	.loc 1 4827 0
	subl	$12, %esp
	pushl	-32(%ebp)
	call	bt_addr_le_is_bonded
.LVL137:
	addl	$16, %esp
	testb	%al, %al
	movl	(%ebx), %eax
	jne	.L103
	.loc 1 4828 0
	movb	$0, (%eax,%esi)
	.loc 1 4831 0
	addl	(%ebx), %esi
	movw	$0, 8(%esi)
	jmp	.L99
.L103:
.LVL138:
.LBB122:
.LBB123:
	.loc 1 1046 0
	leal	1(%eax,%esi), %eax
	movl	$7, %ecx
	movl	-32(%ebp), %esi
.LVL139:
	movl	%eax, %edi
	rep movsb
.LVL140:
.L99:
.LBE123:
.LBE122:
	.loc 1 4812 0
	incl	-28(%ebp)
.LVL141:
	jmp	.L97
.LVL142:
.L113:
	.loc 1 4840 0
	movl	12(%ebx), %eax
.LVL143:
	.loc 1 4839 0
	movw	$0, 8(%ebx)
	.loc 1 4840 0
	testl	%eax, %eax
	je	.L95
	.loc 1 4841 0
	pushl	%edx
	pushl	%edx
	pushl	$0
	pushl	8(%ebp)
	call	*%eax
.LVL144:
.L112:
	addl	$16, %esp
.LVL145:
.L95:
.LBE120:
.LBE119:
	.loc 1 4845 0
	leal	-12(%ebp), %esp
	movb	$1, %al
	popl	%ebx
	.cfi_restore 3
	popl	%esi
	.cfi_restore 6
	popl	%edi
	.cfi_restore 7
	popl	%ebp
	.cfi_restore 5
	.cfi_def_cfa 4, 4
	ret
	.cfi_endproc
.LFE116:
	.size	disconnected_cb, .-disconnected_cb
	.section	.text.unlikely.disconnected_cb
.LCOLDE12:
	.section	.text.disconnected_cb
.LHOTE12:
	.section	.text.unlikely.notify_cb,"ax",@progbits
.LCOLDB13:
	.section	.text.notify_cb,"ax",@progbits
.LHOTB13:
	.type	notify_cb, @function
notify_cb:
.LFB110:
	.loc 1 4687 0
	.cfi_startproc
.LVL146:
	pushl	%ebp
	.cfi_def_cfa_offset 8
	.cfi_offset 5, -8
	movl	%esp, %ebp
	.cfi_def_cfa_register 5
	pushl	%edi
	pushl	%esi
	pushl	%ebx
	subl	$52, %esp
	.cfi_offset 7, -12
	.cfi_offset 6, -16
	.cfi_offset 3, -20
	.loc 1 4687 0
	movl	8(%ebp), %esi
	movl	12(%ebp), %ebx
	movl	%gs:20, %eax
	movl	%eax, -28(%ebp)
	xorl	%eax, %eax
.LVL147:
	.loc 1 4691 0
	leal	-36(%ebp), %eax
	movb	$0, -36(%ebp)
	movw	$10498, -34(%ebp)
	pushl	%eax
	pushl	(%esi)
	call	bt_uuid_cmp
.LVL148:
	addl	$16, %esp
	testl	%eax, %eax
	je	.L115
	.loc 1 4692 0
	pushl	%eax
	pushl	%eax
	leal	-32(%ebp), %eax
	movb	$0, -32(%ebp)
	movw	$10243, -30(%ebp)
	pushl	%eax
	pushl	(%esi)
	call	bt_uuid_cmp
.LVL149:
	.loc 1 4693 0
	addl	$16, %esp
	testl	%eax, %eax
	setne	%al
	jmp	.L116
.L115:
	.loc 1 4697 0
	cmpl	$bt_gatt_attr_write_ccc, 8(%esi)
	je	.L117
.L132:
	.loc 1 4698 0
	movb	$1, %al
	jmp	.L116
.L117:
.LVL150:
.LBB131:
.LBB132:
	.loc 1 4700 0
	movl	12(%esi), %eax
	movl	$sc_ccc_cfg, -44(%ebp)
	.loc 1 4701 0
	movl	$0, -52(%ebp)
	.loc 1 4700 0
	movl	%eax, -48(%ebp)
.LVL151:
.L118:
	.loc 1 4701 0
	movl	-48(%ebp), %eax
	movl	-52(%ebp), %edi
	cmpl	4(%eax), %edi
	jnb	.L132
.LBB133:
	.loc 1 4704 0
	movl	-48(%ebp), %edi
	movl	-52(%ebp), %eax
	sall	$4, %eax
	addl	(%edi), %eax
	movl	4(%ebx), %edi
	cmpw	%di, 8(%eax)
	jne	.L120
	.loc 1 4707 0
	subl	$12, %esp
	incl	%eax
	pushl	%eax
	call	bt_conn_lookup_addr_le
.LVL152:
	.loc 1 4708 0
	addl	$16, %esp
	testl	%eax, %eax
	.loc 1 4707 0
	movl	%eax, %esi
.LVL153:
	.loc 1 4708 0
	jne	.L121
	.loc 1 4709 0
	movl	-48(%ebp), %eax
.LVL154:
	cmpl	$sc_ccc_cfg, (%eax)
	jne	.L120
	.loc 1 4710 0
	movl	20(%ebx), %eax
.LVL155:
.LBB134:
.LBB135:
	.loc 1 4673 0
	leal	-32(%ebp), %edi
	movzwl	36(%eax), %ecx
	movl	32(%eax), %esi
.LVL156:
	rep movsb
	.loc 1 4677 0
	movl	-44(%ebp), %edi
	.loc 1 4675 0
	movw	-30(%ebp), %ax
.LVL157:
	.loc 1 4677 0
	movw	12(%edi), %dx
	testw	%dx, %dx
	jne	.L123
	cmpw	$0, 14(%edi)
	jne	.L124
	.loc 1 4678 0
	movl	-32(%ebp), %eax
	movl	%eax, 12(%edi)
	jmp	.L120
.L124:
.LVL158:
.LBB136:
.LBB137:
	.loc 1 4244 0
	movl	-44(%ebp), %ecx
	cmpw	14(%ecx), %ax
	ja	.L126
	jmp	.L120
.LVL159:
.L123:
.LBE137:
.LBE136:
	.loc 1 4674 0
	movl	-32(%ebp), %ecx
.LVL160:
.LBB139:
.LBB138:
	.loc 1 4244 0
	cmpw	%dx, %cx
	jnb	.L124
	.loc 1 4250 0
	movl	-44(%ebp), %edi
	movw	%cx, 12(%edi)
.LVL161:
.L126:
	.loc 1 4252 0
	movl	-44(%ebp), %edx
	cmpw	14(%edx), %ax
	jbe	.L120
.L125:
	.loc 1 4253 0
	movw	%ax, 14(%edx)
	jmp	.L120
.LVL162:
.L121:
.LBE138:
.LBE139:
.LBE135:
.LBE134:
	.loc 1 4714 0
	cmpb	$3, 12(%eax)
	je	.L128
	.loc 1 4715 0
	subl	$12, %esp
	pushl	%eax
	call	bt_conn_unref
.LVL163:
	addl	$16, %esp
	jmp	.L120
.LVL164:
.L128:
	.loc 1 4718 0
	cmpw	$2, 4(%ebx)
	jne	.L129
	.loc 1 4719 0
	movl	20(%ebx), %edx
	call	gatt_indicate
.LVL165:
	jmp	.L130
.LVL166:
.L129:
	.loc 1 4721 0
	movl	8(%ebx), %eax
.LVL167:
	subl	$12, %esp
	movl	12(%ebx), %ecx
	movzwl	16(%eax), %edx
	movzwl	16(%ebx), %eax
	pushl	%eax
	movl	%esi, %eax
	call	gatt_notify
.LVL168:
	addl	$16, %esp
.L130:
	.loc 1 4724 0
	subl	$12, %esp
	movl	%eax, -56(%ebp)
.LVL169:
	pushl	%esi
	call	bt_conn_unref
.LVL170:
	.loc 1 4725 0
	movl	-56(%ebp), %eax
	addl	$16, %esp
	testl	%eax, %eax
	js	.L135
	.loc 1 4728 0
	movl	$0, (%ebx)
.LVL171:
.L120:
.LBE133:
	.loc 1 4701 0
	incl	-52(%ebp)
.LVL172:
	addl	$16, -44(%ebp)
	jmp	.L118
.LVL173:
.L135:
.LBB140:
	.loc 1 4726 0
	xorl	%eax, %eax
.LVL174:
.L116:
.LBE140:
.LBE132:
.LBE131:
	.loc 1 4731 0
	movl	-28(%ebp), %ebx
	xorl	%gs:20, %ebx
.LVL175:
	je	.L134
	call	__stack_chk_fail
.LVL176:
.L134:
	leal	-12(%ebp), %esp
	popl	%ebx
	.cfi_restore 3
	popl	%esi
	.cfi_restore 6
	popl	%edi
	.cfi_restore 7
	popl	%ebp
	.cfi_restore 5
	.cfi_def_cfa 4, 4
	ret
	.cfi_endproc
.LFE110:
	.size	notify_cb, .-notify_cb
	.section	.text.unlikely.notify_cb
.LCOLDE13:
	.section	.text.notify_cb
.LHOTE13:
	.section	.text.unlikely.bt_gatt_init,"ax",@progbits
.LCOLDB14:
	.section	.text.bt_gatt_init,"ax",@progbits
.LHOTB14:
	.globl	bt_gatt_init
	.type	bt_gatt_init, @function
bt_gatt_init:
.LFB86:
	.loc 1 4233 0
	.cfi_startproc
	pushl	%ebp
	.cfi_def_cfa_offset 8
	.cfi_offset 5, -8
	.loc 1 4234 0
	movl	$gap_svc, %eax
	.loc 1 4233 0
	movl	%esp, %ebp
	.cfi_def_cfa_register 5
	subl	$8, %esp
	.loc 1 4234 0
	call	gatt_register
.LVL177:
	.loc 1 4235 0
	movl	$gatt_svc, %eax
	call	gatt_register
.LVL178:
	.loc 1 4236 0
	pushl	%edx
	pushl	%edx
	pushl	$sc_process
	pushl	$gatt_sc+44
	call	k_delayed_work_init
.LVL179:
	.loc 1 4237 0
	addl	$16, %esp
	leave
	.cfi_restore 5
	.cfi_def_cfa 4, 4
	ret
	.cfi_endproc
.LFE86:
	.size	bt_gatt_init, .-bt_gatt_init
	.section	.text.unlikely.bt_gatt_init
.LCOLDE14:
	.section	.text.bt_gatt_init
.LHOTE14:
	.section	.text.unlikely.bt_gatt_service_register,"ax",@progbits
.LCOLDB15:
	.section	.text.bt_gatt_service_register,"ax",@progbits
.LHOTB15:
	.globl	bt_gatt_service_register
	.type	bt_gatt_service_register, @function
bt_gatt_service_register:
.LFB89:
	.loc 1 4277 0
	.cfi_startproc
.LVL180:
	pushl	%ebp
	.cfi_def_cfa_offset 8
	.cfi_offset 5, -8
	movl	%esp, %ebp
	.cfi_def_cfa_register 5
	pushl	%ebx
	subl	$28, %esp
	.cfi_offset 3, -12
	.loc 1 4277 0
	movl	8(%ebp), %ebx
	.loc 1 4282 0
	movb	$0, -20(%ebp)
	.loc 1 4277 0
	movl	%gs:20, %eax
	movl	%eax, -12(%ebp)
	xorl	%eax, %eax
	.loc 1 4282 0
	leal	-20(%ebp), %eax
	movw	$6144, -18(%ebp)
	pushl	%eax
	movl	(%ebx), %eax
	pushl	(%eax)
	call	bt_uuid_cmp
.LVL181:
	addl	$16, %esp
	testl	%eax, %eax
	jne	.L142
.L144:
	.loc 1 4284 0
	movl	$-69, %edx
	jmp	.L143
.L142:
	.loc 1 4283 0 discriminator 1
	pushl	%eax
	pushl	%eax
	leal	-16(%ebp), %eax
	movb	$0, -16(%ebp)
	movw	$6145, -14(%ebp)
	pushl	%eax
	movl	(%ebx), %eax
	pushl	(%eax)
	call	bt_uuid_cmp
.LVL182:
	.loc 1 4282 0 discriminator 1
	addl	$16, %esp
	testl	%eax, %eax
	je	.L144
	.loc 1 4286 0
	movl	%ebx, %eax
	call	gatt_register
.LVL183:
	.loc 1 4287 0
	testl	%eax, %eax
	movl	%eax, %edx
	js	.L143
	.loc 1 4291 0
	movzwl	4(%ebx), %eax
.LVL184:
	movl	(%ebx), %ecx
	imull	$20, %eax, %eax
	.loc 1 4290 0
	movzwl	-4(%ecx,%eax), %edx
.LVL185:
	movzwl	16(%ecx), %eax
	call	sc_indicate.constprop.16
.LVL186:
	.loc 1 4292 0
	xorl	%edx, %edx
.L143:
	.loc 1 4293 0
	movl	-12(%ebp), %ecx
	xorl	%gs:20, %ecx
	movl	%edx, %eax
	je	.L145
	call	__stack_chk_fail
.LVL187:
.L145:
	movl	-4(%ebp), %ebx
	leave
	.cfi_restore 5
	.cfi_restore 3
	.cfi_def_cfa 4, 4
	ret
	.cfi_endproc
.LFE89:
	.size	bt_gatt_service_register, .-bt_gatt_service_register
	.section	.text.unlikely.bt_gatt_service_register
.LCOLDE15:
	.section	.text.bt_gatt_service_register
.LHOTE15:
	.section	.text.unlikely.bt_gatt_service_unregister,"ax",@progbits
.LCOLDB16:
	.section	.text.bt_gatt_service_unregister,"ax",@progbits
.LHOTB16:
	.globl	bt_gatt_service_unregister
	.type	bt_gatt_service_unregister, @function
bt_gatt_service_unregister:
.LFB90:
	.loc 1 4295 0
	.cfi_startproc
.LVL188:
	pushl	%ebp
	.cfi_def_cfa_offset 8
	.cfi_offset 5, -8
	movl	%esp, %ebp
	.cfi_def_cfa_register 5
	pushl	%ebx
	pushl	%ecx
	.cfi_offset 3, -12
	.loc 1 4295 0
	movl	8(%ebp), %edx
	movl	db, %eax
.LBB149:
.LBB150:
	.loc 1 197 0
	xorl	%ecx, %ecx
.LBE150:
.LBE149:
	.loc 1 4297 0
	leal	8(%edx), %ebx
.LVL189:
.L152:
.LBB161:
.LBB158:
	.loc 1 201 0
	testl	%eax, %eax
	je	.L161
	.loc 1 202 0
	cmpl	%eax, %ebx
	jne	.L153
.LVL190:
.LBB151:
.LBB152:
	.loc 1 177 0
	testl	%ecx, %ecx
	movl	8(%edx), %eax
.LVL191:
	jne	.L154
	.loc 1 179 0
	cmpl	db+4, %ebx
	.loc 1 178 0
	movl	%eax, db
	.loc 1 179 0
	jne	.L156
	.loc 1 180 0
	movl	%eax, db+4
	jmp	.L156
.L154:
	.loc 1 184 0
	cmpl	db+4, %ebx
	.loc 1 183 0
	movl	%eax, (%ecx)
	.loc 1 184 0
	jne	.L156
	.loc 1 185 0
	movl	%ecx, db+4
.L156:
.LBE152:
.LBE151:
.LBE158:
.LBE161:
	.loc 1 4301 0
	movzwl	4(%edx), %eax
	movl	(%edx), %ecx
.LVL192:
.LBB162:
.LBB159:
.LBB154:
.LBB153:
	.loc 1 188 0
	movl	$0, 8(%edx)
.LVL193:
.LBE153:
.LBE154:
.LBE159:
.LBE162:
	.loc 1 4301 0
	imull	$20, %eax, %eax
	.loc 1 4300 0
	movzwl	-4(%ecx,%eax), %edx
	movzwl	16(%ecx), %eax
	call	sc_indicate.constprop.16
.LVL194:
	.loc 1 4302 0
	xorl	%eax, %eax
	jmp	.L158
.LVL195:
.L153:
.LBB163:
.LBB160:
.LBB155:
.LBB156:
.LBB157:
	.loc 1 96 0
	movl	%eax, %ecx
	movl	(%eax), %eax
.LVL196:
	jmp	.L152
.LVL197:
.L161:
.LBE157:
.LBE156:
.LBE155:
.LBE160:
.LBE163:
	.loc 1 4298 0
	movl	$-2, %eax
.LVL198:
.L158:
	.loc 1 4303 0
	popl	%edx
	popl	%ebx
	.cfi_restore 3
	popl	%ebp
	.cfi_restore 5
	.cfi_def_cfa 4, 4
	ret
	.cfi_endproc
.LFE90:
	.size	bt_gatt_service_unregister, .-bt_gatt_service_unregister
	.section	.text.unlikely.bt_gatt_service_unregister
.LCOLDE16:
	.section	.text.bt_gatt_service_unregister
.LHOTE16:
	.section	.text.unlikely.bt_gatt_attr_read,"ax",@progbits
.LCOLDB17:
	.section	.text.bt_gatt_attr_read,"ax",@progbits
.LHOTB17:
	.globl	bt_gatt_attr_read
	.type	bt_gatt_attr_read, @function
bt_gatt_attr_read:
.LFB91:
	.loc 1 4307 0
	.cfi_startproc
.LVL199:
	pushl	%ebp
	.cfi_def_cfa_offset 8
	.cfi_offset 5, -8
	movl	$-7, %eax
	movl	%esp, %ebp
	.cfi_def_cfa_register 5
	pushl	%edi
	pushl	%esi
	.cfi_offset 7, -12
	.cfi_offset 6, -16
	.loc 1 4307 0
	movl	32(%ebp), %edx
	movl	24(%ebp), %esi
	movl	20(%ebp), %ecx
	.loc 1 4309 0
	cmpw	%dx, %si
	ja	.L163
.LVL200:
	movzwl	%dx, %eax
	movzwl	%si, %esi
	movzwl	%cx, %edx
.LVL201:
	subl	%esi, %eax
.LVL202:
	.loc 1 4314 0
	movl	16(%ebp), %edi
	cmpl	%edx, %eax
	cmovg	%edx, %eax
	addl	28(%ebp), %esi
.LVL203:
	movzwl	%ax, %eax
	movl	%eax, %ecx
.LVL204:
	rep movsb
.LVL205:
.L163:
	.loc 1 4316 0
	popl	%esi
	.cfi_restore 6
	popl	%edi
	.cfi_restore 7
	popl	%ebp
	.cfi_restore 5
	.cfi_def_cfa 4, 4
	ret
	.cfi_endproc
.LFE91:
	.size	bt_gatt_attr_read, .-bt_gatt_attr_read
	.section	.text.unlikely.bt_gatt_attr_read
.LCOLDE17:
	.section	.text.bt_gatt_attr_read
.LHOTE17:
	.section	.text.unlikely.read_appearance,"ax",@progbits
.LCOLDB18:
	.section	.text.read_appearance,"ax",@progbits
.LHOTB18:
	.type	read_appearance, @function
read_appearance:
.LFB81:
	.loc 1 4104 0
	.cfi_startproc
.LVL206:
	pushl	%ebp
	.cfi_def_cfa_offset 8
	.cfi_offset 5, -8
	movl	%esp, %ebp
	.cfi_def_cfa_register 5
	subl	$24, %esp
	.loc 1 4104 0
	movl	%gs:20, %eax
	movl	%eax, -12(%ebp)
	xorl	%eax, %eax
	.loc 1 4106 0
	leal	-14(%ebp), %eax
	pushl	$2
	.loc 1 4105 0
	movw	$833, -14(%ebp)
	.loc 1 4106 0
	pushl	%eax
	movzwl	24(%ebp), %eax
	pushl	%eax
	movzwl	20(%ebp), %eax
	pushl	%eax
	pushl	16(%ebp)
	pushl	12(%ebp)
	pushl	8(%ebp)
	call	bt_gatt_attr_read
.LVL207:
	.loc 1 4108 0
	movl	-12(%ebp), %edx
	xorl	%gs:20, %edx
	je	.L168
	call	__stack_chk_fail
.LVL208:
.L168:
	leave
	.cfi_restore 5
	.cfi_def_cfa 4, 4
	ret
	.cfi_endproc
.LFE81:
	.size	read_appearance, .-read_appearance
	.section	.text.unlikely.read_appearance
.LCOLDE18:
	.section	.text.read_appearance
.LHOTE18:
	.section	.rodata.str1.1,"aMS",@progbits,1
.LC19:
	.string	"AOS Device"
	.section	.text.unlikely.read_name,"ax",@progbits
.LCOLDB20:
	.section	.text.read_name,"ax",@progbits
.LHOTB20:
	.type	read_name, @function
read_name:
.LFB80:
	.loc 1 4097 0
	.cfi_startproc
.LVL209:
	pushl	%ebp
	.cfi_def_cfa_offset 8
	.cfi_offset 5, -8
	movl	%esp, %ebp
	.cfi_def_cfa_register 5
	.loc 1 4098 0
	pushl	$10
	pushl	$.LC19
	movzwl	24(%ebp), %eax
	pushl	%eax
	movzwl	20(%ebp), %eax
	pushl	%eax
	pushl	16(%ebp)
	pushl	12(%ebp)
	pushl	8(%ebp)
	call	bt_gatt_attr_read
.LVL210:
	.loc 1 4100 0
	leave
	.cfi_restore 5
	.cfi_def_cfa 4, 4
	ret
	.cfi_endproc
.LFE80:
	.size	read_name, .-read_name
	.section	.text.unlikely.read_name
.LCOLDE20:
	.section	.text.read_name
.LHOTE20:
	.section	.text.unlikely.bt_gatt_attr_read_service,"ax",@progbits
.LCOLDB21:
	.section	.text.bt_gatt_attr_read_service,"ax",@progbits
.LHOTB21:
	.globl	bt_gatt_attr_read_service
	.type	bt_gatt_attr_read_service, @function
bt_gatt_attr_read_service:
.LFB92:
	.loc 1 4320 0
	.cfi_startproc
.LVL211:
	pushl	%ebp
	.cfi_def_cfa_offset 8
	.cfi_offset 5, -8
	movl	%esp, %ebp
	.cfi_def_cfa_register 5
	pushl	%edi
	pushl	%esi
	pushl	%ebx
	subl	$28, %esp
	.cfi_offset 7, -12
	.cfi_offset 6, -16
	.cfi_offset 3, -20
	.loc 1 4320 0
	movl	12(%ebp), %edx
	movl	8(%ebp), %ecx
	movl	%gs:20, %eax
	movl	%eax, -28(%ebp)
	xorl	%eax, %eax
	movl	16(%ebp), %ebx
	movzwl	24(%ebp), %edi
	.loc 1 4321 0
	movl	12(%edx), %eax
.LVL212:
	movzwl	20(%ebp), %esi
	.loc 1 4322 0
	cmpb	$0, (%eax)
	jne	.L173
.LBB164:
	.loc 1 4323 0
	movw	2(%eax), %ax
.LVL213:
	.loc 1 4330 0
	pushl	$2
	.loc 1 4323 0
	movw	%ax, -30(%ebp)
	.loc 1 4330 0
	leal	-30(%ebp), %eax
	jmp	.L177
.LVL214:
.L173:
.LBE164:
	.loc 1 4333 0
	pushl	$16
	.loc 1 4334 0
	incl	%eax
.LVL215:
.L177:
	.loc 1 4333 0
	pushl	%eax
.LVL216:
	pushl	%edi
	pushl	%esi
	pushl	%ebx
	pushl	%edx
	pushl	%ecx
	call	bt_gatt_attr_read
.LVL217:
	addl	$28, %esp
	.loc 1 4341 0
	movl	-28(%ebp), %ecx
	xorl	%gs:20, %ecx
	je	.L175
	call	__stack_chk_fail
.LVL218:
.L175:
	leal	-12(%ebp), %esp
	popl	%ebx
	.cfi_restore 3
	popl	%esi
	.cfi_restore 6
	popl	%edi
	.cfi_restore 7
	popl	%ebp
	.cfi_restore 5
	.cfi_def_cfa 4, 4
	ret
	.cfi_endproc
.LFE92:
	.size	bt_gatt_attr_read_service, .-bt_gatt_attr_read_service
	.section	.text.unlikely.bt_gatt_attr_read_service
.LCOLDE21:
	.section	.text.bt_gatt_attr_read_service
.LHOTE21:
	.section	.text.unlikely.bt_gatt_attr_read_ccc,"ax",@progbits
.LCOLDB22:
	.section	.text.bt_gatt_attr_read_ccc,"ax",@progbits
.LHOTB22:
	.globl	bt_gatt_attr_read_ccc
	.type	bt_gatt_attr_read_ccc, @function
bt_gatt_attr_read_ccc:
.LFB99:
	.loc 1 4486 0
	.cfi_startproc
.LVL219:
	pushl	%ebp
	.cfi_def_cfa_offset 8
	.cfi_offset 5, -8
	movl	%esp, %ebp
	.cfi_def_cfa_register 5
	pushl	%edi
	pushl	%esi
	pushl	%ebx
	.cfi_offset 7, -12
	.cfi_offset 6, -16
	.cfi_offset 3, -20
	.loc 1 4490 0
	xorl	%ebx, %ebx
	.loc 1 4486 0
	subl	$60, %esp
	.loc 1 4486 0
	movl	16(%ebp), %eax
	movl	12(%ebp), %edx
	movl	8(%ebp), %edi
	movl	%eax, -44(%ebp)
	movl	20(%ebp), %eax
	.loc 1 4487 0
	movl	12(%edx), %esi
.LVL220:
	.loc 1 4486 0
	movl	%eax, -48(%ebp)
	movl	24(%ebp), %eax
	movl	%eax, -52(%ebp)
	movl	%gs:20, %eax
	movl	%eax, -28(%ebp)
	xorl	%eax, %eax
.LVL221:
.L179:
	.loc 1 4490 0 discriminator 1
	cmpl	4(%esi), %ebx
	jnb	.L181
	movl	%ebx, %ecx
	movl	%edx, -60(%ebp)
	.loc 1 4491 0
	pushl	%edx
	sall	$4, %ecx
	pushl	%edx
	movl	%ecx, %eax
	addl	(%esi), %eax
	movl	%ecx, -56(%ebp)
	incl	%eax
	pushl	%eax
	pushl	%edi
	call	bt_conn_addr_le_cmp
.LVL222:
	addl	$16, %esp
	testl	%eax, %eax
	movl	-56(%ebp), %ecx
	movl	-60(%ebp), %edx
	je	.L180
	.loc 1 4490 0
	incl	%ebx
.LVL223:
	jmp	.L179
.L180:
	.loc 1 4494 0
	movl	(%esi), %eax
	movl	8(%eax,%ecx), %eax
	movw	%ax, -30(%ebp)
.L181:
	.loc 1 4497 0
	cmpl	4(%esi), %ebx
	jne	.L183
	.loc 1 4498 0
	movw	$0, -30(%ebp)
.L183:
	.loc 1 4500 0
	pushl	%eax
	leal	-30(%ebp), %eax
	pushl	$2
	pushl	%eax
	movzwl	-52(%ebp), %eax
	pushl	%eax
	movzwl	-48(%ebp), %eax
	pushl	%eax
	pushl	-44(%ebp)
	pushl	%edx
	pushl	%edi
	call	bt_gatt_attr_read
.LVL224:
	.loc 1 4502 0
	movl	-28(%ebp), %edi
	xorl	%gs:20, %edi
	je	.L184
	call	__stack_chk_fail
.LVL225:
.L184:
	leal	-12(%ebp), %esp
	popl	%ebx
	.cfi_restore 3
.LVL226:
	popl	%esi
	.cfi_restore 6
.LVL227:
	popl	%edi
	.cfi_restore 7
	popl	%ebp
	.cfi_restore 5
	.cfi_def_cfa 4, 4
	ret
	.cfi_endproc
.LFE99:
	.size	bt_gatt_attr_read_ccc, .-bt_gatt_attr_read_ccc
	.section	.text.unlikely.bt_gatt_attr_read_ccc
.LCOLDE22:
	.section	.text.bt_gatt_attr_read_ccc
.LHOTE22:
	.section	.text.unlikely.bt_gatt_foreach_attr,"ax",@progbits
.LCOLDB23:
	.section	.text.bt_gatt_foreach_attr,"ax",@progbits
.LHOTB23:
	.globl	bt_gatt_foreach_attr
	.type	bt_gatt_foreach_attr, @function
bt_gatt_foreach_attr:
.LFB96:
	.loc 1 4434 0
	.cfi_startproc
.LVL228:
	pushl	%ebp
	.cfi_def_cfa_offset 8
	.cfi_offset 5, -8
	movl	%esp, %ebp
	.cfi_def_cfa_register 5
	pushl	%edi
	pushl	%esi
	pushl	%ebx
	subl	$28, %esp
	.cfi_offset 7, -12
	.cfi_offset 6, -16
	.cfi_offset 3, -20
	.loc 1 4434 0
	movl	8(%ebp), %eax
	movl	12(%ebp), %edi
	movw	%ax, -26(%ebp)
	movl	db, %eax
.LVL229:
	.loc 1 4442 0
	testl	%eax, %eax
	leal	-8(%eax), %ebx
	je	.L186
.L201:
.LVL230:
	.loc 1 4436 0 discriminator 1
	testl	%ebx, %ebx
	je	.L186
	xorl	%esi, %esi
.L191:
.LVL231:
.LBB165:
	.loc 1 4456 0 discriminator 1
	movzwl	4(%ebx), %eax
	cmpl	%eax, %esi
	jge	.L206
.LBB166:
	.loc 1 4457 0
	imull	$20, %esi, %eax
	addl	(%ebx), %eax
.LVL232:
	.loc 1 4458 0
	movl	16(%eax), %ecx
	cmpw	-26(%ebp), %cx
	jb	.L193
	cmpw	%di, %cx
	jbe	.L189
.LVL233:
.L193:
.LBE166:
	.loc 1 4456 0
	incl	%esi
.LVL234:
	jmp	.L191
.LVL235:
.L189:
.LBB167:
	.loc 1 4462 0
	pushl	%edx
	pushl	%edx
	pushl	20(%ebp)
	pushl	%eax
	call	*16(%ebp)
.LVL236:
	addl	$16, %esp
	testb	%al, %al
	jne	.L193
	jmp	.L186
.L206:
.LVL237:
.LBE167:
.LBE165:
.LBB168:
.LBB169:
.LBB170:
	.loc 1 96 0
	movl	8(%ebx), %eax
.LVL238:
.LBE170:
.LBE169:
.LBE168:
	.loc 1 4450 0
	leal	-8(%eax), %ebx
.LVL239:
	testl	%eax, %eax
	movl	$0, %eax
	cmove	%eax, %ebx
	jmp	.L201
.LVL240:
.L186:
	.loc 1 4467 0
	leal	-12(%ebp), %esp
	popl	%ebx
	.cfi_restore 3
	popl	%esi
	.cfi_restore 6
	popl	%edi
	.cfi_restore 7
	popl	%ebp
	.cfi_restore 5
	.cfi_def_cfa 4, 4
	ret
	.cfi_endproc
.LFE96:
	.size	bt_gatt_foreach_attr, .-bt_gatt_foreach_attr
	.section	.text.unlikely.bt_gatt_foreach_attr
.LCOLDE23:
	.section	.text.bt_gatt_foreach_attr
.LHOTE23:
	.section	.text.unlikely.bt_gatt_attr_read_included,"ax",@progbits
.LCOLDB24:
	.section	.text.bt_gatt_attr_read_included,"ax",@progbits
.LHOTB24:
	.globl	bt_gatt_attr_read_included
	.type	bt_gatt_attr_read_included, @function
bt_gatt_attr_read_included:
.LFB94:
	.loc 1 4363 0
	.cfi_startproc
.LVL241:
	pushl	%ebp
	.cfi_def_cfa_offset 8
	.cfi_offset 5, -8
	movl	%esp, %ebp
	.cfi_def_cfa_register 5
	pushl	%edi
	pushl	%esi
	pushl	%ebx
	.cfi_offset 7, -12
	.cfi_offset 6, -16
	.cfi_offset 3, -20
	movl	$4, %ebx
	subl	$44, %esp
	.loc 1 4363 0
	movl	20(%ebp), %eax
	movl	12(%ebp), %esi
	movl	8(%ebp), %edx
	movl	16(%ebp), %ecx
	movl	%eax, -44(%ebp)
	movl	24(%ebp), %eax
	movl	%eax, -48(%ebp)
	movl	%gs:20, %eax
	movl	%eax, -28(%ebp)
	xorl	%eax, %eax
	.loc 1 4364 0
	movl	12(%esi), %eax
.LVL242:
	.loc 1 4365 0
	movl	12(%eax), %edi
.LVL243:
	.loc 1 4368 0
	movl	16(%eax), %eax
.LVL244:
	movw	%ax, -34(%ebp)
.LVL245:
	.loc 1 4370 0
	cmpb	$0, (%edi)
	jne	.L208
	.loc 1 4371 0
	movw	2(%edi), %bx
	movw	%bx, -30(%ebp)
.LVL246:
	.loc 1 4378 0
	movl	$6, %ebx
.LVL247:
.L208:
	.loc 1 4380 0
	leal	-34(%ebp), %edi
.LVL248:
	incl	%eax
	movl	%ecx, -56(%ebp)
	movzwl	%ax, %eax
	movl	%edx, -52(%ebp)
.LVL249:
	pushl	%edi
.LVL250:
	pushl	$get_service_handles
	pushl	$65535
	pushl	%eax
	call	bt_gatt_foreach_attr
.LVL251:
	.loc 1 4382 0
	movzwl	-48(%ebp), %eax
	addl	$12, %esp
	movl	-56(%ebp), %ecx
	pushl	%ebx
	pushl	%edi
	movl	-52(%ebp), %edx
	pushl	%eax
	movzwl	-44(%ebp), %eax
	pushl	%eax
	pushl	%ecx
	pushl	%esi
	pushl	%edx
	call	bt_gatt_attr_read
.LVL252:
	.loc 1 4383 0
	movl	-28(%ebp), %esi
	xorl	%gs:20, %esi
	je	.L209
	call	__stack_chk_fail
.LVL253:
.L209:
	leal	-12(%ebp), %esp
	popl	%ebx
	.cfi_restore 3
.LVL254:
	popl	%esi
	.cfi_restore 6
	popl	%edi
	.cfi_restore 7
	popl	%ebp
	.cfi_restore 5
	.cfi_def_cfa 4, 4
	ret
	.cfi_endproc
.LFE94:
	.size	bt_gatt_attr_read_included, .-bt_gatt_attr_read_included
	.section	.text.unlikely.bt_gatt_attr_read_included
.LCOLDE24:
	.section	.text.bt_gatt_attr_read_included
.LHOTE24:
	.section	.text.unlikely.bt_gatt_indicate.part.8,"ax",@progbits
.LCOLDB25:
	.section	.text.bt_gatt_indicate.part.8,"ax",@progbits
.LHOTB25:
	.type	bt_gatt_indicate.part.8, @function
bt_gatt_indicate.part.8:
.LFB127:
	.loc 1 4748 0
	.cfi_startproc
.LVL255:
	pushl	%ebp
	.cfi_def_cfa_offset 8
	.cfi_offset 5, -8
	movl	%esp, %ebp
	.cfi_def_cfa_register 5
	subl	$40, %esp
	.loc 1 4760 0
	leal	-36(%ebp), %edx
	.loc 1 4759 0
	movl	%eax, -16(%ebp)
	.loc 1 4757 0
	movl	$-57, -36(%ebp)
	.loc 1 4748 0
	movl	%gs:20, %ecx
	movl	%ecx, -12(%ebp)
	xorl	%ecx, %ecx
.LVL256:
	.loc 1 4760 0
	pushl	%edx
	pushl	$notify_cb
	movl	24(%eax), %eax
.LVL257:
	pushl	$65535
	.loc 1 4758 0
	movw	$2, -32(%ebp)
	.loc 1 4760 0
	movzwl	16(%eax), %eax
	pushl	%eax
	call	bt_gatt_foreach_attr
.LVL258:
	.loc 1 4762 0
	movl	-12(%ebp), %ecx
	xorl	%gs:20, %ecx
	movl	-36(%ebp), %eax
	je	.L214
	call	__stack_chk_fail
.LVL259:
.L214:
	leave
	.cfi_restore 5
	.cfi_def_cfa 4, 4
	ret
	.cfi_endproc
.LFE127:
	.size	bt_gatt_indicate.part.8, .-bt_gatt_indicate.part.8
	.section	.text.unlikely.bt_gatt_indicate.part.8
.LCOLDE25:
	.section	.text.bt_gatt_indicate.part.8
.LHOTE25:
	.section	.text.unlikely.sc_process,"ax",@progbits
.LCOLDB26:
	.section	.text.sc_process,"ax",@progbits
.LHOTB26:
	.type	sc_process, @function
sc_process:
.LFB85:
	.loc 1 4204 0
	.cfi_startproc
.LVL260:
	pushl	%ebp
	.cfi_def_cfa_offset 8
	.cfi_offset 5, -8
	movl	%esp, %ebp
	.cfi_def_cfa_register 5
	pushl	%edi
	pushl	%esi
	pushl	%ebx
	subl	$36, %esp
	.cfi_offset 7, -12
	.cfi_offset 6, -16
	.cfi_offset 3, -20
	.loc 1 4204 0
	movl	8(%ebp), %ebx
	movl	%gs:20, %eax
	movl	%eax, -28(%ebp)
	xorl	%eax, %eax
.LVL261:
	.loc 1 4216 0
	movl	-4(%ebx), %eax
	.loc 1 4218 0
	leal	36(%ebx), %esi
.LVL262:
	leal	-44(%ebx), %edi
.LVL263:
	.loc 1 4216 0
	movw	%ax, -32(%ebp)
	.loc 1 4217 0
	movw	-2(%ebx), %ax
.LBB177:
.LBB178:
	.loc 1 870 0
	pushl	$-2
	pushl	%esi
.LBE178:
.LBE177:
	.loc 1 4217 0
	movw	%ax, -30(%ebp)
.LBB180:
.LBB179:
	.loc 1 870 0
	call	atomic_and
.LVL264:
.LBE179:
.LBE180:
	.loc 1 4223 0
	leal	-32(%ebp), %eax
	.loc 1 4219 0
	movw	$0, -4(%ebx)
	.loc 1 4220 0
	movw	$0, -2(%ebx)
	.loc 1 4221 0
	movl	$gatt_attrs+40, -20(%ebx)
	.loc 1 4222 0
	movl	$sc_indicate_rsp, -16(%ebx)
	.loc 1 4223 0
	movl	%eax, -12(%ebx)
	.loc 1 4224 0
	movw	$4, -8(%ebx)
.LVL265:
.LBB181:
.LBB182:
	movl	%edi, %eax
	call	bt_gatt_indicate.part.8
.LVL266:
.LBE182:
.LBE181:
	.loc 1 4225 0
	addl	$16, %esp
	testl	%eax, %eax
	jne	.L216
.LVL267:
.LBB183:
.LBB184:
	.loc 1 875 0
	pushl	%eax
	pushl	%eax
	pushl	$2
	pushl	%esi
	call	atomic_or
.LVL268:
.LBE184:
.LBE183:
	addl	$16, %esp
.L216:
	.loc 1 4231 0
	movl	-28(%ebp), %eax
	xorl	%gs:20, %eax
	je	.L219
	call	__stack_chk_fail
.LVL269:
.L219:
	leal	-12(%ebp), %esp
	popl	%ebx
	.cfi_restore 3
	popl	%esi
	.cfi_restore 6
	popl	%edi
	.cfi_restore 7
.LVL270:
	popl	%ebp
	.cfi_restore 5
	.cfi_def_cfa 4, 4
	ret
	.cfi_endproc
.LFE85:
	.size	sc_process, .-sc_process
	.section	.text.unlikely.sc_process
.LCOLDE26:
	.section	.text.sc_process
.LHOTE26:
	.section	.text.unlikely.bt_gatt_attr_next,"ax",@progbits
.LCOLDB27:
	.section	.text.bt_gatt_attr_next,"ax",@progbits
.LHOTB27:
	.globl	bt_gatt_attr_next
	.type	bt_gatt_attr_next, @function
bt_gatt_attr_next:
.LFB98:
	.loc 1 4475 0
	.cfi_startproc
.LVL271:
	pushl	%ebp
	.cfi_def_cfa_offset 8
	.cfi_offset 5, -8
	movl	%esp, %ebp
	.cfi_def_cfa_register 5
	subl	$24, %esp
	.loc 1 4475 0
	movl	%gs:20, %eax
	movl	%eax, -12(%ebp)
	xorl	%eax, %eax
	.loc 1 4479 0
	movl	8(%ebp), %eax
	leal	-16(%ebp), %edx
	.loc 1 4476 0
	movl	$0, -16(%ebp)
	.loc 1 4479 0
	movl	16(%eax), %eax
	pushl	%edx
	pushl	$find_next
	incl	%eax
	movzwl	%ax, %eax
	pushl	%eax
	pushl	%eax
	call	bt_gatt_foreach_attr
.LVL272:
	.loc 1 4482 0
	movl	-12(%ebp), %ecx
	xorl	%gs:20, %ecx
	movl	-16(%ebp), %eax
	je	.L222
	call	__stack_chk_fail
.LVL273:
.L222:
	leave
	.cfi_restore 5
	.cfi_def_cfa 4, 4
	ret
	.cfi_endproc
.LFE98:
	.size	bt_gatt_attr_next, .-bt_gatt_attr_next
	.section	.text.unlikely.bt_gatt_attr_next
.LCOLDE27:
	.section	.text.bt_gatt_attr_next
.LHOTE27:
	.section	.text.unlikely.bt_gatt_attr_read_chrc,"ax",@progbits
.LCOLDB28:
	.section	.text.bt_gatt_attr_read_chrc,"ax",@progbits
.LHOTB28:
	.globl	bt_gatt_attr_read_chrc
	.type	bt_gatt_attr_read_chrc, @function
bt_gatt_attr_read_chrc:
.LFB95:
	.loc 1 4397 0
	.cfi_startproc
.LVL274:
	pushl	%ebp
	.cfi_def_cfa_offset 8
	.cfi_offset 5, -8
	movl	%esp, %ebp
	.cfi_def_cfa_register 5
	pushl	%edi
	pushl	%esi
	pushl	%ebx
	subl	$72, %esp
	.cfi_offset 7, -12
	.cfi_offset 6, -16
	.cfi_offset 3, -20
	.loc 1 4397 0
	movl	8(%ebp), %eax
	movl	12(%ebp), %ebx
	movl	16(%ebp), %esi
	movl	%eax, -60(%ebp)
	movl	20(%ebp), %eax
	.loc 1 4398 0
	movl	12(%ebx), %edi
.LVL275:
	.loc 1 4397 0
	movl	%eax, -64(%ebp)
	movl	24(%ebp), %eax
	movl	%eax, -68(%ebp)
	movl	%gs:20, %eax
	movl	%eax, -28(%ebp)
	xorl	%eax, %eax
	.loc 1 4402 0
	movb	4(%edi), %al
	.loc 1 4403 0
	pushl	%ebx
	.loc 1 4402 0
	movb	%al, -47(%ebp)
	.loc 1 4403 0
	call	bt_gatt_attr_next
.LVL276:
	.loc 1 4404 0
	addl	$16, %esp
	testl	%eax, %eax
	jne	.L225
	.loc 1 4406 0
	movw	$0, -46(%ebp)
	jmp	.L226
.L225:
	.loc 1 4408 0
	movl	16(%eax), %eax
.LVL277:
	movw	%ax, -46(%ebp)
.L226:
.LVL278:
	.loc 1 4411 0
	movl	(%edi), %eax
	cmpb	$0, (%eax)
	jne	.L227
	.loc 1 4418 0
	movw	2(%eax), %ax
	.loc 1 4412 0
	movw	%ax, -44(%ebp)
.LVL279:
	.loc 1 4419 0
	movl	$5, %eax
	jmp	.L228
.LVL280:
.L227:
	.loc 1 4421 0
	movl	1(%eax), %edi
.LVL281:
	movl	5(%eax), %ecx
	movl	9(%eax), %edx
	movl	13(%eax), %eax
	movl	%edi, -44(%ebp)
	movl	%ecx, -40(%ebp)
	movl	%eax, -32(%ebp)
.LVL282:
	movl	%edx, -36(%ebp)
	.loc 1 4428 0
	movl	$19, %eax
.LVL283:
.L228:
	.loc 1 4430 0
	pushl	%edx
	pushl	%eax
	leal	-47(%ebp), %eax
.LVL284:
	pushl	%eax
	movzwl	-68(%ebp), %eax
	pushl	%eax
	movzwl	-64(%ebp), %eax
	pushl	%eax
	pushl	%esi
	pushl	%ebx
	pushl	-60(%ebp)
	call	bt_gatt_attr_read
.LVL285:
	.loc 1 4431 0
	movl	-28(%ebp), %edx
	xorl	%gs:20, %edx
	je	.L229
	call	__stack_chk_fail
.LVL286:
.L229:
	leal	-12(%ebp), %esp
	popl	%ebx
	.cfi_restore 3
	popl	%esi
	.cfi_restore 6
	popl	%edi
	.cfi_restore 7
	popl	%ebp
	.cfi_restore 5
	.cfi_def_cfa 4, 4
	ret
	.cfi_endproc
.LFE95:
	.size	bt_gatt_attr_read_chrc, .-bt_gatt_attr_read_chrc
	.section	.text.unlikely.bt_gatt_attr_read_chrc
.LCOLDE28:
	.section	.text.bt_gatt_attr_read_chrc
.LHOTE28:
	.section	.text.unlikely.bt_gatt_attr_read_cep,"ax",@progbits
.LCOLDB29:
	.section	.text.bt_gatt_attr_read_cep,"ax",@progbits
.LHOTB29:
	.globl	bt_gatt_attr_read_cep
	.type	bt_gatt_attr_read_cep, @function
bt_gatt_attr_read_cep:
.LFB102:
	.loc 1 4570 0
	.cfi_startproc
.LVL287:
	pushl	%ebp
	.cfi_def_cfa_offset 8
	.cfi_offset 5, -8
	movl	%esp, %ebp
	.cfi_def_cfa_register 5
	subl	$24, %esp
	.loc 1 4570 0
	movl	12(%ebp), %eax
	movl	%gs:20, %ecx
	movl	%ecx, -12(%ebp)
	xorl	%ecx, %ecx
.LVL288:
	.loc 1 4572 0
	movl	12(%eax), %edx
	movw	(%edx), %dx
	.loc 1 4573 0
	pushl	$2
.LVL289:
	.loc 1 4572 0
	movw	%dx, -14(%ebp)
	.loc 1 4573 0
	leal	-14(%ebp), %edx
	pushl	%edx
	movzwl	24(%ebp), %edx
	pushl	%edx
	movzwl	20(%ebp), %edx
	pushl	%edx
	pushl	16(%ebp)
	pushl	%eax
	pushl	8(%ebp)
	call	bt_gatt_attr_read
.LVL290:
	.loc 1 4575 0
	movl	-12(%ebp), %ecx
	xorl	%gs:20, %ecx
	je	.L232
	call	__stack_chk_fail
.LVL291:
.L232:
	leave
	.cfi_restore 5
	.cfi_def_cfa 4, 4
	ret
	.cfi_endproc
.LFE102:
	.size	bt_gatt_attr_read_cep, .-bt_gatt_attr_read_cep
	.section	.text.unlikely.bt_gatt_attr_read_cep
.LCOLDE29:
	.section	.text.bt_gatt_attr_read_cep
.LHOTE29:
	.section	.text.unlikely.bt_gatt_attr_read_cud,"ax",@progbits
.LCOLDB30:
	.section	.text.bt_gatt_attr_read_cud,"ax",@progbits
.LHOTB30:
	.globl	bt_gatt_attr_read_cud
	.type	bt_gatt_attr_read_cud, @function
bt_gatt_attr_read_cud:
.LFB103:
	.loc 1 4579 0
	.cfi_startproc
.LVL292:
	pushl	%ebp
	.cfi_def_cfa_offset 8
	.cfi_offset 5, -8
	.loc 1 4582 0
	xorl	%eax, %eax
	orl	$-1, %ecx
	.loc 1 4579 0
	movl	%esp, %ebp
	.cfi_def_cfa_register 5
	pushl	%edi
	pushl	%ebx
	.cfi_offset 7, -12
	.cfi_offset 3, -16
	.loc 1 4579 0
	movl	12(%ebp), %edx
.LVL293:
	.loc 1 4582 0
	movl	12(%edx), %edi
	repnz scasb
.LVL294:
	movl	%ecx, %eax
	notl	%eax
	decl	%eax
	.loc 1 4581 0
	movzwl	%ax, %eax
	pushl	%eax
	movzwl	24(%ebp), %eax
	pushl	12(%edx)
	pushl	%eax
	movzwl	20(%ebp), %eax
	pushl	%eax
	pushl	16(%ebp)
	pushl	%edx
	pushl	8(%ebp)
	call	bt_gatt_attr_read
.LVL295:
	.loc 1 4583 0
	leal	-8(%ebp), %esp
	popl	%ebx
	.cfi_restore 3
	popl	%edi
	.cfi_restore 7
	popl	%ebp
	.cfi_restore 5
	.cfi_def_cfa 4, 4
	ret
	.cfi_endproc
.LFE103:
	.size	bt_gatt_attr_read_cud, .-bt_gatt_attr_read_cud
	.section	.text.unlikely.bt_gatt_attr_read_cud
.LCOLDE30:
	.section	.text.bt_gatt_attr_read_cud
.LHOTE30:
	.section	.text.unlikely.bt_gatt_attr_read_cpf,"ax",@progbits
.LCOLDB31:
	.section	.text.bt_gatt_attr_read_cpf,"ax",@progbits
.LHOTB31:
	.globl	bt_gatt_attr_read_cpf
	.type	bt_gatt_attr_read_cpf, @function
bt_gatt_attr_read_cpf:
.LFB104:
	.loc 1 4587 0
	.cfi_startproc
.LVL296:
	pushl	%ebp
	.cfi_def_cfa_offset 8
	.cfi_offset 5, -8
	movl	%esp, %ebp
	.cfi_def_cfa_register 5
	.loc 1 4589 0
	pushl	$7
	movzwl	24(%ebp), %edx
	.loc 1 4587 0
	movl	12(%ebp), %eax
	.loc 1 4589 0
	pushl	12(%eax)
	pushl	%edx
	movzwl	20(%ebp), %edx
	pushl	%edx
	pushl	16(%ebp)
	pushl	%eax
	pushl	8(%ebp)
	call	bt_gatt_attr_read
.LVL297:
	.loc 1 4591 0
	leave
	.cfi_restore 5
	.cfi_def_cfa 4, 4
	ret
	.cfi_endproc
.LFE104:
	.size	bt_gatt_attr_read_cpf, .-bt_gatt_attr_read_cpf
	.section	.text.unlikely.bt_gatt_attr_read_cpf
.LCOLDE31:
	.section	.text.bt_gatt_attr_read_cpf
.LHOTE31:
	.section	.text.unlikely.bt_gatt_notify,"ax",@progbits
.LCOLDB32:
	.section	.text.bt_gatt_notify,"ax",@progbits
.LHOTB32:
	.globl	bt_gatt_notify
	.type	bt_gatt_notify, @function
bt_gatt_notify:
.LFB111:
	.loc 1 4734 0
	.cfi_startproc
.LVL298:
	pushl	%ebp
	.cfi_def_cfa_offset 8
	.cfi_offset 5, -8
	movl	%esp, %ebp
	.cfi_def_cfa_register 5
	pushl	%esi
	pushl	%ebx
	subl	$32, %esp
	.cfi_offset 6, -12
	.cfi_offset 3, -16
	.loc 1 4734 0
	movl	8(%ebp), %eax
	movl	12(%ebp), %esi
	movl	%gs:20, %edx
	movl	%edx, -12(%ebp)
	xorl	%edx, %edx
	movl	16(%ebp), %ecx
	movl	20(%ebp), %ebx
	.loc 1 4737 0
	testl	%eax, %eax
	movzwl	16(%esi), %edx
	je	.L239
	.loc 1 4738 0
	subl	$12, %esp
	movzwl	%bx, %ebx
	pushl	%ebx
	call	gatt_notify
.LVL299:
	jmp	.L243
.L239:
	.loc 1 4745 0
	leal	-36(%ebp), %eax
	.loc 1 4740 0
	movl	$-57, -36(%ebp)
	.loc 1 4741 0
	movl	%esi, -28(%ebp)
	.loc 1 4742 0
	movw	$1, -32(%ebp)
	.loc 1 4743 0
	movl	%ecx, -24(%ebp)
	.loc 1 4745 0
	pushl	%eax
	pushl	$notify_cb
	pushl	$65535
	pushl	%edx
	.loc 1 4744 0
	movw	%bx, -20(%ebp)
	.loc 1 4745 0
	call	bt_gatt_foreach_attr
.LVL300:
	.loc 1 4746 0
	movl	-36(%ebp), %eax
.L243:
	addl	$16, %esp
	.loc 1 4747 0
	movl	-12(%ebp), %esi
	xorl	%gs:20, %esi
	je	.L241
	call	__stack_chk_fail
.LVL301:
.L241:
	leal	-8(%ebp), %esp
	popl	%ebx
	.cfi_restore 3
	popl	%esi
	.cfi_restore 6
	popl	%ebp
	.cfi_restore 5
	.cfi_def_cfa 4, 4
	ret
	.cfi_endproc
.LFE111:
	.size	bt_gatt_notify, .-bt_gatt_notify
	.section	.text.unlikely.bt_gatt_notify
.LCOLDE32:
	.section	.text.bt_gatt_notify
.LHOTE32:
	.section	.text.unlikely.bt_gatt_indicate,"ax",@progbits
.LCOLDB33:
	.section	.text.bt_gatt_indicate,"ax",@progbits
.LHOTB33:
	.globl	bt_gatt_indicate
	.type	bt_gatt_indicate, @function
bt_gatt_indicate:
.LFB112:
	.loc 1 4750 0
	.cfi_startproc
.LVL302:
	pushl	%ebp
	.cfi_def_cfa_offset 8
	.cfi_offset 5, -8
	movl	%esp, %ebp
	.cfi_def_cfa_register 5
	.loc 1 4750 0
	movl	8(%ebp), %eax
	movl	12(%ebp), %edx
	.loc 1 4754 0
	testl	%eax, %eax
	je	.L245
	.loc 1 4762 0
	popl	%ebp
	.cfi_remember_state
	.cfi_restore 5
	.cfi_def_cfa 4, 4
	.loc 1 4755 0
	jmp	gatt_indicate
.LVL303:
.L245:
	.cfi_restore_state
	.loc 1 4762 0
	popl	%ebp
	.cfi_restore 5
	.cfi_def_cfa 4, 4
	movl	%edx, %eax
.LVL304:
	jmp	bt_gatt_indicate.part.8
.LVL305:
	.cfi_endproc
.LFE112:
	.size	bt_gatt_indicate, .-bt_gatt_indicate
	.section	.text.unlikely.bt_gatt_indicate
.LCOLDE33:
	.section	.text.bt_gatt_indicate
.LHOTE33:
	.section	.text.unlikely.bt_gatt_get_mtu,"ax",@progbits
.LCOLDB34:
	.section	.text.bt_gatt_get_mtu,"ax",@progbits
.LHOTB34:
	.globl	bt_gatt_get_mtu
	.type	bt_gatt_get_mtu, @function
bt_gatt_get_mtu:
.LFB113:
	.loc 1 4764 0
	.cfi_startproc
.LVL306:
	pushl	%ebp
	.cfi_def_cfa_offset 8
	.cfi_offset 5, -8
	movl	%esp, %ebp
	.cfi_def_cfa_register 5
	.loc 1 4766 0
	popl	%ebp
	.cfi_restore 5
	.cfi_def_cfa 4, 4
	.loc 1 4765 0
	jmp	bt_att_get_mtu
.LVL307:
	.cfi_endproc
.LFE113:
	.size	bt_gatt_get_mtu, .-bt_gatt_get_mtu
	.section	.text.unlikely.bt_gatt_get_mtu
.LCOLDE34:
	.section	.text.bt_gatt_get_mtu
.LHOTE34:
	.section	.text.unlikely.bt_gatt_connected,"ax",@progbits
.LCOLDB35:
	.section	.text.bt_gatt_connected,"ax",@progbits
.LHOTB35:
	.globl	bt_gatt_connected
	.type	bt_gatt_connected, @function
bt_gatt_connected:
.LFB117:
	.loc 1 4847 0
	.cfi_startproc
.LVL308:
	pushl	%ebp
	.cfi_def_cfa_offset 8
	.cfi_offset 5, -8
	movl	%esp, %ebp
	.cfi_def_cfa_register 5
	subl	$8, %esp
	.loc 1 4849 0
	pushl	8(%ebp)
	pushl	$connected_cb
	pushl	$65535
	pushl	$1
	call	bt_gatt_foreach_attr
.LVL309:
	.loc 1 4850 0
	addl	$16, %esp
	leave
	.cfi_restore 5
	.cfi_def_cfa 4, 4
	ret
	.cfi_endproc
.LFE117:
	.size	bt_gatt_connected, .-bt_gatt_connected
	.section	.text.unlikely.bt_gatt_connected
.LCOLDE35:
	.section	.text.bt_gatt_connected
.LHOTE35:
	.section	.text.unlikely.bt_gatt_disconnected,"ax",@progbits
.LCOLDB36:
	.section	.text.bt_gatt_disconnected,"ax",@progbits
.LHOTB36:
	.globl	bt_gatt_disconnected
	.type	bt_gatt_disconnected, @function
bt_gatt_disconnected:
.LFB118:
	.loc 1 4852 0
	.cfi_startproc
.LVL310:
	pushl	%ebp
	.cfi_def_cfa_offset 8
	.cfi_offset 5, -8
	movl	%esp, %ebp
	.cfi_def_cfa_register 5
	subl	$8, %esp
	.loc 1 4854 0
	pushl	8(%ebp)
	pushl	$disconnected_cb
	pushl	$65535
	pushl	$1
	call	bt_gatt_foreach_attr
.LVL311:
	.loc 1 4855 0
	addl	$16, %esp
	leave
	.cfi_restore 5
	.cfi_def_cfa 4, 4
	ret
	.cfi_endproc
.LFE118:
	.size	bt_gatt_disconnected, .-bt_gatt_disconnected
	.section	.text.unlikely.bt_gatt_disconnected
.LCOLDE36:
	.section	.text.bt_gatt_disconnected
.LHOTE36:
	.section	.bss.gatt_sc,"aw",@nobits
	.align 32
	.type	gatt_sc, @object
	.size	gatt_sc, 84
gatt_sc:
	.zero	84
	.section	.data.gatt_svc,"aw",@progbits
	.align 4
	.type	gatt_svc, @object
	.size	gatt_svc, 12
gatt_svc:
	.long	gatt_attrs
	.value	4
	.zero	6
	.section	.data.gatt_attrs,"aw",@progbits
	.align 32
	.type	gatt_attrs, @object
	.size	gatt_attrs, 80
gatt_attrs:
	.long	__compound_literal.10
	.long	bt_gatt_attr_read_service
	.zero	4
	.long	__compound_literal.11
	.zero	2
	.byte	1
	.zero	1
	.long	__compound_literal.12
	.long	bt_gatt_attr_read_chrc
	.zero	4
	.long	__compound_literal.14
	.zero	2
	.byte	1
	.zero	1
	.long	__compound_literal.15
	.long	0
	.long	0
	.long	0
	.zero	2
	.byte	0
	.zero	1
	.long	__compound_literal.16
	.long	bt_gatt_attr_read_ccc
	.long	bt_gatt_attr_write_ccc
	.long	__compound_literal.17
	.zero	2
	.byte	3
	.zero	1
	.section	.data.__compound_literal.17,"aw",@progbits
	.align 4
	.type	__compound_literal.17, @object
	.size	__compound_literal.17, 16
__compound_literal.17:
	.long	sc_ccc_cfg
	.long	2
	.zero	4
	.long	sc_ccc_cfg_changed
	.section	.data.__compound_literal.16,"aw",@progbits
	.align 4
	.type	__compound_literal.16, @object
	.size	__compound_literal.16, 4
__compound_literal.16:
	.byte	0
	.zero	1
	.value	10498
	.section	.data.__compound_literal.15,"aw",@progbits
	.align 4
	.type	__compound_literal.15, @object
	.size	__compound_literal.15, 4
__compound_literal.15:
	.byte	0
	.zero	1
	.value	10757
	.section	.data.__compound_literal.14,"aw",@progbits
	.align 4
	.type	__compound_literal.14, @object
	.size	__compound_literal.14, 8
__compound_literal.14:
	.long	__compound_literal.13
	.byte	32
	.zero	3
	.section	.data.__compound_literal.13,"aw",@progbits
	.align 4
	.type	__compound_literal.13, @object
	.size	__compound_literal.13, 4
__compound_literal.13:
	.byte	0
	.zero	1
	.value	10757
	.section	.data.__compound_literal.12,"aw",@progbits
	.align 4
	.type	__compound_literal.12, @object
	.size	__compound_literal.12, 4
__compound_literal.12:
	.byte	0
	.zero	1
	.value	10243
	.section	.data.__compound_literal.11,"aw",@progbits
	.align 4
	.type	__compound_literal.11, @object
	.size	__compound_literal.11, 4
__compound_literal.11:
	.byte	0
	.zero	1
	.value	6145
	.section	.data.__compound_literal.10,"aw",@progbits
	.align 4
	.type	__compound_literal.10, @object
	.size	__compound_literal.10, 4
__compound_literal.10:
	.byte	0
	.zero	1
	.value	10240
	.section	.bss.sc_ccc_cfg,"aw",@nobits
	.align 32
	.type	sc_ccc_cfg, @object
	.size	sc_ccc_cfg, 32
sc_ccc_cfg:
	.zero	32
	.section	.data.gap_svc,"aw",@progbits
	.align 4
	.type	gap_svc, @object
	.size	gap_svc, 12
gap_svc:
	.long	gap_attrs
	.value	5
	.zero	6
	.section	.data.gap_attrs,"aw",@progbits
	.align 32
	.type	gap_attrs, @object
	.size	gap_attrs, 100
gap_attrs:
	.long	__compound_literal.0
	.long	bt_gatt_attr_read_service
	.zero	4
	.long	__compound_literal.1
	.zero	2
	.byte	1
	.zero	1
	.long	__compound_literal.2
	.long	bt_gatt_attr_read_chrc
	.zero	4
	.long	__compound_literal.4
	.zero	2
	.byte	1
	.zero	1
	.long	__compound_literal.5
	.long	read_name
	.long	0
	.long	0
	.zero	2
	.byte	1
	.zero	1
	.long	__compound_literal.6
	.long	bt_gatt_attr_read_chrc
	.zero	4
	.long	__compound_literal.8
	.zero	2
	.byte	1
	.zero	1
	.long	__compound_literal.9
	.long	read_appearance
	.long	0
	.long	0
	.zero	2
	.byte	1
	.zero	1
	.section	.data.__compound_literal.9,"aw",@progbits
	.align 4
	.type	__compound_literal.9, @object
	.size	__compound_literal.9, 4
__compound_literal.9:
	.byte	0
	.zero	1
	.value	10753
	.section	.data.__compound_literal.8,"aw",@progbits
	.align 4
	.type	__compound_literal.8, @object
	.size	__compound_literal.8, 8
__compound_literal.8:
	.long	__compound_literal.7
	.byte	2
	.zero	3
	.section	.data.__compound_literal.7,"aw",@progbits
	.align 4
	.type	__compound_literal.7, @object
	.size	__compound_literal.7, 4
__compound_literal.7:
	.byte	0
	.zero	1
	.value	10753
	.section	.data.__compound_literal.6,"aw",@progbits
	.align 4
	.type	__compound_literal.6, @object
	.size	__compound_literal.6, 4
__compound_literal.6:
	.byte	0
	.zero	1
	.value	10243
	.section	.data.__compound_literal.5,"aw",@progbits
	.align 4
	.type	__compound_literal.5, @object
	.size	__compound_literal.5, 4
__compound_literal.5:
	.byte	0
	.zero	1
	.value	10752
	.section	.data.__compound_literal.4,"aw",@progbits
	.align 4
	.type	__compound_literal.4, @object
	.size	__compound_literal.4, 8
__compound_literal.4:
	.long	__compound_literal.3
	.byte	2
	.zero	3
	.section	.data.__compound_literal.3,"aw",@progbits
	.align 4
	.type	__compound_literal.3, @object
	.size	__compound_literal.3, 4
__compound_literal.3:
	.byte	0
	.zero	1
	.value	10752
	.section	.data.__compound_literal.2,"aw",@progbits
	.align 4
	.type	__compound_literal.2, @object
	.size	__compound_literal.2, 4
__compound_literal.2:
	.byte	0
	.zero	1
	.value	10243
	.section	.data.__compound_literal.1,"aw",@progbits
	.align 4
	.type	__compound_literal.1, @object
	.size	__compound_literal.1, 4
__compound_literal.1:
	.byte	0
	.zero	1
	.value	6144
	.section	.data.__compound_literal.0,"aw",@progbits
	.align 4
	.type	__compound_literal.0, @object
	.size	__compound_literal.0, 4
__compound_literal.0:
	.byte	0
	.zero	1
	.value	10240
	.section	.bss.db,"aw",@nobits
	.align 4
	.type	db, @object
	.size	db, 8
db:
	.zero	8
	.text
.Letext0:
	.section	.text.unlikely.sc_ccc_cfg_changed
.Letext_cold0:
	.section	.note.GNU-stack,"",@progbits
