	.file	"HAL_UDP_rhino.c"
	.text
.Ltext0:
	.section	.rodata.str1.1,"aMS",@progbits,1
.LC0:
	.string	"socket create failed\r\n"
.LC1:
	.string	"setsockopt SO_REUSEADDR failed"
.LC2:
	.string	"setsockopt IP_PKTINFO failed\r\n"
	.section	.text.unlikely.HAL_UDP_create,"ax",@progbits
.LCOLDB3:
	.section	.text.HAL_UDP_create,"ax",@progbits
.LHOTB3:
	.section	.text.unlikely.HAL_UDP_create
.Ltext_cold0:
	.section	.text.HAL_UDP_create
	.globl	HAL_UDP_create
	.type	HAL_UDP_create, @function
HAL_UDP_create:
.LFB17:
	.file 1 "framework/protocol/linkkit/iotkit/hal-impl/rhino/HAL_UDP_rhino.c"
	.loc 1 34 0
	.cfi_startproc
.LVL0:
	pushl	%ebp
	.cfi_def_cfa_offset 8
	.cfi_offset 5, -8
	movl	%esp, %ebp
	.cfi_def_cfa_register 5
	pushl	%edi
	pushl	%esi
	pushl	%ebx
	subl	$64, %esp
	.cfi_offset 7, -12
	.cfi_offset 6, -16
	.cfi_offset 3, -20
	.loc 1 34 0
	movl	12(%ebp), %eax
	movl	8(%ebp), %esi
	.loc 1 40 0
	pushl	$0
	pushl	$2
	pushl	$2
	.loc 1 35 0
	movl	$1, -48(%ebp)
.LVL1:
	.loc 1 34 0
	movl	%eax, -60(%ebp)
	movl	%gs:20, %eax
	movl	%eax, -28(%ebp)
	xorl	%eax, %eax
	.loc 1 40 0
	call	lwip_socket
.LVL2:
	addl	$16, %esp
	testl	%eax, %eax
	jns	.L2
	.loc 1 42 0
	movl	_impure_ptr, %eax
.LVL3:
	.loc 1 42 0
	pushl	%edi
	pushl	%edi
	pushl	12(%eax)
	pushl	$.LC0
	jmp	.L11
.LVL4:
.L2:
	.loc 1 46 0
	leal	-48(%ebp), %edi
	subl	$12, %esp
	movl	%eax, %ebx
	pushl	$4
	pushl	%edi
	pushl	$4
	pushl	$4095
	pushl	%eax
	call	lwip_setsockopt
.LVL5:
	.loc 1 47 0
	addl	$32, %esp
	testl	%eax, %eax
	jns	.L4
	.loc 1 49 0
	subl	$12, %esp
	pushl	%ebx
	call	lwip_close
.LVL6:
	.loc 1 50 0
	movl	_impure_ptr, %eax
	.loc 1 50 0
	popl	%ebx
.LVL7:
	popl	%esi
	pushl	12(%eax)
	pushl	$.LC1
.L11:
	call	fputs
.LVL8:
	.loc 1 51 0
	addl	$16, %esp
	orl	$-1, %eax
	jmp	.L3
.LVL9:
.L4:
	.loc 1 58 0
	subl	$12, %esp
	.loc 1 54 0
	movl	$1, -48(%ebp)
	.loc 1 58 0
	pushl	$4
	pushl	%edi
	pushl	$6
	pushl	$0
	pushl	%ebx
	call	lwip_setsockopt
.LVL10:
	addl	$32, %esp
	testl	%eax, %eax
	jns	.L5
	.loc 1 62 0
	subl	$12, %esp
	pushl	%ebx
	call	lwip_close
.LVL11:
	.loc 1 63 0
	movl	_impure_ptr, %eax
	.loc 1 63 0
	popl	%edx
	popl	%ecx
	pushl	12(%eax)
	pushl	$.LC2
	jmp	.L11
.LVL12:
.L5:
	.loc 1 68 0
	leal	-44(%ebp), %edi
	xorl	%eax, %eax
.LVL13:
	movl	$4, %ecx
	.loc 1 70 0
	testl	%esi, %esi
	.loc 1 68 0
	rep stosl
	.loc 1 69 0
	movb	$2, -43(%ebp)
	.loc 1 70 0
	je	.L6
	.loc 1 71 0
	pushl	%eax
	pushl	%eax
	leal	-40(%ebp), %eax
	pushl	%eax
	pushl	%esi
	call	ip4addr_aton
.LVL14:
	jmp	.L10
.L6:
	.loc 1 73 0
	subl	$12, %esp
	pushl	$0
	call	lwip_htonl
.LVL15:
	movl	%eax, -40(%ebp)
.L10:
	.loc 1 75 0
	movzwl	-60(%ebp), %eax
	.loc 1 73 0
	addl	$16, %esp
	.loc 1 75 0
	subl	$12, %esp
	pushl	%eax
	call	lwip_htons
.LVL16:
	movw	%ax, -42(%ebp)
	.loc 1 76 0
	leal	-44(%ebp), %eax
	addl	$12, %esp
	pushl	$16
	pushl	%eax
	pushl	%ebx
	call	lwip_bind
.LVL17:
	.loc 1 80 0
	addl	$16, %esp
	movl	%ebx, %eax
.LVL18:
.L3:
	.loc 1 81 0
	movl	-28(%ebp), %edx
	xorl	%gs:20, %edx
	je	.L8
	call	__stack_chk_fail
.LVL19:
.L8:
	leal	-12(%ebp), %esp
	popl	%ebx
	.cfi_restore 3
	popl	%esi
	.cfi_restore 6
	popl	%edi
	.cfi_restore 7
	popl	%ebp
	.cfi_restore 5
	.cfi_def_cfa 4, 4
	ret
	.cfi_endproc
.LFE17:
	.size	HAL_UDP_create, .-HAL_UDP_create
	.section	.text.unlikely.HAL_UDP_create
.LCOLDE3:
	.section	.text.HAL_UDP_create
.LHOTE3:
	.section	.text.unlikely.HAL_UDP_connect,"ax",@progbits
.LCOLDB4:
	.section	.text.HAL_UDP_connect,"ax",@progbits
.LHOTB4:
	.globl	HAL_UDP_connect
	.type	HAL_UDP_connect, @function
HAL_UDP_connect:
.LFB18:
	.loc 1 86 0
	.cfi_startproc
.LVL20:
	pushl	%ebp
	.cfi_def_cfa_offset 8
	.cfi_offset 5, -8
	.loc 1 88 0
	xorl	%eax, %eax
	.loc 1 86 0
	movl	%esp, %ebp
	.cfi_def_cfa_register 5
	.loc 1 88 0
	popl	%ebp
	.cfi_restore 5
	.cfi_def_cfa 4, 4
	ret
	.cfi_endproc
.LFE18:
	.size	HAL_UDP_connect, .-HAL_UDP_connect
	.section	.text.unlikely.HAL_UDP_connect
.LCOLDE4:
	.section	.text.HAL_UDP_connect
.LHOTE4:
	.section	.text.unlikely.HAL_UDP_recvfrom,"ax",@progbits
.LCOLDB5:
	.section	.text.HAL_UDP_recvfrom,"ax",@progbits
.LHOTB5:
	.globl	HAL_UDP_recvfrom
	.type	HAL_UDP_recvfrom, @function
HAL_UDP_recvfrom:
.LFB19:
	.loc 1 95 0
	.cfi_startproc
.LVL21:
	pushl	%ebp
	.cfi_def_cfa_offset 8
	.cfi_offset 5, -8
	movl	%esp, %ebp
	.cfi_def_cfa_register 5
	pushl	%edi
	pushl	%esi
	pushl	%ebx
	subl	$60, %esp
	.cfi_offset 7, -12
	.cfi_offset 6, -16
	.cfi_offset 3, -20
	.loc 1 95 0
	movl	12(%ebp), %esi
	movl	16(%ebp), %edi
	movl	%gs:20, %eax
	movl	%eax, -28(%ebp)
	xorl	%eax, %eax
.LVL22:
	.loc 1 99 0
	movl	$0, -64(%ebp)
	.loc 1 103 0
	testl	%esi, %esi
	je	.L21
	testl	%edi, %edi
	jne	.L16
.LVL23:
.L21:
	.loc 1 104 0
	orl	$-1, %ebx
	jmp	.L18
.LVL24:
.L16:
	.loc 1 110 0 discriminator 1
	movl	8(%ebp), %edx
	movl	8(%ebp), %ecx
	movl	$1, %eax
.LBB2:
	.loc 1 109 0 discriminator 1
	movb	$0, -52(%ebp)
.LVL25:
	movb	$0, -51(%ebp)
.LVL26:
.LBE2:
	.loc 1 119 0 discriminator 1
	movl	$-2, %ebx
.LBB3:
	.loc 1 109 0 discriminator 1
	movb	$0, -50(%ebp)
.LVL27:
	movb	$0, -49(%ebp)
.LVL28:
.LBE3:
	.loc 1 110 0 discriminator 1
	shrl	$5, %edx
	sall	%cl, %eax
.LBB4:
	.loc 1 109 0 discriminator 1
	movb	$0, -48(%ebp)
.LVL29:
	movb	$0, -47(%ebp)
.LVL30:
	movb	$0, -46(%ebp)
.LVL31:
.LBE4:
	.loc 1 112 0 discriminator 1
	movl	$1000, %ecx
.LBB5:
	.loc 1 109 0 discriminator 1
	movb	$0, -45(%ebp)
.LVL32:
.LBE5:
	.loc 1 110 0 discriminator 1
	orl	%eax, -52(%ebp,%edx,4)
	.loc 1 112 0 discriminator 1
	xorl	%edx, %edx
	movl	24(%ebp), %eax
	divl	%ecx
	.loc 1 113 0 discriminator 1
	imull	$1000, %edx, %edx
	.loc 1 115 0 discriminator 1
	cmpl	$0, 24(%ebp)
	.loc 1 112 0 discriminator 1
	movl	%eax, -60(%ebp)
	.loc 1 115 0 discriminator 1
	leal	-60(%ebp), %eax
	.loc 1 113 0 discriminator 1
	movl	%edx, -56(%ebp)
	.loc 1 115 0 discriminator 1
	movl	$0, %edx
	cmove	%edx, %eax
	subl	$12, %esp
	pushl	%eax
	leal	-52(%ebp), %eax
	pushl	$0
	pushl	$0
	pushl	%eax
	movl	8(%ebp), %eax
	incl	%eax
	pushl	%eax
	call	lwip_select
.LVL33:
	.loc 1 118 0 discriminator 1
	addl	$32, %esp
	testl	%eax, %eax
	je	.L18
	.loc 1 122 0
	jns	.L20
	.loc 1 127 0
	xorl	%ebx, %ebx
	.loc 1 123 0
	call	__errno
.LVL34:
	.loc 1 127 0
	cmpl	$4, (%eax)
	sete	%bl
	subl	$4, %ebx
	jmp	.L18
.LVL35:
.L20:
	.loc 1 131 0
	leal	-64(%ebp), %eax
.LVL36:
	pushl	%edx
	pushl	%edx
	.loc 1 130 0
	movl	$16, -64(%ebp)
	.loc 1 131 0
	pushl	%eax
	leal	-44(%ebp), %eax
.LVL37:
	pushl	%eax
	pushl	$0
	pushl	20(%ebp)
	pushl	%edi
	pushl	8(%ebp)
	call	lwip_recvfrom
.LVL38:
	.loc 1 132 0
	addl	$32, %esp
	cmpl	$-1, %eax
	je	.L21
	.loc 1 136 0
	cmpb	$2, -43(%ebp)
	movl	%eax, %ebx
	jne	.L18
.LVL39:
.LVL40:
.LBB6:
	.loc 1 139 0
	pushl	%eax
	leal	-40(%ebp), %eax
	pushl	$16
	pushl	%esi
	pushl	%eax
	call	ip4addr_ntoa_r
.LVL41:
	.loc 1 140 0
	movzwl	-42(%ebp), %eax
	movl	%eax, (%esp)
	call	lwip_htons
.LVL42:
	addl	$16, %esp
	movw	%ax, 16(%esi)
.LVL43:
.L18:
.LBE6:
	.loc 1 143 0
	movl	-28(%ebp), %edi
	xorl	%gs:20, %edi
	movl	%ebx, %eax
	je	.L22
	call	__stack_chk_fail
.LVL44:
.L22:
	leal	-12(%ebp), %esp
	popl	%ebx
	.cfi_restore 3
	popl	%esi
	.cfi_restore 6
	popl	%edi
	.cfi_restore 7
	popl	%ebp
	.cfi_restore 5
	.cfi_def_cfa 4, 4
	ret
	.cfi_endproc
.LFE19:
	.size	HAL_UDP_recvfrom, .-HAL_UDP_recvfrom
	.section	.text.unlikely.HAL_UDP_recvfrom
.LCOLDE5:
	.section	.text.HAL_UDP_recvfrom
.LHOTE5:
	.section	.text.unlikely.HAL_UDP_recv,"ax",@progbits
.LCOLDB6:
	.section	.text.HAL_UDP_recv,"ax",@progbits
.LHOTB6:
	.globl	HAL_UDP_recv
	.type	HAL_UDP_recv, @function
HAL_UDP_recv:
.LFB26:
	.cfi_startproc
	pushl	%ebp
	.cfi_def_cfa_offset 8
	.cfi_offset 5, -8
	xorl	%eax, %eax
	movl	%esp, %ebp
	.cfi_def_cfa_register 5
	popl	%ebp
	.cfi_restore 5
	.cfi_def_cfa 4, 4
	ret
	.cfi_endproc
.LFE26:
	.size	HAL_UDP_recv, .-HAL_UDP_recv
	.section	.text.unlikely.HAL_UDP_recv
.LCOLDE6:
	.section	.text.HAL_UDP_recv
.LHOTE6:
	.section	.text.unlikely.HAL_UDP_sendto,"ax",@progbits
.LCOLDB7:
	.section	.text.HAL_UDP_sendto,"ax",@progbits
.LHOTB7:
	.globl	HAL_UDP_sendto
	.type	HAL_UDP_sendto, @function
HAL_UDP_sendto:
.LFB21:
	.loc 1 159 0
	.cfi_startproc
.LVL45:
	.loc 1 159 0
	pushl	%ebp
	.cfi_def_cfa_offset 8
	.cfi_offset 5, -8
	movl	%esp, %ebp
	.cfi_def_cfa_register 5
	pushl	%edi
	pushl	%esi
	pushl	%ebx
	subl	$44, %esp
	.cfi_offset 7, -12
	.cfi_offset 6, -16
	.cfi_offset 3, -20
	.loc 1 159 0
	movl	12(%ebp), %ebx
	movl	16(%ebp), %esi
	movl	%gs:20, %eax
	movl	%eax, -28(%ebp)
	xorl	%eax, %eax
.LVL46:
	.loc 1 164 0
	testl	%ebx, %ebx
	je	.L37
	testl	%esi, %esi
	jne	.L34
.LVL47:
.L37:
	.loc 1 165 0
	orl	$-1, %eax
	jmp	.L36
.LVL48:
.L34:
	.loc 1 170 0
	leal	-40(%ebp), %eax
	pushl	%ecx
	pushl	%ecx
	.loc 1 169 0
	movb	$2, -43(%ebp)
	.loc 1 170 0
	leal	-44(%ebp), %edi
	pushl	%eax
	pushl	%ebx
	call	ip4addr_aton
.LVL49:
	addl	$16, %esp
	decl	%eax
.LVL50:
	jne	.L37
	.loc 1 174 0
	movzwl	16(%ebx), %eax
	subl	$12, %esp
	pushl	%eax
	call	lwip_htons
.LVL51:
	movw	%ax, -42(%ebp)
	.loc 1 175 0
	popl	%eax
	popl	%edx
	pushl	$16
	pushl	%edi
	pushl	$0
	pushl	20(%ebp)
	pushl	%esi
	pushl	8(%ebp)
	call	lwip_sendto
.LVL52:
	addl	$32, %esp
.LVL53:
.L36:
	.loc 1 183 0
	movl	-28(%ebp), %edx
	xorl	%gs:20, %edx
	je	.L38
	call	__stack_chk_fail
.LVL54:
.L38:
	leal	-12(%ebp), %esp
	popl	%ebx
	.cfi_restore 3
	popl	%esi
	.cfi_restore 6
	popl	%edi
	.cfi_restore 7
	popl	%ebp
	.cfi_restore 5
	.cfi_def_cfa 4, 4
	ret
	.cfi_endproc
.LFE21:
	.size	HAL_UDP_sendto, .-HAL_UDP_sendto
	.section	.text.unlikely.HAL_UDP_sendto
.LCOLDE7:
	.section	.text.HAL_UDP_sendto
.LHOTE7:
	.section	.text.unlikely.HAL_UDP_send,"ax",@progbits
.LCOLDB8:
	.section	.text.HAL_UDP_send,"ax",@progbits
.LHOTB8:
	.globl	HAL_UDP_send
	.type	HAL_UDP_send, @function
HAL_UDP_send:
.LFB22:
	.loc 1 189 0
	.cfi_startproc
.LVL55:
	pushl	%ebp
	.cfi_def_cfa_offset 8
	.cfi_offset 5, -8
	.loc 1 191 0
	xorl	%eax, %eax
	.loc 1 189 0
	movl	%esp, %ebp
	.cfi_def_cfa_register 5
	.loc 1 191 0
	popl	%ebp
	.cfi_restore 5
	.cfi_def_cfa 4, 4
	ret
	.cfi_endproc
.LFE22:
	.size	HAL_UDP_send, .-HAL_UDP_send
	.section	.text.unlikely.HAL_UDP_send
.LCOLDE8:
	.section	.text.HAL_UDP_send
.LHOTE8:
	.section	.rodata.str1.1
.LC9:
	.string	"setsockopt():IP_MULTICAST_LOOP failed\r\n"
.LC10:
	.string	"setsockopt():IP_ADD_MEMBERSHIP failed\r\n"
	.section	.text.unlikely.HAL_UDP_joinmulticast,"ax",@progbits
.LCOLDB11:
	.section	.text.HAL_UDP_joinmulticast,"ax",@progbits
.LHOTB11:
	.globl	HAL_UDP_joinmulticast
	.type	HAL_UDP_joinmulticast, @function
HAL_UDP_joinmulticast:
.LFB23:
	.loc 1 195 0
	.cfi_startproc
.LVL56:
	pushl	%ebp
	.cfi_def_cfa_offset 8
	.cfi_offset 5, -8
	movl	%esp, %ebp
	.cfi_def_cfa_register 5
	pushl	%edi
	pushl	%esi
	pushl	%ebx
	subl	$28, %esp
	.cfi_offset 7, -12
	.cfi_offset 6, -16
	.cfi_offset 3, -20
	.loc 1 195 0
	movl	12(%ebp), %edi
	movl	8(%ebp), %esi
	movl	%gs:20, %eax
	movl	%eax, -28(%ebp)
	xorl	%eax, %eax
.LVL57:
	.loc 1 200 0
	orl	$-1, %eax
	.loc 1 199 0
	testl	%edi, %edi
	je	.L43
	.loc 1 206 0
	leal	-40(%ebp), %eax
	subl	$12, %esp
	.loc 1 204 0
	movl	$1, -40(%ebp)
.LVL58:
	.loc 1 206 0
	pushl	$4
	pushl	%eax
	pushl	$7
	pushl	$0
	pushl	%esi
	call	lwip_setsockopt
.LVL59:
	.loc 1 207 0
	addl	$32, %esp
	testl	%eax, %eax
	.loc 1 206 0
	movl	%eax, %ebx
.LVL60:
	.loc 1 207 0
	jns	.L44
	.loc 1 209 0
	movl	_impure_ptr, %eax
.LVL61:
	.loc 1 209 0
	pushl	%edx
	pushl	%edx
	pushl	12(%eax)
	pushl	$.LC9
	jmp	.L49
.LVL62:
.L44:
	.loc 1 214 0
	subl	$12, %esp
	pushl	%edi
	call	ipaddr_addr
.LVL63:
	.loc 1 215 0
	movl	$0, (%esp)
	.loc 1 214 0
	movl	%eax, -36(%ebp)
	.loc 1 215 0
	call	lwip_htonl
.LVL64:
	movl	%eax, -32(%ebp)
	.loc 1 218 0
	leal	-36(%ebp), %eax
	movl	$8, (%esp)
	pushl	%eax
	pushl	$3
	pushl	$0
	pushl	%esi
	call	lwip_setsockopt
.LVL65:
	movl	%eax, %ebx
.LVL66:
	.loc 1 219 0
	addl	$32, %esp
	.loc 1 225 0
	xorl	%eax, %eax
.LVL67:
	.loc 1 219 0
	testl	%ebx, %ebx
	jns	.L43
	.loc 1 221 0
	pushl	%eax
	pushl	%eax
	.loc 1 221 0
	movl	_impure_ptr, %eax
	.loc 1 221 0
	pushl	12(%eax)
	pushl	$.LC10
.L49:
	call	fputs
.LVL68:
	.loc 1 222 0
	addl	$16, %esp
	movl	%ebx, %eax
.LVL69:
.L43:
	.loc 1 226 0
	movl	-28(%ebp), %edx
	xorl	%gs:20, %edx
	je	.L45
	call	__stack_chk_fail
.LVL70:
.L45:
	leal	-12(%ebp), %esp
	popl	%ebx
	.cfi_restore 3
	popl	%esi
	.cfi_restore 6
	popl	%edi
	.cfi_restore 7
	popl	%ebp
	.cfi_restore 5
	.cfi_def_cfa 4, 4
	ret
	.cfi_endproc
.LFE23:
	.size	HAL_UDP_joinmulticast, .-HAL_UDP_joinmulticast
	.section	.text.unlikely.HAL_UDP_joinmulticast
.LCOLDE11:
	.section	.text.HAL_UDP_joinmulticast
.LHOTE11:
	.section	.text.unlikely.HAL_UDP_close,"ax",@progbits
.LCOLDB12:
	.section	.text.HAL_UDP_close,"ax",@progbits
.LHOTB12:
	.globl	HAL_UDP_close
	.type	HAL_UDP_close, @function
HAL_UDP_close:
.LFB24:
	.loc 1 229 0
	.cfi_startproc
.LVL71:
	pushl	%ebp
	.cfi_def_cfa_offset 8
	.cfi_offset 5, -8
	movl	%esp, %ebp
	.cfi_def_cfa_register 5
.LVL72:
	.loc 1 234 0
	popl	%ebp
	.cfi_restore 5
	.cfi_def_cfa 4, 4
	.loc 1 233 0
	jmp	lwip_close
.LVL73:
	.cfi_endproc
.LFE24:
	.size	HAL_UDP_close, .-HAL_UDP_close
	.section	.text.unlikely.HAL_UDP_close
.LCOLDE12:
	.section	.text.HAL_UDP_close
.LHOTE12:
	.text
.Letext0:
	.section	.text.unlikely.HAL_UDP_create
.Letext_cold0:
	.file 2 "/home/stone/Documents/Ali_IOT/build/compiler/gcc-arm-none-eabi/Linux64/arm-none-eabi/include/machine/_default_types.h"
	.file 3 "/home/stone/Documents/Ali_IOT/build/compiler/gcc-arm-none-eabi/Linux64/lib/gcc/arm-none-eabi/5.4.1/include/stddef.h"
	.file 4 "/home/stone/Documents/Ali_IOT/build/compiler/gcc-arm-none-eabi/Linux64/arm-none-eabi/include/sys/lock.h"
	.file 5 "/home/stone/Documents/Ali_IOT/build/compiler/gcc-arm-none-eabi/Linux64/arm-none-eabi/include/sys/_types.h"
	.file 6 "/home/stone/Documents/Ali_IOT/build/compiler/gcc-arm-none-eabi/Linux64/arm-none-eabi/include/sys/reent.h"
	.file 7 "/home/stone/Documents/Ali_IOT/build/compiler/gcc-arm-none-eabi/Linux64/arm-none-eabi/include/sys/_stdint.h"
	.file 8 "/home/stone/Documents/Ali_IOT/build/compiler/gcc-arm-none-eabi/Linux64/arm-none-eabi/include/sys/_timeval.h"
	.file 9 "/home/stone/Documents/Ali_IOT/build/compiler/gcc-arm-none-eabi/Linux64/arm-none-eabi/include/sys/select.h"
	.file 10 "/home/stone/Documents/Ali_IOT/build/compiler/gcc-arm-none-eabi/Linux64/arm-none-eabi/include/sys/types.h"
	.file 11 "././platform/mcu/moc108/include/lwip-2.0.2/arch/cc.h"
	.file 12 "./kernel/protocols/net/include/lwip/ip4_addr.h"
	.file 13 "./kernel/protocols/net/include/lwip/inet.h"
	.file 14 "./kernel/protocols/net/include/lwip/sockets.h"
	.file 15 "./framework/protocol/linkkit/iotkit/sdk-encap/iot_import.h"
	.file 16 "./include/aos/log.h"
	.file 17 "./kernel/protocols/net/include/lwip/def.h"
	.file 18 "/home/stone/Documents/Ali_IOT/build/compiler/gcc-arm-none-eabi/Linux64/arm-none-eabi/include/sys/errno.h"
	.file 19 "<built-in>"
	.section	.note.GNU-stack,"",@progbits
