	.file	"HAL_PRODUCT_rhino.c"
	.text
.Ltext0:
	.section	.rodata.str1.1,"aMS",@progbits,1
.LC0:
	.string	"AliOSThings"
	.section	.text.unlikely.HAL_GetPartnerID,"ax",@progbits
.LCOLDB1:
	.section	.text.HAL_GetPartnerID,"ax",@progbits
.LHOTB1:
	.section	.text.unlikely.HAL_GetPartnerID
.Ltext_cold0:
	.section	.text.HAL_GetPartnerID
	.globl	HAL_GetPartnerID
	.type	HAL_GetPartnerID, @function
HAL_GetPartnerID:
.LFB1:
	.file 1 "framework/protocol/linkkit/iotkit/hal-impl/rhino/HAL_PRODUCT_rhino.c"
	.loc 1 31 0
	.cfi_startproc
.LVL0:
	pushl	%ebp
	.cfi_def_cfa_offset 8
	.cfi_offset 5, -8
	.loc 1 33 0
	movl	$3, %ecx
	.loc 1 35 0
	movl	$12, %eax
	.loc 1 31 0
	movl	%esp, %ebp
	.cfi_def_cfa_register 5
	pushl	%edi
	pushl	%esi
	.cfi_offset 7, -12
	.cfi_offset 6, -16
	.loc 1 33 0
	movl	8(%ebp), %edi
	movl	$.LC0, %esi
	rep movsl
	.loc 1 35 0
	popl	%esi
	.cfi_restore 6
	popl	%edi
	.cfi_restore 7
	popl	%ebp
	.cfi_restore 5
	.cfi_def_cfa 4, 4
	ret
	.cfi_endproc
.LFE1:
	.size	HAL_GetPartnerID, .-HAL_GetPartnerID
	.section	.text.unlikely.HAL_GetPartnerID
.LCOLDE1:
	.section	.text.HAL_GetPartnerID
.LHOTE1:
	.section	.rodata.str1.1
.LC2:
	.string	"GeneralID"
	.section	.text.unlikely.HAL_GetModuleID,"ax",@progbits
.LCOLDB3:
	.section	.text.HAL_GetModuleID,"ax",@progbits
.LHOTB3:
	.globl	HAL_GetModuleID
	.type	HAL_GetModuleID, @function
HAL_GetModuleID:
.LFB2:
	.loc 1 45 0
	.cfi_startproc
.LVL1:
	pushl	%ebp
	.cfi_def_cfa_offset 8
	.cfi_offset 5, -8
	.loc 1 47 0
	movl	$10, %ecx
	.loc 1 49 0
	movl	$10, %eax
	.loc 1 45 0
	movl	%esp, %ebp
	.cfi_def_cfa_register 5
	pushl	%edi
	pushl	%esi
	.cfi_offset 7, -12
	.cfi_offset 6, -16
	.loc 1 47 0
	movl	8(%ebp), %edi
	movl	$.LC2, %esi
	rep movsb
	.loc 1 49 0
	popl	%esi
	.cfi_restore 6
	popl	%edi
	.cfi_restore 7
	popl	%ebp
	.cfi_restore 5
	.cfi_def_cfa 4, 4
	ret
	.cfi_endproc
.LFE2:
	.size	HAL_GetModuleID, .-HAL_GetModuleID
	.section	.text.unlikely.HAL_GetModuleID
.LCOLDE3:
	.section	.text.HAL_GetModuleID
.LHOTE3:
	.section	.rodata.str1.1
.LC4:
	.string	"yfTuLfBJTiL"
	.section	.text.unlikely.HAL_GetProductKey,"ax",@progbits
.LCOLDB5:
	.section	.text.HAL_GetProductKey,"ax",@progbits
.LHOTB5:
	.globl	HAL_GetProductKey
	.type	HAL_GetProductKey, @function
HAL_GetProductKey:
.LFB3:
	.loc 1 58 0
	.cfi_startproc
.LVL2:
	pushl	%ebp
	.cfi_def_cfa_offset 8
	.cfi_offset 5, -8
	.loc 1 60 0
	movl	$3, %ecx
	.loc 1 62 0
	movl	$12, %eax
	.loc 1 58 0
	movl	%esp, %ebp
	.cfi_def_cfa_register 5
	pushl	%edi
	pushl	%esi
	.cfi_offset 7, -12
	.cfi_offset 6, -16
	.loc 1 60 0
	movl	8(%ebp), %edi
	movl	$.LC4, %esi
	rep movsl
	.loc 1 62 0
	popl	%esi
	.cfi_restore 6
	popl	%edi
	.cfi_restore 7
	popl	%ebp
	.cfi_restore 5
	.cfi_def_cfa 4, 4
	ret
	.cfi_endproc
.LFE3:
	.size	HAL_GetProductKey, .-HAL_GetProductKey
	.section	.text.unlikely.HAL_GetProductKey
.LCOLDE5:
	.section	.text.HAL_GetProductKey
.LHOTE5:
	.section	.rodata.str1.1
.LC6:
	.string	"TestDeviceForDemo"
	.section	.text.unlikely.HAL_GetDeviceName,"ax",@progbits
.LCOLDB7:
	.section	.text.HAL_GetDeviceName,"ax",@progbits
.LHOTB7:
	.globl	HAL_GetDeviceName
	.type	HAL_GetDeviceName, @function
HAL_GetDeviceName:
.LFB4:
	.loc 1 71 0
	.cfi_startproc
.LVL3:
	pushl	%ebp
	.cfi_def_cfa_offset 8
	.cfi_offset 5, -8
	.loc 1 73 0
	movl	$18, %ecx
	.loc 1 75 0
	movl	$18, %eax
	.loc 1 71 0
	movl	%esp, %ebp
	.cfi_def_cfa_register 5
	pushl	%edi
	pushl	%esi
	.cfi_offset 7, -12
	.cfi_offset 6, -16
	.loc 1 73 0
	movl	8(%ebp), %edi
	movl	$.LC6, %esi
	rep movsb
	.loc 1 75 0
	popl	%esi
	.cfi_restore 6
	popl	%edi
	.cfi_restore 7
	popl	%ebp
	.cfi_restore 5
	.cfi_def_cfa 4, 4
	ret
	.cfi_endproc
.LFE4:
	.size	HAL_GetDeviceName, .-HAL_GetDeviceName
	.section	.text.unlikely.HAL_GetDeviceName
.LCOLDE7:
	.section	.text.HAL_GetDeviceName
.LHOTE7:
	.section	.rodata.str1.1
.LC8:
	.string	"fSCl9Ns5YPnYN8Ocg0VEel1kXFnRlV6c"
	.section	.text.unlikely.HAL_GetDeviceSecret,"ax",@progbits
.LCOLDB9:
	.section	.text.HAL_GetDeviceSecret,"ax",@progbits
.LHOTB9:
	.globl	HAL_GetDeviceSecret
	.type	HAL_GetDeviceSecret, @function
HAL_GetDeviceSecret:
.LFB5:
	.loc 1 84 0
	.cfi_startproc
.LVL4:
	pushl	%ebp
	.cfi_def_cfa_offset 8
	.cfi_offset 5, -8
	.loc 1 86 0
	movl	$33, %ecx
	.loc 1 88 0
	movl	$33, %eax
	.loc 1 84 0
	movl	%esp, %ebp
	.cfi_def_cfa_register 5
	pushl	%edi
	pushl	%esi
	.cfi_offset 7, -12
	.cfi_offset 6, -16
	.loc 1 86 0
	movl	8(%ebp), %edi
	movl	$.LC8, %esi
	rep movsb
	.loc 1 88 0
	popl	%esi
	.cfi_restore 6
	popl	%edi
	.cfi_restore 7
	popl	%ebp
	.cfi_restore 5
	.cfi_def_cfa 4, 4
	ret
	.cfi_endproc
.LFE5:
	.size	HAL_GetDeviceSecret, .-HAL_GetDeviceSecret
	.section	.text.unlikely.HAL_GetDeviceSecret
.LCOLDE9:
	.section	.text.HAL_GetDeviceSecret
.LHOTE9:
	.section	.text.unlikely.HAL_GetProductSecret,"ax",@progbits
.LCOLDB10:
	.section	.text.HAL_GetProductSecret,"ax",@progbits
.LHOTB10:
	.globl	HAL_GetProductSecret
	.type	HAL_GetProductSecret, @function
HAL_GetProductSecret:
.LFB6:
	.loc 1 97 0
	.cfi_startproc
.LVL5:
	pushl	%ebp
	.cfi_def_cfa_offset 8
	.cfi_offset 5, -8
	movl	%esp, %ebp
	.cfi_def_cfa_register 5
	.loc 1 99 0
	movl	8(%ebp), %eax
	movb	$0, (%eax)
	.loc 1 101 0
	movl	$1, %eax
	popl	%ebp
	.cfi_restore 5
	.cfi_def_cfa 4, 4
	ret
	.cfi_endproc
.LFE6:
	.size	HAL_GetProductSecret, .-HAL_GetProductSecret
	.section	.text.unlikely.HAL_GetProductSecret
.LCOLDE10:
	.section	.text.HAL_GetProductSecret
.LHOTE10:
	.section	.rodata.str1.1
.LC11:
	.string	"AosAwssDeviceID"
	.section	.text.unlikely.HAL_GetDeviceID,"ax",@progbits
.LCOLDB12:
	.section	.text.HAL_GetDeviceID,"ax",@progbits
.LHOTB12:
	.globl	HAL_GetDeviceID
	.type	HAL_GetDeviceID, @function
HAL_GetDeviceID:
.LFB7:
	.loc 1 110 0
	.cfi_startproc
.LVL6:
	pushl	%ebp
	.cfi_def_cfa_offset 8
	.cfi_offset 5, -8
	.loc 1 112 0
	movl	$4, %ecx
	.loc 1 114 0
	movl	$16, %eax
	.loc 1 110 0
	movl	%esp, %ebp
	.cfi_def_cfa_register 5
	pushl	%edi
	pushl	%esi
	.cfi_offset 7, -12
	.cfi_offset 6, -16
	.loc 1 112 0
	movl	8(%ebp), %edi
	movl	$.LC11, %esi
	rep movsl
	.loc 1 114 0
	popl	%esi
	.cfi_restore 6
	popl	%edi
	.cfi_restore 7
	popl	%ebp
	.cfi_restore 5
	.cfi_def_cfa 4, 4
	ret
	.cfi_endproc
.LFE7:
	.size	HAL_GetDeviceID, .-HAL_GetDeviceID
	.section	.text.unlikely.HAL_GetDeviceID
.LCOLDE12:
	.section	.text.HAL_GetDeviceID
.LHOTE12:
	.section	.rodata.str1.1
.LC13:
	.string	"AosAwssFwVersion"
	.section	.text.unlikely.HAL_GetFirmwareVesion,"ax",@progbits
.LCOLDB14:
	.section	.text.HAL_GetFirmwareVesion,"ax",@progbits
.LHOTB14:
	.globl	HAL_GetFirmwareVesion
	.type	HAL_GetFirmwareVesion, @function
HAL_GetFirmwareVesion:
.LFB8:
	.loc 1 123 0
	.cfi_startproc
.LVL7:
	pushl	%ebp
	.cfi_def_cfa_offset 8
	.cfi_offset 5, -8
	.loc 1 125 0
	movl	$17, %ecx
	.loc 1 127 0
	movl	$17, %eax
	.loc 1 123 0
	movl	%esp, %ebp
	.cfi_def_cfa_register 5
	pushl	%edi
	pushl	%esi
	.cfi_offset 7, -12
	.cfi_offset 6, -16
	.loc 1 125 0
	movl	8(%ebp), %edi
	movl	$.LC13, %esi
	rep movsb
	.loc 1 127 0
	popl	%esi
	.cfi_restore 6
	popl	%edi
	.cfi_restore 7
	popl	%ebp
	.cfi_restore 5
	.cfi_def_cfa 4, 4
	ret
	.cfi_endproc
.LFE8:
	.size	HAL_GetFirmwareVesion, .-HAL_GetFirmwareVesion
	.section	.text.unlikely.HAL_GetFirmwareVesion
.LCOLDE14:
	.section	.text.HAL_GetFirmwareVesion
.LHOTE14:
	.section	.rodata.str1.1
.LC15:
	.string	"AosAwssChiID"
	.section	.text.unlikely.HAL_GetChipID,"ax",@progbits
.LCOLDB16:
	.section	.text.HAL_GetChipID,"ax",@progbits
.LHOTB16:
	.globl	HAL_GetChipID
	.type	HAL_GetChipID, @function
HAL_GetChipID:
.LFB9:
	.loc 1 137 0
	.cfi_startproc
.LVL8:
	pushl	%ebp
	.cfi_def_cfa_offset 8
	.cfi_offset 5, -8
	.loc 1 139 0
	movl	$13, %ecx
	.loc 1 141 0
	xorl	%eax, %eax
	.loc 1 137 0
	movl	%esp, %ebp
	.cfi_def_cfa_register 5
	pushl	%edi
	pushl	%esi
	.cfi_offset 7, -12
	.cfi_offset 6, -16
	.loc 1 139 0
	movl	8(%ebp), %edi
	movl	$.LC15, %esi
	rep movsb
	.loc 1 141 0
	popl	%esi
	.cfi_restore 6
	popl	%edi
	.cfi_restore 7
	popl	%ebp
	.cfi_restore 5
	.cfi_def_cfa 4, 4
	ret
	.cfi_endproc
.LFE9:
	.size	HAL_GetChipID, .-HAL_GetChipID
	.section	.text.unlikely.HAL_GetChipID
.LCOLDE16:
	.section	.text.HAL_GetChipID
.LHOTE16:
	.text
.Letext0:
	.section	.text.unlikely.HAL_GetPartnerID
.Letext_cold0:
	.section	.note.GNU-stack,"",@progbits
