	.file	"HAL_TCP_rhino.c"
	.text
.Ltext0:
	.section	.rodata.str1.1,"aMS",@progbits,1
.LC0:
	.string	"RHINOSOCK %d %s() | establish tcp connection with server(host=%s port=%u)\n"
.LC1:
	.string	"%u"
.LC2:
	.string	"getaddrinfo error"
.LC3:
	.string	"socket type error"
.LC4:
	.string	"create socket error"
.LC5:
	.string	"connect error"
.LC6:
	.string	"RHINOSOCK %d %s() | fail to establish tcp\n"
.LC7:
	.string	"RHINOSOCK %d %s() | success to establish tcp, fd=%d\n"
	.section	.text.unlikely.HAL_TCP_Establish,"ax",@progbits
.LCOLDB8:
	.section	.text.HAL_TCP_Establish,"ax",@progbits
.LHOTB8:
	.section	.text.unlikely.HAL_TCP_Establish
.Ltext_cold0:
	.section	.text.HAL_TCP_Establish
	.globl	HAL_TCP_Establish
	.type	HAL_TCP_Establish, @function
HAL_TCP_Establish:
.LFB17:
	.file 1 "framework/protocol/linkkit/iotkit/hal-impl/rhino/HAL_TCP_rhino.c"
	.loc 1 22 0
	.cfi_startproc
.LVL0:
	pushl	%ebp
	.cfi_def_cfa_offset 8
	.cfi_offset 5, -8
	.loc 1 30 0
	movl	$8, %ecx
	.loc 1 22 0
	movl	%esp, %ebp
	.cfi_def_cfa_register 5
	pushl	%edi
	pushl	%esi
	pushl	%ebx
	.cfi_offset 7, -12
	.cfi_offset 6, -16
	.cfi_offset 3, -20
	.loc 1 30 0
	leal	-68(%ebp), %ebx
	.loc 1 22 0
	subl	$72, %esp
	.loc 1 30 0
	movl	%ebx, %edi
	.loc 1 22 0
	movl	8(%ebp), %esi
	movl	%gs:20, %eax
	movl	%eax, -28(%ebp)
	xorl	%eax, %eax
	.loc 1 24 0
	movl	$0, -72(%ebp)
.LVL1:
	.loc 1 30 0
	rep stosl
	.loc 1 32 0
	movzwl	12(%ebp), %edi
	pushl	%edi
	pushl	%esi
	pushl	$__FUNCTION__.4016
	pushl	$32
	pushl	$.LC0
	call	printf
.LVL2:
	.loc 1 37 0
	addl	$28, %esp
	.loc 1 34 0
	movl	$2, -64(%ebp)
	.loc 1 35 0
	movl	$1, -60(%ebp)
	.loc 1 37 0
	pushl	%edi
	leal	-34(%ebp), %edi
	pushl	$.LC1
	.loc 1 36 0
	movl	$6, -56(%ebp)
	.loc 1 37 0
	pushl	%edi
	call	sprintf
.LVL3:
	.loc 1 39 0
	leal	-72(%ebp), %eax
	pushl	%eax
	pushl	%ebx
	pushl	%edi
	pushl	%esi
	call	lwip_getaddrinfo
.LVL4:
	addl	$32, %esp
	testl	%eax, %eax
	je	.L2
	.loc 1 40 0
	subl	$12, %esp
	pushl	$.LC2
	call	perror
.LVL5:
	.loc 1 41 0
	addl	$16, %esp
	orl	$-1, %eax
	jmp	.L3
.LVL6:
.L2:
	.loc 1 44 0
	movl	-72(%ebp), %ebx
.LVL7:
	movl	%eax, %edi
	xorl	%esi, %esi
.LVL8:
.L4:
	.loc 1 44 0 is_stmt 0 discriminator 1
	testl	%ebx, %ebx
	je	.L16
	.loc 1 45 0 is_stmt 1
	cmpl	$2, 4(%ebx)
	je	.L5
	.loc 1 46 0
	subl	$12, %esp
	pushl	$.LC3
	jmp	.L14
.L5:
	.loc 1 51 0
	pushl	%ecx
	pushl	12(%ebx)
	pushl	8(%ebx)
	pushl	$2
	call	lwip_socket
.LVL9:
	.loc 1 52 0
	addl	$16, %esp
	testl	%eax, %eax
	.loc 1 51 0
	movl	%eax, %esi
.LVL10:
	.loc 1 52 0
	jns	.L7
	.loc 1 53 0
	subl	$12, %esp
	pushl	$.LC4
	jmp	.L14
.L7:
	.loc 1 58 0
	pushl	%edx
	pushl	16(%ebx)
	pushl	20(%ebx)
	pushl	%eax
	call	lwip_connect
.LVL11:
	addl	$16, %esp
	testl	%eax, %eax
	je	.L12
	.loc 1 63 0
	subl	$12, %esp
	pushl	%esi
	call	lwip_close
.LVL12:
	.loc 1 64 0
	movl	$.LC5, (%esp)
.LVL13:
.L14:
	call	perror
.LVL14:
	orl	$-1, %esi
	addl	$16, %esp
	.loc 1 44 0
	movl	28(%ebx), %ebx
.LVL15:
	jmp	.L4
.LVL16:
.L16:
	.loc 1 68 0
	cmpl	$-1, %esi
	jne	.L8
.LVL17:
	.loc 1 69 0
	pushl	%eax
	pushl	$__FUNCTION__.4016
	pushl	$69
	pushl	$.LC6
	call	printf
.LVL18:
	addl	$16, %esp
	jmp	.L10
.LVL19:
.L12:
	.loc 1 51 0
	movl	%esi, %edi
.LVL20:
.L8:
	.loc 1 71 0
	pushl	%edi
	pushl	$__FUNCTION__.4016
	movl	%edi, %esi
	pushl	$71
	pushl	$.LC7
	call	printf
.LVL21:
	addl	$16, %esp
.LVL22:
.L10:
	.loc 1 73 0
	subl	$12, %esp
	pushl	-72(%ebp)
	call	lwip_freeaddrinfo
.LVL23:
	.loc 1 75 0
	movl	%esi, %eax
	addl	$16, %esp
.LVL24:
.L3:
	.loc 1 76 0
	movl	-28(%ebp), %edx
	xorl	%gs:20, %edx
	je	.L11
	call	__stack_chk_fail
.LVL25:
.L11:
	leal	-12(%ebp), %esp
	popl	%ebx
	.cfi_restore 3
	popl	%esi
	.cfi_restore 6
	popl	%edi
	.cfi_restore 7
	popl	%ebp
	.cfi_restore 5
	.cfi_def_cfa 4, 4
	ret
	.cfi_endproc
.LFE17:
	.size	HAL_TCP_Establish, .-HAL_TCP_Establish
	.section	.text.unlikely.HAL_TCP_Establish
.LCOLDE8:
	.section	.text.HAL_TCP_Establish
.LHOTE8:
	.section	.rodata.str1.1
.LC9:
	.string	"shutdown error"
.LC10:
	.string	"closesocket error"
	.section	.text.unlikely.HAL_TCP_Destroy,"ax",@progbits
.LCOLDB11:
	.section	.text.HAL_TCP_Destroy,"ax",@progbits
.LHOTB11:
	.globl	HAL_TCP_Destroy
	.type	HAL_TCP_Destroy, @function
HAL_TCP_Destroy:
.LFB18:
	.loc 1 80 0
	.cfi_startproc
.LVL26:
	pushl	%ebp
	.cfi_def_cfa_offset 8
	.cfi_offset 5, -8
	movl	%esp, %ebp
	.cfi_def_cfa_register 5
	pushl	%ebx
	subl	$12, %esp
	.cfi_offset 3, -12
	.loc 1 80 0
	movl	8(%ebp), %ebx
	.loc 1 84 0
	pushl	$2
	pushl	%ebx
	call	lwip_shutdown
.LVL27:
	.loc 1 85 0
	addl	$16, %esp
	testl	%eax, %eax
	je	.L18
	.loc 1 86 0
	subl	$12, %esp
	pushl	$.LC9
	jmp	.L23
.L18:
	.loc 1 90 0
	subl	$12, %esp
	pushl	%ebx
	call	lwip_close
.LVL28:
	.loc 1 91 0
	addl	$16, %esp
	.loc 1 96 0
	xorl	%edx, %edx
	.loc 1 91 0
	testl	%eax, %eax
	je	.L19
	.loc 1 92 0
	subl	$12, %esp
	pushl	$.LC10
.L23:
	call	perror
.LVL29:
	.loc 1 93 0
	addl	$16, %esp
	orl	$-1, %edx
.L19:
	.loc 1 97 0
	movl	%edx, %eax
	movl	-4(%ebp), %ebx
	leave
	.cfi_restore 5
	.cfi_restore 3
	.cfi_def_cfa 4, 4
	ret
	.cfi_endproc
.LFE18:
	.size	HAL_TCP_Destroy, .-HAL_TCP_Destroy
	.section	.text.unlikely.HAL_TCP_Destroy
.LCOLDE11:
	.section	.text.HAL_TCP_Destroy
.LHOTE11:
	.globl	__udivdi3
	.globl	__umoddi3
	.section	.rodata.str1.1
.LC12:
	.string	"RHINOSOCK %d %s() | Should NOT arrive\n"
.LC13:
	.string	"RHINOSOCK %d %s() | EINTR be caught\n"
.LC14:
	.string	"select-write fail"
.LC15:
	.string	"RHINOSOCK %d %s() | No data be sent\n"
.LC16:
	.string	"send fail"
	.section	.text.unlikely.HAL_TCP_Write,"ax",@progbits
.LCOLDB17:
	.section	.text.HAL_TCP_Write,"ax",@progbits
.LHOTB17:
	.globl	HAL_TCP_Write
	.type	HAL_TCP_Write, @function
HAL_TCP_Write:
.LFB19:
	.loc 1 101 0
	.cfi_startproc
.LVL30:
	pushl	%ebp
	.cfi_def_cfa_offset 8
	.cfi_offset 5, -8
	movl	%esp, %ebp
	.cfi_def_cfa_register 5
	pushl	%edi
	pushl	%esi
	pushl	%ebx
	.cfi_offset 7, -12
	.cfi_offset 6, -16
	.cfi_offset 3, -20
	.loc 1 110 0
	movl	$1, %ebx
	.loc 1 101 0
	subl	$76, %esp
	.loc 1 101 0
	movl	12(%ebp), %eax
	movl	%eax, -80(%ebp)
	movl	%gs:20, %eax
	movl	%eax, -28(%ebp)
	xorl	%eax, %eax
	.loc 1 107 0
	call	HAL_UptimeMs
.LVL31:
	addl	20(%ebp), %eax
.LBB2:
	.loc 1 119 0
	movl	8(%ebp), %ecx
.LBE2:
	.loc 1 107 0
	movl	$0, -68(%ebp)
.LVL32:
	.loc 1 108 0
	movl	$0, -60(%ebp)
	.loc 1 107 0
	movl	%eax, -72(%ebp)
.LVL33:
.LBB4:
	.loc 1 119 0
	movl	8(%ebp), %eax
	shrl	$5, %eax
	movl	%eax, -64(%ebp)
	movl	$1, %eax
	sall	%cl, %eax
	movl	%eax, -76(%ebp)
.LVL34:
.L37:
.LBE4:
	.loc 1 113 0
	call	HAL_UptimeMs
.LVL35:
	cltd
	pushl	%edx
	pushl	%eax
	pushl	-68(%ebp)
	pushl	-72(%ebp)
	call	aliot_platform_time_left
.LVL36:
	movl	%eax, %esi
	.loc 1 115 0
	movl	%edx, %eax
	addl	$16, %esp
	orl	%esi, %eax
	.loc 1 113 0
	movl	%edx, %edi
.LVL37:
	.loc 1 115 0
	je	.L25
.LVL38:
.LBB5:
	.loc 1 119 0 discriminator 1
	movl	-64(%ebp), %eax
	.loc 1 121 0 discriminator 1
	pushl	$0
	pushl	$1000
	pushl	%edx
	pushl	%esi
	.loc 1 119 0 discriminator 1
	movl	-76(%ebp), %ecx
.LBB3:
	.loc 1 118 0 discriminator 1
	movb	$0, -36(%ebp)
.LVL39:
	movb	$0, -35(%ebp)
.LVL40:
	movb	$0, -34(%ebp)
.LVL41:
	movb	$0, -33(%ebp)
.LVL42:
	movb	$0, -32(%ebp)
.LVL43:
	movb	$0, -31(%ebp)
.LVL44:
	movb	$0, -30(%ebp)
.LVL45:
	movb	$0, -29(%ebp)
.LVL46:
.LBE3:
	.loc 1 119 0 discriminator 1
	orl	%ecx, -36(%ebp,%eax,4)
	.loc 1 121 0 discriminator 1
	call	__udivdi3
.LVL47:
	addl	$16, %esp
	movl	%eax, -44(%ebp)
	.loc 1 122 0 discriminator 1
	pushl	$0
	pushl	$1000
	pushl	%edi
	pushl	%esi
	call	__umoddi3
.LVL48:
	imull	$1000, %eax, %eax
	movl	%eax, -40(%ebp)
	.loc 1 124 0 discriminator 1
	leal	-44(%ebp), %eax
	movl	%eax, (%esp)
	leal	-36(%ebp), %eax
	pushl	$0
	pushl	%eax
	movl	8(%ebp), %eax
	pushl	$0
	incl	%eax
	pushl	%eax
	call	lwip_select
.LVL49:
	.loc 1 125 0 discriminator 1
	addl	$32, %esp
	cmpl	$0, %eax
	.loc 1 124 0 discriminator 1
	movl	%eax, %ebx
.LVL50:
	.loc 1 125 0 discriminator 1
	jle	.L26
	.loc 1 126 0
	movl	-64(%ebp), %eax
.LVL51:
	movl	-76(%ebp), %edi
	testl	%edi, -36(%ebp,%eax,4)
	jne	.L31
.LVL52:
	.loc 1 127 0
	pushl	%ebx
	pushl	$__FUNCTION__.4044
	.loc 1 129 0
	xorl	%ebx, %ebx
	.loc 1 127 0
	pushl	$127
	pushl	$.LC12
	call	printf
.LVL53:
	.loc 1 130 0
	addl	$16, %esp
	jmp	.L32
.LVL54:
.L26:
	.loc 1 132 0
	je	.L33
	.loc 1 136 0
	call	__errno
.LVL55:
	.loc 1 136 0
	cmpl	$4, (%eax)
	jne	.L30
	.loc 1 137 0
	pushl	%ecx
	pushl	$__FUNCTION__.4044
	pushl	$137
	jmp	.L46
.L30:
.LVL56:
	.loc 1 142 0
	subl	$12, %esp
	pushl	$.LC14
	jmp	.L45
.LVL57:
.L25:
.LBE5:
	.loc 1 147 0
	testl	%ebx, %ebx
	jle	.L32
.L31:
.LVL58:
	.loc 1 148 0
	movl	16(%ebp), %eax
	subl	-60(%ebp), %eax
	pushl	$0
	pushl	%eax
	movl	-80(%ebp), %eax
	addl	-60(%ebp), %eax
	pushl	%eax
	pushl	8(%ebp)
	call	lwip_send
.LVL59:
	.loc 1 149 0
	addl	$16, %esp
	cmpl	$0, %eax
	.loc 1 148 0
	movl	%eax, %ebx
.LVL60:
	.loc 1 149 0
	jle	.L34
	.loc 1 150 0
	addl	%eax, -60(%ebp)
.LVL61:
	jmp	.L32
.LVL62:
.L34:
	.loc 1 151 0
	jne	.L35
	.loc 1 152 0
	pushl	%edx
	pushl	$__FUNCTION__.4044
	pushl	$152
	pushl	$.LC15
.LVL63:
.L44:
	call	printf
.LVL64:
	addl	$16, %esp
	jmp	.L32
.LVL65:
.L35:
	.loc 1 154 0
	call	__errno
.LVL66:
	.loc 1 154 0
	cmpl	$4, (%eax)
	jne	.L36
	.loc 1 155 0
	pushl	%eax
	pushl	$__FUNCTION__.4044
	pushl	$155
.L46:
	pushl	$.LC13
	jmp	.L44
.L36:
.LVL67:
	.loc 1 160 0
	subl	$12, %esp
	pushl	$.LC16
.L45:
	call	perror
.LVL68:
	.loc 1 161 0
	addl	$16, %esp
	jmp	.L33
.LVL69:
.L32:
	.loc 1 164 0
	movl	-60(%ebp), %eax
	cmpl	16(%ebp), %eax
	jnb	.L33
	.loc 1 164 0 is_stmt 0 discriminator 1
	call	HAL_UptimeMs
.LVL70:
	cltd
	pushl	%edx
	pushl	%eax
	pushl	-68(%ebp)
	pushl	-72(%ebp)
	call	aliot_platform_time_left
.LVL71:
	addl	$16, %esp
	orl	%eax, %edx
	jne	.L37
.LVL72:
.L33:
	.loc 1 167 0 is_stmt 1
	movl	-28(%ebp), %ecx
	xorl	%gs:20, %ecx
	movl	-60(%ebp), %eax
	je	.L38
	call	__stack_chk_fail
.LVL73:
.L38:
	leal	-12(%ebp), %esp
	popl	%ebx
	.cfi_restore 3
.LVL74:
	popl	%esi
	.cfi_restore 6
.LVL75:
	popl	%edi
	.cfi_restore 7
	popl	%ebp
	.cfi_restore 5
	.cfi_def_cfa 4, 4
	ret
	.cfi_endproc
.LFE19:
	.size	HAL_TCP_Write, .-HAL_TCP_Write
	.section	.text.unlikely.HAL_TCP_Write
.LCOLDE17:
	.section	.text.HAL_TCP_Write
.LHOTE17:
	.section	.rodata.str1.1
.LC18:
	.string	"connection is closed"
.LC19:
	.string	"select-recv fail"
	.section	.text.unlikely.HAL_TCP_Read,"ax",@progbits
.LCOLDB20:
	.section	.text.HAL_TCP_Read,"ax",@progbits
.LHOTB20:
	.globl	HAL_TCP_Read
	.type	HAL_TCP_Read, @function
HAL_TCP_Read:
.LFB20:
	.loc 1 171 0
	.cfi_startproc
.LVL76:
	pushl	%ebp
	.cfi_def_cfa_offset 8
	.cfi_offset 5, -8
	movl	%esp, %ebp
	.cfi_def_cfa_register 5
	pushl	%edi
	pushl	%esi
	pushl	%ebx
	.cfi_offset 7, -12
	.cfi_offset 6, -16
	.cfi_offset 3, -20
	.loc 1 179 0
	xorl	%ebx, %ebx
	.loc 1 171 0
	subl	$76, %esp
	.loc 1 171 0
	movl	12(%ebp), %eax
	movl	%eax, -76(%ebp)
	movl	%gs:20, %eax
	movl	%eax, -28(%ebp)
	xorl	%eax, %eax
	.loc 1 178 0
	call	HAL_UptimeMs
.LVL77:
	addl	20(%ebp), %eax
	.loc 1 188 0
	movl	8(%ebp), %ecx
	.loc 1 178 0
	movl	$0, -60(%ebp)
.LVL78:
	movl	%eax, -64(%ebp)
.LVL79:
	.loc 1 188 0
	movl	8(%ebp), %eax
	shrl	$5, %eax
	movl	%eax, -68(%ebp)
	movl	$1, %eax
	sall	%cl, %eax
	movl	%eax, -72(%ebp)
.LVL80:
.L54:
	.loc 1 183 0
	call	HAL_UptimeMs
.LVL81:
	cltd
	pushl	%edx
	pushl	%eax
	pushl	-60(%ebp)
	pushl	-64(%ebp)
	call	aliot_platform_time_left
.LVL82:
	movl	%eax, %esi
	.loc 1 184 0
	movl	%edx, %eax
	addl	$16, %esp
	orl	%esi, %eax
	.loc 1 183 0
	movl	%edx, %edi
.LVL83:
	.loc 1 184 0
	je	.L57
.LVL84:
	.loc 1 188 0 discriminator 1
	movl	-68(%ebp), %eax
	.loc 1 190 0 discriminator 1
	pushl	$0
	pushl	$1000
	pushl	%edi
	pushl	%esi
	.loc 1 188 0 discriminator 1
	movl	-72(%ebp), %edx
.LBB6:
	.loc 1 187 0 discriminator 1
	movb	$0, -36(%ebp)
.LVL85:
	movb	$0, -35(%ebp)
.LVL86:
	movb	$0, -34(%ebp)
.LVL87:
	movb	$0, -33(%ebp)
.LVL88:
	movb	$0, -32(%ebp)
.LVL89:
	movb	$0, -31(%ebp)
.LVL90:
	movb	$0, -30(%ebp)
.LVL91:
	movb	$0, -29(%ebp)
.LVL92:
.LBE6:
	.loc 1 188 0 discriminator 1
	orl	%edx, -36(%ebp,%eax,4)
	.loc 1 190 0 discriminator 1
	call	__udivdi3
.LVL93:
	addl	$16, %esp
	movl	%eax, -44(%ebp)
	.loc 1 191 0 discriminator 1
	pushl	$0
	pushl	$1000
	pushl	%edi
	pushl	%esi
	call	__umoddi3
.LVL94:
	imull	$1000, %eax, %eax
	movl	%eax, -40(%ebp)
	.loc 1 193 0 discriminator 1
	leal	-44(%ebp), %eax
	movl	%eax, (%esp)
	leal	-36(%ebp), %eax
	pushl	$0
	pushl	$0
	pushl	%eax
	movl	8(%ebp), %eax
	incl	%eax
	pushl	%eax
	call	lwip_select
.LVL95:
	.loc 1 194 0 discriminator 1
	addl	$32, %esp
	cmpl	$0, %eax
	jle	.L49
	.loc 1 195 0
	movl	16(%ebp), %eax
.LVL96:
	pushl	$0
	subl	%ebx, %eax
	pushl	%eax
	movl	-76(%ebp), %eax
	addl	%ebx, %eax
	pushl	%eax
	pushl	8(%ebp)
	call	lwip_recv
.LVL97:
	.loc 1 196 0
	addl	$16, %esp
	cmpl	$0, %eax
	jle	.L50
	.loc 1 197 0
	addl	%eax, %ebx
.LVL98:
	jmp	.L51
.L50:
	.loc 1 198 0
	jne	.L52
	.loc 1 199 0
	subl	$12, %esp
	pushl	$.LC18
	call	perror
.LVL99:
	.loc 1 201 0
	addl	$16, %esp
	.loc 1 200 0
	orl	$-1, %eax
	.loc 1 201 0
	jmp	.L48
.LVL100:
.L52:
	.loc 1 203 0
	call	__errno
.LVL101:
	.loc 1 203 0
	cmpl	$4, (%eax)
	jne	.L53
	.loc 1 204 0
	pushl	%eax
	pushl	$__FUNCTION__.4068
	pushl	$204
	pushl	$.LC13
	call	printf
.LVL102:
	.loc 1 205 0
	addl	$16, %esp
	jmp	.L51
.L53:
	.loc 1 207 0
	subl	$12, %esp
	pushl	$.LC16
	jmp	.L63
.LVL103:
.L49:
	.loc 1 180 0
	movl	$0, %eax
.LVL104:
	.loc 1 211 0
	je	.L48
	.loc 1 214 0
	subl	$12, %esp
	pushl	$.LC19
.L63:
	call	perror
.LVL105:
	.loc 1 216 0
	addl	$16, %esp
	.loc 1 215 0
	movl	$-2, %eax
	.loc 1 216 0
	jmp	.L48
.LVL106:
.L51:
	.loc 1 218 0
	cmpl	16(%ebp), %ebx
	jb	.L54
.LVL107:
.L57:
	.loc 1 180 0
	xorl	%eax, %eax
.LVL108:
.L48:
	.loc 1 222 0
	testl	%ebx, %ebx
	cmovne	%ebx, %eax
.LVL109:
	.loc 1 223 0
	movl	-28(%ebp), %edi
	xorl	%gs:20, %edi
	je	.L56
	call	__stack_chk_fail
.LVL110:
.L56:
	leal	-12(%ebp), %esp
	popl	%ebx
	.cfi_restore 3
.LVL111:
	popl	%esi
	.cfi_restore 6
.LVL112:
	popl	%edi
	.cfi_restore 7
	popl	%ebp
	.cfi_restore 5
	.cfi_def_cfa 4, 4
	ret
	.cfi_endproc
.LFE20:
	.size	HAL_TCP_Read, .-HAL_TCP_Read
	.section	.text.unlikely.HAL_TCP_Read
.LCOLDE20:
	.section	.text.HAL_TCP_Read
.LHOTE20:
	.section	.rodata.__FUNCTION__.4068,"a",@progbits
	.align 4
	.type	__FUNCTION__.4068, @object
	.size	__FUNCTION__.4068, 13
__FUNCTION__.4068:
	.string	"HAL_TCP_Read"
	.section	.rodata.__FUNCTION__.4044,"a",@progbits
	.align 4
	.type	__FUNCTION__.4044, @object
	.size	__FUNCTION__.4044, 14
__FUNCTION__.4044:
	.string	"HAL_TCP_Write"
	.section	.rodata.__FUNCTION__.4016,"a",@progbits
	.align 4
	.type	__FUNCTION__.4016, @object
	.size	__FUNCTION__.4016, 18
__FUNCTION__.4016:
	.string	"HAL_TCP_Establish"
	.text
.Letext0:
	.section	.text.unlikely.HAL_TCP_Establish
.Letext_cold0:
	.file 2 "/home/stone/Documents/Ali_IOT/build/compiler/gcc-arm-none-eabi/Linux64/arm-none-eabi/include/machine/_default_types.h"
	.file 3 "/home/stone/Documents/Ali_IOT/build/compiler/gcc-arm-none-eabi/Linux64/lib/gcc/arm-none-eabi/5.4.1/include/stddef.h"
	.file 4 "/home/stone/Documents/Ali_IOT/build/compiler/gcc-arm-none-eabi/Linux64/arm-none-eabi/include/sys/_types.h"
	.file 5 "/home/stone/Documents/Ali_IOT/build/compiler/gcc-arm-none-eabi/Linux64/arm-none-eabi/include/sys/_stdint.h"
	.file 6 "/home/stone/Documents/Ali_IOT/build/compiler/gcc-arm-none-eabi/Linux64/arm-none-eabi/include/sys/_timeval.h"
	.file 7 "/home/stone/Documents/Ali_IOT/build/compiler/gcc-arm-none-eabi/Linux64/arm-none-eabi/include/sys/select.h"
	.file 8 "././platform/mcu/moc108/include/lwip-2.0.2/arch/cc.h"
	.file 9 "./kernel/protocols/net/include/lwip/sockets.h"
	.file 10 "./kernel/protocols/net/include/lwip/netdb.h"
	.file 11 "/home/stone/Documents/Ali_IOT/build/compiler/gcc-arm-none-eabi/Linux64/arm-none-eabi/include/stdio.h"
	.file 12 "/home/stone/Documents/Ali_IOT/build/compiler/gcc-arm-none-eabi/Linux64/arm-none-eabi/include/sys/errno.h"
	.file 13 "./include/aos/log.h"
	.section	.note.GNU-stack,"",@progbits
