	.file	"hash.c"
	.text
.Ltext0:
	.section	.rodata.str1.1,"aMS",@progbits,1
.LC0:
	.string	"E %s %d: get_ctx_size: bad input!\n"
.LC1:
	.string	"E %s %d: get_ctx_size: invalid hash type(%d)\n"
	.section	.text.unlikely.ali_hash_get_ctx_size,"ax",@progbits
.LCOLDB2:
	.section	.text.ali_hash_get_ctx_size,"ax",@progbits
.LHOTB2:
	.section	.text.unlikely.ali_hash_get_ctx_size
.Ltext_cold0:
	.section	.text.ali_hash_get_ctx_size
	.globl	ali_hash_get_ctx_size
	.type	ali_hash_get_ctx_size, @function
ali_hash_get_ctx_size:
.LFB1:
	.file 1 "security/alicrypto/./libalicrypto/mbed/hash/hash.c"
	.loc 1 9 0
	.cfi_startproc
.LVL0:
	pushl	%ebp
	.cfi_def_cfa_offset 8
	.cfi_offset 5, -8
	movl	%esp, %ebp
	.cfi_def_cfa_register 5
	subl	$8, %esp
	.loc 1 9 0
	movl	12(%ebp), %eax
	movl	8(%ebp), %edx
	.loc 1 10 0
	testl	%eax, %eax
	jne	.L2
	.loc 1 11 0
	pushl	%eax
	pushl	$11
	pushl	$__FUNCTION__.4644
	pushl	$.LC0
	call	printf
.LVL1:
	.loc 1 12 0
	addl	$16, %esp
	movl	$-65529, %eax
	jmp	.L3
.L2:
	.loc 1 15 0
	leal	-1(%edx), %ecx
	cmpl	$5, %ecx
	jbe	.L6
	.loc 1 25 0
	pushl	%edx
	pushl	$25
	pushl	$__FUNCTION__.4644
	pushl	$.LC1
	call	printf
.LVL2:
	.loc 1 26 0
	addl	$16, %esp
	movl	$-65533, %eax
	jmp	.L3
.L6:
	.loc 1 29 0
	movl	$224, (%eax)
	.loc 1 31 0
	xorl	%eax, %eax
.L3:
	.loc 1 32 0
	leave
	.cfi_restore 5
	.cfi_def_cfa 4, 4
	ret
	.cfi_endproc
.LFE1:
	.size	ali_hash_get_ctx_size, .-ali_hash_get_ctx_size
	.section	.text.unlikely.ali_hash_get_ctx_size
.LCOLDE2:
	.section	.text.ali_hash_get_ctx_size
.LHOTE2:
	.section	.rodata.str1.1
.LC3:
	.string	"E %s %d: ali_hash_init: bad ctx!\n"
.LC4:
	.string	"E %s %d: ali_hash_init: bad status(%d)\n"
.LC5:
	.string	"E %s %d: ali_hash_init: invalid hash type(%d)\n"
	.section	.text.unlikely.ali_hash_init,"ax",@progbits
.LCOLDB6:
	.section	.text.ali_hash_init,"ax",@progbits
.LHOTB6:
	.globl	ali_hash_init
	.type	ali_hash_init, @function
ali_hash_init:
.LFB2:
	.loc 1 35 0
	.cfi_startproc
.LVL3:
	pushl	%ebp
	.cfi_def_cfa_offset 8
	.cfi_offset 5, -8
	movl	%esp, %ebp
	.cfi_def_cfa_register 5
	pushl	%edi
	pushl	%esi
	pushl	%ebx
	subl	$12, %esp
	.cfi_offset 7, -12
	.cfi_offset 6, -16
	.cfi_offset 3, -20
	.loc 1 35 0
	movl	12(%ebp), %ebx
	movl	8(%ebp), %esi
	.loc 1 38 0
	testl	%ebx, %ebx
	jne	.L10
	.loc 1 39 0
	pushl	%eax
	pushl	$39
	pushl	$__FUNCTION__.4658
	pushl	$.LC3
	call	printf
.LVL4:
	.loc 1 40 0
	addl	$16, %esp
	movl	$-65532, %eax
	jmp	.L11
.L10:
.LVL5:
	.loc 1 44 0
	cmpl	$305419896, (%ebx)
	jne	.L12
	.loc 1 45 0 discriminator 1
	movl	4(%ebx), %eax
	cmpl	$3, %eax
	je	.L12
	testl	%eax, %eax
	je	.L12
	.loc 1 47 0
	pushl	%eax
	pushl	$47
	pushl	$__FUNCTION__.4658
	pushl	$.LC4
	call	printf
.LVL6:
	.loc 1 48 0
	addl	$16, %esp
	movl	$-65523, %eax
	jmp	.L11
.L12:
	.loc 1 51 0
	cmpl	$2, %esi
	je	.L14
	ja	.L15
	cmpl	$1, %esi
	jne	.L13
	.loc 1 54 0
	leal	12(%ebx), %edi
	subl	$12, %esp
	pushl	%edi
	call	mbedtls_sha1_init
.LVL7:
	.loc 1 55 0
	movl	%edi, (%esp)
	call	mbedtls_sha1_starts
.LVL8:
	jmp	.L27
.L15:
	.loc 1 51 0
	cmpl	$3, %esi
	je	.L17
	cmpl	$6, %esi
	jne	.L13
	.loc 1 90 0
	leal	12(%ebx), %edi
	subl	$12, %esp
	pushl	%edi
	call	mbedtls_md5_init
.LVL9:
	.loc 1 91 0
	movl	%edi, (%esp)
	call	mbedtls_md5_starts
.LVL10:
	jmp	.L27
.L14:
	.loc 1 62 0
	leal	12(%ebx), %edi
	subl	$12, %esp
	pushl	%edi
	call	mbedtls_sha256_init
.LVL11:
	.loc 1 63 0
	popl	%ecx
	popl	%eax
	pushl	$1
	jmp	.L28
.L17:
	.loc 1 68 0
	leal	12(%ebx), %edi
	subl	$12, %esp
	pushl	%edi
	call	mbedtls_sha256_init
.LVL12:
	.loc 1 69 0
	popl	%eax
	popl	%edx
	pushl	$0
.L28:
	pushl	%edi
	call	mbedtls_sha256_starts
.LVL13:
.L27:
	.loc 1 92 0
	addl	$16, %esp
	.loc 1 101 0
	movl	%esi, 8(%ebx)
	.loc 1 102 0
	movl	$1, 4(%ebx)
	.loc 1 103 0
	movl	$305419896, (%ebx)
	.loc 1 105 0
	xorl	%eax, %eax
	jmp	.L11
.L13:
	.loc 1 97 0
	pushl	%esi
	pushl	$97
	pushl	$__FUNCTION__.4658
	pushl	$.LC5
	call	printf
.LVL14:
	.loc 1 98 0
	addl	$16, %esp
	movl	$-65533, %eax
.LVL15:
.L11:
	.loc 1 106 0
	leal	-12(%ebp), %esp
	popl	%ebx
	.cfi_restore 3
	popl	%esi
	.cfi_restore 6
	popl	%edi
	.cfi_restore 7
	popl	%ebp
	.cfi_restore 5
	.cfi_def_cfa 4, 4
	ret
	.cfi_endproc
.LFE2:
	.size	ali_hash_init, .-ali_hash_init
	.section	.text.unlikely.ali_hash_init
.LCOLDE6:
	.section	.text.ali_hash_init
.LHOTE6:
	.section	.rodata.str1.1
.LC7:
	.string	"E %s %d: ali_hash_update: bad ctx!\n"
.LC8:
	.string	"E %s %d: ali_hash_update: bad args!\n"
.LC9:
	.string	"E %s %d: ali_hash_update: bad magic!\n"
.LC10:
	.string	"E %s %d: ali_hash_update: bad status(%d)\n"
.LC11:
	.string	"E %s %d: ali_hash_update: invalid hash type(%d)\n"
	.section	.text.unlikely.ali_hash_update,"ax",@progbits
.LCOLDB12:
	.section	.text.ali_hash_update,"ax",@progbits
.LHOTB12:
	.globl	ali_hash_update
	.type	ali_hash_update, @function
ali_hash_update:
.LFB3:
	.loc 1 109 0
	.cfi_startproc
.LVL16:
	pushl	%ebp
	.cfi_def_cfa_offset 8
	.cfi_offset 5, -8
	movl	%esp, %ebp
	.cfi_def_cfa_register 5
	pushl	%esi
	pushl	%ebx
	.cfi_offset 6, -12
	.cfi_offset 3, -16
	.loc 1 109 0
	movl	16(%ebp), %ebx
	movl	8(%ebp), %edx
	movl	12(%ebp), %ecx
	.loc 1 112 0
	testl	%ebx, %ebx
	jne	.L30
	.loc 1 113 0
	pushl	%eax
	pushl	$113
	pushl	$__FUNCTION__.4671
	pushl	$.LC7
	jmp	.L50
.L30:
	.loc 1 117 0
	testl	%edx, %edx
	jne	.L32
	testl	%ecx, %ecx
	je	.L32
	.loc 1 118 0
	pushl	%eax
	pushl	$118
	pushl	$__FUNCTION__.4671
	pushl	$.LC8
	call	printf
.LVL17:
	.loc 1 119 0
	addl	$16, %esp
	movl	$-65529, %eax
	jmp	.L31
.LVL18:
.L32:
	.loc 1 123 0
	cmpl	$305419896, (%ebx)
	je	.L33
	.loc 1 124 0
	pushl	%eax
	pushl	$124
	pushl	$__FUNCTION__.4671
	pushl	$.LC9
.LVL19:
.L50:
	call	printf
.LVL20:
	.loc 1 125 0
	addl	$16, %esp
	movl	$-65532, %eax
	jmp	.L31
.LVL21:
.L33:
	.loc 1 128 0
	movl	4(%ebx), %eax
	leal	-1(%eax), %esi
	cmpl	$1, %esi
	jbe	.L34
	.loc 1 130 0
	pushl	%eax
	pushl	$130
	pushl	$__FUNCTION__.4671
	pushl	$.LC10
	call	printf
.LVL22:
	.loc 1 131 0
	addl	$16, %esp
	movl	$-65523, %eax
	jmp	.L31
.LVL23:
.L34:
	.loc 1 134 0
	movl	8(%ebx), %eax
	cmpl	$2, %eax
	je	.L39
	ja	.L37
	cmpl	$1, %eax
	jne	.L35
	.loc 1 137 0
	pushl	%eax
	leal	12(%ebx), %eax
	pushl	%ecx
	pushl	%edx
	pushl	%eax
	call	mbedtls_sha1_update
.LVL24:
	jmp	.L49
.LVL25:
.L37:
	.loc 1 134 0
	cmpl	$3, %eax
	je	.L39
	cmpl	$6, %eax
	jne	.L35
	.loc 1 173 0
	pushl	%eax
	leal	12(%ebx), %eax
	pushl	%ecx
	pushl	%edx
	pushl	%eax
	call	mbedtls_md5_update
.LVL26:
	jmp	.L49
.LVL27:
.L39:
	.loc 1 151 0
	leal	12(%ebx), %eax
	pushl	%esi
	pushl	%ecx
	pushl	%edx
	pushl	%eax
	call	mbedtls_sha256_update
.LVL28:
.L49:
	.loc 1 175 0
	addl	$16, %esp
	.loc 1 184 0
	movl	$2, 4(%ebx)
	.loc 1 186 0
	xorl	%eax, %eax
	jmp	.L31
.LVL29:
.L35:
	.loc 1 180 0
	pushl	%eax
	pushl	$180
	pushl	$__FUNCTION__.4671
	pushl	$.LC11
	call	printf
.LVL30:
	.loc 1 181 0
	addl	$16, %esp
	movl	$-65533, %eax
.LVL31:
.L31:
	.loc 1 187 0
	leal	-8(%ebp), %esp
	popl	%ebx
	.cfi_restore 3
	popl	%esi
	.cfi_restore 6
	popl	%ebp
	.cfi_restore 5
	.cfi_def_cfa 4, 4
	ret
	.cfi_endproc
.LFE3:
	.size	ali_hash_update, .-ali_hash_update
	.section	.text.unlikely.ali_hash_update
.LCOLDE12:
	.section	.text.ali_hash_update
.LHOTE12:
	.section	.rodata.str1.1
.LC13:
	.string	"E %s %d: ali_hash_final: invalid context!\n"
.LC14:
	.string	"E %s %d: ali_hash_final: bad input args!\n"
.LC15:
	.string	"E %s %d: ali_hash_final: bad magic!\n"
.LC16:
	.string	"E %s %d: ali_hash_final: bad status(%d)\n"
.LC17:
	.string	"E %s %d: ali_hash_final: invalid hash type(%d)\n"
	.section	.text.unlikely.ali_hash_final,"ax",@progbits
.LCOLDB18:
	.section	.text.ali_hash_final,"ax",@progbits
.LHOTB18:
	.globl	ali_hash_final
	.type	ali_hash_final, @function
ali_hash_final:
.LFB4:
	.loc 1 190 0
	.cfi_startproc
.LVL32:
	pushl	%ebp
	.cfi_def_cfa_offset 8
	.cfi_offset 5, -8
	movl	%esp, %ebp
	.cfi_def_cfa_register 5
	pushl	%esi
	pushl	%ebx
	.cfi_offset 6, -12
	.cfi_offset 3, -16
	.loc 1 190 0
	movl	12(%ebp), %ebx
	movl	8(%ebp), %edx
	.loc 1 193 0
	testl	%ebx, %ebx
	jne	.L52
	.loc 1 194 0
	pushl	%eax
	pushl	$194
	pushl	$__FUNCTION__.4683
	pushl	$.LC13
	jmp	.L66
.L52:
	.loc 1 196 0
	testl	%edx, %edx
	jne	.L54
	.loc 1 197 0
	pushl	%eax
	pushl	$197
	pushl	$__FUNCTION__.4683
	pushl	$.LC14
	call	printf
.LVL33:
	addl	$16, %esp
	movl	$-65529, %eax
	jmp	.L53
.LVL34:
.L54:
	.loc 1 201 0
	cmpl	$305419896, (%ebx)
	je	.L55
	.loc 1 202 0
	pushl	%eax
	pushl	$202
	pushl	$__FUNCTION__.4683
	pushl	$.LC15
.LVL35:
.L66:
	call	printf
.LVL36:
	.loc 1 203 0
	addl	$16, %esp
	movl	$-65532, %eax
	jmp	.L53
.LVL37:
.L55:
	.loc 1 206 0
	movl	4(%ebx), %eax
	leal	-1(%eax), %ecx
	cmpl	$1, %ecx
	jbe	.L56
	.loc 1 208 0
	pushl	%eax
	pushl	$208
	pushl	$__FUNCTION__.4683
	pushl	$.LC16
	call	printf
.LVL38:
	.loc 1 209 0
	addl	$16, %esp
	movl	$-65523, %eax
	jmp	.L53
.LVL39:
.L56:
	.loc 1 212 0
	movl	8(%ebx), %eax
	cmpl	$2, %eax
	je	.L61
	ja	.L59
	cmpl	$1, %eax
	jne	.L57
	.loc 1 215 0
	leal	12(%ebx), %esi
	pushl	%eax
	pushl	%eax
	pushl	%edx
	pushl	%esi
	call	mbedtls_sha1_finish
.LVL40:
	.loc 1 216 0
	movl	%esi, (%esp)
	call	mbedtls_sha1_free
.LVL41:
	jmp	.L65
.LVL42:
.L59:
	.loc 1 212 0
	cmpl	$3, %eax
	je	.L61
	cmpl	$6, %eax
	jne	.L57
	.loc 1 251 0
	leal	12(%ebx), %esi
	pushl	%eax
	pushl	%eax
	pushl	%edx
	pushl	%esi
	call	mbedtls_md5_finish
.LVL43:
	.loc 1 252 0
	movl	%esi, (%esp)
	call	mbedtls_md5_free
.LVL44:
	jmp	.L65
.LVL45:
.L61:
	.loc 1 229 0
	leal	12(%ebx), %esi
	pushl	%ecx
	pushl	%ecx
	pushl	%edx
	pushl	%esi
	call	mbedtls_sha256_finish
.LVL46:
	.loc 1 230 0
	movl	%esi, (%esp)
	call	mbedtls_sha256_free
.LVL47:
.L65:
	.loc 1 253 0
	addl	$16, %esp
	.loc 1 262 0
	movl	$0, (%ebx)
	.loc 1 263 0
	movl	$3, 4(%ebx)
	.loc 1 265 0
	xorl	%eax, %eax
	jmp	.L53
.LVL48:
.L57:
	.loc 1 258 0
	pushl	%eax
	pushl	$258
	pushl	$__FUNCTION__.4683
	pushl	$.LC17
	call	printf
.LVL49:
	.loc 1 259 0
	addl	$16, %esp
	movl	$-65533, %eax
.LVL50:
.L53:
	.loc 1 266 0
	leal	-8(%ebp), %esp
	popl	%ebx
	.cfi_restore 3
	popl	%esi
	.cfi_restore 6
	popl	%ebp
	.cfi_restore 5
	.cfi_def_cfa 4, 4
	ret
	.cfi_endproc
.LFE4:
	.size	ali_hash_final, .-ali_hash_final
	.section	.text.unlikely.ali_hash_final
.LCOLDE18:
	.section	.text.ali_hash_final
.LHOTE18:
	.section	.rodata.str1.1
.LC19:
	.string	"E %s %d: ali_hash_digest: bad input args!\n"
.LC20:
	.string	"E %s %d: ali_hash_digest: invalid hash type(%d)\n"
	.section	.text.unlikely.ali_hash_digest,"ax",@progbits
.LCOLDB21:
	.section	.text.ali_hash_digest,"ax",@progbits
.LHOTB21:
	.globl	ali_hash_digest
	.type	ali_hash_digest, @function
ali_hash_digest:
.LFB5:
	.loc 1 270 0
	.cfi_startproc
.LVL51:
	pushl	%ebp
	.cfi_def_cfa_offset 8
	.cfi_offset 5, -8
	movl	%esp, %ebp
	.cfi_def_cfa_register 5
	pushl	%edi
	pushl	%esi
	pushl	%ebx
	subl	$252, %esp
	.cfi_offset 7, -12
	.cfi_offset 6, -16
	.cfi_offset 3, -20
	.loc 1 270 0
	movl	12(%ebp), %edi
	movl	8(%ebp), %eax
	movl	%gs:20, %edx
	movl	%edx, -28(%ebp)
	xorl	%edx, %edx
	movl	20(%ebp), %esi
	.loc 1 273 0
	testl	%edi, %edi
	sete	%cl
	cmpl	$0, 16(%ebp)
	setne	%dl
	testb	%dl, %cl
	jne	.L78
	testl	%esi, %esi
	jne	.L68
.L78:
	.loc 1 274 0
	pushl	%ecx
	pushl	$274
	pushl	$__FUNCTION__.4697
	pushl	$.LC19
	call	printf
.LVL52:
	.loc 1 275 0
	addl	$16, %esp
	movl	$-65529, %eax
	jmp	.L70
.L68:
	.loc 1 278 0
	cmpl	$2, %eax
	je	.L72
	ja	.L73
	cmpl	$1, %eax
	jne	.L71
	.loc 1 281 0
	leal	-240(%ebp), %ebx
	subl	$12, %esp
	pushl	%ebx
	call	mbedtls_sha1_init
.LVL53:
	.loc 1 282 0
	movl	%ebx, (%esp)
	call	mbedtls_sha1_starts
.LVL54:
	.loc 1 283 0
	addl	$12, %esp
	pushl	16(%ebp)
	pushl	%edi
	pushl	%ebx
	call	mbedtls_sha1_update
.LVL55:
	.loc 1 285 0
	popl	%eax
	popl	%edx
	pushl	%esi
	pushl	%ebx
	call	mbedtls_sha1_finish
.LVL56:
	.loc 1 286 0
	movl	%ebx, (%esp)
	call	mbedtls_sha1_free
.LVL57:
	jmp	.L81
.L73:
	.loc 1 278 0
	cmpl	$3, %eax
	je	.L75
	cmpl	$6, %eax
	jne	.L71
	.loc 1 337 0
	leal	-240(%ebp), %ebx
	subl	$12, %esp
	pushl	%ebx
	call	mbedtls_md5_init
.LVL58:
	.loc 1 338 0
	movl	%ebx, (%esp)
	call	mbedtls_md5_starts
.LVL59:
	.loc 1 339 0
	addl	$12, %esp
	pushl	16(%ebp)
	pushl	%edi
	pushl	%ebx
	call	mbedtls_md5_update
.LVL60:
	.loc 1 341 0
	popl	%eax
	popl	%edx
	pushl	%esi
	pushl	%ebx
	call	mbedtls_md5_finish
.LVL61:
	.loc 1 342 0
	movl	%ebx, (%esp)
	call	mbedtls_md5_free
.LVL62:
	jmp	.L81
.L72:
	.loc 1 293 0
	leal	-240(%ebp), %ebx
	subl	$12, %esp
	pushl	%ebx
	call	mbedtls_sha256_init
.LVL63:
	.loc 1 294 0
	popl	%ecx
	popl	%eax
	pushl	$1
	jmp	.L80
.L75:
	.loc 1 303 0
	leal	-240(%ebp), %ebx
	subl	$12, %esp
	pushl	%ebx
	call	mbedtls_sha256_init
.LVL64:
	.loc 1 304 0
	popl	%eax
	popl	%edx
	pushl	$0
.L80:
	pushl	%ebx
	call	mbedtls_sha256_starts
.LVL65:
	.loc 1 305 0
	addl	$12, %esp
	pushl	16(%ebp)
	pushl	%edi
	pushl	%ebx
	call	mbedtls_sha256_update
.LVL66:
	.loc 1 307 0
	popl	%ecx
	popl	%edi
	pushl	%esi
	pushl	%ebx
	call	mbedtls_sha256_finish
.LVL67:
	.loc 1 308 0
	movl	%ebx, (%esp)
	call	mbedtls_sha256_free
.LVL68:
.L81:
	.loc 1 309 0
	addl	$16, %esp
	.loc 1 352 0
	xorl	%eax, %eax
	.loc 1 309 0
	jmp	.L70
.L71:
	.loc 1 348 0
	pushl	%eax
	pushl	$348
	pushl	$__FUNCTION__.4697
	pushl	$.LC20
	call	printf
.LVL69:
	.loc 1 349 0
	addl	$16, %esp
	movl	$-65533, %eax
.L70:
	.loc 1 353 0
	movl	-28(%ebp), %ecx
	xorl	%gs:20, %ecx
	je	.L77
	call	__stack_chk_fail
.LVL70:
.L77:
	leal	-12(%ebp), %esp
	popl	%ebx
	.cfi_restore 3
	popl	%esi
	.cfi_restore 6
	popl	%edi
	.cfi_restore 7
	popl	%ebp
	.cfi_restore 5
	.cfi_def_cfa 4, 4
	ret
	.cfi_endproc
.LFE5:
	.size	ali_hash_digest, .-ali_hash_digest
	.section	.text.unlikely.ali_hash_digest
.LCOLDE21:
	.section	.text.ali_hash_digest
.LHOTE21:
	.section	.rodata.str1.1
.LC22:
	.string	"E %s %d: ali_hash_reset: invalid context!\n"
	.section	.text.unlikely.ali_hash_reset,"ax",@progbits
.LCOLDB23:
	.section	.text.ali_hash_reset,"ax",@progbits
.LHOTB23:
	.globl	ali_hash_reset
	.type	ali_hash_reset, @function
ali_hash_reset:
.LFB6:
	.loc 1 356 0
	.cfi_startproc
.LVL71:
	pushl	%ebp
	.cfi_def_cfa_offset 8
	.cfi_offset 5, -8
	movl	%esp, %ebp
	.cfi_def_cfa_register 5
	pushl	%edi
	pushl	%edx
	.cfi_offset 7, -12
	.loc 1 356 0
	movl	8(%ebp), %edx
	.loc 1 359 0
	testl	%edx, %edx
	jne	.L83
	.loc 1 360 0
	pushl	%eax
	pushl	$360
	pushl	$__FUNCTION__.4708
	pushl	$.LC22
	call	printf
.LVL72:
	addl	$16, %esp
	movl	$-65532, %eax
	jmp	.L84
.L83:
.LVL73:
	.loc 1 370 0
	movl	$56, %ecx
	xorl	%eax, %eax
	movl	%edx, %edi
	rep stosl
.LVL74:
.L84:
	.loc 1 372 0
	movl	-4(%ebp), %edi
	leave
	.cfi_restore 5
	.cfi_restore 7
	.cfi_def_cfa 4, 4
	ret
	.cfi_endproc
.LFE6:
	.size	ali_hash_reset, .-ali_hash_reset
	.section	.text.unlikely.ali_hash_reset
.LCOLDE23:
	.section	.text.ali_hash_reset
.LHOTE23:
	.section	.rodata.str1.1
.LC24:
	.string	"E %s %d: ali_hash_copy_context: bad input args!\n"
.LC25:
	.string	"E %s %d: ali_hash_copy_context: bad magic!\n"
.LC26:
	.string	"E %s %d: ali_hash_copy_context: bad status(%d)\n"
	.section	.text.unlikely.ali_hash_copy_context,"ax",@progbits
.LCOLDB27:
	.section	.text.ali_hash_copy_context,"ax",@progbits
.LHOTB27:
	.globl	ali_hash_copy_context
	.type	ali_hash_copy_context, @function
ali_hash_copy_context:
.LFB7:
	.loc 1 375 0
	.cfi_startproc
.LVL75:
	pushl	%ebp
	.cfi_def_cfa_offset 8
	.cfi_offset 5, -8
	movl	%esp, %ebp
	.cfi_def_cfa_register 5
	pushl	%edi
	pushl	%esi
	.cfi_offset 7, -12
	.cfi_offset 6, -16
	.loc 1 375 0
	movl	12(%ebp), %esi
	movl	8(%ebp), %eax
	.loc 1 378 0
	testl	%esi, %esi
	je	.L92
	testl	%eax, %eax
	jne	.L87
.L92:
	.loc 1 379 0
	pushl	%edx
	pushl	$379
	pushl	$__FUNCTION__.4715
	pushl	$.LC24
	call	printf
.LVL76:
	.loc 1 380 0
	addl	$16, %esp
	movl	$-65529, %eax
	jmp	.L89
.LVL77:
.L87:
	.loc 1 384 0
	cmpl	$305419896, (%esi)
	je	.L90
.LVL78:
	.loc 1 385 0
	pushl	%eax
	pushl	$385
	pushl	$__FUNCTION__.4715
	pushl	$.LC25
	call	printf
.LVL79:
	.loc 1 386 0
	addl	$16, %esp
	movl	$-65532, %eax
	jmp	.L89
.LVL80:
.L90:
	.loc 1 390 0
	cmpl	$305419896, (%eax)
	jne	.L91
	.loc 1 391 0 discriminator 1
	movl	4(%eax), %edx
	.loc 1 390 0 discriminator 1
	leal	-1(%edx), %ecx
	cmpl	$2, %ecx
	ja	.L91
	.loc 1 394 0
	pushl	%edx
	pushl	$395
	pushl	$__FUNCTION__.4715
	pushl	$.LC26
	call	printf
.LVL81:
	.loc 1 396 0
	addl	$16, %esp
	movl	$-65523, %eax
	jmp	.L89
.LVL82:
.L91:
	.loc 1 399 0
	movl	%eax, %edi
	movl	$56, %ecx
	.loc 1 400 0
	xorl	%eax, %eax
.LVL83:
	.loc 1 399 0
	rep movsl
.LVL84:
.L89:
	.loc 1 401 0
	leal	-8(%ebp), %esp
	popl	%esi
	.cfi_restore 6
	popl	%edi
	.cfi_restore 7
	popl	%ebp
	.cfi_restore 5
	.cfi_def_cfa 4, 4
	ret
	.cfi_endproc
.LFE7:
	.size	ali_hash_copy_context, .-ali_hash_copy_context
	.section	.text.unlikely.ali_hash_copy_context
.LCOLDE27:
	.section	.text.ali_hash_copy_context
.LHOTE27:
	.section	.rodata.__FUNCTION__.4715,"a",@progbits
	.align 4
	.type	__FUNCTION__.4715, @object
	.size	__FUNCTION__.4715, 22
__FUNCTION__.4715:
	.string	"ali_hash_copy_context"
	.section	.rodata.__FUNCTION__.4708,"a",@progbits
	.align 4
	.type	__FUNCTION__.4708, @object
	.size	__FUNCTION__.4708, 15
__FUNCTION__.4708:
	.string	"ali_hash_reset"
	.section	.rodata.__FUNCTION__.4697,"a",@progbits
	.align 4
	.type	__FUNCTION__.4697, @object
	.size	__FUNCTION__.4697, 16
__FUNCTION__.4697:
	.string	"ali_hash_digest"
	.section	.rodata.__FUNCTION__.4683,"a",@progbits
	.align 4
	.type	__FUNCTION__.4683, @object
	.size	__FUNCTION__.4683, 15
__FUNCTION__.4683:
	.string	"ali_hash_final"
	.section	.rodata.__FUNCTION__.4671,"a",@progbits
	.align 4
	.type	__FUNCTION__.4671, @object
	.size	__FUNCTION__.4671, 16
__FUNCTION__.4671:
	.string	"ali_hash_update"
	.section	.rodata.__FUNCTION__.4658,"a",@progbits
	.align 4
	.type	__FUNCTION__.4658, @object
	.size	__FUNCTION__.4658, 14
__FUNCTION__.4658:
	.string	"ali_hash_init"
	.section	.rodata.__FUNCTION__.4644,"a",@progbits
	.align 4
	.type	__FUNCTION__.4644, @object
	.size	__FUNCTION__.4644, 22
__FUNCTION__.4644:
	.string	"ali_hash_get_ctx_size"
	.text
.Letext0:
	.section	.text.unlikely.ali_hash_get_ctx_size
.Letext_cold0:
	.file 2 "/home/stone/Documents/Ali_IOT/build/compiler/gcc-arm-none-eabi/Linux64/arm-none-eabi/include/machine/_default_types.h"
	.file 3 "/home/stone/Documents/Ali_IOT/build/compiler/gcc-arm-none-eabi/Linux64/arm-none-eabi/include/sys/_stdint.h"
	.file 4 "/home/stone/Documents/Ali_IOT/build/compiler/gcc-arm-none-eabi/Linux64/lib/gcc/arm-none-eabi/5.4.1/include/stddef.h"
	.file 5 "./security/alicrypto/./libalicrypto/inc/ali_crypto.h"
	.file 6 "./security/alicrypto/./mbedtls/include/mbedtls/sha1.h"
	.file 7 "./security/alicrypto/./mbedtls/include/mbedtls/sha256.h"
	.file 8 "./security/alicrypto/./mbedtls/include/mbedtls/sha512.h"
	.file 9 "./security/alicrypto/./mbedtls/include/mbedtls/md5.h"
	.file 10 "./security/alicrypto/./libalicrypto/mbed/inc/mbed_crypto.h"
	.file 11 "/home/stone/Documents/Ali_IOT/build/compiler/gcc-arm-none-eabi/Linux64/arm-none-eabi/include/stdio.h"
	.section	.note.GNU-stack,"",@progbits
