	.file	"hci.c"
	.text
.Ltext0:
	.section	.text.unlikely.evt_create,"ax",@progbits
.LCOLDB1:
	.section	.text.evt_create,"ax",@progbits
.LHOTB1:
	.section	.text.unlikely.evt_create
.Ltext_cold0:
	.section	.text.evt_create
	.type	evt_create, @function
evt_create:
.LFB198:
	.file 1 "src/hci.c"
	.loc 1 6007 0
	.cfi_startproc
.LVL0:
	pushl	%ebp
	.cfi_def_cfa_offset 8
	.cfi_offset 5, -8
	.loc 1 6009 0
	addl	$8, %eax
.LVL1:
	.loc 1 6007 0
	movl	%esp, %ebp
	.cfi_def_cfa_register 5
	pushl	%ebx
	.cfi_offset 3, -12
	movl	%edx, %ebx
	subl	$28, %esp
	.loc 1 6007 0
	movl	%ecx, -12(%ebp)
	.loc 1 6009 0
	pushl	$2
	pushl	%eax
	call	net_buf_simple_add
.LVL2:
	.loc 1 6011 0
	movl	-12(%ebp), %ecx
	.loc 1 6010 0
	movb	%bl, (%eax)
	.loc 1 6012 0
	addl	$16, %esp
	.loc 1 6011 0
	movb	%cl, 1(%eax)
	.loc 1 6012 0
	movl	-4(%ebp), %ebx
	leave
	.cfi_restore 5
	.cfi_restore 3
	.cfi_def_cfa 4, 4
	ret
	.cfi_endproc
.LFE198:
	.size	evt_create, .-evt_create
	.section	.text.unlikely.evt_create
.LCOLDE1:
	.section	.text.evt_create
.LHOTE1:
	.section	.text.unlikely.cmd_status,"ax",@progbits
.LCOLDB2:
	.section	.text.cmd_status,"ax",@progbits
.LHOTB2:
	.type	cmd_status, @function
cmd_status:
.LFB200:
	.loc 1 6024 0
	.cfi_startproc
.LVL3:
	pushl	%ebp
	.cfi_def_cfa_offset 8
	.cfi_offset 5, -8
	movl	%esp, %ebp
	.cfi_def_cfa_register 5
	pushl	%esi
	pushl	%ebx
	.cfi_offset 6, -12
	.cfi_offset 3, -16
	.loc 1 6024 0
	movl	%eax, %esi
	.loc 1 6027 0
	subl	$12, %esp
	pushl	$-1
	call	bt_buf_get_cmd_complete
.LVL4:
	.loc 1 6028 0
	movl	$4, %ecx
	.loc 1 6027 0
	movl	%eax, %ebx
.LVL5:
	.loc 1 6028 0
	movl	$15, %edx
	call	evt_create
.LVL6:
	.loc 1 6029 0
	popl	%eax
	leal	8(%ebx), %eax
	popl	%edx
	pushl	$4
	pushl	%eax
	call	net_buf_simple_add
.LVL7:
	.loc 1 6032 0
	movw	_opcode, %dx
	.loc 1 6030 0
	movl	%esi, %ecx
	.loc 1 6031 0
	movb	$1, 1(%eax)
	.loc 1 6030 0
	movb	%cl, (%eax)
	.loc 1 6032 0
	movw	%dx, 2(%eax)
	.loc 1 6034 0
	leal	-8(%ebp), %esp
	movl	%ebx, %eax
.LVL8:
	popl	%ebx
	.cfi_restore 3
.LVL9:
	popl	%esi
	.cfi_restore 6
	popl	%ebp
	.cfi_restore 5
	.cfi_def_cfa 4, 4
	ret
	.cfi_endproc
.LFE200:
	.size	cmd_status, .-cmd_status
	.section	.text.unlikely.cmd_status
.LCOLDE2:
	.section	.text.cmd_status
.LHOTE2:
	.section	.text.unlikely.cmd_complete,"ax",@progbits
.LCOLDB3:
	.section	.text.cmd_complete,"ax",@progbits
.LHOTB3:
	.type	cmd_complete, @function
cmd_complete:
.LFB199:
	.loc 1 6014 0
	.cfi_startproc
.LVL10:
	pushl	%ebp
	.cfi_def_cfa_offset 8
	.cfi_offset 5, -8
	movl	%esp, %ebp
	.cfi_def_cfa_register 5
	pushl	%esi
	pushl	%ebx
	.cfi_offset 6, -12
	.cfi_offset 3, -16
	.loc 1 6014 0
	movl	%edx, %ebx
	movl	%eax, %esi
	.loc 1 6016 0
	subl	$12, %esp
	pushl	$-1
	call	bt_buf_get_cmd_complete
.LVL11:
	.loc 1 6017 0
	leal	3(%ebx), %ecx
	.loc 1 6016 0
	movl	%eax, (%esi)
	.loc 1 6017 0
	movl	$14, %edx
	.loc 1 6021 0
	movzbl	%bl, %ebx
	.loc 1 6017 0
	movzbl	%cl, %ecx
	call	evt_create
.LVL12:
	.loc 1 6018 0
	popl	%eax
	movl	(%esi), %eax
	popl	%edx
	pushl	$3
	addl	$8, %eax
	pushl	%eax
	call	net_buf_simple_add
.LVL13:
	.loc 1 6020 0
	movw	_opcode, %dx
	.loc 1 6019 0
	movb	$1, (%eax)
	.loc 1 6020 0
	movw	%dx, 1(%eax)
	.loc 1 6021 0
	popl	%ecx
	popl	%eax
.LVL14:
	movl	(%esi), %eax
	pushl	%ebx
	addl	$8, %eax
	pushl	%eax
	call	net_buf_simple_add
.LVL15:
	.loc 1 6022 0
	leal	-8(%ebp), %esp
	popl	%ebx
	.cfi_restore 3
	popl	%esi
	.cfi_restore 6
.LVL16:
	popl	%ebp
	.cfi_restore 5
	.cfi_def_cfa 4, 4
	ret
	.cfi_endproc
.LFE199:
	.size	cmd_complete, .-cmd_complete
	.section	.text.unlikely.cmd_complete
.LCOLDE3:
	.section	.text.cmd_complete
.LHOTE3:
	.section	.text.unlikely.meta_evt,"ax",@progbits
.LCOLDB4:
	.section	.text.meta_evt,"ax",@progbits
.LHOTB4:
	.type	meta_evt, @function
meta_evt:
.LFB201:
	.loc 1 6036 0
	.cfi_startproc
.LVL17:
	pushl	%ebp
	.cfi_def_cfa_offset 8
	.cfi_offset 5, -8
	movl	%esp, %ebp
	.cfi_def_cfa_register 5
	pushl	%edi
	pushl	%esi
	.cfi_offset 7, -12
	.cfi_offset 6, -16
	movl	%ecx, %esi
	pushl	%ebx
	.loc 1 6038 0
	leal	1(%ecx), %ecx
.LVL18:
	.cfi_offset 3, -20
	.loc 1 6036 0
	movl	%eax, %ebx
	movl	%edx, %edi
	.loc 1 6038 0
	movl	$62, %edx
.LVL19:
	.loc 1 6036 0
	subl	$12, %esp
	.loc 1 6038 0
	movzbl	%cl, %ecx
	.loc 1 6039 0
	addl	$8, %ebx
	.loc 1 6038 0
	call	evt_create
.LVL20:
	.loc 1 6039 0
	pushl	%eax
	pushl	%eax
	pushl	$1
	pushl	%ebx
	call	net_buf_simple_add
.LVL21:
	.loc 1 6040 0
	movl	%edi, %edx
	movb	%dl, (%eax)
	.loc 1 6041 0
	movl	%esi, %eax
.LVL22:
	popl	%edx
	popl	%ecx
	movzbl	%al, %esi
	pushl	%esi
	pushl	%ebx
	call	net_buf_simple_add
.LVL23:
	.loc 1 6042 0
	leal	-12(%ebp), %esp
	popl	%ebx
	.cfi_restore 3
.LVL24:
	popl	%esi
	.cfi_restore 6
	popl	%edi
	.cfi_restore 7
	popl	%ebp
	.cfi_restore 5
	.cfi_def_cfa 4, 4
	ret
	.cfi_endproc
.LFE201:
	.size	meta_evt, .-meta_evt
	.section	.text.unlikely.meta_evt
.LCOLDE4:
	.section	.text.meta_evt
.LHOTE4:
	.section	.text.unlikely.encrypt_change,"ax",@progbits
.LCOLDB5:
	.section	.text.encrypt_change,"ax",@progbits
.LHOTB5:
	.type	encrypt_change, @function
encrypt_change:
.LFB262:
	.loc 1 7000 0
	.cfi_startproc
.LVL25:
	.loc 1 7002 0
	testb	$-128, event_mask
	je	.L16
	.loc 1 7000 0
	pushl	%ebp
	.cfi_def_cfa_offset 8
	.cfi_offset 5, -8
	movl	%esp, %ebp
	.cfi_def_cfa_register 5
	pushl	%edi
	pushl	%esi
	pushl	%ebx
	.cfi_offset 7, -12
	.cfi_offset 6, -16
	.cfi_offset 3, -20
	movl	%ecx, %ebx
	movl	%edx, %edi
	movl	%eax, %esi
.LVL26:
.LBB14:
.LBB15:
	.loc 1 7005 0
	movl	$8, %edx
.LVL27:
	movl	%ebx, %eax
.LVL28:
.LBE15:
.LBE14:
	.loc 1 7000 0
	subl	$12, %esp
.LBB17:
.LBB16:
	.loc 1 7006 0
	addl	$8, %ebx
	.loc 1 7005 0
	movl	$4, %ecx
.LVL29:
	call	evt_create
.LVL30:
	.loc 1 7006 0
	pushl	%eax
	pushl	%eax
	pushl	$4
	pushl	%ebx
	call	net_buf_simple_add
.LVL31:
	.loc 1 7007 0
	movl	%esi, %edx
	.loc 1 7009 0
	addl	$16, %esp
	.loc 1 7008 0
	movw	%di, 1(%eax)
	.loc 1 7009 0
	testb	%dl, %dl
	.loc 1 7007 0
	movb	%dl, (%eax)
	.loc 1 7009 0
	sete	3(%eax)
.LBE16:
.LBE17:
	.loc 1 7010 0
	leal	-12(%ebp), %esp
	popl	%ebx
	.cfi_restore 3
.LVL32:
	popl	%esi
	.cfi_restore 6
.LVL33:
	popl	%edi
	.cfi_restore 7
	popl	%ebp
	.cfi_restore 5
	.cfi_def_cfa 4, 4
.LVL34:
.L16:
	ret
	.cfi_endproc
.LFE262:
	.size	encrypt_change, .-encrypt_change
	.section	.text.unlikely.encrypt_change
.LCOLDE5:
	.section	.text.encrypt_change
.LHOTE5:
	.section	.text.unlikely.le_remote_feat_complete,"ax",@progbits
.LCOLDB6:
	.section	.text.le_remote_feat_complete,"ax",@progbits
.LHOTB6:
	.type	le_remote_feat_complete, @function
le_remote_feat_complete:
.LFB263:
	.loc 1 7013 0
	.cfi_startproc
.LVL35:
	.loc 1 7015 0
	testb	$32, event_mask+7
	je	.L29
	.loc 1 7015 0 is_stmt 0 discriminator 1
	testb	$8, le_event_mask
	je	.L29
	.loc 1 7013 0 is_stmt 1
	pushl	%ebp
	.cfi_def_cfa_offset 8
	.cfi_offset 5, -8
	movl	%esp, %ebp
	.cfi_def_cfa_register 5
	pushl	%edi
	pushl	%esi
	pushl	%ebx
	.cfi_offset 7, -12
	.cfi_offset 6, -16
	.cfi_offset 3, -20
	movl	%eax, %ebx
.LVL36:
	movl	%ecx, %edi
	movl	%edx, %esi
.LVL37:
.LBB20:
.LBB21:
	.loc 1 7019 0
	movl	$11, %ecx
.LVL38:
	movl	$4, %edx
.LVL39:
.LBE21:
.LBE20:
	.loc 1 7013 0
	subl	$12, %esp
.LBB23:
.LBB22:
	.loc 1 7019 0
	movl	8(%ebp), %eax
.LVL40:
	call	meta_evt
.LVL41:
	.loc 1 7022 0
	testb	%bl, %bl
	.loc 1 7020 0
	movb	%bl, (%eax)
	.loc 1 7021 0
	movw	%di, 1(%eax)
	.loc 1 7022 0
	jne	.L20
	.loc 1 7023 0
	movl	4(%esi), %ecx
	movl	8(%esi), %ebx
.LVL42:
	movl	%ecx, 3(%eax)
	movl	%ebx, 7(%eax)
	jmp	.L18
.LVL43:
.L20:
	.loc 1 7027 0
	leal	3(%eax), %edx
	movl	$2, %ecx
	xorl	%eax, %eax
.LVL44:
	movl	%edx, %edi
	rep stosl
.LVL45:
.L18:
.LBE22:
.LBE23:
	.loc 1 7029 0
	addl	$12, %esp
	popl	%ebx
	.cfi_restore 3
	popl	%esi
	.cfi_restore 6
.LVL46:
	popl	%edi
	.cfi_restore 7
	popl	%ebp
	.cfi_restore 5
	.cfi_def_cfa 4, 4
.LVL47:
.L29:
	ret
	.cfi_endproc
.LFE263:
	.size	le_remote_feat_complete, .-le_remote_feat_complete
	.section	.text.unlikely.le_remote_feat_complete
.LCOLDE6:
	.section	.text.le_remote_feat_complete
.LHOTE6:
	.section	.text.unlikely.sys_get_le64,"ax",@progbits
.LCOLDB7:
	.section	.text.sys_get_le64,"ax",@progbits
.LHOTB7:
	.type	sys_get_le64, @function
sys_get_le64:
.LFB71:
	.loc 1 3034 0
	.cfi_startproc
.LVL48:
	pushl	%ebp
	.cfi_def_cfa_offset 8
	.cfi_offset 5, -8
	.loc 1 3035 0
	movl	4(%eax), %edx
	movl	(%eax), %eax
.LVL49:
	.loc 1 3034 0
	movl	%esp, %ebp
	.cfi_def_cfa_register 5
	.loc 1 3036 0
	popl	%ebp
	.cfi_restore 5
	.cfi_def_cfa 4, 4
	ret
	.cfi_endproc
.LFE71:
	.size	sys_get_le64, .-sys_get_le64
	.section	.text.unlikely.sys_get_le64
.LCOLDE7:
	.section	.text.sys_get_le64
.LHOTE7:
	.section	.text.unlikely.hci_cmd_handle,"ax",@progbits
.LCOLDB8:
	.section	.text.hci_cmd_handle,"ax",@progbits
.LHOTB8:
	.globl	hci_cmd_handle
	.type	hci_cmd_handle, @function
hci_cmd_handle:
.LFB251:
	.loc 1 6696 0
	.cfi_startproc
.LVL50:
	pushl	%ebp
	.cfi_def_cfa_offset 8
	.cfi_offset 5, -8
	movl	%esp, %ebp
	.cfi_def_cfa_register 5
	pushl	%edi
	pushl	%esi
	pushl	%ebx
	subl	$44, %esp
	.cfi_offset 7, -12
	.cfi_offset 6, -16
	.cfi_offset 3, -20
	.loc 1 6696 0
	movl	8(%ebp), %ebx
	.loc 1 6699 0
	movl	$0, -48(%ebp)
	.loc 1 6696 0
	movl	%gs:20, %eax
	movl	%eax, -28(%ebp)
	xorl	%eax, %eax
	.loc 1 6704 0
	movl	12(%ebx), %eax
	cmpw	$2, %ax
	ja	.L33
.L35:
	.loc 1 6707 0
	xorl	%eax, %eax
	jmp	.L34
.L33:
	.loc 1 6710 0
	movl	8(%ebx), %edx
.LVL51:
	.loc 1 6711 0
	movw	(%edx), %cx
	.loc 1 6712 0
	movzbl	2(%edx), %edx
.LVL52:
	.loc 1 6711 0
	movw	%cx, _opcode
	.loc 1 6712 0
	cmpw	%dx, %ax
	jb	.L35
	.loc 1 6718 0
	leal	8(%ebx), %eax
.LVL53:
	pushl	%ecx
.LVL54:
	pushl	%ecx
	pushl	$3
	pushl	%eax
	call	net_buf_simple_pull
.LVL55:
	.loc 1 6719 0
	movw	_opcode, %ax
	.loc 1 6720 0
	addl	$16, %esp
	.loc 1 6719 0
	movl	%eax, %edx
	.loc 1 6720 0
	shrw	$10, %ax
	.loc 1 6719 0
	andw	$1023, %dx
.LVL56:
	.loc 1 6720 0
	cmpw	$4, %ax
	je	.L37
	ja	.L38
	cmpw	$1, %ax
	je	.L39
	cmpw	$3, %ax
	je	.L40
	jmp	.L36
.L38:
	cmpw	$8, %ax
	je	.L41
	cmpw	$63, %ax
	je	.L42
	jmp	.L36
.L39:
.LVL57:
.LBB144:
.LBB145:
	.loc 1 6064 0
	cmpw	$6, %dx
	je	.L43
	cmpw	$29, %dx
	jne	.L36
.LVL58:
.LBB146:
.LBB147:
	.loc 1 6057 0
	movl	8(%ebx), %eax
	.loc 1 6058 0
	subl	$12, %esp
	movzwl	(%eax), %eax
	pushl	%eax
.LVL59:
	call	ll_version_ind_send
.LVL60:
	jmp	.L144
.LVL61:
.L43:
	movl	8(%ebx), %eax
.LVL62:
.LVL63:
.LBE147:
.LBE146:
.LBB149:
.LBB150:
	.loc 1 6049 0
	pushl	%edx
.LVL64:
	pushl	%edx
	movzbl	2(%eax), %edx
	movzwl	(%eax), %eax
.LVL65:
	pushl	%edx
	pushl	%eax
	call	ll_terminate_ind_send
.LVL66:
	jmp	.L144
.LVL67:
.L77:
.LBE150:
.LBE149:
.LBE145:
.LBE144:
.LBB153:
.LBB154:
.LBB155:
.LBB156:
	.loc 1 6420 0
	movl	8(%ebx), %eax
	.loc 1 6421 0
	subl	$12, %esp
	movzwl	(%eax), %eax
	pushl	%eax
.LVL68:
	call	ll_feature_req_send
.LVL69:
.L144:
.LBE156:
.LBE155:
.LBE154:
.LBE153:
.LBB225:
.LBB152:
.LBB151:
.LBB148:
	.loc 1 6059 0
	addl	$16, %esp
.LVL70:
.L148:
	cmpl	$1, %eax
	sbbl	%eax, %eax
	notl	%eax
	andl	$12, %eax
	call	cmd_status
.LVL71:
	movl	%eax, -48(%ebp)
	jmp	.L110
.LVL72:
.L40:
.LBE148:
.LBE151:
.LBE152:
.LBE225:
.LBB226:
.LBB227:
	.loc 1 6121 0
	cmpw	$3, %dx
	je	.L48
	ja	.L49
	decw	%dx
.LVL73:
	jne	.L36
.LVL74:
.LBB228:
.LBB229:
	.loc 1 6080 0
	movl	8(%ebx), %eax
	call	sys_get_le64
.LVL75:
	movl	%eax, event_mask
	movl	%edx, event_mask+4
	jmp	.L145
.LVL76:
.L49:
.LBE229:
.LBE228:
	.loc 1 6121 0
	cmpw	$45, %dx
	je	.L51
	cmpw	$99, %dx
	je	.L145
	jmp	.L36
.L48:
.LVL77:
.LBB230:
.LBB231:
	.loc 1 6095 0
	movl	$-1, event_mask
	movl	$8191, event_mask+4
	.loc 1 6097 0
	movl	$31, le_event_mask
	movl	$0, le_event_mask+4
	.loc 1 6099 0
	call	ll_reset
.LVL78:
.L145:
	.loc 1 6100 0
	leal	-48(%ebp), %eax
	movl	$1, %edx
	call	cmd_complete
.LVL79:
	.loc 1 6101 0
	movb	$0, (%eax)
	jmp	.L110
.LVL80:
.L51:
	movl	8(%ebx), %eax
.LVL81:
.LBE231:
.LBE230:
.LBB232:
.LBB233:
	.loc 1 6113 0
	movl	$4, %edx
.LVL82:
	.loc 1 6111 0
	movw	(%eax), %si
.LVL83:
	.loc 1 6112 0
	movzbl	2(%eax), %ebx
.LVL84:
	.loc 1 6113 0
	leal	-48(%ebp), %eax
.LVL85:
	call	cmd_complete
.LVL86:
	movl	%eax, %edi
.LVL87:
.LVL88:
	.loc 1 6114 0
	pushl	%eax
	leal	3(%edi), %eax
	pushl	%eax
	movzwl	%si, %eax
	pushl	%ebx
	pushl	%eax
	call	ll_tx_power_level_get
.LVL89:
	.loc 1 6115 0
	addl	$16, %esp
	cmpl	$1, %eax
	.loc 1 6116 0
	movw	%si, 1(%edi)
	.loc 1 6115 0
	sbbl	%eax, %eax
.LVL90:
	notl	%eax
	andl	$2, %eax
	movb	%al, (%edi)
	jmp	.L110
.LVL91:
.L37:
.LBE233:
.LBE232:
.LBE227:
.LBE226:
.LBB234:
.LBB235:
	.loc 1 6194 0
	cmpw	$2, %dx
	leal	-48(%ebp), %eax
.LVL92:
	je	.L54
	ja	.L55
	decw	%dx
.LVL93:
	jne	.L36
.LVL94:
.LBB236:
.LBB237:
	.loc 1 6142 0
	movl	$9, %edx
	call	cmd_complete
.LVL95:
	.loc 1 6143 0
	movb	$0, (%eax)
	.loc 1 6144 0
	movb	$9, 1(%eax)
	.loc 1 6145 0
	movw	$0, 2(%eax)
	.loc 1 6146 0
	movb	$9, 4(%eax)
	.loc 1 6147 0
	movw	$-1, 5(%eax)
	.loc 1 6148 0
	movw	$-1, 7(%eax)
	jmp	.L110
.LVL96:
.L55:
.LBE237:
.LBE236:
	.loc 1 6194 0
	cmpw	$3, %dx
	je	.L57
	cmpw	$9, %dx
	jne	.L36
.LVL97:
.LBB238:
.LBB239:
	.loc 1 6187 0
	movl	$7, %edx
.LVL98:
	call	cmd_complete
.LVL99:
	.loc 1 6188 0
	movb	$0, (%eax)
	.loc 1 6189 0
	incl	%eax
.LVL100:
	pushl	%ebx
	pushl	%ebx
	pushl	%eax
	pushl	$0
	call	ll_addr_get
.LVL101:
	jmp	.L146
.LVL102:
.L54:
.LBE239:
.LBE238:
.LBB240:
.LBB241:
	.loc 1 6153 0
	movl	$65, %edx
.LVL103:
	call	cmd_complete
.LVL104:
	.loc 1 6155 0
	leal	1(%eax), %ebx
	.loc 1 6154 0
	movb	$0, (%eax)
	.loc 1 6153 0
	movl	%eax, %edx
.LVL105:
	.loc 1 6155 0
	movl	$16, %ecx
	xorl	%eax, %eax
.LVL106:
	movl	%ebx, %edi
	rep stosl
	.loc 1 6169 0
	movb	27(%edx), %al
	.loc 1 6156 0
	orb	$-128, 3(%edx)
	.loc 1 6157 0
	orb	$-64, 6(%edx)
	.loc 1 6158 0
	orb	$4, 11(%edx)
	.loc 1 6169 0
	orl	$-49, %eax
	.loc 1 6159 0
	orb	$40, 15(%edx)
	.loc 1 6169 0
	movb	%al, 27(%edx)
	.loc 1 6170 0
	movb	29(%edx), %al
	.loc 1 6160 0
	orb	$2, 16(%edx)
	.loc 1 6161 0
	orb	$4, 23(%edx)
	.loc 1 6167 0
	orb	$-9, 26(%edx)
	.loc 1 6170 0
	orl	$14, %eax
	.loc 1 6171 0
	orb	$32, 1(%edx)
	.loc 1 6170 0
	movb	%al, 29(%edx)
	.loc 1 6172 0
	movb	28(%edx), %al
	.loc 1 6173 0
	orb	$48, 34(%edx)
	.loc 1 6174 0
	orb	$-128, 39(%edx)
	.loc 1 6172 0
	orl	$-9, %eax
	movb	%al, 28(%edx)
	jmp	.L110
.LVL107:
.L57:
.LBE241:
.LBE240:
.LBB242:
.LBB243:
	.loc 1 6179 0
	movl	$9, %edx
.LVL108:
	call	cmd_complete
.LVL109:
	.loc 1 6181 0
	leal	1(%eax), %ebx
	.loc 1 6180 0
	movb	$0, (%eax)
	.loc 1 6179 0
	movl	%eax, %edx
.LVL110:
	.loc 1 6181 0
	movl	$2, %ecx
	xorl	%eax, %eax
.LVL111:
	movl	%ebx, %edi
	rep stosl
	.loc 1 6182 0
	movb	$96, 5(%edx)
	jmp	.L110
.LVL112:
.L41:
.LBE243:
.LBE242:
.LBE235:
.LBE234:
.LBB244:
.LBB224:
	.loc 1 6547 0
	decl	%edx
.LVL113:
	cmpw	$74, %dx
	ja	.L36
	movzwl	%dx, %edx
	jmp	*.L60(,%edx,4)
	.section	.rodata.hci_cmd_handle,"a",@progbits
	.align 4
	.align 4
.L60:
	.long	.L59
	.long	.L61
	.long	.L62
	.long	.L36
	.long	.L63
	.long	.L64
	.long	.L65
	.long	.L66
	.long	.L67
	.long	.L68
	.long	.L69
	.long	.L70
	.long	.L36
	.long	.L36
	.long	.L71
	.long	.L72
	.long	.L73
	.long	.L74
	.long	.L75
	.long	.L36
	.long	.L76
	.long	.L77
	.long	.L78
	.long	.L79
	.long	.L36
	.long	.L80
	.long	.L81
	.long	.L82
	.long	.L36
	.long	.L36
	.long	.L36
	.long	.L83
	.long	.L84
	.long	.L36
	.long	.L36
	.long	.L36
	.long	.L36
	.long	.L36
	.long	.L36
	.long	.L36
	.long	.L36
	.long	.L36
	.long	.L36
	.long	.L36
	.long	.L36
	.long	.L36
	.long	.L36
	.long	.L85
	.long	.L86
	.long	.L87
	.long	.L36
	.long	.L36
	.long	.L36
	.long	.L36
	.long	.L36
	.long	.L36
	.long	.L36
	.long	.L36
	.long	.L36
	.long	.L36
	.long	.L36
	.long	.L36
	.long	.L36
	.long	.L36
	.long	.L36
	.long	.L36
	.long	.L36
	.long	.L36
	.long	.L36
	.long	.L36
	.long	.L36
	.long	.L36
	.long	.L36
	.long	.L36
	.long	.L88
	.section	.text.hci_cmd_handle
.L59:
.LVL114:
.LBB157:
.LBB158:
	.loc 1 6225 0
	movl	8(%ebx), %eax
	call	sys_get_le64
.LVL115:
	movl	%eax, le_event_mask
	movl	%edx, le_event_mask+4
	jmp	.L145
.LVL116:
.L61:
.LBE158:
.LBE157:
.LBB159:
.LBB160:
	.loc 1 6232 0
	leal	-48(%ebp), %eax
.LVL117:
	movl	$4, %edx
	call	cmd_complete
.LVL118:
	.loc 1 6233 0
	movb	$0, (%eax)
	.loc 1 6234 0
	movw	$27, 1(%eax)
	.loc 1 6235 0
	movb	$2, 3(%eax)
	jmp	.L110
.LVL119:
.L62:
.LBE160:
.LBE159:
.LBB161:
.LBB162:
	.loc 1 6240 0
	leal	-48(%ebp), %eax
.LVL120:
	movl	$9, %edx
	call	cmd_complete
.LVL121:
	.loc 1 6242 0
	leal	1(%eax), %ebx
	.loc 1 6241 0
	movb	$0, (%eax)
	.loc 1 6240 0
	movl	%eax, %edx
.LVL122:
	.loc 1 6242 0
	movl	$2, %ecx
	xorl	%eax, %eax
.LVL123:
	movl	%ebx, %edi
	rep stosl
	.loc 1 6243 0
	movb	$15, 1(%edx)
	.loc 1 6244 0
	movb	$64, 2(%edx)
	.loc 1 6245 0
	movb	$1, 3(%edx)
	jmp	.L110
.LVL124:
.L63:
.LBE162:
.LBE161:
.LBB163:
.LBB164:
	.loc 1 6251 0
	pushl	%ecx
.LVL125:
	pushl	%ecx
	pushl	8(%ebx)
	pushl	$1
	call	ll_addr_set
.LVL126:
	jmp	.L154
.LVL127:
.L71:
.LBE164:
.LBE163:
.LBB165:
.LBB166:
	.loc 1 6258 0
	leal	-48(%ebp), %eax
.LVL128:
	movl	$2, %edx
	call	cmd_complete
.LVL129:
	movl	%eax, %ebx
.LVL130:
	.loc 1 6259 0
	movb	$0, (%eax)
	.loc 1 6260 0
	call	ll_wl_size_get
.LVL131:
	movb	%al, 1(%ebx)
	jmp	.L110
.LVL132:
.L72:
.LBE166:
.LBE165:
.LBB167:
.LBB168:
	.loc 1 6265 0
	leal	-48(%ebp), %eax
.LVL133:
	movl	$1, %edx
	call	cmd_complete
.LVL134:
	movl	%eax, %ebx
.LVL135:
	.loc 1 6266 0
	call	ll_wl_clear
.LVL136:
	movb	%al, (%ebx)
	jmp	.L110
.LVL137:
.L73:
.LBE168:
.LBE167:
.LBB169:
.LBB170:
	.loc 1 6273 0
	subl	$12, %esp
	pushl	8(%ebx)
.LVL138:
	call	ll_wl_add
.LVL139:
	jmp	.L155
.LVL140:
.L74:
.LBE170:
.LBE169:
.LBB171:
.LBB172:
	.loc 1 6282 0
	subl	$12, %esp
	pushl	8(%ebx)
.LVL141:
	call	ll_wl_remove
.LVL142:
.L155:
	movl	%eax, %ebx
.LVL143:
	.loc 1 6283 0
	leal	-48(%ebp), %eax
.LVL144:
	movl	$1, %edx
	call	cmd_complete
.LVL145:
	.loc 1 6284 0
	movb	%bl, (%eax)
.LVL146:
	jmp	.L146
.LVL147:
.L78:
	movl	8(%ebx), %eax
.LVL148:
.LBE172:
.LBE171:
.LBB173:
.LBB174:
	.loc 1 6291 0
	leal	-44(%ebp), %edx
	pushl	$0
	pushl	%edx
	leal	16(%eax), %edx
	pushl	%edx
	pushl	%eax
	call	ecb_encrypt
.LVL149:
	.loc 1 6294 0
	leal	-48(%ebp), %eax
.LVL150:
	movl	$17, %edx
	call	cmd_complete
.LVL151:
	.loc 1 6295 0
	movb	$0, (%eax)
	.loc 1 6296 0
	movl	-40(%ebp), %ebx
	movl	-36(%ebp), %ecx
	movl	-32(%ebp), %edx
	movl	-44(%ebp), %esi
	movl	%ebx, 5(%eax)
	movl	%ecx, 9(%eax)
	movl	%edx, 13(%eax)
	movl	%esi, 1(%eax)
	jmp	.L146
.LVL152:
.L79:
.LBE174:
.LBE173:
.LBB175:
.LBB176:
	.loc 1 6302 0
	leal	-48(%ebp), %eax
.LVL153:
	movl	$9, %edx
	call	cmd_complete
.LVL154:
	.loc 1 6303 0
	movb	$0, (%eax)
	.loc 1 6304 0
	incl	%eax
.LVL155:
	pushl	%edx
	pushl	%edx
	pushl	$8
	pushl	%eax
	call	bt_rand_c
.LVL156:
	jmp	.L146
.LVL157:
.L82:
.LBE176:
.LBE175:
.LBB177:
.LBB178:
	.loc 1 6310 0
	leal	-48(%ebp), %eax
.LVL158:
	movl	$9, %edx
	call	cmd_complete
.LVL159:
	.loc 1 6311 0
	movb	$0, (%eax)
.LVL160:
.LBB179:
.LBB180:
.LBB181:
.LBB182:
	.loc 1 3004 0
	movb	$-65, 1(%eax)
	.loc 1 3005 0
	movb	$-1, 2(%eax)
.LVL161:
.LBE182:
.LBE181:
.LBB183:
.LBB184:
	.loc 1 3004 0
	movb	$48, 3(%eax)
	.loc 1 3005 0
	movb	$-20, 4(%eax)
.LVL162:
.LBE184:
.LBE183:
.LBE180:
.LBB185:
.LBB186:
.LBB187:
	.loc 1 3004 0
	movb	$-64, 5(%eax)
	.loc 1 3005 0
	movb	$1, 6(%eax)
.LVL163:
.LBE187:
.LBE186:
.LBB188:
.LBB189:
	.loc 1 3004 0
	movb	$0, 7(%eax)
	.loc 1 3005 0
	movb	$0, 8(%eax)
.LVL164:
	jmp	.L110
.LVL165:
.L64:
	movl	8(%ebx), %eax
.LVL166:
.LBE189:
.LBE188:
.LBE185:
.LBE179:
.LBE178:
.LBE177:
.LBB190:
.LBB191:
	.loc 1 6327 0
	pushl	%edi
.LVL167:
	movzbl	14(%eax), %edx
	pushl	%edx
	movzbl	13(%eax), %edx
	pushl	%edx
	.loc 1 6329 0
	leal	7(%eax), %edx
	.loc 1 6327 0
	pushl	%edx
	movzbl	6(%eax), %edx
	pushl	%edx
	movzbl	5(%eax), %edx
	pushl	%edx
	movzbl	4(%eax), %edx
	movzwl	(%eax), %eax
.LVL168:
	pushl	%edx
.LVL169:
	pushl	%eax
.LVL170:
	call	ll_adv_params_set
.LVL171:
	movl	%eax, %ebx
.LVL172:
	.loc 1 6331 0
	leal	-48(%ebp), %eax
.LVL173:
	addl	$32, %esp
	movl	$1, %edx
	call	cmd_complete
.LVL174:
	.loc 1 6332 0
	movb	%bl, (%eax)
	jmp	.L110
.LVL175:
.L65:
.LBE191:
.LBE190:
.LBB192:
.LBB193:
	.loc 1 6337 0
	leal	-48(%ebp), %eax
.LVL176:
	movl	$2, %edx
	call	cmd_complete
.LVL177:
	.loc 1 6338 0
	movb	$0, (%eax)
	.loc 1 6339 0
	movb	$0, 1(%eax)
	jmp	.L110
.LVL178:
.L66:
	movl	8(%ebx), %eax
.LVL179:
.LBE193:
.LBE192:
.LBB194:
.LBB195:
	.loc 1 6345 0
	pushl	%esi
	pushl	%esi
	leal	1(%eax), %edx
	pushl	%edx
	movzbl	(%eax), %eax
.LVL180:
	pushl	%eax
	call	ll_adv_data_set
.LVL181:
	jmp	.L154
.LVL182:
.L67:
	movl	8(%ebx), %eax
.LVL183:
.LBE195:
.LBE194:
.LBB196:
.LBB197:
	.loc 1 6353 0
	pushl	%ebx
	pushl	%ebx
	leal	1(%eax), %edx
	pushl	%edx
	movzbl	(%eax), %eax
.LVL184:
	pushl	%eax
	call	ll_scan_data_set
.LVL185:
.L154:
	.loc 1 6354 0
	leal	-48(%ebp), %eax
.LVL186:
	movl	$1, %edx
	call	cmd_complete
.LVL187:
	.loc 1 6355 0
	movb	$0, (%eax)
.LVL188:
	jmp	.L146
.LVL189:
.L68:
.LBE197:
.LBE196:
.LBB198:
.LBB199:
	.loc 1 6362 0
	movl	8(%ebx), %eax
	subl	$12, %esp
	movzbl	(%eax), %eax
	pushl	%eax
.LVL190:
	call	ll_adv_enable
.LVL191:
	jmp	.L153
.LVL192:
.L69:
	movl	8(%ebx), %eax
.LVL193:
.LBE199:
.LBE198:
.LBB200:
.LBB201:
	.loc 1 6375 0
	subl	$12, %esp
	movzbl	6(%eax), %edx
	pushl	%edx
.LVL194:
	movzbl	5(%eax), %edx
	pushl	%edx
	movzwl	3(%eax), %edx
	pushl	%edx
	movzwl	1(%eax), %edx
	pushl	%edx
	movzbl	(%eax), %eax
.LVL195:
	pushl	%eax
	call	ll_scan_params_set
.LVL196:
	movl	%eax, %ebx
.LVL197:
	.loc 1 6377 0
	leal	-48(%ebp), %eax
.LVL198:
	addl	$32, %esp
	movl	$1, %edx
	call	cmd_complete
.LVL199:
	jmp	.L152
.LVL200:
.L70:
.LBE201:
.LBE200:
.LBB202:
.LBB203:
	.loc 1 6385 0
	movl	8(%ebx), %eax
	subl	$12, %esp
	movzbl	(%eax), %eax
	pushl	%eax
.LVL201:
	call	ll_scan_enable
.LVL202:
.L153:
	movl	%eax, %ebx
.LVL203:
	.loc 1 6386 0
	leal	-48(%ebp), %eax
.LVL204:
	movl	$1, %edx
	call	cmd_complete
.LVL205:
	.loc 1 6387 0
	addl	$16, %esp
.LVL206:
.L152:
	cmpl	$1, %ebx
	sbbl	%edx, %edx
	notl	%edx
	andl	$12, %edx
	jmp	.L150
.LVL207:
.L80:
	movl	8(%ebx), %eax
.LVL208:
.LBE203:
.LBE202:
.LBB204:
.LBB205:
	.loc 1 6395 0
	movw	(%eax), %bx
.LVL209:
	.loc 1 6396 0
	addl	$2, %eax
.LVL210:
	pushl	%ecx
.LVL211:
	pushl	%eax
	pushl	$0
	movzwl	%bx, %eax
.LVL212:
	jmp	.L151
.LVL213:
.L81:
.LBE205:
.LBE204:
.LBB206:
.LBB207:
	.loc 1 6407 0
	movl	8(%ebx), %eax
	movzwl	(%eax), %eax
	.loc 1 6408 0
	pushl	%edx
.LVL214:
	pushl	$0
	pushl	$6
	.loc 1 6407 0
	movl	%eax, %ebx
.LVL215:
.L151:
	.loc 1 6408 0
	pushl	%eax
	call	ll_start_enc_req_send
.LVL216:
	movl	%eax, %esi
.LVL217:
	.loc 1 6411 0
	leal	-48(%ebp), %eax
.LVL218:
	movl	$3, %edx
	call	cmd_complete
.LVL219:
	.loc 1 6412 0
	addl	$16, %esp
	jmp	.L149
.LVL220:
.L76:
.LBE207:
.LBE206:
.LBB208:
.LBB209:
	.loc 1 6430 0
	movl	8(%ebx), %eax
	.loc 1 6431 0
	movl	$8, %edx
	.loc 1 6430 0
	movw	(%eax), %si
.LVL221:
	.loc 1 6431 0
	leal	-48(%ebp), %eax
.LVL222:
	call	cmd_complete
.LVL223:
	movl	%eax, %ebx
.LVL224:
	.loc 1 6432 0
	leal	3(%eax), %eax
.LVL225:
	pushl	%edi
	pushl	%edi
	pushl	%eax
	movzwl	%si, %eax
	pushl	%eax
	call	ll_chm_get
.LVL226:
	.loc 1 6433 0
	addl	$16, %esp
	cmpl	$1, %eax
	.loc 1 6434 0
	movw	%si, 1(%ebx)
	.loc 1 6433 0
	sbbl	%eax, %eax
.LVL227:
	notl	%eax
	andl	$2, %eax
	movb	%al, (%ebx)
	jmp	.L110
.LVL228:
.L75:
	movl	8(%ebx), %eax
.LVL229:
.LBE209:
.LBE208:
.LBB210:
.LBB211:
	.loc 1 6448 0
	pushl	%ebx
.LVL230:
	pushl	%ebx
	movzwl	8(%eax), %edx
	pushl	%edx
	movzwl	6(%eax), %edx
	pushl	%edx
	movzwl	4(%eax), %edx
	movzwl	(%eax), %eax
.LVL231:
	pushl	%edx
	pushl	$0
	pushl	$0
	pushl	%eax
	call	ll_conn_update
.LVL232:
	.loc 1 6450 0
	addl	$32, %esp
	jmp	.L148
.LVL233:
.L83:
	movl	8(%ebx), %eax
.LVL234:
.LBE211:
.LBE210:
.LBB212:
.LBB213:
	.loc 1 6461 0
	movw	(%eax), %bx
.LVL235:
	.loc 1 6465 0
	pushl	%ecx
.LVL236:
	pushl	%ecx
	movzwl	8(%eax), %edx
	pushl	%edx
	movzwl	6(%eax), %edx
	movzwl	4(%eax), %eax
.LVL237:
	pushl	%edx
	pushl	%eax
	pushl	$0
	jmp	.L147
.LVL238:
.L84:
	movl	8(%ebx), %eax
.LVL239:
.LBE213:
.LBE212:
.LBB214:
.LBB215:
	.loc 1 6478 0
	movw	(%eax), %bx
.LVL240:
	.loc 1 6479 0
	pushl	%edx
	pushl	%edx
	pushl	$0
	pushl	$0
	pushl	$0
	movzbl	2(%eax), %eax
.LVL241:
	pushl	%eax
.LVL242:
.L147:
	movzwl	%bx, %eax
	pushl	$2
	pushl	%eax
	call	ll_conn_update
.LVL243:
	movl	%eax, %esi
.LVL244:
	.loc 1 6480 0
	leal	-48(%ebp), %eax
.LVL245:
	addl	$32, %esp
	movl	$3, %edx
	call	cmd_complete
.LVL246:
.L149:
	.loc 1 6481 0
	cmpl	$1, %esi
	.loc 1 6482 0
	movw	%bx, 1(%eax)
	.loc 1 6481 0
	sbbl	%edx, %edx
	notl	%edx
	andl	$12, %edx
	movb	%dl, (%eax)
.LVL247:
	jmp	.L110
.LVL248:
.L85:
.LBE215:
.LBE214:
.LBB216:
.LBB217:
	.loc 1 6490 0
	movl	8(%ebx), %eax
	.loc 1 6491 0
	movl	$5, %edx
	.loc 1 6490 0
	movw	(%eax), %si
.LVL249:
	.loc 1 6491 0
	leal	-48(%ebp), %eax
.LVL250:
	call	cmd_complete
.LVL251:
	movl	%eax, %ebx
.LVL252:
	.loc 1 6492 0
	leal	4(%eax), %eax
.LVL253:
	pushl	%edi
	pushl	%eax
	leal	3(%ebx), %eax
	pushl	%eax
	movzwl	%si, %eax
	pushl	%eax
	call	ll_phy_get
.LVL254:
	.loc 1 6493 0
	cmpl	$1, %eax
	.loc 1 6494 0
	movw	%si, 1(%ebx)
	.loc 1 6493 0
	sbbl	%eax, %eax
.LVL255:
	notl	%eax
	andl	$12, %eax
	movb	%al, (%ebx)
	.loc 1 6495 0
	movzbl	3(%ebx), %eax
	movl	%eax, (%esp)
	call	find_lsb_set
.LVL256:
	movb	%al, 3(%ebx)
	.loc 1 6496 0
	movzbl	4(%ebx), %eax
	movl	%eax, (%esp)
	call	find_lsb_set
.LVL257:
	movb	%al, 4(%ebx)
	jmp	.L146
.LVL258:
.L86:
	movl	8(%ebx), %eax
.LVL259:
.LBE217:
.LBE216:
.LBB218:
.LBB219:
	.loc 1 6503 0
	movb	(%eax), %dl
	testb	$1, %dl
	je	.L100
	.loc 1 6504 0
	movb	$7, 1(%eax)
.L100:
	.loc 1 6506 0
	andb	$2, %dl
	je	.L101
	.loc 1 6507 0
	movb	$7, 2(%eax)
.L101:
	.loc 1 6509 0
	pushl	%ecx
	pushl	%ecx
	movzbl	2(%eax), %edx
	pushl	%edx
	movzbl	1(%eax), %eax
.LVL260:
	pushl	%eax
	call	ll_phy_default_set
.LVL261:
	movl	%eax, %ebx
.LVL262:
	.loc 1 6510 0
	leal	-48(%ebp), %eax
.LVL263:
	movl	$1, %edx
	call	cmd_complete
.LVL264:
	.loc 1 6511 0
	addl	$16, %esp
	cmpl	$1, %ebx
	sbbl	%edx, %edx
	notl	%edx
	andl	$30, %edx
.LVL265:
.L150:
	movb	%dl, (%eax)
.LVL266:
	jmp	.L110
.LVL267:
.L87:
	movl	8(%ebx), %eax
.LVL268:
.LBE219:
.LBE218:
.LBB220:
.LBB221:
	.loc 1 6521 0
	movb	2(%eax), %dl
	.loc 1 6519 0
	movw	(%eax), %cx
.LVL269:
	.loc 1 6520 0
	movw	5(%eax), %bx
.LVL270:
	.loc 1 6521 0
	testb	$1, %dl
	je	.L103
	.loc 1 6522 0
	movb	$7, 3(%eax)
.L103:
	.loc 1 6524 0
	andb	$2, %dl
	je	.L104
	.loc 1 6525 0
	movb	$7, 4(%eax)
.L104:
	.loc 1 6531 0
	xorl	%edx, %edx
	.loc 1 6527 0
	testb	$3, %bl
	je	.L105
	.loc 1 6528 0
	leal	-1(%ebx), %edx
.LVL271:
	.loc 1 6529 0
	andl	$1, %edx
.LVL272:
.L105:
	.loc 1 6533 0
	movzbl	4(%eax), %ebx
	movzwl	%dx, %edx
	pushl	%ebx
	pushl	%edx
	movzbl	3(%eax), %eax
.LVL273:
	pushl	%eax
	movzwl	%cx, %eax
	pushl	%eax
	call	ll_phy_req_send
.LVL274:
	jmp	.L144
.LVL275:
.L88:
.LBE221:
.LBE220:
.LBB222:
.LBB223:
	.loc 1 6540 0
	leal	-48(%ebp), %eax
.LVL276:
	movl	$3, %edx
	call	cmd_complete
.LVL277:
	.loc 1 6541 0
	movb	$0, (%eax)
	.loc 1 6542 0
	pushl	%edx
	pushl	%edx
	leal	2(%eax), %edx
	incl	%eax
.LVL278:
	pushl	%edx
	pushl	%eax
	call	ll_tx_power_get
.LVL279:
.L146:
	addl	$16, %esp
	jmp	.L110
.LVL280:
.L42:
.LBE223:
.LBE222:
.LBE224:
.LBE244:
.LBB245:
.LBB246:
	.loc 1 6669 0
	cmpw	$2, %dx
	je	.L107
	cmpw	$3, %dx
	je	.L108
	decw	%dx
.LVL281:
	jne	.L36
.LVL282:
.LBB247:
.LBB248:
	.loc 1 6643 0
	leal	-48(%ebp), %eax
.LVL283:
	movl	$13, %edx
	call	cmd_complete
.LVL284:
	.loc 1 6644 0
	movb	$0, (%eax)
	.loc 1 6645 0
	movw	$0, 1(%eax)
	.loc 1 6646 0
	movw	$0, 3(%eax)
	.loc 1 6647 0
	movb	$0, 5(%eax)
	jmp	.L110
.LVL285:
.L107:
.LBE248:
.LBE247:
.LBB249:
.LBB250:
	.loc 1 6653 0
	leal	-48(%ebp), %eax
.LVL286:
	movl	$65, %edx
.LVL287:
	call	cmd_complete
.LVL288:
	.loc 1 6655 0
	leal	1(%eax), %ebx
	.loc 1 6654 0
	movb	$0, (%eax)
	.loc 1 6653 0
	movl	%eax, %edx
.LVL289:
	.loc 1 6655 0
	movl	$16, %ecx
	xorl	%eax, %eax
.LVL290:
	movl	%ebx, %edi
	rep stosl
	.loc 1 6656 0
	orb	$7, 1(%edx)
	jmp	.L110
.LVL291:
.L108:
.LBE250:
.LBE249:
.LBB251:
.LBB252:
	.loc 1 6662 0
	leal	-48(%ebp), %eax
.LVL292:
	movl	$9, %edx
.LVL293:
	call	cmd_complete
.LVL294:
	.loc 1 6664 0
	leal	1(%eax), %edx
	.loc 1 6663 0
	movb	$0, (%eax)
	.loc 1 6664 0
	movl	$2, %ecx
	xorl	%eax, %eax
.LVL295:
	movl	%edx, %edi
	rep stosl
.LVL296:
.L110:
.LBE252:
.LBE251:
.LBE246:
.LBE245:
	.loc 1 6747 0
	movl	-48(%ebp), %eax
.L34:
	.loc 1 6748 0
	movl	-28(%ebp), %edi
	xorl	%gs:20, %edi
	je	.L111
	call	__stack_chk_fail
.LVL297:
.L36:
	.loc 1 6744 0
	leal	-48(%ebp), %eax
	movl	$1, %edx
	call	cmd_complete
.LVL298:
	.loc 1 6745 0
	movb	$1, (%eax)
	jmp	.L110
.LVL299:
.L111:
	.loc 1 6748 0
	leal	-12(%ebp), %esp
	popl	%ebx
	.cfi_restore 3
	popl	%esi
	.cfi_restore 6
	popl	%edi
	.cfi_restore 7
	popl	%ebp
	.cfi_restore 5
	.cfi_def_cfa 4, 4
	ret
	.cfi_endproc
.LFE251:
	.size	hci_cmd_handle, .-hci_cmd_handle
	.section	.text.unlikely.hci_cmd_handle
.LCOLDE8:
	.section	.text.hci_cmd_handle
.LHOTE8:
	.section	.text.unlikely.hci_acl_handle,"ax",@progbits
.LCOLDB9:
	.section	.text.hci_acl_handle,"ax",@progbits
.LHOTB9:
	.globl	hci_acl_handle
	.type	hci_acl_handle, @function
hci_acl_handle:
.LFB252:
	.loc 1 6750 0
	.cfi_startproc
.LVL300:
	pushl	%ebp
	.cfi_def_cfa_offset 8
	.cfi_offset 5, -8
	movl	%esp, %ebp
	.cfi_def_cfa_register 5
	pushl	%edi
	pushl	%esi
	pushl	%ebx
	subl	$28, %esp
	.cfi_offset 7, -12
	.cfi_offset 6, -16
	.cfi_offset 3, -20
	.loc 1 6750 0
	movl	8(%ebp), %edi
	.loc 1 6757 0
	movl	12(%ebp), %eax
	movl	$0, (%eax)
	.loc 1 6760 0
	cmpw	$3, 12(%edi)
	jbe	.L169
	.loc 1 6764 0
	movl	8(%edi), %eax
.LVL301:
	.loc 1 6765 0
	movw	2(%eax), %si
.LVL302:
	.loc 1 6766 0
	movw	(%eax), %bx
.LVL303:
.LVL304:
	.loc 1 6767 0
	pushl	%eax
.LVL305:
	pushl	%eax
	leal	8(%edi), %eax
	pushl	$4
	pushl	%eax
	call	net_buf_simple_pull
.LVL306:
	.loc 1 6768 0
	addl	$16, %esp
	cmpw	12(%edi), %si
	ja	.L169
	.loc 1 6772 0
	movl	%ebx, %eax
	.loc 1 6773 0
	andw	$4095, %bx
.LVL307:
	.loc 1 6772 0
	shrw	$12, %ax
.LVL308:
	.loc 1 6773 0
	movw	%bx, -26(%ebp)
	.loc 1 6772 0
	movw	%ax, -28(%ebp)
.LVL309:
	.loc 1 6774 0
	call	radio_tx_mem_acquire
.LVL310:
	.loc 1 6775 0
	testl	%eax, %eax
	.loc 1 6774 0
	movl	%eax, %ebx
.LVL311:
	.loc 1 6775 0
	jne	.L160
.LVL312:
.LBB255:
.LBB256:
	.loc 1 6687 0
	testb	$2, event_mask+3
.LBE256:
.LBE255:
	.loc 1 6778 0
	movl	$-55, %esi
.LVL313:
.LBB258:
.LBB257:
	.loc 1 6687 0
	je	.L158
	.loc 1 6690 0
	pushl	%edx
	pushl	%edx
	pushl	$-1
	pushl	$1
	call	bt_buf_get_rx
.LVL314:
	movl	12(%ebp), %edx
	.loc 1 6691 0
	movl	$1, %ecx
	.loc 1 6690 0
	movl	%eax, (%edx)
	.loc 1 6691 0
	movl	$26, %edx
	call	evt_create
.LVL315:
	.loc 1 6692 0
	movl	12(%ebp), %eax
	popl	%ecx
	popl	%ebx
.LVL316:
	movl	(%eax), %eax
	pushl	$1
	addl	$8, %eax
	pushl	%eax
	call	net_buf_simple_add
.LVL317:
	.loc 1 6693 0
	addl	$16, %esp
	movb	$1, (%eax)
	jmp	.L158
.LVL318:
.L160:
.LBE257:
.LBE258:
	.loc 1 6781 0
	testb	$13, -28(%ebp)
	movb	4(%eax), %al
.LVL319:
	jne	.L161
	.loc 1 6782 0
	andl	$-4, %eax
	orl	$2, %eax
	jmp	.L168
.L161:
	.loc 1 6784 0
	andl	$-4, %eax
	orl	$1, %eax
.L168:
	movb	%al, 4(%ebx)
	.loc 1 6786 0
	movl	%esi, %eax
	.loc 1 6787 0
	movzwl	%si, %ecx
	.loc 1 6786 0
	movb	%al, 5(%ebx)
	.loc 1 6787 0
	leal	7(%ebx), %eax
	movl	8(%edi), %esi
.LVL320:
	movl	%eax, %edi
	rep movsb
.LVL321:
	.loc 1 6788 0
	pushl	%eax
	pushl	%eax
	.loc 1 6793 0
	xorl	%esi, %esi
	.loc 1 6788 0
	movzwl	-26(%ebp), %eax
	pushl	%ebx
	pushl	%eax
	call	radio_tx_mem_enqueue
.LVL322:
	addl	$16, %esp
	testl	%eax, %eax
	je	.L158
	.loc 1 6790 0
	subl	$12, %esp
	pushl	%ebx
	call	radio_tx_mem_release
.LVL323:
	.loc 1 6791 0
	addl	$16, %esp
.LVL324:
.L169:
	movl	$-22, %esi
.L158:
	.loc 1 6794 0
	leal	-12(%ebp), %esp
	movl	%esi, %eax
	popl	%ebx
	.cfi_restore 3
	popl	%esi
	.cfi_restore 6
	popl	%edi
	.cfi_restore 7
	popl	%ebp
	.cfi_restore 5
	.cfi_def_cfa 4, 4
	ret
	.cfi_endproc
.LFE252:
	.size	hci_acl_handle, .-hci_acl_handle
	.section	.text.unlikely.hci_acl_handle
.LCOLDE9:
	.section	.text.hci_acl_handle
.LHOTE9:
	.section	.text.unlikely.hci_acl_encode,"ax",@progbits
.LCOLDB10:
	.section	.text.hci_acl_encode,"ax",@progbits
.LHOTB10:
	.globl	hci_acl_encode
	.type	hci_acl_encode, @function
hci_acl_encode:
.LFB269:
	.loc 1 7137 0
	.cfi_startproc
.LVL325:
	pushl	%ebp
	.cfi_def_cfa_offset 8
	.cfi_offset 5, -8
	movl	%esp, %ebp
	.cfi_def_cfa_register 5
	pushl	%edi
	pushl	%esi
	pushl	%ebx
	subl	$12, %esp
	.cfi_offset 7, -12
	.cfi_offset 6, -16
	.cfi_offset 3, -20
	.loc 1 7137 0
	movl	8(%ebp), %esi
.LVL326:
	.loc 1 7145 0
	movb	12(%esi), %al
	andl	$3, %eax
	decl	%eax
	cmpb	$1, %al
	ja	.L170
	.loc 1 7148 0
	movl	12(%ebp), %eax
	.loc 1 7144 0
	movl	8(%esi), %ebx
	.loc 1 7148 0
	leal	8(%eax), %edi
	pushl	%eax
.LVL327:
	pushl	%eax
	pushl	$4
	pushl	%edi
	call	net_buf_simple_add
.LVL328:
	.loc 1 7149 0
	movb	12(%esi), %dl
	popl	%ecx
	popl	%ecx
	andl	$3, %edx
	.loc 1 7150 0
	movl	%ebx, %ecx
	orb	$16, %bh
.LVL329:
	orb	$32, %ch
.LVL330:
	cmpb	$2, %dl
	cmove	%ecx, %ebx
.LVL331:
	.loc 1 7157 0
	addl	$15, %esi
.LVL332:
	.loc 1 7154 0
	movw	%bx, (%eax)
	.loc 1 7155 0
	movzbl	-2(%esi), %edx
	movw	%dx, 2(%eax)
	.loc 1 7156 0
	movzbl	-2(%esi), %eax
.LVL333:
	pushl	%eax
	pushl	%edi
	call	net_buf_simple_add
.LVL334:
	.loc 1 7157 0
	movzbl	-2(%esi), %ecx
	movl	%eax, %edi
	.loc 1 7158 0
	addl	$16, %esp
	.loc 1 7157 0
	rep movsb
.LVL335:
.L170:
	.loc 1 7163 0
	leal	-12(%ebp), %esp
	popl	%ebx
	.cfi_restore 3
	popl	%esi
	.cfi_restore 6
	popl	%edi
	.cfi_restore 7
	popl	%ebp
	.cfi_restore 5
	.cfi_def_cfa 4, 4
	ret
	.cfi_endproc
.LFE269:
	.size	hci_acl_encode, .-hci_acl_encode
	.section	.text.unlikely.hci_acl_encode
.LCOLDE10:
	.section	.text.hci_acl_encode
.LHOTE10:
	.section	.rodata
	.align 4
.LC0:
	.byte	0
	.byte	1
	.byte	3
	.byte	-1
	.byte	4
	.byte	-1
	.byte	2
	.section	.text.unlikely.hci_evt_encode,"ax",@progbits
.LCOLDB11:
	.section	.text.hci_evt_encode,"ax",@progbits
.LHOTB11:
	.globl	hci_evt_encode
	.type	hci_evt_encode, @function
hci_evt_encode:
.LFB270:
	.loc 1 7165 0
	.cfi_startproc
.LVL336:
	pushl	%ebp
	.cfi_def_cfa_offset 8
	.cfi_offset 5, -8
	movl	%esp, %ebp
	.cfi_def_cfa_register 5
	pushl	%edi
	pushl	%esi
	pushl	%ebx
	subl	$44, %esp
	.cfi_offset 7, -12
	.cfi_offset 6, -16
	.cfi_offset 3, -20
	.loc 1 7165 0
	movl	12(%ebp), %eax
	movl	8(%ebp), %ebx
	movl	%eax, -44(%ebp)
	movl	%gs:20, %eax
	movl	%eax, -28(%ebp)
	xorl	%eax, %eax
.LVL337:
	.loc 1 7168 0
	movl	4(%ebx), %eax
	cmpl	$1, %eax
	je	.L177
.LVL338:
.LBB287:
.LBB288:
	.loc 1 6956 0
	subl	$2, %eax
	.loc 1 6955 0
	movl	8(%ebx), %esi
.LVL339:
	.loc 1 6956 0
	cmpl	$6, %eax
	ja	.L176
	jmp	*.L180(,%eax,4)
	.section	.rodata.hci_evt_encode,"a",@progbits
	.align 4
	.align 4
.L180:
	.long	.L179
	.long	.L181
	.long	.L182
	.long	.L183
	.long	.L184
	.long	.L185
	.long	.L186
	.section	.text.hci_evt_encode
.L179:
.LVL340:
.LBB289:
.LBB290:
	.loc 1 6807 0
	testb	$32, event_mask+7
	.loc 1 6798 0
	leal	-35(%ebp), %edi
	movl	$.LC0, %esi
.LVL341:
	movl	$7, %ecx
	rep movsb
.LVL342:
	.loc 1 6807 0
	je	.L176
	.loc 1 6810 0
	testb	$2, le_event_mask
	je	.L176
	.loc 1 6813 0
	movb	12(%ebx), %al
	.loc 1 6816 0
	xorl	%esi, %esi
	.loc 1 6813 0
	andl	$15, %eax
	decb	%al
	je	.L188
	.loc 1 6814 0
	movb	13(%ebx), %al
	leal	-6(%eax), %esi
.LVL343:
.L188:
	.loc 1 6818 0
	movzbl	13(%ebx), %eax
	.loc 1 6833 0
	leal	11(%esi), %ecx
	movl	$2, %edx
	movzbl	%cl, %ecx
	.loc 1 6818 0
	movb	14(%ebx,%eax), %al
	negl	%eax
	movb	%al, -45(%ebp)
.LVL344:
	.loc 1 6833 0
	movl	-44(%ebp), %eax
.LVL345:
	call	meta_evt
.LVL346:
	.loc 1 6835 0
	movb	$1, (%eax)
.LVL347:
	.loc 1 6837 0
	movb	12(%ebx), %dl
	.loc 1 6843 0
	movl	%esi, %ecx
	.loc 1 6844 0
	leal	10(%eax), %edi
	leal	20(%ebx), %esi
.LVL348:
	.loc 1 6837 0
	andl	$15, %edx
	movb	-35(%ebp,%edx), %dl
	movb	%dl, 1(%eax)
	.loc 1 6839 0
	movb	12(%ebx), %dl
	shrb	$6, %dl
	andl	$1, %edx
	movb	%dl, 2(%eax)
	.loc 1 6840 0
	movl	14(%ebx), %edx
	movl	%edx, 3(%eax)
	movw	18(%ebx), %dx
	.loc 1 6843 0
	movb	%cl, 9(%eax)
	.loc 1 6840 0
	movw	%dx, 7(%eax)
	.loc 1 6844 0
	movzbl	%cl, %edx
	movl	%edx, %ecx
.LVL349:
	rep movsb
.LVL350:
	.loc 1 6846 0
	movb	-45(%ebp), %cl
	movb	%cl, 10(%eax,%edx)
.LVL351:
	jmp	.L176
.LVL352:
.L181:
.LBE290:
.LBE289:
.LBB291:
.LBB292:
	.loc 1 6854 0
	testb	$32, event_mask+7
	je	.L176
	testb	$1, le_event_mask
	je	.L176
	.loc 1 6859 0
	cmpb	$0, 15(%ebx)
	jne	.L189
	.loc 1 6860 0
	incl	conn_count
.L189:
	.loc 1 6862 0
	movl	-44(%ebp), %eax
	movl	$1, %edx
	movl	$18, %ecx
	call	meta_evt
.LVL353:
	.loc 1 6863 0
	movb	15(%ebx), %dl
	.loc 1 6864 0
	movw	%si, 1(%eax)
	.loc 1 6863 0
	movb	%dl, (%eax)
	.loc 1 6865 0
	movb	16(%ebx), %dl
	movb	%dl, 3(%eax)
	.loc 1 6866 0
	movb	17(%ebx), %dl
	movb	%dl, 4(%eax)
	.loc 1 6867 0
	movl	18(%ebx), %edx
	movl	%edx, 5(%eax)
	movw	22(%ebx), %dx
	movw	%dx, 9(%eax)
	.loc 1 6868 0
	movw	24(%ebx), %dx
	movw	%dx, 11(%eax)
	.loc 1 6869 0
	movw	26(%ebx), %dx
	movw	%dx, 13(%eax)
	.loc 1 6870 0
	movw	28(%ebx), %dx
	movw	%dx, 15(%eax)
	.loc 1 6871 0
	movb	30(%ebx), %dl
	movb	%dl, 17(%eax)
	jmp	.L176
.LVL354:
.L182:
.LBE292:
.LBE291:
.LBB293:
.LBB294:
	.loc 1 6877 0
	testb	$16, event_mask
	je	.L176
	.loc 1 6880 0
	movl	-44(%ebp), %eax
	movl	$5, %edx
	movl	$4, %ecx
	call	evt_create
.LVL355:
	.loc 1 6881 0
	movl	-44(%ebp), %eax
	pushl	%edi
	pushl	%edi
	pushl	$4
	addl	$8, %eax
	pushl	%eax
	call	net_buf_simple_add
.LVL356:
	.loc 1 6882 0
	movb	$0, (%eax)
	.loc 1 6883 0
	movw	%si, 1(%eax)
	.loc 1 6884 0
	movb	12(%ebx), %dl
	.loc 1 6885 0
	decl	conn_count
	.loc 1 6884 0
	movb	%dl, 3(%eax)
	jmp	.L264
.LVL357:
.L183:
.LBE294:
.LBE293:
.LBB295:
.LBB296:
	.loc 1 6892 0
	testb	$32, event_mask+7
	je	.L176
	testb	$4, le_event_mask
	je	.L176
.LVL358:
	.loc 1 6898 0
	movl	-44(%ebp), %eax
	movl	$3, %edx
	movl	$9, %ecx
	call	meta_evt
.LVL359:
	.loc 1 6899 0
	movb	15(%ebx), %dl
	.loc 1 6900 0
	movw	%si, 1(%eax)
	.loc 1 6899 0
	movb	%dl, (%eax)
	.loc 1 6901 0
	movw	16(%ebx), %dx
	movw	%dx, 3(%eax)
	.loc 1 6902 0
	movw	18(%ebx), %dx
	movw	%dx, 5(%eax)
	.loc 1 6903 0
	movw	20(%ebx), %dx
	movw	%dx, 7(%eax)
	jmp	.L176
.LVL360:
.L184:
.LBE296:
.LBE295:
.LBB297:
.LBB298:
	.loc 1 6909 0
	testb	$-128, event_mask+5
	je	.L176
	.loc 1 6912 0
	movl	-44(%ebp), %eax
	movl	$3, %ecx
	movl	$48, %edx
	call	evt_create
.LVL361:
	.loc 1 6913 0
	movl	-44(%ebp), %eax
	pushl	%ecx
	pushl	%ecx
	pushl	$3
	addl	$8, %eax
	pushl	%eax
	call	net_buf_simple_add
.LVL362:
	.loc 1 6914 0
	movb	$0, (%eax)
	.loc 1 6915 0
	movw	%si, 1(%eax)
.LVL363:
.L264:
	addl	$16, %esp
	jmp	.L176
.LVL364:
.L185:
.LBE298:
.LBE297:
.LBB299:
.LBB300:
	.loc 1 6922 0
	testb	$32, event_mask+7
	je	.L176
	testb	$8, le_event_mask+2
	je	.L176
.LVL365:
	.loc 1 6928 0
	movl	-44(%ebp), %eax
	movl	$20, %edx
	movl	$3, %ecx
	call	meta_evt
.LVL366:
	.loc 1 6929 0
	movw	%si, (%eax)
	.loc 1 6930 0
	movb	15(%ebx), %dl
	movb	%dl, 2(%eax)
	jmp	.L176
.LVL367:
.L186:
.LBE300:
.LBE299:
.LBB301:
.LBB302:
	.loc 1 6939 0
	testb	$32, event_mask+7
	je	.L176
	testb	$8, le_event_mask+1
	je	.L176
	.loc 1 6944 0
	movl	-44(%ebp), %eax
	movl	$5, %ecx
	movl	$12, %edx
	call	meta_evt
.LVL368:
	movl	%eax, %edi
.LVL369:
	.loc 1 6945 0
	movb	15(%ebx), %al
.LVL370:
	.loc 1 6947 0
	subl	$12, %esp
	.loc 1 6946 0
	movw	%si, 1(%edi)
	.loc 1 6945 0
	movb	%al, (%edi)
	.loc 1 6947 0
	movzbl	16(%ebx), %eax
	pushl	%eax
	call	find_lsb_set
.LVL371:
	movb	%al, 3(%edi)
	.loc 1 6948 0
	movzbl	17(%ebx), %eax
	movl	%eax, (%esp)
	call	find_lsb_set
.LVL372:
	movb	%al, 4(%edi)
	jmp	.L264
.LVL373:
.L177:
.LBE302:
.LBE301:
.LBE288:
.LBE287:
.LBB303:
.LBB304:
	.loc 1 7103 0
	movb	15(%ebx), %al
	movzwl	8(%ebx), %esi
.LVL374:
	subl	$3, %eax
	cmpb	$18, %al
	ja	.L176
	movzbl	%al, %eax
	jmp	*.L191(,%eax,4)
	.section	.rodata.hci_evt_encode
	.align 4
	.align 4
.L191:
	.long	.L190
	.long	.L176
	.long	.L176
	.long	.L192
	.long	.L193
	.long	.L176
	.long	.L194
	.long	.L176
	.long	.L176
	.long	.L195
	.long	.L196
	.long	.L176
	.long	.L197
	.long	.L176
	.long	.L176
	.long	.L176
	.long	.L176
	.long	.L198
	.long	.L198
	.section	.text.hci_evt_encode
.L190:
.LVL375:
.LBB305:
.LBB306:
	.loc 1 6987 0
	testb	$32, event_mask+7
	je	.L176
	testb	$16, le_event_mask
	je	.L176
	.loc 1 6991 0
	movl	-44(%ebp), %eax
	movl	$5, %edx
	movl	$12, %ecx
	call	meta_evt
.LVL376:
	.loc 1 6992 0
	movw	%si, (%eax)
	.loc 1 6993 0
	movl	16(%ebx), %esi
.LVL377:
	movl	20(%ebx), %edi
	movl	%esi, 2(%eax)
	movl	%edi, 6(%eax)
	.loc 1 6995 0
	movw	24(%ebx), %dx
	movw	%dx, 10(%eax)
	jmp	.L176
.LVL378:
.L192:
.LBE306:
.LBE305:
	.loc 1 7108 0
	movl	-28(%ebp), %eax
	xorl	%gs:20, %eax
	jne	.L267
	movzwl	%si, %edx
	movl	-44(%ebp), %ecx
	xorl	%eax, %eax
	jmp	.L265
.L194:
	.loc 1 7111 0
	movl	-28(%ebp), %eax
	xorl	%gs:20, %eax
	jne	.L267
	movl	-44(%ebp), %eax
	movzwl	%si, %ecx
.LBE304:
.LBE303:
	.loc 1 7167 0
	leal	12(%ebx), %edx
.LBB320:
.LBB317:
	.loc 1 7111 0
	movl	%eax, 8(%ebp)
.LVL379:
	xorl	%eax, %eax
	jmp	.L266
.LVL380:
.L195:
.LBB307:
.LBB308:
	.loc 1 7049 0
	testb	$8, event_mask+1
	je	.L176
	.loc 1 7052 0
	movl	-44(%ebp), %eax
	movl	$12, %edx
	movl	$8, %ecx
	call	evt_create
.LVL381:
	.loc 1 7053 0
	movl	-44(%ebp), %eax
	pushl	%edx
	pushl	%edx
	pushl	$8
	addl	$8, %eax
	pushl	%eax
	call	net_buf_simple_add
.LVL382:
	.loc 1 7055 0
	movb	$0, (%eax)
	.loc 1 7056 0
	movw	%si, 1(%eax)
	.loc 1 7057 0
	movb	16(%ebx), %dl
	movb	%dl, 3(%eax)
	.loc 1 7058 0
	movw	17(%ebx), %dx
	movw	%dx, 4(%eax)
	.loc 1 7059 0
	movw	19(%ebx), %dx
	movw	%dx, 6(%eax)
	jmp	.L264
.LVL383:
.L196:
.LBE308:
.LBE307:
	.loc 1 7117 0
	movl	-28(%ebp), %eax
	xorl	%gs:20, %eax
	jne	.L267
	movzbl	16(%ebx), %eax
	movl	-44(%ebp), %ecx
	movzwl	%si, %edx
.L265:
.LBE317:
.LBE320:
	.loc 1 7173 0
	leal	-12(%ebp), %esp
	popl	%ebx
	.cfi_remember_state
	.cfi_restore 3
.LVL384:
	popl	%esi
	.cfi_restore 6
.LVL385:
	popl	%edi
	.cfi_restore 7
	popl	%ebp
	.cfi_restore 5
	.cfi_def_cfa 4, 4
.LBB321:
.LBB318:
	.loc 1 7117 0
	jmp	encrypt_change
.LVL386:
.L197:
	.cfi_restore_state
.LBB309:
.LBB310:
	.loc 1 7065 0
	testb	$32, event_mask+7
	je	.L202
	testb	$32, le_event_mask
	jne	.L203
.L202:
	.loc 1 7067 0
	pushl	%eax
	pushl	%eax
	pushl	$0
	pushl	$0
	pushl	$0
	pushl	$26
	pushl	$2
	pushl	%esi
	call	ll_conn_update
.LVL387:
	addl	$32, %esp
	jmp	.L176
.L203:
	.loc 1 7071 0
	movl	-44(%ebp), %eax
	movl	$6, %edx
	movl	$10, %ecx
	call	meta_evt
.LVL388:
	.loc 1 7072 0
	movw	%si, (%eax)
	.loc 1 7074 0
	movw	16(%ebx), %dx
	.loc 1 7073 0
	movw	%dx, 2(%eax)
	.loc 1 7076 0
	movw	18(%ebx), %dx
	.loc 1 7075 0
	movw	%dx, 4(%eax)
	.loc 1 7077 0
	movw	20(%ebx), %dx
	movw	%dx, 6(%eax)
	.loc 1 7078 0
	movw	22(%ebx), %dx
	jmp	.L263
.LVL389:
.L198:
.LBE310:
.LBE309:
.LBB311:
.LBB312:
	.loc 1 7084 0
	testb	$32, event_mask+7
	je	.L176
	testb	$64, le_event_mask
	je	.L176
	.loc 1 7088 0
	movl	-44(%ebp), %eax
	movl	$7, %edx
	movl	$10, %ecx
	call	meta_evt
.LVL390:
	.loc 1 7089 0
	movw	%si, (%eax)
	.loc 1 7091 0
	movw	20(%ebx), %dx
	.loc 1 7090 0
	movw	%dx, 2(%eax)
	.loc 1 7093 0
	movw	22(%ebx), %dx
	.loc 1 7092 0
	movw	%dx, 4(%eax)
	.loc 1 7095 0
	movw	16(%ebx), %dx
	.loc 1 7094 0
	movw	%dx, 6(%eax)
	.loc 1 7097 0
	movw	18(%ebx), %dx
.LVL391:
.L263:
	.loc 1 7096 0
	movw	%dx, 8(%eax)
	jmp	.L176
.L193:
.LVL392:
.LBE312:
.LBE311:
.LBB313:
.LBB314:
	.loc 1 7033 0
	cmpb	$14, 16(%ebx)
	jne	.L176
	.loc 1 7035 0
	movl	-28(%ebp), %eax
	xorl	%gs:20, %eax
	jne	.L267
	movl	-44(%ebp), %eax
	movzwl	%si, %ecx
	xorl	%edx, %edx
	movl	%eax, 8(%ebp)
.LVL393:
	movl	$26, %eax
.LVL394:
.L266:
.LBE314:
.LBE313:
.LBE318:
.LBE321:
	.loc 1 7173 0
	leal	-12(%ebp), %esp
	popl	%ebx
	.cfi_remember_state
	.cfi_restore 3
.LVL395:
	popl	%esi
	.cfi_restore 6
.LVL396:
	popl	%edi
	.cfi_restore 7
	popl	%ebp
	.cfi_restore 5
	.cfi_def_cfa 4, 4
.LBB322:
.LBB319:
.LBB316:
.LBB315:
	.loc 1 7035 0
	jmp	le_remote_feat_complete
.LVL397:
.L176:
	.cfi_restore_state
.LBE315:
.LBE316:
.LBE319:
.LBE322:
	.loc 1 7173 0
	movl	-28(%ebp), %eax
	xorl	%gs:20, %eax
	je	.L206
.L267:
	call	__stack_chk_fail
.LVL398:
.L206:
	leal	-12(%ebp), %esp
	popl	%ebx
	.cfi_restore 3
.LVL399:
	popl	%esi
	.cfi_restore 6
	popl	%edi
	.cfi_restore 7
	popl	%ebp
	.cfi_restore 5
	.cfi_def_cfa 4, 4
	ret
	.cfi_endproc
.LFE270:
	.size	hci_evt_encode, .-hci_evt_encode
	.section	.text.unlikely.hci_evt_encode
.LCOLDE11:
	.section	.text.hci_evt_encode
.LHOTE11:
	.section	.text.unlikely.hci_num_cmplt_encode,"ax",@progbits
.LCOLDB12:
	.section	.text.hci_num_cmplt_encode,"ax",@progbits
.LHOTB12:
	.globl	hci_num_cmplt_encode
	.type	hci_num_cmplt_encode, @function
hci_num_cmplt_encode:
.LFB271:
	.loc 1 7175 0
	.cfi_startproc
.LVL400:
	pushl	%ebp
	.cfi_def_cfa_offset 8
	.cfi_offset 5, -8
	.loc 1 7182 0
	movl	$5, %ecx
	movl	$19, %edx
	.loc 1 7175 0
	movl	%esp, %ebp
	.cfi_def_cfa_register 5
	pushl	%esi
	pushl	%ebx
	.cfi_offset 6, -12
	.cfi_offset 3, -16
	.loc 1 7182 0
	movl	8(%ebp), %eax
	.loc 1 7175 0
	movl	12(%ebp), %esi
	movl	16(%ebp), %ebx
	.loc 1 7182 0
	call	evt_create
.LVL401:
	.loc 1 7183 0
	pushl	%eax
	pushl	%eax
	.loc 1 7187 0
	movzbl	%bl, %ebx
	.loc 1 7183 0
	movl	8(%ebp), %eax
	pushl	$5
	addl	$8, %eax
	pushl	%eax
	call	net_buf_simple_add
.LVL402:
	.loc 1 7188 0
	addl	$16, %esp
	.loc 1 7184 0
	movb	$1, (%eax)
.LVL403:
	.loc 1 7186 0
	movw	%si, 1(%eax)
	.loc 1 7187 0
	movw	%bx, 3(%eax)
	.loc 1 7188 0
	leal	-8(%ebp), %esp
	popl	%ebx
	.cfi_restore 3
	popl	%esi
	.cfi_restore 6
	popl	%ebp
	.cfi_restore 5
	.cfi_def_cfa 4, 4
	ret
	.cfi_endproc
.LFE271:
	.size	hci_num_cmplt_encode, .-hci_num_cmplt_encode
	.section	.text.unlikely.hci_num_cmplt_encode
.LCOLDE12:
	.section	.text.hci_num_cmplt_encode
.LHOTE12:
	.section	.text.unlikely.hci_get_class,"ax",@progbits
.LCOLDB13:
	.section	.text.hci_get_class,"ax",@progbits
.LHOTB13:
	.globl	hci_get_class
	.type	hci_get_class, @function
hci_get_class:
.LFB272:
	.loc 1 7190 0
	.cfi_startproc
.LVL404:
	pushl	%ebp
	.cfi_def_cfa_offset 8
	.cfi_offset 5, -8
	movl	%esp, %ebp
	.cfi_def_cfa_register 5
	.loc 1 7190 0
	movl	8(%ebp), %eax
.LVL405:
	.loc 1 7193 0
	movl	4(%eax), %edx
	cmpl	$1, %edx
	je	.L271
	leal	-2(%edx), %ecx
	movb	$-1, %al
	cmpl	$6, %ecx
	ja	.L272
	movb	CSWTCH.159-2(%edx), %al
	jmp	.L272
.LVL406:
.L271:
	.loc 1 7208 0
	movb	12(%eax), %al
.LVL407:
	andl	$3, %eax
	.loc 1 7211 0
	cmpb	$3, %al
	setne	%al
	addl	$2, %eax
.L272:
	.loc 1 7213 0
	popl	%ebp
	.cfi_restore 5
	.cfi_def_cfa 4, 4
	ret
	.cfi_endproc
.LFE272:
	.size	hci_get_class, .-hci_get_class
	.section	.text.unlikely.hci_get_class
.LCOLDE13:
	.section	.text.hci_get_class
.LHOTE13:
	.section	.text.unlikely.hci_init,"ax",@progbits
.LCOLDB14:
	.section	.text.hci_init,"ax",@progbits
.LHOTB14:
	.globl	hci_init
	.type	hci_init, @function
hci_init:
.LFB273:
	.loc 1 7215 0
	.cfi_startproc
.LVL408:
	pushl	%ebp
	.cfi_def_cfa_offset 8
	.cfi_offset 5, -8
.LBB325:
.LBB326:
	.loc 1 6095 0
	movl	$-1, event_mask
	movl	$8191, event_mask+4
	.loc 1 6097 0
	movl	$31, le_event_mask
.LBE326:
.LBE325:
	.loc 1 7215 0
	movl	%esp, %ebp
	.cfi_def_cfa_register 5
.LBB328:
.LBB327:
	.loc 1 6097 0
	movl	$0, le_event_mask+4
.LVL409:
.LBE327:
.LBE328:
	.loc 1 7221 0
	popl	%ebp
	.cfi_restore 5
	.cfi_def_cfa 4, 4
	ret
	.cfi_endproc
.LFE273:
	.size	hci_init, .-hci_init
	.section	.text.unlikely.hci_init
.LCOLDE14:
	.section	.text.hci_init
.LHOTE14:
	.section	.rodata.CSWTCH.159,"a",@progbits
	.align 4
	.type	CSWTCH.159, @object
	.size	CSWTCH.159, 7
CSWTCH.159:
	.byte	1
	.byte	0
	.byte	2
	.byte	2
	.byte	2
	.byte	2
	.byte	2
	.section	.data.le_event_mask,"aw",@progbits
	.align 8
	.type	le_event_mask, @object
	.size	le_event_mask, 8
le_event_mask:
	.long	31
	.long	0
	.section	.data.event_mask,"aw",@progbits
	.align 8
	.type	event_mask, @object
	.size	event_mask, 8
event_mask:
	.long	-1
	.long	8191
	.section	.bss.conn_count,"aw",@nobits
	.align 4
	.type	conn_count, @object
	.size	conn_count, 4
conn_count:
	.zero	4
	.section	.bss._opcode,"aw",@nobits
	.align 2
	.type	_opcode, @object
	.size	_opcode, 2
_opcode:
	.zero	2
	.text
.Letext0:
	.section	.text.unlikely.evt_create
.Letext_cold0:
	.section	.note.GNU-stack,"",@progbits
