	.file	"hci_driver.c"
	.text
.Ltext0:
	.section	.text.unlikely._hci_driver_init,"ax",@progbits
.LCOLDB0:
	.section	.text._hci_driver_init,"ax",@progbits
.LHOTB0:
	.section	.text.unlikely._hci_driver_init
.Ltext_cold0:
	.section	.text._hci_driver_init
	.type	_hci_driver_init, @function
_hci_driver_init:
.LFB216:
	.file 1 "src/hci_driver.c"
	.loc 1 6478 0
	.cfi_startproc
.LVL0:
	pushl	%ebp
	.cfi_def_cfa_offset 8
	.cfi_offset 5, -8
	movl	%esp, %ebp
	.cfi_def_cfa_register 5
	subl	$20, %esp
	.loc 1 6480 0
	pushl	$drv
	call	bt_hci_driver_register
.LVL1:
	.loc 1 6482 0
	xorl	%eax, %eax
	leave
	.cfi_restore 5
	.cfi_def_cfa 4, 4
	ret
	.cfi_endproc
.LFE216:
	.size	_hci_driver_init, .-_hci_driver_init
	.section	.text.unlikely._hci_driver_init
.LCOLDE0:
	.section	.text._hci_driver_init
.LHOTE0:
	.section	.text.unlikely.hci_driver_send,"ax",@progbits
.LCOLDB1:
	.section	.text.hci_driver_send,"ax",@progbits
.LHOTB1:
	.type	hci_driver_send, @function
hci_driver_send:
.LFB214:
	.loc 1 6405 0
	.cfi_startproc
.LVL2:
	pushl	%ebp
	.cfi_def_cfa_offset 8
	.cfi_offset 5, -8
	movl	%esp, %ebp
	.cfi_def_cfa_register 5
	pushl	%esi
	pushl	%ebx
	subl	$16, %esp
	.cfi_offset 6, -12
	.cfi_offset 3, -16
	.loc 1 6405 0
	movl	8(%ebp), %esi
	movl	%gs:20, %eax
	movl	%eax, -12(%ebp)
	xorl	%eax, %eax
	.loc 1 6411 0
	movl	$-22, %eax
	.loc 1 6409 0
	cmpw	$0, 12(%esi)
	je	.L4
.LBB10:
.LBB11:
	.loc 1 3231 0
	movzwl	14(%esi), %eax
	leal	19(%esi,%eax), %eax
	andl	$-4, %eax
.LBE11:
.LBE10:
	.loc 1 6414 0
	movb	(%eax), %al
	testb	%al, %al
	je	.L5
	cmpb	$2, %al
	jne	.L21
.LVL3:
.LBB12:
.LBB13:
	.loc 1 6397 0
	pushl	%eax
	pushl	%eax
	leal	-16(%ebp), %eax
	pushl	%eax
	pushl	%esi
	call	hci_acl_handle
.LVL4:
	movl	%eax, %ebx
.LVL5:
	.loc 1 6398 0
	movl	-16(%ebp), %eax
.LVL6:
	addl	$16, %esp
	testl	%eax, %eax
	je	.L7
	.loc 1 6400 0
	subl	$12, %esp
	pushl	%eax
	call	bt_recv_prio
.LVL7:
	addl	$16, %esp
.L7:
.LVL8:
.LBE13:
.LBE12:
	.loc 1 6425 0
	testl	%ebx, %ebx
	movl	%ebx, %eax
	jne	.L4
.LVL9:
	jmp	.L8
.LVL10:
.L5:
.LBB14:
.LBB15:
	.loc 1 6386 0
	subl	$12, %esp
	pushl	%esi
	call	hci_cmd_handle
.LVL11:
	.loc 1 6387 0
	addl	$16, %esp
	testl	%eax, %eax
	je	.L8
	.loc 1 6389 0
	subl	$12, %esp
	pushl	%eax
	call	bt_recv_prio
.LVL12:
	addl	$16, %esp
	jmp	.L8
.LVL13:
.L21:
.LBE15:
.LBE14:
	.loc 1 6423 0
	movl	$-22, %eax
.L4:
	.loc 1 6433 0
	movl	-12(%ebp), %edx
	xorl	%gs:20, %edx
	je	.L9
	call	__stack_chk_fail
.LVL14:
.L8:
	.loc 1 6426 0
	subl	$12, %esp
	pushl	%esi
	call	net_buf_unref
.LVL15:
	addl	$16, %esp
	xorl	%eax, %eax
	jmp	.L4
.L9:
	.loc 1 6433 0
	leal	-8(%ebp), %esp
	popl	%ebx
	.cfi_restore 3
	popl	%esi
	.cfi_restore 6
	popl	%ebp
	.cfi_restore 5
	.cfi_def_cfa 4, 4
	ret
	.cfi_endproc
.LFE214:
	.size	hci_driver_send, .-hci_driver_send
	.section	.text.unlikely.hci_driver_send
.LCOLDE1:
	.section	.text.hci_driver_send
.LHOTE1:
	.section	.text.unlikely.recv_thread,"ax",@progbits
.LCOLDB2:
	.section	.text.recv_thread,"ax",@progbits
.LHOTB2:
	.type	recv_thread, @function
recv_thread:
.LFB211:
	.loc 1 6358 0
	.cfi_startproc
.LVL16:
	pushl	%ebp
	.cfi_def_cfa_offset 8
	.cfi_offset 5, -8
	movl	%esp, %ebp
	.cfi_def_cfa_register 5
	pushl	%esi
	pushl	%ebx
	.cfi_offset 6, -12
	.cfi_offset 3, -16
.LBB21:
.LBB22:
.LBB23:
.LBB24:
.LBB25:
	.loc 1 6345 0
	leal	-16(%ebp), %esi
.LBE25:
.LBE24:
.LBE23:
.LBE22:
.LBE21:
	.loc 1 6358 0
	subl	$16, %esp
	.loc 1 6358 0
	movl	%gs:20, %eax
	movl	%eax, -12(%ebp)
	xorl	%eax, %eax
.L35:
.LVL17:
.LBB30:
	.loc 1 6367 0
	pushl	%eax
	pushl	%eax
	pushl	$-1
	pushl	$recv_fifo
	call	k_queue_get
.LVL18:
	.loc 1 6369 0
	addl	$16, %esp
	testl	%eax, %eax
	.loc 1 6367 0
	movl	%eax, %ebx
.LVL19:
	.loc 1 6369 0
	je	.L27
.LVL20:
.LBB29:
.LBB28:
	.loc 1 6350 0
	subl	$12, %esp
	pushl	%eax
	call	hci_get_class
.LVL21:
.LBB27:
.LBB26:
	.loc 1 6322 0
	addl	$16, %esp
	testb	%al, %al
	movl	%ebx, -16(%ebp)
.LVL22:
	js	.L37
	cmpb	$2, %al
	jle	.L29
	cmpb	$3, %al
	jne	.L37
	.loc 1 6336 0
	pushl	%edx
	pushl	%edx
	pushl	$-1
	pushl	$3
	call	bt_buf_get_rx
.LVL23:
	.loc 1 6337 0
	popl	%ecx
	.loc 1 6336 0
	movl	%eax, %ebx
.LVL24:
	.loc 1 6337 0
	popl	%eax
.LVL25:
	pushl	%ebx
	pushl	-16(%ebp)
	call	hci_acl_encode
.LVL26:
	jmp	.L46
.LVL27:
.L29:
	.loc 1 6326 0
	decb	%al
.LVL28:
	jne	.L31
	.loc 1 6327 0
	pushl	%eax
	pushl	%eax
	pushl	$0
	jmp	.L45
.L31:
	.loc 1 6329 0
	pushl	%eax
	pushl	%eax
	pushl	$-1
.L45:
	pushl	$1
	call	bt_buf_get_rx
.LVL29:
	addl	$16, %esp
	.loc 1 6331 0
	testl	%eax, %eax
	.loc 1 6329 0
	movl	%eax, %ebx
.LVL30:
	.loc 1 6331 0
	je	.L28
.LVL31:
	.loc 1 6332 0
	pushl	%eax
	pushl	%eax
	pushl	%ebx
	pushl	-16(%ebp)
	call	hci_evt_encode
.LVL32:
.L46:
	.loc 1 6337 0
	addl	$16, %esp
	jmp	.L28
.LVL33:
.L37:
	.loc 1 6319 0
	xorl	%ebx, %ebx
.LVL34:
.L28:
	.loc 1 6343 0
	pushl	%eax
	pushl	%eax
	movl	-16(%ebp), %eax
	pushl	$0
	movzwl	8(%eax), %eax
	pushl	%eax
	call	radio_rx_fc_set
.LVL35:
	.loc 1 6344 0
	movl	-16(%ebp), %eax
	movl	$0, (%eax)
	.loc 1 6345 0
	movl	%esi, (%esp)
	call	radio_rx_mem_release
.LVL36:
.LBE26:
.LBE27:
.LBE28:
.LBE29:
	.loc 1 6372 0
	addl	$16, %esp
	testl	%ebx, %ebx
	je	.L27
	.loc 1 6373 0
	cmpw	$0, 12(%ebx)
	je	.L34
	.loc 1 6375 0
	subl	$12, %esp
	pushl	%ebx
	call	bt_recv
.LVL37:
	jmp	.L47
.L34:
	.loc 1 6377 0
	subl	$12, %esp
	pushl	%ebx
	call	net_buf_unref
.LVL38:
.L47:
	addl	$16, %esp
.LVL39:
.L27:
	.loc 1 6380 0
	call	k_yield
.LVL40:
.LBE30:
	.loc 1 6381 0
	jmp	.L35
	.cfi_endproc
.LFE211:
	.size	recv_thread, .-recv_thread
	.section	.text.unlikely.recv_thread
.LCOLDE2:
	.section	.text.recv_thread
.LHOTE2:
	.section	.text.unlikely.prio_recv_thread,"ax",@progbits
.LCOLDB3:
	.section	.text.prio_recv_thread,"ax",@progbits
.LHOTB3:
	.type	prio_recv_thread, @function
prio_recv_thread:
.LFB208:
	.loc 1 6292 0
	.cfi_startproc
.LVL41:
	pushl	%ebp
	.cfi_def_cfa_offset 8
	.cfi_offset 5, -8
	movl	%esp, %ebp
	.cfi_def_cfa_register 5
	pushl	%edi
	pushl	%esi
	pushl	%ebx
	.cfi_offset 7, -12
	.cfi_offset 6, -16
	.cfi_offset 3, -20
.LBB31:
	.loc 1 6297 0
	leal	-34(%ebp), %esi
	leal	-32(%ebp), %edi
.LBE31:
	.loc 1 6292 0
	subl	$44, %esp
	.loc 1 6292 0
	movl	%gs:20, %eax
	movl	%eax, -28(%ebp)
	xorl	%eax, %eax
.L50:
.LBB33:
	.loc 1 6297 0
	pushl	%ecx
	pushl	%ecx
	pushl	%esi
	pushl	%edi
	call	radio_rx_get
.LVL42:
	movzbl	%al, %ebx
.LVL43:
	addl	$16, %esp
	testb	%bl, %bl
	je	.L57
.LBB32:
	.loc 1 6299 0
	pushl	%eax
	pushl	%eax
	pushl	$-1
	pushl	$1
	call	bt_buf_get_rx
.LVL44:
	.loc 1 6300 0
	movzwl	-34(%ebp), %edx
	addl	$12, %esp
	movl	%eax, -44(%ebp)
	pushl	%ebx
	pushl	%edx
	pushl	%eax
	call	hci_num_cmplt_encode
.LVL45:
	.loc 1 6302 0
	movl	-44(%ebp), %eax
	movl	%eax, (%esp)
	call	bt_recv_prio
.LVL46:
	.loc 1 6303 0
	call	k_yield
.LVL47:
.L56:
	addl	$16, %esp
	jmp	.L50
.L57:
.LBE32:
	.loc 1 6305 0
	cmpl	$0, -32(%ebp)
	je	.L52
	.loc 1 6306 0
	call	radio_rx_dequeue
.LVL48:
	.loc 1 6308 0
	pushl	%edx
	pushl	%edx
	pushl	-32(%ebp)
	pushl	$recv_fifo
	call	k_queue_append
.LVL49:
	jmp	.L56
.L52:
	.loc 1 6312 0
	pushl	%eax
	pushl	%eax
	pushl	$-1
	pushl	$sem_prio_recv
	call	k_sem_take
.LVL50:
	jmp	.L56
.LBE33:
	.cfi_endproc
.LFE208:
	.size	prio_recv_thread, .-prio_recv_thread
	.section	.text.unlikely.prio_recv_thread
.LCOLDE3:
	.section	.text.prio_recv_thread
.LHOTE3:
	.section	.text.unlikely.hci_driver_open,"ax",@progbits
.LCOLDB4:
	.section	.text.hci_driver_open,"ax",@progbits
.LHOTB4:
	.type	hci_driver_open, @function
hci_driver_open:
.LFB215:
	.loc 1 6435 0
	.cfi_startproc
	pushl	%ebp
	.cfi_def_cfa_offset 8
	.cfi_offset 5, -8
	movl	%esp, %ebp
	.cfi_def_cfa_register 5
	pushl	%ebx
	subl	$8, %esp
	.cfi_offset 3, -12
	.loc 1 6438 0
	pushl	$-1
	pushl	$0
	pushl	$sem_prio_recv
	call	k_sem_init
.LVL51:
	.loc 1 6439 0
	movl	$sem_prio_recv, (%esp)
	call	ll_init
.LVL52:
	.loc 1 6440 0
	addl	$16, %esp
	testl	%eax, %eax
	.loc 1 6439 0
	movl	%eax, %ebx
.LVL53:
	.loc 1 6440 0
	jne	.L59
.LBB36:
.LBB37:
	.loc 1 6444 0
	subl	$12, %esp
	pushl	$0
	call	hci_init
.LVL54:
	.loc 1 6447 0
	movl	$recv_fifo, (%esp)
	call	k_queue_init
.LVL55:
	.loc 1 6448 0
	popl	%eax
	popl	%edx
	pushl	$0
	pushl	$0
	pushl	$19
	pushl	$0
	pushl	$0
	pushl	$0
	pushl	$prio_recv_thread
	pushl	$624
	pushl	$prio_recv_thread_stack
	pushl	$prio_recv_thread_data
	call	k_thread_create
.LVL56:
	.loc 1 6458 0
	addl	$40, %esp
	pushl	$0
	pushl	$0
	pushl	$21
	pushl	$0
	pushl	$0
	pushl	$0
	pushl	$recv_thread
	pushl	$2048
	pushl	$recv_thread_stack
	pushl	$recv_thread_data
	call	k_thread_create
.LVL57:
	addl	$48, %esp
.L59:
.LBE37:
.LBE36:
	.loc 1 6470 0
	movl	%ebx, %eax
	movl	-4(%ebp), %ebx
.LVL58:
	leave
	.cfi_restore 5
	.cfi_restore 3
	.cfi_def_cfa 4, 4
	ret
	.cfi_endproc
.LFE215:
	.size	hci_driver_open, .-hci_driver_open
	.section	.text.unlikely.hci_driver_open
.LCOLDE4:
	.section	.text.hci_driver_open
.LHOTE4:
	.section	.text.unlikely.hci_driver_init,"ax",@progbits
.LCOLDB5:
	.section	.text.hci_driver_init,"ax",@progbits
.LHOTB5:
	.globl	hci_driver_init
	.type	hci_driver_init, @function
hci_driver_init:
.LFB217:
	.loc 1 6484 0
	.cfi_startproc
	pushl	%ebp
	.cfi_def_cfa_offset 8
	.cfi_offset 5, -8
	movl	%esp, %ebp
	.cfi_def_cfa_register 5
	subl	$20, %esp
	.loc 1 6485 0
	pushl	$drv
	call	bt_hci_driver_register
.LVL59:
	.loc 1 6487 0
	xorl	%eax, %eax
	leave
	.cfi_restore 5
	.cfi_def_cfa 4, 4
	ret
	.cfi_endproc
.LFE217:
	.size	hci_driver_init, .-hci_driver_init
	.section	.text.unlikely.hci_driver_init
.LCOLDE5:
	.section	.text.hci_driver_init
.LHOTE5:
	.section	.init_POST_KERNEL0,"aw",@progbits
	.align 4
	.type	__device_sys_init__hci_driver_init0, @object
	.size	__device_sys_init__hci_driver_init0, 12
__device_sys_init__hci_driver_init0:
	.long	__config_sys_init__hci_driver_init0
	.long	0
	.long	0
	.section	.rodata.str1.1,"aMS",@progbits,1
.LC6:
	.string	""
	.section	.devconfig.init,"aw",@progbits
	.align 4
	.type	__config_sys_init__hci_driver_init0, @object
	.size	__config_sys_init__hci_driver_init0, 16
__config_sys_init__hci_driver_init0:
	.long	.LC6
	.long	_hci_driver_init
	.long	device_pm_control_nop
	.long	0
	.section	.rodata.str1.1
.LC7:
	.string	"Controller"
	.section	.rodata.drv,"a",@progbits
	.align 4
	.type	drv, @object
	.size	drv, 16
drv:
	.long	.LC7
	.long	0
	.long	hci_driver_open
	.long	hci_driver_send
	.section	.bss.recv_thread_stack,"aw",@nobits
	.align 32
	.type	recv_thread_stack, @object
	.size	recv_thread_stack, 2048
recv_thread_stack:
	.zero	2048
	.globl	recv_thread_data
	.section	.bss.recv_thread_data,"aw",@nobits
	.align 4
	.type	recv_thread_data, @object
	.size	recv_thread_data, 4
recv_thread_data:
	.zero	4
	.section	.bss.prio_recv_thread_stack,"aw",@nobits
	.align 32
	.type	prio_recv_thread_stack, @object
	.size	prio_recv_thread_stack, 624
prio_recv_thread_stack:
	.zero	624
	.globl	prio_recv_thread_data
	.section	.bss.prio_recv_thread_data,"aw",@nobits
	.align 4
	.type	prio_recv_thread_data, @object
	.size	prio_recv_thread_data, 4
prio_recv_thread_data:
	.zero	4
	.section	._k_queue.static.recv_fifo,"aw",@progbits
	.align 4
	.type	recv_fifo, @object
	.size	recv_fifo, 12
recv_fifo:
	.zero	12
	.section	._k_sem.static.sem_prio_recv,"aw",@progbits
	.align 4
	.type	sem_prio_recv, @object
	.size	sem_prio_recv, 12
sem_prio_recv:
	.zero	12
	.text
.Letext0:
	.section	.text.unlikely._hci_driver_init
.Letext_cold0:
	.section	.note.GNU-stack,"",@progbits
