	.file	"hci_core.c"
	.text
.Ltext0:
	.section	.text.unlikely.net_buf_user_data,"ax",@progbits
.LCOLDB1:
	.section	.text.net_buf_user_data,"ax",@progbits
.LHOTB1:
	.section	.text.unlikely.net_buf_user_data
.Ltext_cold0:
	.section	.text.net_buf_user_data
	.type	net_buf_user_data, @function
net_buf_user_data:
.LFB64:
	.file 1 "src/hci_core.c"
	.loc 1 1422 0
	.cfi_startproc
.LVL0:
	pushl	%ebp
	.cfi_def_cfa_offset 8
	.cfi_offset 5, -8
	.loc 1 1423 0
	movzwl	14(%eax), %edx
	.loc 1 1422 0
	movl	%esp, %ebp
	.cfi_def_cfa_register 5
	.loc 1 1424 0
	popl	%ebp
	.cfi_restore 5
	.cfi_def_cfa 4, 4
	.loc 1 1423 0
	leal	19(%eax,%edx), %eax
.LVL1:
	andl	$-4, %eax
	.loc 1 1424 0
	ret
	.cfi_endproc
.LFE64:
	.size	net_buf_user_data, .-net_buf_user_data
	.section	.text.unlikely.net_buf_user_data
.LCOLDE1:
	.section	.text.net_buf_user_data
.LHOTE1:
	.section	.text.unlikely.bt_addr_le_copy,"ax",@progbits
.LCOLDB2:
	.section	.text.bt_addr_le_copy,"ax",@progbits
.LHOTB2:
	.type	bt_addr_le_copy, @function
bt_addr_le_copy:
.LFB69:
	.loc 1 1458 0
	.cfi_startproc
.LVL2:
	pushl	%ebp
	.cfi_def_cfa_offset 8
	.cfi_offset 5, -8
	.loc 1 1459 0
	movl	$7, %ecx
	.loc 1 1458 0
	movl	%esp, %ebp
	.cfi_def_cfa_register 5
	pushl	%edi
	.cfi_offset 7, -12
	.loc 1 1459 0
	movl	%eax, %edi
	.loc 1 1458 0
	pushl	%esi
	.cfi_offset 6, -16
	.loc 1 1459 0
	movl	%edx, %esi
	rep movsb
	.loc 1 1460 0
	popl	%esi
	.cfi_restore 6
	popl	%edi
	.cfi_restore 7
	popl	%ebp
	.cfi_restore 5
	.cfi_def_cfa 4, 4
	ret
	.cfi_endproc
.LFE69:
	.size	bt_addr_le_copy, .-bt_addr_le_copy
	.section	.text.unlikely.bt_addr_le_copy
.LCOLDE2:
	.section	.text.bt_addr_le_copy
.LHOTE2:
	.section	.text.unlikely.atomic_test_bit,"ax",@progbits
.LCOLDB3:
	.section	.text.atomic_test_bit,"ax",@progbits
.LHOTB3:
	.type	atomic_test_bit, @function
atomic_test_bit:
.LFB37:
	.loc 1 849 0
	.cfi_startproc
.LVL3:
	pushl	%ebp
	.cfi_def_cfa_offset 8
	.cfi_offset 5, -8
	movl	%esp, %ebp
	.cfi_def_cfa_register 5
	pushl	%ebx
	.cfi_offset 3, -12
	movl	%edx, %ebx
	.loc 1 850 0
	shrl	$5, %edx
.LVL4:
	leal	(%eax,%edx,4), %eax
.LVL5:
	.loc 1 849 0
	subl	$16, %esp
	.loc 1 850 0
	pushl	%eax
	call	atomic_get
.LVL6:
	.loc 1 851 0
	movl	%ebx, %ecx
	.loc 1 852 0
	movl	-4(%ebp), %ebx
.LVL7:
	.loc 1 851 0
	sarl	%cl, %eax
.LVL8:
	.loc 1 852 0
	leave
	.cfi_restore 5
	.cfi_restore 3
	.cfi_def_cfa 4, 4
	.loc 1 851 0
	andl	$1, %eax
	.loc 1 852 0
	ret
	.cfi_endproc
.LFE37:
	.size	atomic_test_bit, .-atomic_test_bit
	.section	.text.unlikely.atomic_test_bit
.LCOLDE3:
	.section	.text.atomic_test_bit
.LHOTE3:
	.section	.text.unlikely.atomic_test_and_clear_bit,"ax",@progbits
.LCOLDB4:
	.section	.text.atomic_test_and_clear_bit,"ax",@progbits
.LHOTB4:
	.type	atomic_test_and_clear_bit, @function
atomic_test_and_clear_bit:
.LFB38:
	.loc 1 854 0
	.cfi_startproc
.LVL9:
	pushl	%ebp
	.cfi_def_cfa_offset 8
	.cfi_offset 5, -8
	.loc 1 855 0
	movl	%edx, %ecx
	.loc 1 857 0
	shrl	$5, %edx
.LVL10:
	leal	(%eax,%edx,4), %eax
.LVL11:
	.loc 1 854 0
	movl	%esp, %ebp
	.cfi_def_cfa_register 5
	pushl	%ebx
	.cfi_offset 3, -12
	.loc 1 855 0
	movl	$1, %ebx
	sall	%cl, %ebx
.LVL12:
	.loc 1 857 0
	movl	%ebx, %ecx
.LVL13:
	.loc 1 854 0
	subl	$12, %esp
	.loc 1 857 0
	notl	%ecx
	pushl	%ecx
	pushl	%eax
	call	atomic_and
.LVL14:
	.loc 1 858 0
	addl	$16, %esp
	testl	%eax, %ebx
	.loc 1 859 0
	movl	-4(%ebp), %ebx
.LVL15:
	.loc 1 858 0
	setne	%al
.LVL16:
	.loc 1 859 0
	leave
	.cfi_restore 5
	.cfi_restore 3
	.cfi_def_cfa 4, 4
	.loc 1 858 0
	movzbl	%al, %eax
	.loc 1 859 0
	ret
	.cfi_endproc
.LFE38:
	.size	atomic_test_and_clear_bit, .-atomic_test_and_clear_bit
	.section	.text.unlikely.atomic_test_and_clear_bit
.LCOLDE4:
	.section	.text.atomic_test_and_clear_bit
.LHOTE4:
	.section	.text.unlikely.update_conn_param,"ax",@progbits
.LCOLDB5:
	.section	.text.update_conn_param,"ax",@progbits
.LHOTB5:
	.type	update_conn_param, @function
update_conn_param:
.LFB94:
	.loc 1 4206 0
	.cfi_startproc
.LVL17:
	pushl	%ebp
	.cfi_def_cfa_offset 8
	.cfi_offset 5, -8
	movl	%esp, %ebp
	.cfi_def_cfa_register 5
	subl	$16, %esp
	.loc 1 4207 0
	cmpb	$1, 3(%eax)
	sbbl	%edx, %edx
	addl	$108, %eax
.LVL18:
	notl	%edx
	andl	$5000, %edx
	pushl	%edx
	pushl	%eax
	call	k_delayed_work_submit
.LVL19:
	.loc 1 4210 0
	addl	$16, %esp
	leave
	.cfi_restore 5
	.cfi_def_cfa 4, 4
	ret
	.cfi_endproc
.LFE94:
	.size	update_conn_param, .-update_conn_param
	.section	.text.unlikely.update_conn_param
.LCOLDE5:
	.section	.text.update_conn_param
.LHOTE5:
	.section	.text.unlikely.hci_cmd_done,"ax",@progbits
.LCOLDB6:
	.section	.text.hci_cmd_done,"ax",@progbits
.LHOTB6:
	.type	hci_cmd_done, @function
hci_cmd_done:
.LFB119:
	.loc 1 4958 0
	.cfi_startproc
.LVL20:
	pushl	%ebp
	.cfi_def_cfa_offset 8
	.cfi_offset 5, -8
	.loc 1 4960 0
	movzbl	6(%ecx), %eax
.LVL21:
	.loc 1 4958 0
	movl	%esp, %ebp
	.cfi_def_cfa_register 5
	pushl	%esi
	pushl	%ebx
	.cfi_offset 6, -12
	.cfi_offset 3, -16
	.loc 1 4958 0
	movl	%edx, %esi
	movl	%ecx, %ebx
	.loc 1 4960 0
	subl	$12, %esp
	pushl	%eax
	call	net_buf_pool_get
.LVL22:
	addl	$16, %esp
	cmpl	$hci_cmd_pool, %eax
	jne	.L13
.LVL23:
.LBB104:
.LBB105:
	.loc 1 4964 0
	movl	%ebx, %eax
	call	net_buf_user_data
.LVL24:
	.loc 1 4967 0
	cmpl	$0, 4(%eax)
	je	.L13
	.loc 1 4968 0
	movl	%esi, %edx
	movb	%dl, 1(%eax)
	.loc 1 4969 0
	movl	%ebx, %eax
	call	net_buf_user_data
.LVL25:
	subl	$12, %esp
	pushl	4(%eax)
	call	k_sem_give
.LVL26:
	addl	$16, %esp
.LVL27:
.L13:
.LBE105:
.LBE104:
	.loc 1 4971 0
	leal	-8(%ebp), %esp
	popl	%ebx
	.cfi_restore 3
.LVL28:
	popl	%esi
	.cfi_restore 6
	popl	%ebp
	.cfi_restore 5
	.cfi_def_cfa 4, 4
	ret
	.cfi_endproc
.LFE119:
	.size	hci_cmd_done, .-hci_cmd_done
	.section	.text.unlikely.hci_cmd_done
.LCOLDE6:
	.section	.text.hci_cmd_done
.LHOTE6:
	.section	.text.unlikely.update_sec_level.part.15,"ax",@progbits
.LCOLDB7:
	.section	.text.update_sec_level.part.15,"ax",@progbits
.LHOTB7:
	.type	update_sec_level.part.15, @function
update_sec_level.part.15:
.LFB190:
	.loc 1 4754 0
	.cfi_startproc
.LVL29:
	pushl	%ebp
	.cfi_def_cfa_offset 8
	.cfi_offset 5, -8
	movl	%esp, %ebp
	.cfi_def_cfa_register 5
	pushl	%ebx
	.cfi_offset 3, -12
	movl	%eax, %ebx
	pushl	%edx
	.loc 1 4760 0
	movl	104(%eax), %eax
.LVL30:
	testl	%eax, %eax
	je	.L18
	addl	$8, %eax
	xorl	%edx, %edx
	call	atomic_test_bit
.LVL31:
	testl	%eax, %eax
	je	.L18
	.loc 1 4762 0
	movl	104(%ebx), %eax
	movl	12(%eax), %eax
	andl	$32, %eax
	.loc 1 4763 0
	cmpw	$1, %ax
	sbbl	%eax, %eax
	addl	$4, %eax
	movb	%al, 8(%ebx)
	jmp	.L20
.L18:
	.loc 1 4768 0
	movb	$2, 8(%ebx)
.L20:
	.loc 1 4770 0
	movb	8(%ebx), %al
	cmpb	%al, 9(%ebx)
	jbe	.L17
	.loc 1 4772 0
	pushl	%eax
	pushl	%eax
	pushl	$5
	pushl	%ebx
	call	bt_conn_disconnect
.LVL32:
	addl	$16, %esp
.L17:
	.loc 1 4774 0
	movl	-4(%ebp), %ebx
.LVL33:
	leave
	.cfi_restore 5
	.cfi_restore 3
	.cfi_def_cfa 4, 4
	ret
	.cfi_endproc
.LFE190:
	.size	update_sec_level.part.15, .-update_sec_level.part.15
	.section	.text.unlikely.update_sec_level.part.15
.LCOLDE7:
	.section	.text.update_sec_level.part.15
.LHOTE7:
	.section	.text.unlikely.sys_put_le64,"ax",@progbits
.LCOLDB8:
	.section	.text.sys_put_le64,"ax",@progbits
.LHOTB8:
	.type	sys_put_le64, @function
sys_put_le64:
.LFB49:
	.loc 1 1267 0
	.cfi_startproc
.LVL34:
	pushl	%ebp
	.cfi_def_cfa_offset 8
	.cfi_offset 5, -8
.LBB118:
.LBB119:
.LBB120:
.LBB121:
	.loc 1 1258 0
	movb	%al, (%ecx)
.LBE121:
.LBE120:
.LBE119:
.LBE118:
.LBB133:
.LBB134:
.LBB135:
.LBB136:
	movb	%dl, 4(%ecx)
.LBE136:
.LBE135:
.LBE134:
.LBE133:
	.loc 1 1267 0
	movl	%esp, %ebp
	.cfi_def_cfa_register 5
	pushl	%ebx
	.cfi_offset 3, -12
.LBB149:
.LBB132:
.LBB125:
.LBB122:
	.loc 1 1259 0
	movl	%eax, %ebx
.LBE122:
.LBE125:
	.loc 1 1264 0
	shrl	$16, %eax
.LVL35:
.LBB126:
.LBB123:
	.loc 1 1259 0
	shrw	$8, %bx
.LVL36:
.LBE123:
.LBE126:
.LBB127:
.LBB128:
	.loc 1 1258 0
	movb	%al, 2(%ecx)
	.loc 1 1259 0
	shrw	$8, %ax
.LBE128:
.LBE127:
.LBB130:
.LBB124:
	movb	%bl, 1(%ecx)
.LVL37:
.LBE124:
.LBE130:
.LBB131:
.LBB129:
	movb	%al, 3(%ecx)
.LVL38:
.LBE129:
.LBE131:
.LBE132:
.LBE149:
.LBB150:
.LBB147:
.LBB140:
.LBB137:
	movl	%edx, %eax
.LBE137:
.LBE140:
	.loc 1 1264 0
	shrl	$16, %edx
.LVL39:
.LBB141:
.LBB138:
	.loc 1 1259 0
	shrw	$8, %ax
.LVL40:
.LBE138:
.LBE141:
.LBB142:
.LBB143:
	.loc 1 1258 0
	movb	%dl, 6(%ecx)
	.loc 1 1259 0
	shrw	$8, %dx
.LBE143:
.LBE142:
.LBE147:
.LBE150:
	.loc 1 1270 0
	popl	%ebx
	.cfi_restore 3
.LBB151:
.LBB148:
.LBB145:
.LBB139:
	.loc 1 1259 0
	movb	%al, 5(%ecx)
.LVL41:
.LBE139:
.LBE145:
.LBB146:
.LBB144:
	movb	%dl, 7(%ecx)
.LVL42:
.LBE144:
.LBE146:
.LBE148:
.LBE151:
	.loc 1 1270 0
	popl	%ebp
	.cfi_restore 5
	.cfi_def_cfa 4, 4
	ret
	.cfi_endproc
.LFE49:
	.size	sys_put_le64, .-sys_put_le64
	.section	.text.unlikely.sys_put_le64
.LCOLDE8:
	.section	.text.sys_put_le64
.LHOTE8:
	.section	.text.unlikely.bt_hci_cmd_create,"ax",@progbits
.LCOLDB9:
	.section	.text.bt_hci_cmd_create,"ax",@progbits
.LHOTB9:
	.globl	bt_hci_cmd_create
	.type	bt_hci_cmd_create, @function
bt_hci_cmd_create:
.LFB79:
	.loc 1 3825 0
	.cfi_startproc
.LVL43:
	pushl	%ebp
	.cfi_def_cfa_offset 8
	.cfi_offset 5, -8
	movl	%esp, %ebp
	.cfi_def_cfa_register 5
	pushl	%edi
	pushl	%esi
	pushl	%ebx
	subl	$20, %esp
	.cfi_offset 7, -12
	.cfi_offset 6, -16
	.cfi_offset 3, -20
	.loc 1 3825 0
	movl	8(%ebp), %esi
	movl	12(%ebp), %edi
	.loc 1 3829 0
	pushl	$-1
	pushl	$hci_cmd_pool
	call	net_buf_alloc
.LVL44:
	movl	%eax, %ebx
.LVL45:
	.loc 1 3832 0
	popl	%eax
.LVL46:
	popl	%edx
	pushl	$1
	pushl	%ebx
	call	net_buf_reserve
.LVL47:
	.loc 1 3833 0
	movl	%ebx, %eax
	call	net_buf_user_data
.LVL48:
	movb	$0, (%eax)
	.loc 1 3834 0
	movl	%ebx, %eax
	call	net_buf_user_data
.LVL49:
	movw	%si, 2(%eax)
	.loc 1 3835 0
	movl	%ebx, %eax
	call	net_buf_user_data
.LVL50:
	movl	$0, 4(%eax)
	.loc 1 3838 0
	popl	%ecx
	popl	%eax
	leal	8(%ebx), %eax
	pushl	$3
	pushl	%eax
	call	net_buf_simple_add
.LVL51:
	.loc 1 3840 0
	movl	%edi, %edx
	.loc 1 3839 0
	movw	%si, (%eax)
	.loc 1 3840 0
	movb	%dl, 2(%eax)
	.loc 1 3842 0
	leal	-12(%ebp), %esp
	movl	%ebx, %eax
.LVL52:
	popl	%ebx
	.cfi_restore 3
.LVL53:
	popl	%esi
	.cfi_restore 6
	popl	%edi
	.cfi_restore 7
	popl	%ebp
	.cfi_restore 5
	.cfi_def_cfa 4, 4
	ret
	.cfi_endproc
.LFE79:
	.size	bt_hci_cmd_create, .-bt_hci_cmd_create
	.section	.text.unlikely.bt_hci_cmd_create
.LCOLDE9:
	.section	.text.bt_hci_cmd_create
.LHOTE9:
	.section	.text.unlikely.bt_hci_cmd_send_sync,"ax",@progbits
.LCOLDB10:
	.section	.text.bt_hci_cmd_send_sync,"ax",@progbits
.LHOTB10:
	.globl	bt_hci_cmd_send_sync
	.type	bt_hci_cmd_send_sync, @function
bt_hci_cmd_send_sync:
.LFB81:
	.loc 1 3867 0
	.cfi_startproc
.LVL54:
	pushl	%ebp
	.cfi_def_cfa_offset 8
	.cfi_offset 5, -8
	movl	%esp, %ebp
	.cfi_def_cfa_register 5
	pushl	%edi
	pushl	%esi
	pushl	%ebx
	subl	$24, %esp
	.cfi_offset 7, -12
	.cfi_offset 6, -16
	.cfi_offset 3, -20
	.loc 1 3867 0
	movl	8(%ebp), %edi
	movl	12(%ebp), %ebx
	.loc 1 3872 0
	pushl	$12
	call	aos_malloc
.LVL55:
	movl	%eax, %esi
.LVL56:
	.loc 1 3873 0
	addl	$16, %esp
	movl	$-55, %eax
.LVL57:
	testl	%esi, %esi
	je	.L34
	.loc 1 3878 0
	testl	%ebx, %ebx
	jne	.L35
	.loc 1 3879 0
	movzwl	%di, %edi
	pushl	%eax
	pushl	%eax
	pushl	$0
	pushl	%edi
	.loc 1 3881 0
	movl	$-55, %edi
	.loc 1 3879 0
	call	bt_hci_cmd_create
.LVL58:
	.loc 1 3880 0
	addl	$16, %esp
	testl	%eax, %eax
	.loc 1 3879 0
	movl	%eax, %ebx
.LVL59:
	.loc 1 3880 0
	je	.L36
.LVL60:
.L35:
	.loc 1 3886 0
	pushl	%eax
	pushl	$1
	pushl	$0
	pushl	%esi
	call	k_sem_init
.LVL61:
	.loc 1 3887 0
	movl	%ebx, %eax
	call	net_buf_user_data
.LVL62:
	movl	%esi, 4(%eax)
	.loc 1 3888 0
	movl	%ebx, (%esp)
	call	net_buf_ref
.LVL63:
	.loc 1 3889 0
	popl	%edx
	popl	%ecx
	pushl	%ebx
	pushl	$bt_dev+188
	call	net_buf_put
.LVL64:
	.loc 1 3890 0
	movl	$g_poll_sem, (%esp)
	call	k_sem_give
.LVL65:
	.loc 1 3891 0
	popl	%edi
	popl	%eax
	pushl	$10000
	pushl	%esi
	call	k_sem_take
.LVL66:
	.loc 1 3894 0
	movl	%ebx, %eax
	call	net_buf_user_data
.LVL67:
	addl	$16, %esp
	cmpb	$0, 1(%eax)
	je	.L37
.LVL68:
	.loc 1 3896 0
	subl	$12, %esp
	.loc 1 3895 0
	movl	$-5, %edi
	.loc 1 3896 0
	pushl	%ebx
	call	net_buf_unref
.LVL69:
	addl	$16, %esp
	jmp	.L36
.LVL70:
.L37:
	.loc 1 3899 0
	cmpl	$0, 16(%ebp)
	je	.L38
	.loc 1 3900 0
	movl	16(%ebp), %eax
	movl	%ebx, (%eax)
	jmp	.L43
.L38:
	.loc 1 3902 0
	subl	$12, %esp
	pushl	%ebx
	call	net_buf_unref
.LVL71:
	addl	$16, %esp
.L43:
	.loc 1 3898 0
	xorl	%edi, %edi
.LVL72:
.L36:
	.loc 1 3906 0
	subl	$12, %esp
	pushl	%esi
	call	k_sem_delete
.LVL73:
	.loc 1 3907 0
	movl	%esi, (%esp)
	call	aos_free
.LVL74:
	.loc 1 3908 0
	addl	$16, %esp
	movl	%edi, %eax
.LVL75:
.L34:
	.loc 1 3909 0
	leal	-12(%ebp), %esp
	popl	%ebx
	.cfi_restore 3
	popl	%esi
	.cfi_restore 6
.LVL76:
	popl	%edi
	.cfi_restore 7
	popl	%ebp
	.cfi_restore 5
	.cfi_def_cfa 4, 4
	ret
	.cfi_endproc
.LFE81:
	.size	bt_hci_cmd_send_sync, .-bt_hci_cmd_send_sync
	.section	.text.unlikely.bt_hci_cmd_send_sync
.LCOLDE10:
	.section	.text.bt_hci_cmd_send_sync
.LHOTE10:
	.section	.text.unlikely.set_random_address,"ax",@progbits
.LCOLDB11:
	.section	.text.set_random_address,"ax",@progbits
.LHOTB11:
	.type	set_random_address, @function
set_random_address:
.LFB84:
	.loc 1 3951 0
	.cfi_startproc
.LVL77:
	pushl	%ebp
	.cfi_def_cfa_offset 8
	.cfi_offset 5, -8
	movl	%esp, %ebp
	.cfi_def_cfa_register 5
	pushl	%esi
	pushl	%ebx
	.cfi_offset 6, -12
	.cfi_offset 3, -16
.LBB158:
.LBB159:
	.loc 1 1447 0
	pushl	%ecx
	pushl	$6
.LBE159:
.LBE158:
	.loc 1 3951 0
	movl	%eax, %ebx
.LBB161:
.LBB160:
	.loc 1 1447 0
	pushl	$bt_dev+8
.LVL78:
	pushl	%eax
.LVL79:
	call	memcmp
.LVL80:
	addl	$16, %esp
.LVL81:
.LBE160:
.LBE161:
	.loc 1 3955 0
	testl	%eax, %eax
	je	.L45
	.loc 1 3958 0
	pushl	%edx
	pushl	%edx
	pushl	$6
	pushl	$8197
	call	bt_hci_cmd_create
.LVL82:
	movl	%eax, %esi
.LVL83:
	.loc 1 3959 0
	addl	$16, %esp
	.loc 1 3960 0
	movl	$-55, %eax
.LVL84:
	.loc 1 3959 0
	testl	%esi, %esi
	je	.L45
	.loc 1 3962 0
	pushl	%eax
	leal	8(%esi), %eax
	pushl	$6
	pushl	%ebx
	pushl	%eax
	call	net_buf_simple_add_mem
.LVL85:
	.loc 1 3963 0
	addl	$12, %esp
	pushl	$0
	pushl	%esi
	pushl	$8197
	call	bt_hci_cmd_send_sync
.LVL86:
	.loc 1 3966 0
	addl	$16, %esp
	testl	%eax, %eax
	jne	.L45
.LVL87:
.LBB162:
.LBB163:
.LBB164:
.LBB165:
	.loc 1 1455 0
	movl	(%ebx), %edx
	movl	%edx, bt_dev+8
	movw	4(%ebx), %dx
.LBE165:
.LBE164:
	.loc 1 3970 0
	movb	$1, bt_dev+7
.LBB167:
.LBB166:
	.loc 1 1455 0
	movw	%dx, bt_dev+12
.LVL88:
.L45:
.LBE166:
.LBE167:
.LBE163:
.LBE162:
	.loc 1 3972 0
	leal	-8(%ebp), %esp
	popl	%ebx
	.cfi_restore 3
.LVL89:
	popl	%esi
	.cfi_restore 6
	popl	%ebp
	.cfi_restore 5
	.cfi_def_cfa 4, 4
	ret
	.cfi_endproc
.LFE84:
	.size	set_random_address, .-set_random_address
	.section	.text.unlikely.set_random_address
.LCOLDE11:
	.section	.text.set_random_address
.LHOTE11:
	.section	.text.unlikely.le_set_private_addr,"ax",@progbits
.LCOLDB12:
	.section	.text.le_set_private_addr,"ax",@progbits
.LHOTB12:
	.type	le_set_private_addr, @function
le_set_private_addr:
.LFB85:
	.loc 1 3974 0
	.cfi_startproc
	pushl	%ebp
	.cfi_def_cfa_offset 8
	.cfi_offset 5, -8
	movl	%esp, %ebp
	.cfi_def_cfa_register 5
	pushl	%ebx
	.cfi_offset 3, -12
	.loc 1 3977 0
	leal	-18(%ebp), %ebx
	.loc 1 3974 0
	subl	$28, %esp
	.loc 1 3977 0
	pushl	$6
	pushl	%ebx
	.loc 1 3974 0
	movl	%gs:20, %eax
	movl	%eax, -12(%ebp)
	xorl	%eax, %eax
	.loc 1 3977 0
	call	bt_rand
.LVL90:
	.loc 1 3978 0
	addl	$16, %esp
	testl	%eax, %eax
	jne	.L53
	.loc 1 3982 0
	movl	%ebx, %eax
.LVL91:
	.loc 1 3981 0
	andb	$63, -13(%ebp)
	.loc 1 3982 0
	call	set_random_address
.LVL92:
.L53:
	.loc 1 3983 0
	movl	-12(%ebp), %edx
	xorl	%gs:20, %edx
	je	.L54
	call	__stack_chk_fail
.LVL93:
.L54:
	movl	-4(%ebp), %ebx
	leave
	.cfi_restore 5
	.cfi_restore 3
	.cfi_def_cfa 4, 4
	ret
	.cfi_endproc
.LFE85:
	.size	le_set_private_addr, .-le_set_private_addr
	.section	.text.unlikely.le_set_private_addr
.LCOLDE12:
	.section	.text.le_set_private_addr
.LHOTE12:
	.section	.text.unlikely.hci_id_add,"ax",@progbits
.LCOLDB13:
	.section	.text.hci_id_add,"ax",@progbits
.LHOTB13:
	.type	hci_id_add, @function
hci_id_add:
.LFB108:
	.loc 1 4592 0
	.cfi_startproc
.LVL94:
	pushl	%ebp
	.cfi_def_cfa_offset 8
	.cfi_offset 5, -8
	movl	%esp, %ebp
	.cfi_def_cfa_register 5
	pushl	%edi
	pushl	%esi
	pushl	%ebx
	.cfi_offset 7, -12
	.cfi_offset 6, -16
	.cfi_offset 3, -20
	movl	%edx, %esi
	subl	$36, %esp
	.loc 1 4592 0
	movl	%eax, -28(%ebp)
	.loc 1 4596 0
	pushl	$39
	pushl	$8231
	call	bt_hci_cmd_create
.LVL95:
	.loc 1 4597 0
	addl	$16, %esp
	testl	%eax, %eax
	je	.L59
	movl	%eax, %ebx
.LVL96:
	.loc 1 4600 0
	pushl	%eax
	pushl	%eax
	leal	8(%ebx), %eax
	pushl	$39
	pushl	%eax
	call	net_buf_simple_add
.LVL97:
	.loc 1 4601 0
	movl	-28(%ebp), %edx
	.loc 1 4600 0
	movl	%eax, %edi
.LVL98:
	.loc 1 4601 0
	call	bt_addr_le_copy
.LVL99:
	.loc 1 4602 0
	movl	(%esi), %eax
	movl	4(%esi), %edx
	.loc 1 4604 0
	addl	$12, %esp
	.loc 1 4602 0
	movl	12(%esi), %ecx
	movl	%eax, -28(%ebp)
.LVL100:
	movl	8(%esi), %eax
	movl	-28(%ebp), %esi
.LVL101:
	movl	%edx, 11(%edi)
	.loc 1 4603 0
	leal	23(%edi), %edx
	.loc 1 4602 0
	movl	%ecx, 19(%edi)
	.loc 1 4603 0
	movl	$4, %ecx
	.loc 1 4602 0
	movl	%eax, 15(%edi)
	.loc 1 4603 0
	xorl	%eax, %eax
	.loc 1 4602 0
	movl	%esi, 7(%edi)
	.loc 1 4603 0
	movl	%edx, %edi
.LVL102:
	rep stosl
	.loc 1 4604 0
	pushl	$0
	pushl	%ebx
	pushl	$8231
	call	bt_hci_cmd_send_sync
.LVL103:
	addl	$16, %esp
	jmp	.L58
.LVL104:
.L59:
	.loc 1 4598 0
	movl	$-55, %eax
.LVL105:
.L58:
	.loc 1 4607 0
	leal	-12(%ebp), %esp
	popl	%ebx
	.cfi_restore 3
	popl	%esi
	.cfi_restore 6
	popl	%edi
	.cfi_restore 7
	popl	%ebp
	.cfi_restore 5
	.cfi_def_cfa 4, 4
	ret
	.cfi_endproc
.LFE108:
	.size	hci_id_add, .-hci_id_add
	.section	.text.unlikely.hci_id_add
.LCOLDE13:
	.section	.text.hci_id_add
.LHOTE13:
	.section	.text.unlikely.keys_add_id,"ax",@progbits
.LCOLDB14:
	.section	.text.keys_add_id,"ax",@progbits
.LHOTB14:
	.type	keys_add_id, @function
keys_add_id:
.LFB110:
	.loc 1 4678 0
	.cfi_startproc
.LVL106:
	pushl	%ebp
	.cfi_def_cfa_offset 8
	.cfi_offset 5, -8
	movl	%esp, %ebp
	.cfi_def_cfa_register 5
	.loc 1 4678 0
	movl	8(%ebp), %eax
	.loc 1 4680 0
	popl	%ebp
	.cfi_restore 5
	.cfi_def_cfa 4, 4
	.loc 1 4679 0
	leal	44(%eax), %edx
	jmp	hci_id_add
.LVL107:
	.cfi_endproc
.LFE110:
	.size	keys_add_id, .-keys_add_id
	.section	.text.unlikely.keys_add_id
.LCOLDE14:
	.section	.text.keys_add_id
.LHOTE14:
	.section	.text.unlikely.addr_res_enable,"ax",@progbits
.LCOLDB15:
	.section	.text.addr_res_enable,"ax",@progbits
.LHOTB15:
	.type	addr_res_enable, @function
addr_res_enable:
.LFB107:
	.loc 1 4578 0
	.cfi_startproc
.LVL108:
	pushl	%ebp
	.cfi_def_cfa_offset 8
	.cfi_offset 5, -8
	movl	%esp, %ebp
	.cfi_def_cfa_register 5
	pushl	%esi
	pushl	%ebx
	.cfi_offset 6, -12
	.cfi_offset 3, -16
	.loc 1 4581 0
	pushl	%edx
	pushl	%edx
	.loc 1 4578 0
	movl	%eax, %esi
	.loc 1 4581 0
	pushl	$1
	pushl	$8237
	call	bt_hci_cmd_create
.LVL109:
	.loc 1 4582 0
	addl	$16, %esp
	testl	%eax, %eax
	je	.L65
	movl	%eax, %ebx
.LVL110:
	.loc 1 4585 0
	pushl	%eax
	pushl	%eax
	movl	%esi, %eax
	movzbl	%al, %esi
	leal	8(%ebx), %eax
	pushl	%esi
	pushl	%eax
	call	net_buf_simple_add_u8
.LVL111:
	.loc 1 4586 0
	addl	$12, %esp
	pushl	$0
	pushl	%ebx
	pushl	$8237
	call	bt_hci_cmd_send_sync
.LVL112:
	addl	$16, %esp
	jmp	.L64
.LVL113:
.L65:
	.loc 1 4583 0
	movl	$-55, %eax
.LVL114:
.L64:
	.loc 1 4590 0
	leal	-8(%ebp), %esp
	popl	%ebx
	.cfi_restore 3
	popl	%esi
	.cfi_restore 6
	popl	%ebp
	.cfi_restore 5
	.cfi_def_cfa 4, 4
	ret
	.cfi_endproc
.LFE107:
	.size	addr_res_enable, .-addr_res_enable
	.section	.text.unlikely.addr_res_enable
.LCOLDE15:
	.section	.text.addr_res_enable
.LHOTE15:
	.section	.text.unlikely.set_le_scan_enable,"ax",@progbits
.LCOLDB16:
	.section	.text.set_le_scan_enable,"ax",@progbits
.LHOTB16:
	.type	set_le_scan_enable, @function
set_le_scan_enable:
.LFB86:
	.loc 1 3985 0
	.cfi_startproc
.LVL115:
	pushl	%ebp
	.cfi_def_cfa_offset 8
	.cfi_offset 5, -8
	movl	%esp, %ebp
	.cfi_def_cfa_register 5
	pushl	%edi
	pushl	%esi
	pushl	%ebx
	.cfi_offset 7, -12
	.cfi_offset 6, -16
	.cfi_offset 3, -20
	movl	%eax, %edi
	.loc 1 3991 0
	movl	$-55, %ebx
	.loc 1 3985 0
	subl	$20, %esp
	.loc 1 3989 0
	pushl	$2
	pushl	$8204
	call	bt_hci_cmd_create
.LVL116:
	.loc 1 3990 0
	addl	$16, %esp
	testl	%eax, %eax
	je	.L68
	movl	%eax, %ebx
	.loc 1 3993 0
	leal	8(%eax), %eax
.LVL117:
	pushl	%esi
	pushl	%esi
	pushl	$2
	pushl	%eax
	call	net_buf_simple_add
.LVL118:
	movl	%eax, %esi
.LVL119:
	.loc 1 3994 0
	movl	%edi, %eax
.LVL120:
	addl	$16, %esp
	decb	%al
	jne	.L69
	.loc 1 3995 0
	movl	$10, %edx
	movl	$bt_dev+108, %eax
	call	atomic_test_bit
.LVL121:
	movb	%al, 1(%esi)
	jmp	.L70
.L69:
	.loc 1 3998 0
	movb	$0, 1(%esi)
.L70:
	.loc 1 4000 0
	movl	%edi, %eax
	movb	%al, (%esi)
	.loc 1 4001 0
	pushl	%ecx
	pushl	$0
	pushl	%ebx
	pushl	$8204
	call	bt_hci_cmd_send_sync
.LVL122:
	.loc 1 4004 0
	addl	$16, %esp
	testl	%eax, %eax
	movl	%eax, %ebx
.LVL123:
	jne	.L68
	.loc 1 4007 0
	movl	%edi, %eax
.LVL124:
	decb	%al
	jne	.L71
.LVL125:
.LBB176:
.LBB177:
.LBB178:
.LBB179:
	.loc 1 875 0
	pushl	%edx
	pushl	%edx
	pushl	$128
	pushl	$bt_dev+108
.LVL126:
	call	atomic_or
.LVL127:
	jmp	.L75
.LVL128:
.L71:
.LBE179:
.LBE178:
.LBE177:
.LBE176:
.LBB180:
.LBB181:
	.loc 1 870 0
	pushl	%eax
	pushl	%eax
	pushl	$-129
	pushl	$bt_dev+108
.LVL129:
	call	atomic_and
.LVL130:
.L75:
	addl	$16, %esp
.LVL131:
.L68:
.LBE181:
.LBE180:
	.loc 1 4013 0
	leal	-12(%ebp), %esp
	movl	%ebx, %eax
	popl	%ebx
	.cfi_restore 3
	popl	%esi
	.cfi_restore 6
	popl	%edi
	.cfi_restore 7
	popl	%ebp
	.cfi_restore 5
	.cfi_def_cfa 4, 4
	ret
	.cfi_endproc
.LFE86:
	.size	set_le_scan_enable, .-set_le_scan_enable
	.section	.text.unlikely.set_le_scan_enable
.LCOLDE16:
	.section	.text.set_le_scan_enable
.LHOTE16:
	.section	.text.unlikely.set_advertise_enable,"ax",@progbits
.LCOLDB17:
	.section	.text.set_advertise_enable,"ax",@progbits
.LHOTB17:
	.type	set_advertise_enable, @function
set_advertise_enable:
.LFB83:
	.loc 1 3925 0
	.cfi_startproc
.LVL132:
	pushl	%ebp
	.cfi_def_cfa_offset 8
	.cfi_offset 5, -8
	movl	%esp, %ebp
	.cfi_def_cfa_register 5
	pushl	%esi
	pushl	%ebx
	.cfi_offset 6, -12
	.cfi_offset 3, -16
	.loc 1 3928 0
	pushl	%ebx
	pushl	%ebx
	.loc 1 3925 0
	movl	%eax, %esi
	.loc 1 3928 0
	pushl	$1
	pushl	$8202
	.loc 1 3930 0
	movl	$-55, %ebx
	.loc 1 3928 0
	call	bt_hci_cmd_create
.LVL133:
	.loc 1 3929 0
	addl	$16, %esp
	testl	%eax, %eax
	je	.L77
	movl	%eax, %ebx
	.loc 1 3932 0
	movl	%esi, %eax
.LVL134:
	testb	%al, %al
	leal	8(%ebx), %eax
	je	.L78
	.loc 1 3933 0
	pushl	%ecx
	pushl	%ecx
	pushl	$1
	jmp	.L84
.L78:
	.loc 1 3935 0
	pushl	%edx
	pushl	%edx
	pushl	$0
.L84:
	pushl	%eax
	call	net_buf_simple_add_u8
.LVL135:
	addl	$16, %esp
	.loc 1 3937 0
	pushl	%ecx
	pushl	$0
	pushl	%ebx
	pushl	$8202
	call	bt_hci_cmd_send_sync
.LVL136:
	.loc 1 3940 0
	addl	$16, %esp
	testl	%eax, %eax
	movl	%eax, %ebx
.LVL137:
	jne	.L77
	.loc 1 3943 0
	movl	%esi, %eax
.LVL138:
	testb	%al, %al
	je	.L80
.LVL139:
.LBB190:
.LBB191:
.LBB192:
.LBB193:
	.loc 1 875 0
	pushl	%edx
	pushl	%edx
	pushl	$32
	pushl	$bt_dev+108
.LVL140:
	call	atomic_or
.LVL141:
	jmp	.L85
.LVL142:
.L80:
.LBE193:
.LBE192:
.LBE191:
.LBE190:
.LBB194:
.LBB195:
	.loc 1 870 0
	pushl	%eax
	pushl	%eax
	pushl	$-33
	pushl	$bt_dev+108
.LVL143:
	call	atomic_and
.LVL144:
.L85:
	addl	$16, %esp
.LVL145:
.L77:
.LBE195:
.LBE194:
	.loc 1 3949 0
	leal	-8(%ebp), %esp
	movl	%ebx, %eax
	popl	%ebx
	.cfi_restore 3
	popl	%esi
	.cfi_restore 6
	popl	%ebp
	.cfi_restore 5
	.cfi_def_cfa 4, 4
	ret
	.cfi_endproc
.LFE83:
	.size	set_advertise_enable, .-set_advertise_enable
	.section	.text.unlikely.set_advertise_enable
.LCOLDE17:
	.section	.text.set_advertise_enable
.LHOTE17:
	.section	.text.unlikely.set_ad,"ax",@progbits
.LCOLDB18:
	.section	.text.set_ad,"ax",@progbits
.LHOTB18:
	.type	set_ad, @function
set_ad:
.LFB159:
	.loc 1 5944 0
	.cfi_startproc
.LVL146:
	pushl	%ebp
	.cfi_def_cfa_offset 8
	.cfi_offset 5, -8
	.loc 1 5948 0
	movzwl	%ax, %eax
	.loc 1 5944 0
	movl	%esp, %ebp
	.cfi_def_cfa_register 5
	pushl	%edi
	pushl	%esi
	pushl	%ebx
	.cfi_offset 7, -12
	.cfi_offset 6, -16
	.cfi_offset 3, -20
	movl	%edx, %esi
	subl	$52, %esp
	.loc 1 5944 0
	movl	%ecx, -44(%ebp)
	.loc 1 5948 0
	movl	%eax, -36(%ebp)
	pushl	$32
	pushl	%eax
	call	bt_hci_cmd_create
.LVL147:
	.loc 1 5949 0
	addl	$16, %esp
	testl	%eax, %eax
	.loc 1 5948 0
	movl	%eax, -28(%ebp)
.LVL148:
	.loc 1 5949 0
	je	.L91
	.loc 1 5952 0
	addl	$8, %eax
.LVL149:
	pushl	%edx
	pushl	%edx
	pushl	$32
	pushl	%eax
	call	net_buf_simple_add
.LVL150:
	movl	%eax, %ebx
.LVL151:
	.loc 1 5953 0
	movl	$8, %ecx
	xorl	%eax, %eax
.LVL152:
	movl	%ebx, %edi
	leal	1(%esi), %edx
	.loc 1 5954 0
	addl	$16, %esp
	.loc 1 5953 0
	rep stosl
.LVL153:
	.loc 1 5954 0
	movl	$0, -32(%ebp)
.LVL154:
.L88:
	.loc 1 5954 0 is_stmt 0 discriminator 1
	movl	-44(%ebp), %edi
	cmpl	%edi, -32(%ebp)
	je	.L93
	.loc 1 5955 0 is_stmt 1
	movzbl	(%ebx), %edi
	movzbl	(%edx), %ecx
	addl	%edi, %ecx
	cmpl	$29, %ecx
	jle	.L89
	.loc 1 5956 0
	subl	$12, %esp
	pushl	-28(%ebp)
	call	net_buf_unref
.LVL155:
	.loc 1 5957 0
	addl	$16, %esp
	movl	$-22, %eax
	jmp	.L87
.L89:
	.loc 1 5959 0 discriminator 2
	leal	1(%edi), %ecx
	.loc 1 5954 0 discriminator 2
	incl	-32(%ebp)
.LVL156:
	addl	$8, %edx
	.loc 1 5959 0 discriminator 2
	movb	%cl, (%ebx)
	movzbl	-8(%edx), %esi
	movb	%cl, -37(%ebp)
	incl	%esi
	movl	%esi, %ecx
	.loc 1 5960 0 discriminator 2
	leal	2(%edi), %esi
	.loc 1 5959 0 discriminator 2
	movb	%cl, 1(%ebx,%edi)
	.loc 1 5960 0 discriminator 2
	movzbl	-37(%ebp), %ecx
	movl	%esi, %eax
	movb	%al, (%ebx)
	movb	-9(%edx), %al
	movb	%al, 1(%ebx,%ecx)
	.loc 1 5961 0 discriminator 2
	movl	%esi, %eax
	movzbl	-8(%edx), %ecx
	movzbl	%al, %eax
	movl	-5(%edx), %esi
	leal	1(%ebx,%eax), %eax
	movl	%eax, %edi
	rep movsb
	.loc 1 5963 0 discriminator 2
	movb	-8(%edx), %al
	addb	%al, (%ebx)
	jmp	.L88
.LVL157:
.L93:
	.loc 1 5965 0
	pushl	%eax
	pushl	$0
	pushl	-28(%ebp)
	pushl	-36(%ebp)
	call	bt_hci_cmd_send_sync
.LVL158:
	addl	$16, %esp
	jmp	.L87
.LVL159:
.L91:
	.loc 1 5950 0
	movl	$-55, %eax
.LVL160:
.L87:
	.loc 1 5968 0
	leal	-12(%ebp), %esp
	popl	%ebx
	.cfi_restore 3
	popl	%esi
	.cfi_restore 6
	popl	%edi
	.cfi_restore 7
	popl	%ebp
	.cfi_restore 5
	.cfi_def_cfa 4, 4
.LVL161:
	ret
	.cfi_endproc
.LFE159:
	.size	set_ad, .-set_ad
	.section	.text.unlikely.set_ad
.LCOLDE18:
	.section	.text.set_ad
.LHOTE18:
	.section	.text.unlikely.bt_le_conn_params_valid,"ax",@progbits
.LCOLDB19:
	.section	.text.bt_le_conn_params_valid,"ax",@progbits
.LHOTB19:
	.globl	bt_le_conn_params_valid
	.type	bt_le_conn_params_valid, @function
bt_le_conn_params_valid:
.LFB101:
	.loc 1 4431 0
	.cfi_startproc
.LVL162:
	pushl	%ebp
	.cfi_def_cfa_offset 8
	.cfi_offset 5, -8
	movl	%esp, %ebp
	.cfi_def_cfa_register 5
	pushl	%esi
	pushl	%ebx
	.cfi_offset 6, -12
	.cfi_offset 3, -16
	.loc 1 4431 0
	movl	8(%ebp), %ebx
	.loc 1 4432 0
	movzwl	2(%ebx), %edx
	movw	(%ebx), %ax
	cmpw	%dx, %ax
	seta	%cl
	cmpw	$5, %ax
	setbe	%al
	orl	%ecx, %eax
	cmpw	$3200, %dx
	seta	%cl
	.loc 1 4433 0
	orb	%cl, %al
	jne	.L96
	.loc 1 4438 0
	movzwl	4(%ebx), %ecx
	cmpw	$499, %cx
	ja	.L95
	.loc 1 4443 0
	movw	6(%ebx), %bx
	leal	-10(%ebx), %esi
	cmpw	$3190, %si
	ja	.L95
	.loc 1 4443 0 is_stmt 0 discriminator 1
	incl	%ecx
	movzwl	%bx, %eax
	imull	%ecx, %edx
	sall	$2, %eax
	cmpl	%edx, %eax
	setg	%al
	jmp	.L95
.LVL163:
.L96:
	.loc 1 4435 0 is_stmt 1
	xorl	%eax, %eax
.LVL164:
.L95:
	.loc 1 4453 0
	popl	%ebx
	.cfi_restore 3
	popl	%esi
	.cfi_restore 6
	popl	%ebp
	.cfi_restore 5
	.cfi_def_cfa 4, 4
	ret
	.cfi_endproc
.LFE101:
	.size	bt_le_conn_params_valid, .-bt_le_conn_params_valid
	.section	.text.unlikely.bt_le_conn_params_valid
.LCOLDE19:
	.section	.text.bt_le_conn_params_valid
.LHOTE19:
	.section	.text.unlikely.bt_id_add,"ax",@progbits
.LCOLDB20:
	.section	.text.bt_id_add,"ax",@progbits
.LHOTB20:
	.globl	bt_id_add
	.type	bt_id_add, @function
bt_id_add:
.LFB109:
	.loc 1 4609 0
	.cfi_startproc
.LVL165:
	pushl	%ebp
	.cfi_def_cfa_offset 8
	.cfi_offset 5, -8
	movl	%esp, %ebp
	.cfi_def_cfa_register 5
	pushl	%edi
	pushl	%esi
	pushl	%ebx
	subl	$12, %esp
	.cfi_offset 7, -12
	.cfi_offset 6, -16
	.cfi_offset 3, -20
	.loc 1 4615 0
	movb	bt_dev+144, %al
	testb	%al, %al
	je	.L99
	.loc 1 4615 0 is_stmt 0 discriminator 1
	cmpb	bt_dev+145, %al
	jnb	.L100
.L99:
	.loc 1 4616 0 is_stmt 1
	incb	bt_dev+145
	.loc 1 4617 0
	xorl	%ebx, %ebx
	jmp	.L101
.L100:
	.loc 1 4619 0
	pushl	%esi
	pushl	%esi
	pushl	$2
	pushl	$0
	call	bt_conn_lookup_state_le
.LVL166:
	.loc 1 4622 0
	addl	$16, %esp
	testl	%eax, %eax
	.loc 1 4619 0
	movl	%eax, %esi
.LVL167:
	.loc 1 4622 0
	je	.L102
.LVL168:
.LBB204:
.LBB205:
	.loc 1 875 0
	pushl	%edx
	pushl	%edx
	pushl	$4096
	pushl	$bt_dev+108
.LVL169:
	call	atomic_or
.LVL170:
.LBE205:
.LBE204:
	.loc 1 4624 0
	movl	8(%ebp), %eax
.LBB206:
.LBB207:
	.loc 1 875 0
	popl	%ecx
	popl	%ebx
.LBE207:
.LBE206:
	.loc 1 4624 0
	leal	8(%eax), %ebx
.LVL171:
.LBB210:
.LBB208:
	.loc 1 875 0
	pushl	$4
	pushl	%ebx
.LBE208:
.LBE210:
	.loc 1 4626 0
	movl	$-11, %ebx
.LVL172:
.LBB211:
.LBB209:
	.loc 1 875 0
	call	atomic_or
.LVL173:
.LBE209:
.LBE211:
	.loc 1 4625 0
	movl	%esi, (%esp)
	call	bt_conn_unref
.LVL174:
	.loc 1 4626 0
	addl	$16, %esp
	jmp	.L101
.LVL175:
.L102:
.LBB212:
.LBB213:
	.loc 1 4628 0
	movl	$5, %edx
	movl	$bt_dev+108, %eax
.LVL176:
	call	atomic_test_bit
.LVL177:
	.loc 1 4629 0
	testl	%eax, %eax
	.loc 1 4628 0
	movl	%eax, %esi
.LVL178:
	.loc 1 4629 0
	je	.L103
	.loc 1 4630 0
	xorl	%eax, %eax
.LVL179:
	call	set_advertise_enable
.LVL180:
.L103:
	.loc 1 4634 0
	movl	$7, %edx
	movl	$bt_dev+108, %eax
	call	atomic_test_bit
.LVL181:
	.loc 1 4635 0
	testl	%eax, %eax
	.loc 1 4634 0
	movl	%eax, %edi
.LVL182:
	.loc 1 4635 0
	je	.L104
	.loc 1 4636 0
	xorl	%eax, %eax
.LVL183:
	call	set_le_scan_enable
.LVL184:
.L104:
	.loc 1 4638 0
	cmpb	$0, bt_dev+145
	jne	.L105
.L109:
	.loc 1 4645 0
	movb	bt_dev+144, %al
	cmpb	%al, bt_dev+145
	jne	.L125
	.loc 1 4647 0
	pushl	%eax
	pushl	$0
	pushl	$0
	pushl	$8233
	call	bt_hci_cmd_send_sync
.LVL185:
	.loc 1 4652 0
	addl	$16, %esp
	.loc 1 4647 0
	movl	%eax, %ebx
.LVL186:
	jmp	.L128
.LVL187:
.L105:
	.loc 1 4639 0
	xorl	%eax, %eax
	call	addr_res_enable
.LVL188:
	.loc 1 4640 0
	testl	%eax, %eax
	.loc 1 4639 0
	movl	%eax, %ebx
.LVL189:
	.loc 1 4640 0
	jne	.L108
	jmp	.L109
.LVL190:
.L125:
	.loc 1 4659 0
	movl	8(%ebp), %eax
	leal	44(%eax), %edx
	call	hci_id_add
.LVL191:
	movl	%eax, %ebx
.L128:
.LVL192:
	.loc 1 4660 0
	testl	%ebx, %ebx
	jne	.L108
	.loc 1 4664 0
	incb	bt_dev+145
.L108:
	.loc 1 4666 0
	movl	$1, %eax
	call	addr_res_enable
.LVL193:
	.loc 1 4667 0
	testl	%edi, %edi
	je	.L110
	.loc 1 4668 0
	movl	$1, %eax
	call	set_le_scan_enable
.LVL194:
.L110:
	.loc 1 4670 0
	testl	%esi, %esi
	je	.L101
	.loc 1 4671 0
	movl	$1, %eax
	call	set_advertise_enable
.LVL195:
.L101:
.LBE213:
.LBE212:
	.loc 1 4676 0
	leal	-12(%ebp), %esp
	movl	%ebx, %eax
	popl	%ebx
	.cfi_restore 3
	popl	%esi
	.cfi_restore 6
	popl	%edi
	.cfi_restore 7
	popl	%ebp
	.cfi_restore 5
	.cfi_def_cfa 4, 4
	ret
	.cfi_endproc
.LFE109:
	.size	bt_id_add, .-bt_id_add
	.section	.text.unlikely.bt_id_add
.LCOLDE20:
	.section	.text.bt_id_add
.LHOTE20:
	.section	.text.unlikely.bt_id_del,"ax",@progbits
.LCOLDB21:
	.section	.text.bt_id_del,"ax",@progbits
.LHOTB21:
	.globl	bt_id_del
	.type	bt_id_del, @function
bt_id_del:
.LFB111:
	.loc 1 4682 0
	.cfi_startproc
.LVL196:
	pushl	%ebp
	.cfi_def_cfa_offset 8
	.cfi_offset 5, -8
	movl	%esp, %ebp
	.cfi_def_cfa_register 5
	pushl	%edi
	pushl	%esi
	pushl	%ebx
	subl	$28, %esp
	.cfi_offset 7, -12
	.cfi_offset 6, -16
	.cfi_offset 3, -20
	.loc 1 4690 0
	movzbl	bt_dev+144, %eax
	testb	%al, %al
	je	.L130
	.loc 1 4690 0 is_stmt 0 discriminator 1
	movzbl	bt_dev+145, %edx
	incl	%eax
	cmpl	%eax, %edx
	jle	.L131
.L130:
	.loc 1 4692 0 is_stmt 1
	decb	bt_dev+145
	.loc 1 4693 0
	xorl	%ebx, %ebx
	jmp	.L132
.L131:
	.loc 1 4695 0
	pushl	%eax
	pushl	%eax
	pushl	$2
	pushl	$0
	call	bt_conn_lookup_state_le
.LVL197:
	.loc 1 4698 0
	addl	$16, %esp
	testl	%eax, %eax
	.loc 1 4695 0
	movl	%eax, %ebx
.LVL198:
	.loc 1 4698 0
	je	.L133
.LVL199:
.LBB222:
.LBB223:
	.loc 1 875 0
	pushl	%esi
	pushl	%esi
	pushl	$4096
	pushl	$bt_dev+108
.LVL200:
	call	atomic_or
.LVL201:
.LBE223:
.LBE222:
.LBB224:
.LBB225:
	popl	%edi
	popl	%eax
.LBE225:
.LBE224:
	.loc 1 4700 0
	movl	8(%ebp), %eax
.LBB228:
.LBB226:
	.loc 1 875 0
	pushl	$8
.LBE226:
.LBE228:
	.loc 1 4700 0
	addl	$8, %eax
.LVL202:
.LBB229:
.LBB227:
	.loc 1 875 0
	pushl	%eax
	call	atomic_or
.LVL203:
.LBE227:
.LBE229:
	.loc 1 4701 0
	movl	%ebx, (%esp)
	.loc 1 4702 0
	movl	$-11, %ebx
.LVL204:
	.loc 1 4701 0
	call	bt_conn_unref
.LVL205:
	.loc 1 4702 0
	addl	$16, %esp
	jmp	.L132
.LVL206:
.L133:
.LBB230:
.LBB231:
	.loc 1 4704 0
	movl	$5, %edx
	movl	$bt_dev+108, %eax
.LVL207:
	call	atomic_test_bit
.LVL208:
	.loc 1 4705 0
	testl	%eax, %eax
	.loc 1 4704 0
	movl	%eax, %esi
.LVL209:
	.loc 1 4705 0
	je	.L134
	.loc 1 4706 0
	xorl	%eax, %eax
.LVL210:
	call	set_advertise_enable
.LVL211:
.L134:
	.loc 1 4710 0
	movl	$7, %edx
	movl	$bt_dev+108, %eax
	call	atomic_test_bit
.LVL212:
	.loc 1 4711 0
	testl	%eax, %eax
	.loc 1 4710 0
	movl	%eax, %edi
.LVL213:
	.loc 1 4711 0
	je	.L135
	.loc 1 4712 0
	xorl	%eax, %eax
.LVL214:
	call	set_le_scan_enable
.LVL215:
.L135:
	.loc 1 4714 0
	xorl	%eax, %eax
	call	addr_res_enable
.LVL216:
	.loc 1 4715 0
	testl	%eax, %eax
	.loc 1 4714 0
	movl	%eax, %ebx
.LVL217:
	.loc 1 4715 0
	jne	.L136
	.loc 1 4719 0
	movb	bt_dev+145, %al
.LVL218:
	cmpb	bt_dev+144, %al
	jbe	.L137
	.loc 1 4720 0
	decl	%eax
	movb	%al, bt_dev+145
	.loc 1 4721 0
	movl	8(%ebp), %eax
	andw	$-3, 12(%eax)
	.loc 1 4722 0
	pushl	%ecx
	pushl	%ecx
	pushl	$keys_add_id
	pushl	$2
	call	bt_keys_foreach
.LVL219:
	addl	$16, %esp
	jmp	.L136
.L137:
	.loc 1 4725 0
	pushl	%edx
	pushl	%edx
	.loc 1 4727 0
	movl	$-55, %ebx
.LVL220:
	.loc 1 4725 0
	pushl	$7
	pushl	$8232
	call	bt_hci_cmd_create
.LVL221:
	.loc 1 4726 0
	addl	$16, %esp
	testl	%eax, %eax
	.loc 1 4725 0
	movl	%eax, %ecx
.LVL222:
	.loc 1 4726 0
	je	.L136
.LVL223:
	.loc 1 4730 0
	pushl	%eax
	pushl	%eax
	leal	8(%ecx), %eax
	pushl	$7
	movl	%ecx, -28(%ebp)
	pushl	%eax
	call	net_buf_simple_add
.LVL224:
	.loc 1 4731 0
	movl	8(%ebp), %edx
	call	bt_addr_le_copy
.LVL225:
	.loc 1 4732 0
	movl	-28(%ebp), %ecx
	addl	$12, %esp
	pushl	$0
	pushl	%ecx
	pushl	$8232
	call	bt_hci_cmd_send_sync
.LVL226:
	.loc 1 4735 0
	addl	$16, %esp
	testl	%eax, %eax
	.loc 1 4732 0
	movl	%eax, %ebx
.LVL227:
	.loc 1 4735 0
	jne	.L136
	.loc 1 4739 0
	decb	bt_dev+145
.LVL228:
.L136:
	.loc 1 4741 0
	cmpb	$0, bt_dev+145
	je	.L138
	.loc 1 4742 0
	movl	$1, %eax
	call	addr_res_enable
.LVL229:
.L138:
	.loc 1 4744 0
	testl	%edi, %edi
	je	.L139
	.loc 1 4745 0
	movl	$1, %eax
	call	set_le_scan_enable
.LVL230:
.L139:
	.loc 1 4747 0
	testl	%esi, %esi
	je	.L132
	.loc 1 4748 0
	movl	$1, %eax
	call	set_advertise_enable
.LVL231:
.L132:
.LBE231:
.LBE230:
	.loc 1 4753 0
	leal	-12(%ebp), %esp
	movl	%ebx, %eax
	popl	%ebx
	.cfi_restore 3
	popl	%esi
	.cfi_restore 6
	popl	%edi
	.cfi_restore 7
	popl	%ebp
	.cfi_restore 5
	.cfi_def_cfa 4, 4
	ret
	.cfi_endproc
.LFE111:
	.size	bt_id_del, .-bt_id_del
	.section	.text.unlikely.bt_id_del
.LCOLDE21:
	.section	.text.bt_id_del
.LHOTE21:
	.section	.text.unlikely.update_pending_id,"ax",@progbits
.LCOLDB22:
	.section	.text.update_pending_id,"ax",@progbits
.LHOTB22:
	.type	update_pending_id, @function
update_pending_id:
.LFB95:
	.loc 1 4212 0
	.cfi_startproc
.LVL232:
	pushl	%ebp
	.cfi_def_cfa_offset 8
	.cfi_offset 5, -8
	.loc 1 4213 0
	movl	$2, %edx
	.loc 1 4212 0
	movl	%esp, %ebp
	.cfi_def_cfa_register 5
	pushl	%esi
	pushl	%ebx
	.cfi_offset 6, -12
	.cfi_offset 3, -16
	.loc 1 4212 0
	movl	8(%ebp), %ebx
	.loc 1 4213 0
	leal	8(%ebx), %esi
	movl	%esi, %eax
	call	atomic_test_and_clear_bit
.LVL233:
	testl	%eax, %eax
	je	.L157
	.loc 1 4214 0
	movl	%ebx, 8(%ebp)
	.loc 1 4221 0
	popl	%ebx
	.cfi_remember_state
	.cfi_restore 3
	popl	%esi
	.cfi_restore 6
	popl	%ebp
	.cfi_restore 5
	.cfi_def_cfa 4, 4
	.loc 1 4214 0
	jmp	bt_id_add
.LVL234:
.L157:
	.cfi_restore_state
	.loc 1 4217 0
	movl	$3, %edx
	movl	%esi, %eax
	call	atomic_test_and_clear_bit
.LVL235:
	testl	%eax, %eax
	je	.L156
	.loc 1 4218 0
	movl	%ebx, 8(%ebp)
	.loc 1 4221 0
	popl	%ebx
	.cfi_remember_state
	.cfi_restore 3
	popl	%esi
	.cfi_restore 6
	popl	%ebp
	.cfi_restore 5
	.cfi_def_cfa 4, 4
	.loc 1 4218 0
	jmp	bt_id_del
.LVL236:
.L156:
	.cfi_restore_state
	.loc 1 4221 0
	popl	%ebx
	.cfi_restore 3
	popl	%esi
	.cfi_restore 6
	popl	%ebp
	.cfi_restore 5
	.cfi_def_cfa 4, 4
	ret
	.cfi_endproc
.LFE95:
	.size	update_pending_id, .-update_pending_id
	.section	.text.unlikely.update_pending_id
.LCOLDE22:
	.section	.text.update_pending_id
.LHOTE22:
	.section	.text.unlikely.bt_le_scan_update,"ax",@progbits
.LCOLDB23:
	.section	.text.bt_le_scan_update,"ax",@progbits
.LHOTB23:
	.globl	bt_le_scan_update
	.type	bt_le_scan_update, @function
bt_le_scan_update:
.LFB123:
	.loc 1 5049 0
	.cfi_startproc
.LVL237:
	pushl	%ebp
	.cfi_def_cfa_offset 8
	.cfi_offset 5, -8
	.loc 1 5050 0
	movl	$8, %edx
	movl	$bt_dev+108, %eax
	.loc 1 5049 0
	movl	%esp, %ebp
	.cfi_def_cfa_register 5
	subl	$8, %esp
	.loc 1 5050 0
	call	atomic_test_bit
.LVL238:
	testl	%eax, %eax
	jne	.L162
	.loc 1 5053 0
	movl	$7, %edx
	movl	$bt_dev+108, %eax
	call	atomic_test_bit
.LVL239:
	testl	%eax, %eax
	je	.L162
.LVL240:
	.loc 1 5081 0
	leave
	.cfi_remember_state
	.cfi_restore 5
	.cfi_def_cfa 4, 4
.LBB236:
.LBB237:
.LBB238:
	.loc 1 5055 0
	xorl	%eax, %eax
	jmp	set_le_scan_enable
.LVL241:
.L162:
	.cfi_restore_state
.LBE238:
.LBE237:
.LBE236:
	.loc 1 5081 0
	xorl	%eax, %eax
	leave
	.cfi_restore 5
	.cfi_def_cfa 4, 4
	ret
	.cfi_endproc
.LFE123:
	.size	bt_le_scan_update, .-bt_le_scan_update
	.section	.text.unlikely.bt_le_scan_update
.LCOLDE23:
	.section	.text.bt_le_scan_update
.LHOTE23:
	.section	.text.unlikely.bt_addr_le_create_nrpa,"ax",@progbits
.LCOLDB24:
	.section	.text.bt_addr_le_create_nrpa,"ax",@progbits
.LHOTB24:
	.globl	bt_addr_le_create_nrpa
	.type	bt_addr_le_create_nrpa, @function
bt_addr_le_create_nrpa:
.LFB144:
	.loc 1 5628 0
	.cfi_startproc
.LVL242:
	pushl	%ebp
	.cfi_def_cfa_offset 8
	.cfi_offset 5, -8
	movl	%esp, %ebp
	.cfi_def_cfa_register 5
	pushl	%ebx
	subl	$12, %esp
	.cfi_offset 3, -12
	.loc 1 5628 0
	movl	8(%ebp), %ebx
.LVL243:
.LBB241:
.LBB242:
	.loc 1 5625 0
	leal	1(%ebx), %eax
	.loc 1 5624 0
	movb	$1, (%ebx)
	.loc 1 5625 0
	pushl	$6
	pushl	%eax
	call	bt_rand
.LVL244:
.LBE242:
.LBE241:
	.loc 1 5631 0
	addl	$16, %esp
	testl	%eax, %eax
	jne	.L169
	.loc 1 5634 0
	andb	$63, 6(%ebx)
.L169:
	.loc 1 5636 0
	movl	-4(%ebp), %ebx
	leave
	.cfi_restore 5
	.cfi_restore 3
	.cfi_def_cfa 4, 4
	ret
	.cfi_endproc
.LFE144:
	.size	bt_addr_le_create_nrpa, .-bt_addr_le_create_nrpa
	.section	.text.unlikely.bt_addr_le_create_nrpa
.LCOLDE24:
	.section	.text.bt_addr_le_create_nrpa
.LHOTE24:
	.section	.text.unlikely.bt_addr_le_create_static,"ax",@progbits
.LCOLDB25:
	.section	.text.bt_addr_le_create_static,"ax",@progbits
.LHOTB25:
	.globl	bt_addr_le_create_static
	.type	bt_addr_le_create_static, @function
bt_addr_le_create_static:
.LFB145:
	.loc 1 5638 0
	.cfi_startproc
.LVL245:
	pushl	%ebp
	.cfi_def_cfa_offset 8
	.cfi_offset 5, -8
	movl	%esp, %ebp
	.cfi_def_cfa_register 5
	pushl	%ebx
	subl	$12, %esp
	.cfi_offset 3, -12
	.loc 1 5638 0
	movl	8(%ebp), %ebx
.LVL246:
.LBB245:
.LBB246:
	.loc 1 5625 0
	leal	1(%ebx), %eax
	.loc 1 5624 0
	movb	$1, (%ebx)
	.loc 1 5625 0
	pushl	$6
	pushl	%eax
	call	bt_rand
.LVL247:
.LBE246:
.LBE245:
	.loc 1 5641 0
	addl	$16, %esp
	testl	%eax, %eax
	jne	.L172
	.loc 1 5644 0
	orb	$-64, 6(%ebx)
.L172:
	.loc 1 5646 0
	movl	-4(%ebp), %ebx
	leave
	.cfi_restore 5
	.cfi_restore 3
	.cfi_def_cfa 4, 4
	ret
	.cfi_endproc
.LFE145:
	.size	bt_addr_le_create_static, .-bt_addr_le_create_static
	.section	.text.unlikely.bt_addr_le_create_static
.LCOLDE25:
	.section	.text.bt_addr_le_create_static
.LHOTE25:
	.section	.rodata
	.align 4
.LC0:
	.byte	0
	.byte	-1
	.byte	-1
	.byte	-1
	.byte	-1
	.byte	-1
	.byte	-1
	.section	.text.unlikely.bt_init,"ax",@progbits
.LCOLDB26:
	.section	.text.bt_init,"ax",@progbits
.LHOTB26:
	.type	bt_init, @function
bt_init:
.LFB153:
	.loc 1 5804 0
	.cfi_startproc
	pushl	%ebp
	.cfi_def_cfa_offset 8
	.cfi_offset 5, -8
	movl	%esp, %ebp
	.cfi_def_cfa_register 5
	pushl	%edi
	pushl	%esi
	pushl	%ebx
	.cfi_offset 7, -12
	.cfi_offset 6, -16
	.cfi_offset 3, -20
.LBB308:
.LBB309:
.LBB310:
.LBB311:
	.loc 1 5356 0
	leal	-48(%ebp), %ebx
.LBE311:
.LBE310:
.LBE309:
.LBE308:
	.loc 1 5804 0
	subl	$64, %esp
.LBB379:
.LBB377:
.LBB336:
.LBB334:
	.loc 1 5356 0
	pushl	%ebx
	pushl	$0
	pushl	$3075
.LBE334:
.LBE336:
.LBE377:
.LBE379:
	.loc 1 5804 0
	movl	%gs:20, %eax
	movl	%eax, -28(%ebp)
	xorl	%eax, %eax
.LBB380:
.LBB378:
.LBB337:
.LBB335:
	.loc 1 5356 0
	call	bt_hci_cmd_send_sync
.LVL248:
	.loc 1 5359 0
	addl	$16, %esp
	testl	%eax, %eax
	movl	%eax, %edx
	jne	.L175
.LVL249:
	movl	-48(%ebp), %eax
.LVL250:
.LBB312:
.LBB313:
	.loc 1 4947 0
	movl	8(%eax), %eax
	.loc 1 4949 0
	cmpb	$0, (%eax)
	jne	.L176
	.loc 1 4955 0
	pushl	%esi
.LVL251:
	pushl	%esi
	pushl	$1
	pushl	$bt_dev+108
	.loc 1 4952 0
	movl	$0, scan_dev_found_cb
	.loc 1 4955 0
	call	atomic_set
.LVL252:
	addl	$16, %esp
.L176:
.LBE313:
.LBE312:
	.loc 1 5363 0
	subl	$12, %esp
	pushl	-48(%ebp)
	call	net_buf_unref
.LVL253:
	.loc 1 5364 0
	addl	$12, %esp
	pushl	%ebx
	pushl	$0
	pushl	$4099
	call	bt_hci_cmd_send_sync
.LVL254:
	.loc 1 5367 0
	addl	$16, %esp
	testl	%eax, %eax
	movl	%eax, %edx
	jne	.L175
	.loc 1 5370 0
	movl	-48(%ebp), %ecx
.LVL255:
	.loc 1 5371 0
	subl	$12, %esp
.LBB314:
.LBB315:
	.loc 1 5344 0
	movl	8(%ecx), %eax
.LVL256:
	movl	5(%eax), %edx
.LVL257:
	movl	1(%eax), %eax
.LBE315:
.LBE314:
	.loc 1 5371 0
	pushl	%ecx
.LVL258:
.LBB317:
.LBB316:
	.loc 1 5344 0
	movl	%edx, bt_dev+26
	movl	%eax, bt_dev+22
.LBE316:
.LBE317:
	.loc 1 5371 0
	call	net_buf_unref
.LVL259:
	.loc 1 5372 0
	addl	$12, %esp
	pushl	%ebx
	pushl	$0
	pushl	$4097
	call	bt_hci_cmd_send_sync
.LVL260:
	.loc 1 5376 0
	addl	$16, %esp
	testl	%eax, %eax
	movl	%eax, %edx
	jne	.L175
	.loc 1 5379 0
	movl	-48(%ebp), %edx
	.loc 1 5380 0
	subl	$12, %esp
	movl	8(%edx), %eax
.LVL261:
.LBB318:
.LBB319:
	.loc 1 5283 0
	movb	1(%eax), %cl
	movb	%cl, bt_dev+14
	.loc 1 5284 0
	movw	2(%eax), %cx
	movw	%cx, bt_dev+16
	.loc 1 5285 0
	movb	4(%eax), %cl
	movb	%cl, bt_dev+15
	.loc 1 5286 0
	movw	7(%eax), %cx
	.loc 1 5287 0
	movw	5(%eax), %ax
.LVL262:
.LBE319:
.LBE318:
	.loc 1 5380 0
	pushl	%edx
.LBB321:
.LBB320:
	.loc 1 5286 0
	movw	%cx, bt_dev+18
	.loc 1 5287 0
	movw	%ax, bt_dev+20
.LBE320:
.LBE321:
	.loc 1 5380 0
	call	net_buf_unref
.LVL263:
	.loc 1 5381 0
	addl	$12, %esp
	pushl	%ebx
	pushl	$0
	pushl	$4105
	call	bt_hci_cmd_send_sync
.LVL264:
	.loc 1 5384 0
	addl	$16, %esp
	testl	%eax, %eax
	movl	%eax, %edx
	jne	.L175
	.loc 1 5387 0
	movl	-48(%ebp), %eax
.LVL265:
	.loc 1 5388 0
	subl	$12, %esp
.LBB322:
.LBB323:
	.loc 1 5294 0
	movb	$0, bt_dev
.LBB324:
.LBB325:
	.loc 1 1455 0
	movl	8(%eax), %edx
.LVL266:
	movl	1(%edx), %ecx
	movl	%ecx, bt_dev+1
	movw	5(%edx), %dx
.LBE325:
.LBE324:
.LBE323:
.LBE322:
	.loc 1 5388 0
	pushl	%eax
.LVL267:
.LBB329:
.LBB328:
.LBB327:
.LBB326:
	.loc 1 1455 0
	movw	%dx, bt_dev+5
.LVL268:
.LBE326:
.LBE327:
.LBE328:
.LBE329:
	.loc 1 5388 0
	call	net_buf_unref
.LVL269:
	.loc 1 5389 0
	addl	$12, %esp
	pushl	%ebx
	pushl	$0
	pushl	$4098
	call	bt_hci_cmd_send_sync
.LVL270:
	.loc 1 5393 0
	addl	$16, %esp
	testl	%eax, %eax
	movl	%eax, %edx
	jne	.L175
	.loc 1 5396 0
	movl	-48(%ebp), %edx
.LVL271:
.LBB330:
.LBB331:
	.loc 1 5333 0
	movl	$bt_dev+30, %eax
.LVL272:
	movl	$16, %ecx
	movl	%eax, %edi
.LBE331:
.LBE330:
	.loc 1 5397 0
	subl	$12, %esp
.LBB333:
.LBB332:
	.loc 1 5333 0
	movl	8(%edx), %esi
	incl	%esi
	rep movsl
.LVL273:
.LBE332:
.LBE333:
	.loc 1 5397 0
	pushl	%edx
	call	net_buf_unref
.LVL274:
	addl	$16, %esp
	jmp	.L258
.LVL275:
.L175:
.LBE335:
.LBE337:
	.loc 1 5699 0
	testl	%edx, %edx
	jne	.L206
.L258:
.LBB338:
.LBB339:
	.loc 1 5457 0
	testb	$64, bt_dev+26
	.loc 1 5459 0
	movl	$-19, %edx
	.loc 1 5457 0
	je	.L206
	.loc 1 5461 0
	leal	-52(%ebp), %esi
	pushl	%ecx
	pushl	%esi
	pushl	$0
	pushl	$8195
	call	bt_hci_cmd_send_sync
.LVL276:
	.loc 1 5465 0
	addl	$16, %esp
	testl	%eax, %eax
	movl	%eax, %edx
	jne	.L178
	.loc 1 5468 0
	movl	-52(%ebp), %ecx
.LVL277:
	.loc 1 5469 0
	subl	$12, %esp
.LBB340:
.LBB341:
	.loc 1 5300 0
	movl	8(%ecx), %eax
.LVL278:
	movl	5(%eax), %edx
.LVL279:
	movl	1(%eax), %eax
.LBE341:
.LBE340:
	.loc 1 5469 0
	pushl	%ecx
.LVL280:
.LBB343:
.LBB342:
	.loc 1 5300 0
	movl	%edx, bt_dev+116
	movl	%eax, bt_dev+112
.LBE342:
.LBE343:
	.loc 1 5469 0
	call	net_buf_unref
.LVL281:
	.loc 1 5470 0
	addl	$12, %esp
	pushl	%esi
	pushl	$0
	pushl	$8194
	call	bt_hci_cmd_send_sync
.LVL282:
	.loc 1 5473 0
	addl	$16, %esp
	testl	%eax, %eax
	movl	%eax, %edx
	jne	.L178
	movl	-52(%ebp), %eax
.LVL283:
	movl	8(%eax), %edx
.LVL284:
.LBB344:
.LBB345:
	.loc 1 5321 0
	movw	1(%edx), %ax
.LVL285:
	.loc 1 5322 0
	testw	%ax, %ax
	.loc 1 5321 0
	movw	%ax, bt_dev+128
	.loc 1 5322 0
	je	.L179
.LVL286:
	.loc 1 5327 0
	movzbl	3(%edx), %eax
	movl	$10, %edx
.LVL287:
	cmpb	$10, %al
	cmova	%edx, %eax
	pushl	%edx
.LVL288:
	pushl	%eax
	pushl	%eax
	pushl	$bt_dev+132
	call	k_sem_init
.LVL289:
	addl	$16, %esp
.L179:
.LBE345:
.LBE344:
	.loc 1 5477 0
	subl	$12, %esp
	pushl	-52(%ebp)
	call	net_buf_unref
.LVL290:
	.loc 1 5478 0
	addl	$16, %esp
	testb	$32, bt_dev+26
	je	.L180
.L184:
	.loc 1 5494 0
	testb	$8, bt_dev+58
	je	.L182
	jmp	.L263
.L180:
	.loc 1 5479 0
	pushl	%eax
	pushl	%eax
	pushl	$2
	pushl	$3181
	call	bt_hci_cmd_create
.LVL291:
	.loc 1 5481 0
	addl	$16, %esp
	testl	%eax, %eax
	.loc 1 5479 0
	movl	%eax, %edi
.LVL292:
	.loc 1 5481 0
	jne	.L183
.LVL293:
.L187:
	.loc 1 5482 0
	movl	$-55, %edx
	jmp	.L206
.LVL294:
.L183:
.LVL295:
	.loc 1 5484 0
	pushl	%eax
	pushl	%eax
	leal	8(%edi), %eax
	pushl	$2
	pushl	%eax
	call	net_buf_simple_add
.LVL296:
	.loc 1 5487 0
	addl	$12, %esp
	.loc 1 5485 0
	movb	$1, (%eax)
	.loc 1 5486 0
	movb	$0, 1(%eax)
	.loc 1 5487 0
	pushl	$0
	pushl	%edi
	pushl	$3181
	call	bt_hci_cmd_send_sync
.LVL297:
	.loc 1 5490 0
	addl	$16, %esp
	testl	%eax, %eax
	je	.L184
	jmp	.L217
.LVL298:
.L263:
	.loc 1 5495 0
	pushl	%edi
	pushl	%esi
	pushl	$0
	pushl	$8220
	call	bt_hci_cmd_send_sync
.LVL299:
	.loc 1 5499 0
	addl	$16, %esp
	testl	%eax, %eax
	movl	%eax, %edx
	jne	.L178
	.loc 1 5502 0
	movl	-52(%ebp), %ecx
.LVL300:
	.loc 1 5503 0
	subl	$12, %esp
.LBB346:
.LBB347:
.LBB348:
.LBB349:
	.loc 1 1289 0
	movl	8(%ecx), %eax
.LVL301:
	movl	5(%eax), %edx
.LVL302:
	movl	1(%eax), %eax
.LVL303:
.LBE349:
.LBE348:
.LBE347:
.LBE346:
	.loc 1 5503 0
	pushl	%ecx
.LVL304:
.LBB351:
.LBB350:
	.loc 1 5350 0
	movl	%eax, bt_dev+120
	movl	%edx, bt_dev+124
.LBE350:
.LBE351:
	.loc 1 5503 0
	call	net_buf_unref
.LVL305:
	addl	$16, %esp
.L182:
	.loc 1 5505 0
	testb	$32, bt_dev+112
	je	.L185
.LBB352:
	.loc 1 5511 0
	pushl	%ecx
	pushl	%ebx
	pushl	$0
	pushl	$8239
	call	bt_hci_cmd_send_sync
.LVL306:
	.loc 1 5515 0
	addl	$16, %esp
	testl	%eax, %eax
	movl	%eax, %edx
	jne	.L178
	.loc 1 5518 0
	movl	-48(%ebp), %eax
.LVL307:
	.loc 1 5521 0
	subl	$12, %esp
	.loc 1 5518 0
	movl	8(%eax), %edx
.LVL308:
	.loc 1 5519 0
	movw	1(%edx), %di
.LVL309:
	.loc 1 5520 0
	movw	3(%edx), %si
.LVL310:
	.loc 1 5521 0
	pushl	%eax
	call	net_buf_unref
.LVL311:
	.loc 1 5522 0
	popl	%eax
	popl	%edx
	pushl	$4
	pushl	$8228
	call	bt_hci_cmd_create
.LVL312:
	.loc 1 5524 0
	addl	$16, %esp
	testl	%eax, %eax
	.loc 1 5522 0
	movl	%eax, %ecx
.LVL313:
	.loc 1 5525 0
	movl	$-55, %edx
	.loc 1 5524 0
	je	.L206
.LVL314:
	.loc 1 5527 0
	pushl	%eax
	pushl	%eax
	leal	8(%ecx), %eax
	pushl	$4
	movl	%ecx, -60(%ebp)
	pushl	%eax
	call	net_buf_simple_add
.LVL315:
	.loc 1 5530 0
	movl	-60(%ebp), %ecx
	addl	$12, %esp
	.loc 1 5528 0
	movw	%di, (%eax)
	.loc 1 5529 0
	movw	%si, 2(%eax)
	.loc 1 5530 0
	pushl	$0
	pushl	%ecx
	pushl	$8228
	call	bt_hci_cmd_send_sync
.LVL316:
	.loc 1 5534 0
	addl	$16, %esp
	testl	%eax, %eax
	jne	.L217
.LVL317:
.L185:
.LBE352:
.LBB353:
.LBB354:
	.loc 1 5411 0
	pushl	%eax
	pushl	%eax
	pushl	$8
	pushl	$8193
	call	bt_hci_cmd_create
.LVL318:
	.loc 1 5412 0
	addl	$16, %esp
	testl	%eax, %eax
	.loc 1 5411 0
	movl	%eax, %esi
.LVL319:
	.loc 1 5412 0
	je	.L187
.LVL320:
	.loc 1 5415 0
	pushl	%eax
	pushl	%eax
	leal	8(%esi), %eax
	pushl	$8
	pushl	%eax
	call	net_buf_simple_add
.LVL321:
	.loc 1 5426 0
	movb	bt_dev+112, %cl
	addl	$16, %esp
	movb	%cl, %dl
	andl	$2, %edx
	.loc 1 5427 0
	cmpb	$1, %dl
	sbbl	%edx, %edx
	andl	$-32, %edx
	addl	$47, %edx
.LVL322:
	.loc 1 5429 0
	testb	$32, %cl
	je	.L189
	.loc 1 5430 0
	orl	$64, %edx
.L189:
	.loc 1 5432 0
	testb	$9, bt_dev+113
	je	.L190
	.loc 1 5434 0
	orb	$8, %dh
.L190:
	.loc 1 5437 0
	andb	$1, %cl
	je	.L191
	.loc 1 5439 0
	orl	$16, %edx
.L191:
	.loc 1 5441 0
	movb	bt_dev+64, %cl
	.loc 1 5444 0
	movl	%edx, %edi
	orl	$384, %edi
	.loc 1 5441 0
	andl	$6, %ecx
	.loc 1 5444 0
	cmpb	$6, %cl
	.loc 1 5446 0
	movl	%eax, %ecx
	.loc 1 5444 0
	cmove	%edi, %edx
	.loc 1 5446 0
	movl	%edx, %eax
.LVL323:
	xorl	%edx, %edx
	call	sys_put_le64
.LVL324:
	.loc 1 5447 0
	pushl	%edi
	pushl	$0
	pushl	%esi
	pushl	$8193
	call	bt_hci_cmd_send_sync
.LVL325:
	addl	$16, %esp
	movl	%eax, %edx
	jmp	.L178
.LVL326:
.L217:
.LBE354:
.LBE353:
	.loc 1 5490 0
	movl	%eax, %edx
.LVL327:
.L178:
.LBE339:
.LBE338:
	.loc 1 5703 0
	testl	%edx, %edx
	jne	.L206
	.loc 1 5706 0
	testb	$32, bt_dev+26
	je	.L193
.L197:
.LVL328:
.LBB355:
.LBB356:
	.loc 1 5578 0
	pushl	%ebx
	pushl	%ebx
	pushl	$8
	pushl	$3073
	call	bt_hci_cmd_create
.LVL329:
	.loc 1 5579 0
	addl	$16, %esp
	testl	%eax, %eax
	.loc 1 5578 0
	movl	%eax, %ebx
.LVL330:
	.loc 1 5580 0
	movl	$-55, %edx
	.loc 1 5579 0
	jne	.L259
	jmp	.L206
.LVL331:
.L193:
.LBE356:
.LBE355:
.LBB359:
.LBB360:
	.loc 1 5560 0
	cmpw	$0, bt_dev+128
	jne	.L197
	.loc 1 5563 0
	pushl	%ecx
	pushl	%ebx
	pushl	$0
	pushl	$4101
	call	bt_hci_cmd_send_sync
.LVL332:
	.loc 1 5566 0
	addl	$16, %esp
	testl	%eax, %eax
	movl	%eax, %edx
	jne	.L206
.LVL333:
.LBB361:
.LBB362:
	.loc 1 5307 0
	cmpw	$0, bt_dev+128
	jne	.L196
	movl	-48(%ebp), %eax
.LVL334:
	movl	8(%eax), %eax
	.loc 1 5310 0
	movw	1(%eax), %dx
.LVL335:
	.loc 1 5311 0
	movzwl	4(%eax), %eax
.LVL336:
	.loc 1 5310 0
	movw	%dx, bt_dev+128
.LVL337:
	.loc 1 5314 0
	movl	$10, %edx
	cmpw	$10, %ax
	cmova	%edx, %eax
.LVL338:
	pushl	%edx
.LVL339:
	pushl	%eax
	pushl	%eax
	pushl	$bt_dev+132
	call	k_sem_init
.LVL340:
	addl	$16, %esp
.L196:
.LBE362:
.LBE361:
	.loc 1 5570 0
	subl	$12, %esp
	pushl	-48(%ebp)
	call	net_buf_unref
.LVL341:
	addl	$16, %esp
	jmp	.L197
.LVL342:
.L259:
.LBE360:
.LBE359:
.LBB363:
.LBB357:
	.loc 1 5582 0
	leal	8(%eax), %eax
.LVL343:
	pushl	%edi
	pushl	%edi
	pushl	$8
	pushl	%eax
	call	net_buf_simple_add
.LVL344:
	.loc 1 5612 0
	addl	$16, %esp
	testb	$1, bt_dev+112
	.loc 1 5582 0
	movl	%eax, %ecx
.LVL345:
	.loc 1 5610 0
	movl	$536870912, %edx
	movl	$33589264, %eax
.LVL346:
	.loc 1 5612 0
	je	.L198
	.loc 1 5615 0
	movl	$33589392, %eax
	movl	$536903680, %edx
.L198:
.LVL347:
	.loc 1 5617 0
	call	sys_put_le64
.LVL348:
	.loc 1 5618 0
	pushl	%esi
	pushl	$0
	pushl	%ebx
	pushl	$3073
	call	bt_hci_cmd_send_sync
.LVL349:
.LBE357:
.LBE363:
	.loc 1 5716 0
	addl	$16, %esp
	testl	%eax, %eax
.LBB364:
.LBB358:
	.loc 1 5618 0
	movl	%eax, %edx
.LVL350:
.LBE358:
.LBE364:
	.loc 1 5716 0
	jne	.L206
	.loc 1 5719 0
	leal	-35(%ebp), %edi
	xorl	%eax, %eax
	movl	$7, %ecx
	rep stosb
.LVL351:
.LBB365:
.LBB366:
	.loc 1 1451 0
	leal	-35(%ebp), %eax
.LVL352:
	pushl	%ebx
	pushl	$7
	pushl	%eax
	pushl	$bt_dev
	call	memcmp
.LVL353:
	addl	$16, %esp
.LVL354:
.LBE366:
.LBE365:
	.loc 1 5719 0
	testl	%eax, %eax
	jne	.L199
.L202:
.LBB367:
.LBB368:
	.loc 1 5650 0
	movl	bt_storage, %eax
	testl	%eax, %eax
	jne	.L200
	jmp	.L201
.L199:
.LBE368:
.LBE367:
	.loc 1 5720 0
	leal	-42(%ebp), %edi
	movl	$.LC0, %esi
	movl	$7, %ecx
	rep movsb
.LVL355:
.LBB374:
.LBB375:
	.loc 1 1451 0
	leal	-42(%ebp), %eax
.LVL356:
	pushl	%ecx
	pushl	$7
	pushl	%eax
	pushl	$bt_dev
	call	memcmp
.LVL357:
	addl	$16, %esp
.LVL358:
.LBE375:
.LBE374:
	.loc 1 5719 0
	testl	%eax, %eax
	je	.L202
	jmp	.L203
.L200:
.LBB376:
.LBB373:
.LBB369:
	.loc 1 5652 0
	pushl	$7
	pushl	$bt_dev
	pushl	$0
	pushl	$0
	call	*(%eax)
.LVL359:
	.loc 1 5656 0
	addl	$16, %esp
	cmpl	$7, %eax
	jne	.L201
	.loc 1 5657 0
	movb	$1, bt_dev
	jmp	.L204
.LVL360:
.L201:
.LBE369:
	.loc 1 5662 0
	subl	$12, %esp
	pushl	$bt_dev
	call	bt_addr_le_create_static
.LVL361:
	.loc 1 5663 0
	addl	$16, %esp
	testl	%eax, %eax
	movl	%eax, %edx
	jne	.L206
	.loc 1 5666 0
	movl	bt_storage, %eax
.LVL362:
	testl	%eax, %eax
	je	.L204
.LBB370:
	.loc 1 5668 0
	pushl	$7
	pushl	$bt_dev
	pushl	$0
	pushl	$0
	call	*4(%eax)
.LVL363:
	addl	$16, %esp
.L204:
.LBE370:
	.loc 1 5680 0
	cmpb	$1, bt_dev
	.loc 1 5683 0
	movl	$-22, %edx
	.loc 1 5680 0
	jne	.L206
	movb	bt_dev+6, %al
	andl	$-64, %eax
	cmpb	$-64, %al
	jne	.L206
	.loc 1 5685 0
	movl	$bt_dev+1, %eax
	call	set_random_address
.LVL364:
	.loc 1 5686 0
	testl	%eax, %eax
	movl	%eax, %edx
	jne	.L206
.LVL365:
.LBB371:
.LBB372:
	.loc 1 875 0
	pushl	%edx
	pushl	%edx
	pushl	$4
	pushl	$bt_dev+108
.LVL366:
	call	atomic_or
.LVL367:
	addl	$16, %esp
.L203:
.LBE372:
.LBE371:
.LBE373:
.LBE376:
.LBE378:
.LBE380:
	.loc 1 5811 0
	call	bt_conn_init
.LVL368:
	.loc 1 5812 0
	testl	%eax, %eax
	.loc 1 5811 0
	movl	%eax, %edx
.LVL369:
	.loc 1 5812 0
	jne	.L206
.LVL370:
.LBB381:
.LBB382:
.LBB383:
.LBB384:
	.loc 1 875 0
	pushl	%eax
	pushl	%eax
	pushl	$2
	pushl	$bt_dev+108
	movl	%edx, -60(%ebp)
.LVL371:
	call	atomic_or
.LVL372:
.LBE384:
.LBE383:
	.loc 1 5818 0
	movl	$0, (%esp)
	call	bt_le_scan_update
.LVL373:
	movl	-60(%ebp), %edx
	addl	$16, %esp
.LVL374:
.L206:
.LBE382:
.LBE381:
	.loc 1 5822 0
	movl	-28(%ebp), %ebx
	xorl	%gs:20, %ebx
	movl	%edx, %eax
	je	.L208
	call	__stack_chk_fail
.LVL375:
.L208:
	leal	-12(%ebp), %esp
	popl	%ebx
	.cfi_restore 3
	popl	%esi
	.cfi_restore 6
	popl	%edi
	.cfi_restore 7
	popl	%ebp
	.cfi_restore 5
	.cfi_def_cfa 4, 4
	ret
	.cfi_endproc
.LFE153:
	.size	bt_init, .-bt_init
	.section	.text.unlikely.bt_init
.LCOLDE26:
	.section	.text.bt_init
.LHOTE26:
	.section	.text.unlikely.init_work,"ax",@progbits
.LCOLDB27:
	.section	.text.init_work,"ax",@progbits
.LHOTB27:
	.type	init_work, @function
init_work:
.LFB154:
	.loc 1 5824 0
	.cfi_startproc
.LVL376:
	pushl	%ebp
	.cfi_def_cfa_offset 8
	.cfi_offset 5, -8
	movl	%esp, %ebp
	.cfi_def_cfa_register 5
	subl	$8, %esp
	.loc 1 5826 0
	call	bt_init
.LVL377:
	.loc 1 5827 0
	movl	ready_cb, %edx
	testl	%edx, %edx
	je	.L264
	.loc 1 5828 0
	movl	%eax, 8(%ebp)
	.loc 1 5830 0
	leave
	.cfi_remember_state
	.cfi_restore 5
	.cfi_def_cfa 4, 4
	.loc 1 5828 0
	jmp	*%edx
.LVL378:
.L264:
	.cfi_restore_state
	.loc 1 5830 0
	leave
	.cfi_restore 5
	.cfi_def_cfa 4, 4
	ret
	.cfi_endproc
.LFE154:
	.size	init_work, .-init_work
	.section	.text.unlikely.init_work
.LCOLDE27:
	.section	.text.init_work
.LHOTE27:
	.section	.text.unlikely.bt_send,"ax",@progbits
.LCOLDB28:
	.section	.text.bt_send,"ax",@progbits
.LHOTB28:
	.globl	bt_send
	.type	bt_send, @function
bt_send:
.LFB149:
	.loc 1 5732 0
	.cfi_startproc
.LVL379:
	pushl	%ebp
	.cfi_def_cfa_offset 8
	.cfi_offset 5, -8
	.loc 1 5738 0
	movl	bt_dev+200, %eax
	.loc 1 5732 0
	movl	%esp, %ebp
	.cfi_def_cfa_register 5
	.loc 1 5739 0
	popl	%ebp
	.cfi_restore 5
	.cfi_def_cfa 4, 4
	.loc 1 5738 0
	movl	12(%eax), %eax
	jmp	*%eax
.LVL380:
	.cfi_endproc
.LFE149:
	.size	bt_send, .-bt_send
	.section	.text.unlikely.bt_send
.LCOLDE28:
	.section	.text.bt_send
.LHOTE28:
	.section	.text.unlikely.bt_hci_cmd_send,"ax",@progbits
.LCOLDB29:
	.section	.text.bt_hci_cmd_send,"ax",@progbits
.LHOTB29:
	.globl	bt_hci_cmd_send
	.type	bt_hci_cmd_send, @function
bt_hci_cmd_send:
.LFB80:
	.loc 1 3844 0
	.cfi_startproc
.LVL381:
	pushl	%ebp
	.cfi_def_cfa_offset 8
	.cfi_offset 5, -8
	movl	%esp, %ebp
	.cfi_def_cfa_register 5
	pushl	%esi
	pushl	%ebx
	.cfi_offset 6, -12
	.cfi_offset 3, -16
	.loc 1 3844 0
	movl	12(%ebp), %ebx
	movl	8(%ebp), %esi
	.loc 1 3845 0
	testl	%ebx, %ebx
	jne	.L270
	.loc 1 3846 0
	movzwl	%si, %eax
	pushl	%edx
	pushl	%edx
	pushl	$0
	pushl	%eax
	call	bt_hci_cmd_create
.LVL382:
	movl	%eax, %ebx
.LVL383:
	.loc 1 3847 0
	addl	$16, %esp
	.loc 1 3848 0
	movl	$-55, %eax
.LVL384:
	.loc 1 3847 0
	testl	%ebx, %ebx
	je	.L271
.L270:
	.loc 1 3852 0
	cmpw	$3125, %si
	jne	.L272
.LBB385:
	.loc 1 3854 0
	subl	$12, %esp
	pushl	%ebx
	call	bt_send
.LVL385:
	movl	%eax, %esi
.LVL386:
	.loc 1 3855 0
	addl	$16, %esp
	xorl	%eax, %eax
.LVL387:
	testl	%esi, %esi
	je	.L271
	.loc 1 3857 0
	subl	$12, %esp
	pushl	%ebx
	call	net_buf_unref
.LVL388:
	addl	$16, %esp
	movl	%esi, %eax
	jmp	.L271
.LVL389:
.L272:
.LBE385:
	.loc 1 3861 0
	pushl	%eax
	pushl	%eax
	pushl	%ebx
	pushl	$bt_dev+188
	call	net_buf_put
.LVL390:
	.loc 1 3862 0
	movl	$g_poll_sem, (%esp)
	call	k_sem_give
.LVL391:
	.loc 1 3863 0
	addl	$16, %esp
	xorl	%eax, %eax
.L271:
	.loc 1 3864 0
	leal	-8(%ebp), %esp
	popl	%ebx
	.cfi_restore 3
.LVL392:
	popl	%esi
	.cfi_restore 6
	popl	%ebp
	.cfi_restore 5
	.cfi_def_cfa 4, 4
	ret
	.cfi_endproc
.LFE80:
	.size	bt_hci_cmd_send, .-bt_hci_cmd_send
	.section	.text.unlikely.bt_hci_cmd_send
.LCOLDE29:
	.section	.text.bt_hci_cmd_send
.LHOTE29:
	.section	.text.unlikely.hci_le_set_phy.isra.29,"ax",@progbits
.LCOLDB30:
	.section	.text.hci_le_set_phy.isra.29,"ax",@progbits
.LHOTB30:
	.type	hci_le_set_phy.isra.29, @function
hci_le_set_phy.isra.29:
.LFB204:
	.loc 1 4188 0
	.cfi_startproc
.LVL393:
	pushl	%ebp
	.cfi_def_cfa_offset 8
	.cfi_offset 5, -8
	movl	%esp, %ebp
	.cfi_def_cfa_register 5
	pushl	%esi
	pushl	%ebx
	.cfi_offset 6, -12
	.cfi_offset 3, -16
	.loc 1 4192 0
	pushl	%ebx
	pushl	%ebx
	.loc 1 4188 0
	movl	%eax, %esi
	.loc 1 4192 0
	pushl	$7
	pushl	$8242
	call	bt_hci_cmd_create
.LVL394:
	.loc 1 4193 0
	addl	$16, %esp
	testl	%eax, %eax
	je	.L279
	movl	%eax, %ebx
.LVL395:
	.loc 1 4196 0
	pushl	%eax
	pushl	%eax
	leal	8(%ebx), %eax
	pushl	$7
	pushl	%eax
	call	net_buf_simple_add
.LVL396:
	.loc 1 4197 0
	movw	(%esi), %dx
	.loc 1 4198 0
	movb	$0, 2(%eax)
	.loc 1 4199 0
	movb	$2, 3(%eax)
	.loc 1 4200 0
	movb	$2, 4(%eax)
	.loc 1 4201 0
	movw	$0, 5(%eax)
	.loc 1 4197 0
	movw	%dx, (%eax)
	.loc 1 4202 0
	popl	%edx
	popl	%ecx
	pushl	%ebx
	pushl	$8242
	call	bt_hci_cmd_send
.LVL397:
	addl	$16, %esp
	.loc 1 4203 0
	xorl	%eax, %eax
	jmp	.L278
.LVL398:
.L279:
	.loc 1 4194 0
	movl	$-55, %eax
.LVL399:
.L278:
	.loc 1 4204 0
	leal	-8(%ebp), %esp
	popl	%ebx
	.cfi_restore 3
	popl	%esi
	.cfi_restore 6
	popl	%ebp
	.cfi_restore 5
	.cfi_def_cfa 4, 4
	ret
	.cfi_endproc
.LFE204:
	.size	hci_le_set_phy.isra.29, .-hci_le_set_phy.isra.29
	.section	.text.unlikely.hci_le_set_phy.isra.29
.LCOLDE30:
	.section	.text.hci_le_set_phy.isra.29
.LHOTE30:
	.section	.text.unlikely.hci_le_set_data_len.isra.30,"ax",@progbits
.LCOLDB31:
	.section	.text.hci_le_set_data_len.isra.30,"ax",@progbits
.LHOTB31:
	.type	hci_le_set_data_len.isra.30, @function
hci_le_set_data_len.isra.30:
.LFB205:
	.loc 1 4157 0
	.cfi_startproc
	pushl	%ebp
	.cfi_def_cfa_offset 8
	.cfi_offset 5, -8
	movl	%esp, %ebp
	.cfi_def_cfa_register 5
	pushl	%edi
	pushl	%esi
	pushl	%ebx
	.cfi_offset 7, -12
	.cfi_offset 6, -16
	.cfi_offset 3, -20
	movl	%eax, %edi
	subl	$48, %esp
	.loc 1 4157 0
	movl	%gs:20, %eax
	movl	%eax, -28(%ebp)
	xorl	%eax, %eax
.LVL400:
	.loc 1 4164 0
	leal	-32(%ebp), %eax
	pushl	%eax
	pushl	$0
	pushl	$8239
	call	bt_hci_cmd_send_sync
.LVL401:
	.loc 1 4167 0
	addl	$16, %esp
	testl	%eax, %eax
	jne	.L282
	.loc 1 4170 0
	movl	-32(%ebp), %eax
.LVL402:
	.loc 1 4173 0
	subl	$12, %esp
	.loc 1 4170 0
	movl	8(%eax), %edx
.LVL403:
	.loc 1 4171 0
	movw	1(%edx), %si
.LVL404:
	.loc 1 4172 0
	movw	3(%edx), %bx
.LVL405:
	.loc 1 4173 0
	pushl	%eax
	call	net_buf_unref
.LVL406:
	.loc 1 4174 0
	popl	%eax
	popl	%edx
	pushl	$6
	pushl	$8226
	call	bt_hci_cmd_create
.LVL407:
	movl	%eax, %edx
.LVL408:
	.loc 1 4175 0
	addl	$16, %esp
	.loc 1 4176 0
	movl	$-55, %eax
.LVL409:
	.loc 1 4175 0
	testl	%edx, %edx
	je	.L282
	.loc 1 4178 0
	pushl	%eax
	pushl	%eax
	leal	8(%edx), %eax
	pushl	$6
	movl	%edx, -44(%ebp)
	pushl	%eax
	call	net_buf_simple_add
.LVL410:
	.loc 1 4179 0
	movw	(%edi), %cx
	.loc 1 4180 0
	movw	%si, 2(%eax)
	.loc 1 4181 0
	movw	%bx, 4(%eax)
	.loc 1 4179 0
	movw	%cx, (%eax)
	.loc 1 4182 0
	popl	%edx
	movl	-44(%ebp), %edx
	popl	%ecx
	pushl	%edx
	pushl	$8226
	call	bt_hci_cmd_send
.LVL411:
	addl	$16, %esp
.LVL412:
.L282:
	.loc 1 4187 0
	movl	-28(%ebp), %ecx
	xorl	%gs:20, %ecx
	je	.L283
	call	__stack_chk_fail
.LVL413:
.L283:
	leal	-12(%ebp), %esp
	popl	%ebx
	.cfi_restore 3
	popl	%esi
	.cfi_restore 6
	popl	%edi
	.cfi_restore 7
	popl	%ebp
	.cfi_restore 5
	.cfi_def_cfa 4, 4
	ret
	.cfi_endproc
.LFE205:
	.size	hci_le_set_data_len.isra.30, .-hci_le_set_data_len.isra.30
	.section	.text.unlikely.hci_le_set_data_len.isra.30
.LCOLDE31:
	.section	.text.hci_le_set_data_len.isra.30
.LHOTE31:
	.section	.text.unlikely.le_enh_conn_complete,"ax",@progbits
.LCOLDB32:
	.section	.text.le_enh_conn_complete,"ax",@progbits
.LHOTB32:
	.type	le_enh_conn_complete, @function
le_enh_conn_complete:
.LFB96:
	.loc 1 4223 0
	.cfi_startproc
.LVL414:
	pushl	%ebp
	.cfi_def_cfa_offset 8
	.cfi_offset 5, -8
	.loc 1 4229 0
	movl	$12, %edx
	.loc 1 4223 0
	movl	%esp, %ebp
	.cfi_def_cfa_register 5
	pushl	%edi
	pushl	%esi
	pushl	%ebx
	.cfi_offset 7, -12
	.cfi_offset 6, -16
	.cfi_offset 3, -20
	movl	%eax, %esi
	subl	$60, %esp
	.loc 1 4223 0
	movl	%gs:20, %eax
	movl	%eax, -28(%ebp)
	xorl	%eax, %eax
.LVL415:
	.loc 1 4224 0
	movw	1(%esi), %ax
	movw	%ax, -58(%ebp)
.LVL416:
	.loc 1 4229 0
	movl	$bt_dev+108, %eax
.LVL417:
	call	atomic_test_and_clear_bit
.LVL418:
	testl	%eax, %eax
	je	.L288
	.loc 1 4230 0
	pushl	%ecx
	pushl	%ecx
	pushl	$update_pending_id
	pushl	$2
	call	bt_keys_foreach
.LVL419:
	addl	$16, %esp
.L288:
	.loc 1 4232 0
	cmpb	$0, (%esi)
	je	.L289
	.loc 1 4233 0
	pushl	%edx
	pushl	%edx
	pushl	$2
	pushl	$0
	call	bt_conn_lookup_state_le
.LVL420:
	.loc 1 4236 0
	addl	$16, %esp
	testl	%eax, %eax
	.loc 1 4233 0
	movl	%eax, %ebx
.LVL421:
	.loc 1 4236 0
	je	.L287
	.loc 1 4239 0
	movb	(%esi), %al
.LVL422:
	movb	%al, 11(%ebx)
	.loc 1 4240 0
	pushl	%eax
	pushl	%eax
	pushl	$0
	pushl	%ebx
	call	bt_conn_set_state
.LVL423:
	.loc 1 4241 0
	movl	%ebx, (%esp)
	call	bt_conn_unref
.LVL424:
	jmp	.L336
.LVL425:
.L289:
	.loc 1 4244 0
	leal	4(%esi), %ebx
	leal	-35(%ebp), %edi
	movl	%ebx, %edx
	movl	%edi, %eax
	call	bt_addr_le_copy
.LVL426:
	.loc 1 4245 0
	movb	-35(%ebp), %al
	subl	$2, %eax
	cmpb	$1, %al
	ja	.L292
	.loc 1 4247 0
	movb	%al, -35(%ebp)
.LVL427:
.LBB396:
.LBB397:
	.loc 1 1455 0
	movl	17(%esi), %eax
.LBE397:
.LBE396:
	.loc 1 4249 0
	movb	$1, -42(%ebp)
.LBB399:
.LBB398:
	.loc 1 1455 0
	movl	%eax, -41(%ebp)
	movw	21(%esi), %ax
	movw	%ax, -37(%ebp)
.LVL428:
.LBE398:
.LBE399:
	jmp	.L293
.L292:
	.loc 1 4251 0
	leal	-42(%ebp), %eax
	movl	%ebx, %edx
	call	bt_addr_le_copy
.LVL429:
.L293:
	.loc 1 4253 0
	pushl	%eax
	pushl	%eax
	pushl	$2
	pushl	%edi
	call	bt_conn_lookup_state_le
.LVL430:
	.loc 1 4254 0
	addl	$16, %esp
	cmpb	$1, 3(%esi)
	.loc 1 4253 0
	movl	%eax, %ebx
.LVL431:
	.loc 1 4254 0
	jne	.L294
.LVL432:
.LVL433:
.LBB400:
.LBB401:
	.loc 1 870 0
	pushl	%eax
	pushl	%eax
	pushl	$-33
	pushl	$bt_dev+108
.LVL434:
	call	atomic_and
.LVL435:
.LBE401:
.LBE400:
	.loc 1 4256 0
	addl	$16, %esp
	testl	%ebx, %ebx
	jne	.L295
	.loc 1 4257 0
	subl	$12, %esp
	pushl	%edi
	call	bt_conn_add_le
.LVL436:
	addl	$16, %esp
	movl	%eax, %ebx
.LVL437:
.L294:
	.loc 1 4260 0
	testl	%ebx, %ebx
	je	.L287
.LVL438:
.L295:
	.loc 1 4264 0
	movw	-58(%ebp), %ax
	.loc 1 4265 0
	movl	%edi, %edx
	.loc 1 4264 0
	movw	%ax, (%ebx)
	.loc 1 4265 0
	leal	64(%ebx), %eax
	call	bt_addr_le_copy
.LVL439:
	.loc 1 4266 0
	movw	23(%esi), %ax
	movw	%ax, 86(%ebx)
	.loc 1 4267 0
	movw	25(%esi), %ax
	movw	%ax, 92(%ebx)
	.loc 1 4268 0
	movw	27(%esi), %ax
	movw	%ax, 94(%ebx)
	.loc 1 4269 0
	movb	3(%esi), %al
	movb	%al, 3(%ebx)
	.loc 1 4270 0
	decb	%al
	jne	.L297
	.loc 1 4271 0
	leal	71(%ebx), %eax
	leal	-42(%ebp), %edx
	call	bt_addr_le_copy
.LVL440:
	.loc 1 4276 0
	leal	78(%ebx), %eax
	movl	$bt_dev, %edx
	call	bt_addr_le_copy
.LVL441:
	.loc 1 4278 0
	movl	$6, %edx
	movl	$bt_dev+108, %eax
	call	atomic_test_bit
.LVL442:
	testl	%eax, %eax
	je	.L297
	.loc 1 4278 0 is_stmt 0 discriminator 1
	testb	$64, bt_dev+124
	je	.L297
	.loc 1 4283 0 is_stmt 1
	movl	$1, %eax
	call	set_advertise_enable
.LVL443:
.L297:
	.loc 1 4288 0
	pushl	%eax
	pushl	%eax
	pushl	$3
	pushl	%ebx
	call	bt_conn_set_state
.LVL444:
	.loc 1 4289 0
	addl	$16, %esp
	cmpb	$3, 12(%ebx)
	jne	.L299
	.loc 1 4292 0
	cmpb	$0, 3(%esi)
	je	.L300
	.loc 1 4292 0 is_stmt 0 discriminator 1
	testb	$8, bt_dev+112
	je	.L301
.L300:
.LVL445:
.LBB402:
.LBB403:
	.loc 1 4147 0 is_stmt 1
	pushl	%eax
	pushl	%eax
	pushl	$2
	pushl	$8214
	call	bt_hci_cmd_create
.LVL446:
	.loc 1 4149 0
	addl	$16, %esp
	testl	%eax, %eax
	.loc 1 4147 0
	movl	%eax, %esi
.LVL447:
	.loc 1 4149 0
	je	.L301
	.loc 1 4152 0
	leal	8(%eax), %eax
.LVL448:
	pushl	%ecx
	pushl	%ecx
	pushl	$2
	pushl	%eax
	call	net_buf_simple_add
.LVL449:
	.loc 1 4153 0
	movw	(%ebx), %dx
	movw	%dx, (%eax)
	.loc 1 4154 0
	popl	%edi
	popl	%eax
.LVL450:
	pushl	%esi
	pushl	$8214
	call	bt_hci_cmd_send
.LVL451:
	jmp	.L334
.LVL452:
.L301:
.LBE403:
.LBE402:
	.loc 1 4299 0
	testb	$1, bt_dev+113
	je	.L302
	.loc 1 4300 0
	movl	%ebx, %eax
	call	hci_le_set_phy.isra.29
.LVL453:
	.loc 1 4301 0
	testl	%eax, %eax
	jne	.L302
.LVL454:
.LBB404:
.LBB405:
	.loc 1 875 0
	pushl	%edx
	pushl	%edx
	pushl	$128
.LVL455:
.L335:
.LBE405:
.LBE404:
	.loc 1 4302 0
	leal	4(%ebx), %eax
.LBB407:
.LBB406:
	.loc 1 875 0
	pushl	%eax
	call	atomic_or
.LVL456:
.L334:
	addl	$16, %esp
	jmp	.L299
.L302:
.LBE406:
.LBE407:
	.loc 1 4306 0
	testb	$32, bt_dev+112
	je	.L303
	.loc 1 4307 0
	movl	%ebx, %eax
	call	hci_le_set_data_len.isra.30
.LVL457:
	.loc 1 4308 0
	testl	%eax, %eax
	jne	.L303
.LVL458:
.LVL459:
.LBB408:
.LBB409:
	.loc 1 875 0
	pushl	%eax
	pushl	%eax
	pushl	$256
	jmp	.L335
.LVL460:
.L303:
.LBE409:
.LBE408:
	.loc 1 4313 0
	movl	%ebx, %eax
	call	update_conn_param
.LVL461:
.L299:
	.loc 1 4315 0
	subl	$12, %esp
	pushl	%ebx
	call	bt_conn_unref
.LVL462:
	.loc 1 4316 0
	movl	$0, (%esp)
	call	bt_le_scan_update
.LVL463:
.L336:
	addl	$16, %esp
.L287:
	.loc 1 4319 0
	movl	-28(%ebp), %eax
	xorl	%gs:20, %eax
	je	.L305
	call	__stack_chk_fail
.LVL464:
.L305:
	leal	-12(%ebp), %esp
	popl	%ebx
	.cfi_restore 3
.LVL465:
	popl	%esi
	.cfi_restore 6
	popl	%edi
	.cfi_restore 7
	popl	%ebp
	.cfi_restore 5
	.cfi_def_cfa 4, 4
.LVL466:
	ret
	.cfi_endproc
.LFE96:
	.size	le_enh_conn_complete, .-le_enh_conn_complete
	.section	.text.unlikely.le_enh_conn_complete
.LCOLDE32:
	.section	.text.le_enh_conn_complete
.LHOTE32:
	.section	.text.unlikely.le_conn_param_neg_reply,"ax",@progbits
.LCOLDB33:
	.section	.text.le_conn_param_neg_reply,"ax",@progbits
.LHOTB33:
	.type	le_conn_param_neg_reply, @function
le_conn_param_neg_reply:
.LFB102:
	.loc 1 4455 0
	.cfi_startproc
.LVL467:
	pushl	%ebp
	.cfi_def_cfa_offset 8
	.cfi_offset 5, -8
	movl	%esp, %ebp
	.cfi_def_cfa_register 5
	pushl	%edi
	pushl	%esi
	pushl	%ebx
	.cfi_offset 7, -12
	.cfi_offset 6, -16
	.cfi_offset 3, -20
	movl	%eax, %edi
	movl	%edx, %esi
	subl	$20, %esp
	.loc 1 4458 0
	pushl	$3
	pushl	$8225
	call	bt_hci_cmd_create
.LVL468:
	.loc 1 4460 0
	addl	$16, %esp
	testl	%eax, %eax
	je	.L339
	movl	%eax, %ebx
.LVL469:
	.loc 1 4463 0
	pushl	%eax
	pushl	%eax
	leal	8(%ebx), %eax
	pushl	$3
	pushl	%eax
	call	net_buf_simple_add
.LVL470:
	.loc 1 4465 0
	movl	%esi, %ecx
	.loc 1 4464 0
	movw	%di, (%eax)
	.loc 1 4465 0
	movb	%cl, 2(%eax)
	.loc 1 4466 0
	popl	%edx
	popl	%ecx
	pushl	%ebx
	pushl	$8225
	call	bt_hci_cmd_send
.LVL471:
	addl	$16, %esp
	jmp	.L338
.LVL472:
.L339:
	.loc 1 4461 0
	movl	$-55, %eax
.LVL473:
.L338:
	.loc 1 4467 0
	leal	-12(%ebp), %esp
	popl	%ebx
	.cfi_restore 3
	popl	%esi
	.cfi_restore 6
	popl	%edi
	.cfi_restore 7
	popl	%ebp
	.cfi_restore 5
	.cfi_def_cfa 4, 4
	ret
	.cfi_endproc
.LFE102:
	.size	le_conn_param_neg_reply, .-le_conn_param_neg_reply
	.section	.text.unlikely.le_conn_param_neg_reply
.LCOLDE33:
	.section	.text.le_conn_param_neg_reply
.LHOTE33:
	.section	.text.unlikely.hci_rx_thread,"ax",@progbits
.LCOLDB34:
	.section	.text.hci_rx_thread,"ax",@progbits
.LHOTB34:
	.type	hci_rx_thread, @function
hci_rx_thread:
.LFB155:
	.loc 1 5832 0
	.cfi_startproc
	pushl	%ebp
	.cfi_def_cfa_offset 8
	.cfi_offset 5, -8
	movl	%esp, %ebp
	.cfi_def_cfa_register 5
	pushl	%edi
	pushl	%esi
	pushl	%ebx
	subl	$124, %esp
	.cfi_offset 7, -12
	.cfi_offset 6, -16
	.cfi_offset 3, -20
	.loc 1 5832 0
	movl	%gs:20, %eax
	movl	%eax, -28(%ebp)
	xorl	%eax, %eax
.L424:
	.loc 1 5837 0
	pushl	%eax
	pushl	%eax
	pushl	$-1
	pushl	$bt_dev+164
	call	net_buf_get
.LVL474:
	movl	%eax, -108(%ebp)
.LVL475:
.LBB488:
.LBB489:
	.loc 1 3038 0
	call	net_buf_user_data
.LVL476:
.LBE489:
.LBE488:
	.loc 1 5839 0
	movb	(%eax), %dl
	addl	$16, %esp
	cmpb	$1, %dl
	je	.L343
	cmpb	$3, %dl
	jne	.L523
.LVL477:
.LBB490:
.LBB491:
	.loc 1 4016 0
	movl	-108(%ebp), %edi
	movl	8(%edi), %edx
.LVL478:
	.loc 1 4021 0
	movw	(%edx), %bx
	.loc 1 4017 0
	movw	2(%edx), %si
.LVL479:
	.loc 1 4023 0
	movl	%ebx, %edx
.LVL480:
	andw	$4095, %dx
	movw	%dx, 2(%eax)
.LVL481:
	.loc 1 4024 0
	movl	%edi, %eax
	call	net_buf_user_data
.LVL482:
	movb	$-1, 1(%eax)
	.loc 1 4025 0
	pushl	%eax
	pushl	%eax
	movl	%edi, %eax
	pushl	$4
	addl	$8, %eax
	pushl	%eax
	call	net_buf_simple_pull
.LVL483:
	.loc 1 4027 0
	movl	-108(%ebp), %eax
	addl	$16, %esp
	cmpw	12(%eax), %si
	je	.L345
	.loc 1 4029 0
	subl	$12, %esp
	pushl	%eax
	jmp	.L530
.L345:
	.loc 1 4032 0
	movl	-108(%ebp), %eax
	call	net_buf_user_data
.LVL484:
	movzwl	2(%eax), %eax
	subl	$12, %esp
	pushl	%eax
	call	bt_conn_lookup_handle
.LVL485:
	.loc 1 4033 0
	addl	$16, %esp
	testl	%eax, %eax
	.loc 1 4032 0
	movl	%eax, %esi
.LVL486:
	.loc 1 4033 0
	je	.L523
	.loc 1 4038 0
	movl	-108(%ebp), %eax
.LVL487:
	.loc 1 4039 0
	shrw	$12, %bx
.LVL488:
	movzwl	%bx, %ebx
	.loc 1 4038 0
	call	net_buf_user_data
.LVL489:
	subl	$12, %esp
	movl	%eax, %edi
	pushl	%esi
	call	bt_conn_get_id
.LVL490:
	.loc 1 4039 0
	addl	$12, %esp
	.loc 1 4038 0
	movb	%al, 1(%edi)
	.loc 1 4039 0
	pushl	%ebx
	pushl	-108(%ebp)
	pushl	%esi
	call	bt_conn_recv
.LVL491:
	.loc 1 4040 0
	movl	%esi, (%esp)
	call	bt_conn_unref
.LVL492:
	jmp	.L531
.LVL493:
.L343:
.LBE491:
.LBE490:
.LBB492:
.LBB493:
	.loc 1 5159 0
	movl	-108(%ebp), %eax
	movl	8(%eax), %ebx
.LVL494:
	.loc 1 5162 0
	addl	$8, %eax
	pushl	%edi
	pushl	%edi
	pushl	$2
	pushl	%eax
	movl	%eax, -116(%ebp)
	call	net_buf_simple_pull
.LVL495:
	.loc 1 5163 0
	movb	(%ebx), %al
	addl	$16, %esp
	cmpb	$8, %al
	je	.L349
	ja	.L350
	cmpb	$5, %al
	je	.L351
	jmp	.L523
.L350:
	cmpb	$48, %al
	je	.L352
	cmpb	$62, %al
	je	.L353
	jmp	.L523
.L351:
	movl	-108(%ebp), %eax
	movl	8(%eax), %esi
.LVL496:
.LBB494:
.LBB495:
	.loc 1 4106 0
	cmpb	$0, (%esi)
	jne	.L523
	.loc 1 4109 0
	movzwl	1(%esi), %eax
.LVL497:
	subl	$12, %esp
	pushl	%eax
.LVL498:
	call	bt_conn_lookup_handle
.LVL499:
	.loc 1 4110 0
	addl	$16, %esp
	testl	%eax, %eax
	.loc 1 4109 0
	movl	%eax, %ebx
.LVL500:
	.loc 1 4110 0
	je	.L355
	.loc 1 4114 0
	movb	3(%esi), %al
.LVL501:
.LVL502:
	movb	%al, 11(%ebx)
.LVL503:
	.loc 1 4118 0
	pushl	%esi
	pushl	%esi
	pushl	$0
	pushl	%ebx
	call	bt_conn_set_state
.LVL504:
	.loc 1 4120 0
	addl	$16, %esp
	cmpb	$0, 2(%ebx)
	.loc 1 4119 0
	movw	$0, (%ebx)
	.loc 1 4120 0
	jne	.L396
	.loc 1 4124 0
	leal	4(%ebx), %eax
	xorl	%edx, %edx
	call	atomic_test_bit
.LVL505:
	testl	%eax, %eax
	je	.L357
	.loc 1 4125 0
	pushl	%ecx
	pushl	%ecx
	pushl	$1
	pushl	%ebx
	call	bt_conn_set_state
.LVL506:
	.loc 1 4126 0
	movl	$0, (%esp)
	call	bt_le_scan_update
.LVL507:
	addl	$16, %esp
.L357:
	.loc 1 4130 0
	subl	$12, %esp
	pushl	%ebx
	call	bt_conn_unref
.LVL508:
	addl	$16, %esp
.LVL509:
.L355:
	.loc 1 4132 0
	movl	$6, %edx
	movl	$bt_dev+108, %eax
	call	atomic_test_bit
.LVL510:
	testl	%eax, %eax
	je	.L523
	.loc 1 4133 0
	movl	$5, %edx
	movl	$bt_dev+108, %eax
	call	atomic_test_bit
.LVL511:
	.loc 1 4132 0
	testl	%eax, %eax
	jne	.L523
	.loc 1 4138 0
	movl	$1, %eax
	call	set_advertise_enable
.LVL512:
	jmp	.L523
.LVL513:
.L349:
	movl	-108(%ebp), %eax
.LBE495:
.LBE494:
.LBB496:
.LBB497:
	.loc 1 4781 0
	subl	$12, %esp
	movl	8(%eax), %esi
.LVL514:
	movzwl	1(%esi), %eax
.LVL515:
	pushl	%eax
.LVL516:
	call	bt_conn_lookup_handle
.LVL517:
	.loc 1 4782 0
	addl	$16, %esp
	testl	%eax, %eax
	.loc 1 4781 0
	movl	%eax, %ebx
.LVL518:
	.loc 1 4782 0
	je	.L523
	.loc 1 4786 0
	cmpb	$0, (%esi)
	je	.L359
	.loc 1 4787 0
	cmpb	$0, 2(%eax)
	jne	.L396
	.loc 1 4788 0
	movb	8(%eax), %al
.LVL519:
	movb	%al, 9(%ebx)
	jmp	.L396
.LVL520:
.L359:
	.loc 1 4794 0
	cmpb	$0, 2(%ebx)
	.loc 1 4793 0
	movb	3(%esi), %al
.LVL521:
	movb	%al, 10(%ebx)
	.loc 1 4794 0
	jne	.L365
	.loc 1 4795 0
	testb	%al, %al
	je	.L536
	jmp	.L539
.LVL522:
.L352:
	movl	-108(%ebp), %eax
.LBE497:
.LBE496:
.LBB498:
.LBB499:
	.loc 1 4811 0
	subl	$12, %esp
	movl	8(%eax), %esi
.LVL523:
	movzwl	1(%esi), %eax
.LVL524:
	pushl	%eax
.LVL525:
	call	bt_conn_lookup_handle
.LVL526:
	.loc 1 4812 0
	addl	$16, %esp
	testl	%eax, %eax
	.loc 1 4811 0
	movl	%eax, %ebx
.LVL527:
	.loc 1 4812 0
	je	.L523
	.loc 1 4816 0
	movzbl	(%esi), %eax
.LVL528:
	testb	%al, %al
	je	.L364
	.loc 1 4817 0
	pushl	%edx
	pushl	%edx
	pushl	%eax
	pushl	%ebx
	call	bt_l2cap_encrypt_change
.LVL529:
	jmp	.L528
.L364:
	.loc 1 4820 0
	cmpb	$0, 2(%ebx)
	jne	.L365
.LVL530:
.L539:
	.loc 1 4821 0
	subl	$12, %esp
	pushl	%ebx
	call	bt_smp_update_keys
.LVL531:
.LBB500:
.LBB501:
	.loc 1 4756 0
	addl	$16, %esp
.LVL532:
.L536:
	cmpb	$0, 10(%ebx)
	jne	.L366
	.loc 1 4757 0
	movb	$1, 8(%ebx)
	jmp	.L365
.L366:
	movl	%ebx, %eax
	call	update_sec_level.part.15
.LVL533:
.L365:
.LBE501:
.LBE500:
	.loc 1 4824 0
	pushl	%eax
	pushl	%eax
	movzbl	(%esi), %eax
	pushl	%eax
	pushl	%ebx
	call	bt_l2cap_encrypt_change
.LVL534:
	.loc 1 4825 0
	movl	%ebx, (%esp)
	call	bt_conn_security_changed
.LVL535:
	.loc 1 4826 0
	movl	%ebx, (%esp)
	jmp	.L534
.LVL536:
.L353:
.LBE499:
.LBE498:
.LBB502:
.LBB503:
	.loc 1 5115 0
	movl	-108(%ebp), %eax
	movl	8(%eax), %ebx
.LVL537:
	.loc 1 5117 0
	pushl	%eax
	pushl	%eax
	pushl	$1
	pushl	-116(%ebp)
	call	net_buf_simple_pull
.LVL538:
	.loc 1 5118 0
	movb	(%ebx), %al
	addl	$16, %esp
	decl	%eax
	cmpb	$11, %al
	ja	.L523
	movzbl	%al, %eax
	jmp	*.L368(,%eax,4)
	.section	.rodata.hci_rx_thread,"a",@progbits
	.align 4
	.align 4
.L368:
	.long	.L367
	.long	.L369
	.long	.L370
	.long	.L371
	.long	.L372
	.long	.L373
	.long	.L374
	.long	.L375
	.long	.L376
	.long	.L377
	.long	.L523
	.long	.L378
	.section	.text.hci_rx_thread
.L367:
	movl	-108(%ebp), %eax
.LBB504:
.LBB505:
	.loc 1 4333 0
	leal	-70(%ebp), %ebx
.LVL539:
	.loc 1 4337 0
	leal	-86(%ebp), %edi
	movl	8(%eax), %edx
.LVL540:
	.loc 1 4326 0
	movb	(%edx), %al
.LVL541:
	.loc 1 4333 0
	addl	$4, %edx
.LVL542:
	.loc 1 4326 0
	movb	%al, -74(%ebp)
.LVL543:
	.loc 1 4327 0
	movw	-3(%edx), %ax
	movw	%ax, -73(%ebp)
	.loc 1 4328 0
	movb	-1(%edx), %al
	movb	%al, -71(%ebp)
	.loc 1 4329 0
	movw	7(%edx), %ax
	movw	%ax, -51(%ebp)
	.loc 1 4330 0
	movw	9(%edx), %ax
	movw	%ax, -49(%ebp)
	.loc 1 4331 0
	movw	11(%edx), %ax
	movw	%ax, -47(%ebp)
	.loc 1 4332 0
	movb	13(%edx), %al
	movb	%al, -45(%ebp)
	.loc 1 4333 0
	movl	%ebx, %eax
	call	bt_addr_le_copy
.LVL544:
.LBB506:
.LBB507:
	.loc 1 3914 0
	subl	$12, %esp
.LBE507:
.LBE506:
	.loc 1 4337 0
	xorl	%eax, %eax
	movl	$6, %ecx
	rep stosb
.LVL545:
.LBB510:
.LBB508:
	.loc 1 3914 0
	pushl	%ebx
.LBE508:
.LBE510:
.LBB511:
.LBB512:
	.loc 1 1455 0
	movl	$0, -63(%ebp)
	movw	$0, -59(%ebp)
.LVL546:
.LBE512:
.LBE511:
.LBB513:
.LBB509:
	.loc 1 3914 0
	call	bt_keys_find_irk
.LVL547:
	.loc 1 3915 0
	addl	$16, %esp
	testl	%eax, %eax
	je	.L379
.LVL548:
.LBE509:
.LBE513:
	.loc 1 4340 0
	cmpl	%ebx, %eax
	je	.L379
.LVL549:
.LBB514:
.LBB515:
	.loc 1 1455 0
	movl	-69(%ebp), %edx
	movl	%edx, -57(%ebp)
	movw	-65(%ebp), %dx
	movw	%dx, -53(%ebp)
.LVL550:
.LBE515:
.LBE514:
	.loc 1 4342 0
	movl	%eax, %edx
	movl	%ebx, %eax
	call	bt_addr_le_copy
.LVL551:
	.loc 1 4343 0
	addb	$2, -70(%ebp)
	jmp	.L380
.L379:
	.loc 1 4345 0
	leal	-80(%ebp), %edi
	movl	$6, %ecx
	xorl	%eax, %eax
.LBB516:
.LBB517:
	.loc 1 1455 0
	movl	$0, -57(%ebp)
	movw	$0, -53(%ebp)
.LBE517:
.LBE516:
	.loc 1 4345 0
	rep stosb
.LVL552:
.L380:
	.loc 1 4347 0
	leal	-74(%ebp), %eax
	jmp	.L529
.LVL553:
.L377:
.LBE505:
.LBE504:
	.loc 1 5123 0
	movl	-108(%ebp), %eax
	movl	8(%eax), %eax
.LVL554:
.L529:
	call	le_enh_conn_complete
.LVL555:
	jmp	.L523
.LVL556:
.L370:
	movl	-108(%ebp), %eax
.LBB518:
.LBB519:
	.loc 1 4520 0
	subl	$12, %esp
	movl	8(%eax), %esi
.LVL557:
	movzwl	1(%esi), %eax
.LVL558:
	pushl	%eax
.LVL559:
	call	bt_conn_lookup_handle
.LVL560:
	.loc 1 4521 0
	addl	$16, %esp
	testl	%eax, %eax
	.loc 1 4520 0
	movl	%eax, %ebx
.LVL561:
	.loc 1 4521 0
	je	.L523
	.loc 1 4525 0
	cmpb	$0, (%esi)
	jne	.L396
	.loc 1 4526 0
	movw	3(%esi), %ax
.LVL562:
	.loc 1 4529 0
	subl	$12, %esp
	.loc 1 4526 0
	movw	%ax, 86(%ebx)
	.loc 1 4527 0
	movw	5(%esi), %ax
	movw	%ax, 92(%ebx)
	.loc 1 4528 0
	movw	7(%esi), %ax
	movw	%ax, 94(%ebx)
	.loc 1 4529 0
	pushl	%ebx
	call	notify_le_param_updated
.LVL563:
	jmp	.L538
.LVL564:
.L371:
	movl	-108(%ebp), %eax
.LBE519:
.LBE518:
.LBB520:
.LBB521:
	.loc 1 4354 0
	subl	$12, %esp
	movl	8(%eax), %esi
.LVL565:
	movzwl	1(%esi), %eax
.LVL566:
	pushl	%eax
.LVL567:
	call	bt_conn_lookup_handle
.LVL568:
	.loc 1 4355 0
	addl	$16, %esp
	testl	%eax, %eax
	.loc 1 4354 0
	movl	%eax, %ebx
.LVL569:
	.loc 1 4355 0
	je	.L523
	.loc 1 4359 0
	cmpb	$0, (%esi)
	jne	.L382
	.loc 1 4360 0
	movl	3(%esi), %eax
.LVL570:
	movl	7(%esi), %edx
	movl	%eax, 96(%ebx)
	movl	%edx, 100(%ebx)
.L382:
	.loc 1 4363 0
	testb	$1, bt_dev+113
	je	.L383
	testb	$1, 97(%ebx)
	je	.L383
.LBB522:
	.loc 1 4366 0
	movl	%ebx, %eax
	call	hci_le_set_phy.isra.29
.LVL571:
	.loc 1 4367 0
	testl	%eax, %eax
	jne	.L383
.LVL572:
.LVL573:
.LBB523:
.LBB524:
	.loc 1 875 0
	pushl	%eax
	pushl	%eax
	pushl	$128
	jmp	.L525
.LVL574:
.L383:
.LBE524:
.LBE523:
.LBE522:
	.loc 1 4372 0
	testb	$32, bt_dev+112
	je	.L392
	testb	$32, 96(%ebx)
	je	.L392
.LBB525:
	.loc 1 4375 0
	movl	%ebx, %eax
	call	hci_le_set_data_len.isra.30
.LVL575:
	.loc 1 4376 0
	testl	%eax, %eax
	jne	.L392
.LVL576:
.LVL577:
.LBB526:
.LBB527:
	.loc 1 875 0
	pushl	%eax
	pushl	%eax
	pushl	$256
.LVL578:
.L525:
.LBE527:
.LBE526:
	.loc 1 4377 0
	leal	4(%ebx), %eax
.LBB529:
.LBB528:
	.loc 1 875 0
	pushl	%eax
.LVL579:
.L542:
	call	atomic_or
.LVL580:
	jmp	.L538
.L384:
.LVL581:
.L373:
	movl	-108(%ebp), %eax
.LBE528:
.LBE529:
.LBE525:
.LBE521:
.LBE520:
.LBB530:
.LBB531:
	.loc 1 4498 0
	subl	$12, %esp
	movl	8(%eax), %eax
.LVL582:
	.loc 1 4494 0
	movw	2(%eax), %dx
	.loc 1 4493 0
	movzwl	(%eax), %esi
	.loc 1 4494 0
	movw	%dx, -94(%ebp)
	.loc 1 4495 0
	movw	4(%eax), %dx
	.loc 1 4493 0
	movw	%si, -112(%ebp)
.LVL583:
	.loc 1 4495 0
	movw	%dx, -92(%ebp)
	.loc 1 4496 0
	movw	6(%eax), %dx
	.loc 1 4497 0
	movw	8(%eax), %ax
.LVL584:
	.loc 1 4498 0
	pushl	%esi
	.loc 1 4496 0
	movw	%dx, -90(%ebp)
	.loc 1 4497 0
	movw	%ax, -88(%ebp)
	.loc 1 4498 0
	call	bt_conn_lookup_handle
.LVL585:
	.loc 1 4499 0
	addl	$16, %esp
	testl	%eax, %eax
	.loc 1 4498 0
	movl	%eax, %ebx
.LVL586:
	.loc 1 4499 0
	jne	.L386
	.loc 1 4501 0
	movl	$2, %edx
	movl	%esi, %eax
.LVL587:
	call	le_conn_param_neg_reply
.LVL588:
	jmp	.L523
.LVL589:
.L386:
	.loc 1 4504 0
	leal	-94(%ebp), %eax
.LVL590:
	pushl	%edi
	pushl	%edi
	pushl	%eax
	pushl	%ebx
	call	le_param_req
.LVL591:
	addl	$16, %esp
	testb	%al, %al
	jne	.L388
	.loc 1 4505 0
	movl	$30, %edx
	movl	%esi, %eax
	call	le_conn_param_neg_reply
.LVL592:
	jmp	.L396
.L388:
.LVL593:
.LBB532:
.LBB533:
	.loc 1 4473 0
	pushl	%ecx
	pushl	%ecx
	pushl	$14
	pushl	$8224
	call	bt_hci_cmd_create
.LVL594:
	.loc 1 4474 0
	addl	$16, %esp
	testl	%eax, %eax
	.loc 1 4473 0
	movl	%eax, %esi
.LVL595:
	.loc 1 4474 0
	je	.L396
.LVL596:
	.loc 1 4477 0
	pushl	%eax
	pushl	%eax
	leal	8(%esi), %eax
	pushl	$14
	pushl	%eax
	call	net_buf_simple_add
.LVL597:
	movl	%eax, %edx
.LVL598:
	.loc 1 4478 0
	movl	$14, %ecx
	xorl	%eax, %eax
.LVL599:
	movl	%edx, %edi
	rep stosb
	.loc 1 4479 0
	movl	-112(%ebp), %eax
	movw	%ax, (%edx)
	.loc 1 4480 0
	movw	-94(%ebp), %ax
	movw	%ax, 2(%edx)
	.loc 1 4481 0
	movl	-92(%ebp), %eax
	movw	%ax, 4(%edx)
	.loc 1 4482 0
	movw	-90(%ebp), %ax
	movw	%ax, 6(%edx)
	.loc 1 4483 0
	movl	-88(%ebp), %eax
	movw	%ax, 8(%edx)
	.loc 1 4484 0
	popl	%eax
	popl	%edx
.LVL600:
	pushl	%esi
	pushl	$8224
	jmp	.L526
.LVL601:
.L374:
.LBE533:
.LBE532:
.LBE531:
.LBE530:
.LBB534:
.LBB535:
	.loc 1 4388 0
	movl	-108(%ebp), %eax
	.loc 1 4390 0
	subl	$12, %esp
	.loc 1 4388 0
	movl	8(%eax), %eax
	.loc 1 4390 0
	movzwl	(%eax), %eax
	pushl	%eax
.LVL602:
	call	bt_conn_lookup_handle
.LVL603:
	.loc 1 4391 0
	addl	$16, %esp
	testl	%eax, %eax
	.loc 1 4390 0
	movl	%eax, %ebx
.LVL604:
	.loc 1 4391 0
	je	.L523
	.loc 1 4395 0
	leal	4(%eax), %eax
.LVL605:
	movl	$8, %edx
	call	atomic_test_and_clear_bit
.LVL606:
	testl	%eax, %eax
	je	.L396
	jmp	.L392
.L390:
.LVL607:
.L378:
.LBE535:
.LBE534:
.LBB536:
.LBB537:
	.loc 1 4405 0
	movl	-108(%ebp), %eax
	.loc 1 4407 0
	subl	$12, %esp
	.loc 1 4405 0
	movl	8(%eax), %eax
	.loc 1 4407 0
	movzwl	1(%eax), %eax
	pushl	%eax
.LVL608:
	call	bt_conn_lookup_handle
.LVL609:
	.loc 1 4408 0
	addl	$16, %esp
	testl	%eax, %eax
	.loc 1 4407 0
	movl	%eax, %ebx
.LVL610:
	.loc 1 4408 0
	je	.L523
	.loc 1 4413 0
	leal	4(%eax), %esi
	movl	$7, %edx
	movl	%esi, %eax
.LVL611:
	call	atomic_test_and_clear_bit
.LVL612:
	testl	%eax, %eax
	je	.L396
	.loc 1 4416 0
	testb	$32, bt_dev+112
	je	.L392
	testb	$32, 96(%ebx)
	je	.L392
.LBB538:
	.loc 1 4419 0
	movl	%ebx, %eax
	call	hci_le_set_data_len.isra.30
.LVL613:
	.loc 1 4420 0
	testl	%eax, %eax
	jne	.L392
.LVL614:
.LVL615:
.LBB539:
.LBB540:
	.loc 1 875 0
	pushl	%eax
	pushl	%eax
	pushl	$256
	pushl	%esi
	jmp	.L542
.LVL616:
.L392:
.L391:
.LBE540:
.LBE539:
.LBE538:
	.loc 1 4425 0
	movl	%ebx, %eax
	call	update_conn_param
.LVL617:
	jmp	.L396
.LVL618:
.L372:
	movl	-108(%ebp), %eax
.LBE537:
.LBE536:
.LBB541:
.LBB542:
	.loc 1 4837 0
	subl	$12, %esp
	movl	8(%eax), %esi
.LVL619:
	movzwl	(%esi), %eax
.LVL620:
	pushl	%eax
.LVL621:
	call	bt_conn_lookup_handle
.LVL622:
	.loc 1 4838 0
	addl	$16, %esp
	testl	%eax, %eax
	.loc 1 4837 0
	movl	%eax, %ebx
.LVL623:
	.loc 1 4838 0
	je	.L523
	.loc 1 4842 0
	movl	6(%esi), %eax
.LVL624:
	orl	2(%esi), %eax
	jne	.L394
	cmpw	$0, 10(%esi)
	jne	.L394
	pushl	%eax
	pushl	%eax
	leal	-44(%ebp), %eax
	pushl	%eax
	pushl	%ebx
	call	bt_smp_get_tk
.LVL625:
	addl	$16, %esp
	testb	%al, %al
	je	.L394
.LBB543:
	.loc 1 4844 0
	pushl	%edi
	pushl	%edi
	pushl	$18
	pushl	$8218
	call	bt_hci_cmd_create
.LVL626:
	.loc 1 4846 0
	addl	$16, %esp
	testl	%eax, %eax
	.loc 1 4844 0
	movl	%eax, %edi
	.loc 1 4846 0
	je	.L396
	.loc 1 4850 0
	pushl	%eax
	pushl	%eax
	leal	8(%edi), %eax
	pushl	$18
	pushl	%eax
	call	net_buf_simple_add
.LVL627:
	.loc 1 4851 0
	movw	(%esi), %dx
	movw	%dx, (%eax)
	.loc 1 4852 0
	movl	-32(%ebp), %edx
	movl	-36(%ebp), %ecx
	movl	-40(%ebp), %esi
.LVL628:
	movl	%edx, -112(%ebp)
	movl	-44(%ebp), %edx
	movl	%ecx, 10(%eax)
	movl	-112(%ebp), %ecx
	movl	%esi, 6(%eax)
	movl	%edx, 2(%eax)
	movl	%ecx, 14(%eax)
	.loc 1 4853 0
	popl	%edx
	popl	%ecx
	pushl	%edi
	jmp	.L533
.LVL629:
.L394:
.LBE543:
	.loc 1 4856 0
	cmpl	$0, 104(%ebx)
	jne	.L397
	.loc 1 4857 0
	leal	64(%ebx), %edi
	pushl	%eax
	pushl	%eax
	pushl	%edi
	pushl	$32
	call	bt_keys_find
.LVL630:
	.loc 1 4858 0
	addl	$16, %esp
	testl	%eax, %eax
	.loc 1 4857 0
	movl	%eax, 104(%ebx)
	.loc 1 4858 0
	jne	.L397
	.loc 1 4859 0
	pushl	%eax
	pushl	%eax
	pushl	%edi
	pushl	$1
	call	bt_keys_find
.LVL631:
	.loc 1 4863 0
	addl	$16, %esp
	testl	%eax, %eax
	.loc 1 4859 0
	movl	%eax, 104(%ebx)
	.loc 1 4863 0
	je	.L398
.L425:
	movl	12(%eax), %edx
	testb	$32, %dl
	je	.L399
	movl	6(%esi), %ecx
	orl	2(%esi), %ecx
	jne	.L399
	.loc 1 4864 0
	cmpw	$0, 10(%esi)
	jne	.L399
.LBB544:
	.loc 1 4866 0
	pushl	%eax
	pushl	%eax
	pushl	$18
	pushl	$8218
	call	bt_hci_cmd_create
.LVL632:
	.loc 1 4868 0
	addl	$16, %esp
	testl	%eax, %eax
	.loc 1 4866 0
	movl	%eax, %edx
	.loc 1 4868 0
	je	.L396
	.loc 1 4872 0
	pushl	%eax
	pushl	%eax
	leal	8(%edx), %eax
	pushl	$18
	movl	%edx, -112(%ebp)
	pushl	%eax
	call	net_buf_simple_add
.LVL633:
	.loc 1 4873 0
	movw	(%esi), %cx
	.loc 1 4874 0
	addl	$2, %eax
.LVL634:
	.loc 1 4873 0
	movw	%cx, -2(%eax)
	.loc 1 4875 0
	movl	104(%ebx), %esi
.LVL635:
	.loc 1 4874 0
	movzbl	7(%esi), %ecx
	addl	$26, %esi
	jmp	.L541
.LVL636:
.L399:
.LBE544:
	.loc 1 4883 0
	andb	$1, %dl
	je	.L398
	movl	6(%esi), %edi
	cmpl	%edi, 72(%eax)
	movl	68(%eax), %edx
	jne	.L398
	cmpl	2(%esi), %edx
	jne	.L398
	.loc 1 4884 0
	movw	10(%esi), %di
	cmpw	%di, 76(%eax)
	jne	.L398
.LBB545:
	.loc 1 4888 0
	pushl	%eax
	pushl	%eax
	pushl	$18
	pushl	$8218
	call	bt_hci_cmd_create
.LVL637:
	.loc 1 4890 0
	addl	$16, %esp
	testl	%eax, %eax
	.loc 1 4888 0
	movl	%eax, %edx
.LVL638:
	.loc 1 4890 0
	je	.L396
	.loc 1 4894 0
	leal	8(%eax), %eax
.LVL639:
	pushl	%edi
	pushl	%edi
	pushl	$18
	movl	%edx, -112(%ebp)
	pushl	%eax
	call	net_buf_simple_add
.LVL640:
	.loc 1 4895 0
	movw	(%esi), %cx
	.loc 1 4896 0
	addl	$2, %eax
.LVL641:
	.loc 1 4895 0
	movw	%cx, -2(%eax)
	.loc 1 4897 0
	movl	104(%ebx), %esi
.LVL642:
	.loc 1 4896 0
	movzbl	7(%esi), %ecx
	addl	$78, %esi
.LVL643:
.L541:
	movl	%eax, %edi
	.loc 1 4898 0
	addl	$16, %esp
	.loc 1 4896 0
	rep movsb
	.loc 1 4898 0
	movl	104(%ebx), %ecx
	movl	-112(%ebp), %edx
	movb	7(%ecx), %cl
	cmpb	$15, %cl
	ja	.L403
	.loc 1 4899 0
	movzbl	%cl, %esi
	movl	$16, %ecx
	subl	%esi, %ecx
	addl	%eax, %esi
	xorl	%eax, %eax
	movl	%esi, %edi
	rep stosb
.L403:
	.loc 1 4902 0
	pushl	%esi
	pushl	%esi
	pushl	%edx
.L533:
	pushl	$8218
	jmp	.L526
.LVL644:
.L398:
.LBE545:
	.loc 1 4905 0
	pushl	%ecx
	pushl	%ecx
	pushl	$2
	pushl	$8219
	call	bt_hci_cmd_create
.LVL645:
	.loc 1 4906 0
	addl	$16, %esp
	testl	%eax, %eax
	.loc 1 4905 0
	movl	%eax, %edi
	.loc 1 4906 0
	je	.L396
	.loc 1 4910 0
	pushl	%eax
	pushl	%eax
	leal	8(%edi), %eax
	pushl	$2
	pushl	%eax
	call	net_buf_simple_add
.LVL646:
	.loc 1 4911 0
	movw	(%esi), %dx
	movw	%dx, (%eax)
	.loc 1 4912 0
	popl	%eax
.LVL647:
	popl	%edx
	pushl	%edi
	pushl	$8219
.LVL648:
.L526:
	call	bt_hci_cmd_send
.LVL649:
.L538:
	addl	$16, %esp
.LVL650:
.L396:
	.loc 1 4914 0
	subl	$12, %esp
	pushl	%ebx
.L534:
	call	bt_conn_unref
.LVL651:
	jmp	.L528
.LVL652:
.L375:
	movl	-108(%ebp), %eax
	movl	8(%eax), %ebx
.LVL653:
.LVL654:
.LBE542:
.LBE541:
.LBB547:
.LBB548:
.LBB549:
.LBB550:
	.loc 1 870 0
	pushl	%eax
	pushl	%eax
	pushl	$-17
	pushl	$bt_dev+108
.LVL655:
	call	atomic_and
.LVL656:
.LBE550:
.LBE549:
	.loc 1 4922 0
	addl	$16, %esp
	cmpb	$0, (%ebx)
	jne	.L404
	.loc 1 4923 0
	movl	$pub_key, %edi
	leal	1(%ebx), %esi
	movl	$16, %ecx
	rep movsl
.LVL657:
.LBB551:
.LBB552:
	.loc 1 875 0
	pushl	%eax
	pushl	%eax
	pushl	$8
	pushl	$bt_dev+108
.LVL658:
	call	atomic_or
.LVL659:
	addl	$16, %esp
.LVL660:
.L404:
.LBE552:
.LBE551:
	.loc 1 4926 0
	movl	pub_key_cb, %esi
.LVL661:
	.loc 1 4927 0
	leal	1(%ebx), %edi
.L405:
	.loc 1 4926 0
	testl	%esi, %esi
	je	.L523
	.loc 1 4927 0
	cmpb	$0, (%ebx)
	movl	$0, %eax
	cmove	%edi, %eax
	subl	$12, %esp
	pushl	%eax
	call	*(%esi)
.LVL662:
	.loc 1 4926 0
	movl	4(%esi), %esi
.LVL663:
	addl	$16, %esp
	jmp	.L405
.LVL664:
.L376:
.LBE548:
.LBE547:
.LBB553:
.LBB554:
	.loc 1 4936 0
	movl	dh_key_cb, %edx
	movl	-108(%ebp), %eax
	testl	%edx, %edx
	movl	8(%eax), %ecx
.LVL665:
	je	.L523
	.loc 1 4937 0
	cmpb	$0, (%ecx)
	leal	1(%ecx), %eax
.LVL666:
	movl	$0, %ecx
.LVL667:
	cmovne	%ecx, %eax
	subl	$12, %esp
	pushl	%eax
.LVL668:
	call	*%edx
.LVL669:
	.loc 1 4940 0
	movl	$0, dh_key_cb
.LVL670:
.L528:
	addl	$16, %esp
	jmp	.L523
.LVL671:
.L369:
.LBE554:
.LBE553:
.LBB555:
.LBB556:
	.loc 1 5084 0
	subl	$12, %esp
	pushl	-116(%ebp)
	call	net_buf_simple_pull_u8
.LVL672:
	movb	%al, -121(%ebp)
.LBB557:
.LBB558:
.LBB559:
.LBB560:
	.loc 1 1370 0
	movl	-108(%ebp), %eax
.LVL673:
.LBE560:
.LBE559:
.LBE558:
.LBE557:
	.loc 1 5084 0
	addl	$16, %esp
.LBB584:
.LBB571:
.LBB564:
.LBB561:
	.loc 1 1370 0
	addl	$16, %eax
	movl	%eax, -128(%ebp)
.LVL674:
.L409:
.LBE561:
.LBE564:
.LBE571:
.LBE584:
	.loc 1 5087 0
	cmpb	$0, -121(%ebp)
	je	.L523
.LBB585:
	.loc 1 5090 0
	movl	-108(%ebp), %eax
	movl	8(%eax), %eax
	movl	%eax, -112(%ebp)
.LVL675:
.LVL676:
	.loc 1 5091 0
	pushl	%eax
	pushl	%eax
	pushl	$9
	pushl	-116(%ebp)
	call	net_buf_simple_pull
.LVL677:
	.loc 1 5092 0
	movl	-112(%ebp), %eax
	movl	-112(%ebp), %edi
	.loc 1 5094 0
	addl	$16, %esp
	.loc 1 5092 0
	movzbl	8(%eax), %eax
	leal	1(%edi), %esi
	movsbl	9(%edi,%eax), %ebx
.LVL678:
	.loc 1 5094 0
	movb	1(%edi), %al
	movb	%al, -120(%ebp)
	subl	$2, %eax
	cmpb	$1, %al
	ja	.L410
	.loc 1 5096 0
	leal	-74(%ebp), %eax
	movl	%esi, %edx
	call	bt_addr_le_copy
.LVL679:
	.loc 1 5097 0
	subb	$2, -74(%ebp)
	jmp	.L411
.L410:
.LVL680:
.LBB572:
.LBB573:
.LBB574:
	.loc 1 3914 0
	subl	$12, %esp
	pushl	%esi
	call	bt_keys_find_irk
.LVL681:
	.loc 1 3915 0
	addl	$16, %esp
	.loc 1 3917 0
	testl	%eax, %eax
	cmove	%esi, %eax
.LVL682:
	movl	%eax, %edx
.LVL683:
.LBE574:
.LBE573:
.LBE572:
	.loc 1 5099 0
	leal	-74(%ebp), %eax
	call	bt_addr_le_copy
.LVL684:
.L411:
	.loc 1 5101 0
	cmpl	$0, scan_dev_found_cb
	je	.L413
.LVL685:
.LBB575:
.LBB565:
.LBB566:
	.loc 1 1364 0
	subl	$12, %esp
	pushl	-116(%ebp)
	call	net_buf_simple_headroom
.LVL686:
	movl	%eax, %esi
	.loc 1 1365 0
	movl	-108(%ebp), %eax
.LBE566:
.LBE565:
	.loc 1 5104 0
	movl	-108(%ebp), %ecx
.LBB568:
.LBB562:
	.loc 1 1370 0
	movzwl	%si, %esi
.LBE562:
.LBE568:
.LBB569:
.LBB567:
	.loc 1 1365 0
	movl	12(%eax), %edi
.LVL687:
.LBE567:
.LBE569:
	.loc 1 5104 0
	movl	-112(%ebp), %eax
	movzbl	8(%eax), %eax
	movw	%ax, 12(%ecx)
	.loc 1 5105 0
	movl	-112(%ebp), %eax
	pushl	-116(%ebp)
	movzbl	(%eax), %eax
	pushl	%eax
	leal	-74(%ebp), %eax
	pushl	%ebx
	pushl	%eax
	call	*scan_dev_found_cb
.LVL688:
.LBB570:
.LBB563:
	.loc 1 1370 0
	addl	-128(%ebp), %esi
	movl	-108(%ebp), %eax
	.loc 1 1371 0
	addl	$32, %esp
	movw	%di, 12(%eax)
.LVL689:
	.loc 1 1370 0
	movl	%esi, 8(%eax)
.L413:
.LBE563:
.LBE570:
.LBE575:
	.loc 1 5109 0
	movl	-112(%ebp), %eax
.LBB576:
.LBB577:
	.loc 1 4537 0
	movl	$8, %edx
.LBE577:
.LBE576:
	.loc 1 5109 0
	movb	(%eax), %bl
.LVL690:
.LBB582:
.LBB580:
	.loc 1 4537 0
	movl	$bt_dev+108, %eax
.LVL691:
	call	atomic_test_bit
.LVL692:
	.loc 1 4540 0
	cmpb	$1, %bl
	ja	.L416
	testl	%eax, %eax
	jne	.L416
	.loc 1 4543 0
	pushl	%eax
	pushl	%eax
	leal	-74(%ebp), %eax
.LVL693:
	pushl	$1
	pushl	%eax
	call	bt_conn_lookup_state_le
.LVL694:
	.loc 1 4544 0
	addl	$16, %esp
	testl	%eax, %eax
	.loc 1 4543 0
	movl	%eax, %ebx
.LVL695:
	.loc 1 4544 0
	je	.L416
	.loc 1 4547 0
	movl	$7, %edx
	movl	$bt_dev+108, %eax
.LVL696:
	call	atomic_test_bit
.LVL697:
	testl	%eax, %eax
	jne	.L418
.L422:
	.loc 1 4557 0
	movl	$2, %edx
	movl	$bt_dev+108, %eax
	call	atomic_test_bit
.LVL698:
	testl	%eax, %eax
	je	.L420
	.loc 1 4558 0
	movl	$bt_dev+1, %eax
	call	set_random_address
.LVL699:
	jmp	.L420
.L418:
	.loc 1 4548 0
	xorl	%eax, %eax
	call	set_le_scan_enable
.LVL700:
	.loc 1 4547 0
	testl	%eax, %eax
	jne	.L421
	jmp	.L422
.L420:
	.loc 1 4560 0
	leal	71(%ebx), %eax
	movl	$bt_dev, %edx
	call	bt_addr_le_copy
.LVL701:
.LBE580:
.LBE582:
	.loc 1 5109 0
	movl	-112(%ebp), %eax
	leal	1(%eax), %edx
.LBB583:
.LBB581:
	.loc 1 4562 0
	leal	78(%ebx), %eax
	call	bt_addr_le_copy
.LVL702:
.LBB578:
.LBB579:
	.loc 1 4082 0
	pushl	%edi
	pushl	%edi
	pushl	$25
	pushl	$8205
	call	bt_hci_cmd_create
.LVL703:
	.loc 1 4083 0
	addl	$16, %esp
	testl	%eax, %eax
	.loc 1 4082 0
	movl	%eax, -120(%ebp)
.LVL704:
	.loc 1 4083 0
	je	.L421
	.loc 1 4086 0
	addl	$8, %eax
.LVL705:
	pushl	%esi
	pushl	%esi
	pushl	$25
	pushl	%eax
	call	net_buf_simple_add
.LVL706:
	movl	%eax, %esi
.LVL707:
	.loc 1 4087 0
	movl	$25, %ecx
	xorl	%eax, %eax
.LVL708:
	movl	%esi, %edi
	.loc 1 4090 0
	leal	78(%ebx), %edx
	.loc 1 4087 0
	rep stosb
	.loc 1 4090 0
	leal	5(%esi), %eax
	.loc 1 4088 0
	movw	$96, (%esi)
	.loc 1 4089 0
	movw	$96, 2(%esi)
	.loc 1 4090 0
	call	bt_addr_le_copy
.LVL709:
	.loc 1 4091 0
	movb	71(%ebx), %al
	.loc 1 4096 0
	addl	$12, %esp
	.loc 1 4091 0
	movb	%al, 12(%esi)
	.loc 1 4092 0
	movl	88(%ebx), %eax
	movw	%ax, 13(%esi)
	.loc 1 4093 0
	movw	90(%ebx), %ax
	movw	%ax, 15(%esi)
	.loc 1 4094 0
	movl	92(%ebx), %eax
	movw	%ax, 17(%esi)
	.loc 1 4095 0
	movw	94(%ebx), %ax
	movw	%ax, 19(%esi)
	.loc 1 4096 0
	pushl	$0
	pushl	-120(%ebp)
	pushl	$8205
	call	bt_hci_cmd_send_sync
.LVL710:
.LBE579:
.LBE578:
	.loc 1 4563 0
	addl	$16, %esp
	testl	%eax, %eax
	jne	.L421
	.loc 1 4566 0
	pushl	%ecx
	pushl	%ecx
	pushl	$2
	pushl	%ebx
	call	bt_conn_set_state
.LVL711:
	.loc 1 4567 0
	movl	%ebx, (%esp)
	call	bt_conn_unref
.LVL712:
	jmp	.L527
.L421:
.LDL1:
	.loc 1 4570 0
	movb	$31, 11(%ebx)
	.loc 1 4571 0
	pushl	%edx
	pushl	%edx
	pushl	$0
	pushl	%ebx
	call	bt_conn_set_state
.LVL713:
	.loc 1 4572 0
	movl	%ebx, (%esp)
	call	bt_conn_unref
.LVL714:
	.loc 1 4573 0
	movl	$0, (%esp)
	call	bt_le_scan_update
.LVL715:
.L527:
	addl	$16, %esp
.LVL716:
.L416:
.LBE581:
.LBE583:
	.loc 1 5110 0
	pushl	%eax
	pushl	%eax
	movl	-112(%ebp), %eax
	movzbl	8(%eax), %eax
	incl	%eax
	pushl	%eax
	pushl	-116(%ebp)
	call	net_buf_simple_pull
.LVL717:
	decb	-121(%ebp)
.LVL718:
	addl	$16, %esp
	jmp	.L409
.LVL719:
.L523:
.LBE585:
.LBE556:
.LBE555:
.LBE503:
.LBE502:
.LBE493:
.LBE492:
	.loc 1 5848 0
	subl	$12, %esp
	pushl	-108(%ebp)
.L530:
	call	net_buf_unref
.LVL720:
.L531:
	.loc 1 5849 0
	addl	$16, %esp
	.loc 1 5851 0
	call	k_yield
.LVL721:
	.loc 1 5852 0
	jmp	.L424
.LVL722:
.L397:
.LBB590:
.LBB589:
.LBB588:
.LBB587:
.LBB586:
.LBB546:
	.loc 1 4863 0
	movl	104(%ebx), %eax
	jmp	.L425
.LBE546:
.LBE586:
.LBE587:
.LBE588:
.LBE589:
.LBE590:
	.cfi_endproc
.LFE155:
	.size	hci_rx_thread, .-hci_rx_thread
	.section	.text.unlikely.hci_rx_thread
.LCOLDE34:
	.section	.text.hci_rx_thread
.LHOTE34:
	.section	.text.unlikely.hci_tx_thread,"ax",@progbits
.LCOLDB35:
	.section	.text.hci_tx_thread,"ax",@progbits
.LHOTB35:
	.type	hci_tx_thread, @function
hci_tx_thread:
.LFB129:
	.loc 1 5259 0
	.cfi_startproc
.LVL723:
	pushl	%ebp
	.cfi_def_cfa_offset 8
	.cfi_offset 5, -8
	movl	%esp, %ebp
	.cfi_def_cfa_register 5
	pushl	%edi
	pushl	%esi
	pushl	%ebx
	subl	$12, %esp
	.cfi_offset 7, -12
	.cfi_offset 6, -16
	.cfi_offset 3, -20
.L553:
.LBB597:
	.loc 1 5270 0
	subl	$12, %esp
	.loc 1 5267 0
	andb	$15, events.5664+13
.LVL724:
	.loc 1 5273 0
	movl	$events.5664, %esi
	.loc 1 5270 0
	pushl	$events.5664+20
	call	bt_conn_prepare_events
.LVL725:
	leal	1(%eax), %ebx
.LVL726:
	.loc 1 5273 0
	addl	$12, %esp
	pushl	$-1
	pushl	%ebx
	pushl	$events.5664
	call	k_poll
.LVL727:
	addl	$16, %esp
.LVL728:
.L544:
.LBB598:
.LBB599:
	.loc 1 5217 0
	testl	%ebx, %ebx
	je	.L559
	.loc 1 5219 0
	movb	13(%esi), %al
	shrb	$4, %al
	cmpb	$4, %al
	jne	.L545
	.loc 1 5223 0
	movb	12(%esi), %al
	testb	%al, %al
	jne	.L547
.LBB600:
.LBB601:
	.loc 1 5187 0
	pushl	%edx
	pushl	%edx
	pushl	$0
	pushl	$bt_dev+188
	call	net_buf_get
.LVL729:
	.loc 1 5190 0
	popl	%ecx
	.loc 1 5187 0
	movl	%eax, %edi
.LVL730:
	.loc 1 5190 0
	popl	%eax
.LVL731:
	pushl	$-1
	pushl	$bt_dev+148
	call	k_sem_take
.LVL732:
	.loc 1 5191 0
	movl	bt_dev+160, %eax
	addl	$16, %esp
	testl	%eax, %eax
	je	.L548
	.loc 1 5193 0
	subl	$12, %esp
	pushl	%eax
	call	net_buf_unref
.LVL733:
	.loc 1 5194 0
	movl	$0, bt_dev+160
	addl	$16, %esp
.L548:
	.loc 1 5198 0
	subl	$12, %esp
	pushl	%edi
	call	net_buf_ref
.LVL734:
	.loc 1 5200 0
	movl	%edi, (%esp)
	.loc 1 5198 0
	movl	%eax, bt_dev+160
	.loc 1 5200 0
	call	bt_send
.LVL735:
	.loc 1 5201 0
	addl	$16, %esp
	testl	%eax, %eax
	je	.L545
	.loc 1 5203 0
	subl	$12, %esp
	pushl	$bt_dev+148
	call	k_sem_give
.LVL736:
	.loc 1 5204 0
	movl	%edi, %eax
	call	net_buf_user_data
.LVL737:
	movzwl	2(%eax), %eax
	xorl	%ecx, %ecx
	movl	$31, %edx
	call	hci_cmd_done
.LVL738:
	.loc 1 5207 0
	popl	%eax
	pushl	bt_dev+160
	call	net_buf_unref
.LVL739:
	.loc 1 5211 0
	movl	%edi, (%esp)
	.loc 1 5208 0
	movl	$0, bt_dev+160
	.loc 1 5211 0
	call	net_buf_unref
.LVL740:
	jmp	.L558
.LVL741:
.L547:
.LBE601:
.LBE600:
.LBB602:
	.loc 1 5227 0
	cmpb	$1, %al
	jne	.L550
.LVL742:
	.loc 1 5236 0
	movl	16(%esi), %eax
	subl	$12, %esp
	subl	$28, %eax
.LVL743:
	pushl	%eax
	call	bt_conn_notify_tx
.LVL744:
	jmp	.L558
.L550:
	.loc 1 5237 0
	cmpb	$2, %al
	jne	.L545
.LVL745:
	.loc 1 5246 0
	movl	16(%esi), %eax
	subl	$12, %esp
	subl	$40, %eax
.LVL746:
	pushl	%eax
	call	bt_conn_process_tx
.LVL747:
.L558:
	addl	$16, %esp
.L545:
.LBE602:
	.loc 1 5217 0
	addl	$20, %esi
.LVL748:
	decl	%ebx
.LVL749:
	jmp	.L544
.L559:
.LVL750:
.LBE599:
.LBE598:
	.loc 1 5276 0
	call	k_yield
.LVL751:
	jmp	.L553
.LBE597:
	.cfi_endproc
.LFE129:
	.size	hci_tx_thread, .-hci_tx_thread
	.section	.text.unlikely.hci_tx_thread
.LCOLDE35:
	.section	.text.hci_tx_thread
.LHOTE35:
	.section	.text.unlikely.bt_recv,"ax",@progbits
.LCOLDB36:
	.section	.text.bt_recv,"ax",@progbits
.LHOTB36:
	.globl	bt_recv
	.type	bt_recv, @function
bt_recv:
.LFB150:
	.loc 1 5741 0
	.cfi_startproc
.LVL752:
	pushl	%ebp
	.cfi_def_cfa_offset 8
	.cfi_offset 5, -8
	movl	%esp, %ebp
	.cfi_def_cfa_register 5
	pushl	%ebx
	subl	$16, %esp
	.cfi_offset 3, -12
	.loc 1 5741 0
	movl	8(%ebp), %ebx
	.loc 1 5745 0
	movzbl	6(%ebx), %eax
	pushl	%eax
	call	net_buf_pool_get
.LVL753:
	.loc 1 5746 0
	addl	$16, %esp
	cmpw	$3, 18(%eax)
	jbe	.L566
.LVL754:
.LBB605:
.LBB606:
	.loc 1 3038 0
	movl	%ebx, %eax
.LVL755:
	call	net_buf_user_data
.LVL756:
.LBE606:
.LBE605:
	.loc 1 5751 0
	movb	(%eax), %al
	cmpb	$1, %al
	je	.L564
	cmpb	$3, %al
	jne	.L566
.L564:
	.loc 1 5756 0
	pushl	%eax
	pushl	%eax
	pushl	%ebx
	pushl	$bt_dev+164
	call	net_buf_put
.LVL757:
	.loc 1 5757 0
	addl	$16, %esp
	xorl	%eax, %eax
	jmp	.L562
.L566:
	.loc 1 5760 0
	subl	$12, %esp
	pushl	%ebx
	call	net_buf_unref
.LVL758:
	.loc 1 5761 0
	addl	$16, %esp
	movl	$-22, %eax
.L562:
	.loc 1 5763 0
	movl	-4(%ebp), %ebx
	leave
	.cfi_restore 5
	.cfi_restore 3
	.cfi_def_cfa 4, 4
	ret
	.cfi_endproc
.LFE150:
	.size	bt_recv, .-bt_recv
	.section	.text.unlikely.bt_recv
.LCOLDE36:
	.section	.text.bt_recv
.LHOTE36:
	.section	.text.unlikely.bt_recv_prio,"ax",@progbits
.LCOLDB37:
	.section	.text.bt_recv_prio,"ax",@progbits
.LHOTB37:
	.globl	bt_recv_prio
	.type	bt_recv_prio, @function
bt_recv_prio:
.LFB151:
	.loc 1 5765 0
	.cfi_startproc
.LVL759:
	pushl	%ebp
	.cfi_def_cfa_offset 8
	.cfi_offset 5, -8
	movl	%esp, %ebp
	.cfi_def_cfa_register 5
	pushl	%edi
	pushl	%esi
	pushl	%ebx
	subl	$36, %esp
	.cfi_offset 7, -12
	.cfi_offset 6, -16
	.cfi_offset 3, -20
	.loc 1 5765 0
	movl	8(%ebp), %ebx
	.loc 1 5771 0
	leal	8(%ebx), %ecx
	.loc 1 5766 0
	movl	8(%ebx), %esi
.LVL760:
	.loc 1 5771 0
	pushl	$2
	pushl	%ecx
	movl	%ecx, -28(%ebp)
	call	net_buf_simple_pull
.LVL761:
	.loc 1 5772 0
	movb	(%esi), %al
	addl	$16, %esp
	movl	-28(%ebp), %ecx
	cmpb	$15, %al
	je	.L570
	cmpb	$19, %al
	je	.L571
	cmpb	$14, %al
	jne	.L592
.LVL762:
.LBB619:
.LBB620:
	.loc 1 4974 0
	movl	8(%ebx), %eax
.LVL763:
	.loc 1 4975 0
	movw	1(%eax), %si
.LVL764:
	.loc 1 4976 0
	movzbl	(%eax), %edi
.LVL765:
.LVL766:
	.loc 1 4978 0
	pushl	%eax
.LVL767:
	pushl	%eax
	pushl	$3
	pushl	%ecx
	call	net_buf_simple_pull
.LVL768:
	.loc 1 4979 0
	movl	8(%ebx), %eax
	.loc 1 4980 0
	movl	%ebx, %ecx
	movzbl	(%eax), %edx
	movzwl	%si, %eax
	call	hci_cmd_done
.LVL769:
	.loc 1 4981 0
	movl	%edi, %eax
	addl	$16, %esp
	testb	%al, %al
.LVL770:
.L595:
	je	.L574
	.loc 1 4982 0
	subl	$12, %esp
	pushl	$bt_dev+148
	call	k_sem_give
.LVL771:
	addl	$16, %esp
	jmp	.L574
.LVL772:
.L570:
.LBE620:
.LBE619:
.LBB621:
.LBB622:
	.loc 1 4987 0
	movl	8(%ebx), %edi
.LVL773:
	.loc 1 4989 0
	movb	1(%edi), %al
	.loc 1 4988 0
	movw	2(%edi), %si
.LVL774:
	.loc 1 4991 0
	pushl	%edx
	pushl	%edx
	pushl	$4
	pushl	%ecx
	.loc 1 4989 0
	movb	%al, -28(%ebp)
.LVL775:
	.loc 1 4991 0
	call	net_buf_simple_pull
.LVL776:
	.loc 1 4992 0
	movzbl	(%edi), %edx
	movzwl	%si, %eax
	movl	%ebx, %ecx
	call	hci_cmd_done
.LVL777:
	.loc 1 4993 0
	addl	$16, %esp
	cmpb	$0, -28(%ebp)
	jmp	.L595
.LVL778:
.L571:
	movl	8(%ebx), %eax
.LBE622:
.LBE621:
.LBB623:
.LBB624:
	.loc 1 4047 0
	movl	$0, -28(%ebp)
	movl	%eax, -32(%ebp)
.LVL779:
.L576:
	movl	-32(%ebp), %eax
	movzbl	(%eax), %eax
	cmpl	%eax, -28(%ebp)
	jge	.L574
.LBB625:
	.loc 1 4051 0
	movl	-28(%ebp), %ecx
	movl	-32(%ebp), %eax
	movzwl	1(%eax,%ecx,4), %esi
.LVL780:
	.loc 1 4052 0
	movw	3(%eax,%ecx,4), %ax
	movw	%ax, -36(%ebp)
.LVL781:
	.loc 1 4054 0
	call	irq_lock
.LVL782:
	.loc 1 4055 0
	subl	$12, %esp
	.loc 1 4054 0
	movl	%eax, %edi
.LVL783:
	.loc 1 4055 0
	pushl	%esi
	call	bt_conn_lookup_handle
.LVL784:
	.loc 1 4056 0
	addl	$16, %esp
	testl	%eax, %eax
	.loc 1 4055 0
	movl	%eax, %esi
.LVL785:
	.loc 1 4056 0
	jne	.L577
	.loc 1 4058 0
	subl	$12, %esp
	pushl	%edi
	call	irq_unlock
.LVL786:
	jmp	.L596
.LVL787:
.L577:
	.loc 1 4061 0
	subl	$12, %esp
	pushl	%edi
	call	irq_unlock
.LVL788:
.LBB626:
	.loc 1 4071 0
	leal	28(%esi), %eax
.LBE626:
	.loc 1 4061 0
	movl	-36(%ebp), %edi
.LVL789:
	addl	$16, %esp
.LBB633:
	.loc 1 4071 0
	movl	%eax, -36(%ebp)
.LVL790:
	jmp	.L579
.LVL791:
.L581:
	pushl	%eax
	pushl	%eax
	pushl	%edx
	pushl	-36(%ebp)
	call	k_queue_append
.LVL792:
	.loc 1 4072 0
	movl	%esi, (%esp)
	call	bt_conn_get_pkts
.LVL793:
	movl	%eax, (%esp)
	call	k_sem_give
.LVL794:
	.loc 1 4073 0
	movl	$g_poll_sem, (%esp)
	call	k_sem_give
.LVL795:
	addl	$16, %esp
.LVL796:
.L579:
.LBE633:
	.loc 1 4062 0
	testw	%di, %di
	je	.L583
.LBB634:
	.loc 1 4064 0
	call	irq_lock
.LVL797:
	movl	20(%esi), %edx
.LVL798:
.LBB627:
.LBB628:
	.loc 1 171 0
	testl	%edx, %edx
	jne	.L597
.L580:
.LBE628:
.LBE627:
	.loc 1 4066 0
	subl	$12, %esp
	movl	%edx, -40(%ebp)
.LVL799:
	decl	%edi
.LVL800:
	pushl	%eax
	call	irq_unlock
.LVL801:
	.loc 1 4067 0
	movl	-40(%ebp), %edx
	addl	$16, %esp
	testl	%edx, %edx
	jne	.L581
.LVL802:
.L583:
.LBE634:
	.loc 1 4075 0
	subl	$12, %esp
	pushl	%esi
	call	bt_conn_unref
.LVL803:
.L596:
	addl	$16, %esp
.LBE625:
	.loc 1 4047 0
	incl	-28(%ebp)
.LVL804:
	jmp	.L576
.LVL805:
.L597:
.LBB636:
.LBB635:
.LBB632:
.LBB631:
.LBB629:
.LBB630:
	.loc 1 162 0
	cmpl	24(%esi), %edx
	.loc 1 161 0
	movl	(%edx), %ecx
	movl	%ecx, 20(%esi)
	.loc 1 162 0
	jne	.L580
	.loc 1 163 0
	movl	%ecx, 24(%esi)
	jmp	.L580
.LVL806:
.L592:
.LBE630:
.LBE629:
.LBE631:
.LBE632:
.LBE635:
.LBE636:
.LBE624:
.LBE623:
	.loc 1 5783 0
	subl	$12, %esp
	pushl	%ebx
	call	net_buf_unref
.LVL807:
	.loc 1 5785 0
	addl	$16, %esp
	movl	$-22, %eax
	jmp	.L585
.LVL808:
.L574:
	.loc 1 5787 0
	subl	$12, %esp
	pushl	%ebx
	call	net_buf_unref
.LVL809:
	.loc 1 5788 0
	addl	$16, %esp
	xorl	%eax, %eax
.L585:
	.loc 1 5789 0
	leal	-12(%ebp), %esp
	popl	%ebx
	.cfi_restore 3
	popl	%esi
	.cfi_restore 6
	popl	%edi
	.cfi_restore 7
	popl	%ebp
	.cfi_restore 5
	.cfi_def_cfa 4, 4
	ret
	.cfi_endproc
.LFE151:
	.size	bt_recv_prio, .-bt_recv_prio
	.section	.text.unlikely.bt_recv_prio
.LCOLDE37:
	.section	.text.bt_recv_prio
.LHOTE37:
	.section	.text.unlikely.bt_hci_driver_register,"ax",@progbits
.LCOLDB38:
	.section	.text.bt_hci_driver_register,"ax",@progbits
.LHOTB38:
	.globl	bt_hci_driver_register
	.type	bt_hci_driver_register, @function
bt_hci_driver_register:
.LFB152:
	.loc 1 5791 0
	.cfi_startproc
.LVL810:
	.loc 1 5792 0
	cmpl	$0, bt_dev+200
	.loc 1 5791 0
	pushl	%ebp
	.cfi_def_cfa_offset 8
	.cfi_offset 5, -8
	.loc 1 5793 0
	movl	$-69, %eax
	.loc 1 5791 0
	movl	%esp, %ebp
	.cfi_def_cfa_register 5
	.loc 1 5791 0
	movl	8(%ebp), %edx
	.loc 1 5792 0
	jne	.L599
	.loc 1 5795 0
	cmpl	$0, 8(%edx)
	.loc 1 5796 0
	movl	$-22, %eax
	.loc 1 5795 0
	je	.L599
	.loc 1 5795 0 is_stmt 0 discriminator 1
	cmpl	$0, 12(%edx)
	je	.L599
	.loc 1 5798 0 is_stmt 1
	movl	%edx, bt_dev+200
	.loc 1 5801 0
	xorl	%eax, %eax
.LVL811:
.L599:
	.loc 1 5802 0
	popl	%ebp
	.cfi_restore 5
	.cfi_def_cfa 4, 4
	ret
	.cfi_endproc
.LFE152:
	.size	bt_hci_driver_register, .-bt_hci_driver_register
	.section	.text.unlikely.bt_hci_driver_register
.LCOLDE38:
	.section	.text.bt_hci_driver_register
.LHOTE38:
	.section	.text.unlikely.bt_enable,"ax",@progbits
.LCOLDB39:
	.section	.text.bt_enable,"ax",@progbits
.LHOTB39:
	.globl	bt_enable
	.type	bt_enable, @function
bt_enable:
.LFB156:
	.loc 1 5855 0
	.cfi_startproc
.LVL812:
	.loc 1 5857 0
	cmpl	$0, bt_dev+200
	.loc 1 5855 0
	pushl	%ebp
	.cfi_def_cfa_offset 8
	.cfi_offset 5, -8
	movl	%esp, %ebp
	.cfi_def_cfa_register 5
	pushl	%esi
	pushl	%ebx
	.cfi_offset 6, -12
	.cfi_offset 3, -16
	.loc 1 5855 0
	movl	8(%ebp), %esi
	.loc 1 5857 0
	je	.L607
.LVL813:
.LBB639:
.LBB640:
	.loc 1 864 0
	pushl	%ebx
	pushl	%ebx
	pushl	$1
	pushl	$bt_dev+108
.LVL814:
	call	atomic_or
.LVL815:
.LBE640:
.LBE639:
	.loc 1 5861 0
	addl	$16, %esp
	andl	$1, %eax
	movl	%eax, %ebx
	jne	.L608
	.loc 1 5864 0
	pushl	%eax
	pushl	%eax
	pushl	$init_work
	pushl	$bt_dev+96
	call	k_work_init
.LVL816:
	.loc 1 5865 0
	call	k_work_q_start
.LVL817:
	.loc 1 5866 0
	addl	$12, %esp
	pushl	$1
	pushl	$1
	pushl	$bt_dev+148
	call	k_sem_init
.LVL818:
	.loc 1 5867 0
	movl	$bt_dev+188, (%esp)
	call	k_queue_init
.LVL819:
	.loc 1 5868 0
	movl	$bt_dev+164, (%esp)
	call	k_queue_init
.LVL820:
	.loc 1 5869 0
	movl	$hci_cmd_pool, (%esp)
	call	k_queue_init
.LVL821:
	.loc 1 5870 0
	movl	$hci_rx_pool, (%esp)
	call	k_queue_init
.LVL822:
	.loc 1 5871 0
	addl	$12, %esp
	pushl	$1
	pushl	$0
	pushl	$g_poll_sem
	call	k_sem_init
.LVL823:
	.loc 1 5873 0
	popl	%edx
	popl	%ecx
	pushl	$0
	pushl	$0
	pushl	$20
	pushl	$0
	pushl	$0
	pushl	$0
	pushl	$hci_tx_thread
	pushl	$800
	pushl	$tx_thread_stack
	pushl	$tx_thread_data
	.loc 1 5872 0
	movl	%esi, ready_cb
	.loc 1 5873 0
	call	k_thread_create
.LVL824:
	.loc 1 5884 0
	addl	$40, %esp
	pushl	$0
	pushl	$0
	pushl	$21
	pushl	$0
	pushl	$0
	pushl	$0
	pushl	$hci_rx_thread
	pushl	$2048
	pushl	$rx_thread_stack
	pushl	$rx_thread_data
	call	k_thread_create
.LVL825:
	.loc 1 5898 0
	movl	bt_dev+200, %eax
	addl	$48, %esp
	call	*8(%eax)
.LVL826:
	.loc 1 5899 0
	testl	%eax, %eax
	jne	.L609
	.loc 1 5903 0
	testl	%esi, %esi
	jne	.L606
	.loc 1 5908 0
	leal	-8(%ebp), %esp
	popl	%ebx
	.cfi_remember_state
	.cfi_restore 3
	popl	%esi
	.cfi_restore 6
	popl	%ebp
	.cfi_restore 5
	.cfi_def_cfa 4, 4
	.loc 1 5904 0
	jmp	bt_init
.LVL827:
.L606:
	.cfi_restore_state
	.loc 1 5906 0
	subl	$12, %esp
	pushl	$bt_dev+96
	call	k_work_submit
.LVL828:
	.loc 1 5907 0
	addl	$16, %esp
	jmp	.L605
.LVL829:
.L607:
	.loc 1 5859 0
	movl	$-19, %ebx
	jmp	.L605
.LVL830:
.L608:
	.loc 1 5862 0
	movl	$-69, %ebx
	jmp	.L605
.LVL831:
.L609:
	movl	%eax, %ebx
.LVL832:
.L605:
	.loc 1 5908 0
	leal	-8(%ebp), %esp
	movl	%ebx, %eax
	popl	%ebx
	.cfi_restore 3
	popl	%esi
	.cfi_restore 6
	popl	%ebp
	.cfi_restore 5
	.cfi_def_cfa 4, 4
	ret
	.cfi_endproc
.LFE156:
	.size	bt_enable, .-bt_enable
	.section	.text.unlikely.bt_enable
.LCOLDE39:
	.section	.text.bt_enable
.LHOTE39:
	.section	.text.unlikely.bt_addr_le_is_bonded,"ax",@progbits
.LCOLDB40:
	.section	.text.bt_addr_le_is_bonded,"ax",@progbits
.LHOTB40:
	.globl	bt_addr_le_is_bonded
	.type	bt_addr_le_is_bonded, @function
bt_addr_le_is_bonded:
.LFB157:
	.loc 1 5911 0
	.cfi_startproc
.LVL833:
	pushl	%ebp
	.cfi_def_cfa_offset 8
	.cfi_offset 5, -8
	movl	%esp, %ebp
	.cfi_def_cfa_register 5
	subl	$20, %esp
.LBB641:
	.loc 1 5913 0
	pushl	8(%ebp)
	call	bt_keys_find_addr
.LVL834:
	.loc 1 5914 0
	addl	$16, %esp
	xorl	%edx, %edx
	testl	%eax, %eax
	je	.L612
	.loc 1 5914 0 is_stmt 0 discriminator 1
	xorl	%edx, %edx
	cmpw	$0, 12(%eax)
	setne	%dl
.L612:
	movb	%dl, %al
.LVL835:
.LBE641:
	.loc 1 5920 0 is_stmt 1 discriminator 6
	leave
	.cfi_restore 5
	.cfi_def_cfa 4, 4
	andl	$1, %eax
	ret
	.cfi_endproc
.LFE157:
	.size	bt_addr_le_is_bonded, .-bt_addr_le_is_bonded
	.section	.text.unlikely.bt_addr_le_is_bonded
.LCOLDE40:
	.section	.text.bt_addr_le_is_bonded
.LHOTE40:
	.section	.text.unlikely.bt_le_adv_start,"ax",@progbits
.LCOLDB41:
	.section	.text.bt_le_adv_start,"ax",@progbits
.LHOTB41:
	.globl	bt_le_adv_start
	.type	bt_le_adv_start, @function
bt_le_adv_start:
.LFB160:
	.loc 1 5972 0
	.cfi_startproc
.LVL836:
	pushl	%ebp
	.cfi_def_cfa_offset 8
	.cfi_offset 5, -8
	movl	%esp, %ebp
	.cfi_def_cfa_register 5
	pushl	%edi
	pushl	%esi
	pushl	%ebx
	subl	$60, %esp
	.cfi_offset 7, -12
	.cfi_offset 6, -16
	.cfi_offset 3, -20
	.loc 1 5972 0
	movl	20(%ebp), %eax
	movl	8(%ebp), %esi
	movl	12(%ebp), %edi
	movl	%eax, -60(%ebp)
	movl	%gs:20, %eax
	movl	%eax, -28(%ebp)
	xorl	%eax, %eax
.LVL837:
.LBB646:
.LBB647:
	.loc 1 5925 0
	testb	$1, (%esi)
	jne	.L617
	.loc 1 5926 0
	cmpb	$8, bt_dev+14
	ja	.L617
	cmpw	$159, 2(%esi)
	ja	.L617
.LVL838:
.L619:
.LBE647:
.LBE646:
	.loc 1 5977 0
	movl	$-22, %ebx
	jmp	.L618
.LVL839:
.L617:
.LBB649:
.LBB648:
	.loc 1 5933 0
	movw	2(%esi), %ax
	movl	4(%esi), %ecx
	.loc 1 5934 0
	cmpw	$31, %ax
	setbe	%dl
	cmpw	%cx, %ax
	seta	%al
	orb	%al, %dl
	jne	.L619
	cmpw	$16384, %cx
	ja	.L619
.LVL840:
.LBE648:
.LBE649:
	.loc 1 5979 0
	movl	$5, %edx
	movl	$bt_dev+108, %eax
	call	atomic_test_bit
.LVL841:
	testl	%eax, %eax
	movl	%eax, %ebx
	jne	.L647
	.loc 1 5982 0
	movl	16(%ebp), %ecx
	movl	%edi, %edx
	movl	$8200, %eax
	call	set_ad
.LVL842:
	.loc 1 5983 0
	testl	%eax, %eax
	jne	.L637
	.loc 1 5986 0
	cmpl	$0, -60(%ebp)
	jne	.L621
	.loc 1 5986 0 is_stmt 0 discriminator 1
	testb	$1, (%esi)
	jne	.L621
.L624:
	.loc 1 5992 0 is_stmt 1
	leal	-43(%ebp), %edi
	xorl	%eax, %eax
.LVL843:
	movl	$15, %ecx
	.loc 1 5996 0
	testb	$1, (%esi)
	.loc 1 5992 0
	rep stosb
	.loc 1 5993 0
	movw	2(%esi), %ax
	.loc 1 5995 0
	movb	$7, -30(%ebp)
	.loc 1 5993 0
	movw	%ax, -43(%ebp)
	.loc 1 5994 0
	movl	4(%esi), %eax
	movw	%ax, -41(%ebp)
	.loc 1 5996 0
	je	.L643
	.loc 1 6009 0
	movl	$2, %edx
	movl	$bt_dev+108, %eax
	call	atomic_test_bit
.LVL844:
	testl	%eax, %eax
	je	.L625
	.loc 1 6011 0
	movl	$bt_dev+1, %eax
	call	set_random_address
.LVL845:
.L625:
	.loc 1 6013 0
	movb	bt_dev, %al
	.loc 1 6015 0
	movb	$0, -39(%ebp)
	.loc 1 6013 0
	movb	%al, -38(%ebp)
.L626:
	.loc 1 6035 0
	pushl	%ecx
	pushl	%ecx
	pushl	$15
	pushl	$8198
	call	bt_hci_cmd_create
.LVL846:
	.loc 1 6036 0
	addl	$16, %esp
	testl	%eax, %eax
	.loc 1 6035 0
	movl	%eax, %edi
.LVL847:
	.loc 1 6036 0
	je	.L635
	.loc 1 6039 0
	leal	-43(%ebp), %eax
.LVL848:
	pushl	%edx
	pushl	$15
	pushl	%eax
	leal	8(%edi), %eax
	pushl	%eax
	call	net_buf_simple_add_mem
.LVL849:
	.loc 1 6040 0
	addl	$12, %esp
	pushl	$0
	pushl	%edi
	pushl	$8198
	call	bt_hci_cmd_send_sync
.LVL850:
	.loc 1 6043 0
	addl	$16, %esp
	testl	%eax, %eax
	jne	.L637
	.loc 1 6046 0
	movl	$1, %eax
.LVL851:
	call	set_advertise_enable
.LVL852:
	.loc 1 6049 0
	testl	%eax, %eax
	jne	.L637
	.loc 1 6052 0
	testb	$2, (%esi)
	jne	.L618
.LVL853:
.LVL854:
.LBB650:
.LBB651:
	.loc 1 875 0
	pushl	%eax
	pushl	%eax
	pushl	$64
	pushl	$bt_dev+108
.LVL855:
	call	atomic_or
.LVL856:
	addl	$16, %esp
.LVL857:
.L618:
.LBE651:
.LBE650:
	.loc 1 6056 0
	movl	-28(%ebp), %ecx
	xorl	%gs:20, %ecx
	movl	%ebx, %eax
	je	.L631
	call	__stack_chk_fail
.LVL858:
.L621:
	.loc 1 5987 0
	movl	24(%ebp), %ecx
	movl	-60(%ebp), %edx
	movl	$8201, %eax
.LVL859:
	call	set_ad
.LVL860:
	.loc 1 5988 0
	testl	%eax, %eax
	je	.L624
	jmp	.L637
.LVL861:
.L643:
	.loc 1 6017 0
	movl	8(%esi), %eax
	testl	%eax, %eax
	je	.L627
	.loc 1 6018 0
	testb	$-64, 5(%eax)
	jne	.L619
	.loc 1 6021 0
	call	set_random_address
.LVL862:
	jmp	.L628
.LVL863:
.L627:
	.loc 1 6023 0
	call	le_set_private_addr
.LVL864:
.L628:
	.loc 1 6025 0
	testl	%eax, %eax
	jne	.L637
	.loc 1 6030 0
	cmpl	$1, -60(%ebp)
	.loc 1 6028 0
	movb	$1, -38(%ebp)
	.loc 1 6030 0
	sbbl	%eax, %eax
.LVL865:
	notl	%eax
	addl	$3, %eax
	movb	%al, -39(%ebp)
	jmp	.L626
.LVL866:
.L635:
	.loc 1 6037 0
	movl	$-55, %ebx
	jmp	.L618
.LVL867:
.L637:
	movl	%eax, %ebx
	jmp	.L618
.LVL868:
.L647:
	.loc 1 5980 0
	movl	$-69, %ebx
	jmp	.L618
.L631:
	.loc 1 6056 0
	leal	-12(%ebp), %esp
	popl	%ebx
	.cfi_restore 3
	popl	%esi
	.cfi_restore 6
	popl	%edi
	.cfi_restore 7
	popl	%ebp
	.cfi_restore 5
	.cfi_def_cfa 4, 4
	ret
	.cfi_endproc
.LFE160:
	.size	bt_le_adv_start, .-bt_le_adv_start
	.section	.text.unlikely.bt_le_adv_start
.LCOLDE41:
	.section	.text.bt_le_adv_start
.LHOTE41:
	.section	.text.unlikely.bt_le_adv_stop,"ax",@progbits
.LCOLDB42:
	.section	.text.bt_le_adv_stop,"ax",@progbits
.LHOTB42:
	.globl	bt_le_adv_stop
	.type	bt_le_adv_stop, @function
bt_le_adv_stop:
.LFB161:
	.loc 1 6058 0
	.cfi_startproc
.LVL869:
	pushl	%ebp
	.cfi_def_cfa_offset 8
	.cfi_offset 5, -8
	movl	%esp, %ebp
	.cfi_def_cfa_register 5
	pushl	%ebx
	subl	$12, %esp
	.cfi_offset 3, -12
.LBB652:
.LBB653:
	.loc 1 870 0
	pushl	$-65
	pushl	$bt_dev+108
.LVL870:
	call	atomic_and
.LVL871:
.LBE653:
.LBE652:
	.loc 1 6061 0
	movl	$5, %edx
	movl	$bt_dev+108, %eax
	call	atomic_test_bit
.LVL872:
	addl	$16, %esp
	testl	%eax, %eax
	jne	.L649
.L651:
	.loc 1 6062 0
	xorl	%ebx, %ebx
	jmp	.L650
.L649:
	.loc 1 6064 0
	xorl	%eax, %eax
	call	set_advertise_enable
.LVL873:
	.loc 1 6067 0
	testl	%eax, %eax
	.loc 1 6064 0
	movl	%eax, %ebx
.LVL874:
	.loc 1 6067 0
	jne	.L650
	.loc 1 6071 0
	movl	$7, %edx
	movl	$bt_dev+108, %eax
.LVL875:
	call	atomic_test_bit
.LVL876:
	testl	%eax, %eax
	je	.L651
	.loc 1 6072 0 discriminator 1
	movl	$9, %edx
	movl	$bt_dev+108, %eax
	call	atomic_test_bit
.LVL877:
	.loc 1 6071 0 discriminator 1
	testl	%eax, %eax
	je	.L651
	.loc 1 6073 0
	call	le_set_private_addr
.LVL878:
.L650:
	.loc 1 6077 0
	movl	%ebx, %eax
	movl	-4(%ebp), %ebx
	leave
	.cfi_restore 5
	.cfi_restore 3
	.cfi_def_cfa 4, 4
	ret
	.cfi_endproc
.LFE161:
	.size	bt_le_adv_stop, .-bt_le_adv_stop
	.section	.text.unlikely.bt_le_adv_stop
.LCOLDE42:
	.section	.text.bt_le_adv_stop
.LHOTE42:
	.section	.text.unlikely.bt_le_scan_start,"ax",@progbits
.LCOLDB43:
	.section	.text.bt_le_scan_start,"ax",@progbits
.LHOTB43:
	.globl	bt_le_scan_start
	.type	bt_le_scan_start, @function
bt_le_scan_start:
.LFB163:
	.loc 1 6114 0
	.cfi_startproc
.LVL879:
	pushl	%ebp
	.cfi_def_cfa_offset 8
	.cfi_offset 5, -8
	movl	%esp, %ebp
	.cfi_def_cfa_register 5
	pushl	%edi
	pushl	%esi
	pushl	%ebx
	.cfi_offset 7, -12
	.cfi_offset 6, -16
	.cfi_offset 3, -20
	.loc 1 6117 0
	movl	$-22, %esi
	.loc 1 6114 0
	subl	$44, %esp
	.loc 1 6114 0
	movl	12(%ebp), %eax
	movl	8(%ebp), %ebx
	movl	%eax, -48(%ebp)
	movl	%gs:20, %eax
	movl	%eax, -28(%ebp)
	xorl	%eax, %eax
.LVL880:
.LBB672:
.LBB673:
	.loc 1 6082 0
	cmpb	$1, (%ebx)
	ja	.L661
	.loc 1 6088 0
	cmpb	$1, 1(%ebx)
	ja	.L661
	.loc 1 6094 0
	movw	2(%ebx), %dx
	leal	-4(%edx), %eax
	cmpw	$16380, %ax
	ja	.L661
	.loc 1 6099 0
	movw	4(%ebx), %ax
	.loc 1 6104 0
	leal	-4(%eax), %ecx
	cmpw	$16380, %cx
	ja	.L677
	cmpw	%ax, %dx
	jnb	.L690
.L677:
.LBE673:
.LBE672:
	.loc 1 6117 0
	movl	$-22, %esi
	jmp	.L661
.L690:
.LVL881:
.LBB674:
.LBB675:
	.loc 1 864 0
	pushl	%eax
	pushl	%eax
	pushl	$256
	pushl	$bt_dev+108
.LVL882:
	call	atomic_or
.LVL883:
.LBE675:
.LBE674:
	.loc 1 6119 0
	addl	$16, %esp
	andl	$256, %eax
	movl	%eax, %esi
	jne	.L697
	.loc 1 6122 0
	movl	$7, %edx
	movl	$bt_dev+108, %eax
	call	atomic_test_bit
.LVL884:
	testl	%eax, %eax
	je	.L663
	.loc 1 6123 0
	xorl	%eax, %eax
	call	set_le_scan_enable
.LVL885:
	.loc 1 6124 0
	testl	%eax, %eax
	.loc 1 6123 0
	movl	%eax, %edi
.LVL886:
	.loc 1 6124 0
	je	.L663
.LVL887:
.LVL888:
.LBB676:
.LBB677:
	.loc 1 870 0
	pushl	%eax
	pushl	%eax
.LBE677:
.LBE676:
	.loc 1 6126 0
	movl	%edi, %esi
.LBB679:
.LBB678:
	.loc 1 870 0
	pushl	$-257
	pushl	$bt_dev+108
.LVL889:
	call	atomic_and
.LVL890:
.LBE678:
.LBE679:
	.loc 1 6126 0
	addl	$16, %esp
.LVL891:
.L661:
	.loc 1 6141 0
	movl	-28(%ebp), %ecx
	xorl	%gs:20, %ecx
	movl	%esi, %eax
	je	.L673
	call	__stack_chk_fail
.LVL892:
.L663:
	.loc 1 6129 0
	cmpb	$0, 1(%ebx)
	je	.L664
.LVL893:
.LBB680:
.LBB681:
	.loc 1 875 0
	pushl	%eax
	pushl	%eax
	pushl	$1024
	pushl	$bt_dev+108
.LVL894:
	call	atomic_or
.LVL895:
	jmp	.L695
.LVL896:
.L664:
.LBE681:
.LBE680:
.LBB682:
.LBB683:
	.loc 1 870 0
	pushl	%edi
	pushl	%edi
	pushl	$-1025
	pushl	$bt_dev+108
.LVL897:
	call	atomic_and
.LVL898:
.L695:
.LBE683:
.LBE682:
	.loc 1 6134 0
	movw	4(%ebx), %ax
.LBB685:
.LBB686:
	.loc 1 5002 0
	leal	-35(%ebp), %edi
	movl	$7, %ecx
.LBE686:
.LBE685:
	.loc 1 6134 0
	movw	2(%ebx), %dx
	movb	(%ebx), %bl
.LVL899:
.LBB693:
.LBB684:
	.loc 1 870 0
	addl	$16, %esp
.LBE684:
.LBE693:
	.loc 1 6134 0
	movw	%ax, -42(%ebp)
.LVL900:
.LBB694:
.LBB691:
	.loc 1 5002 0
	xorl	%eax, %eax
	rep stosb
	.loc 1 5005 0
	movw	-42(%ebp), %ax
	.loc 1 5019 0
	cmpb	$1, %bl
	.loc 1 5003 0
	movb	%bl, -35(%ebp)
	.loc 1 5004 0
	movw	%dx, -34(%ebp)
	.loc 1 5005 0
	movw	%ax, -32(%ebp)
	.loc 1 5018 0
	movb	bt_dev, %al
	movb	%al, -30(%ebp)
	.loc 1 5019 0
	jne	.L667
	.loc 1 5021 0
	movl	$5, %edx
.LVL901:
	movl	$bt_dev+108, %eax
	call	atomic_test_bit
.LVL902:
	.loc 1 5020 0
	testl	%eax, %eax
	jne	.L667
	.loc 1 5022 0
	call	le_set_private_addr
.LVL903:
	.loc 1 5023 0
	testl	%eax, %eax
	jne	.L680
	.loc 1 5026 0
	movb	$1, -30(%ebp)
.LVL904:
.L667:
	.loc 1 5029 0
	pushl	%ecx
	pushl	%ecx
	pushl	$7
	pushl	$8203
	call	bt_hci_cmd_create
.LVL905:
	.loc 1 5030 0
	addl	$16, %esp
	testl	%eax, %eax
	.loc 1 5029 0
	movl	%eax, %edi
.LVL906:
	.loc 1 5030 0
	je	.L679
.LVL907:
	.loc 1 5033 0
	pushl	%eax
	leal	-35(%ebp), %eax
	pushl	$7
	pushl	%eax
	leal	8(%edi), %eax
	pushl	%eax
	call	net_buf_simple_add_mem
.LVL908:
	.loc 1 5034 0
	popl	%eax
	popl	%edx
	pushl	%edi
	pushl	$8203
	call	bt_hci_cmd_send
.LVL909:
	.loc 1 5035 0
	movl	$1, %eax
	call	set_le_scan_enable
.LVL910:
	.loc 1 5036 0
	addl	$16, %esp
	testl	%eax, %eax
	jne	.L680
	.loc 1 5039 0
	decb	%bl
.LVL911:
	jne	.L670
.LVL912:
.LBB687:
.LBB688:
	.loc 1 875 0
	pushl	%ebx
	pushl	%ebx
	pushl	$512
	pushl	$bt_dev+108
.LVL913:
	call	atomic_or
.LVL914:
	jmp	.L696
.LVL915:
.L670:
.LBE688:
.LBE687:
.LBB689:
.LBB690:
	.loc 1 870 0
	pushl	%ecx
	pushl	%ecx
	pushl	$-513
	pushl	$bt_dev+108
.LVL916:
	call	atomic_and
.LVL917:
.L696:
	addl	$16, %esp
	jmp	.L671
.LVL918:
.L679:
.LBE690:
.LBE689:
	.loc 1 5031 0
	movl	$-55, %esi
	jmp	.L691
.LVL919:
.L680:
.LBE691:
.LBE694:
	.loc 1 6135 0
	testl	%eax, %eax
.LBB695:
.LBB692:
	.loc 1 5036 0
	movl	%eax, %esi
.LVL920:
.LBE692:
.LBE695:
	.loc 1 6135 0
	je	.L671
.L691:
.LVL921:
.LBB696:
.LBB697:
	.loc 1 870 0
	pushl	%edx
	pushl	%edx
	pushl	$-257
	pushl	$bt_dev+108
.LVL922:
	call	atomic_and
.LVL923:
.LBE697:
.LBE696:
	.loc 1 6137 0
	addl	$16, %esp
	jmp	.L661
.L671:
	.loc 1 6139 0
	movl	-48(%ebp), %eax
	movl	%eax, scan_dev_found_cb
	.loc 1 6140 0
	jmp	.L661
.L697:
	.loc 1 6120 0
	movl	$-69, %esi
	jmp	.L661
.L673:
	.loc 1 6141 0
	leal	-12(%ebp), %esp
	popl	%ebx
	.cfi_restore 3
	popl	%esi
	.cfi_restore 6
	popl	%edi
	.cfi_restore 7
	popl	%ebp
	.cfi_restore 5
	.cfi_def_cfa 4, 4
	ret
	.cfi_endproc
.LFE163:
	.size	bt_le_scan_start, .-bt_le_scan_start
	.section	.text.unlikely.bt_le_scan_start
.LCOLDE43:
	.section	.text.bt_le_scan_start
.LHOTE43:
	.section	.text.unlikely.bt_le_scan_stop,"ax",@progbits
.LCOLDB44:
	.section	.text.bt_le_scan_stop,"ax",@progbits
.LHOTB44:
	.globl	bt_le_scan_stop
	.type	bt_le_scan_stop, @function
bt_le_scan_stop:
.LFB164:
	.loc 1 6143 0
	.cfi_startproc
	pushl	%ebp
	.cfi_def_cfa_offset 8
	.cfi_offset 5, -8
	.loc 1 6144 0
	movl	$8, %edx
	movl	$bt_dev+108, %eax
	.loc 1 6143 0
	movl	%esp, %ebp
	.cfi_def_cfa_register 5
	subl	$8, %esp
	.loc 1 6144 0
	call	atomic_test_and_clear_bit
.LVL924:
	movl	%eax, %edx
	movl	$-69, %eax
	testl	%edx, %edx
	je	.L699
	.loc 1 6150 0
	subl	$12, %esp
	.loc 1 6147 0
	movl	$0, scan_dev_found_cb
	.loc 1 6150 0
	pushl	$0
	call	bt_le_scan_update
.LVL925:
	addl	$16, %esp
.L699:
	.loc 1 6153 0
	leave
	.cfi_restore 5
	.cfi_def_cfa 4, 4
	ret
	.cfi_endproc
.LFE164:
	.size	bt_le_scan_stop, .-bt_le_scan_stop
	.section	.text.unlikely.bt_le_scan_stop
.LCOLDE44:
	.section	.text.bt_le_scan_stop
.LHOTE44:
	.section	.text.unlikely.bt_buf_get_rx,"ax",@progbits
.LCOLDB45:
	.section	.text.bt_buf_get_rx,"ax",@progbits
.LHOTB45:
	.globl	bt_buf_get_rx
	.type	bt_buf_get_rx, @function
bt_buf_get_rx:
.LFB165:
	.loc 1 6155 0
	.cfi_startproc
.LVL926:
	pushl	%ebp
	.cfi_def_cfa_offset 8
	.cfi_offset 5, -8
	movl	%esp, %ebp
	.cfi_def_cfa_register 5
	pushl	%ebx
	subl	$12, %esp
	.cfi_offset 3, -12
	.loc 1 6159 0
	pushl	12(%ebp)
	pushl	$hci_rx_pool
	call	net_buf_alloc
.LVL927:
	.loc 1 6160 0
	addl	$16, %esp
	testl	%eax, %eax
	.loc 1 6159 0
	movl	%eax, %ebx
.LVL928:
	.loc 1 6160 0
	je	.L704
.LVL929:
	.loc 1 6161 0
	pushl	%eax
	pushl	%eax
	pushl	$1
	pushl	%ebx
	call	net_buf_reserve
.LVL930:
.LBB700:
.LBB701:
	.loc 1 3034 0
	movl	%ebx, %eax
	call	net_buf_user_data
.LVL931:
	movl	8(%ebp), %edx
	addl	$16, %esp
	movb	%dl, (%eax)
.LVL932:
.L704:
.LBE701:
.LBE700:
	.loc 1 6165 0
	movl	%ebx, %eax
	movl	-4(%ebp), %ebx
.LVL933:
	leave
	.cfi_restore 5
	.cfi_restore 3
	.cfi_def_cfa 4, 4
	ret
	.cfi_endproc
.LFE165:
	.size	bt_buf_get_rx, .-bt_buf_get_rx
	.section	.text.unlikely.bt_buf_get_rx
.LCOLDE45:
	.section	.text.bt_buf_get_rx
.LHOTE45:
	.section	.text.unlikely.bt_buf_get_cmd_complete,"ax",@progbits
.LCOLDB46:
	.section	.text.bt_buf_get_cmd_complete,"ax",@progbits
.LHOTB46:
	.globl	bt_buf_get_cmd_complete
	.type	bt_buf_get_cmd_complete, @function
bt_buf_get_cmd_complete:
.LFB166:
	.loc 1 6167 0
	.cfi_startproc
.LVL934:
	pushl	%ebp
	.cfi_def_cfa_offset 8
	.cfi_offset 5, -8
	movl	%esp, %ebp
	.cfi_def_cfa_register 5
	pushl	%ebx
	pushl	%ecx
	.cfi_offset 3, -12
	.loc 1 6170 0
	call	irq_lock
.LVL935:
	.loc 1 6175 0
	subl	$12, %esp
	.loc 1 6171 0
	movl	bt_dev+160, %ebx
.LVL936:
	.loc 1 6172 0
	movl	$0, bt_dev+160
	.loc 1 6175 0
	pushl	%eax
	call	irq_unlock
.LVL937:
	.loc 1 6177 0
	addl	$16, %esp
	testl	%ebx, %ebx
	je	.L710
.LVL938:
.LBB704:
.LBB705:
	.loc 1 3034 0
	movl	%ebx, %eax
	call	net_buf_user_data
.LVL939:
	movb	$1, (%eax)
.LVL940:
.LBE705:
.LBE704:
	.loc 1 6179 0
	movw	$0, 12(%ebx)
	.loc 1 6180 0
	pushl	%edx
	pushl	%edx
	pushl	$1
	pushl	%ebx
	call	net_buf_reserve
.LVL941:
	.loc 1 6181 0
	addl	$16, %esp
	movl	%ebx, %eax
	jmp	.L711
.L710:
	.loc 1 6183 0
	pushl	%eax
	pushl	%eax
	pushl	8(%ebp)
	pushl	$1
	call	bt_buf_get_rx
.LVL942:
	addl	$16, %esp
.L711:
	.loc 1 6184 0
	movl	-4(%ebp), %ebx
.LVL943:
	leave
	.cfi_restore 5
	.cfi_restore 3
	.cfi_def_cfa 4, 4
	ret
	.cfi_endproc
.LFE166:
	.size	bt_buf_get_cmd_complete, .-bt_buf_get_cmd_complete
	.section	.text.unlikely.bt_buf_get_cmd_complete
.LCOLDE46:
	.section	.text.bt_buf_get_cmd_complete
.LHOTE46:
	.section	.text.unlikely.bt_storage_register,"ax",@progbits
.LCOLDB47:
	.section	.text.bt_storage_register,"ax",@progbits
.LHOTB47:
	.globl	bt_storage_register
	.type	bt_storage_register, @function
bt_storage_register:
.LFB167:
	.loc 1 6186 0
	.cfi_startproc
.LVL944:
	pushl	%ebp
	.cfi_def_cfa_offset 8
	.cfi_offset 5, -8
	movl	%esp, %ebp
	.cfi_def_cfa_register 5
	.loc 1 6187 0
	movl	8(%ebp), %eax
	.loc 1 6188 0
	popl	%ebp
	.cfi_restore 5
	.cfi_def_cfa 4, 4
	.loc 1 6187 0
	movl	%eax, bt_storage
	.loc 1 6188 0
	ret
	.cfi_endproc
.LFE167:
	.size	bt_storage_register, .-bt_storage_register
	.section	.text.unlikely.bt_storage_register
.LCOLDE47:
	.section	.text.bt_storage_register
.LHOTE47:
	.section	.text.unlikely.bt_storage_clear,"ax",@progbits
.LCOLDB48:
	.section	.text.bt_storage_clear,"ax",@progbits
.LHOTB48:
	.globl	bt_storage_clear
	.type	bt_storage_clear, @function
bt_storage_clear:
.LFB169:
	.loc 1 6210 0
	.cfi_startproc
.LVL945:
	pushl	%ebp
	.cfi_def_cfa_offset 8
	.cfi_offset 5, -8
	movl	%esp, %ebp
	.cfi_def_cfa_register 5
	pushl	%esi
	pushl	%ebx
	.cfi_offset 6, -12
	.cfi_offset 3, -16
	.loc 1 6210 0
	movl	8(%ebp), %ebx
	.loc 1 6211 0
	testl	%ebx, %ebx
	jne	.L716
.LBB710:
.LBB711:
	.loc 1 6192 0
	call	bt_conn_disconnect_all
.LVL946:
	.loc 1 6195 0
	call	bt_keys_clear_all
.LVL947:
	.loc 1 6202 0
	movl	bt_storage, %eax
	testl	%eax, %eax
	je	.L718
	.loc 1 6203 0
	movl	$0, 8(%ebp)
	jmp	.L732
.LVL948:
.L716:
.LBE711:
.LBE710:
.LBB712:
	.loc 1 6215 0
	subl	$12, %esp
	pushl	%ebx
	call	bt_conn_lookup_addr_le
.LVL949:
	.loc 1 6216 0
	addl	$16, %esp
	testl	%eax, %eax
	.loc 1 6215 0
	movl	%eax, %esi
.LVL950:
	.loc 1 6216 0
	je	.L719
.LVL951:
	.loc 1 6217 0
	pushl	%eax
	pushl	%eax
	pushl	$19
	pushl	%esi
	call	bt_conn_disconnect
.LVL952:
	.loc 1 6219 0
	movl	%esi, (%esp)
	call	bt_conn_unref
.LVL953:
	addl	$16, %esp
.L719:
.LBE712:
.LBB713:
	.loc 1 6228 0
	subl	$12, %esp
	pushl	%ebx
	call	bt_keys_find_addr
.LVL954:
	.loc 1 6229 0
	addl	$16, %esp
	testl	%eax, %eax
	je	.L720
	.loc 1 6230 0
	subl	$12, %esp
	pushl	%eax
	call	bt_keys_clear
.LVL955:
	addl	$16, %esp
.L720:
.LBE713:
	.loc 1 6233 0
	movl	bt_storage, %eax
	testl	%eax, %eax
	je	.L718
	.loc 1 6234 0
	movl	%ebx, 8(%ebp)
.LVL956:
.L732:
	movl	8(%eax), %eax
	.loc 1 6237 0
	leal	-8(%ebp), %esp
	popl	%ebx
	.cfi_remember_state
	.cfi_restore 3
	popl	%esi
	.cfi_restore 6
	popl	%ebp
	.cfi_restore 5
	.cfi_def_cfa 4, 4
	.loc 1 6234 0
	jmp	*%eax
.LVL957:
.L718:
	.cfi_restore_state
	.loc 1 6237 0
	leal	-8(%ebp), %esp
	xorl	%eax, %eax
	popl	%ebx
	.cfi_restore 3
	popl	%esi
	.cfi_restore 6
	popl	%ebp
	.cfi_restore 5
	.cfi_def_cfa 4, 4
	ret
	.cfi_endproc
.LFE169:
	.size	bt_storage_clear, .-bt_storage_clear
	.section	.text.unlikely.bt_storage_clear
.LCOLDE48:
	.section	.text.bt_storage_clear
.LHOTE48:
	.section	.text.unlikely.bt_hci_get_cmd_opcode,"ax",@progbits
.LCOLDB49:
	.section	.text.bt_hci_get_cmd_opcode,"ax",@progbits
.LHOTB49:
	.globl	bt_hci_get_cmd_opcode
	.type	bt_hci_get_cmd_opcode, @function
bt_hci_get_cmd_opcode:
.LFB170:
	.loc 1 6239 0
	.cfi_startproc
.LVL958:
	pushl	%ebp
	.cfi_def_cfa_offset 8
	.cfi_offset 5, -8
	movl	%esp, %ebp
	.cfi_def_cfa_register 5
	.loc 1 6240 0
	movl	8(%ebp), %eax
	call	net_buf_user_data
.LVL959:
	.loc 1 6241 0
	popl	%ebp
	.cfi_restore 5
	.cfi_def_cfa 4, 4
	.loc 1 6240 0
	movw	2(%eax), %ax
	.loc 1 6241 0
	ret
	.cfi_endproc
.LFE170:
	.size	bt_hci_get_cmd_opcode, .-bt_hci_get_cmd_opcode
	.section	.text.unlikely.bt_hci_get_cmd_opcode
.LCOLDE49:
	.section	.text.bt_hci_get_cmd_opcode
.LHOTE49:
	.section	.text.unlikely.bt_pub_key_gen,"ax",@progbits
.LCOLDB50:
	.section	.text.bt_pub_key_gen,"ax",@progbits
.LHOTB50:
	.globl	bt_pub_key_gen
	.type	bt_pub_key_gen, @function
bt_pub_key_gen:
.LFB171:
	.loc 1 6243 0
	.cfi_startproc
.LVL960:
	pushl	%ebp
	.cfi_def_cfa_offset 8
	.cfi_offset 5, -8
	.loc 1 6249 0
	movl	$-35, %eax
	.loc 1 6243 0
	movl	%esp, %ebp
	.cfi_def_cfa_register 5
	pushl	%edi
	pushl	%esi
	pushl	%ebx
	subl	$12, %esp
	.cfi_offset 7, -12
	.cfi_offset 6, -16
	.cfi_offset 3, -20
	.loc 1 6246 0
	movb	bt_dev+64, %dl
	.loc 1 6243 0
	movl	8(%ebp), %esi
	.loc 1 6246 0
	andl	$6, %edx
	cmpb	$6, %dl
	jne	.L736
	.loc 1 6251 0
	movl	pub_key_cb, %eax
	.loc 1 6252 0
	movl	%esi, pub_key_cb
.LVL961:
	.loc 1 6251 0
	movl	%eax, 4(%esi)
.LBB720:
.LBB721:
	.loc 1 864 0
	pushl	%ecx
	pushl	%ecx
	pushl	$16
	pushl	$bt_dev+108
.LVL962:
	call	atomic_or
.LVL963:
.LBE721:
.LBE720:
	.loc 1 6253 0
	addl	$16, %esp
	testb	$16, %al
	je	.L737
.L742:
	.loc 1 6254 0
	xorl	%eax, %eax
	jmp	.L736
.L737:
.LVL964:
.LBB722:
.LBB723:
	.loc 1 870 0
	pushl	%edx
	pushl	%edx
	pushl	$-9
	pushl	$bt_dev+108
.LVL965:
	call	atomic_and
.LVL966:
.LBE723:
.LBE722:
	.loc 1 6257 0
	addl	$12, %esp
	pushl	$0
	pushl	$0
	pushl	$8229
	call	bt_hci_cmd_send_sync
.LVL967:
	.loc 1 6262 0
	addl	$16, %esp
	testl	%eax, %eax
	.loc 1 6257 0
	movl	%eax, %ebx
.LVL968:
	.loc 1 6270 0
	movl	pub_key_cb, %edi
	.loc 1 6262 0
	je	.L744
.LVL969:
.LVL970:
.LBB724:
.LBB725:
	.loc 1 870 0
	pushl	%eax
	pushl	%eax
	pushl	$-17
	pushl	$bt_dev+108
.LVL971:
	call	atomic_and
.LVL972:
.LBE725:
.LBE724:
	.loc 1 6265 0
	movl	$0, pub_key_cb
	.loc 1 6268 0
	addl	$16, %esp
	movl	%ebx, %eax
	jmp	.L736
.LVL973:
.L741:
	.loc 1 6271 0
	cmpl	%esi, %edi
	je	.L740
	.loc 1 6272 0
	subl	$12, %esp
	pushl	$0
	call	*(%edi)
.LVL974:
	addl	$16, %esp
.L740:
	.loc 1 6270 0 discriminator 2
	movl	4(%edi), %edi
.LVL975:
.L744:
	.loc 1 6270 0 is_stmt 0 discriminator 1
	testl	%edi, %edi
	jne	.L741
	jmp	.L742
.LVL976:
.L736:
	.loc 1 6278 0 is_stmt 1
	leal	-12(%ebp), %esp
	popl	%ebx
	.cfi_restore 3
	popl	%esi
	.cfi_restore 6
	popl	%edi
	.cfi_restore 7
	popl	%ebp
	.cfi_restore 5
	.cfi_def_cfa 4, 4
	ret
	.cfi_endproc
.LFE171:
	.size	bt_pub_key_gen, .-bt_pub_key_gen
	.section	.text.unlikely.bt_pub_key_gen
.LCOLDE50:
	.section	.text.bt_pub_key_gen
.LHOTE50:
	.section	.text.unlikely.bt_pub_key_get,"ax",@progbits
.LCOLDB51:
	.section	.text.bt_pub_key_get,"ax",@progbits
.LHOTB51:
	.globl	bt_pub_key_get
	.type	bt_pub_key_get, @function
bt_pub_key_get:
.LFB172:
	.loc 1 6280 0
	.cfi_startproc
	pushl	%ebp
	.cfi_def_cfa_offset 8
	.cfi_offset 5, -8
	.loc 1 6281 0
	movl	$3, %edx
	movl	$bt_dev+108, %eax
	.loc 1 6280 0
	movl	%esp, %ebp
	.cfi_def_cfa_register 5
	subl	$8, %esp
	.loc 1 6281 0
	call	atomic_test_bit
.LVL977:
	.loc 1 6285 0
	movl	$0, %edx
	testl	%eax, %eax
	movl	$pub_key, %eax
	cmove	%edx, %eax
	.loc 1 6287 0
	leave
	.cfi_restore 5
	.cfi_def_cfa 4, 4
	ret
	.cfi_endproc
.LFE172:
	.size	bt_pub_key_get, .-bt_pub_key_get
	.section	.text.unlikely.bt_pub_key_get
.LCOLDE51:
	.section	.text.bt_pub_key_get
.LHOTE51:
	.section	.text.unlikely.bt_dh_key_gen,"ax",@progbits
.LCOLDB52:
	.section	.text.bt_dh_key_gen,"ax",@progbits
.LHOTB52:
	.globl	bt_dh_key_gen
	.type	bt_dh_key_gen, @function
bt_dh_key_gen:
.LFB173:
	.loc 1 6289 0
	.cfi_startproc
.LVL978:
	pushl	%ebp
	.cfi_def_cfa_offset 8
	.cfi_offset 5, -8
	movl	%esp, %ebp
	.cfi_def_cfa_register 5
	pushl	%edi
	pushl	%esi
	pushl	%ebx
	subl	$12, %esp
	.cfi_offset 7, -12
	.cfi_offset 6, -16
	.cfi_offset 3, -20
	.loc 1 6293 0
	cmpl	$0, dh_key_cb
	.loc 1 6289 0
	movl	8(%ebp), %esi
	.loc 1 6293 0
	je	.L752
.L754:
	.loc 1 6294 0
	movl	$-16, %edx
	jmp	.L753
.L752:
	.loc 1 6293 0 discriminator 1
	movl	$4, %edx
	movl	$bt_dev+108, %eax
	call	atomic_test_bit
.LVL979:
	testl	%eax, %eax
	jne	.L754
	.loc 1 6296 0
	movl	$3, %edx
	movl	$bt_dev+108, %eax
	call	atomic_test_bit
.LVL980:
	testl	%eax, %eax
	.loc 1 6297 0
	movl	$-49, %edx
	.loc 1 6296 0
	je	.L753
	.loc 1 6299 0
	movl	12(%ebp), %eax
	.loc 1 6300 0
	pushl	%edx
	pushl	%edx
	pushl	$64
	pushl	$8230
	.loc 1 6299 0
	movl	%eax, dh_key_cb
	.loc 1 6300 0
	call	bt_hci_cmd_create
.LVL981:
	.loc 1 6301 0
	addl	$16, %esp
	testl	%eax, %eax
	.loc 1 6300 0
	movl	%eax, %ebx
.LVL982:
	.loc 1 6301 0
	jne	.L755
	.loc 1 6302 0
	movl	$0, dh_key_cb
	.loc 1 6305 0
	movl	$-55, %edx
	jmp	.L753
.L755:
.LVL983:
	.loc 1 6307 0
	pushl	%eax
	pushl	%eax
	leal	8(%ebx), %eax
	pushl	$64
	pushl	%eax
	call	net_buf_simple_add
.LVL984:
	.loc 1 6308 0
	movl	$16, %ecx
	movl	%eax, %edi
	.loc 1 6309 0
	addl	$12, %esp
	.loc 1 6308 0
	rep movsl
	.loc 1 6309 0
	pushl	$0
	pushl	%ebx
	pushl	$8230
	call	bt_hci_cmd_send_sync
.LVL985:
	.loc 1 6312 0
	addl	$16, %esp
	.loc 1 6318 0
	xorl	%edx, %edx
	.loc 1 6312 0
	testl	%eax, %eax
	je	.L753
	.loc 1 6313 0
	movl	$0, dh_key_cb
	.loc 1 6316 0
	movl	%eax, %edx
.LVL986:
.L753:
	.loc 1 6319 0
	leal	-12(%ebp), %esp
	movl	%edx, %eax
	popl	%ebx
	.cfi_restore 3
	popl	%esi
	.cfi_restore 6
	popl	%edi
	.cfi_restore 7
	popl	%ebp
	.cfi_restore 5
	.cfi_def_cfa 4, 4
	ret
	.cfi_endproc
.LFE173:
	.size	bt_dh_key_gen, .-bt_dh_key_gen
	.section	.text.unlikely.bt_dh_key_gen
.LCOLDE52:
	.section	.text.bt_dh_key_gen
.LHOTE52:
	.section	.text.unlikely.bt_le_oob_get_local,"ax",@progbits
.LCOLDB53:
	.section	.text.bt_le_oob_get_local,"ax",@progbits
.LHOTB53:
	.globl	bt_le_oob_get_local
	.type	bt_le_oob_get_local, @function
bt_le_oob_get_local:
.LFB174:
	.loc 1 6321 0
	.cfi_startproc
.LVL987:
	pushl	%ebp
	.cfi_def_cfa_offset 8
	.cfi_offset 5, -8
	.loc 1 6331 0
	movl	$bt_dev, %edx
	.loc 1 6321 0
	movl	%esp, %ebp
	.cfi_def_cfa_register 5
	.loc 1 6331 0
	movl	8(%ebp), %eax
	call	bt_addr_le_copy
.LVL988:
	.loc 1 6334 0
	xorl	%eax, %eax
	popl	%ebp
	.cfi_restore 5
	.cfi_def_cfa 4, 4
	ret
	.cfi_endproc
.LFE174:
	.size	bt_le_oob_get_local, .-bt_le_oob_get_local
	.section	.text.unlikely.bt_le_oob_get_local
.LCOLDE53:
	.section	.text.bt_le_oob_get_local
.LHOTE53:
	.section	.data.events.5664,"aw",@progbits
	.align 32
	.type	events.5664, @object
	.size	events.5664, 80
events.5664:
	.zero	12
	.byte	0
	.byte	3
	.byte	0
	.byte	0
	.long	bt_dev+188
	.zero	60
	.section	.bss.dh_key_cb,"aw",@nobits
	.align 4
	.type	dh_key_cb, @object
	.size	dh_key_cb, 4
dh_key_cb:
	.zero	4
	.section	.bss.pub_key_cb,"aw",@nobits
	.align 4
	.type	pub_key_cb, @object
	.size	pub_key_cb, 4
pub_key_cb:
	.zero	4
	.section	.bss.pub_key,"aw",@nobits
	.align 32
	.type	pub_key, @object
	.size	pub_key, 64
pub_key:
	.zero	64
	.section	.bss.scan_dev_found_cb,"aw",@nobits
	.align 4
	.type	scan_dev_found_cb, @object
	.size	scan_dev_found_cb, 4
scan_dev_found_cb:
	.zero	4
	.globl	bt_storage
	.section	.bss.bt_storage,"aw",@nobits
	.align 4
	.type	bt_storage, @object
	.size	bt_storage, 4
bt_storage:
	.zero	4
	.section	.bss.ready_cb,"aw",@nobits
	.align 4
	.type	ready_cb, @object
	.size	ready_cb, 4
ready_cb:
	.zero	4
	.globl	bt_dev
	.section	.data.bt_dev,"aw",@progbits
	.align 32
	.type	bt_dev, @object
	.size	bt_dev, 204
bt_dev:
	.zero	96
	.long	0
	.long	init_work
	.long	0
	.zero	40
	.zero	12
	.zero	4
	.long	0
	.zero	8
	.zero	12
	.long	0
	.zero	8
	.zero	4
	.section	.bss.tx_thread_stack,"aw",@nobits
	.align 32
	.type	tx_thread_stack, @object
	.size	tx_thread_stack, 800
tx_thread_stack:
	.zero	800
	.section	.bss.tx_thread_data,"aw",@nobits
	.align 4
	.type	tx_thread_data, @object
	.size	tx_thread_data, 4
tx_thread_data:
	.zero	4
	.section	.bss.rx_thread_stack,"aw",@nobits
	.align 32
	.type	rx_thread_stack, @object
	.size	rx_thread_stack, 2048
rx_thread_stack:
	.zero	2048
	.section	.bss.rx_thread_data,"aw",@nobits
	.align 4
	.type	rx_thread_data, @object
	.size	rx_thread_data, 4
rx_thread_data:
	.zero	4
	.text
.Letext0:
	.section	.text.unlikely.net_buf_user_data
.Letext_cold0:
	.section	.note.GNU-stack,"",@progbits
