	.file	"hci_ecc.c"
	.text
.Ltext0:
	.section	.text.unlikely.sys_memcpy_swap.constprop.3,"ax",@progbits
.LCOLDB0:
	.section	.text.sys_memcpy_swap.constprop.3,"ax",@progbits
.LHOTB0:
	.section	.text.unlikely.sys_memcpy_swap.constprop.3
.Ltext_cold0:
	.section	.text.sys_memcpy_swap.constprop.3
	.type	sys_memcpy_swap.constprop.3, @function
sys_memcpy_swap.constprop.3:
.LFB92:
	.file 1 "src/hci_ecc.c"
	.loc 1 1284 0
	.cfi_startproc
.LVL0:
	pushl	%ebp
	.cfi_def_cfa_offset 8
	.cfi_offset 5, -8
	movl	$32, %ecx
	movl	%esp, %ebp
	.cfi_def_cfa_register 5
	pushl	%esi
	pushl	%ebx
	.cfi_offset 6, -12
	.cfi_offset 3, -16
	.loc 1 1284 0
	movl	%eax, %esi
.LVL1:
.L2:
	.loc 1 1290 0
	movb	-1(%edx,%ecx), %al
	movl	%ecx, %ebx
	negl	%ebx
	.loc 1 1289 0
	decl	%ecx
.LVL2:
	.loc 1 1290 0
	movb	%al, 32(%esi,%ebx)
	.loc 1 1289 0
	jne	.L2
	.loc 1 1292 0
	popl	%ebx
	.cfi_restore 3
	popl	%esi
	.cfi_restore 6
.LVL3:
	popl	%ebp
	.cfi_restore 5
	.cfi_def_cfa 4, 4
	ret
	.cfi_endproc
.LFE92:
	.size	sys_memcpy_swap.constprop.3, .-sys_memcpy_swap.constprop.3
	.section	.text.unlikely.sys_memcpy_swap.constprop.3
.LCOLDE0:
	.section	.text.sys_memcpy_swap.constprop.3
.LHOTE0:
	.section	.text.unlikely.ecc_thread,"ax",@progbits
.LCOLDB1:
	.section	.text.ecc_thread,"ax",@progbits
.LHOTB1:
	.type	ecc_thread, @function
ecc_thread:
.LFB81:
	.loc 1 3380 0
	.cfi_startproc
.LVL4:
	pushl	%ebp
	.cfi_def_cfa_offset 8
	.cfi_offset 5, -8
	movl	%esp, %ebp
	.cfi_def_cfa_register 5
	pushl	%edi
	pushl	%esi
	pushl	%ebx
	subl	$28, %esp
	.cfi_offset 7, -12
	.cfi_offset 6, -16
	.cfi_offset 3, -20
.L7:
	.loc 1 3384 0
	pushl	%esi
	pushl	%esi
	pushl	$-1
	pushl	$cmd_sem
	call	k_sem_take
.LVL5:
.LBB25:
.LBB26:
	.loc 1 850 0
	movl	$flags, (%esp)
	call	atomic_get
.LVL6:
.LBE26:
.LBE25:
	.loc 1 3385 0
	addl	$16, %esp
	testb	$1, %al
	je	.L8
.L22:
.LBB27:
.LBB28:
.LBB29:
.LBB30:
.LBB31:
	.loc 1 3313 0
	pushl	%ebx
	pushl	$curve_secp256r1
	pushl	$ecc
	pushl	$ecc+32
	call	uECC_make_key
.LVL7:
	.loc 1 3314 0
	addl	$16, %esp
	testl	%eax, %eax
	je	.L17
.LBE31:
	.loc 1 3318 0
	pushl	%ecx
	pushl	$32
	pushl	$debug_private_key
	pushl	$ecc
	call	memcmp
.LVL8:
	addl	$16, %esp
	testl	%eax, %eax
	je	.L22
	.loc 1 3319 0
	xorl	%ebx, %ebx
	jmp	.L9
.LVL9:
.L17:
.LBB32:
	.loc 1 3316 0
	movb	$31, %bl
.LVL10:
.L9:
.LBE32:
.LBE30:
.LBE29:
	.loc 1 3330 0
	pushl	%eax
	pushl	%eax
	pushl	$-1
	pushl	$1
	call	bt_buf_get_rx
.LVL11:
	.loc 1 3331 0
	leal	8(%eax), %edi
	.loc 1 3330 0
	movl	%eax, %esi
.LVL12:
	.loc 1 3331 0
	popl	%eax
.LVL13:
	popl	%edx
	pushl	$2
	pushl	%edi
	call	net_buf_simple_add
.LVL14:
	.loc 1 3332 0
	movb	$62, (%eax)
	.loc 1 3333 0
	movb	$66, 1(%eax)
	.loc 1 3334 0
	popl	%ecx
	popl	%eax
.LVL15:
	pushl	$1
	pushl	%edi
	call	net_buf_simple_add
.LVL16:
	.loc 1 3335 0
	movb	$8, (%eax)
	.loc 1 3336 0
	popl	%eax
.LVL17:
	popl	%edx
	pushl	$65
	pushl	%edi
	call	net_buf_simple_add
.LVL18:
	.loc 1 3338 0
	addl	$16, %esp
	testb	%bl, %bl
	.loc 1 3337 0
	movb	%bl, (%eax)
	.loc 1 3336 0
	movl	%eax, %edi
.LVL19:
	leal	1(%eax), %ebx
	.loc 1 3338 0
	je	.L11
	.loc 1 3339 0
	movl	$16, %ecx
	xorl	%eax, %eax
.LVL20:
	movl	%ebx, %edi
.LVL21:
	rep stosl
	jmp	.L12
.LVL22:
.L11:
	.loc 1 3341 0
	movl	$ecc+32, %edx
	movl	%ebx, %eax
.LVL23:
	call	sys_memcpy_swap.constprop.3
.LVL24:
	.loc 1 3342 0
	leal	33(%edi), %eax
	movl	$ecc+64, %edx
	call	sys_memcpy_swap.constprop.3
.LVL25:
.L12:
.LBB33:
.LBB34:
	.loc 1 870 0
	pushl	%eax
	pushl	%eax
	pushl	$-2
	jmp	.L26
.LVL26:
.L8:
.LBE34:
.LBE33:
.LBE28:
.LBE27:
.LBB35:
.LBB36:
	.loc 1 850 0
	subl	$12, %esp
	pushl	$flags
	call	atomic_get
.LVL27:
.LBE36:
.LBE35:
	.loc 1 3387 0
	addl	$16, %esp
	testb	$2, %al
	je	.L7
.LBB37:
.LBB38:
	.loc 1 3354 0
	pushl	%eax
	pushl	%eax
	pushl	$curve_secp256r1
	pushl	$ecc+32
	call	uECC_valid_public_key
.LVL28:
	.loc 1 3355 0
	addl	$16, %esp
	.loc 1 3357 0
	xorl	%edx, %edx
	.loc 1 3355 0
	testl	%eax, %eax
	js	.L14
	.loc 1 3359 0
	pushl	$curve_secp256r1
	pushl	$ecc+32
	pushl	$ecc
	pushl	$ecc+32
	call	uECC_shared_secret
.LVL29:
	addl	$16, %esp
	movl	%eax, %edx
.LVL30:
.L14:
	movl	%edx, -28(%ebp)
.LVL31:
.LVL32:
	.loc 1 3362 0
	pushl	%edx
	pushl	%edx
	pushl	$-1
	pushl	$1
	call	bt_buf_get_rx
.LVL33:
	.loc 1 3363 0
	popl	%ecx
	leal	8(%eax), %ebx
	.loc 1 3362 0
	movl	%eax, %esi
.LVL34:
	.loc 1 3363 0
	popl	%edi
	pushl	$2
	pushl	%ebx
	call	net_buf_simple_add
.LVL35:
	.loc 1 3364 0
	movb	$62, (%eax)
	.loc 1 3365 0
	movb	$34, 1(%eax)
	.loc 1 3366 0
	popl	%eax
.LVL36:
	popl	%edx
	pushl	$1
	pushl	%ebx
	call	net_buf_simple_add
.LVL37:
	.loc 1 3367 0
	movb	$9, (%eax)
	.loc 1 3368 0
	popl	%ecx
	popl	%edi
	pushl	$33
	pushl	%ebx
	call	net_buf_simple_add
.LVL38:
	.loc 1 3369 0
	movl	-28(%ebp), %edx
	addl	$16, %esp
	leal	1(%eax), %ebx
	testl	%edx, %edx
	jne	.L15
.LVL39:
	.loc 1 3370 0
	movb	$31, (%eax)
	.loc 1 3371 0
	movl	$8, %ecx
	movl	%ebx, %edi
	movl	%edx, %eax
.LVL40:
	rep stosl
	jmp	.L16
.LVL41:
.L15:
	.loc 1 3373 0
	movb	$0, (%eax)
	.loc 1 3374 0
	movl	$ecc+32, %edx
	movl	%ebx, %eax
.LVL42:
	call	sys_memcpy_swap.constprop.3
.LVL43:
.L16:
.LBB39:
.LBB40:
	.loc 1 870 0
	pushl	%eax
	pushl	%eax
	pushl	$-3
.LVL44:
.L26:
	pushl	$flags
	call	atomic_and
.LVL45:
.LBE40:
.LBE39:
	.loc 1 3377 0
	movl	%esi, (%esp)
	call	bt_recv
.LVL46:
	addl	$16, %esp
	jmp	.L7
.LBE38:
.LBE37:
	.cfi_endproc
.LFE81:
	.size	ecc_thread, .-ecc_thread
	.section	.text.unlikely.ecc_thread
.LCOLDE1:
	.section	.text.ecc_thread
.LHOTE1:
	.section	.text.unlikely.send_cmd_status,"ax",@progbits
.LCOLDB2:
	.section	.text.send_cmd_status,"ax",@progbits
.LHOTB2:
	.type	send_cmd_status, @function
send_cmd_status:
.LFB77:
	.loc 1 3293 0
	.cfi_startproc
.LVL47:
	pushl	%ebp
	.cfi_def_cfa_offset 8
	.cfi_offset 5, -8
	movl	%esp, %ebp
	.cfi_def_cfa_register 5
	pushl	%edi
	pushl	%esi
	pushl	%ebx
	.cfi_offset 7, -12
	.cfi_offset 6, -16
	.cfi_offset 3, -20
	movl	%eax, %esi
	subl	$40, %esp
	.loc 1 3293 0
	movl	%edx, -28(%ebp)
	.loc 1 3298 0
	pushl	$-1
	call	bt_buf_get_cmd_complete
.LVL48:
	movl	%eax, %ebx
.LVL49:
.LBB45:
.LBB46:
	.loc 1 3156 0
	movzwl	14(%eax), %eax
.LVL50:
.LBE46:
.LBE45:
	.loc 1 3300 0
	leal	8(%ebx), %edi
.LBB48:
.LBB47:
	.loc 1 3156 0
	leal	19(%ebx,%eax), %eax
	andl	$-4, %eax
	movb	$1, (%eax)
.LVL51:
.LBE47:
.LBE48:
	.loc 1 3300 0
	popl	%eax
	popl	%edx
	pushl	$2
	pushl	%edi
	call	net_buf_simple_add
.LVL52:
	.loc 1 3301 0
	movb	$15, (%eax)
	.loc 1 3302 0
	movb	$4, 1(%eax)
	.loc 1 3303 0
	popl	%ecx
	popl	%eax
.LVL53:
	pushl	$4
	pushl	%edi
	call	net_buf_simple_add
.LVL54:
	.loc 1 3306 0
	movl	-28(%ebp), %edx
	.loc 1 3305 0
	movw	%si, 2(%eax)
	.loc 1 3304 0
	movb	$1, 1(%eax)
	.loc 1 3306 0
	movb	%dl, (%eax)
	.loc 1 3307 0
	movl	%ebx, (%esp)
	call	bt_recv_prio
.LVL55:
	.loc 1 3308 0
	addl	$16, %esp
	leal	-12(%ebp), %esp
	popl	%ebx
	.cfi_restore 3
.LVL56:
	popl	%esi
	.cfi_restore 6
	popl	%edi
	.cfi_restore 7
.LVL57:
	popl	%ebp
	.cfi_restore 5
	.cfi_def_cfa 4, 4
	ret
	.cfi_endproc
.LFE77:
	.size	send_cmd_status, .-send_cmd_status
	.section	.text.unlikely.send_cmd_status
.LCOLDE2:
	.section	.text.send_cmd_status
.LHOTE2:
	.section	.text.unlikely.bt_hci_ecc_send,"ax",@progbits
.LCOLDB3:
	.section	.text.bt_hci_ecc_send,"ax",@progbits
.LHOTB3:
	.globl	bt_hci_ecc_send
	.type	bt_hci_ecc_send, @function
bt_hci_ecc_send:
.LFB85:
	.loc 1 3442 0
	.cfi_startproc
.LVL58:
	pushl	%ebp
	.cfi_def_cfa_offset 8
	.cfi_offset 5, -8
	movl	%esp, %ebp
	.cfi_def_cfa_register 5
	pushl	%esi
	pushl	%ebx
	.cfi_offset 6, -12
	.cfi_offset 3, -16
	.loc 1 3442 0
	movl	8(%ebp), %ebx
.LBB68:
.LBB69:
	.loc 1 3160 0
	movzwl	14(%ebx), %eax
	leal	19(%ebx,%eax), %eax
	andl	$-4, %eax
.LBE69:
.LBE68:
	.loc 1 3443 0
	cmpb	$0, (%eax)
	jne	.L30
.LBB70:
	.loc 1 3444 0
	movl	8(%ebx), %eax
.LVL59:
	.loc 1 3445 0
	movw	(%eax), %dx
	cmpw	$8229, %dx
	je	.L31
	cmpw	$8230, %dx
	je	.L32
	cmpw	$8193, %dx
	jne	.L30
.LVL60:
.LBB71:
.LBB72:
	.loc 1 3399 0
	andb	$127, 3(%eax)
	.loc 1 3400 0
	andb	$-2, 4(%eax)
	jmp	.L30
.LVL61:
.L31:
.LBE72:
.LBE71:
	.loc 1 3447 0
	leal	8(%ebx), %eax
.LVL62:
	pushl	%esi
.LVL63:
	pushl	%esi
	pushl	$3
	pushl	%eax
	call	net_buf_simple_pull
.LVL64:
.LBB73:
.LBB74:
	.loc 1 3430 0
	movl	%ebx, (%esp)
	call	net_buf_unref
.LVL65:
.LBB75:
.LBB76:
	.loc 1 850 0
	movl	$flags, (%esp)
	call	atomic_get
.LVL66:
.LBE76:
.LBE75:
	.loc 1 3431 0
	addl	$16, %esp
	testb	$2, %al
	je	.L34
.L36:
	.loc 1 3432 0
	movl	$12, %edx
	jmp	.L35
.L34:
.LVL67:
.LBB77:
.LBB78:
	.loc 1 864 0
	pushl	%ecx
	pushl	%ecx
	pushl	$1
	pushl	$flags
	call	atomic_or
.LVL68:
.LBE78:
.LBE77:
	.loc 1 3433 0
	addl	$16, %esp
	testb	$1, %al
	jne	.L36
	.loc 1 3436 0
	subl	$12, %esp
	pushl	$cmd_sem
	call	k_sem_give
.LVL69:
	addl	$16, %esp
	.loc 1 3437 0
	xorl	%edx, %edx
.LVL70:
.L35:
	.loc 1 3439 0
	movl	$8229, %eax
	call	send_cmd_status
.LVL71:
	jmp	.L37
.LVL72:
.L32:
.LBE74:
.LBE73:
	.loc 1 3451 0
	leal	8(%ebx), %eax
.LVL73:
	pushl	%edx
.LVL74:
	pushl	%edx
	pushl	$3
	pushl	%eax
	call	net_buf_simple_pull
.LVL75:
.LBB79:
.LBB80:
.LBB81:
.LBB82:
	.loc 1 850 0
	movl	$flags, (%esp)
	call	atomic_get
.LVL76:
.LBE82:
.LBE81:
	.loc 1 3406 0
	addl	$16, %esp
	testb	$1, %al
	je	.L38
.L40:
	.loc 1 3407 0
	movl	$12, %esi
	jmp	.L39
.L38:
	.loc 1 3410 0
	cmpw	$63, 12(%ebx)
	.loc 1 3411 0
	movl	$18, %esi
	.loc 1 3410 0
	jbe	.L39
.LVL77:
.LBB83:
.LBB84:
	.loc 1 864 0
	pushl	%eax
	pushl	%eax
	pushl	$2
	pushl	$flags
	call	atomic_or
.LVL78:
.LBE84:
.LBE83:
	.loc 1 3414 0
	addl	$16, %esp
	testb	$2, %al
	jne	.L40
	.loc 1 3418 0
	movl	8(%ebx), %esi
.LVL79:
	.loc 1 3419 0
	movl	$ecc+32, %eax
	movl	%esi, %edx
	call	sys_memcpy_swap.constprop.3
.LVL80:
	.loc 1 3420 0
	leal	32(%esi), %edx
	movl	$ecc+64, %eax
	.loc 1 3422 0
	xorl	%esi, %esi
.LVL81:
	.loc 1 3420 0
	call	sys_memcpy_swap.constprop.3
.LVL82:
	.loc 1 3421 0
	subl	$12, %esp
	pushl	$cmd_sem
	call	k_sem_give
.LVL83:
	addl	$16, %esp
.LVL84:
.L39:
	.loc 1 3424 0
	subl	$12, %esp
	pushl	%ebx
	call	net_buf_unref
.LVL85:
	.loc 1 3425 0
	movl	%esi, %eax
	movzbl	%al, %edx
	movl	$8230, %eax
	call	send_cmd_status
.LVL86:
	addl	$16, %esp
	jmp	.L37
.LVL87:
.L30:
.LBE80:
.LBE79:
.LBE70:
	.loc 1 3461 0
	movl	bt_dev+200, %eax
	movl	%ebx, 8(%ebp)
	movl	12(%eax), %eax
	.loc 1 3462 0
	leal	-8(%ebp), %esp
	popl	%ebx
	.cfi_remember_state
	.cfi_restore 3
.LVL88:
	popl	%esi
	.cfi_restore 6
	popl	%ebp
	.cfi_restore 5
	.cfi_def_cfa 4, 4
	.loc 1 3461 0
	jmp	*%eax
.LVL89:
.L37:
	.cfi_restore_state
	.loc 1 3462 0
	leal	-8(%ebp), %esp
	xorl	%eax, %eax
	popl	%ebx
	.cfi_restore 3
	popl	%esi
	.cfi_restore 6
	popl	%ebp
	.cfi_restore 5
	.cfi_def_cfa 4, 4
	ret
	.cfi_endproc
.LFE85:
	.size	bt_hci_ecc_send, .-bt_hci_ecc_send
	.section	.text.unlikely.bt_hci_ecc_send
.LCOLDE3:
	.section	.text.bt_hci_ecc_send
.LHOTE3:
	.section	.text.unlikely.default_CSPRNG,"ax",@progbits
.LCOLDB4:
	.section	.text.default_CSPRNG,"ax",@progbits
.LHOTB4:
	.globl	default_CSPRNG
	.type	default_CSPRNG, @function
default_CSPRNG:
.LFB86:
	.loc 1 3464 0
	.cfi_startproc
.LVL90:
	pushl	%ebp
	.cfi_def_cfa_offset 8
	.cfi_offset 5, -8
	movl	%esp, %ebp
	.cfi_def_cfa_register 5
	subl	$16, %esp
	.loc 1 3465 0
	pushl	12(%ebp)
	pushl	8(%ebp)
	call	bt_rand
.LVL91:
	addl	$16, %esp
	testl	%eax, %eax
	sete	%al
	.loc 1 3466 0
	leave
	.cfi_restore 5
	.cfi_def_cfa 4, 4
	.loc 1 3465 0
	movzbl	%al, %eax
	.loc 1 3466 0
	ret
	.cfi_endproc
.LFE86:
	.size	default_CSPRNG, .-default_CSPRNG
	.section	.text.unlikely.default_CSPRNG
.LCOLDE4:
	.section	.text.default_CSPRNG
.LHOTE4:
	.section	.text.unlikely.bt_hci_ecc_init,"ax",@progbits
.LCOLDB5:
	.section	.text.bt_hci_ecc_init,"ax",@progbits
.LHOTB5:
	.globl	bt_hci_ecc_init
	.type	bt_hci_ecc_init, @function
bt_hci_ecc_init:
.LFB87:
	.loc 1 3468 0
	.cfi_startproc
	pushl	%ebp
	.cfi_def_cfa_offset 8
	.cfi_offset 5, -8
	movl	%esp, %ebp
	.cfi_def_cfa_register 5
	subl	$12, %esp
	.loc 1 3469 0
	pushl	$1
	pushl	$0
	pushl	$cmd_sem
	call	k_sem_init
.LVL92:
	.loc 1 3470 0
	popl	%eax
	popl	%edx
	pushl	$0
	pushl	$0
	pushl	$41
	pushl	$0
	pushl	$0
	pushl	$0
	pushl	$ecc_thread
	pushl	$1536
	pushl	$ecc_thread_stack
	pushl	$ecc_thread_data
	call	k_thread_create
.LVL93:
	.loc 1 3478 0
	addl	$48, %esp
	leave
	.cfi_restore 5
	.cfi_def_cfa 4, 4
	ret
	.cfi_endproc
.LFE87:
	.size	bt_hci_ecc_init, .-bt_hci_ecc_init
	.section	.text.unlikely.bt_hci_ecc_init
.LCOLDE5:
	.section	.text.bt_hci_ecc_init
.LHOTE5:
	.section	.bss.ecc,"aw",@nobits
	.align 32
	.type	ecc, @object
	.size	ecc, 96
ecc:
	.zero	96
	.section	._k_sem.static.cmd_sem,"aw",@progbits
	.align 4
	.type	cmd_sem, @object
	.size	cmd_sem, 12
cmd_sem:
	.zero	12
	.section	.bss.flags,"aw",@nobits
	.align 4
	.type	flags, @object
	.size	flags, 4
flags:
	.zero	4
	.section	.rodata.debug_private_key,"a",@progbits
	.align 32
	.type	debug_private_key, @object
	.size	debug_private_key, 32
debug_private_key:
	.long	-851699011
	.long	1486469286
	.long	-348080231
	.long	1258250363
	.long	-770687152
	.long	1959375843
	.long	-1547346120
	.long	1061811924
	.section	.bss.ecc_thread_stack,"aw",@nobits
	.align 32
	.type	ecc_thread_stack, @object
	.size	ecc_thread_stack, 1536
ecc_thread_stack:
	.zero	1536
	.section	.bss.ecc_thread_data,"aw",@nobits
	.align 4
	.type	ecc_thread_data, @object
	.size	ecc_thread_data, 4
ecc_thread_data:
	.zero	4
	.section	.rodata.curve_secp256r1,"a",@progbits
	.align 32
	.type	curve_secp256r1, @object
	.size	curve_secp256r1, 176
curve_secp256r1:
	.byte	8
	.byte	32
	.value	256
	.long	-1
	.long	-1
	.long	-1
	.long	0
	.long	0
	.long	0
	.long	1
	.long	-1
	.long	-60611247
	.long	-205927742
	.long	-1491624316
	.long	-1125713235
	.long	-1
	.long	-1
	.long	0
	.long	-1
	.long	-661077354
	.long	-190760635
	.long	770388896
	.long	1996717441
	.long	1671708914
	.long	-121837851
	.long	-517193145
	.long	1796723186
	.long	935285237
	.long	-877248408
	.long	1798397646
	.long	734933847
	.long	2081398294
	.long	-1897403574
	.long	-31817829
	.long	1340293858
	.long	668098635
	.long	1003371582
	.long	-866930442
	.long	1696401072
	.long	1989707452
	.long	-1276396203
	.long	-1439001625
	.long	1522939352
	.long	double_jacobian_default
	.long	x_side_default
	.long	vli_mmod_fast_secp256r1
	.text
.Letext0:
	.section	.text.unlikely.sys_memcpy_swap.constprop.3
.Letext_cold0:
	.section	.note.GNU-stack,"",@progbits
