	.file	"hmac.c"
	.text
.Ltext0:
	.section	.text.unlikely.mbedtls_hmac_starts,"ax",@progbits
.LCOLDB0:
	.section	.text.mbedtls_hmac_starts,"ax",@progbits
.LHOTB0:
	.section	.text.unlikely.mbedtls_hmac_starts
.Ltext_cold0:
	.section	.text.mbedtls_hmac_starts
	.globl	mbedtls_hmac_starts
	.type	mbedtls_hmac_starts, @function
mbedtls_hmac_starts:
.LFB1:
	.file 1 "security/alicrypto/./mbedtls/library/hmac.c"
	.loc 1 34 0
	.cfi_startproc
.LVL0:
	pushl	%ebp
	.cfi_def_cfa_offset 8
	.cfi_offset 5, -8
	movl	%esp, %ebp
	.cfi_def_cfa_register 5
	pushl	%edi
	pushl	%esi
	pushl	%ebx
	subl	$76, %esp
	.cfi_offset 7, -12
	.cfi_offset 6, -16
	.cfi_offset 3, -20
	.loc 1 34 0
	movl	8(%ebp), %ebx
	movl	12(%ebp), %esi
	movl	%gs:20, %eax
	movl	%eax, -28(%ebp)
	xorl	%eax, %eax
	.loc 1 40 0
	movl	$-20736, %eax
	.loc 1 39 0
	testl	%ebx, %ebx
	je	.L2
	.loc 1 39 0 discriminator 1
	movl	(%ebx), %edx
	testl	%edx, %edx
	je	.L2
	.loc 1 39 0 discriminator 2
	cmpl	$0, 8(%ebx)
	je	.L2
	.loc 1 42 0
	movl	16(%ebp), %eax
	cmpl	%eax, 12(%edx)
	jnb	.L3
	.loc 1 44 0
	subl	$12, %esp
	pushl	4(%ebx)
	call	*16(%edx)
.LVL1:
	.loc 1 45 0
	movl	(%ebx), %eax
	addl	$12, %esp
	pushl	16(%ebp)
	pushl	%esi
	pushl	4(%ebx)
	.loc 1 46 0
	leal	-60(%ebp), %esi
	.loc 1 45 0
	call	*20(%eax)
.LVL2:
	.loc 1 46 0
	popl	%eax
	movl	(%ebx), %eax
	popl	%edx
	pushl	%esi
	pushl	4(%ebx)
	call	*24(%eax)
.LVL3:
	.loc 1 48 0
	movl	(%ebx), %eax
	addl	$16, %esp
	movl	8(%eax), %eax
	movl	%eax, 16(%ebp)
.LVL4:
.L3:
	.loc 1 53 0
	movl	(%ebx), %eax
	.loc 1 52 0
	movl	8(%ebx), %edx
.LVL5:
	.loc 1 53 0
	movl	12(%eax), %ecx
	.loc 1 55 0
	movl	%edx, %edi
	.loc 1 53 0
	leal	(%edx,%ecx), %eax
	movl	%eax, -76(%ebp)
.LVL6:
	.loc 1 55 0
	movb	$54, %al
.LVL7:
	rep stosb
	.loc 1 56 0
	movl	(%ebx), %eax
	movl	12(%eax), %ecx
	movb	$92, %al
	rep stosb
.LVL8:
	movl	16(%ebp), %edi
	movl	%edx, %eax
	addl	%edx, %edi
	movl	%edi, -80(%ebp)
.LVL9:
.L4:
	.loc 1 58 0 discriminator 1
	cmpl	-80(%ebp), %eax
	je	.L14
	.loc 1 61 0 discriminator 3
	movl	-76(%ebp), %edi
	.loc 1 60 0 discriminator 3
	movb	(%esi), %cl
	incl	%esi
	xorb	%cl, (%eax)
	incl	-76(%ebp)
	incl	%eax
.LVL10:
	.loc 1 61 0 discriminator 3
	movb	-1(%esi), %cl
	xorb	%cl, (%edi)
.LVL11:
	jmp	.L4
.LVL12:
.L14:
	leal	-60(%ebp), %eax
.LVL13:
.LBB4:
.LBB5:
	.loc 1 30 0
	leal	-28(%ebp), %ecx
.L6:
.LVL14:
	movb	$0, (%eax)
.LVL15:
	incl	%eax
.LVL16:
	cmpl	%ecx, %eax
	jne	.L6
.LBE5:
.LBE4:
	.loc 1 66 0
	movl	(%ebx), %eax
.LVL17:
	subl	$12, %esp
	movl	%edx, -76(%ebp)
	pushl	4(%ebx)
	call	*16(%eax)
.LVL18:
	.loc 1 67 0
	movl	(%ebx), %eax
	movl	-76(%ebp), %edx
	addl	$12, %esp
	pushl	12(%eax)
	pushl	%edx
	pushl	4(%ebx)
	call	*20(%eax)
.LVL19:
	.loc 1 69 0
	addl	$16, %esp
	xorl	%eax, %eax
.LVL20:
.L2:
	.loc 1 70 0
	movl	-28(%ebp), %edi
	xorl	%gs:20, %edi
	je	.L7
	call	__stack_chk_fail
.LVL21:
.L7:
	leal	-12(%ebp), %esp
	popl	%ebx
	.cfi_restore 3
	popl	%esi
	.cfi_restore 6
	popl	%edi
	.cfi_restore 7
	popl	%ebp
	.cfi_restore 5
	.cfi_def_cfa 4, 4
	ret
	.cfi_endproc
.LFE1:
	.size	mbedtls_hmac_starts, .-mbedtls_hmac_starts
	.section	.text.unlikely.mbedtls_hmac_starts
.LCOLDE0:
	.section	.text.mbedtls_hmac_starts
.LHOTE0:
	.section	.text.unlikely.mbedtls_hmac_update,"ax",@progbits
.LCOLDB1:
	.section	.text.mbedtls_hmac_update,"ax",@progbits
.LHOTB1:
	.globl	mbedtls_hmac_update
	.type	mbedtls_hmac_update, @function
mbedtls_hmac_update:
.LFB2:
	.loc 1 73 0
	.cfi_startproc
.LVL22:
	pushl	%ebp
	.cfi_def_cfa_offset 8
	.cfi_offset 5, -8
	.loc 1 75 0
	movl	$-20736, %eax
	.loc 1 73 0
	movl	%esp, %ebp
	.cfi_def_cfa_register 5
	subl	$8, %esp
	.loc 1 73 0
	movl	8(%ebp), %edx
	.loc 1 74 0
	testl	%edx, %edx
	je	.L16
	.loc 1 74 0 discriminator 1
	movl	(%edx), %ecx
	testl	%ecx, %ecx
	je	.L16
	.loc 1 74 0 discriminator 2
	cmpl	$0, 8(%edx)
	je	.L16
	.loc 1 77 0
	pushl	%eax
	pushl	16(%ebp)
	pushl	12(%ebp)
	pushl	4(%edx)
	call	*20(%ecx)
.LVL23:
	.loc 1 79 0
	addl	$16, %esp
	xorl	%eax, %eax
.L16:
	.loc 1 80 0
	leave
	.cfi_restore 5
	.cfi_def_cfa 4, 4
	ret
	.cfi_endproc
.LFE2:
	.size	mbedtls_hmac_update, .-mbedtls_hmac_update
	.section	.text.unlikely.mbedtls_hmac_update
.LCOLDE1:
	.section	.text.mbedtls_hmac_update
.LHOTE1:
	.section	.text.unlikely.mbedtls_hmac_finish,"ax",@progbits
.LCOLDB2:
	.section	.text.mbedtls_hmac_finish,"ax",@progbits
.LHOTB2:
	.globl	mbedtls_hmac_finish
	.type	mbedtls_hmac_finish, @function
mbedtls_hmac_finish:
.LFB3:
	.loc 1 83 0
	.cfi_startproc
.LVL24:
	pushl	%ebp
	.cfi_def_cfa_offset 8
	.cfi_offset 5, -8
	movl	%esp, %ebp
	.cfi_def_cfa_register 5
	pushl	%edi
	pushl	%esi
	pushl	%ebx
	subl	$76, %esp
	.cfi_offset 7, -12
	.cfi_offset 6, -16
	.cfi_offset 3, -20
	.loc 1 83 0
	movl	8(%ebp), %ebx
	movl	12(%ebp), %esi
	movl	%gs:20, %eax
	movl	%eax, -28(%ebp)
	xorl	%eax, %eax
	.loc 1 88 0
	movl	$-20736, %eax
	.loc 1 87 0
	testl	%ebx, %ebx
	je	.L22
	.loc 1 87 0 discriminator 1
	movl	(%ebx), %ecx
	testl	%ecx, %ecx
	je	.L22
	.loc 1 87 0 discriminator 2
	movl	8(%ebx), %edx
	testl	%edx, %edx
	je	.L22
	.loc 1 90 0
	addl	12(%ecx), %edx
	.loc 1 92 0
	leal	-60(%ebp), %edi
	pushl	%eax
	pushl	%eax
	pushl	%edi
	pushl	4(%ebx)
	.loc 1 90 0
	movl	%edx, -76(%ebp)
.LVL25:
	.loc 1 92 0
	call	*24(%ecx)
.LVL26:
	.loc 1 93 0
	movl	(%ebx), %eax
	popl	%edx
	pushl	4(%ebx)
	call	*16(%eax)
.LVL27:
	.loc 1 94 0
	movl	(%ebx), %eax
	movl	-76(%ebp), %edx
	addl	$12, %esp
	pushl	12(%eax)
	pushl	%edx
	pushl	4(%ebx)
	call	*20(%eax)
.LVL28:
	.loc 1 95 0
	movl	(%ebx), %eax
	addl	$12, %esp
	pushl	8(%eax)
	pushl	%edi
	pushl	4(%ebx)
	call	*20(%eax)
.LVL29:
	.loc 1 96 0
	popl	%ecx
	popl	%edi
	movl	(%ebx), %eax
	pushl	%esi
	pushl	4(%ebx)
	call	*24(%eax)
.LVL30:
	.loc 1 98 0
	addl	$16, %esp
	xorl	%eax, %eax
.LVL31:
.L22:
	.loc 1 99 0
	movl	-28(%ebp), %esi
	xorl	%gs:20, %esi
	je	.L23
	call	__stack_chk_fail
.LVL32:
.L23:
	leal	-12(%ebp), %esp
	popl	%ebx
	.cfi_restore 3
	popl	%esi
	.cfi_restore 6
	popl	%edi
	.cfi_restore 7
	popl	%ebp
	.cfi_restore 5
	.cfi_def_cfa 4, 4
	ret
	.cfi_endproc
.LFE3:
	.size	mbedtls_hmac_finish, .-mbedtls_hmac_finish
	.section	.text.unlikely.mbedtls_hmac_finish
.LCOLDE2:
	.section	.text.mbedtls_hmac_finish
.LHOTE2:
	.section	.text.unlikely.mbedtls_hash_hmac,"ax",@progbits
.LCOLDB3:
	.section	.text.mbedtls_hash_hmac,"ax",@progbits
.LHOTB3:
	.globl	mbedtls_hash_hmac
	.type	mbedtls_hash_hmac, @function
mbedtls_hash_hmac:
.LFB4:
	.loc 1 104 0
	.cfi_startproc
.LVL33:
	pushl	%ebp
	.cfi_def_cfa_offset 8
	.cfi_offset 5, -8
	.loc 1 109 0
	movl	$-20736, %edx
	.loc 1 104 0
	movl	%esp, %ebp
	.cfi_def_cfa_register 5
	pushl	%edi
	pushl	%esi
	pushl	%ebx
	subl	$44, %esp
	.cfi_offset 7, -12
	.cfi_offset 6, -16
	.cfi_offset 3, -20
	.loc 1 104 0
	movl	8(%ebp), %eax
	movl	12(%ebp), %ecx
	movl	20(%ebp), %edi
	movl	28(%ebp), %esi
	movl	%ecx, -48(%ebp)
	.loc 1 108 0
	movl	%eax, -44(%ebp)
	.loc 1 104 0
	movl	%gs:20, %ecx
	movl	%ecx, -28(%ebp)
	xorl	%ecx, %ecx
	.loc 1 108 0
	testl	%eax, %eax
	je	.L29
	.loc 1 111 0
	leal	-40(%ebp), %ebx
	subl	$12, %esp
	pushl	%ebx
	call	mbedtls_hash_init
.LVL34:
	.loc 1 113 0
	movl	-44(%ebp), %eax
	addl	$12, %esp
	pushl	$1
	pushl	%eax
	pushl	%ebx
	call	mbedtls_hash_setup
.LVL35:
	addl	$16, %esp
	testl	%eax, %eax
	movl	%eax, %edx
	movl	-48(%ebp), %ecx
	jne	.L29
	movl	%eax, -44(%ebp)
.LVL36:
	.loc 1 116 0
	pushl	%eax
	pushl	16(%ebp)
	pushl	%ecx
	pushl	%ebx
	call	mbedtls_hmac_starts
.LVL37:
	.loc 1 117 0
	addl	$12, %esp
	pushl	24(%ebp)
	pushl	%edi
	pushl	%ebx
	call	mbedtls_hmac_update
.LVL38:
	.loc 1 118 0
	popl	%edx
	popl	%ecx
	pushl	%esi
	pushl	%ebx
	call	mbedtls_hmac_finish
.LVL39:
	.loc 1 120 0
	movl	%ebx, (%esp)
	call	mbedtls_hash_free
.LVL40:
	.loc 1 122 0
	movl	-44(%ebp), %edx
	addl	$16, %esp
.LVL41:
.L29:
	.loc 1 123 0
	movl	-28(%ebp), %esi
	xorl	%gs:20, %esi
	movl	%edx, %eax
	je	.L30
	call	__stack_chk_fail
.LVL42:
.L30:
	leal	-12(%ebp), %esp
	popl	%ebx
	.cfi_restore 3
	popl	%esi
	.cfi_restore 6
	popl	%edi
	.cfi_restore 7
	popl	%ebp
	.cfi_restore 5
	.cfi_def_cfa 4, 4
	ret
	.cfi_endproc
.LFE4:
	.size	mbedtls_hash_hmac, .-mbedtls_hash_hmac
	.section	.text.unlikely.mbedtls_hash_hmac
.LCOLDE3:
	.section	.text.mbedtls_hash_hmac
.LHOTE3:
	.section	.text.unlikely.mbedtls_hmac_reset,"ax",@progbits
.LCOLDB4:
	.section	.text.mbedtls_hmac_reset,"ax",@progbits
.LHOTB4:
	.globl	mbedtls_hmac_reset
	.type	mbedtls_hmac_reset, @function
mbedtls_hmac_reset:
.LFB5:
	.loc 1 126 0
	.cfi_startproc
.LVL43:
	pushl	%ebp
	.cfi_def_cfa_offset 8
	.cfi_offset 5, -8
	.loc 1 130 0
	movl	$-20736, %eax
	.loc 1 126 0
	movl	%esp, %ebp
	.cfi_def_cfa_register 5
	pushl	%esi
	pushl	%ebx
	.cfi_offset 6, -12
	.cfi_offset 3, -16
	.loc 1 126 0
	movl	8(%ebp), %ebx
	.loc 1 129 0
	testl	%ebx, %ebx
	je	.L35
	.loc 1 129 0 discriminator 1
	movl	(%ebx), %edx
	testl	%edx, %edx
	je	.L35
	.loc 1 129 0 discriminator 2
	movl	8(%ebx), %esi
	testl	%esi, %esi
	je	.L35
.LVL44:
	.loc 1 134 0
	subl	$12, %esp
	pushl	4(%ebx)
	call	*16(%edx)
.LVL45:
	.loc 1 135 0
	movl	(%ebx), %eax
	addl	$12, %esp
	pushl	12(%eax)
	pushl	%esi
	pushl	4(%ebx)
	call	*20(%eax)
.LVL46:
	.loc 1 137 0
	addl	$16, %esp
	xorl	%eax, %eax
.LVL47:
.L35:
	.loc 1 138 0
	leal	-8(%ebp), %esp
	popl	%ebx
	.cfi_restore 3
	popl	%esi
	.cfi_restore 6
	popl	%ebp
	.cfi_restore 5
	.cfi_def_cfa 4, 4
	ret
	.cfi_endproc
.LFE5:
	.size	mbedtls_hmac_reset, .-mbedtls_hmac_reset
	.section	.text.unlikely.mbedtls_hmac_reset
.LCOLDE4:
	.section	.text.mbedtls_hmac_reset
.LHOTE4:
	.text
.Letext0:
	.section	.text.unlikely.mbedtls_hmac_starts
.Letext_cold0:
	.file 2 "/home/stone/Documents/Ali_IOT/build/compiler/gcc-arm-none-eabi/Linux64/lib/gcc/arm-none-eabi/5.4.1/include/stddef.h"
	.file 3 "./security/alicrypto/./mbedtls/include/mbedtls/md.h"
	.file 4 "./security/alicrypto/./mbedtls/include/mbedtls/md_internal.h"
	.file 5 "./security/alicrypto/./mbedtls/include/mbedtls/hash.h"
	.section	.note.GNU-stack,"",@progbits
