	.file	"igmp.c"
	.text
.Ltext0:
	.section	.text.unlikely.igmp_send,"ax",@progbits
.LCOLDB0:
	.section	.text.igmp_send,"ax",@progbits
.LHOTB0:
	.section	.text.unlikely.igmp_send
.Ltext_cold0:
	.section	.text.igmp_send
	.type	igmp_send, @function
igmp_send:
.LFB40:
	.file 1 "kernel/protocols/net/core/ipv4/igmp.c"
	.loc 1 750 0
	.cfi_startproc
.LVL0:
	pushl	%ebp
	.cfi_def_cfa_offset 8
	.cfi_offset 5, -8
	movl	%esp, %ebp
	.cfi_def_cfa_register 5
	pushl	%edi
	pushl	%esi
	pushl	%ebx
	.cfi_offset 7, -12
	.cfi_offset 6, -16
	.cfi_offset 3, -20
	movl	%eax, %edi
	subl	$48, %esp
	.loc 1 750 0
	movl	%edx, -48(%ebp)
	movl	%ecx, -44(%ebp)
	movl	%gs:20, %eax
	movl	%eax, -28(%ebp)
	xorl	%eax, %eax
.LVL1:
	.loc 1 753 0
	movl	ip_addr_any, %eax
	.loc 1 757 0
	pushl	$0
	pushl	$8
	pushl	$0
	.loc 1 753 0
	movl	%eax, -36(%ebp)
.LVL2:
	.loc 1 757 0
	call	pbuf_alloc
.LVL3:
	.loc 1 759 0
	addl	$16, %esp
	testl	%eax, %eax
	je	.L1
	.loc 1 765 0
	movl	-44(%ebp), %ecx
	movl	%eax, %esi
	.loc 1 760 0
	movl	4(%eax), %ebx
.LVL4:
	.loc 1 763 0
	movl	4(%edi), %eax
.LVL5:
	.loc 1 765 0
	movl	-48(%ebp), %edx
	cmpb	$22, %cl
	.loc 1 763 0
	movl	%eax, -36(%ebp)
	.loc 1 765 0
	jne	.L3
	.loc 1 766 0
	leal	4(%edx), %eax
	movl	%eax, -44(%ebp)
.LVL6:
	.loc 1 767 0
	movl	4(%edx), %eax
.LVL7:
	movl	%eax, 4(%ebx)
	.loc 1 768 0
	movb	$1, 8(%edx)
	jmp	.L4
.LVL8:
.L3:
	.loc 1 770 0
	cmpb	$23, %cl
	.loc 1 754 0
	movl	$0, -44(%ebp)
	.loc 1 770 0
	jne	.L4
.LVL9:
	.loc 1 772 0
	movl	4(%edx), %eax
	.loc 1 771 0
	movl	$allrouters, -44(%ebp)
	.loc 1 772 0
	movl	%eax, 4(%ebx)
.LVL10:
.L4:
	.loc 1 776 0
	leal	-22(%ecx), %eax
	cmpb	$1, %al
	ja	.L5
	.loc 1 777 0
	movb	%cl, (%ebx)
	.loc 1 778 0
	movb	$0, 1(%ebx)
	.loc 1 779 0
	movw	$0, 2(%ebx)
	.loc 1 780 0
	pushl	%eax
	pushl	%eax
	pushl	$8
	pushl	%ebx
	call	inet_chksum
.LVL11:
	movw	%ax, 2(%ebx)
.LVL12:
.LBB5:
.LBB6:
	.loc 1 739 0
	leal	-32(%ebp), %eax
	movl	$4, (%esp)
	.loc 1 736 0
	movw	$1172, -32(%ebp)
	.loc 1 737 0
	movw	$0, -30(%ebp)
	.loc 1 739 0
	pushl	%eax
	leal	-36(%ebp), %eax
.LVL13:
	pushl	%edi
	pushl	$2
	pushl	$0
	pushl	$1
	pushl	-44(%ebp)
	pushl	%eax
	pushl	%esi
	call	ip4_output_if_opt
.LVL14:
	addl	$48, %esp
.LVL15:
.L5:
.LBE6:
.LBE5:
	.loc 1 785 0
	subl	$12, %esp
	pushl	%esi
	call	pbuf_free
.LVL16:
	addl	$16, %esp
.LVL17:
.L1:
	.loc 1 790 0
	movl	-28(%ebp), %eax
	xorl	%gs:20, %eax
	je	.L6
	call	__stack_chk_fail
.LVL18:
.L6:
	leal	-12(%ebp), %esp
	popl	%ebx
	.cfi_restore 3
	popl	%esi
	.cfi_restore 6
	popl	%edi
	.cfi_restore 7
.LVL19:
	popl	%ebp
	.cfi_restore 5
	.cfi_def_cfa 4, 4
.LVL20:
	ret
	.cfi_endproc
.LFE40:
	.size	igmp_send, .-igmp_send
	.section	.text.unlikely.igmp_send
.LCOLDE0:
	.section	.text.igmp_send
.LHOTE0:
	.section	.text.unlikely.igmp_lookup_group.part.1,"ax",@progbits
.LCOLDB1:
	.section	.text.igmp_lookup_group.part.1,"ax",@progbits
.LHOTB1:
	.type	igmp_lookup_group.part.1, @function
igmp_lookup_group.part.1:
.LFB42:
	.loc 1 244 0
	.cfi_startproc
.LVL21:
	pushl	%ebp
	.cfi_def_cfa_offset 8
	.cfi_offset 5, -8
	movl	%esp, %ebp
	.cfi_def_cfa_register 5
	pushl	%esi
	pushl	%ebx
	.cfi_offset 6, -12
	.cfi_offset 3, -16
	.loc 1 244 0
	movl	%edx, %esi
	movl	%eax, %ebx
	.loc 1 256 0
	subl	$12, %esp
	pushl	$9
	call	memp_malloc
.LVL22:
	.loc 1 257 0
	addl	$16, %esp
	testl	%eax, %eax
	je	.L14
	.loc 1 258 0
	xorl	%ecx, %ecx
	testl	%esi, %esi
	je	.L15
	movl	(%esi), %ecx
.L15:
	.loc 1 260 0
	movb	$0, 9(%eax)
	.loc 1 261 0
	movb	$0, 8(%eax)
	.loc 1 262 0
	movb	$0, 12(%eax)
	.loc 1 263 0
	movl	40(%ebx), %edx
	.loc 1 258 0
	movl	%ecx, 4(%eax)
	.loc 1 259 0
	movw	$0, 10(%eax)
	.loc 1 263 0
	movl	%edx, (%eax)
	.loc 1 265 0
	movl	%eax, 40(%ebx)
.L14:
	.loc 1 273 0
	leal	-8(%ebp), %esp
	popl	%ebx
	.cfi_restore 3
.LVL23:
	popl	%esi
	.cfi_restore 6
.LVL24:
	popl	%ebp
	.cfi_restore 5
	.cfi_def_cfa 4, 4
	ret
	.cfi_endproc
.LFE42:
	.size	igmp_lookup_group.part.1, .-igmp_lookup_group.part.1
	.section	.text.unlikely.igmp_lookup_group.part.1
.LCOLDE1:
	.section	.text.igmp_lookup_group.part.1
.LHOTE1:
	.section	.text.unlikely.igmp_delaying_member,"ax",@progbits
.LCOLDB2:
	.section	.text.igmp_delaying_member,"ax",@progbits
.LHOTB2:
	.type	igmp_delaying_member, @function
igmp_delaying_member:
.LFB38:
	.loc 1 705 0
	.cfi_startproc
.LVL25:
	pushl	%ebp
	.cfi_def_cfa_offset 8
	.cfi_offset 5, -8
	movl	%esp, %ebp
	.cfi_def_cfa_register 5
	pushl	%esi
	pushl	%ebx
	.cfi_offset 6, -12
	.cfi_offset 3, -16
	.loc 1 706 0
	movb	9(%eax), %cl
	cmpb	$2, %cl
	je	.L22
	.loc 1 706 0 is_stmt 0 discriminator 1
	decb	%cl
	jne	.L21
	.loc 1 708 0 is_stmt 1
	movw	10(%eax), %cx
	.loc 1 707 0
	testw	%cx, %cx
	je	.L22
	.loc 1 708 0
	movzbl	%dl, %ebx
	cmpw	%bx, %cx
	jbe	.L21
.L22:
.LBB9:
.LBB10:
	.loc 1 686 0
	cmpb	$2, %dl
	movl	%eax, %esi
.LVL26:
	movl	%edx, %ebx
	movl	$1, %eax
.LVL27:
	jbe	.L24
	call	rand
.LVL28:
	xorl	%edx, %edx
	movzbl	%bl, %ecx
	divl	%ecx
	.loc 1 692 0
	testw	%dx, %dx
	.loc 1 686 0
	movl	%edx, %eax
	.loc 1 692 0
	je	.L25
.L24:
	.loc 1 686 0
	movw	%ax, 10(%esi)
	jmp	.L26
.L25:
	.loc 1 693 0
	movw	$1, 10(%esi)
.L26:
.LVL29:
.LBE10:
.LBE9:
	.loc 1 710 0
	movb	$1, 9(%esi)
.LVL30:
.L21:
	.loc 1 712 0
	popl	%ebx
	.cfi_restore 3
	popl	%esi
	.cfi_restore 6
	popl	%ebp
	.cfi_restore 5
	.cfi_def_cfa 4, 4
	ret
	.cfi_endproc
.LFE38:
	.size	igmp_delaying_member, .-igmp_delaying_member
	.section	.text.unlikely.igmp_delaying_member
.LCOLDE2:
	.section	.text.igmp_delaying_member
.LHOTE2:
	.section	.text.unlikely.igmp_init,"ax",@progbits
.LCOLDB3:
	.section	.text.igmp_init,"ax",@progbits
.LHOTB3:
	.globl	igmp_init
	.type	igmp_init, @function
igmp_init:
.LFB23:
	.loc 1 115 0
	.cfi_startproc
	pushl	%ebp
	.cfi_def_cfa_offset 8
	.cfi_offset 5, -8
	.loc 1 118 0
	movl	$16777440, allsystems
	.loc 1 119 0
	movl	$33554656, allrouters
	.loc 1 115 0
	movl	%esp, %ebp
	.cfi_def_cfa_register 5
	.loc 1 120 0
	popl	%ebp
	.cfi_restore 5
	.cfi_def_cfa 4, 4
	ret
	.cfi_endproc
.LFE23:
	.size	igmp_init, .-igmp_init
	.section	.text.unlikely.igmp_init
.LCOLDE3:
	.section	.text.igmp_init
.LHOTE3:
	.section	.text.unlikely.igmp_stop,"ax",@progbits
.LCOLDB4:
	.section	.text.igmp_stop,"ax",@progbits
.LHOTB4:
	.globl	igmp_stop
	.type	igmp_stop, @function
igmp_stop:
.LFB25:
	.loc 1 161 0
	.cfi_startproc
.LVL31:
	pushl	%ebp
	.cfi_def_cfa_offset 8
	.cfi_offset 5, -8
	movl	%esp, %ebp
	.cfi_def_cfa_register 5
	pushl	%edi
	pushl	%esi
	pushl	%ebx
	subl	$12, %esp
	.cfi_offset 7, -12
	.cfi_offset 6, -16
	.cfi_offset 3, -20
	.loc 1 161 0
	movl	8(%ebp), %esi
	.loc 1 162 0
	movl	40(%esi), %ebx
.LVL32:
	.loc 1 164 0
	movl	$0, 40(%esi)
.L38:
	.loc 1 166 0
	testl	%ebx, %ebx
	je	.L45
.LBB11:
	.loc 1 170 0
	movl	68(%esi), %eax
	.loc 1 167 0
	movl	(%ebx), %edi
.LVL33:
	.loc 1 170 0
	testl	%eax, %eax
	je	.L39
	.loc 1 174 0
	pushl	%edx
	leal	4(%ebx), %edx
	pushl	$0
	pushl	%edx
	pushl	%esi
	call	*%eax
.LVL34:
	addl	$16, %esp
.L39:
	.loc 1 178 0
	pushl	%eax
	pushl	%eax
	pushl	%ebx
	pushl	$9
	.loc 1 181 0
	movl	%edi, %ebx
.LVL35:
	.loc 1 178 0
	call	memp_free
.LVL36:
	addl	$16, %esp
	jmp	.L38
.LVL37:
.L45:
.LBE11:
	.loc 1 184 0
	leal	-12(%ebp), %esp
	xorl	%eax, %eax
	popl	%ebx
	.cfi_restore 3
.LVL38:
	popl	%esi
	.cfi_restore 6
	popl	%edi
	.cfi_restore 7
	popl	%ebp
	.cfi_restore 5
	.cfi_def_cfa 4, 4
	ret
	.cfi_endproc
.LFE25:
	.size	igmp_stop, .-igmp_stop
	.section	.text.unlikely.igmp_stop
.LCOLDE4:
	.section	.text.igmp_stop
.LHOTE4:
	.section	.text.unlikely.igmp_report_groups,"ax",@progbits
.LCOLDB5:
	.section	.text.igmp_report_groups,"ax",@progbits
.LHOTB5:
	.globl	igmp_report_groups
	.type	igmp_report_groups, @function
igmp_report_groups:
.LFB26:
	.loc 1 193 0
	.cfi_startproc
.LVL39:
	pushl	%ebp
	.cfi_def_cfa_offset 8
	.cfi_offset 5, -8
	movl	%esp, %ebp
	.cfi_def_cfa_register 5
	pushl	%ebx
	pushl	%edx
	.cfi_offset 3, -12
	.loc 1 194 0
	movl	8(%ebp), %eax
	movl	40(%eax), %eax
.LVL40:
	.loc 1 199 0
	testl	%eax, %eax
	je	.L46
	.loc 1 200 0
	movl	(%eax), %ebx
.LVL41:
.L48:
	.loc 1 203 0
	testl	%ebx, %ebx
	je	.L46
	.loc 1 204 0
	movl	%ebx, %eax
	movl	$5, %edx
	call	igmp_delaying_member
.LVL42:
	.loc 1 205 0
	movl	(%ebx), %ebx
.LVL43:
	jmp	.L48
.LVL44:
.L46:
	.loc 1 207 0
	popl	%eax
	popl	%ebx
	.cfi_restore 3
	popl	%ebp
	.cfi_restore 5
	.cfi_def_cfa 4, 4
	ret
	.cfi_endproc
.LFE26:
	.size	igmp_report_groups, .-igmp_report_groups
	.section	.text.unlikely.igmp_report_groups
.LCOLDE5:
	.section	.text.igmp_report_groups
.LHOTE5:
	.section	.text.unlikely.igmp_lookfor_group,"ax",@progbits
.LCOLDB6:
	.section	.text.igmp_lookfor_group,"ax",@progbits
.LHOTB6:
	.globl	igmp_lookfor_group
	.type	igmp_lookfor_group, @function
igmp_lookfor_group:
.LFB27:
	.loc 1 219 0
	.cfi_startproc
.LVL45:
	pushl	%ebp
	.cfi_def_cfa_offset 8
	.cfi_offset 5, -8
	movl	%esp, %ebp
	.cfi_def_cfa_register 5
	.loc 1 220 0
	movl	8(%ebp), %eax
	.loc 1 219 0
	movl	12(%ebp), %edx
	.loc 1 220 0
	movl	40(%eax), %eax
.LVL46:
.L53:
	.loc 1 222 0
	testl	%eax, %eax
	je	.L54
	.loc 1 223 0
	movl	(%edx), %ecx
	cmpl	%ecx, 4(%eax)
	je	.L54
	.loc 1 226 0
	movl	(%eax), %eax
.LVL47:
	jmp	.L53
.LVL48:
.L54:
	.loc 1 233 0
	popl	%ebp
	.cfi_restore 5
	.cfi_def_cfa 4, 4
	ret
	.cfi_endproc
.LFE27:
	.size	igmp_lookfor_group, .-igmp_lookfor_group
	.section	.text.unlikely.igmp_lookfor_group
.LCOLDE6:
	.section	.text.igmp_lookfor_group
.LHOTE6:
	.section	.text.unlikely.igmp_start,"ax",@progbits
.LCOLDB7:
	.section	.text.igmp_start,"ax",@progbits
.LHOTB7:
	.globl	igmp_start
	.type	igmp_start, @function
igmp_start:
.LFB24:
	.loc 1 129 0
	.cfi_startproc
.LVL49:
	pushl	%ebp
	.cfi_def_cfa_offset 8
	.cfi_offset 5, -8
	movl	%esp, %ebp
	.cfi_def_cfa_register 5
	pushl	%ebx
	pushl	%edx
	.cfi_offset 3, -12
	.loc 1 129 0
	movl	8(%ebp), %ebx
.LVL50:
.LBB14:
.LBB15:
	.loc 1 249 0
	pushl	$allsystems
	pushl	%ebx
	call	igmp_lookfor_group
.LVL51:
	.loc 1 250 0
	testl	%eax, %eax
	.loc 1 249 0
	popl	%ecx
	popl	%edx
.LVL52:
	movl	%eax, %edx
	.loc 1 250 0
	jne	.L59
	movl	$allsystems, %edx
	movl	%ebx, %eax
.LVL53:
	call	igmp_lookup_group.part.1
.LVL54:
	movl	%eax, %edx
.LVL55:
.LBE15:
.LBE14:
	.loc 1 151 0
	movb	$-1, %al
	.loc 1 136 0
	testl	%edx, %edx
	je	.L60
.L59:
	.loc 1 138 0
	incb	12(%edx)
	.loc 1 137 0
	movb	$2, 9(%edx)
	.loc 1 148 0
	xorl	%eax, %eax
	.loc 1 141 0
	movl	68(%ebx), %edx
	testl	%edx, %edx
	je	.L60
	.loc 1 145 0
	pushl	%eax
	pushl	$1
	pushl	$allsystems
	pushl	%ebx
	call	*%edx
.LVL56:
	addl	$16, %esp
	.loc 1 148 0
	xorl	%eax, %eax
.L60:
	.loc 1 152 0
	movl	-4(%ebp), %ebx
	leave
	.cfi_restore 5
	.cfi_restore 3
	.cfi_def_cfa 4, 4
	ret
	.cfi_endproc
.LFE24:
	.size	igmp_start, .-igmp_start
	.section	.text.unlikely.igmp_start
.LCOLDE7:
	.section	.text.igmp_start
.LHOTE7:
	.section	.text.unlikely.igmp_input,"ax",@progbits
.LCOLDB8:
	.section	.text.igmp_input,"ax",@progbits
.LHOTB8:
	.globl	igmp_input
	.type	igmp_input, @function
igmp_input:
.LFB30:
	.loc 1 316 0
	.cfi_startproc
.LVL57:
	pushl	%ebp
	.cfi_def_cfa_offset 8
	.cfi_offset 5, -8
	movl	%esp, %ebp
	.cfi_def_cfa_register 5
	pushl	%edi
	pushl	%esi
	pushl	%ebx
	subl	$44, %esp
	.cfi_offset 7, -12
	.cfi_offset 6, -16
	.cfi_offset 3, -20
	.loc 1 316 0
	movl	12(%ebp), %eax
	movl	8(%ebp), %ebx
	movl	16(%ebp), %esi
	movl	%eax, -44(%ebp)
	movl	%gs:20, %eax
	movl	%eax, -28(%ebp)
	xorl	%eax, %eax
	.loc 1 324 0
	movzwl	10(%ebx), %eax
	cmpw	$7, %ax
	jbe	.L70
	.loc 1 338 0
	movl	4(%ebx), %edi
.LVL58:
	.loc 1 339 0
	pushl	%ecx
	pushl	%ecx
	pushl	%eax
	pushl	%edi
	call	inet_chksum
.LVL59:
	addl	$16, %esp
	testw	%ax, %ax
	jne	.L70
	.loc 1 347 0
	pushl	%edx
	pushl	%edx
	pushl	%esi
	pushl	-44(%ebp)
	call	igmp_lookfor_group
.LVL60:
	addl	$16, %esp
.LVL61:
	.loc 1 350 0
	testl	%eax, %eax
	je	.L70
	.loc 1 358 0
	movb	(%edi), %dl
	cmpb	$17, %dl
	je	.L71
	cmpb	$22, %dl
	je	.L72
	jmp	.L70
.L71:
	.loc 1 361 0
	movl	(%esi), %esi
	movl	allsystems, %ecx
	cmpl	%ecx, %esi
	jne	.L73
	.loc 1 361 0 discriminator 1
	cmpl	$0, 4(%edi)
	jne	.L73
	.loc 1 365 0
	cmpb	$0, 1(%edi)
	jne	.L74
	.loc 1 368 0
	movb	$10, 1(%edi)
.L74:
	.loc 1 373 0
	movl	-44(%ebp), %eax
.LVL62:
	movl	40(%eax), %eax
.LVL63:
	.loc 1 377 0
	testl	%eax, %eax
	je	.L70
	.loc 1 378 0
	movl	(%eax), %esi
.LVL64:
.L76:
	.loc 1 381 0
	testl	%esi, %esi
	je	.L70
	.loc 1 382 0
	movzbl	1(%edi), %edx
	movl	%esi, %eax
	call	igmp_delaying_member
.LVL65:
	.loc 1 383 0
	movl	(%esi), %esi
.LVL66:
	jmp	.L76
.LVL67:
.L73:
	.loc 1 387 0
	movl	4(%edi), %edx
	.loc 1 387 0
	testl	%edx, %edx
	je	.L70
	.loc 1 390 0
	cmpl	%ecx, %esi
	jne	.L79
.LVL68:
.LBB16:
	.loc 1 395 0
	pushl	%eax
	pushl	%eax
	leal	-32(%ebp), %eax
	.loc 1 394 0
	movl	%edx, -32(%ebp)
	.loc 1 395 0
	pushl	%eax
	pushl	-44(%ebp)
	call	igmp_lookfor_group
.LVL69:
	addl	$16, %esp
.LVL70:
.LBE16:
	.loc 1 400 0
	testl	%eax, %eax
	je	.L70
.L79:
	.loc 1 402 0
	movzbl	1(%edi), %edx
	call	igmp_delaying_member
.LVL71:
	jmp	.L70
.LVL72:
.L72:
	.loc 1 414 0
	cmpb	$1, 9(%eax)
	jne	.L70
	.loc 1 416 0
	movw	$0, 10(%eax)
	.loc 1 417 0
	movb	$2, 9(%eax)
	.loc 1 418 0
	movb	$0, 8(%eax)
.LVL73:
.L70:
	.loc 1 428 0
	subl	$12, %esp
	pushl	%ebx
	call	pbuf_free
.LVL74:
	.loc 1 429 0
	addl	$16, %esp
	.loc 1 430 0
	movl	-28(%ebp), %eax
	xorl	%gs:20, %eax
	je	.L80
	call	__stack_chk_fail
.LVL75:
.L80:
	leal	-12(%ebp), %esp
	popl	%ebx
	.cfi_restore 3
	popl	%esi
	.cfi_restore 6
	popl	%edi
	.cfi_restore 7
	popl	%ebp
	.cfi_restore 5
	.cfi_def_cfa 4, 4
	ret
	.cfi_endproc
.LFE30:
	.size	igmp_input, .-igmp_input
	.section	.text.unlikely.igmp_input
.LCOLDE8:
	.section	.text.igmp_input
.LHOTE8:
	.section	.rodata.str1.1,"aMS",@progbits,1
.LC9:
	.string	"igmp_joingroup_netif: attempt to join non-multicast address"
.LC10:
	.string	"igmp_joingroup_netif: attempt to join allsystems address"
.LC11:
	.string	"igmp_joingroup_netif: attempt to join on non-IGMP netif"
	.section	.text.unlikely.igmp_joingroup_netif,"ax",@progbits
.LCOLDB12:
	.section	.text.igmp_joingroup_netif,"ax",@progbits
.LHOTB12:
	.globl	igmp_joingroup_netif
	.type	igmp_joingroup_netif, @function
igmp_joingroup_netif:
.LFB32:
	.loc 1 479 0
	.cfi_startproc
.LVL76:
	pushl	%ebp
	.cfi_def_cfa_offset 8
	.cfi_offset 5, -8
	movl	%esp, %ebp
	.cfi_def_cfa_register 5
	pushl	%edi
	pushl	%esi
	pushl	%ebx
	subl	$12, %esp
	.cfi_offset 7, -12
	.cfi_offset 6, -16
	.cfi_offset 3, -20
	.loc 1 479 0
	movl	12(%ebp), %edi
	movl	8(%ebp), %esi
	.loc 1 483 0
	movl	(%edi), %eax
	movl	%eax, %edx
	andl	$240, %edx
	cmpl	$224, %edx
	je	.L92
	.loc 1 483 0 is_stmt 0 discriminator 1
	subl	$12, %esp
	pushl	$.LC9
	jmp	.L107
.L92:
	.loc 1 484 0 is_stmt 1
	cmpl	allsystems, %eax
	jne	.L94
	.loc 1 484 0 is_stmt 0 discriminator 1
	subl	$12, %esp
	pushl	$.LC10
.L107:
	call	bk_printf
.LVL77:
	addl	$16, %esp
	movb	$-6, %al
	jmp	.L93
.L94:
	.loc 1 487 0 is_stmt 1
	testb	$32, 61(%esi)
	jne	.L95
	.loc 1 487 0 is_stmt 0 discriminator 1
	subl	$12, %esp
	pushl	$.LC11
	jmp	.L107
.L95:
.LVL78:
.LBB21:
.LBB22:
	.loc 1 249 0 is_stmt 1
	pushl	%ecx
	pushl	%ecx
	pushl	%edi
	pushl	%esi
	call	igmp_lookfor_group
.LVL79:
	addl	$16, %esp
.LVL80:
	.loc 1 250 0
	testl	%eax, %eax
	movl	%eax, %ebx
	jne	.L96
	movl	%edi, %edx
	movl	%esi, %eax
.LVL81:
	call	igmp_lookup_group.part.1
.LVL82:
	movl	%eax, %ebx
.LVL83:
.LBE22:
.LBE21:
	.loc 1 524 0
	movb	$-1, %al
	.loc 1 492 0
	testl	%ebx, %ebx
	je	.L93
.L96:
	.loc 1 494 0
	cmpb	$0, 9(%ebx)
	jne	.L97
	.loc 1 503 0
	cmpb	$0, 12(%ebx)
	jne	.L98
	.loc 1 503 0 is_stmt 0 discriminator 1
	movl	68(%esi), %eax
	testl	%eax, %eax
	je	.L98
	.loc 1 507 0 is_stmt 1
	pushl	%edx
	pushl	$1
	pushl	%edi
	pushl	%esi
	call	*%eax
.LVL84:
	addl	$16, %esp
.L98:
	.loc 1 511 0
	movl	$22, %ecx
	movl	%ebx, %edx
	movl	%esi, %eax
	call	igmp_send
.LVL85:
.LBB23:
.LBB24:
	.loc 1 686 0
	call	rand
.LVL86:
	xorl	%edx, %edx
	movl	$5, %ecx
.LBE24:
.LBE23:
	.loc 1 516 0
	movb	$1, 9(%ebx)
.LBB26:
.LBB25:
	.loc 1 686 0
	divl	%ecx
	movl	$1, %eax
	testl	%edx, %edx
	cmove	%eax, %edx
	movw	%dx, 10(%ebx)
.LVL87:
.L97:
.LBE25:
.LBE26:
	.loc 1 519 0
	incb	12(%ebx)
	.loc 1 521 0
	xorl	%eax, %eax
.L93:
	.loc 1 526 0
	leal	-12(%ebp), %esp
	popl	%ebx
	.cfi_restore 3
	popl	%esi
	.cfi_restore 6
	popl	%edi
	.cfi_restore 7
	popl	%ebp
	.cfi_restore 5
	.cfi_def_cfa 4, 4
	ret
	.cfi_endproc
.LFE32:
	.size	igmp_joingroup_netif, .-igmp_joingroup_netif
	.section	.text.unlikely.igmp_joingroup_netif
.LCOLDE12:
	.section	.text.igmp_joingroup_netif
.LHOTE12:
	.section	.rodata.str1.1
.LC13:
	.string	"igmp_joingroup: attempt to join non-multicast address"
.LC14:
	.string	"igmp_joingroup: attempt to join allsystems address"
	.section	.text.unlikely.igmp_joingroup,"ax",@progbits
.LCOLDB15:
	.section	.text.igmp_joingroup,"ax",@progbits
.LHOTB15:
	.globl	igmp_joingroup
	.type	igmp_joingroup, @function
igmp_joingroup:
.LFB31:
	.loc 1 442 0
	.cfi_startproc
.LVL88:
	pushl	%ebp
	.cfi_def_cfa_offset 8
	.cfi_offset 5, -8
	movl	%esp, %ebp
	.cfi_def_cfa_register 5
	pushl	%edi
	pushl	%esi
	pushl	%ebx
	subl	$12, %esp
	.cfi_offset 7, -12
	.cfi_offset 6, -16
	.cfi_offset 3, -20
	.loc 1 442 0
	movl	12(%ebp), %esi
	movl	8(%ebp), %ebx
	.loc 1 447 0
	movl	(%esi), %edx
	movl	%edx, %eax
	andl	$240, %eax
	cmpl	$224, %eax
	je	.L109
	.loc 1 447 0 is_stmt 0 discriminator 1
	subl	$12, %esp
	pushl	$.LC13
	jmp	.L128
.L109:
	.loc 1 448 0 is_stmt 1
	cmpl	allsystems, %edx
	.loc 1 451 0
	movl	netif_list, %edi
.LVL89:
	.loc 1 443 0
	movb	$-6, %al
	.loc 1 448 0
	jne	.L123
	.loc 1 448 0 is_stmt 0 discriminator 1
	subl	$12, %esp
	pushl	$.LC14
.LVL90:
.L128:
	call	bk_printf
.LVL91:
	addl	$16, %esp
	movb	$-6, %al
	jmp	.L110
.LVL92:
.L115:
	.loc 1 454 0 is_stmt 1
	testb	$32, 61(%edi)
	jne	.L129
.L113:
	.loc 1 463 0
	movl	(%edi), %edi
.LVL93:
.L123:
	.loc 1 452 0
	testl	%edi, %edi
	jne	.L115
	jmp	.L110
.L129:
	.loc 1 454 0 discriminator 1
	testl	%ebx, %ebx
	je	.L114
	.loc 1 454 0 discriminator 2
	movl	(%ebx), %edx
	testl	%edx, %edx
	je	.L114
	.loc 1 454 0 is_stmt 0 discriminator 3
	cmpl	4(%edi), %edx
	jne	.L113
.L114:
.LVL94:
	.loc 1 455 0 is_stmt 1
	pushl	%eax
	pushl	%eax
	pushl	%esi
	pushl	%edi
	call	igmp_joingroup_netif
.LVL95:
	.loc 1 456 0
	addl	$16, %esp
	testb	%al, %al
	je	.L113
.LVL96:
.L110:
	.loc 1 467 0
	leal	-12(%ebp), %esp
	popl	%ebx
	.cfi_restore 3
	popl	%esi
	.cfi_restore 6
	popl	%edi
	.cfi_restore 7
	popl	%ebp
	.cfi_restore 5
	.cfi_def_cfa 4, 4
	ret
	.cfi_endproc
.LFE31:
	.size	igmp_joingroup, .-igmp_joingroup
	.section	.text.unlikely.igmp_joingroup
.LCOLDE15:
	.section	.text.igmp_joingroup
.LHOTE15:
	.section	.rodata.str1.1
.LC16:
	.string	"igmp_leavegroup_netif: attempt to leave non-multicast address"
.LC17:
	.string	"igmp_leavegroup_netif: attempt to leave allsystems address"
.LC18:
	.string	"igmp_leavegroup_netif: attempt to leave on non-IGMP netif"
	.section	.text.unlikely.igmp_leavegroup_netif,"ax",@progbits
.LCOLDB19:
	.section	.text.igmp_leavegroup_netif,"ax",@progbits
.LHOTB19:
	.globl	igmp_leavegroup_netif
	.type	igmp_leavegroup_netif, @function
igmp_leavegroup_netif:
.LFB34:
	.loc 1 574 0
	.cfi_startproc
.LVL97:
	pushl	%ebp
	.cfi_def_cfa_offset 8
	.cfi_offset 5, -8
	movl	%esp, %ebp
	.cfi_def_cfa_register 5
	pushl	%edi
	pushl	%esi
	pushl	%ebx
	subl	$12, %esp
	.cfi_offset 7, -12
	.cfi_offset 6, -16
	.cfi_offset 3, -20
	.loc 1 574 0
	movl	12(%ebp), %edi
	movl	8(%ebp), %esi
	.loc 1 578 0
	movl	(%edi), %eax
	movl	%eax, %edx
	andl	$240, %edx
	cmpl	$224, %edx
	je	.L131
	.loc 1 578 0 is_stmt 0 discriminator 1
	subl	$12, %esp
	pushl	$.LC16
	jmp	.L149
.L131:
	.loc 1 579 0 is_stmt 1
	cmpl	allsystems, %eax
	jne	.L133
	.loc 1 579 0 is_stmt 0 discriminator 1
	subl	$12, %esp
	pushl	$.LC17
.L149:
	call	bk_printf
.LVL98:
	addl	$16, %esp
	movb	$-6, %al
	jmp	.L132
.L133:
	.loc 1 582 0 is_stmt 1
	testb	$32, 61(%esi)
	jne	.L134
	.loc 1 582 0 is_stmt 0 discriminator 1
	subl	$12, %esp
	pushl	$.LC18
	jmp	.L149
.L134:
	.loc 1 585 0 is_stmt 1
	pushl	%ecx
	pushl	%ecx
	pushl	%edi
	pushl	%esi
	call	igmp_lookfor_group
.LVL99:
	movl	%eax, %ebx
.LVL100:
	addl	$16, %esp
	.loc 1 622 0
	movb	$-6, %al
.LVL101:
	.loc 1 587 0
	testl	%ebx, %ebx
	je	.L132
	.loc 1 594 0
	movb	12(%ebx), %al
	cmpb	$1, %al
	ja	.L135
.LVL102:
.LBB30:
.LBB31:
	.loc 1 287 0
	movl	40(%esi), %eax
	cmpl	%eax, %ebx
	jne	.L146
	.loc 1 288 0
	movl	(%ebx), %eax
	movl	%eax, 40(%esi)
	jmp	.L137
.LVL103:
.L143:
.LBB32:
	.loc 1 293 0
	movl	%edx, %eax
.LVL104:
.L146:
	.loc 1 292 0
	testl	%eax, %eax
	je	.L137
	.loc 1 293 0
	movl	(%eax), %edx
	cmpl	%edx, %ebx
	jne	.L143
	.loc 1 294 0
	movl	(%ebx), %edx
	movl	%edx, (%eax)
.LVL105:
.L137:
.LBE32:
.LBE31:
.LBE30:
	.loc 1 599 0
	cmpb	$0, 8(%ebx)
	je	.L140
	.loc 1 602 0
	movl	$23, %ecx
	movl	%ebx, %edx
	movl	%esi, %eax
	call	igmp_send
.LVL106:
.L140:
	.loc 1 606 0
	movl	68(%esi), %eax
	testl	%eax, %eax
	je	.L141
	.loc 1 610 0
	pushl	%edx
	pushl	$0
	pushl	%edi
	pushl	%esi
	call	*%eax
.LVL107:
	addl	$16, %esp
.L141:
	.loc 1 614 0
	pushl	%eax
	pushl	%eax
	pushl	%ebx
	pushl	$9
	call	memp_free
.LVL108:
	addl	$16, %esp
	jmp	.L150
.LVL109:
.L135:
	.loc 1 617 0
	decl	%eax
	movb	%al, 12(%ebx)
.L150:
	.loc 1 619 0
	xorl	%eax, %eax
.LVL110:
.L132:
	.loc 1 624 0
	leal	-12(%ebp), %esp
	popl	%ebx
	.cfi_restore 3
	popl	%esi
	.cfi_restore 6
	popl	%edi
	.cfi_restore 7
	popl	%ebp
	.cfi_restore 5
	.cfi_def_cfa 4, 4
	ret
	.cfi_endproc
.LFE34:
	.size	igmp_leavegroup_netif, .-igmp_leavegroup_netif
	.section	.text.unlikely.igmp_leavegroup_netif
.LCOLDE19:
	.section	.text.igmp_leavegroup_netif
.LHOTE19:
	.section	.rodata.str1.1
.LC20:
	.string	"igmp_leavegroup: attempt to leave non-multicast address"
.LC21:
	.string	"igmp_leavegroup: attempt to leave allsystems address"
	.section	.text.unlikely.igmp_leavegroup,"ax",@progbits
.LCOLDB22:
	.section	.text.igmp_leavegroup,"ax",@progbits
.LHOTB22:
	.globl	igmp_leavegroup
	.type	igmp_leavegroup, @function
igmp_leavegroup:
.LFB33:
	.loc 1 538 0
	.cfi_startproc
.LVL111:
	pushl	%ebp
	.cfi_def_cfa_offset 8
	.cfi_offset 5, -8
	movl	%esp, %ebp
	.cfi_def_cfa_register 5
	pushl	%edi
	pushl	%esi
	pushl	%ebx
	subl	$12, %esp
	.cfi_offset 7, -12
	.cfi_offset 6, -16
	.cfi_offset 3, -20
	.loc 1 538 0
	movl	12(%ebp), %edi
	.loc 1 543 0
	movl	(%edi), %eax
	movl	%eax, %edx
	andl	$240, %edx
	cmpl	$224, %edx
	je	.L152
	.loc 1 543 0 is_stmt 0 discriminator 1
	subl	$12, %esp
	pushl	$.LC20
	jmp	.L172
.L152:
	.loc 1 544 0 is_stmt 1
	cmpl	allsystems, %eax
	.loc 1 547 0
	movl	netif_list, %esi
.LVL112:
	.loc 1 539 0
	movb	$-6, %bl
	.loc 1 544 0
	jne	.L167
	.loc 1 544 0 is_stmt 0 discriminator 1
	subl	$12, %esp
	pushl	$.LC21
.LVL113:
.L172:
	call	bk_printf
.LVL114:
	addl	$16, %esp
	movb	$-6, %al
	jmp	.L153
.LVL115:
.L158:
	.loc 1 550 0 is_stmt 1
	testb	$32, 61(%esi)
	jne	.L173
.LVL116:
.L156:
	.loc 1 558 0
	movl	(%esi), %esi
.LVL117:
.L167:
	.loc 1 548 0
	testl	%esi, %esi
	jne	.L158
	jmp	.L174
.L173:
	.loc 1 550 0 discriminator 1
	cmpl	$0, 8(%ebp)
	je	.L157
	.loc 1 550 0 discriminator 2
	movl	8(%ebp), %eax
	movl	(%eax), %eax
	testl	%eax, %eax
	je	.L157
	.loc 1 550 0 is_stmt 0 discriminator 3
	cmpl	4(%esi), %eax
	jne	.L156
.L157:
.LBB33:
	.loc 1 551 0 is_stmt 1
	pushl	%eax
	pushl	%eax
	pushl	%edi
	pushl	%esi
	call	igmp_leavegroup_netif
.LVL118:
	.loc 1 552 0
	addl	$16, %esp
	.loc 1 554 0
	testb	%bl, %bl
	cmovne	%eax, %ebx
.LVL119:
	jmp	.L156
.LVL120:
.L174:
.LBE33:
	movb	%bl, %al
.LVL121:
.L153:
	.loc 1 562 0
	leal	-12(%ebp), %esp
	popl	%ebx
	.cfi_restore 3
	popl	%esi
	.cfi_restore 6
	popl	%edi
	.cfi_restore 7
	popl	%ebp
	.cfi_restore 5
	.cfi_def_cfa 4, 4
	ret
	.cfi_endproc
.LFE33:
	.size	igmp_leavegroup, .-igmp_leavegroup
	.section	.text.unlikely.igmp_leavegroup
.LCOLDE22:
	.section	.text.igmp_leavegroup
.LHOTE22:
	.section	.text.unlikely.igmp_tmr,"ax",@progbits
.LCOLDB23:
	.section	.text.igmp_tmr,"ax",@progbits
.LHOTB23:
	.globl	igmp_tmr
	.type	igmp_tmr, @function
igmp_tmr:
.LFB35:
	.loc 1 632 0
	.cfi_startproc
	pushl	%ebp
	.cfi_def_cfa_offset 8
	.cfi_offset 5, -8
	movl	%esp, %ebp
	.cfi_def_cfa_register 5
	pushl	%esi
	.cfi_offset 6, -12
	.loc 1 633 0
	movl	netif_list, %esi
.LVL122:
	.loc 1 632 0
	pushl	%ebx
	.cfi_offset 3, -16
.L176:
	.loc 1 635 0
	testl	%esi, %esi
	je	.L184
.LBB37:
	.loc 1 636 0
	movl	40(%esi), %ebx
.LVL123:
.L177:
	.loc 1 638 0
	testl	%ebx, %ebx
	je	.L185
	.loc 1 639 0
	movw	10(%ebx), %ax
	testw	%ax, %ax
	je	.L179
	.loc 1 640 0
	decl	%eax
	.loc 1 641 0
	testw	%ax, %ax
	.loc 1 640 0
	movw	%ax, 10(%ebx)
	.loc 1 641 0
	jne	.L179
.LVL124:
.LBB38:
.LBB39:
	.loc 1 662 0
	cmpb	$1, 9(%ebx)
	jne	.L179
	movl	allsystems, %eax
	cmpl	%eax, 4(%ebx)
	je	.L179
	.loc 1 668 0
	movb	$2, 9(%ebx)
	.loc 1 671 0
	movl	$22, %ecx
	movl	%ebx, %edx
	movl	%esi, %eax
	call	igmp_send
.LVL125:
.L179:
.LBE39:
.LBE38:
	.loc 1 645 0
	movl	(%ebx), %ebx
.LVL126:
	jmp	.L177
.L185:
	.loc 1 647 0
	movl	(%esi), %esi
.LVL127:
	jmp	.L176
.LVL128:
.L184:
.LBE37:
	.loc 1 649 0
	popl	%ebx
	.cfi_restore 3
	popl	%esi
	.cfi_restore 6
.LVL129:
	popl	%ebp
	.cfi_restore 5
	.cfi_def_cfa 4, 4
	ret
	.cfi_endproc
.LFE35:
	.size	igmp_tmr, .-igmp_tmr
	.section	.text.unlikely.igmp_tmr
.LCOLDE23:
	.section	.text.igmp_tmr
.LHOTE23:
	.section	.bss.allrouters,"aw",@nobits
	.align 4
	.type	allrouters, @object
	.size	allrouters, 4
allrouters:
	.zero	4
	.section	.bss.allsystems,"aw",@nobits
	.align 4
	.type	allsystems, @object
	.size	allsystems, 4
allsystems:
	.zero	4
	.text
.Letext0:
	.section	.text.unlikely.igmp_send
.Letext_cold0:
	.file 2 "././platform/mcu/moc108/include/lwip-2.0.2/arch/cc.h"
	.file 3 "./kernel/protocols/net/include/lwip/ip4_addr.h"
	.file 4 "./kernel/protocols/net/include/lwip/ip_addr.h"
	.file 5 "./kernel/protocols/net/include/lwip/err.h"
	.file 6 "./kernel/protocols/net/include/lwip/pbuf.h"
	.file 7 "./kernel/protocols/net/include/lwip/memp.h"
	.file 8 "./kernel/protocols/net/include/lwip/netif.h"
	.file 9 "./kernel/protocols/net/include/lwip/igmp.h"
	.file 10 "./kernel/protocols/net/include/lwip/prot/ip4.h"
	.file 11 "./kernel/protocols/net/include/lwip/ip.h"
	.file 12 "./kernel/protocols/net/include/lwip/prot/igmp.h"
	.file 13 "./include/aos/log.h"
	.file 14 "./kernel/protocols/net/include/lwip/ip4.h"
	.file 15 "./kernel/protocols/net/include/lwip/inet_chksum.h"
	.file 16 "././platform/mcu/moc108/include/driver/uart_pub.h"
	.section	.note.GNU-stack,"",@progbits
