	.file	"inet_chksum.c"
	.text
.Ltext0:
	.section	.text.unlikely.lwip_standard_chksum,"ax",@progbits
.LCOLDB0:
	.section	.text.lwip_standard_chksum,"ax",@progbits
.LHOTB0:
	.section	.text.unlikely.lwip_standard_chksum
.Ltext_cold0:
	.section	.text.lwip_standard_chksum
	.globl	lwip_standard_chksum
	.type	lwip_standard_chksum, @function
lwip_standard_chksum:
.LFB17:
	.file 1 "kernel/protocols/net/core/inet_chksum.c"
	.loc 1 135 0
	.cfi_startproc
.LVL0:
	pushl	%ebp
	.cfi_def_cfa_offset 8
	.cfi_offset 5, -8
	movl	%esp, %ebp
	.cfi_def_cfa_register 5
	pushl	%esi
	pushl	%ebx
	subl	$16, %esp
	.cfi_offset 6, -12
	.cfi_offset 3, -16
	.loc 1 135 0
	movl	8(%ebp), %edx
	movl	12(%ebp), %ebx
	movl	%gs:20, %eax
	movl	%eax, -12(%ebp)
	xorl	%eax, %eax
.LVL1:
	.loc 1 138 0
	movw	$0, -14(%ebp)
.LVL2:
	.loc 1 140 0
	movl	%edx, %ecx
	andl	$1, %ecx
.LVL3:
	.loc 1 143 0
	testl	%ebx, %ebx
	jle	.L2
	testb	%cl, %cl
	je	.L2
.LVL4:
	.loc 1 144 0
	movb	(%edx), %al
	.loc 1 145 0
	decl	%ebx
.LVL5:
	.loc 1 144 0
	incl	%edx
.LVL6:
	movb	%al, -13(%ebp)
.LVL7:
.L2:
	.loc 1 139 0
	xorl	%eax, %eax
.LVL8:
.L3:
	.loc 1 150 0
	cmpl	$1, %ebx
	jle	.L16
	.loc 1 151 0
	addl	$2, %edx
.LVL9:
	movzwl	-2(%edx), %esi
	.loc 1 152 0
	subl	$2, %ebx
.LVL10:
	.loc 1 151 0
	addl	%esi, %eax
.LVL11:
	jmp	.L3
.L16:
	.loc 1 156 0
	jne	.L5
	.loc 1 157 0
	movb	(%edx), %dl
.LVL12:
	movb	%dl, -14(%ebp)
.L5:
	.loc 1 161 0
	movzwl	-14(%ebp), %edx
	addl	%edx, %eax
.LVL13:
	.loc 1 165 0
	movl	%eax, %edx
	movzwl	%ax, %eax
.LVL14:
	shrl	$16, %edx
.LVL15:
	addl	%eax, %edx
.LVL16:
	.loc 1 166 0
	movl	%edx, %eax
	movzwl	%dx, %edx
.LVL17:
	shrl	$16, %eax
.LVL18:
	addl	%edx, %eax
.LVL19:
	.loc 1 169 0
	testl	%ecx, %ecx
	je	.L6
	.loc 1 170 0
	movl	%eax, %edx
	movzbl	%ah, %eax
.LVL20:
	sall	$8, %edx
.LVL21:
	movzwl	%dx, %edx
	orl	%edx, %eax
.LVL22:
.L6:
	.loc 1 174 0
	movl	-12(%ebp), %esi
	xorl	%gs:20, %esi
	je	.L7
	call	__stack_chk_fail
.LVL23:
.L7:
	addl	$16, %esp
	popl	%ebx
	.cfi_restore 3
.LVL24:
	popl	%esi
	.cfi_restore 6
	popl	%ebp
	.cfi_restore 5
	.cfi_def_cfa 4, 4
	ret
	.cfi_endproc
.LFE17:
	.size	lwip_standard_chksum, .-lwip_standard_chksum
	.section	.text.unlikely.lwip_standard_chksum
.LCOLDE0:
	.section	.text.lwip_standard_chksum
.LHOTE0:
	.section	.text.unlikely.inet_chksum_pseudo,"ax",@progbits
.LCOLDB1:
	.section	.text.inet_chksum_pseudo,"ax",@progbits
.LHOTB1:
	.globl	inet_chksum_pseudo
	.type	inet_chksum_pseudo, @function
inet_chksum_pseudo:
.LFB19:
	.loc 1 313 0
	.cfi_startproc
.LVL25:
	pushl	%ebp
	.cfi_def_cfa_offset 8
	.cfi_offset 5, -8
	movl	%esp, %ebp
	.cfi_def_cfa_register 5
	pushl	%edi
	pushl	%esi
	pushl	%ebx
	subl	$28, %esp
	.cfi_offset 7, -12
	.cfi_offset 6, -16
	.cfi_offset 3, -20
	.loc 1 313 0
	movl	12(%ebp), %eax
	movl	8(%ebp), %edi
	movl	16(%ebp), %esi
	movl	%eax, -28(%ebp)
	.loc 1 317 0
	movl	20(%ebp), %eax
	movl	(%eax), %ebx
.LVL26:
	.loc 1 318 0
	movzwl	%bx, %eax
.LVL27:
	.loc 1 319 0
	shrl	$16, %ebx
.LVL28:
	addl	%eax, %ebx
.LVL29:
	.loc 1 320 0
	movl	24(%ebp), %eax
	movl	(%eax), %eax
.LVL30:
	.loc 1 321 0
	movzwl	%ax, %edx
	.loc 1 322 0
	shrl	$16, %eax
.LVL31:
	.loc 1 321 0
	addl	%edx, %ebx
.LVL32:
	.loc 1 322 0
	addl	%ebx, %eax
.LVL33:
	.loc 1 324 0
	movl	%eax, %edx
	movzwl	%ax, %eax
.LVL34:
	shrl	$16, %edx
.LVL35:
	addl	%eax, %edx
.LVL36:
	.loc 1 325 0
	movl	%edx, %ebx
	movzwl	%dx, %edx
.LVL37:
	shrl	$16, %ebx
.LVL38:
	addl	%edx, %ebx
.LVL39:
.LBB4:
.LBB5:
	.loc 1 264 0
	xorl	%edx, %edx
.LVL40:
.L18:
	.loc 1 267 0
	testl	%edi, %edi
	je	.L29
	.loc 1 270 0
	pushl	%eax
	pushl	%eax
	movzwl	10(%edi), %eax
	movb	%dl, -29(%ebp)
	pushl	%eax
	pushl	4(%edi)
	call	lwip_standard_chksum
.LVL41:
	movzwl	%ax, %eax
	.loc 1 275 0
	addl	$16, %esp
	movb	-29(%ebp), %dl
	.loc 1 270 0
	addl	%eax, %ebx
.LVL42:
	.loc 1 274 0
	movl	%ebx, %eax
	movzwl	%bx, %ebx
.LVL43:
	shrl	$16, %eax
.LVL44:
	addl	%eax, %ebx
.LVL45:
	.loc 1 275 0
	testb	$1, 10(%edi)
	je	.L19
	.loc 1 276 0
	movb	$1, %al
	subl	%edx, %eax
	movb	%al, %dl
.LVL46:
	.loc 1 277 0
	movl	%ebx, %eax
.LVL47:
	movzbl	%bh, %ebx
.LVL48:
	sall	$8, %eax
.LVL49:
	movzwl	%ax, %eax
	orl	%eax, %ebx
.LVL50:
.L19:
	.loc 1 267 0
	movl	(%edi), %edi
.LVL51:
	jmp	.L18
.L29:
	.loc 1 282 0
	testb	%dl, %dl
	je	.L21
	.loc 1 283 0
	movl	%ebx, %edx
.LVL52:
	movzbl	%bh, %ebx
.LVL53:
	sall	$8, %edx
.LVL54:
	movzwl	%dx, %edx
	orl	%edx, %ebx
.LVL55:
.L21:
	.loc 1 286 0
	movzbl	-28(%ebp), %edi
.LVL56:
	subl	$12, %esp
	.loc 1 287 0
	movzwl	%si, %esi
	.loc 1 286 0
	pushl	%edi
	call	lwip_htons
.LVL57:
	.loc 1 287 0
	movl	%esi, (%esp)
	.loc 1 286 0
	movzwl	%ax, %edi
.LVL58:
	.loc 1 287 0
	call	lwip_htons
.LVL59:
	movzwl	%ax, %eax
.LBE5:
.LBE4:
	.loc 1 328 0
	leal	-12(%ebp), %esp
.LBB7:
.LBB6:
	.loc 1 287 0
	addl	%edi, %eax
	addl	%eax, %ebx
.LVL60:
	.loc 1 291 0
	movl	%ebx, %eax
	movzwl	%bx, %ebx
.LVL61:
	shrl	$16, %eax
.LVL62:
	addl	%eax, %ebx
.LVL63:
	.loc 1 292 0
	movl	%ebx, %eax
	shrl	$16, %eax
.LBE6:
.LBE7:
	.loc 1 327 0
	addl	%ebx, %eax
	notl	%eax
	.loc 1 328 0
	popl	%ebx
	.cfi_restore 3
	popl	%esi
	.cfi_restore 6
	popl	%edi
	.cfi_restore 7
	popl	%ebp
	.cfi_restore 5
	.cfi_def_cfa 4, 4
	ret
	.cfi_endproc
.LFE19:
	.size	inet_chksum_pseudo, .-inet_chksum_pseudo
	.section	.text.unlikely.inet_chksum_pseudo
.LCOLDE1:
	.section	.text.inet_chksum_pseudo
.LHOTE1:
	.section	.text.unlikely.ip_chksum_pseudo,"ax",@progbits
.LCOLDB2:
	.section	.text.ip_chksum_pseudo,"ax",@progbits
.LHOTB2:
	.globl	ip_chksum_pseudo
	.type	ip_chksum_pseudo, @function
ip_chksum_pseudo:
.LFB20:
	.loc 1 382 0
	.cfi_startproc
.LVL64:
	pushl	%ebp
	.cfi_def_cfa_offset 8
	.cfi_offset 5, -8
	movl	%esp, %ebp
	.cfi_def_cfa_register 5
	.loc 1 393 0
	movzwl	16(%ebp), %eax
	movl	%eax, 16(%ebp)
.LVL65:
	movzbl	12(%ebp), %eax
.LVL66:
	movl	%eax, 12(%ebp)
.LVL67:
	.loc 1 396 0
	popl	%ebp
	.cfi_restore 5
	.cfi_def_cfa 4, 4
	.loc 1 393 0
	jmp	inet_chksum_pseudo
.LVL68:
	.cfi_endproc
.LFE20:
	.size	ip_chksum_pseudo, .-ip_chksum_pseudo
	.section	.text.unlikely.ip_chksum_pseudo
.LCOLDE2:
	.section	.text.ip_chksum_pseudo
.LHOTE2:
	.section	.text.unlikely.inet_chksum_pseudo_partial,"ax",@progbits
.LCOLDB3:
	.section	.text.inet_chksum_pseudo_partial,"ax",@progbits
.LHOTB3:
	.globl	inet_chksum_pseudo_partial
	.type	inet_chksum_pseudo_partial, @function
inet_chksum_pseudo_partial:
.LFB22:
	.loc 1 459 0
	.cfi_startproc
.LVL69:
	pushl	%ebp
	.cfi_def_cfa_offset 8
	.cfi_offset 5, -8
	movl	%esp, %ebp
	.cfi_def_cfa_register 5
	pushl	%edi
	pushl	%esi
	pushl	%ebx
	subl	$28, %esp
	.cfi_offset 7, -12
	.cfi_offset 6, -16
	.cfi_offset 3, -20
	.loc 1 459 0
	movl	12(%ebp), %eax
	movl	8(%ebp), %esi
	movl	20(%ebp), %edi
	movl	%eax, -28(%ebp)
	movl	16(%ebp), %eax
	movl	%eax, -32(%ebp)
	.loc 1 463 0
	movl	24(%ebp), %eax
	movl	(%eax), %ecx
.LVL70:
	.loc 1 466 0
	movl	28(%ebp), %eax
	.loc 1 464 0
	movzwl	%cx, %edx
.LVL71:
	.loc 1 465 0
	shrl	$16, %ecx
.LVL72:
	addl	%edx, %ecx
.LVL73:
	.loc 1 466 0
	movl	(%eax), %edx
.LVL74:
	.loc 1 467 0
	movzwl	%dx, %eax
	.loc 1 468 0
	shrl	$16, %edx
.LVL75:
	.loc 1 467 0
	addl	%ecx, %eax
.LVL76:
.LBB10:
.LBB11:
	.loc 1 404 0
	xorl	%ecx, %ecx
.LBE11:
.LBE10:
	.loc 1 468 0
	addl	%edx, %eax
.LVL77:
	.loc 1 470 0
	movl	%eax, %ebx
	movzwl	%ax, %edx
	shrl	$16, %ebx
	addl	%ebx, %edx
.LVL78:
	.loc 1 471 0
	movl	%edx, %eax
	movzwl	%dx, %ebx
	shrl	$16, %eax
	addl	%eax, %ebx
.LVL79:
.L33:
.LBB14:
.LBB12:
	.loc 1 408 0
	testl	%esi, %esi
	je	.L38
	testw	%di, %di
	je	.L38
	.loc 1 411 0
	movw	10(%esi), %dx
.LVL80:
	.loc 1 415 0
	pushl	%eax
	pushl	%eax
	movb	%cl, -37(%ebp)
	cmpw	%di, %dx
	cmova	%edi, %edx
.LVL81:
	movzwl	%dx, %eax
	movl	%edx, -36(%ebp)
	pushl	%eax
	pushl	4(%esi)
	call	lwip_standard_chksum
.LVL82:
	.loc 1 416 0
	movl	-36(%ebp), %edx
	.loc 1 415 0
	movzwl	%ax, %eax
	.loc 1 421 0
	addl	$16, %esp
	.loc 1 415 0
	addl	%eax, %ebx
.LVL83:
	.loc 1 421 0
	movb	-37(%ebp), %cl
	.loc 1 416 0
	subl	%edx, %edi
.LVL84:
	.loc 1 420 0
	movl	%ebx, %edx
	movzwl	%bx, %ebx
.LVL85:
	shrl	$16, %edx
.LVL86:
	addl	%edx, %ebx
.LVL87:
	.loc 1 421 0
	testb	$1, 10(%esi)
	je	.L34
	.loc 1 423 0
	movl	%ebx, %edx
	.loc 1 422 0
	movb	$1, %al
	.loc 1 423 0
	movzbl	%bh, %ebx
.LVL88:
	sall	$8, %edx
.LVL89:
	.loc 1 422 0
	subl	%ecx, %eax
	.loc 1 423 0
	movzwl	%dx, %edx
	.loc 1 422 0
	movb	%al, %cl
.LVL90:
	.loc 1 423 0
	orl	%edx, %ebx
.LVL91:
.L34:
	.loc 1 408 0
	movl	(%esi), %esi
.LVL92:
	jmp	.L33
.LVL93:
.L38:
	.loc 1 428 0
	testb	%cl, %cl
	je	.L37
	.loc 1 429 0
	movl	%ebx, %edx
	movzbl	%bh, %ebx
.LVL94:
	sall	$8, %edx
.LVL95:
	movzwl	%dx, %edx
	orl	%edx, %ebx
.LVL96:
.L37:
	.loc 1 432 0
	movzbl	-28(%ebp), %eax
	subl	$12, %esp
	pushl	%eax
	call	lwip_htons
.LVL97:
	movzwl	%ax, %esi
.LVL98:
	.loc 1 433 0
	movzwl	-32(%ebp), %eax
	movl	%eax, (%esp)
	call	lwip_htons
.LVL99:
	movzwl	%ax, %eax
.LBE12:
.LBE14:
	.loc 1 474 0
	leal	-12(%ebp), %esp
.LBB15:
.LBB13:
	.loc 1 433 0
	addl	%esi, %eax
	addl	%eax, %ebx
.LVL100:
	.loc 1 437 0
	movl	%ebx, %eax
	movzwl	%bx, %ebx
.LVL101:
	shrl	$16, %eax
.LVL102:
	addl	%eax, %ebx
.LVL103:
	.loc 1 438 0
	movl	%ebx, %eax
	shrl	$16, %eax
.LBE13:
.LBE15:
	.loc 1 473 0
	addl	%ebx, %eax
	notl	%eax
	.loc 1 474 0
	popl	%ebx
	.cfi_restore 3
	popl	%esi
	.cfi_restore 6
	popl	%edi
	.cfi_restore 7
	popl	%ebp
	.cfi_restore 5
	.cfi_def_cfa 4, 4
	ret
	.cfi_endproc
.LFE22:
	.size	inet_chksum_pseudo_partial, .-inet_chksum_pseudo_partial
	.section	.text.unlikely.inet_chksum_pseudo_partial
.LCOLDE3:
	.section	.text.inet_chksum_pseudo_partial
.LHOTE3:
	.section	.text.unlikely.ip_chksum_pseudo_partial,"ax",@progbits
.LCOLDB4:
	.section	.text.ip_chksum_pseudo_partial,"ax",@progbits
.LHOTB4:
	.globl	ip_chksum_pseudo_partial
	.type	ip_chksum_pseudo_partial, @function
ip_chksum_pseudo_partial:
.LFB23:
	.loc 1 529 0
	.cfi_startproc
.LVL104:
	pushl	%ebp
	.cfi_def_cfa_offset 8
	.cfi_offset 5, -8
	movl	%esp, %ebp
	.cfi_def_cfa_register 5
	.loc 1 540 0
	movzwl	20(%ebp), %eax
	movl	%eax, 20(%ebp)
.LVL105:
	movzwl	16(%ebp), %eax
.LVL106:
	movl	%eax, 16(%ebp)
.LVL107:
	movzbl	12(%ebp), %eax
.LVL108:
	movl	%eax, 12(%ebp)
.LVL109:
	.loc 1 543 0
	popl	%ebp
	.cfi_restore 5
	.cfi_def_cfa 4, 4
	.loc 1 540 0
	jmp	inet_chksum_pseudo_partial
.LVL110:
	.cfi_endproc
.LFE23:
	.size	ip_chksum_pseudo_partial, .-ip_chksum_pseudo_partial
	.section	.text.unlikely.ip_chksum_pseudo_partial
.LCOLDE4:
	.section	.text.ip_chksum_pseudo_partial
.LHOTE4:
	.section	.text.unlikely.inet_chksum,"ax",@progbits
.LCOLDB5:
	.section	.text.inet_chksum,"ax",@progbits
.LHOTB5:
	.globl	inet_chksum
	.type	inet_chksum, @function
inet_chksum:
.LFB24:
	.loc 1 557 0
	.cfi_startproc
.LVL111:
	pushl	%ebp
	.cfi_def_cfa_offset 8
	.cfi_offset 5, -8
	movl	%esp, %ebp
	.cfi_def_cfa_register 5
	subl	$16, %esp
	.loc 1 558 0
	movzwl	12(%ebp), %eax
	pushl	%eax
	pushl	8(%ebp)
	call	lwip_standard_chksum
.LVL112:
	.loc 1 559 0
	leave
	.cfi_restore 5
	.cfi_def_cfa 4, 4
	.loc 1 558 0
	notl	%eax
	.loc 1 559 0
	ret
	.cfi_endproc
.LFE24:
	.size	inet_chksum, .-inet_chksum
	.section	.text.unlikely.inet_chksum
.LCOLDE5:
	.section	.text.inet_chksum
.LHOTE5:
	.section	.text.unlikely.inet_chksum_pbuf,"ax",@progbits
.LCOLDB6:
	.section	.text.inet_chksum_pbuf,"ax",@progbits
.LHOTB6:
	.globl	inet_chksum_pbuf
	.type	inet_chksum_pbuf, @function
inet_chksum_pbuf:
.LFB25:
	.loc 1 570 0
	.cfi_startproc
.LVL113:
	pushl	%ebp
	.cfi_def_cfa_offset 8
	.cfi_offset 5, -8
	.loc 1 576 0
	xorl	%edx, %edx
	.loc 1 570 0
	movl	%esp, %ebp
	.cfi_def_cfa_register 5
	pushl	%esi
	pushl	%ebx
	.cfi_offset 6, -12
	.cfi_offset 3, -16
	.loc 1 575 0
	xorl	%ebx, %ebx
	.loc 1 570 0
	subl	$16, %esp
	.loc 1 570 0
	movl	8(%ebp), %esi
.LVL114:
.L54:
	.loc 1 577 0 discriminator 1
	testl	%esi, %esi
	je	.L65
	.loc 1 578 0
	pushl	%eax
	pushl	%eax
	movzwl	10(%esi), %eax
	movb	%dl, -9(%ebp)
	pushl	%eax
	pushl	4(%esi)
	call	lwip_standard_chksum
.LVL115:
	movzwl	%ax, %eax
	.loc 1 580 0
	addl	$16, %esp
	movb	-9(%ebp), %dl
	.loc 1 578 0
	addl	%eax, %ebx
.LVL116:
	.loc 1 579 0
	movl	%ebx, %eax
	movzwl	%bx, %ebx
.LVL117:
	shrl	$16, %eax
.LVL118:
	addl	%eax, %ebx
.LVL119:
	.loc 1 580 0
	testb	$1, 10(%esi)
	je	.L55
	.loc 1 582 0
	movl	%ebx, %ecx
	.loc 1 581 0
	movb	$1, %al
	.loc 1 582 0
	movzbl	%bh, %ebx
.LVL120:
	sall	$8, %ecx
.LVL121:
	.loc 1 581 0
	subl	%edx, %eax
	.loc 1 582 0
	movzwl	%cx, %ecx
	.loc 1 581 0
	movb	%al, %dl
.LVL122:
	.loc 1 582 0
	orl	%ecx, %ebx
.LVL123:
.L55:
	.loc 1 577 0 discriminator 2
	movl	(%esi), %esi
.LVL124:
	jmp	.L54
.L65:
	.loc 1 586 0
	testb	%dl, %dl
	je	.L57
	.loc 1 587 0
	movl	%ebx, %edx
.LVL125:
	movzbl	%bh, %ebx
.LVL126:
	sall	$8, %edx
.LVL127:
	movzwl	%dx, %edx
	orl	%edx, %ebx
.LVL128:
.L57:
	.loc 1 590 0
	leal	-8(%ebp), %esp
	.loc 1 589 0
	movl	%ebx, %eax
	notl	%eax
	.loc 1 590 0
	popl	%ebx
	.cfi_restore 3
.LVL129:
	popl	%esi
	.cfi_restore 6
.LVL130:
	popl	%ebp
	.cfi_restore 5
	.cfi_def_cfa 4, 4
	ret
	.cfi_endproc
.LFE25:
	.size	inet_chksum_pbuf, .-inet_chksum_pbuf
	.section	.text.unlikely.inet_chksum_pbuf
.LCOLDE6:
	.section	.text.inet_chksum_pbuf
.LHOTE6:
	.text
.Letext0:
	.section	.text.unlikely.lwip_standard_chksum
.Letext_cold0:
	.file 2 "/home/stone/Documents/Ali_IOT/build/compiler/gcc-arm-none-eabi/Linux64/arm-none-eabi/include/machine/_default_types.h"
	.file 3 "/home/stone/Documents/Ali_IOT/build/compiler/gcc-arm-none-eabi/Linux64/arm-none-eabi/include/sys/_stdint.h"
	.file 4 "././platform/mcu/moc108/include/lwip-2.0.2/arch/cc.h"
	.file 5 "./kernel/protocols/net/include/lwip/arch.h"
	.file 6 "./kernel/protocols/net/include/lwip/pbuf.h"
	.file 7 "./kernel/protocols/net/include/lwip/ip4_addr.h"
	.file 8 "./kernel/protocols/net/include/lwip/ip_addr.h"
	.file 9 "./include/aos/log.h"
	.file 10 "./kernel/protocols/net/include/lwip/def.h"
	.section	.note.GNU-stack,"",@progbits
