	.file	"init.c"
	.text
.Ltext0:
	.section	.text.unlikely.lwip_init,"ax",@progbits
.LCOLDB0:
	.section	.text.lwip_init,"ax",@progbits
.LHOTB0:
	.section	.text.unlikely.lwip_init
.Ltext_cold0:
	.section	.text.lwip_init
	.globl	lwip_init
	.type	lwip_init, @function
lwip_init:
.LFB17:
	.file 1 "kernel/protocols/net/core/init.c"
	.loc 1 348 0
	.cfi_startproc
	pushl	%ebp
	.cfi_def_cfa_offset 8
	.cfi_offset 5, -8
	movl	%esp, %ebp
	.cfi_def_cfa_register 5
	subl	$8, %esp
	.loc 1 356 0
	call	sys_init
.LVL0:
	.loc 1 358 0
	call	mem_init
.LVL1:
	.loc 1 359 0
	call	memp_init
.LVL2:
	.loc 1 361 0
	call	netif_init
.LVL3:
	.loc 1 372 0
	call	udp_init
.LVL4:
	.loc 1 375 0
	call	tcp_init
.LVL5:
	.loc 1 378 0
	call	igmp_init
.LVL6:
	.loc 1 381 0
	call	dns_init
.LVL7:
	.loc 1 390 0
	leave
	.cfi_restore 5
	.cfi_def_cfa 4, 4
	.loc 1 388 0
	jmp	sys_timeouts_init
.LVL8:
	.cfi_endproc
.LFE17:
	.size	lwip_init, .-lwip_init
	.section	.text.unlikely.lwip_init
.LCOLDE0:
	.section	.text.lwip_init
.LHOTE0:
	.text
.Letext0:
	.section	.text.unlikely.lwip_init
.Letext_cold0:
	.file 2 "./kernel/protocols/net/include/lwip/sys.h"
	.file 3 "./kernel/protocols/net/include/lwip/mem.h"
	.file 4 "./kernel/protocols/net/include/lwip/memp.h"
	.file 5 "./kernel/protocols/net/include/lwip/netif.h"
	.file 6 "./kernel/protocols/net/include/lwip/udp.h"
	.file 7 "./kernel/protocols/net/include/lwip/priv/tcp_priv.h"
	.file 8 "./kernel/protocols/net/include/lwip/igmp.h"
	.file 9 "./kernel/protocols/net/include/lwip/dns.h"
	.file 10 "./kernel/protocols/net/include/lwip/timeouts.h"
	.file 11 "./include/aos/log.h"
	.section	.note.GNU-stack,"",@progbits
