	.file	"ip4.c"
	.text
.Ltext0:
	.section	.text.unlikely.ip4_set_default_multicast_netif,"ax",@progbits
.LCOLDB0:
	.section	.text.ip4_set_default_multicast_netif,"ax",@progbits
.LHOTB0:
	.section	.text.unlikely.ip4_set_default_multicast_netif
.Ltext_cold0:
	.section	.text.ip4_set_default_multicast_netif
	.globl	ip4_set_default_multicast_netif
	.type	ip4_set_default_multicast_netif, @function
ip4_set_default_multicast_netif:
.LFB23:
	.file 1 "kernel/protocols/net/core/ipv4/ip4.c"
	.loc 1 114 0
	.cfi_startproc
.LVL0:
	pushl	%ebp
	.cfi_def_cfa_offset 8
	.cfi_offset 5, -8
	movl	%esp, %ebp
	.cfi_def_cfa_register 5
	.loc 1 115 0
	movl	8(%ebp), %eax
	.loc 1 116 0
	popl	%ebp
	.cfi_restore 5
	.cfi_def_cfa 4, 4
	.loc 1 115 0
	movl	%eax, ip4_default_multicast_netif
	.loc 1 116 0
	ret
	.cfi_endproc
.LFE23:
	.size	ip4_set_default_multicast_netif, .-ip4_set_default_multicast_netif
	.section	.text.unlikely.ip4_set_default_multicast_netif
.LCOLDE0:
	.section	.text.ip4_set_default_multicast_netif
.LHOTE0:
	.section	.text.unlikely.ip4_route,"ax",@progbits
.LCOLDB1:
	.section	.text.ip4_route,"ax",@progbits
.LHOTB1:
	.globl	ip4_route
	.type	ip4_route, @function
ip4_route:
.LFB24:
	.loc 1 149 0
	.cfi_startproc
.LVL1:
	pushl	%ebp
	.cfi_def_cfa_offset 8
	.cfi_offset 5, -8
	movl	%esp, %ebp
	.cfi_def_cfa_register 5
	pushl	%ebx
	.cfi_offset 3, -12
	.loc 1 154 0
	movl	8(%ebp), %eax
	movl	(%eax), %ecx
	movl	%ecx, %eax
	andl	$240, %eax
	cmpl	$224, %eax
	jne	.L4
	.loc 1 154 0 is_stmt 0 discriminator 1
	movl	ip4_default_multicast_netif, %eax
	testl	%eax, %eax
	jne	.L5
.L4:
	.loc 1 160 0 is_stmt 1
	movl	netif_list, %edx
.LVL2:
.L6:
	.loc 1 160 0 is_stmt 0 discriminator 1
	testl	%edx, %edx
	je	.L21
	.loc 1 162 0 is_stmt 1
	movb	61(%edx), %bl
	movb	%bl, %al
	andl	$5, %eax
	cmpb	$5, %al
	jne	.L7
	.loc 1 162 0 is_stmt 0 discriminator 1
	movl	4(%edx), %eax
	testl	%eax, %eax
	je	.L7
	.loc 1 164 0 is_stmt 1
	xorl	%ecx, %eax
	testl	%eax, 8(%edx)
	je	.L10
	.loc 1 169 0
	andb	$2, %bl
	jne	.L7
	.loc 1 169 0 is_stmt 0 discriminator 1
	cmpl	12(%edx), %ecx
	je	.L10
.L7:
	.loc 1 160 0 is_stmt 1 discriminator 2
	movl	(%edx), %edx
.LVL3:
	jmp	.L6
.L21:
.LVL4:
.LBB4:
.LBB5:
	.loc 1 205 0
	movl	netif_default, %eax
	testl	%eax, %eax
	je	.L5
	.loc 1 205 0
	movb	61(%eax), %cl
	andl	$5, %ecx
	cmpb	$5, %cl
	jne	.L11
	.loc 1 213 0
	cmpl	$0, 4(%eax)
	cmove	%edx, %eax
	jmp	.L5
.LVL5:
.L10:
.LBE5:
.LBE4:
	movl	%edx, %eax
	jmp	.L5
.LVL6:
.L11:
.LBB7:
.LBB6:
	xorl	%eax, %eax
.LVL7:
.L5:
.LBE6:
.LBE7:
	.loc 1 217 0
	popl	%ebx
	.cfi_restore 3
	popl	%ebp
	.cfi_restore 5
	.cfi_def_cfa 4, 4
	ret
	.cfi_endproc
.LFE24:
	.size	ip4_route, .-ip4_route
	.section	.text.unlikely.ip4_route
.LCOLDE1:
	.section	.text.ip4_route
.LHOTE1:
	.section	.text.unlikely.ip4_input,"ax",@progbits
.LCOLDB2:
	.section	.text.ip4_input,"ax",@progbits
.LHOTB2:
	.globl	ip4_input
	.type	ip4_input, @function
ip4_input:
.LFB25:
	.loc 1 371 0
	.cfi_startproc
.LVL8:
	pushl	%ebp
	.cfi_def_cfa_offset 8
	.cfi_offset 5, -8
	movl	%esp, %ebp
	.cfi_def_cfa_register 5
	pushl	%edi
	pushl	%esi
	pushl	%ebx
	subl	$28, %esp
	.cfi_offset 7, -12
	.cfi_offset 6, -16
	.cfi_offset 3, -20
	.loc 1 371 0
	movl	8(%ebp), %ebx
	movl	12(%ebp), %esi
	.loc 1 384 0
	movl	4(%ebx), %edi
.LVL9:
	.loc 1 385 0
	movb	(%edi), %al
	movb	%al, %dl
	shrb	$4, %dl
	cmpb	$4, %dl
	je	.L23
.LVL10:
.L27:
	.loc 1 388 0
	subl	$12, %esp
	pushl	%ebx
	call	pbuf_free
.LVL11:
	.loc 1 392 0
	addl	$16, %esp
	jmp	.L76
.LVL12:
.L23:
	.loc 1 405 0
	andl	$15, %eax
.LVL13:
	.loc 1 407 0
	subl	$12, %esp
	.loc 1 405 0
	sall	$2, %eax
	movw	%ax, -26(%ebp)
.LVL14:
	.loc 1 407 0
	movzwl	2(%edi), %eax
.LVL15:
	pushl	%eax
	call	lwip_htons
.LVL16:
	.loc 1 410 0
	addl	$16, %esp
	cmpw	8(%ebx), %ax
	jnb	.L25
	.loc 1 411 0
	pushl	%edx
	pushl	%edx
	movzwl	%ax, %edx
	pushl	%edx
	pushl	%ebx
	movl	%eax, -32(%ebp)
	call	pbuf_realloc
.LVL17:
	movl	-32(%ebp), %eax
	addl	$16, %esp
.L25:
	.loc 1 415 0
	movw	-26(%ebp), %cx
	cmpw	10(%ebx), %cx
	ja	.L27
	.loc 1 415 0 is_stmt 0 discriminator 1
	cmpw	8(%ebx), %ax
	ja	.L27
	cmpw	$19, %cx
	jbe	.L27
	.loc 1 441 0 is_stmt 1
	pushl	%eax
	pushl	%eax
	movzwl	%cx, %eax
	pushl	%eax
	pushl	%edi
	call	inet_chksum
.LVL18:
	addl	$16, %esp
	testw	%ax, %ax
	jne	.L27
	.loc 1 456 0
	movl	16(%edi), %eax
	.loc 1 457 0
	movl	12(%edi), %edx
	.loc 1 456 0
	movl	%eax, ip_data+20
	.loc 1 460 0
	andl	$240, %eax
	.loc 1 457 0
	movl	%edx, ip_data+16
	.loc 1 460 0
	cmpl	$224, %eax
	jne	.L29
	.loc 1 462 0
	testb	$32, 61(%esi)
	je	.L30
	.loc 1 462 0 is_stmt 0 discriminator 1
	pushl	%eax
	pushl	%eax
	pushl	$ip_data+20
	pushl	%esi
	call	igmp_lookfor_group
.LVL19:
	addl	$16, %esp
	testl	%eax, %eax
	je	.L30
.LVL20:
.LBB8:
	.loc 1 466 0 is_stmt 1
	cmpl	$16777440, ip_data+20
	movl	%esi, %edx
	jne	.L32
.LVL21:
.LBE8:
	.loc 1 559 0 discriminator 1
	cmpl	$0, ip_data+16
	je	.L33
	.loc 1 559 0 is_stmt 0
	movl	%esi, %edx
	jmp	.L32
.LVL22:
.L29:
	movl	%esi, %edx
	movl	$1, -32(%ebp)
.L40:
.LVL23:
.LBB9:
	.loc 1 495 0 is_stmt 1
	testb	$1, 61(%edx)
	jne	.L34
.LVL24:
.L37:
	.loc 1 520 0
	cmpl	$0, -32(%ebp)
	je	.L81
.LVL25:
	.loc 1 522 0
	movl	netif_list, %edx
.LVL26:
	jmp	.L38
.LVL27:
.L34:
	.loc 1 495 0 discriminator 1
	movl	4(%edx), %ecx
	testl	%ecx, %ecx
	je	.L37
	.loc 1 497 0
	movl	ip_data+20, %eax
	cmpl	%eax, %ecx
	je	.L32
	.loc 1 499 0 discriminator 1
	pushl	%ecx
	pushl	%ecx
	pushl	%edx
	pushl	%eax
	movl	%edx, -36(%ebp)
	call	ip4_addr_isbroadcast_u32
.LVL28:
	.loc 1 497 0 discriminator 1
	addl	$16, %esp
	testb	%al, %al
	movl	-36(%ebp), %edx
	je	.L37
	jmp	.L32
.LVL29:
.L81:
	.loc 1 524 0
	movl	(%edx), %edx
.LVL30:
.L38:
	.loc 1 526 0
	cmpl	%esi, %edx
	jne	.L39
	.loc 1 527 0
	movl	(%edx), %edx
.LVL31:
.L39:
	.loc 1 529 0
	testl	%edx, %edx
	movl	$0, -32(%ebp)
	jne	.L40
.LVL32:
.L30:
.LBE9:
	.loc 1 544 0
	cmpb	$17, 9(%edi)
	je	.L50
.L79:
.LBB10:
	xorl	%edx, %edx
.LVL33:
.L32:
.LBE10:
	.loc 1 562 0
	movl	ip_data+16, %eax
	testl	%eax, %eax
	je	.L41
	movl	%edx, -32(%ebp)
	.loc 1 567 0
	pushl	%edx
	pushl	%edx
	pushl	%esi
	pushl	%eax
	call	ip4_addr_isbroadcast_u32
.LVL34:
	addl	$16, %esp
	testb	%al, %al
	jne	.L27
	.loc 1 567 0 is_stmt 0 discriminator 1
	movl	ip_data+16, %eax
	movl	-32(%ebp), %edx
	andl	$240, %eax
	cmpl	$224, %eax
	jne	.L41
	jmp	.L27
.LVL35:
.L50:
.LBB11:
	.loc 1 548 0 is_stmt 1
	movzwl	-26(%ebp), %eax
	cmpw	$17408, 2(%edi,%eax)
	jne	.L79
	movl	%esi, %edx
.LVL36:
.L41:
.LBE11:
	.loc 1 581 0
	testl	%edx, %edx
	je	.L27
.L33:
	.loc 1 599 0
	testw	$-193, 6(%edi)
	jne	.L27
	.loc 1 645 0
	movl	%edx, ip_data
	.loc 1 646 0
	movl	%esi, ip_data+4
	.loc 1 647 0
	movl	%edi, ip_data+8
	movb	(%edi), %al
	.loc 1 645 0
	movl	%edx, -32(%ebp)
	.loc 1 648 0
	andl	$15, %eax
	sall	$2, %eax
	movw	%ax, ip_data+12
	.loc 1 652 0
	pushl	%eax
	pushl	%eax
	pushl	%esi
	pushl	%ebx
	call	raw_input
.LVL37:
	addl	$16, %esp
	testb	%al, %al
	jne	.L42
	.loc 1 655 0
	pushl	%eax
	pushl	%eax
	movw	-26(%ebp), %ax
	negl	%eax
	cwtl
	pushl	%eax
	pushl	%ebx
	call	pbuf_header
.LVL38:
	.loc 1 657 0
	movb	9(%edi), %al
	addl	$16, %esp
	cmpb	$2, %al
	je	.L44
	movl	-32(%ebp), %edx
	ja	.L45
	decb	%al
	jne	.L43
	.loc 1 676 0
	pushl	%eax
	pushl	%eax
	pushl	%esi
	pushl	%ebx
	call	icmp_input
.LVL39:
	jmp	.L80
.L45:
	.loc 1 657 0
	cmpb	$6, %al
	je	.L47
	cmpb	$17, %al
	jne	.L43
	.loc 1 664 0
	pushl	%eax
	pushl	%eax
	pushl	%esi
	pushl	%ebx
	call	udp_input
.LVL40:
	jmp	.L80
.L47:
	.loc 1 670 0
	pushl	%eax
	pushl	%eax
	pushl	%esi
	pushl	%ebx
	call	tcp_input
.LVL41:
	jmp	.L80
.L44:
.LVL42:
	.loc 1 681 0
	pushl	%edi
	pushl	$ip_data+20
	pushl	%esi
	pushl	%ebx
	call	igmp_input
.LVL43:
	jmp	.L80
.LVL44:
.L43:
	.loc 1 687 0
	pushl	%esi
	pushl	%esi
	pushl	%edx
	pushl	ip_data+20
	call	ip4_addr_isbroadcast_u32
.LVL45:
	addl	$16, %esp
	testb	%al, %al
	jne	.L49
	.loc 1 687 0 is_stmt 0 discriminator 1
	movl	ip_data+20, %eax
	andl	$240, %eax
	cmpl	$224, %eax
	je	.L49
	.loc 1 689 0 is_stmt 1
	pushl	%eax
	pushl	%eax
	movzwl	-26(%ebp), %eax
	pushl	%eax
	pushl	%ebx
	call	pbuf_header_force
.LVL46:
	.loc 1 690 0
	movl	%edi, 4(%ebx)
	.loc 1 691 0
	popl	%edx
	popl	%ecx
	pushl	$2
	pushl	%ebx
	call	icmp_dest_unreach
.LVL47:
	addl	$16, %esp
.L49:
	.loc 1 694 0
	subl	$12, %esp
	pushl	%ebx
	call	pbuf_free
.LVL48:
.L80:
	addl	$16, %esp
.L42:
	.loc 1 705 0
	movl	$0, ip_data
	.loc 1 706 0
	movl	$0, ip_data+4
	.loc 1 707 0
	movl	$0, ip_data+8
	.loc 1 708 0
	movw	$0, ip_data+12
	.loc 1 709 0
	movl	$0, ip_data+16
	.loc 1 710 0
	movl	$0, ip_data+20
.LVL49:
.L76:
	.loc 1 713 0
	leal	-12(%ebp), %esp
	xorl	%eax, %eax
	popl	%ebx
	.cfi_restore 3
	popl	%esi
	.cfi_restore 6
	popl	%edi
	.cfi_restore 7
	popl	%ebp
	.cfi_restore 5
	.cfi_def_cfa 4, 4
	ret
	.cfi_endproc
.LFE25:
	.size	ip4_input, .-ip4_input
	.section	.text.unlikely.ip4_input
.LCOLDE2:
	.section	.text.ip4_input
.LHOTE2:
	.section	.text.unlikely.ip4_output_if_opt_src,"ax",@progbits
.LCOLDB3:
	.section	.text.ip4_output_if_opt_src,"ax",@progbits
.LHOTB3:
	.globl	ip4_output_if_opt_src
	.type	ip4_output_if_opt_src, @function
ip4_output_if_opt_src:
.LFB29:
	.loc 1 797 0
	.cfi_startproc
.LVL50:
	pushl	%ebp
	.cfi_def_cfa_offset 8
	.cfi_offset 5, -8
	movl	%esp, %ebp
	.cfi_def_cfa_register 5
	pushl	%edi
	pushl	%esi
	pushl	%ebx
	subl	$76, %esp
	.cfi_offset 7, -12
	.cfi_offset 6, -16
	.cfi_offset 3, -20
	.loc 1 797 0
	movl	8(%ebp), %eax
	movl	36(%ebp), %esi
	movl	40(%ebp), %ebx
	movl	%eax, -44(%ebp)
	movl	12(%ebp), %eax
	movl	%eax, -64(%ebp)
	movl	16(%ebp), %eax
	movl	%eax, -52(%ebp)
	movl	20(%ebp), %eax
	movl	%eax, -68(%ebp)
	movl	24(%ebp), %eax
	movl	%eax, -72(%ebp)
	movl	28(%ebp), %eax
	movl	%eax, -76(%ebp)
	movl	32(%ebp), %eax
	movl	%eax, -56(%ebp)
	movl	%gs:20, %eax
	movl	%eax, -28(%ebp)
	xorl	%eax, %eax
.LVL51:
	.loc 1 810 0
	cmpl	$0, -52(%ebp)
	je	.L83
.LVL52:
.LBB12:
	.loc 1 814 0
	testw	%bx, %bx
	je	.L97
.LBB13:
	.loc 1 819 0
	leal	3(%ebx), %eax
	.loc 1 822 0
	pushl	%edi
	pushl	%edi
	.loc 1 819 0
	andl	$-4, %eax
	movw	%ax, -48(%ebp)
.LVL53:
	.loc 1 820 0
	addl	$20, %eax
.LVL54:
	movw	%ax, -60(%ebp)
.LVL55:
	.loc 1 822 0
	movswl	-48(%ebp), %eax
.LVL56:
	pushl	%eax
	pushl	-44(%ebp)
	call	pbuf_header
.LVL57:
	addl	$16, %esp
	testb	%al, %al
	movb	%al, %dl
	je	.L85
.LVL58:
.L90:
	.loc 1 826 0
	movb	$-2, %al
	jmp	.L86
.LVL59:
.L85:
	.loc 1 829 0
	cmpw	-48(%ebp), %bx
	.loc 1 828 0
	movl	-44(%ebp), %edi
	movzwl	%bx, %eax
	movl	%eax, %ecx
	movl	4(%edi), %edi
	rep movsb
	.loc 1 829 0
	jnb	.L87
	.loc 1 831 0
	movzwl	-48(%ebp), %ecx
	movl	-44(%ebp), %esi
	subl	%eax, %ecx
	addl	4(%esi), %eax
	movl	%eax, %edi
	movb	%dl, %al
	rep stosb
.L87:
.LVL60:
	.loc 1 834 0
	movl	-48(%ebp), %eax
	xorl	%edx, %edx
.LBE13:
.LBE12:
	.loc 1 802 0
	xorl	%edi, %edi
.LBB15:
.LBB14:
	.loc 1 834 0
	shrw	%ax
	movzwl	%ax, %eax
.LVL61:
.L88:
	.loc 1 834 0 is_stmt 0 discriminator 1
	cmpl	%eax, %edx
	jge	.L84
	.loc 1 835 0 is_stmt 1 discriminator 3
	movl	-44(%ebp), %esi
	movl	4(%esi), %ecx
	movzwl	(%ecx,%edx,2), %ecx
	.loc 1 834 0 discriminator 3
	incl	%edx
.LVL62:
	.loc 1 835 0 discriminator 3
	addl	%ecx, %edi
.LVL63:
	jmp	.L88
.LVL64:
.L97:
.LBE14:
	.loc 1 811 0
	movw	$20, -60(%ebp)
.LBE15:
	.loc 1 802 0
	xorl	%edi, %edi
.LVL65:
.L84:
.LBB16:
	.loc 1 841 0
	pushl	%ebx
	pushl	%ebx
	pushl	$20
	pushl	-44(%ebp)
	call	pbuf_header
.LVL66:
	addl	$16, %esp
	testb	%al, %al
	jne	.L90
	.loc 1 849 0
	movl	-44(%ebp), %eax
	.loc 1 854 0
	movzbl	-76(%ebp), %edx
	.loc 1 871 0
	subl	$12, %esp
	.loc 1 856 0
	movzbl	-68(%ebp), %ecx
	.loc 1 849 0
	movl	4(%eax), %ebx
.LVL67:
	.loc 1 853 0
	movb	-68(%ebp), %al
	movb	%al, 8(%ebx)
	.loc 1 860 0
	movl	-52(%ebp), %eax
	.loc 1 854 0
	movb	%dl, 9(%ebx)
	.loc 1 856 0
	sall	$8, %edx
	orl	%ecx, %edx
	.loc 1 860 0
	movl	(%eax), %ecx
	.loc 1 856 0
	movl	%edx, -48(%ebp)
.LVL68:
	.loc 1 867 0
	movzbl	-72(%ebp), %edx
.LVL69:
	.loc 1 860 0
	movl	%ecx, 16(%ebx)
.LVL70:
	movzwl	%cx, %eax
	shrl	$16, %ecx
.LVL71:
	addl	%ecx, %eax
	.loc 1 866 0
	movl	-60(%ebp), %ecx
	movl	%eax, -68(%ebp)
.LVL72:
	.loc 1 871 0
	movl	-44(%ebp), %eax
	.loc 1 867 0
	movb	%dl, 1(%ebx)
.LVL73:
	.loc 1 869 0
	sall	$8, %edx
	.loc 1 866 0
	shrw	$2, %cx
	orl	$64, %ecx
	movb	%cl, (%ebx)
	.loc 1 871 0
	movzwl	8(%eax), %eax
	.loc 1 869 0
	movzbl	%cl, %ecx
	orl	%ecx, %edx
	movl	%edx, -60(%ebp)
.LVL74:
	.loc 1 871 0
	pushl	%eax
	call	lwip_htons
.LVL75:
	movw	%ax, 2(%ebx)
	.loc 1 873 0
	movzwl	%ax, %esi
	.loc 1 876 0
	movzwl	ip_id, %eax
	.loc 1 875 0
	movw	$0, 6(%ebx)
	.loc 1 876 0
	movl	%eax, (%esp)
	call	lwip_htons
.LVL76:
	.loc 1 880 0
	incw	ip_id
	.loc 1 882 0
	addl	$16, %esp
	cmpl	$0, -64(%ebp)
	.loc 1 876 0
	movw	%ax, 4(%ebx)
	.loc 1 883 0
	movl	ip_addr_any, %edx
	.loc 1 878 0
	movzwl	%ax, %eax
	.loc 1 882 0
	je	.L102
	.loc 1 886 0
	movl	-64(%ebp), %ecx
	movl	(%ecx), %edx
.L102:
	movl	%edx, 12(%ebx)
	.loc 1 890 0
	movl	12(%ebx), %edx
	movzwl	%dx, %ecx
	addl	-68(%ebp), %ecx
	shrl	$16, %edx
	addl	%ecx, %edx
	addl	-48(%ebp), %edx
	addl	%edi, %edx
	addl	-60(%ebp), %edx
	addl	%edx, %esi
	.loc 1 891 0
	addl	%esi, %eax
.LVL77:
	.loc 1 892 0
	movl	%eax, %esi
	movzwl	%ax, %eax
.LVL78:
	shrl	$16, %esi
.LVL79:
	addl	%esi, %eax
.LVL80:
	.loc 1 893 0
	movl	%eax, %edx
	shrl	$16, %edx
	addl	%edx, %eax
.LVL81:
	.loc 1 896 0
	notl	%eax
.LVL82:
	movw	%ax, 10(%ebx)
.LBE16:
	jmp	.L93
.LVL83:
.L83:
	.loc 1 914 0
	movl	-44(%ebp), %eax
	movl	4(%eax), %eax
	movl	16(%eax), %eax
	movl	%eax, -32(%ebp)
.LVL84:
	.loc 1 915 0
	leal	-32(%ebp), %eax
.LVL85:
	movl	%eax, -52(%ebp)
.LVL86:
.L93:
	.loc 1 924 0
	movl	-52(%ebp), %eax
	movl	-56(%ebp), %edi
	movl	4(%edi), %esi
	cmpl	%esi, (%eax)
	jne	.L94
	.loc 1 931 0
	pushl	%ecx
	pushl	%ecx
	pushl	-44(%ebp)
	pushl	%edi
	call	netif_loop_output
.LVL87:
	jmp	.L103
.LVL88:
.L94:
	.loc 1 934 0
	movl	-44(%ebp), %eax
.LVL89:
	testb	$4, 13(%eax)
	je	.L95
	.loc 1 935 0
	pushl	%edx
	pushl	%edx
	pushl	%eax
	pushl	-56(%ebp)
	call	netif_loop_output
.LVL90:
	addl	$16, %esp
.L95:
	.loc 1 947 0
	pushl	%eax
	movl	-56(%ebp), %eax
	pushl	-52(%ebp)
	pushl	-44(%ebp)
	pushl	-56(%ebp)
	call	*20(%eax)
.LVL91:
.L103:
	addl	$16, %esp
.LVL92:
.L86:
	.loc 1 948 0
	movl	-28(%ebp), %edi
	xorl	%gs:20, %edi
	je	.L96
	call	__stack_chk_fail
.LVL93:
.L96:
	leal	-12(%ebp), %esp
	popl	%ebx
	.cfi_restore 3
	popl	%esi
	.cfi_restore 6
	popl	%edi
	.cfi_restore 7
	popl	%ebp
	.cfi_restore 5
	.cfi_def_cfa 4, 4
	ret
	.cfi_endproc
.LFE29:
	.size	ip4_output_if_opt_src, .-ip4_output_if_opt_src
	.section	.text.unlikely.ip4_output_if_opt_src
.LCOLDE3:
	.section	.text.ip4_output_if_opt_src
.LHOTE3:
	.section	.text.unlikely.ip4_output_if_opt,"ax",@progbits
.LCOLDB4:
	.section	.text.ip4_output_if_opt,"ax",@progbits
.LHOTB4:
	.globl	ip4_output_if_opt
	.type	ip4_output_if_opt, @function
ip4_output_if_opt:
.LFB27:
	.loc 1 759 0
	.cfi_startproc
.LVL94:
	pushl	%ebp
	.cfi_def_cfa_offset 8
	.cfi_offset 5, -8
	movl	%esp, %ebp
	.cfi_def_cfa_register 5
	pushl	%edi
	pushl	%esi
	pushl	%ebx
	subl	$28, %esp
	.cfi_offset 7, -12
	.cfi_offset 6, -16
	.cfi_offset 3, -20
	.loc 1 759 0
	movl	20(%ebp), %edi
	movl	16(%ebp), %ecx
	movl	24(%ebp), %ebx
	movl	8(%ebp), %esi
	movl	12(%ebp), %eax
.LVL95:
	movl	40(%ebp), %edx
	movl	%edi, -28(%ebp)
	movl	28(%ebp), %edi
	.loc 1 762 0
	testl	%ecx, %ecx
	.loc 1 759 0
	movl	%ebx, -32(%ebp)
	movl	32(%ebp), %ebx
	movl	%edi, -36(%ebp)
	movl	36(%ebp), %edi
	.loc 1 762 0
	je	.L105
	.loc 1 763 0
	testl	%eax, %eax
	je	.L106
	.loc 1 763 0 discriminator 1
	cmpl	$0, (%eax)
	jne	.L105
.L106:
	.loc 1 764 0
	leal	4(%ebx), %eax
.LVL96:
.L105:
	.loc 1 769 0
	movzwl	%dx, %edx
	movl	%edi, 36(%ebp)
.LVL97:
	movl	%ebx, 32(%ebp)
.LVL98:
	movl	%edx, 40(%ebp)
.LVL99:
	movzbl	-36(%ebp), %edx
	movl	%esi, 8(%ebp)
.LVL100:
	movl	%ecx, 16(%ebp)
.LVL101:
	movl	%eax, 12(%ebp)
.LVL102:
	movl	%edx, 28(%ebp)
.LVL103:
	movzbl	-32(%ebp), %edx
	movl	%edx, 24(%ebp)
.LVL104:
	movzbl	-28(%ebp), %edx
	movl	%edx, 20(%ebp)
.LVL105:
	.loc 1 774 0
	addl	$28, %esp
	popl	%ebx
	.cfi_restore 3
	popl	%esi
	.cfi_restore 6
	popl	%edi
	.cfi_restore 7
	popl	%ebp
	.cfi_restore 5
	.cfi_def_cfa 4, 4
	.loc 1 769 0
	jmp	ip4_output_if_opt_src
.LVL106:
	.cfi_endproc
.LFE27:
	.size	ip4_output_if_opt, .-ip4_output_if_opt
	.section	.text.unlikely.ip4_output_if_opt
.LCOLDE4:
	.section	.text.ip4_output_if_opt
.LHOTE4:
	.section	.text.unlikely.ip4_output_if,"ax",@progbits
.LCOLDB5:
	.section	.text.ip4_output_if,"ax",@progbits
.LHOTB5:
	.globl	ip4_output_if
	.type	ip4_output_if, @function
ip4_output_if:
.LFB26:
	.loc 1 744 0
	.cfi_startproc
.LVL107:
	pushl	%ebp
	.cfi_def_cfa_offset 8
	.cfi_offset 5, -8
	movl	%esp, %ebp
	.cfi_def_cfa_register 5
	subl	$20, %esp
	.loc 1 746 0
	movzbl	28(%ebp), %eax
	pushl	$0
	pushl	$0
	pushl	32(%ebp)
	pushl	%eax
	movzbl	24(%ebp), %eax
	pushl	%eax
	movzbl	20(%ebp), %eax
	pushl	%eax
	pushl	16(%ebp)
	pushl	12(%ebp)
	pushl	8(%ebp)
	call	ip4_output_if_opt
.LVL108:
	.loc 1 747 0
	leave
	.cfi_restore 5
	.cfi_def_cfa 4, 4
	ret
	.cfi_endproc
.LFE26:
	.size	ip4_output_if, .-ip4_output_if
	.section	.text.unlikely.ip4_output_if
.LCOLDE5:
	.section	.text.ip4_output_if
.LHOTE5:
	.section	.text.unlikely.ip4_output_if_src,"ax",@progbits
.LCOLDB6:
	.section	.text.ip4_output_if_src,"ax",@progbits
.LHOTB6:
	.globl	ip4_output_if_src
	.type	ip4_output_if_src, @function
ip4_output_if_src:
.LFB28:
	.loc 1 784 0
	.cfi_startproc
.LVL109:
	pushl	%ebp
	.cfi_def_cfa_offset 8
	.cfi_offset 5, -8
	movl	%esp, %ebp
	.cfi_def_cfa_register 5
	subl	$20, %esp
	.loc 1 786 0
	movzbl	28(%ebp), %eax
	pushl	$0
	pushl	$0
	pushl	32(%ebp)
	pushl	%eax
	movzbl	24(%ebp), %eax
	pushl	%eax
	movzbl	20(%ebp), %eax
	pushl	%eax
	pushl	16(%ebp)
	pushl	12(%ebp)
	pushl	8(%ebp)
	call	ip4_output_if_opt_src
.LVL110:
	.loc 1 787 0
	leave
	.cfi_restore 5
	.cfi_def_cfa 4, 4
	ret
	.cfi_endproc
.LFE28:
	.size	ip4_output_if_src, .-ip4_output_if_src
	.section	.text.unlikely.ip4_output_if_src
.LCOLDE6:
	.section	.text.ip4_output_if_src
.LHOTE6:
	.section	.text.unlikely.ip4_output,"ax",@progbits
.LCOLDB7:
	.section	.text.ip4_output,"ax",@progbits
.LHOTB7:
	.globl	ip4_output
	.type	ip4_output, @function
ip4_output:
.LFB30:
	.loc 1 970 0
	.cfi_startproc
.LVL111:
	pushl	%ebp
	.cfi_def_cfa_offset 8
	.cfi_offset 5, -8
	movl	%esp, %ebp
	.cfi_def_cfa_register 5
	pushl	%edi
	pushl	%esi
	pushl	%ebx
	subl	$12, %esp
	.cfi_offset 7, -12
	.cfi_offset 6, -16
	.cfi_offset 3, -20
	.loc 1 975 0
	pushl	16(%ebp)
	.loc 1 970 0
	movl	20(%ebp), %ebx
	movl	24(%ebp), %esi
	movl	28(%ebp), %edi
	.loc 1 975 0
	call	ip4_route
.LVL112:
	popl	%edx
	movl	%eax, %edx
.LVL113:
	movb	$-4, %al
.LVL114:
	testl	%edx, %edx
	je	.L119
	.loc 1 982 0
	pushl	%eax
	movl	%edi, %eax
	movzbl	%bl, %ebx
	movzbl	%al, %edi
	movl	%esi, %eax
	pushl	%edx
	movzbl	%al, %esi
	pushl	%edi
	pushl	%esi
	pushl	%ebx
	pushl	16(%ebp)
	pushl	12(%ebp)
	pushl	8(%ebp)
	call	ip4_output_if
.LVL115:
	addl	$32, %esp
.L119:
	.loc 1 983 0
	leal	-12(%ebp), %esp
	popl	%ebx
	.cfi_restore 3
	popl	%esi
	.cfi_restore 6
	popl	%edi
	.cfi_restore 7
	popl	%ebp
	.cfi_restore 5
	.cfi_def_cfa 4, 4
	ret
	.cfi_endproc
.LFE30:
	.size	ip4_output, .-ip4_output
	.section	.text.unlikely.ip4_output
.LCOLDE7:
	.section	.text.ip4_output
.LHOTE7:
	.section	.bss.ip4_default_multicast_netif,"aw",@nobits
	.align 4
	.type	ip4_default_multicast_netif, @object
	.size	ip4_default_multicast_netif, 4
ip4_default_multicast_netif:
	.zero	4
	.section	.bss.ip_id,"aw",@nobits
	.align 2
	.type	ip_id, @object
	.size	ip_id, 2
ip_id:
	.zero	2
	.text
.Letext0:
	.section	.text.unlikely.ip4_set_default_multicast_netif
.Letext_cold0:
	.file 2 "././platform/mcu/moc108/include/lwip-2.0.2/arch/cc.h"
	.file 3 "./kernel/protocols/net/include/lwip/err.h"
	.file 4 "./kernel/protocols/net/include/lwip/pbuf.h"
	.file 5 "./kernel/protocols/net/include/lwip/ip4_addr.h"
	.file 6 "./kernel/protocols/net/include/lwip/ip_addr.h"
	.file 7 "./kernel/protocols/net/include/lwip/memp.h"
	.file 8 "./kernel/protocols/net/include/lwip/netif.h"
	.file 9 "./kernel/protocols/net/include/lwip/prot/ip4.h"
	.file 10 "./kernel/protocols/net/include/lwip/ip.h"
	.file 11 "./kernel/protocols/net/include/lwip/icmp.h"
	.file 12 "./kernel/protocols/net/include/lwip/prot/udp.h"
	.file 13 "./include/aos/log.h"
	.file 14 "./kernel/protocols/net/include/lwip/def.h"
	.file 15 "./kernel/protocols/net/include/lwip/inet_chksum.h"
	.file 16 "./kernel/protocols/net/include/lwip/igmp.h"
	.file 17 "./kernel/protocols/net/include/lwip/raw.h"
	.file 18 "./kernel/protocols/net/include/lwip/udp.h"
	.file 19 "./kernel/protocols/net/include/lwip/priv/tcp_priv.h"
	.section	.note.GNU-stack,"",@progbits
