	.file	"ip4_addr.c"
	.text
.Ltext0:
	.section	.text.unlikely.ip4_addr_isbroadcast_u32,"ax",@progbits
.LCOLDB0:
	.section	.text.ip4_addr_isbroadcast_u32,"ax",@progbits
.LHOTB0:
	.section	.text.unlikely.ip4_addr_isbroadcast_u32
.Ltext_cold0:
	.section	.text.ip4_addr_isbroadcast_u32
	.globl	ip4_addr_isbroadcast_u32
	.type	ip4_addr_isbroadcast_u32, @function
ip4_addr_isbroadcast_u32:
.LFB23:
	.file 1 "kernel/protocols/net/core/ipv4/ip4_addr.c"
	.loc 1 59 0
	.cfi_startproc
.LVL0:
	pushl	%ebp
	.cfi_def_cfa_offset 8
	.cfi_offset 5, -8
	.loc 1 66 0
	movb	$1, %al
	.loc 1 59 0
	movl	%esp, %ebp
	.cfi_def_cfa_register 5
	pushl	%ebx
	.cfi_offset 3, -12
	.loc 1 59 0
	movl	8(%ebp), %edx
.LVL1:
	movl	12(%ebp), %ecx
	.loc 1 64 0
	leal	-1(%edx), %ebx
	cmpl	$-3, %ebx
	ja	.L2
	.loc 1 68 0
	movb	61(%ecx), %al
	andb	$2, %al
	je	.L2
	.loc 1 73 0
	movl	4(%ecx), %ebx
	.loc 1 83 0
	xorl	%eax, %eax
	.loc 1 73 0
	cmpl	%ebx, %edx
	je	.L2
	.loc 1 76 0
	movl	8(%ecx), %ecx
	xorl	%edx, %ebx
	testl	%ecx, %ebx
	jne	.L2
	.loc 1 78 0
	movl	%ecx, %eax
	notl	%eax
	.loc 1 66 0
	andl	%eax, %edx
	cmpl	%eax, %edx
	sete	%al
.L2:
.LVL2:
	.loc 1 85 0
	popl	%ebx
	.cfi_restore 3
	popl	%ebp
	.cfi_restore 5
	.cfi_def_cfa 4, 4
	ret
	.cfi_endproc
.LFE23:
	.size	ip4_addr_isbroadcast_u32, .-ip4_addr_isbroadcast_u32
	.section	.text.unlikely.ip4_addr_isbroadcast_u32
.LCOLDE0:
	.section	.text.ip4_addr_isbroadcast_u32
.LHOTE0:
	.section	.text.unlikely.ip4_addr_netmask_valid,"ax",@progbits
.LCOLDB1:
	.section	.text.ip4_addr_netmask_valid,"ax",@progbits
.LHOTB1:
	.globl	ip4_addr_netmask_valid
	.type	ip4_addr_netmask_valid, @function
ip4_addr_netmask_valid:
.LFB24:
	.loc 1 94 0
	.cfi_startproc
.LVL3:
	pushl	%ebp
	.cfi_def_cfa_offset 8
	.cfi_offset 5, -8
	movl	%esp, %ebp
	.cfi_def_cfa_register 5
	subl	$20, %esp
	.loc 1 96 0
	pushl	8(%ebp)
	call	lwip_htonl
.LVL4:
	addl	$16, %esp
	movl	$32, %ecx
	.loc 1 99 0
	movl	$-2147483648, %edx
.LVL5:
.L14:
	.loc 1 100 0
	testl	%edx, %eax
	je	.L13
	.loc 1 99 0 discriminator 2
	shrl	%edx
.LVL6:
	decl	%ecx
	jne	.L14
	jmp	.L20
.L16:
	.loc 1 106 0
	testl	%eax, %edx
	jne	.L17
	.loc 1 105 0
	shrl	%edx
.LVL7:
.L13:
	.loc 1 105 0 is_stmt 0 discriminator 1
	testl	%edx, %edx
	jne	.L16
.L20:
	.loc 1 112 0 is_stmt 1
	movb	$1, %al
.LVL8:
	jmp	.L15
.LVL9:
.L17:
	.loc 1 108 0
	xorl	%eax, %eax
.LVL10:
.L15:
	.loc 1 113 0
	leave
	.cfi_restore 5
	.cfi_def_cfa 4, 4
	ret
	.cfi_endproc
.LFE24:
	.size	ip4_addr_netmask_valid, .-ip4_addr_netmask_valid
	.section	.text.unlikely.ip4_addr_netmask_valid
.LCOLDE1:
	.section	.text.ip4_addr_netmask_valid
.LHOTE1:
	.section	.text.unlikely.ip4addr_aton,"ax",@progbits
.LCOLDB2:
	.section	.text.ip4addr_aton,"ax",@progbits
.LHOTB2:
	.globl	ip4addr_aton
	.type	ip4addr_aton, @function
ip4addr_aton:
.LFB26:
	.loc 1 156 0
	.cfi_startproc
.LVL11:
	pushl	%ebp
	.cfi_def_cfa_offset 8
	.cfi_offset 5, -8
	movl	%esp, %ebp
	.cfi_def_cfa_register 5
	pushl	%edi
	pushl	%esi
	pushl	%ebx
	.cfi_offset 7, -12
	.cfi_offset 6, -16
	.cfi_offset 3, -20
	.loc 1 161 0
	leal	-44(%ebp), %esi
	.loc 1 156 0
	subl	$60, %esp
	.loc 1 156 0
	movl	8(%ebp), %ecx
	movl	12(%ebp), %edi
	movl	%gs:20, %eax
	movl	%eax, -28(%ebp)
	xorl	%eax, %eax
.LVL12:
	.loc 1 163 0
	movsbl	(%ecx), %eax
.LVL13:
.L31:
	.loc 1 170 0
	leal	-48(%eax), %edx
	cmpb	$9, %dl
	ja	.L42
.LVL14:
	.loc 1 175 0
	cmpb	$48, %al
	.loc 1 174 0
	movb	$10, -57(%ebp)
	.loc 1 175 0
	jne	.L23
.LVL15:
	.loc 1 176 0
	movsbl	1(%ecx), %eax
.LVL16:
	.loc 1 177 0
	movb	%al, %dl
	andl	$-33, %edx
	cmpb	$88, %dl
	je	.L24
	.loc 1 176 0
	incl	%ecx
.LVL17:
	.loc 1 181 0
	movb	$8, -57(%ebp)
	jmp	.L23
.LVL18:
.L24:
	.loc 1 179 0
	movsbl	2(%ecx), %eax
.LVL19:
	.loc 1 178 0
	movb	$16, -57(%ebp)
	.loc 1 179 0
	addl	$2, %ecx
.LVL20:
.L23:
	.loc 1 186 0
	movzbl	-57(%ebp), %ebx
	incl	%ecx
.LVL21:
	.loc 1 178 0
	xorl	%edx, %edx
	.loc 1 186 0
	movl	%ebx, -68(%ebp)
.LVL22:
.L25:
	leal	-1(%ecx), %ebx
	movl	%ebx, -64(%ebp)
.LVL23:
	.loc 1 185 0
	leal	-48(%eax), %ebx
.LVL24:
	cmpb	$9, %bl
	ja	.L26
	.loc 1 186 0
	imull	-68(%ebp), %edx
.LVL25:
	leal	-48(%edx,%eax), %edx
.LVL26:
	jmp	.L61
.LVL27:
.L26:
	.loc 1 188 0
	cmpb	$16, -57(%ebp)
	jne	.L28
	.loc 1 188 0 is_stmt 0 discriminator 1
	leal	-97(%eax), %ebx
	movb	%bl, -58(%ebp)
	movb	%al, %bl
	andl	$-33, %ebx
	subl	$65, %ebx
	cmpb	$5, %bl
	ja	.L28
	.loc 1 189 0 is_stmt 1
	sall	$4, %edx
.LVL28:
	addl	$10, %eax
.LVL29:
	cmpb	$26, -58(%ebp)
	sbbl	%ebx, %ebx
	andl	$32, %ebx
	addl	$65, %ebx
	subl	%ebx, %eax
.LVL30:
	orl	%eax, %edx
.LVL31:
.L61:
	.loc 1 190 0
	movsbl	(%ecx), %eax
.LVL32:
	incl	%ecx
.LVL33:
	jmp	.L25
.LVL34:
.L28:
	.loc 1 195 0
	cmpb	$46, %al
	jne	.L30
	.loc 1 202 0
	leal	-32(%ebp), %eax
.LVL35:
	cmpl	%eax, %esi
	je	.L42
	.loc 1 206 0
	movl	-64(%ebp), %eax
	.loc 1 205 0
	addl	$4, %esi
.LVL36:
	movl	%edx, -4(%esi)
	.loc 1 206 0
	leal	1(%eax), %ecx
.LVL37:
	movsbl	1(%eax), %eax
.LVL38:
	.loc 1 210 0
	jmp	.L31
.LVL39:
.L30:
	.loc 1 214 0
	testb	$-33, %al
	je	.L32
	.loc 1 214 0 is_stmt 0 discriminator 1
	leal	-9(%eax), %ecx
	.loc 1 171 0 is_stmt 1 discriminator 1
	xorl	%eax, %eax
.LVL40:
	.loc 1 214 0 discriminator 1
	cmpb	$4, %cl
	ja	.L22
.L32:
	.loc 1 221 0
	leal	-44(%ebp), %eax
	subl	%eax, %esi
.LVL41:
	movl	%esi, %eax
	sarl	$2, %eax
	incl	%eax
	cmpl	$2, %eax
	je	.L34
	jg	.L35
	testl	%eax, %eax
	je	.L22
	jmp	.L33
.L35:
	cmpl	$3, %eax
	je	.L36
	cmpl	$4, %eax
	je	.L37
	jmp	.L33
.L34:
	.loc 1 171 0
	xorl	%eax, %eax
	.loc 1 230 0
	cmpl	$16777215, %edx
	ja	.L22
	.loc 1 233 0
	movl	-44(%ebp), %ecx
	cmpl	$255, %ecx
	ja	.L22
	.loc 1 236 0
	sall	$24, %ecx
	jmp	.L62
.L36:
	.loc 1 171 0
	xorl	%eax, %eax
	.loc 1 240 0
	cmpl	$65535, %edx
	ja	.L22
	.loc 1 243 0
	movl	-44(%ebp), %ebx
	cmpl	$255, %ebx
	ja	.L22
	.loc 1 243 0 is_stmt 0 discriminator 1
	movl	-40(%ebp), %ecx
	cmpl	$255, %ecx
	ja	.L22
	.loc 1 246 0 is_stmt 1
	sall	$24, %ebx
	sall	$16, %ecx
	jmp	.L63
.L37:
	.loc 1 171 0
	xorl	%eax, %eax
	.loc 1 250 0
	cmpl	$255, %edx
	ja	.L22
	.loc 1 253 0
	movl	-44(%ebp), %esi
	cmpl	$255, %esi
	ja	.L22
	.loc 1 253 0 is_stmt 0 discriminator 1
	movl	-40(%ebp), %ebx
	cmpl	$255, %ebx
	ja	.L22
	.loc 1 253 0 discriminator 2
	movl	-36(%ebp), %ecx
	cmpl	$255, %ecx
	ja	.L22
	.loc 1 256 0 is_stmt 1
	sall	$24, %esi
	sall	$16, %ebx
	sall	$8, %ecx
	orl	%esi, %ebx
.L63:
	orl	%ebx, %ecx
.L62:
	orl	%ecx, %edx
.LVL42:
.L33:
	.loc 1 262 0
	testl	%edi, %edi
	.loc 1 265 0
	movl	$1, %eax
	.loc 1 262 0
	je	.L22
	.loc 1 263 0
	subl	$12, %esp
	pushl	%edx
	call	lwip_htonl
.LVL43:
	addl	$16, %esp
	movl	%eax, (%edi)
	.loc 1 265 0
	movl	$1, %eax
	jmp	.L22
.LVL44:
.L42:
	.loc 1 171 0
	xorl	%eax, %eax
.LVL45:
.L22:
	.loc 1 266 0
	movl	-28(%ebp), %edi
	xorl	%gs:20, %edi
	je	.L38
	call	__stack_chk_fail
.LVL46:
.L38:
	leal	-12(%ebp), %esp
	popl	%ebx
	.cfi_restore 3
	popl	%esi
	.cfi_restore 6
	popl	%edi
	.cfi_restore 7
	popl	%ebp
	.cfi_restore 5
	.cfi_def_cfa 4, 4
	ret
	.cfi_endproc
.LFE26:
	.size	ip4addr_aton, .-ip4addr_aton
	.section	.text.unlikely.ip4addr_aton
.LCOLDE2:
	.section	.text.ip4addr_aton
.LHOTE2:
	.section	.text.unlikely.ipaddr_addr,"ax",@progbits
.LCOLDB3:
	.section	.text.ipaddr_addr,"ax",@progbits
.LHOTB3:
	.globl	ipaddr_addr
	.type	ipaddr_addr, @function
ipaddr_addr:
.LFB25:
	.loc 1 134 0
	.cfi_startproc
.LVL47:
	pushl	%ebp
	.cfi_def_cfa_offset 8
	.cfi_offset 5, -8
	movl	%esp, %ebp
	.cfi_def_cfa_register 5
	subl	$32, %esp
	.loc 1 134 0
	movl	%gs:20, %eax
	movl	%eax, -12(%ebp)
	xorl	%eax, %eax
	.loc 1 137 0
	leal	-16(%ebp), %eax
	pushl	%eax
	pushl	8(%ebp)
	call	ip4addr_aton
.LVL48:
	.loc 1 140 0
	orl	$-1, %edx
	.loc 1 137 0
	addl	$16, %esp
	.loc 1 138 0
	testl	%eax, %eax
	cmovne	-16(%ebp), %edx
	.loc 1 141 0
	movl	-12(%ebp), %ecx
	xorl	%gs:20, %ecx
	je	.L66
	call	__stack_chk_fail
.LVL49:
.L66:
	movl	%edx, %eax
	leave
	.cfi_restore 5
	.cfi_def_cfa 4, 4
	ret
	.cfi_endproc
.LFE25:
	.size	ipaddr_addr, .-ipaddr_addr
	.section	.text.unlikely.ipaddr_addr
.LCOLDE3:
	.section	.text.ipaddr_addr
.LHOTE3:
	.section	.text.unlikely.ip4addr_ntoa_r,"ax",@progbits
.LCOLDB4:
	.section	.text.ip4addr_ntoa_r,"ax",@progbits
.LHOTB4:
	.globl	ip4addr_ntoa_r
	.type	ip4addr_ntoa_r, @function
ip4addr_ntoa_r:
.LFB28:
	.loc 1 294 0
	.cfi_startproc
.LVL50:
	pushl	%ebp
	.cfi_def_cfa_offset 8
	.cfi_offset 5, -8
	movl	%esp, %ebp
	.cfi_def_cfa_register 5
	pushl	%edi
	pushl	%esi
	pushl	%ebx
	.loc 1 307 0
	leal	-36(%ebp), %ecx
	.cfi_offset 7, -12
	.cfi_offset 6, -16
	.cfi_offset 3, -20
	.loc 1 302 0
	xorl	%edi, %edi
	.loc 1 294 0
	subl	$44, %esp
	.loc 1 294 0
	movl	12(%ebp), %eax
	movl	%eax, -48(%ebp)
	.loc 1 306 0
	movl	-48(%ebp), %esi
	.loc 1 294 0
	movl	%gs:20, %eax
	movl	%eax, -28(%ebp)
	xorl	%eax, %eax
.LVL51:
	.loc 1 304 0
	movl	8(%ebp), %eax
	movl	(%eax), %eax
	movl	%eax, -36(%ebp)
.LVL52:
.L74:
	movb	(%ecx), %al
	.loc 1 307 0
	xorl	%edx, %edx
	movb	%al, -41(%ebp)
.L70:
.LVL53:
	.loc 1 311 0 discriminator 1
	movzbl	-41(%ebp), %eax
	movb	$10, %bl
	divb	%bl
	movzbl	%ah, %ebx
.LVL54:
	.loc 1 312 0 discriminator 1
	movb	%al, -41(%ebp)
	.loc 1 313 0 discriminator 1
	leal	1(%edx), %eax
	addl	$48, %ebx
.LVL55:
	.loc 1 314 0 discriminator 1
	cmpb	$0, -41(%ebp)
	.loc 1 313 0 discriminator 1
	movb	%al, -42(%ebp)
.LVL56:
	movzbl	%dl, %eax
.LVL57:
	movb	%bl, -31(%ebp,%eax)
	.loc 1 314 0 discriminator 1
	je	.L81
	.loc 1 313 0
	movb	-42(%ebp), %dl
	jmp	.L70
.L81:
	.loc 1 314 0
	movl	%esi, %eax
	movl	%edi, %esi
.LVL58:
	movb	$0, (%ecx)
	subl	%eax, %esi
.LVL59:
.L71:
	.loc 1 315 0
	cmpb	$-1, %dl
	leal	(%eax,%esi), %ebx
.LVL60:
	je	.L82
.LVL61:
	.loc 1 316 0
	cmpl	16(%ebp), %ebx
	leal	-1(%edx), %edi
	jge	.L78
	.loc 1 319 0
	movzbl	%dl, %edx
	incl	%eax
.LVL62:
	movb	-31(%ebp,%edx), %dl
.LVL63:
	movb	%dl, -1(%eax)
	movl	%edi, %edx
	jmp	.L71
.LVL64:
.L82:
	.loc 1 321 0
	cmpl	16(%ebp), %ebx
	leal	1(%ebx), %edi
.LVL65:
	jge	.L78
	.loc 1 308 0 discriminator 2
	leal	-32(%ebp), %edx
.LVL66:
	.loc 1 325 0 discriminator 2
	incl	%ecx
.LVL67:
	.loc 1 324 0 discriminator 2
	leal	1(%eax), %esi
.LVL68:
	movb	$46, (%eax)
	.loc 1 308 0 discriminator 2
	cmpl	%edx, %ecx
	jne	.L74
.LVL69:
	.loc 1 327 0
	movb	$0, (%eax)
	.loc 1 328 0
	movl	-48(%ebp), %eax
	jmp	.L72
.LVL70:
.L78:
	.loc 1 317 0
	xorl	%eax, %eax
.LVL71:
.L72:
	.loc 1 329 0
	movl	-28(%ebp), %ecx
	xorl	%gs:20, %ecx
.LVL72:
	je	.L75
	call	__stack_chk_fail
.LVL73:
.L75:
	addl	$44, %esp
	popl	%ebx
	.cfi_restore 3
	popl	%esi
	.cfi_restore 6
	popl	%edi
	.cfi_restore 7
	popl	%ebp
	.cfi_restore 5
	.cfi_def_cfa 4, 4
	ret
	.cfi_endproc
.LFE28:
	.size	ip4addr_ntoa_r, .-ip4addr_ntoa_r
	.section	.text.unlikely.ip4addr_ntoa_r
.LCOLDE4:
	.section	.text.ip4addr_ntoa_r
.LHOTE4:
	.section	.text.unlikely.ip4addr_ntoa,"ax",@progbits
.LCOLDB5:
	.section	.text.ip4addr_ntoa,"ax",@progbits
.LHOTB5:
	.globl	ip4addr_ntoa
	.type	ip4addr_ntoa, @function
ip4addr_ntoa:
.LFB27:
	.loc 1 278 0
	.cfi_startproc
.LVL74:
	pushl	%ebp
	.cfi_def_cfa_offset 8
	.cfi_offset 5, -8
	movl	%esp, %ebp
	.cfi_def_cfa_register 5
	subl	$12, %esp
	.loc 1 280 0
	pushl	$16
	pushl	$str.3943
	pushl	8(%ebp)
	call	ip4addr_ntoa_r
.LVL75:
	.loc 1 281 0
	leave
	.cfi_restore 5
	.cfi_def_cfa 4, 4
	ret
	.cfi_endproc
.LFE27:
	.size	ip4addr_ntoa, .-ip4addr_ntoa
	.section	.text.unlikely.ip4addr_ntoa
.LCOLDE5:
	.section	.text.ip4addr_ntoa
.LHOTE5:
	.section	.bss.str.3943,"aw",@nobits
	.align 4
	.type	str.3943, @object
	.size	str.3943, 16
str.3943:
	.zero	16
	.globl	ip_addr_broadcast
	.section	.rodata.ip_addr_broadcast,"a",@progbits
	.align 4
	.type	ip_addr_broadcast, @object
	.size	ip_addr_broadcast, 4
ip_addr_broadcast:
	.long	-1
	.globl	ip_addr_any
	.section	.rodata.ip_addr_any,"a",@progbits
	.align 4
	.type	ip_addr_any, @object
	.size	ip_addr_any, 4
ip_addr_any:
	.zero	4
	.text
.Letext0:
	.section	.text.unlikely.ip4_addr_isbroadcast_u32
.Letext_cold0:
	.file 2 "././platform/mcu/moc108/include/lwip-2.0.2/arch/cc.h"
	.file 3 "./kernel/protocols/net/include/lwip/ip4_addr.h"
	.file 4 "./kernel/protocols/net/include/lwip/ip_addr.h"
	.file 5 "./kernel/protocols/net/include/lwip/err.h"
	.file 6 "./kernel/protocols/net/include/lwip/pbuf.h"
	.file 7 "./kernel/protocols/net/include/lwip/netif.h"
	.file 8 "./include/aos/log.h"
	.file 9 "./kernel/protocols/net/include/lwip/memp.h"
	.file 10 "./kernel/protocols/net/include/lwip/def.h"
	.section	.note.GNU-stack,"",@progbits
