	.file	"irq_manage.c"
	.text
.Ltext0:
	.section	.text.unlikely._arch_irq_enable,"ax",@progbits
.LCOLDB0:
	.section	.text._arch_irq_enable,"ax",@progbits
.LHOTB0:
	.section	.text.unlikely._arch_irq_enable
.Ltext_cold0:
	.section	.text._arch_irq_enable
	.globl	_arch_irq_enable
	.type	_arch_irq_enable, @function
_arch_irq_enable:
.LFB125:
	.file 1 "src/irq_manage.c"
	.loc 1 2550 0
	.cfi_startproc
.LVL0:
	pushl	%ebp
	.cfi_def_cfa_offset 8
	.cfi_offset 5, -8
.LBB4:
.LBB5:
	.loc 1 976 0
	movl	$1, %eax
.LBE5:
.LBE4:
	.loc 1 2550 0
	movl	%esp, %ebp
	.cfi_def_cfa_register 5
	.loc 1 2550 0
	movl	8(%ebp), %ecx
.LVL1:
.LBB7:
.LBB6:
	.loc 1 976 0
	movl	%ecx, %edx
	sall	%cl, %eax
	shrl	$5, %edx
	movl	%eax, -536813312(,%edx,4)
.LVL2:
.LBE6:
.LBE7:
	.loc 1 2552 0
	popl	%ebp
	.cfi_restore 5
	.cfi_def_cfa 4, 4
	ret
	.cfi_endproc
.LFE125:
	.size	_arch_irq_enable, .-_arch_irq_enable
	.section	.text.unlikely._arch_irq_enable
.LCOLDE0:
	.section	.text._arch_irq_enable
.LHOTE0:
	.section	.text.unlikely._arch_irq_disable,"ax",@progbits
.LCOLDB1:
	.section	.text._arch_irq_disable,"ax",@progbits
.LHOTB1:
	.globl	_arch_irq_disable
	.type	_arch_irq_disable, @function
_arch_irq_disable:
.LFB126:
	.loc 1 2554 0
	.cfi_startproc
.LVL3:
	pushl	%ebp
	.cfi_def_cfa_offset 8
	.cfi_offset 5, -8
.LBB10:
.LBB11:
	.loc 1 980 0
	movl	$1, %edx
.LBE11:
.LBE10:
	.loc 1 2554 0
	movl	%esp, %ebp
	.cfi_def_cfa_register 5
	.loc 1 2554 0
	movl	8(%ebp), %ecx
.LVL4:
.LBB13:
.LBB12:
	.loc 1 980 0
	movl	%ecx, %eax
	sall	%cl, %edx
	shrl	$5, %eax
	addl	$32, %eax
	movl	%edx, -536813312(,%eax,4)
.LVL5:
.LBE12:
.LBE13:
	.loc 1 2556 0
	popl	%ebp
	.cfi_restore 5
	.cfi_def_cfa 4, 4
	ret
	.cfi_endproc
.LFE126:
	.size	_arch_irq_disable, .-_arch_irq_disable
	.section	.text.unlikely._arch_irq_disable
.LCOLDE1:
	.section	.text._arch_irq_disable
.LHOTE1:
	.section	.text.unlikely._arch_irq_is_enabled,"ax",@progbits
.LCOLDB2:
	.section	.text._arch_irq_is_enabled,"ax",@progbits
.LHOTB2:
	.globl	_arch_irq_is_enabled
	.type	_arch_irq_is_enabled, @function
_arch_irq_is_enabled:
.LFB127:
	.loc 1 2558 0
	.cfi_startproc
.LVL6:
	pushl	%ebp
	.cfi_def_cfa_offset 8
	.cfi_offset 5, -8
	movl	%esp, %ebp
	.cfi_def_cfa_register 5
	.loc 1 2558 0
	movl	8(%ebp), %ecx
	.loc 1 2560 0
	popl	%ebp
	.cfi_restore 5
	.cfi_def_cfa 4, 4
	.loc 1 2559 0
	movl	%ecx, %eax
	shrl	$5, %eax
	movl	-536813312(,%eax,4), %edx
	movl	$1, %eax
	sall	%cl, %eax
	andl	%edx, %eax
	.loc 1 2560 0
	ret
	.cfi_endproc
.LFE127:
	.size	_arch_irq_is_enabled, .-_arch_irq_is_enabled
	.section	.text.unlikely._arch_irq_is_enabled
.LCOLDE2:
	.section	.text._arch_irq_is_enabled
.LHOTE2:
	.section	.text.unlikely._irq_priority_set,"ax",@progbits
.LCOLDB3:
	.section	.text._irq_priority_set,"ax",@progbits
.LHOTB3:
	.globl	_irq_priority_set
	.type	_irq_priority_set, @function
_irq_priority_set:
.LFB128:
	.loc 1 2562 0
	.cfi_startproc
.LVL7:
	pushl	%ebp
	.cfi_def_cfa_offset 8
	.cfi_offset 5, -8
	movl	%esp, %ebp
	.cfi_def_cfa_register 5
	.loc 1 2562 0
	movl	8(%ebp), %eax
	movl	12(%ebp), %edx
.LVL8:
.LBB16:
.LBB17:
	.loc 1 1000 0
	testl	%eax, %eax
	jns	.L8
	.loc 1 1002 0
	andl	$15, %eax
	sall	$5, %edx
	movb	%dl, -536810220(%eax)
.LVL9:
	jmp	.L7
.LVL10:
.L8:
	.loc 1 1006 0
	sall	$5, %edx
.LVL11:
	movb	%dl, -536812544(%eax)
.LVL12:
.L7:
.LBE17:
.LBE16:
	.loc 1 2568 0
	popl	%ebp
	.cfi_restore 5
	.cfi_def_cfa 4, 4
	ret
	.cfi_endproc
.LFE128:
	.size	_irq_priority_set, .-_irq_priority_set
	.section	.text.unlikely._irq_priority_set
.LCOLDE3:
	.section	.text._irq_priority_set
.LHOTE3:
	.section	.text.unlikely._irq_spurious,"ax",@progbits
.LCOLDB4:
	.section	.text._irq_spurious,"ax",@progbits
.LHOTB4:
	.globl	_irq_spurious
	.type	_irq_spurious, @function
_irq_spurious:
.LFB129:
	.loc 1 2570 0
	.cfi_startproc
.LVL13:
	pushl	%ebp
	.cfi_def_cfa_offset 8
	.cfi_offset 5, -8
	movl	%esp, %ebp
	.cfi_def_cfa_register 5
	.loc 1 2573 0
	popl	%ebp
	.cfi_restore 5
	.cfi_def_cfa 4, 4
	.loc 1 2572 0
	jmp	__reserved
.LVL14:
	.cfi_endproc
.LFE129:
	.size	_irq_spurious, .-_irq_spurious
	.section	.text.unlikely._irq_spurious
.LCOLDE4:
	.section	.text._irq_spurious
.LHOTE4:
	.text
.Letext0:
	.section	.text.unlikely._arch_irq_enable
.Letext_cold0:
	.section	.note.GNU-stack,"",@progbits
