	.file	"k_buf_queue.c"
	.text
.Ltext0:
	.section	.text.unlikely.buf_queue_create,"ax",@progbits
.LCOLDB0:
	.section	.text.buf_queue_create,"ax",@progbits
.LHOTB0:
	.section	.text.unlikely.buf_queue_create
.Ltext_cold0:
	.section	.text.buf_queue_create
	.type	buf_queue_create, @function
buf_queue_create:
.LFB12:
	.file 1 "kernel/rhino/core/k_buf_queue.c"
	.loc 1 11 0
	.cfi_startproc
.LVL0:
	pushl	%ebp
	.cfi_def_cfa_offset 8
	.cfi_offset 5, -8
	movl	%esp, %ebp
	.cfi_def_cfa_register 5
	pushl	%edi
	pushl	%esi
	pushl	%ebx
	.cfi_offset 7, -12
	.cfi_offset 6, -16
	.cfi_offset 3, -20
	movl	%eax, %ebx
	subl	$28, %esp
	.loc 1 16 0
	testl	%ecx, %ecx
	.loc 1 11 0
	movl	%edx, -28(%ebp)
	.loc 1 16 0
	sete	%al
.LVL1:
	cmpl	$0, -28(%ebp)
	.loc 1 11 0
	movl	12(%ebp), %edi
	.loc 1 16 0
	movb	%al, %dl
.LVL2:
	.loc 1 11 0
	movl	16(%ebp), %esi
	.loc 1 16 0
	sete	%al
	orb	%al, %dl
	jne	.L3
	testl	%ebx, %ebx
	je	.L3
	.loc 1 18 0
	testl	%edi, %edi
	.loc 1 19 0
	movl	$5, %eax
	.loc 1 18 0
	je	.L2
	.loc 1 22 0
	cmpl	$0, 8(%ebp)
	.loc 1 23 0
	movl	$701, %eax
	.loc 1 22 0
	je	.L2
	movl	-28(%ebp), %edx
.LVL3:
.LBB30:
.LBB31:
	.loc 1 35 0
	movl	%esi, %eax
	.loc 1 29 0
	movl	%ecx, 20(%ebx)
.LBB32:
.LBB33:
	.file 2 "./kernel/rhino/core/include/k_list.h"
	.loc 2 17 0
	movl	%ebx, (%ebx)
	.loc 2 18 0
	movl	%ebx, 4(%ebx)
.LVL4:
.LBE33:
.LBE32:
	.loc 1 30 0
	movl	$0, 56(%ebx)
	.loc 1 31 0
	movl	$0, 60(%ebx)
	.loc 1 33 0
	movl	%edx, 8(%ebx)
	.loc 1 32 0
	movl	%edi, 52(%ebx)
	.loc 1 34 0
	movl	$0, 12(%ebx)
	.loc 1 35 0
	movb	%al, 76(%ebx)
	.loc 1 29 0
	movl	%ecx, -28(%ebp)
.LVL5:
	.loc 1 38 0
	call	cpu_intrpt_save
.LVL6:
.LBB34:
.LBB35:
	.loc 2 28 0
	movl	g_kobj_list+52, %esi
.LBE35:
.LBE34:
	.loc 1 39 0
	leal	68(%ebx), %edx
.LVL7:
	.loc 1 40 0
	subl	$12, %esp
.LBB38:
.LBB36:
	.loc 2 29 0
	movl	$g_kobj_list+48, 68(%ebx)
.LVL8:
	.loc 2 28 0
	movl	%esi, 72(%ebx)
	.loc 2 31 0
	movl	%edx, (%esi)
.LVL9:
.LBE36:
.LBE38:
	.loc 1 40 0
	pushl	%eax
.LBB39:
.LBB37:
	.loc 2 32 0
	movl	%edx, g_kobj_list+52
.LVL10:
.LBE37:
.LBE39:
	.loc 1 40 0
	call	cpu_intrpt_restore
.LVL11:
	.loc 1 45 0
	movl	-28(%ebp), %ecx
	leal	24(%ebx), %eax
	movl	%edi, (%esp)
	pushl	20(%ebp)
	pushl	8(%ebp)
	.loc 1 43 0
	movl	$4, 16(%ebx)
	.loc 1 45 0
	pushl	%ecx
	pushl	%eax
	call	ringbuf_init
.LVL12:
	.loc 1 46 0
	movl	40(%ebx), %eax
	addl	$32, %esp
	movl	%eax, 64(%ebx)
.LVL13:
	xorl	%eax, %eax
	jmp	.L2
.LVL14:
.L3:
.LBE31:
.LBE30:
	.loc 1 16 0
	movl	$6, %eax
.LVL15:
.L2:
	.loc 1 50 0
	leal	-12(%ebp), %esp
	popl	%ebx
	.cfi_restore 3
.LVL16:
	popl	%esi
	.cfi_restore 6
	popl	%edi
	.cfi_restore 7
	popl	%ebp
	.cfi_restore 5
	.cfi_def_cfa 4, 4
	ret
	.cfi_endproc
.LFE12:
	.size	buf_queue_create, .-buf_queue_create
	.section	.text.unlikely.buf_queue_create
.LCOLDE0:
	.section	.text.buf_queue_create
.LHOTE0:
	.section	.text.unlikely.krhino_buf_queue_create,"ax",@progbits
.LCOLDB1:
	.section	.text.krhino_buf_queue_create,"ax",@progbits
.LHOTB1:
	.globl	krhino_buf_queue_create
	.type	krhino_buf_queue_create, @function
krhino_buf_queue_create:
.LFB13:
	.loc 1 54 0
	.cfi_startproc
.LVL17:
	pushl	%ebp
	.cfi_def_cfa_offset 8
	.cfi_offset 5, -8
	movl	%esp, %ebp
	.cfi_def_cfa_register 5
	pushl	%ebx
	.cfi_offset 3, -12
	.loc 1 54 0
	movl	20(%ebp), %ebx
	movl	8(%ebp), %eax
	movl	12(%ebp), %edx
	movl	16(%ebp), %ecx
	.loc 1 55 0
	movl	$1, 20(%ebp)
.LVL18:
	movl	$1, 16(%ebp)
.LVL19:
	.loc 1 54 0
	movl	%ebx, 8(%ebp)
.LVL20:
	.loc 1 55 0
	movl	24(%ebp), %ebx
.LVL21:
	movl	%ebx, 12(%ebp)
.LVL22:
	.loc 1 56 0
	popl	%ebx
	.cfi_restore 3
	popl	%ebp
	.cfi_restore 5
	.cfi_def_cfa 4, 4
	.loc 1 55 0
	jmp	buf_queue_create
.LVL23:
	.cfi_endproc
.LFE13:
	.size	krhino_buf_queue_create, .-krhino_buf_queue_create
	.section	.text.unlikely.krhino_buf_queue_create
.LCOLDE1:
	.section	.text.krhino_buf_queue_create
.LHOTE1:
	.section	.text.unlikely.krhino_fix_buf_queue_create,"ax",@progbits
.LCOLDB2:
	.section	.text.krhino_fix_buf_queue_create,"ax",@progbits
.LHOTB2:
	.globl	krhino_fix_buf_queue_create
	.type	krhino_fix_buf_queue_create, @function
krhino_fix_buf_queue_create:
.LFB14:
	.loc 1 60 0
	.cfi_startproc
.LVL24:
	pushl	%ebp
	.cfi_def_cfa_offset 8
	.cfi_offset 5, -8
	movl	%esp, %ebp
	.cfi_def_cfa_register 5
	pushl	%ebx
	.cfi_offset 3, -12
	.loc 1 60 0
	movl	20(%ebp), %ebx
	movl	12(%ebp), %edx
	movl	8(%ebp), %eax
	movl	16(%ebp), %ecx
	.loc 1 61 0
	movl	$0, 20(%ebp)
.LVL25:
	movl	$1, 16(%ebp)
.LVL26:
	movl	%ebx, 12(%ebp)
.LVL27:
	imull	24(%ebp), %ebx
.LVL28:
	movl	%ebx, 8(%ebp)
.LVL29:
	.loc 1 62 0
	popl	%ebx
	.cfi_restore 3
	popl	%ebp
	.cfi_restore 5
	.cfi_def_cfa 4, 4
	.loc 1 61 0
	jmp	buf_queue_create
.LVL30:
	.cfi_endproc
.LFE14:
	.size	krhino_fix_buf_queue_create, .-krhino_fix_buf_queue_create
	.section	.text.unlikely.krhino_fix_buf_queue_create
.LCOLDE2:
	.section	.text.krhino_fix_buf_queue_create
.LHOTE2:
	.section	.text.unlikely.krhino_buf_queue_del,"ax",@progbits
.LCOLDB3:
	.section	.text.krhino_buf_queue_del,"ax",@progbits
.LHOTB3:
	.globl	krhino_buf_queue_del
	.type	krhino_buf_queue_del, @function
krhino_buf_queue_del:
.LFB15:
	.loc 1 65 0
	.cfi_startproc
.LVL31:
	pushl	%ebp
	.cfi_def_cfa_offset 8
	.cfi_offset 5, -8
	.loc 1 70 0
	movl	$6, %eax
	.loc 1 65 0
	movl	%esp, %ebp
	.cfi_def_cfa_register 5
	pushl	%esi
	pushl	%ebx
	.cfi_offset 6, -12
	.cfi_offset 3, -16
	.loc 1 65 0
	movl	8(%ebp), %ebx
	.loc 1 70 0
	testl	%ebx, %ebx
	je	.L15
	.loc 1 72 0
	call	cpu_intrpt_save
.LVL32:
	.loc 1 74 0
	cmpb	$0, g_intrpt_nested_level
	.loc 1 72 0
	movl	%eax, %esi
.LVL33:
	.loc 1 74 0
	je	.L16
	.loc 1 74 0 is_stmt 0 discriminator 1
	subl	$12, %esp
	pushl	%eax
	call	cpu_intrpt_restore
.LVL34:
	addl	$16, %esp
	movl	$1000, %eax
	jmp	.L15
.LVL35:
.L16:
	.loc 1 76 0 is_stmt 1
	cmpl	$4, 16(%ebx)
	je	.L17
	.loc 1 77 0
	subl	$12, %esp
	pushl	%eax
	call	cpu_intrpt_restore
.LVL36:
	.loc 1 78 0
	addl	$16, %esp
	movl	$8, %eax
	jmp	.L15
.LVL37:
.L17:
	.loc 1 81 0
	cmpb	$1, 76(%ebx)
	je	.L18
	.loc 1 82 0
	subl	$12, %esp
	pushl	%eax
	call	cpu_intrpt_restore
.LVL38:
	.loc 1 83 0
	addl	$16, %esp
	movl	$9, %eax
	jmp	.L15
.LVL39:
.L18:
	.loc 1 88 0
	movl	$0, 16(%ebx)
.LVL40:
.L19:
.LBB44:
.LBB45:
	.loc 2 23 0
	movl	(%ebx), %eax
.LVL41:
.LBE45:
.LBE44:
	.loc 1 91 0
	cmpl	%eax, %ebx
	je	.L24
	.loc 1 93 0
	subl	$12, %esp
	subl	$24, %eax
	pushl	%eax
	call	pend_task_rm
.LVL42:
	addl	$16, %esp
	jmp	.L19
.L24:
.LVL43:
.LBB46:
.LBB47:
	.loc 2 46 0
	movl	68(%ebx), %edx
	movl	72(%ebx), %eax
.LBE47:
.LBE46:
	.loc 1 100 0
	subl	$12, %esp
	addl	$24, %ebx
.LBB49:
.LBB48:
	.loc 2 46 0
	movl	%edx, (%eax)
	.loc 2 47 0
	movl	44(%ebx), %edx
	movl	%eax, 4(%edx)
.LVL44:
.LBE48:
.LBE49:
	.loc 1 100 0
	pushl	%ebx
	call	ringbuf_reset
.LVL45:
	.loc 1 102 0
	movl	%esi, (%esp)
	call	cpu_intrpt_restore
.LVL46:
	call	core_sched
.LVL47:
	.loc 1 104 0
	addl	$16, %esp
	xorl	%eax, %eax
.LVL48:
.L15:
	.loc 1 105 0
	leal	-8(%ebp), %esp
	popl	%ebx
	.cfi_restore 3
	popl	%esi
	.cfi_restore 6
	popl	%ebp
	.cfi_restore 5
	.cfi_def_cfa 4, 4
	ret
	.cfi_endproc
.LFE15:
	.size	krhino_buf_queue_del, .-krhino_buf_queue_del
	.section	.text.unlikely.krhino_buf_queue_del
.LCOLDE3:
	.section	.text.krhino_buf_queue_del
.LHOTE3:
	.section	.text.unlikely.krhino_buf_queue_dyn_create,"ax",@progbits
.LCOLDB4:
	.section	.text.krhino_buf_queue_dyn_create,"ax",@progbits
.LHOTB4:
	.globl	krhino_buf_queue_dyn_create
	.type	krhino_buf_queue_dyn_create, @function
krhino_buf_queue_dyn_create:
.LFB16:
	.loc 1 110 0
	.cfi_startproc
.LVL49:
	pushl	%ebp
	.cfi_def_cfa_offset 8
	.cfi_offset 5, -8
	movl	%esp, %ebp
	.cfi_def_cfa_register 5
	pushl	%edi
	pushl	%esi
	pushl	%ebx
	.cfi_offset 7, -12
	.cfi_offset 6, -16
	.cfi_offset 3, -20
	.loc 1 114 0
	movl	$6, %edi
	.loc 1 110 0
	subl	$12, %esp
	.loc 1 114 0
	cmpl	$0, 8(%ebp)
	.loc 1 110 0
	movl	16(%ebp), %esi
	.loc 1 114 0
	je	.L26
	.loc 1 116 0
	testl	%esi, %esi
	.loc 1 117 0
	movl	$701, %edi
	.loc 1 116 0
	je	.L26
	.loc 1 120 0
	subl	$12, %esp
	.loc 1 123 0
	movl	$105, %edi
	.loc 1 120 0
	pushl	$80
	call	krhino_mm_alloc
.LVL50:
	.loc 1 122 0
	addl	$16, %esp
	testl	%eax, %eax
	.loc 1 120 0
	movl	%eax, %ebx
.LVL51:
	.loc 1 122 0
	je	.L26
	.loc 1 126 0
	subl	$12, %esp
	pushl	%esi
	call	krhino_mm_alloc
.LVL52:
	.loc 1 128 0
	addl	$16, %esp
	testl	%eax, %eax
	.loc 1 126 0
	movl	%eax, 20(%ebx)
	.loc 1 128 0
	jne	.L27
	.loc 1 129 0
	subl	$12, %esp
	pushl	%ebx
	call	krhino_mm_free
.LVL53:
	.loc 1 130 0
	addl	$16, %esp
	jmp	.L26
.L27:
	.loc 1 133 0
	movl	12(%ebp), %edx
	pushl	$1
	movl	%eax, %ecx
	pushl	$2
	pushl	20(%ebp)
	movl	%ebx, %eax
	pushl	%esi
	call	buf_queue_create
.LVL54:
	.loc 1 136 0
	addl	$16, %esp
	testl	%eax, %eax
	.loc 1 133 0
	movl	%eax, %esi
.LVL55:
	.loc 1 136 0
	je	.L28
	.loc 1 137 0
	subl	$12, %esp
	pushl	20(%ebx)
	.loc 1 139 0
	movl	%esi, %edi
	.loc 1 137 0
	call	krhino_mm_free
.LVL56:
	.loc 1 138 0
	movl	%ebx, (%esp)
	call	krhino_mm_free
.LVL57:
	.loc 1 139 0
	addl	$16, %esp
	jmp	.L26
.LVL58:
.L28:
	.loc 1 142 0
	movl	8(%ebp), %eax
.LVL59:
	.loc 1 144 0
	xorl	%edi, %edi
	.loc 1 142 0
	movl	%ebx, (%eax)
.LVL60:
.L26:
	.loc 1 145 0
	leal	-12(%ebp), %esp
	movl	%edi, %eax
	popl	%ebx
	.cfi_restore 3
	popl	%esi
	.cfi_restore 6
	popl	%edi
	.cfi_restore 7
	popl	%ebp
	.cfi_restore 5
	.cfi_def_cfa 4, 4
	ret
	.cfi_endproc
.LFE16:
	.size	krhino_buf_queue_dyn_create, .-krhino_buf_queue_dyn_create
	.section	.text.unlikely.krhino_buf_queue_dyn_create
.LCOLDE4:
	.section	.text.krhino_buf_queue_dyn_create
.LHOTE4:
	.section	.text.unlikely.krhino_buf_queue_dyn_del,"ax",@progbits
.LCOLDB5:
	.section	.text.krhino_buf_queue_dyn_del,"ax",@progbits
.LHOTB5:
	.globl	krhino_buf_queue_dyn_del
	.type	krhino_buf_queue_dyn_del, @function
krhino_buf_queue_dyn_del:
.LFB17:
	.loc 1 148 0
	.cfi_startproc
.LVL61:
	pushl	%ebp
	.cfi_def_cfa_offset 8
	.cfi_offset 5, -8
	.loc 1 152 0
	movl	$6, %eax
	.loc 1 148 0
	movl	%esp, %ebp
	.cfi_def_cfa_register 5
	pushl	%esi
	pushl	%ebx
	.cfi_offset 6, -12
	.cfi_offset 3, -16
	.loc 1 148 0
	movl	8(%ebp), %ebx
	.loc 1 152 0
	testl	%ebx, %ebx
	je	.L36
	.loc 1 154 0
	call	cpu_intrpt_save
.LVL62:
	.loc 1 156 0
	cmpb	$0, g_intrpt_nested_level
	.loc 1 154 0
	movl	%eax, %esi
.LVL63:
	.loc 1 156 0
	je	.L37
	.loc 1 156 0 is_stmt 0 discriminator 1
	subl	$12, %esp
	pushl	%eax
	call	cpu_intrpt_restore
.LVL64:
	addl	$16, %esp
	movl	$1000, %eax
	jmp	.L36
.LVL65:
.L37:
	.loc 1 158 0 is_stmt 1
	cmpl	$4, 16(%ebx)
	je	.L38
	.loc 1 159 0
	subl	$12, %esp
	pushl	%eax
	call	cpu_intrpt_restore
.LVL66:
	.loc 1 160 0
	addl	$16, %esp
	movl	$8, %eax
	jmp	.L36
.LVL67:
.L38:
	.loc 1 163 0
	cmpb	$2, 76(%ebx)
	je	.L39
	.loc 1 164 0
	subl	$12, %esp
	pushl	%eax
	call	cpu_intrpt_restore
.LVL68:
	.loc 1 165 0
	addl	$16, %esp
	movl	$9, %eax
	jmp	.L36
.LVL69:
.L39:
	.loc 1 170 0
	movl	$0, 16(%ebx)
.LVL70:
.L40:
.LBB54:
.LBB55:
	.loc 2 23 0
	movl	(%ebx), %eax
.LVL71:
.LBE55:
.LBE54:
	.loc 1 172 0
	cmpl	%eax, %ebx
	je	.L45
	.loc 1 173 0
	subl	$12, %esp
	subl	$24, %eax
	pushl	%eax
	call	pend_task_rm
.LVL72:
	addl	$16, %esp
	jmp	.L40
.L45:
.LVL73:
.LBB56:
.LBB57:
	.loc 2 46 0
	movl	72(%ebx), %eax
	movl	68(%ebx), %edx
.LBE57:
.LBE56:
	.loc 1 180 0
	subl	$12, %esp
.LBB59:
.LBB58:
	.loc 2 46 0
	movl	%edx, (%eax)
	.loc 2 47 0
	movl	68(%ebx), %edx
	movl	%eax, 4(%edx)
.LVL74:
.LBE58:
.LBE59:
	.loc 1 180 0
	leal	24(%ebx), %eax
	pushl	%eax
	call	ringbuf_reset
.LVL75:
	.loc 1 182 0
	movl	%esi, (%esp)
	call	cpu_intrpt_restore
.LVL76:
	call	core_sched
.LVL77:
	.loc 1 183 0
	popl	%eax
	pushl	20(%ebx)
	call	krhino_mm_free
.LVL78:
	.loc 1 184 0
	movl	%ebx, (%esp)
	call	krhino_mm_free
.LVL79:
	.loc 1 186 0
	addl	$16, %esp
	xorl	%eax, %eax
.LVL80:
.L36:
	.loc 1 187 0
	leal	-8(%ebp), %esp
	popl	%ebx
	.cfi_restore 3
	popl	%esi
	.cfi_restore 6
	popl	%ebp
	.cfi_restore 5
	.cfi_def_cfa 4, 4
	ret
	.cfi_endproc
.LFE17:
	.size	krhino_buf_queue_dyn_del, .-krhino_buf_queue_dyn_del
	.section	.text.unlikely.krhino_buf_queue_dyn_del
.LCOLDE5:
	.section	.text.krhino_buf_queue_dyn_del
.LHOTE5:
	.section	.text.unlikely.krhino_buf_queue_send,"ax",@progbits
.LCOLDB6:
	.section	.text.krhino_buf_queue_send,"ax",@progbits
.LHOTB6:
	.globl	krhino_buf_queue_send
	.type	krhino_buf_queue_send, @function
krhino_buf_queue_send:
.LFB19:
	.loc 1 271 0
	.cfi_startproc
.LVL81:
	pushl	%ebp
	.cfi_def_cfa_offset 8
	.cfi_offset 5, -8
	movl	%esp, %ebp
	.cfi_def_cfa_register 5
	pushl	%edi
	pushl	%esi
	pushl	%ebx
	subl	$28, %esp
	.cfi_offset 7, -12
	.cfi_offset 6, -16
	.cfi_offset 3, -20
	.loc 1 271 0
	movl	12(%ebp), %esi
	movl	16(%ebp), %edx
	movl	8(%ebp), %edi
	.loc 1 273 0
	testl	%esi, %esi
	.loc 1 271 0
	movl	%edx, -28(%ebp)
	.loc 1 273 0
	je	.L55
	testl	%edi, %edi
	je	.L55
.LVL82:
.LBB64:
.LBB65:
	.loc 1 205 0
	call	cpu_intrpt_save
.LVL83:
	.loc 1 207 0
	cmpl	$4, 16(%edi)
	.loc 1 205 0
	movl	%eax, %ebx
.LVL84:
	.loc 1 207 0
	movl	-28(%ebp), %edx
	je	.L48
	.loc 1 208 0
	subl	$12, %esp
	pushl	%eax
	call	cpu_intrpt_restore
.LVL85:
	addl	$16, %esp
	.loc 1 209 0
	movl	$8, %eax
	jmp	.L47
.LVL86:
.L48:
	.loc 1 215 0
	cmpl	52(%edi), %edx
	jbe	.L49
	.loc 1 217 0
	subl	$12, %esp
	pushl	%eax
	call	cpu_intrpt_restore
.LVL87:
	addl	$16, %esp
	.loc 1 218 0
	movl	$703, %eax
	jmp	.L47
.LVL88:
.L49:
	.loc 1 221 0
	testl	%edx, %edx
	jne	.L50
	.loc 1 222 0
	subl	$12, %esp
	pushl	%eax
	call	cpu_intrpt_restore
.LVL89:
	addl	$16, %esp
	.loc 1 223 0
	movl	$5, %eax
	jmp	.L47
.LVL90:
.L50:
.LBB66:
.LBB67:
	.loc 2 23 0
	movl	(%edi), %eax
.LVL91:
.LBE67:
.LBE66:
	.loc 1 229 0
	cmpl	%eax, %edi
	jne	.L51
	.loc 1 231 0
	pushl	%eax
	leal	24(%edi), %eax
	pushl	%edx
	pushl	%esi
	pushl	%eax
	call	ringbuf_push
.LVL92:
	.loc 1 233 0
	addl	$16, %esp
	testl	%eax, %eax
	.loc 1 231 0
	movl	%eax, %esi
.LVL93:
	.loc 1 233 0
	je	.L52
	.loc 1 234 0
	subl	$12, %esp
	pushl	%ebx
	call	cpu_intrpt_restore
.LVL94:
	.loc 1 235 0
	addl	$16, %esp
	.loc 1 236 0
	movl	$702, %eax
	cmpl	$106, %esi
	cmovne	%esi, %eax
	jmp	.L47
.LVL95:
.L52:
	.loc 1 241 0
	movl	56(%edi), %eax
.LVL96:
	incl	%eax
	.loc 1 243 0
	cmpl	60(%edi), %eax
	.loc 1 241 0
	movl	%eax, 56(%edi)
	.loc 1 243 0
	jbe	.L53
	.loc 1 244 0
	movl	%eax, 60(%edi)
.L53:
	.loc 1 247 0
	movl	40(%edi), %eax
	cmpl	%eax, 64(%edi)
	jbe	.L54
	.loc 1 248 0
	movl	%eax, 64(%edi)
.L54:
	.loc 1 253 0
	subl	$12, %esp
	pushl	%ebx
	call	cpu_intrpt_restore
.LVL97:
	jmp	.L58
.LVL98:
.L51:
	.loc 1 258 0
	movl	52(%eax), %edi
.LVL99:
	movl	%edx, %ecx
	.loc 1 261 0
	subl	$12, %esp
	.loc 1 258 0
	rep movsb
.LVL100:
	.loc 1 261 0
	subl	$24, %eax
.LVL101:
	.loc 1 259 0
	movl	%edx, 80(%eax)
	.loc 1 261 0
	pushl	%eax
	call	pend_task_wakeup
.LVL102:
	.loc 1 265 0
	movl	%ebx, (%esp)
	call	cpu_intrpt_restore
.LVL103:
	call	core_sched
.LVL104:
.L58:
	addl	$16, %esp
	.loc 1 267 0
	xorl	%eax, %eax
	jmp	.L47
.LVL105:
.L55:
.LBE65:
.LBE64:
	.loc 1 273 0
	movl	$6, %eax
.L47:
	.loc 1 276 0
	leal	-12(%ebp), %esp
	popl	%ebx
	.cfi_restore 3
	popl	%esi
	.cfi_restore 6
	popl	%edi
	.cfi_restore 7
	popl	%ebp
	.cfi_restore 5
	.cfi_def_cfa 4, 4
	ret
	.cfi_endproc
.LFE19:
	.size	krhino_buf_queue_send, .-krhino_buf_queue_send
	.section	.text.unlikely.krhino_buf_queue_send
.LCOLDE6:
	.section	.text.krhino_buf_queue_send
.LHOTE6:
	.section	.text.unlikely.krhino_buf_queue_recv,"ax",@progbits
.LCOLDB7:
	.section	.text.krhino_buf_queue_recv,"ax",@progbits
.LHOTB7:
	.globl	krhino_buf_queue_recv
	.type	krhino_buf_queue_recv, @function
krhino_buf_queue_recv:
.LFB20:
	.loc 1 280 0
	.cfi_startproc
.LVL106:
	pushl	%ebp
	.cfi_def_cfa_offset 8
	.cfi_offset 5, -8
	movl	%esp, %ebp
	.cfi_def_cfa_register 5
	pushl	%edi
	pushl	%esi
	pushl	%ebx
	subl	$28, %esp
	.cfi_offset 7, -12
	.cfi_offset 6, -16
	.cfi_offset 3, -20
	.loc 1 280 0
	movl	24(%ebp), %ebx
	movl	16(%ebp), %edx
	movl	12(%ebp), %eax
	movl	8(%ebp), %esi
	.loc 1 288 0
	testl	%ebx, %ebx
	.loc 1 280 0
	movl	%edx, -28(%ebp)
	.loc 1 288 0
	sete	%dl
	cmpl	$0, 20(%ebp)
	.loc 1 280 0
	movl	%eax, -32(%ebp)
	.loc 1 288 0
	sete	%al
	orb	%al, %dl
	jne	.L69
	testl	%esi, %esi
	je	.L69
	.loc 1 290 0
	call	cpu_intrpt_save
.LVL107:
	.loc 1 294 0
	cmpb	$0, g_intrpt_nested_level
	.loc 1 290 0
	movl	%eax, %edi
.LVL108:
	.loc 1 294 0
	je	.L61
	movl	-32(%ebp), %eax
.LVL109:
	orl	-28(%ebp), %eax
	je	.L61
	.loc 1 295 0
	subl	$12, %esp
	pushl	%edi
	call	cpu_intrpt_restore
.LVL110:
	.loc 1 296 0
	addl	$16, %esp
	movl	$1000, %eax
	jmp	.L60
.L61:
	.loc 1 299 0
	cmpl	$4, 16(%esi)
	je	.L62
	.loc 1 300 0
	subl	$12, %esp
	pushl	%edi
	call	cpu_intrpt_restore
.LVL111:
	.loc 1 301 0
	addl	$16, %esp
	movl	$8, %eax
	jmp	.L60
.L62:
	.loc 1 304 0
	leal	24(%esi), %ecx
	subl	$12, %esp
	pushl	%ecx
	movl	%ecx, -36(%ebp)
	call	ringbuf_is_empty
.LVL112:
	addl	$16, %esp
	testb	%al, %al
	movl	-36(%ebp), %ecx
	jne	.L63
	.loc 1 305 0
	pushl	%edx
	pushl	%ebx
	pushl	20(%ebp)
	pushl	%ecx
	call	ringbuf_pop
.LVL113:
	.loc 1 306 0
	decl	56(%esi)
	.loc 1 307 0
	movl	%edi, (%esp)
	call	cpu_intrpt_restore
.LVL114:
	.loc 1 308 0
	addl	$16, %esp
	xorl	%eax, %eax
	jmp	.L60
.L63:
	.loc 1 311 0
	movl	-28(%ebp), %eax
	orl	-32(%ebp), %eax
	jne	.L64
	.loc 1 313 0
	subl	$12, %esp
	.loc 1 312 0
	movl	$0, (%ebx)
	.loc 1 313 0
	pushl	%edi
	call	cpu_intrpt_restore
.LVL115:
	.loc 1 314 0
	addl	$16, %esp
	movl	$400, %eax
	jmp	.L60
.L64:
	.loc 1 317 0
	cmpb	$0, g_sched_lock
	je	.L65
	.loc 1 319 0
	subl	$12, %esp
	.loc 1 318 0
	movl	$0, (%ebx)
	.loc 1 319 0
	pushl	%edi
	call	cpu_intrpt_restore
.LVL116:
	.loc 1 320 0
	addl	$16, %esp
	movl	$200, %eax
	jmp	.L60
.L65:
	.loc 1 323 0
	movl	g_active_task, %eax
	movl	20(%ebp), %ecx
	movl	%ecx, 76(%eax)
	.loc 1 324 0
	pushl	-28(%ebp)
	pushl	-32(%ebp)
	pushl	%eax
	pushl	%esi
	call	pend_to_blk_obj
.LVL117:
	.loc 1 328 0
	movl	%edi, (%esp)
	call	cpu_intrpt_restore
.LVL118:
	call	core_sched
.LVL119:
	.loc 1 330 0
	call	cpu_intrpt_save
.LVL120:
	movl	%eax, %esi
.LVL121:
	.loc 1 334 0
	popl	%eax
.LVL122:
	pushl	g_active_task
	call	pend_state_end_proc
.LVL123:
	.loc 1 336 0
	addl	$16, %esp
	testl	%eax, %eax
	.loc 1 334 0
	movl	%eax, %edi
.LVL124:
	.loc 1 336 0
	jne	.L76
	.loc 1 338 0
	movl	g_active_task, %edx
	movl	80(%edx), %edx
	movl	%edx, (%ebx)
	.loc 1 339 0
	jmp	.L68
.L76:
	.loc 1 342 0
	movl	$0, (%ebx)
.L68:
	.loc 1 346 0
	subl	$12, %esp
	pushl	%esi
	call	cpu_intrpt_restore
.LVL125:
	.loc 1 348 0
	addl	$16, %esp
	.loc 1 334 0
	movl	%edi, %eax
	.loc 1 348 0
	jmp	.L60
.LVL126:
.L69:
	.loc 1 288 0
	movl	$6, %eax
.L60:
	.loc 1 349 0
	leal	-12(%ebp), %esp
	popl	%ebx
	.cfi_restore 3
	popl	%esi
	.cfi_restore 6
	popl	%edi
	.cfi_restore 7
	popl	%ebp
	.cfi_restore 5
	.cfi_def_cfa 4, 4
	ret
	.cfi_endproc
.LFE20:
	.size	krhino_buf_queue_recv, .-krhino_buf_queue_recv
	.section	.text.unlikely.krhino_buf_queue_recv
.LCOLDE7:
	.section	.text.krhino_buf_queue_recv
.LHOTE7:
	.section	.text.unlikely.krhino_buf_queue_flush,"ax",@progbits
.LCOLDB8:
	.section	.text.krhino_buf_queue_flush,"ax",@progbits
.LHOTB8:
	.globl	krhino_buf_queue_flush
	.type	krhino_buf_queue_flush, @function
krhino_buf_queue_flush:
.LFB21:
	.loc 1 352 0
	.cfi_startproc
.LVL127:
	pushl	%ebp
	.cfi_def_cfa_offset 8
	.cfi_offset 5, -8
	.loc 1 355 0
	movl	$6, %eax
	.loc 1 352 0
	movl	%esp, %ebp
	.cfi_def_cfa_register 5
	pushl	%esi
	pushl	%ebx
	.cfi_offset 6, -12
	.cfi_offset 3, -16
	.loc 1 352 0
	movl	8(%ebp), %ebx
	.loc 1 355 0
	testl	%ebx, %ebx
	je	.L79
	.loc 1 357 0
	call	cpu_intrpt_save
.LVL128:
	.loc 1 359 0
	cmpb	$0, g_intrpt_nested_level
	.loc 1 357 0
	movl	%eax, %esi
.LVL129:
	.loc 1 359 0
	je	.L80
	.loc 1 359 0 is_stmt 0 discriminator 1
	subl	$12, %esp
	pushl	%eax
	call	cpu_intrpt_restore
.LVL130:
	addl	$16, %esp
	movl	$1000, %eax
	jmp	.L79
.LVL131:
.L80:
	.loc 1 361 0 is_stmt 1
	cmpl	$4, 16(%ebx)
	je	.L81
	.loc 1 362 0
	subl	$12, %esp
	pushl	%eax
	call	cpu_intrpt_restore
.LVL132:
	.loc 1 363 0
	addl	$16, %esp
	movl	$8, %eax
	jmp	.L79
.LVL133:
.L81:
	.loc 1 366 0
	leal	24(%ebx), %eax
.LVL134:
	subl	$12, %esp
	pushl	%eax
	call	ringbuf_reset
.LVL135:
	.loc 1 369 0
	movl	40(%ebx), %eax
	.loc 1 367 0
	movl	$0, 56(%ebx)
	.loc 1 368 0
	movl	$0, 60(%ebx)
	.loc 1 369 0
	movl	%eax, 64(%ebx)
	.loc 1 371 0
	movl	%esi, (%esp)
	call	cpu_intrpt_restore
.LVL136:
	.loc 1 373 0
	addl	$16, %esp
	xorl	%eax, %eax
.LVL137:
.L79:
	.loc 1 374 0
	leal	-8(%ebp), %esp
	popl	%ebx
	.cfi_restore 3
	popl	%esi
	.cfi_restore 6
	popl	%ebp
	.cfi_restore 5
	.cfi_def_cfa 4, 4
	ret
	.cfi_endproc
.LFE21:
	.size	krhino_buf_queue_flush, .-krhino_buf_queue_flush
	.section	.text.unlikely.krhino_buf_queue_flush
.LCOLDE8:
	.section	.text.krhino_buf_queue_flush
.LHOTE8:
	.section	.text.unlikely.krhino_buf_queue_info_get,"ax",@progbits
.LCOLDB9:
	.section	.text.krhino_buf_queue_info_get,"ax",@progbits
.LHOTB9:
	.globl	krhino_buf_queue_info_get
	.type	krhino_buf_queue_info_get, @function
krhino_buf_queue_info_get:
.LFB22:
	.loc 1 377 0
	.cfi_startproc
.LVL138:
	pushl	%ebp
	.cfi_def_cfa_offset 8
	.cfi_offset 5, -8
	movl	%esp, %ebp
	.cfi_def_cfa_register 5
	pushl	%esi
	pushl	%ebx
	.cfi_offset 6, -12
	.cfi_offset 3, -16
	.loc 1 377 0
	movl	8(%ebp), %ebx
	movl	12(%ebp), %esi
	.loc 1 381 0
	testl	%ebx, %ebx
	je	.L88
	testl	%esi, %esi
	je	.L88
	.loc 1 383 0
	call	cpu_intrpt_save
.LVL139:
	.loc 1 385 0
	cmpl	$4, 16(%ebx)
	je	.L87
	.loc 1 386 0
	subl	$12, %esp
	pushl	%eax
	call	cpu_intrpt_restore
.LVL140:
	.loc 1 387 0
	addl	$16, %esp
	movl	$8, %eax
	jmp	.L86
.LVL141:
.L87:
	.loc 1 390 0
	movl	40(%ebx), %edx
	.loc 1 397 0
	subl	$12, %esp
	.loc 1 390 0
	movl	%edx, 16(%esi)
	.loc 1 391 0
	movl	64(%ebx), %edx
	movl	%edx, 20(%esi)
	.loc 1 392 0
	movl	28(%ebx), %edx
	subl	24(%ebx), %edx
	movl	%edx, (%esi)
	.loc 1 393 0
	movl	52(%ebx), %edx
	movl	%edx, 4(%esi)
	.loc 1 394 0
	movl	56(%ebx), %edx
	movl	%edx, 8(%esi)
	.loc 1 395 0
	movl	60(%ebx), %edx
	movl	%edx, 12(%esi)
	.loc 1 397 0
	pushl	%eax
	call	cpu_intrpt_restore
.LVL142:
	.loc 1 399 0
	addl	$16, %esp
	xorl	%eax, %eax
	jmp	.L86
.LVL143:
.L88:
	.loc 1 381 0
	movl	$6, %eax
.LVL144:
.L86:
	.loc 1 400 0
	leal	-8(%ebp), %esp
	popl	%ebx
	.cfi_restore 3
	popl	%esi
	.cfi_restore 6
	popl	%ebp
	.cfi_restore 5
	.cfi_def_cfa 4, 4
	ret
	.cfi_endproc
.LFE22:
	.size	krhino_buf_queue_info_get, .-krhino_buf_queue_info_get
	.section	.text.unlikely.krhino_buf_queue_info_get
.LCOLDE9:
	.section	.text.krhino_buf_queue_info_get
.LHOTE9:
	.text
.Letext0:
	.section	.text.unlikely.buf_queue_create
.Letext_cold0:
	.file 3 "/home/stone/Documents/Ali_IOT/build/compiler/gcc-arm-none-eabi/Linux64/lib/gcc/arm-none-eabi/5.4.1/include/stddef.h"
	.file 4 "/home/stone/Documents/Ali_IOT/build/compiler/gcc-arm-none-eabi/Linux64/arm-none-eabi/include/machine/_default_types.h"
	.file 5 "/home/stone/Documents/Ali_IOT/build/compiler/gcc-arm-none-eabi/Linux64/arm-none-eabi/include/sys/_stdint.h"
	.file 6 "././platform/arch/arm/armv5/./gcc/k_types.h"
	.file 7 "./kernel/rhino/core/include/k_err.h"
	.file 8 "./kernel/rhino/core/include/k_sys.h"
	.file 9 "./kernel/rhino/core/include/k_obj.h"
	.file 10 "./kernel/rhino/core/include/k_task.h"
	.file 11 "./kernel/rhino/core/include/k_mutex.h"
	.file 12 "./kernel/rhino/core/include/k_sem.h"
	.file 13 "./kernel/rhino/core/include/k_ringbuf.h"
	.file 14 "./kernel/rhino/core/include/k_buf_queue.h"
	.file 15 "./kernel/rhino/core/include/k_internal.h"
	.file 16 "././platform/arch/arm/armv5/./gcc/port.h"
	.file 17 "./kernel/rhino/core/include/k_mm.h"
	.section	.note.GNU-stack,"",@progbits
