	.file	"k_err.c"
	.text
.Ltext0:
	.section	.text.unlikely.k_err_proc,"ax",@progbits
.LCOLDB0:
	.section	.text.k_err_proc,"ax",@progbits
.LHOTB0:
	.section	.text.unlikely.k_err_proc
.Ltext_cold0:
	.section	.text.k_err_proc
	.globl	k_err_proc
	.type	k_err_proc, @function
k_err_proc:
.LFB12:
	.file 1 "kernel/rhino/core/k_err.c"
	.loc 1 8 0
	.cfi_startproc
.LVL0:
	.loc 1 9 0
	movl	g_err_proc, %eax
	.loc 1 8 0
	pushl	%ebp
	.cfi_def_cfa_offset 8
	.cfi_offset 5, -8
	movl	%esp, %ebp
	.cfi_def_cfa_register 5
	.loc 1 9 0
	testl	%eax, %eax
	je	.L1
	.loc 1 12 0
	popl	%ebp
	.cfi_remember_state
	.cfi_restore 5
	.cfi_def_cfa 4, 4
	.loc 1 10 0
	jmp	*%eax
.LVL1:
.L1:
	.cfi_restore_state
	.loc 1 12 0
	popl	%ebp
	.cfi_restore 5
	.cfi_def_cfa 4, 4
	ret
	.cfi_endproc
.LFE12:
	.size	k_err_proc, .-k_err_proc
	.section	.text.unlikely.k_err_proc
.LCOLDE0:
	.section	.text.k_err_proc
.LHOTE0:
	.text
.Letext0:
	.section	.text.unlikely.k_err_proc
.Letext_cold0:
	.file 2 "./kernel/rhino/core/include/k_err.h"
	.section	.note.GNU-stack,"",@progbits
