	.file	"k_mm_blk.c"
	.text
.Ltext0:
	.section	.text.unlikely.krhino_mblk_pool_init,"ax",@progbits
.LCOLDB0:
	.section	.text.krhino_mblk_pool_init,"ax",@progbits
.LHOTB0:
	.section	.text.unlikely.krhino_mblk_pool_init
.Ltext_cold0:
	.section	.text.krhino_mblk_pool_init
	.globl	krhino_mblk_pool_init
	.type	krhino_mblk_pool_init, @function
krhino_mblk_pool_init:
.LFB12:
	.file 1 "kernel/rhino/core/k_mm_blk.c"
	.loc 1 11 0
	.cfi_startproc
.LVL0:
	pushl	%ebp
	.cfi_def_cfa_offset 8
	.cfi_offset 5, -8
	movl	%esp, %ebp
	.cfi_def_cfa_register 5
	pushl	%edi
	pushl	%esi
	pushl	%ebx
	subl	$28, %esp
	.cfi_offset 7, -12
	.cfi_offset 6, -16
	.cfi_offset 3, -20
	.loc 1 22 0
	cmpl	$0, 12(%ebp)
	.loc 1 11 0
	movl	16(%ebp), %edx
	movl	8(%ebp), %ebx
	movl	20(%ebp), %esi
	movl	24(%ebp), %edi
	.loc 1 22 0
	sete	%cl
	testl	%edx, %edx
	sete	%al
	orb	%al, %cl
	jne	.L6
	testl	%ebx, %ebx
	je	.L6
	.loc 1 25 0
	leal	(%esi,%esi), %ecx
	.loc 1 26 0
	movl	$405, %eax
	.loc 1 25 0
	cmpl	%edi, %ecx
	ja	.L2
.LVL1:
	.loc 1 36 0
	movl	%esi, %ecx
	.loc 1 37 0
	movl	$7, %eax
	.loc 1 36 0
	orl	%edx, %ecx
	andb	$3, %cl
	jne	.L2
	.loc 1 40 0
	testl	$3, %edi
	jne	.L2
	.loc 1 46 0
	leal	(%edx,%edi), %eax
	.loc 1 49 0
	leal	(%edx,%esi), %edi
	.loc 1 51 0
	movl	%edx, -28(%ebp)
	.loc 1 46 0
	movl	%eax, -32(%ebp)
.LVL2:
	.loc 1 47 0
	xorl	%eax, %eax
.LVL3:
.L3:
	.loc 1 51 0
	cmpl	-32(%ebp), %edi
	jnb	.L12
	.loc 1 54 0
	movl	-28(%ebp), %ecx
	.loc 1 52 0
	incl	%eax
.LVL4:
	addl	%esi, -28(%ebp)
.LVL5:
	.loc 1 54 0
	movl	%edi, (%ecx)
.LVL6:
	.loc 1 56 0
	addl	%esi, %edi
.LVL7:
	jmp	.L3
.LVL8:
.L12:
	.loc 1 64 0
	movl	-28(%ebp), %edi
.LVL9:
	.loc 1 60 0
	sete	%cl
	movzbl	%cl, %ecx
	addl	%ecx, %eax
.LVL10:
	.loc 1 64 0
	movl	$0, (%edi)
	.loc 1 66 0
	movl	12(%ebp), %edi
	.loc 1 67 0
	movl	%edx, 8(%ebx)
	.loc 1 72 0
	movl	%edx, 24(%ebx)
	.loc 1 69 0
	movl	%eax, 20(%ebx)
	.loc 1 70 0
	movl	%eax, 16(%ebx)
	.loc 1 66 0
	movl	%edi, (%ebx)
	.loc 1 68 0
	movl	-32(%ebp), %edi
	.loc 1 71 0
	movl	%esi, 12(%ebx)
	.loc 1 68 0
	movl	%edi, 4(%ebx)
	.loc 1 75 0
	call	cpu_intrpt_save
.LVL11:
.LBB4:
.LBB5:
	.file 2 "./kernel/rhino/core/include/k_list.h"
	.loc 2 28 0
	movl	g_kobj_list+20, %ecx
.LBE5:
.LBE4:
	.loc 1 76 0
	leal	32(%ebx), %edx
.LVL12:
	.loc 1 77 0
	subl	$12, %esp
.LBB8:
.LBB6:
	.loc 2 29 0
	movl	$g_kobj_list+16, 32(%ebx)
.LVL13:
	.loc 2 28 0
	movl	%ecx, 36(%ebx)
	.loc 2 31 0
	movl	%edx, (%ecx)
.LVL14:
.LBE6:
.LBE8:
	.loc 1 77 0
	pushl	%eax
.LBB9:
.LBB7:
	.loc 2 32 0
	movl	%edx, g_kobj_list+20
.LVL15:
.LBE7:
.LBE9:
	.loc 1 77 0
	call	cpu_intrpt_restore
.LVL16:
	.loc 1 82 0
	addl	$16, %esp
	xorl	%eax, %eax
	jmp	.L2
.LVL17:
.L6:
	.loc 1 22 0
	movl	$6, %eax
.L2:
	.loc 1 83 0
	leal	-12(%ebp), %esp
	popl	%ebx
	.cfi_restore 3
	popl	%esi
	.cfi_restore 6
	popl	%edi
	.cfi_restore 7
	popl	%ebp
	.cfi_restore 5
	.cfi_def_cfa 4, 4
	ret
	.cfi_endproc
.LFE12:
	.size	krhino_mblk_pool_init, .-krhino_mblk_pool_init
	.section	.text.unlikely.krhino_mblk_pool_init
.LCOLDE0:
	.section	.text.krhino_mblk_pool_init
.LHOTE0:
	.section	.text.unlikely.krhino_mblk_alloc,"ax",@progbits
.LCOLDB1:
	.section	.text.krhino_mblk_alloc,"ax",@progbits
.LHOTB1:
	.globl	krhino_mblk_alloc
	.type	krhino_mblk_alloc, @function
krhino_mblk_alloc:
.LFB13:
	.loc 1 86 0
	.cfi_startproc
.LVL18:
	pushl	%ebp
	.cfi_def_cfa_offset 8
	.cfi_offset 5, -8
	movl	%esp, %ebp
	.cfi_def_cfa_register 5
	pushl	%esi
	pushl	%ebx
	.cfi_offset 6, -12
	.cfi_offset 3, -16
	.loc 1 86 0
	movl	8(%ebp), %ebx
	movl	12(%ebp), %esi
	.loc 1 91 0
	testl	%ebx, %ebx
	je	.L17
	testl	%esi, %esi
	je	.L17
.LVL19:
.LBB10:
	.loc 1 93 0
	call	cpu_intrpt_save
.LVL20:
.LBE10:
	.loc 1 95 0
	movl	16(%ebx), %edx
.LBB11:
	.loc 1 93 0
	movl	%eax, 28(%ebx)
.LBE11:
	.loc 1 95 0
	testl	%edx, %edx
	je	.L15
	.loc 1 96 0
	movl	24(%ebx), %ecx
.LVL21:
	.loc 1 100 0
	decl	%edx
	.loc 1 97 0
	movl	%ecx, (%esi)
	.loc 1 99 0
	movl	(%ecx), %ecx
.LVL22:
	.loc 1 100 0
	movl	%edx, 16(%ebx)
.LVL23:
	.loc 1 99 0
	movl	%ecx, 24(%ebx)
.LVL24:
	.loc 1 101 0
	xorl	%ebx, %ebx
	jmp	.L16
.LVL25:
.L15:
	.loc 1 103 0
	movl	$0, (%esi)
.LVL26:
	.loc 1 104 0
	movl	$105, %ebx
.LVL27:
.L16:
.LBB12:
	.loc 1 107 0
	subl	$12, %esp
	pushl	%eax
	call	cpu_intrpt_restore
.LVL28:
.LBE12:
	.loc 1 109 0
	addl	$16, %esp
	movl	%ebx, %eax
	jmp	.L14
.LVL29:
.L17:
	.loc 1 91 0
	movl	$6, %eax
.LVL30:
.L14:
	.loc 1 110 0
	leal	-8(%ebp), %esp
	popl	%ebx
	.cfi_restore 3
	popl	%esi
	.cfi_restore 6
	popl	%ebp
	.cfi_restore 5
	.cfi_def_cfa 4, 4
	ret
	.cfi_endproc
.LFE13:
	.size	krhino_mblk_alloc, .-krhino_mblk_alloc
	.section	.text.unlikely.krhino_mblk_alloc
.LCOLDE1:
	.section	.text.krhino_mblk_alloc
.LHOTE1:
	.section	.text.unlikely.krhino_mblk_free,"ax",@progbits
.LCOLDB2:
	.section	.text.krhino_mblk_free,"ax",@progbits
.LHOTB2:
	.globl	krhino_mblk_free
	.type	krhino_mblk_free, @function
krhino_mblk_free:
.LFB14:
	.loc 1 113 0
	.cfi_startproc
.LVL31:
	pushl	%ebp
	.cfi_def_cfa_offset 8
	.cfi_offset 5, -8
	movl	%esp, %ebp
	.cfi_def_cfa_register 5
	pushl	%esi
	pushl	%ebx
	.cfi_offset 6, -12
	.cfi_offset 3, -16
	.loc 1 113 0
	movl	8(%ebp), %ebx
	movl	12(%ebp), %esi
	.loc 1 115 0
	testl	%ebx, %ebx
	je	.L21
	testl	%esi, %esi
	je	.L21
.LVL32:
.LBB13:
	.loc 1 117 0
	call	cpu_intrpt_save
.LVL33:
.LBE13:
	.loc 1 120 0
	movl	24(%ebx), %edx
.LBB14:
	.loc 1 117 0
	movl	%eax, 28(%ebx)
.LBE14:
.LBB15:
	.loc 1 124 0
	subl	$12, %esp
.LBE15:
	.loc 1 120 0
	movl	%edx, (%esi)
	.loc 1 122 0
	incl	16(%ebx)
.LVL34:
	.loc 1 121 0
	movl	%esi, 24(%ebx)
.LBB16:
	.loc 1 124 0
	pushl	%eax
	call	cpu_intrpt_restore
.LVL35:
.LBE16:
	.loc 1 126 0
	addl	$16, %esp
	xorl	%eax, %eax
	jmp	.L20
.LVL36:
.L21:
	.loc 1 115 0
	movl	$6, %eax
.L20:
	.loc 1 127 0
	leal	-8(%ebp), %esp
	popl	%ebx
	.cfi_restore 3
	popl	%esi
	.cfi_restore 6
	popl	%ebp
	.cfi_restore 5
	.cfi_def_cfa 4, 4
	ret
	.cfi_endproc
.LFE14:
	.size	krhino_mblk_free, .-krhino_mblk_free
	.section	.text.unlikely.krhino_mblk_free
.LCOLDE2:
	.section	.text.krhino_mblk_free
.LHOTE2:
	.text
.Letext0:
	.section	.text.unlikely.krhino_mblk_pool_init
.Letext_cold0:
	.file 3 "/home/stone/Documents/Ali_IOT/build/compiler/gcc-arm-none-eabi/Linux64/lib/gcc/arm-none-eabi/5.4.1/include/stddef.h"
	.file 4 "/home/stone/Documents/Ali_IOT/build/compiler/gcc-arm-none-eabi/Linux64/arm-none-eabi/include/machine/_default_types.h"
	.file 5 "/home/stone/Documents/Ali_IOT/build/compiler/gcc-arm-none-eabi/Linux64/arm-none-eabi/include/sys/_stdint.h"
	.file 6 "././platform/arch/arm/armv5/./gcc/k_types.h"
	.file 7 "./kernel/rhino/core/include/k_err.h"
	.file 8 "./kernel/rhino/core/include/k_spin_lock.h"
	.file 9 "./kernel/rhino/core/include/k_obj.h"
	.file 10 "./kernel/rhino/core/include/k_mm_blk.h"
	.file 11 "././platform/arch/arm/armv5/./gcc/port.h"
	.file 12 "./kernel/rhino/core/include/k_internal.h"
	.section	.note.GNU-stack,"",@progbits
