	.file	"k_mm.c"
	.text
.Ltext0:
	.section	.text.unlikely.size_to_level,"ax",@progbits
.LCOLDB0:
	.section	.text.size_to_level,"ax",@progbits
.LHOTB0:
	.section	.text.unlikely.size_to_level
.Ltext_cold0:
	.section	.text.size_to_level
	.type	size_to_level, @function
size_to_level:
.LFB15:
	.file 1 "kernel/rhino/core/k_mm.c"
	.loc 1 79 0
	.cfi_startproc
.LVL0:
	pushl	%ebp
	.cfi_def_cfa_offset 8
	.cfi_offset 5, -8
.LBB15:
.LBB16:
	.file 2 "./kernel/rhino/core/include/k_bitmap.h"
	.loc 2 55 0
	testl	%eax, %eax
	movb	$32, %dl
.LBE16:
.LBE15:
	.loc 1 79 0
	movl	%esp, %ebp
	.cfi_def_cfa_register 5
.LBB18:
.LBB17:
	.loc 2 55 0
	je	.L2
	.loc 2 53 0
	xorl	%edx, %edx
	.loc 2 59 0
	testl	$-65536, %eax
	jne	.L3
	.loc 2 60 0
	sall	$16, %eax
.LVL1:
	.loc 2 61 0
	movb	$16, %dl
.LVL2:
.L3:
	.loc 2 63 0
	testl	$-16777216, %eax
	jne	.L4
	.loc 2 64 0
	sall	$8, %eax
.LVL3:
	.loc 2 65 0
	addl	$8, %edx
.LVL4:
.L4:
	.loc 2 67 0
	testl	$-268435456, %eax
	jne	.L5
	.loc 2 68 0
	sall	$4, %eax
.LVL5:
	.loc 2 69 0
	addl	$4, %edx
.LVL6:
.L5:
	.loc 2 71 0
	testl	$-1073741824, %eax
	jne	.L6
	.loc 2 72 0
	sall	$2, %eax
.LVL7:
	.loc 2 73 0
	addl	$2, %edx
.LVL8:
.L6:
	.loc 2 76 0
	cmpl	$-2147483648, %eax
	adcb	$0, %dl
.LVL9:
.L2:
.LBE17:
.LBE18:
	.loc 1 81 0
	movzbl	%dl, %edx
	movl	$32, %eax
	subl	%edx, %eax
	movl	%eax, %edx
.LVL10:
	.loc 1 83 0
	xorl	%eax, %eax
.LVL11:
	.loc 1 82 0
	cmpl	$5, %edx
	jle	.L7
	.loc 1 89 0
	leal	-6(%edx), %eax
	cmpl	$19, %edx
	movl	$-1, %edx
.LVL12:
	cmovg	%edx, %eax
.LVL13:
.L7:
	.loc 1 90 0
	popl	%ebp
	.cfi_restore 5
	.cfi_def_cfa 4, 4
	ret
	.cfi_endproc
.LFE15:
	.size	size_to_level, .-size_to_level
	.section	.text.unlikely.size_to_level
.LCOLDE0:
	.section	.text.size_to_level
.LHOTE0:
	.section	.text.unlikely.removesize,"ax",@progbits
.LCOLDB1:
	.section	.text.removesize,"ax",@progbits
.LHOTB1:
	.type	removesize, @function
removesize:
.LFB17:
	.loc 1 117 0
	.cfi_startproc
.LVL14:
	.loc 1 118 0
	movl	12(%eax), %ecx
	.loc 1 117 0
	pushl	%ebp
	.cfi_def_cfa_offset 8
	.cfi_offset 5, -8
	movl	%esp, %ebp
	.cfi_def_cfa_register 5
	.loc 1 118 0
	cmpl	%edx, %ecx
	jbe	.L18
	.loc 1 119 0
	subl	%edx, %ecx
	movl	%ecx, 12(%eax)
	jmp	.L19
.L18:
	.loc 1 121 0
	movl	$0, 12(%eax)
.L19:
	.loc 1 123 0
	addl	%edx, 20(%eax)
	.loc 1 124 0
	popl	%ebp
	.cfi_restore 5
	.cfi_def_cfa 4, 4
	ret
	.cfi_endproc
.LFE17:
	.size	removesize, .-removesize
	.section	.text.unlikely.removesize
.LCOLDE1:
	.section	.text.removesize
.LHOTE1:
	.section	.text.unlikely.k_mm_freelist_insert,"ax",@progbits
.LCOLDB2:
	.section	.text.k_mm_freelist_insert,"ax",@progbits
.LHOTB2:
	.type	k_mm_freelist_insert, @function
k_mm_freelist_insert:
.LFB24:
	.loc 1 340 0
	.cfi_startproc
.LVL15:
	pushl	%ebp
	.cfi_def_cfa_offset 8
	.cfi_offset 5, -8
	movl	%esp, %ebp
	.cfi_def_cfa_register 5
	pushl	%esi
	.cfi_offset 6, -12
	movl	%eax, %esi
	pushl	%ebx
	.cfi_offset 3, -16
	.loc 1 343 0
	movl	12(%edx), %eax
.LVL16:
	.loc 1 340 0
	movl	%edx, %ebx
	.loc 1 343 0
	andl	$-8, %eax
	call	size_to_level
.LVL17:
	.loc 1 344 0
	cmpl	$14, %eax
	ja	.L21
	leal	(%esi,%eax,4), %edx
	.loc 1 350 0
	movl	$0, 16(%ebx)
	.loc 1 351 0
	movl	88(%edx), %ecx
	movl	%ecx, 20(%ebx)
	.loc 1 353 0
	movl	88(%edx), %ecx
	testl	%ecx, %ecx
	je	.L23
	.loc 1 354 0
	movl	%ebx, 16(%ecx)
.L23:
	.loc 1 357 0
	movl	%ebx, 88(%edx)
	.loc 1 360 0
	movb	%al, %cl
	movl	$1, %edx
	sall	%cl, %edx
	orl	%edx, 84(%esi)
.L21:
	.loc 1 361 0
	popl	%ebx
	.cfi_restore 3
.LVL18:
	popl	%esi
	.cfi_restore 6
.LVL19:
	popl	%ebp
	.cfi_restore 5
	.cfi_def_cfa 4, 4
	ret
	.cfi_endproc
.LFE24:
	.size	k_mm_freelist_insert, .-k_mm_freelist_insert
	.section	.text.unlikely.k_mm_freelist_insert
.LCOLDE2:
	.section	.text.k_mm_freelist_insert
.LHOTE2:
	.section	.text.unlikely.k_mm_freelist_delete,"ax",@progbits
.LCOLDB3:
	.section	.text.k_mm_freelist_delete,"ax",@progbits
.LHOTB3:
	.type	k_mm_freelist_delete, @function
k_mm_freelist_delete:
.LFB25:
	.loc 1 365 0
	.cfi_startproc
.LVL20:
	pushl	%ebp
	.cfi_def_cfa_offset 8
	.cfi_offset 5, -8
	movl	%esp, %ebp
	.cfi_def_cfa_register 5
	pushl	%esi
	.cfi_offset 6, -12
	movl	%eax, %esi
	pushl	%ebx
	.cfi_offset 3, -16
	.loc 1 368 0
	movl	12(%edx), %eax
.LVL21:
	.loc 1 365 0
	movl	%edx, %ebx
	.loc 1 368 0
	andl	$-8, %eax
	call	size_to_level
.LVL22:
	.loc 1 369 0
	cmpl	$14, %eax
	ja	.L28
	.loc 1 373 0
	movl	20(%ebx), %edx
	testl	%edx, %edx
	je	.L30
	.loc 1 374 0
	movl	16(%ebx), %ecx
	movl	%ecx, 16(%edx)
.L30:
	.loc 1 376 0
	movl	16(%ebx), %ecx
	testl	%ecx, %ecx
	je	.L31
	.loc 1 377 0
	movl	%edx, 20(%ecx)
.L31:
	leal	(%esi,%eax,4), %ecx
	.loc 1 380 0
	cmpl	88(%ecx), %ebx
	jne	.L33
	.loc 1 382 0
	movl	20(%ebx), %edx
	.loc 1 383 0
	testl	%edx, %edx
	.loc 1 382 0
	movl	%edx, 88(%ecx)
	.loc 1 383 0
	jne	.L33
	.loc 1 385 0
	movl	$-2, %edx
	movb	%al, %cl
	roll	%cl, %edx
	andl	%edx, 84(%esi)
.L33:
	.loc 1 389 0
	movl	$0, 16(%ebx)
	.loc 1 390 0
	movl	$0, 20(%ebx)
.L28:
	.loc 1 391 0
	popl	%ebx
	.cfi_restore 3
.LVL23:
	popl	%esi
	.cfi_restore 6
.LVL24:
	popl	%ebp
	.cfi_restore 5
	.cfi_def_cfa 4, 4
	ret
	.cfi_endproc
.LFE25:
	.size	k_mm_freelist_delete, .-k_mm_freelist_delete
	.section	.text.unlikely.k_mm_freelist_delete
.LCOLDE3:
	.section	.text.k_mm_freelist_delete
.LHOTE3:
	.section	.text.unlikely.addsize,"ax",@progbits
.LCOLDB4:
	.section	.text.addsize,"ax",@progbits
.LHOTB4:
	.type	addsize, @function
addsize:
.LFB16:
	.loc 1 94 0
	.cfi_startproc
.LVL25:
	pushl	%ebp
	.cfi_def_cfa_offset 8
	.cfi_offset 5, -8
	movl	%esp, %ebp
	.cfi_def_cfa_register 5
	pushl	%ebx
	.cfi_offset 3, -12
	.loc 1 94 0
	movl	%eax, %ebx
	.loc 1 97 0
	movl	20(%eax), %eax
.LVL26:
	cmpl	%edx, %eax
	jbe	.L43
	.loc 1 98 0
	subl	%edx, %eax
	movl	%eax, 20(%ebx)
	jmp	.L44
.L43:
	.loc 1 100 0
	movl	$0, 20(%ebx)
.L44:
	.loc 1 103 0
	addl	12(%ebx), %edx
.LVL27:
	.loc 1 104 0
	cmpl	16(%ebx), %edx
	.loc 1 103 0
	movl	%edx, 12(%ebx)
	.loc 1 104 0
	jbe	.L45
	.loc 1 105 0
	movl	%edx, 16(%ebx)
.L45:
	.loc 1 108 0
	testl	%ecx, %ecx
	je	.L42
	movl	%ecx, %eax
.LVL28:
.LBB21:
.LBB22:
	.loc 1 109 0
	call	size_to_level
.LVL29:
	.loc 1 110 0
	cmpl	$-1, %eax
	je	.L42
	.loc 1 111 0
	incl	24(%ebx,%eax,4)
.LVL30:
.L42:
.LBE22:
.LBE21:
	.loc 1 114 0
	popl	%ebx
	.cfi_restore 3
.LVL31:
	popl	%ebp
	.cfi_restore 5
	.cfi_def_cfa 4, 4
	ret
	.cfi_endproc
.LFE16:
	.size	addsize, .-addsize
	.section	.text.unlikely.addsize
.LCOLDE4:
	.section	.text.addsize
.LHOTE4:
	.section	.text.unlikely.k_mm_smallblk_free,"ax",@progbits
.LCOLDB5:
	.section	.text.k_mm_smallblk_free,"ax",@progbits
.LHOTB5:
	.type	k_mm_smallblk_free, @function
k_mm_smallblk_free:
.LFB23:
	.loc 1 322 0
	.cfi_startproc
.LVL32:
	.loc 1 325 0
	testl	%eax, %eax
	je	.L61
	testl	%edx, %edx
	je	.L61
	.loc 1 322 0
	pushl	%ebp
	.cfi_def_cfa_offset 8
	.cfi_offset 5, -8
	movl	%esp, %ebp
	.cfi_def_cfa_register 5
	pushl	%ebx
	.cfi_offset 3, -12
	movl	%eax, %ebx
.LVL33:
	subl	$12, %esp
.LBB25:
.LBB26:
	.loc 1 329 0
	pushl	%edx
	pushl	8(%eax)
	call	krhino_mblk_free
.LVL34:
	.loc 1 330 0
	addl	$16, %esp
	testl	%eax, %eax
	je	.L56
	.loc 1 331 0
	subl	$12, %esp
	pushl	$1
	call	k_err_proc
.LVL35:
	addl	$16, %esp
.L56:
	.loc 1 334 0
	movl	%ebx, %eax
.LBE26:
.LBE25:
	.loc 1 335 0
	movl	-4(%ebp), %ebx
.LVL36:
.LBB29:
.LBB27:
	.loc 1 334 0
	movl	$32, %edx
.LBE27:
.LBE29:
	.loc 1 335 0
	leave
	.cfi_restore 5
	.cfi_restore 3
	.cfi_def_cfa 4, 4
.LBB30:
.LBB28:
	.loc 1 334 0
	jmp	removesize
.LVL37:
.L61:
	ret
.LBE28:
.LBE30:
	.cfi_endproc
.LFE23:
	.size	k_mm_smallblk_free, .-k_mm_smallblk_free
	.section	.text.unlikely.k_mm_smallblk_free
.LCOLDE5:
	.section	.text.k_mm_smallblk_free
.LHOTE5:
	.section	.rodata.str1.1,"aMS",@progbits,1
.LC6:
	.string	"     free     |     used     |     maxused\r"
.LC7:
	.string	"  %10d  |  %10d  |  %10d\r\n"
.LC8:
	.string	"\r"
	.section	.text.unlikely.show_mm,"ax",@progbits
.LCOLDB9:
	.section	.text.show_mm,"ax",@progbits
.LHOTB9:
	.globl	show_mm
	.type	show_mm, @function
show_mm:
.LFB19:
	.loc 1 231 0
	.cfi_startproc
	pushl	%ebp
	.cfi_def_cfa_offset 8
	.cfi_offset 5, -8
	movl	%esp, %ebp
	.cfi_def_cfa_register 5
	subl	$20, %esp
	.loc 1 235 0
	pushl	$.LC6
	call	puts
.LVL38:
	.loc 1 237 0
	movl	g_kmm_head, %eax
	.loc 1 236 0
	pushl	16(%eax)
	pushl	12(%eax)
	pushl	20(%eax)
	pushl	$.LC7
	call	printf
.LVL39:
	.loc 1 238 0
	addl	$20, %esp
	pushl	$.LC8
	call	puts
.LVL40:
	.loc 1 240 0
	addl	$16, %esp
	leave
	.cfi_restore 5
	.cfi_def_cfa 4, 4
	ret
	.cfi_endproc
.LFE19:
	.size	show_mm, .-show_mm
	.section	.text.unlikely.show_mm
.LCOLDE9:
	.section	.text.show_mm
.LHOTE9:
	.section	.text.unlikely.krhino_deinit_mm_head,"ax",@progbits
.LCOLDB10:
	.section	.text.krhino_deinit_mm_head,"ax",@progbits
.LHOTB10:
	.globl	krhino_deinit_mm_head
	.type	krhino_deinit_mm_head, @function
krhino_deinit_mm_head:
.LFB20:
	.loc 1 244 0
	.cfi_startproc
.LVL41:
	pushl	%ebp
	.cfi_def_cfa_offset 8
	.cfi_offset 5, -8
	.loc 1 249 0
	xorl	%eax, %eax
	movl	$37, %ecx
	.loc 1 244 0
	movl	%esp, %ebp
	.cfi_def_cfa_register 5
	pushl	%edi
	.cfi_offset 7, -12
	.loc 1 249 0
	movl	8(%ebp), %edi
	rep stosl
	.loc 1 251 0
	popl	%edi
	.cfi_restore 7
	popl	%ebp
	.cfi_restore 5
	.cfi_def_cfa 4, 4
	ret
	.cfi_endproc
.LFE20:
	.size	krhino_deinit_mm_head, .-krhino_deinit_mm_head
	.section	.text.unlikely.krhino_deinit_mm_head
.LCOLDE10:
	.section	.text.krhino_deinit_mm_head
.LHOTE10:
	.section	.text.unlikely.k_mm_alloc,"ax",@progbits
.LCOLDB11:
	.section	.text.k_mm_alloc,"ax",@progbits
.LHOTB11:
	.globl	k_mm_alloc
	.type	k_mm_alloc, @function
k_mm_alloc:
.LFB27:
	.loc 1 409 0
	.cfi_startproc
.LVL42:
	pushl	%ebp
	.cfi_def_cfa_offset 8
	.cfi_offset 5, -8
	movl	%esp, %ebp
	.cfi_def_cfa_register 5
	pushl	%edi
	pushl	%esi
	pushl	%ebx
	subl	$44, %esp
	.cfi_offset 7, -12
	.cfi_offset 6, -16
	.cfi_offset 3, -20
	.loc 1 409 0
	movl	8(%ebp), %ebx
	movl	%gs:20, %eax
	movl	%eax, -28(%ebp)
	xorl	%eax, %eax
.LVL43:
	.loc 1 425 0
	testl	%ebx, %ebx
	je	.L83
	cmpl	$0, 12(%ebp)
	je	.L83
.LVL44:
.LBB40:
	.loc 1 429 0
	call	cpu_intrpt_save
.LVL45:
	movl	%eax, (%ebx)
.LBE40:
	.loc 1 433 0
	movl	8(%ebx), %eax
.LVL46:
	.loc 1 435 0
	testl	%eax, %eax
	je	.L68
	cmpl	$32, 12(%ebp)
	ja	.L68
	.loc 1 435 0 is_stmt 0 discriminator 1
	cmpl	$0, 16(%eax)
	je	.L68
.LVL47:
.LBB41:
.LBB42:
	.loc 1 312 0 is_stmt 1
	pushl	%edx
	pushl	%edx
	leal	-32(%ebp), %edx
	pushl	%edx
	pushl	%eax
	call	krhino_mblk_alloc
.LVL48:
	.loc 1 313 0
	addl	$16, %esp
	testl	%eax, %eax
	jne	.L68
	.loc 1 317 0
	xorl	%ecx, %ecx
	movl	$32, %edx
	movl	%ebx, %eax
.LVL49:
	call	addsize
.LVL50:
	.loc 1 319 0
	movl	-32(%ebp), %esi
.LVL51:
.LBE42:
.LBE41:
	.loc 1 437 0
	testl	%esi, %esi
	jne	.L70
.LVL52:
.L68:
	.loc 1 447 0
	movl	12(%ebp), %eax
	leal	7(%eax), %edi
	.loc 1 448 0
	movl	$32, %eax
	.loc 1 447 0
	andl	$-8, %edi
.LVL53:
	.loc 1 448 0
	cmpl	$32, %edi
	cmovb	%eax, %edi
.LVL54:
	.loc 1 445 0
	xorl	%esi, %esi
	.loc 1 450 0
	movl	%edi, %eax
	call	size_to_level
.LVL55:
	cmpl	$-1, %eax
	je	.L70
.LVL56:
.LBB43:
.LBB44:
	.loc 1 398 0
	leal	1(%eax), %ecx
	orl	$-1, %edx
	sall	%cl, %edx
.LVL57:
.LBB45:
.LBB46:
	.loc 2 88 0
	andl	84(%ebx), %edx
.LVL58:
	.loc 2 89 0
	movb	$32, %cl
	.loc 2 88 0
	je	.L71
	.loc 2 86 0
	xorl	%ecx, %ecx
	.loc 2 92 0
	testw	%dx, %dx
	jne	.L72
	.loc 2 93 0
	shrl	$16, %edx
.LVL59:
	.loc 2 94 0
	movb	$16, %cl
.LVL60:
.L72:
	.loc 2 96 0
	testb	%dl, %dl
	jne	.L73
	.loc 2 97 0
	shrl	$8, %edx
.LVL61:
	.loc 2 98 0
	addl	$8, %ecx
.LVL62:
.L73:
	.loc 2 100 0
	testb	$15, %dl
	jne	.L74
	.loc 2 101 0
	shrl	$4, %edx
.LVL63:
	.loc 2 102 0
	addl	$4, %ecx
.LVL64:
.L74:
	.loc 2 104 0
	testb	$3, %dl
	jne	.L75
	.loc 2 105 0
	shrl	$2, %edx
.LVL65:
	.loc 2 106 0
	addl	$2, %ecx
.LVL66:
.L75:
	.loc 2 108 0
	andb	$1, %dl
.LVL67:
	.loc 2 109 0
	sete	%dl
	addl	%edx, %ecx
.LVL68:
.L71:
.LBE46:
.LBE45:
	.loc 1 401 0
	cmpb	$14, %cl
	.loc 1 399 0
	movzbl	%cl, %edx
.LVL69:
	.loc 1 401 0
	ja	.L76
	.loc 1 402 0
	movl	88(%ebx,%edx,4), %ecx
.LVL70:
.LBE44:
.LBE43:
	.loc 1 456 0
	testl	%ecx, %ecx
	jne	.L77
.L76:
	.loc 1 458 0
	movl	88(%ebx,%eax,4), %ecx
.LVL71:
.L78:
	.loc 1 459 0
	testl	%ecx, %ecx
	je	.L100
	.loc 1 460 0
	movl	12(%ecx), %eax
	andl	$-8, %eax
	cmpl	%eax, %edi
	jbe	.L77
	.loc 1 463 0
	movl	20(%ecx), %ecx
.LVL72:
	jmp	.L78
.L100:
	.loc 1 445 0
	xorl	%esi, %esi
	jmp	.L70
.LVL73:
.L77:
	.loc 1 471 0
	movl	%ecx, %edx
	movl	%ebx, %eax
	movl	%ecx, -44(%ebp)
	call	k_mm_freelist_delete
.LVL74:
	.loc 1 473 0
	movl	-44(%ebp), %ecx
	movl	12(%ecx), %eax
	leal	16(%ecx), %esi
	movl	%eax, -44(%ebp)
.LVL75:
	andl	$-8, %eax
	leal	(%esi,%eax), %edx
	movl	%edx, -48(%ebp)
.LVL76:
	.loc 1 476 0
	leal	48(%edi), %edx
.LVL77:
	cmpl	%edx, %eax
	jb	.L80
.LVL78:
	.loc 1 479 0
	movl	-44(%ebp), %edx
	.loc 1 483 0
	subl	$16, %eax
.LVL79:
	.loc 1 482 0
	movl	%ecx, -44(%ebp)
	.loc 1 483 0
	subl	%edi, %eax
.LVL80:
	orl	$1, %eax
	.loc 1 479 0
	andl	$2, %edx
.LVL81:
	orl	%edi, %edx
	movl	%edx, 12(%ecx)
.LVL82:
	.loc 1 480 0
	andl	$-8, %edx
	addl	%esi, %edx
.LVL83:
	.loc 1 483 0
	movl	%eax, 12(%edx)
	.loc 1 488 0
	movl	-48(%ebp), %eax
	.loc 1 482 0
	movl	%ecx, 8(%edx)
	.loc 1 485 0
	movl	$-1414812757, (%edx)
	.loc 1 486 0
	movl	$0, 4(%edx)
	.loc 1 488 0
	movl	%edx, 8(%eax)
	.loc 1 489 0
	movl	%ebx, %eax
	call	k_mm_freelist_insert
.LVL84:
	movl	-44(%ebp), %ecx
	jmp	.L81
.L80:
	.loc 1 491 0
	movl	-48(%ebp), %eax
	andl	$-3, 12(%eax)
.L81:
	.loc 1 493 0
	movl	12(%ecx), %edx
	.loc 1 496 0
	movl	$-16843010, (%ecx)
	.loc 1 497 0
	movl	$0, 4(%ecx)
.LVL85:
	.loc 1 493 0
	movl	%edx, %eax
	.loc 1 501 0
	andl	$-8, %edx
	.loc 1 493 0
	andl	$-2, %eax
	.loc 1 501 0
	addl	$16, %edx
	.loc 1 493 0
	movl	%eax, 12(%ecx)
	.loc 1 501 0
	movl	12(%ebp), %ecx
	movl	%ebx, %eax
	call	addsize
.LVL86:
.L70:
.LBB47:
	.loc 1 506 0
	subl	$12, %esp
	pushl	(%ebx)
	call	cpu_intrpt_restore
.LVL87:
.LBE47:
	.loc 1 508 0
	addl	$16, %esp
	jmp	.L67
.LVL88:
.L83:
	.loc 1 426 0
	xorl	%esi, %esi
.LVL89:
.L67:
	.loc 1 509 0
	movl	%esi, %eax
	movl	-28(%ebp), %esi
	xorl	%gs:20, %esi
	je	.L82
	call	__stack_chk_fail
.LVL90:
.L82:
	leal	-12(%ebp), %esp
	popl	%ebx
	.cfi_restore 3
	popl	%esi
	.cfi_restore 6
	popl	%edi
	.cfi_restore 7
	popl	%ebp
	.cfi_restore 5
	.cfi_def_cfa 4, 4
	ret
	.cfi_endproc
.LFE27:
	.size	k_mm_alloc, .-k_mm_alloc
	.section	.text.unlikely.k_mm_alloc
.LCOLDE11:
	.section	.text.k_mm_alloc
.LHOTE11:
	.section	.rodata.str1.1
.LC12:
	.string	"WARNING!! memory maybe double free!!\r"
.LC13:
	.string	"WARNING,memory maybe corrupt!!\r"
.LC14:
	.string	"WARNING,memory overwritten!!\r"
	.section	.text.unlikely.k_mm_free,"ax",@progbits
.LCOLDB15:
	.section	.text.k_mm_free,"ax",@progbits
.LHOTB15:
	.globl	k_mm_free
	.type	k_mm_free, @function
k_mm_free:
.LFB28:
	.loc 1 512 0
	.cfi_startproc
.LVL91:
	pushl	%ebp
	.cfi_def_cfa_offset 8
	.cfi_offset 5, -8
	movl	%esp, %ebp
	.cfi_def_cfa_register 5
	pushl	%edi
	pushl	%esi
	pushl	%ebx
	subl	$12, %esp
	.cfi_offset 7, -12
	.cfi_offset 6, -16
	.cfi_offset 3, -20
	.loc 1 512 0
	movl	12(%ebp), %ebx
	movl	8(%ebp), %esi
	.loc 1 515 0
	testl	%ebx, %ebx
	je	.L101
	testl	%esi, %esi
	je	.L101
.LVL92:
.LBB57:
.LBB58:
.LBB59:
	.loc 1 519 0
	call	cpu_intrpt_save
.LVL93:
.LBE59:
	.loc 1 523 0
	movl	8(%esi), %edx
.LBB60:
	.loc 1 519 0
	movl	%eax, (%esi)
.LBE60:
	.loc 1 523 0
	testl	%edx, %edx
	je	.L103
	.loc 1 523 0
	cmpl	8(%edx), %ebx
	jb	.L103
	cmpl	4(%edx), %ebx
	jnb	.L103
	.loc 1 525 0
	movl	%ebx, %edx
	movl	%esi, %eax
	call	k_mm_smallblk_free
.LVL94:
	jmp	.L124
.LVL95:
.L103:
	.loc 1 534 0
	cmpl	$-1414812757, -16(%ebx)
	jne	.L104
.LVL96:
.LBB61:
	.loc 1 535 0
	subl	$12, %esp
	pushl	%eax
	call	cpu_intrpt_restore
.LVL97:
.LBE61:
	.loc 1 536 0
	movl	$.LC12, (%esp)
	call	puts
.LVL98:
	.loc 1 537 0
	movl	$1, (%esp)
	call	k_err_proc
.LVL99:
	addl	$16, %esp
.LVL100:
.L104:
	.loc 1 539 0
	cmpl	$-16843010, -16(%ebx)
	je	.L105
.LVL101:
.LBB62:
	.loc 1 540 0
	subl	$12, %esp
	pushl	(%esi)
	call	cpu_intrpt_restore
.LVL102:
.LBE62:
	.loc 1 541 0
	movl	$.LC13, (%esp)
	call	puts
.LVL103:
	.loc 1 542 0
	movl	$1, (%esp)
	call	k_err_proc
.LVL104:
	addl	$16, %esp
.LVL105:
.L105:
	.loc 1 547 0
	movl	-4(%ebx), %edx
	.loc 1 544 0
	movl	$-1414812757, -16(%ebx)
	.loc 1 545 0
	movl	$0, -12(%ebx)
	.loc 1 547 0
	movl	%edx, %eax
	.loc 1 549 0
	andl	$-8, %edx
	.loc 1 547 0
	orl	$1, %eax
	.loc 1 549 0
	addl	$16, %edx
	.loc 1 547 0
	movl	%eax, -4(%ebx)
	.loc 1 549 0
	movl	%esi, %eax
	call	removesize
.LVL106:
	.loc 1 552 0
	movl	-4(%ebx), %edi
	andl	$-8, %edi
	addl	%ebx, %edi
.LVL107:
	.loc 1 553 0
	testb	$1, 12(%edi)
	je	.L106
	.loc 1 554 0
	movl	%edi, %edx
	movl	%esi, %eax
	call	k_mm_freelist_delete
.LVL108:
	.loc 1 555 0
	movl	12(%edi), %eax
	movl	-4(%ebx), %edx
	andl	$-8, %eax
	leal	16(%eax,%edx), %eax
	movl	%eax, -4(%ebx)
.L106:
	.loc 1 559 0
	testb	$2, -4(%ebx)
	.loc 1 531 0
	leal	-16(%ebx), %edi
.LVL109:
	.loc 1 559 0
	je	.L108
	.loc 1 560 0
	movl	-8(%ebx), %edi
.LVL110:
	.loc 1 562 0
	cmpl	$-1414812757, (%edi)
	je	.L109
.LVL111:
.LBB63:
	.loc 1 563 0
	subl	$12, %esp
	pushl	(%esi)
	call	cpu_intrpt_restore
.LVL112:
.LBE63:
	.loc 1 564 0
	movl	$.LC14, (%esp)
	call	puts
.LVL113:
	.loc 1 565 0
	movl	$1, (%esp)
	call	k_err_proc
.LVL114:
	addl	$16, %esp
.LVL115:
.L109:
	.loc 1 568 0
	movl	%edi, %edx
	movl	%esi, %eax
	call	k_mm_freelist_delete
.LVL116:
	.loc 1 569 0
	movl	-4(%ebx), %eax
	movl	12(%edi), %edx
	andl	$-8, %eax
	leal	16(%eax,%edx), %eax
	movl	%eax, 12(%edi)
.LVL117:
.L108:
	.loc 1 574 0
	movl	%esi, %eax
	movl	%edi, %edx
	call	k_mm_freelist_insert
.LVL118:
	.loc 1 576 0
	movl	12(%edi), %eax
	andl	$-8, %eax
	leal	16(%edi,%eax), %ebx
.LVL119:
	.loc 1 578 0
	movl	(%ebx), %eax
	cmpl	$-1414812757, %eax
	je	.L110
	cmpl	$-16843010, %eax
	je	.L110
.LVL120:
.LBB64:
	.loc 1 579 0
	subl	$12, %esp
	pushl	(%esi)
	call	cpu_intrpt_restore
.LVL121:
.LBE64:
	.loc 1 580 0
	movl	$.LC14, (%esp)
	call	puts
.LVL122:
	.loc 1 581 0
	movl	$1, (%esp)
	call	k_err_proc
.LVL123:
	addl	$16, %esp
.LVL124:
.L110:
	.loc 1 585 0
	orl	$2, 12(%ebx)
	.loc 1 584 0
	movl	%edi, 8(%ebx)
.LVL125:
.L124:
.LBB65:
	.loc 1 587 0
	movl	(%esi), %eax
	movl	%eax, 8(%ebp)
.LBE65:
.LBE58:
.LBE57:
	.loc 1 588 0
	leal	-12(%ebp), %esp
	popl	%ebx
	.cfi_remember_state
	.cfi_restore 3
	popl	%esi
	.cfi_restore 6
.LVL126:
	popl	%edi
	.cfi_restore 7
	popl	%ebp
	.cfi_restore 5
	.cfi_def_cfa 4, 4
.LBB68:
.LBB67:
.LBB66:
	.loc 1 587 0
	jmp	cpu_intrpt_restore
.LVL127:
.L101:
	.cfi_restore_state
.LBE66:
.LBE67:
.LBE68:
	.loc 1 588 0
	leal	-12(%ebp), %esp
	popl	%ebx
	.cfi_restore 3
	popl	%esi
	.cfi_restore 6
	popl	%edi
	.cfi_restore 7
	popl	%ebp
	.cfi_restore 5
	.cfi_def_cfa 4, 4
	ret
	.cfi_endproc
.LFE28:
	.size	k_mm_free, .-k_mm_free
	.section	.text.unlikely.k_mm_free
.LCOLDE15:
	.section	.text.k_mm_free
.LHOTE15:
	.section	.rodata.str1.1
.LC16:
	.string	"fixed_mm_blk"
	.section	.text.unlikely.krhino_init_mm_head,"ax",@progbits
.LCOLDB17:
	.section	.text.krhino_init_mm_head,"ax",@progbits
.LHOTB17:
	.globl	krhino_init_mm_head
	.type	krhino_init_mm_head, @function
krhino_init_mm_head:
.LFB18:
	.loc 1 136 0
	.cfi_startproc
.LVL128:
	pushl	%ebp
	.cfi_def_cfa_offset 8
	.cfi_offset 5, -8
	movl	%esp, %ebp
	.cfi_def_cfa_register 5
	pushl	%edi
	pushl	%esi
	pushl	%ebx
	subl	$12, %esp
	.cfi_offset 7, -12
	.cfi_offset 6, -16
	.cfi_offset 3, -20
	.loc 1 136 0
	movl	12(%ebp), %esi
	.loc 1 147 0
	testl	%esi, %esi
	je	.L129
	cmpl	$0, 8(%ebp)
	je	.L129
.LVL129:
.LBB73:
.LBB74:
	.loc 1 154 0
	leal	7(%esi), %ebx
	.loc 1 155 0
	addl	16(%ebp), %esi
.LVL130:
	.loc 1 161 0
	movl	$100, %eax
	.loc 1 154 0
	andl	$-8, %ebx
.LVL131:
	.loc 1 155 0
	subl	%ebx, %esi
.LVL132:
	.loc 1 156 0
	andl	$-8, %esi
.LVL133:
	.loc 1 158 0
	leal	-9216(%esi), %edx
	cmpl	$515072, %edx
	ja	.L126
.LVL134:
	.loc 1 167 0
	xorl	%eax, %eax
	movl	$37, %ecx
	movl	%ebx, %edi
	rep stosl
	.loc 1 174 0
	leal	152(%ebx), %eax
.LVL135:
.LBB75:
.LBB76:
	.loc 1 57 0
	leal	192(%ebx), %edi
	.loc 1 45 0
	movl	$8, 164(%ebx)
	.loc 1 44 0
	movl	$0, 160(%ebx)
	.loc 1 48 0
	movl	$-16843010, 152(%ebx)
	.loc 1 53 0
	leal	-168(%eax,%esi), %edx
.LVL136:
	.loc 1 49 0
	movl	$0, 156(%ebx)
	.loc 1 59 0
	movl	$0, 196(%ebx)
	movl	$0, 192(%ebx)
.LBE76:
.LBE75:
	.loc 1 182 0
	movl	8(%ebp), %eax
.LVL137:
.LBB80:
.LBB77:
	.loc 1 57 0
	movl	%edx, %ecx
	subl	%edi, %ecx
	movl	%ecx, 188(%ebx)
	.loc 1 64 0
	movl	$2, 12(%edx)
	.loc 1 56 0
	leal	176(%ebx), %ecx
.LBE77:
.LBE80:
	.loc 1 180 0
	movl	164(%ebx), %edi
.LBB81:
.LBB78:
	.loc 1 66 0
	movl	$-16843010, (%edx)
	.loc 1 56 0
	movl	%ecx, 8(%edx)
	.loc 1 67 0
	movl	$0, 4(%edx)
.LVL138:
	.loc 1 72 0
	movl	%edx, 168(%ebx)
.LVL139:
.LBE78:
.LBE81:
	.loc 1 178 0
	leal	168(%ebx), %edx
.LBB82:
.LBB79:
	.loc 1 71 0
	movl	$0, 172(%ebx)
.LBE79:
.LBE82:
	.loc 1 180 0
	andl	$-8, %edi
	addl	%edx, %edi
.LVL140:
	.loc 1 178 0
	movl	%edx, 4(%ebx)
	.loc 1 182 0
	movl	%ebx, (%eax)
	.loc 1 191 0
	leal	16(%edi), %eax
	.loc 1 186 0
	movl	$-16843010, (%edi)
	.loc 1 187 0
	movl	$0, 4(%edi)
	.loc 1 191 0
	pushl	%edx
	pushl	%edx
	pushl	%eax
	pushl	%ebx
	call	k_mm_free
.LVL141:
	.loc 1 196 0
	movl	12(%edi), %eax
	.loc 1 201 0
	movl	$0, 8(%ebx)
	.loc 1 196 0
	andl	$-8, %eax
	.loc 1 197 0
	subl	%eax, %esi
.LVL142:
	.loc 1 196 0
	movl	%eax, 20(%ebx)
	.loc 1 197 0
	movl	%esi, 12(%ebx)
	.loc 1 198 0
	movl	%esi, 16(%ebx)
	.loc 1 205 0
	popl	%ecx
	popl	%esi
	pushl	$8232
	pushl	%ebx
	call	k_mm_alloc
.LVL143:
	movl	%eax, %esi
.LVL144:
	.loc 1 207 0
	addl	$16, %esp
	.loc 1 226 0
	xorl	%eax, %eax
.LVL145:
	.loc 1 207 0
	testl	%esi, %esi
	je	.L126
	.loc 1 208 0
	leal	40(%esi), %eax
	subl	$12, %esp
	pushl	$8192
	pushl	$32
	pushl	%eax
	pushl	$.LC16
	pushl	%esi
	call	krhino_mblk_pool_init
.LVL146:
	.loc 1 211 0
	addl	$32, %esp
	testl	%eax, %eax
	jne	.L127
	.loc 1 212 0
	movl	%esi, 8(%ebx)
	.loc 1 214 0
	movl	$8192, %edx
	movl	%ebx, %eax
.LVL147:
	call	removesize
.LVL148:
	jmp	.L128
.LVL149:
.L127:
.LVL150:
	.loc 1 218 0
	pushl	%eax
	pushl	%eax
	pushl	%esi
	pushl	%ebx
	call	k_mm_free
.LVL151:
	addl	$16, %esp
.L128:
	.loc 1 221 0
	movl	12(%ebx), %eax
	movl	%eax, 16(%ebx)
	.loc 1 226 0
	xorl	%eax, %eax
	jmp	.L126
.LVL152:
.L129:
.LBE74:
.LBE73:
	.loc 1 147 0
	movl	$6, %eax
.L126:
	.loc 1 227 0
	leal	-12(%ebp), %esp
	popl	%ebx
	.cfi_restore 3
	popl	%esi
	.cfi_restore 6
	popl	%edi
	.cfi_restore 7
	popl	%ebp
	.cfi_restore 5
	.cfi_def_cfa 4, 4
	ret
	.cfi_endproc
.LFE18:
	.size	krhino_init_mm_head, .-krhino_init_mm_head
	.section	.text.unlikely.krhino_init_mm_head
.LCOLDE17:
	.section	.text.krhino_init_mm_head
.LHOTE17:
	.section	.text.unlikely.krhino_add_mm_region,"ax",@progbits
.LCOLDB18:
	.section	.text.krhino_add_mm_region,"ax",@progbits
.LHOTB18:
	.globl	krhino_add_mm_region
	.type	krhino_add_mm_region, @function
krhino_add_mm_region:
.LFB21:
	.loc 1 254 0
	.cfi_startproc
.LVL153:
	pushl	%ebp
	.cfi_def_cfa_offset 8
	.cfi_offset 5, -8
	movl	%esp, %ebp
	.cfi_def_cfa_register 5
	pushl	%edi
	pushl	%esi
	pushl	%ebx
	subl	$28, %esp
	.cfi_offset 7, -12
	.cfi_offset 6, -16
	.cfi_offset 3, -20
	.loc 1 254 0
	movl	12(%ebp), %esi
	movl	8(%ebp), %edx
	.loc 1 260 0
	testl	%esi, %esi
	je	.L135
	testl	%edx, %edx
	sete	-28(%ebp)
	je	.L135
.LVL154:
.LBB89:
.LBB90:
	.loc 1 263 0
	leal	7(%esi), %ebx
	.loc 1 264 0
	addl	16(%ebp), %esi
.LVL155:
	.loc 1 268 0
	movl	$100, %eax
	.loc 1 263 0
	andl	$-8, %ebx
.LVL156:
	.loc 1 264 0
	subl	%ebx, %esi
.LVL157:
	.loc 1 265 0
	andl	$-8, %esi
.LVL158:
	.loc 1 267 0
	cmpl	$87, %esi
	jbe	.L134
	.loc 1 271 0
	movb	-28(%ebp), %al
	movl	%esi, %ecx
	movl	%ebx, %edi
	movl	%edx, -32(%ebp)
	rep stosb
.LVL159:
.LBB91:
	.loc 1 273 0
	call	cpu_intrpt_save
.LVL160:
	movl	-32(%ebp), %edx
.LBE91:
.LBB92:
.LBB93:
	.loc 1 57 0
	leal	24(%ebx), %ecx
.LBE93:
.LBE92:
.LBB97:
	.loc 1 294 0
	subl	$12, %esp
.LBE97:
.LBB98:
	.loc 1 273 0
	movl	%eax, (%edx)
.LVL161:
.LBE98:
.LBB99:
.LBB94:
	.loc 1 57 0
	leal	-16(%ebx,%esi), %eax
.LVL162:
	subl	$56, %esi
.LVL163:
	.loc 1 59 0
	movl	$0, 44(%ebx)
	movl	$0, 40(%ebx)
	.loc 1 45 0
	movl	$8, 12(%ebx)
	.loc 1 57 0
	movl	%esi, 36(%ebx)
	.loc 1 44 0
	movl	$0, 8(%ebx)
	.loc 1 48 0
	movl	$-16843010, (%ebx)
	.loc 1 49 0
	movl	$0, 4(%ebx)
	.loc 1 64 0
	movl	$2, 12(%eax)
.LBE94:
.LBE99:
	.loc 1 276 0
	movl	12(%ebx), %esi
.LVL164:
.LBB100:
.LBB95:
	.loc 1 56 0
	movl	%ecx, 8(%eax)
	.loc 1 66 0
	movl	$-16843010, (%eax)
	.loc 1 67 0
	movl	$0, 4(%eax)
.LVL165:
.LBE95:
.LBE100:
	.loc 1 280 0
	movl	4(%edx), %ecx
.LVL166:
.LBB101:
.LBB96:
	.loc 1 72 0
	movl	%eax, 16(%ebx)
.LVL167:
.LBE96:
.LBE101:
	.loc 1 276 0
	leal	16(%ebx), %eax
	andl	$-8, %esi
.LBB102:
	.loc 1 294 0
	movl	%edx, -28(%ebp)
.LBE102:
	.loc 1 276 0
	addl	%eax, %esi
.LVL168:
	.loc 1 280 0
	movl	%ecx, 20(%ebx)
	.loc 1 281 0
	movl	%eax, 4(%edx)
	.loc 1 297 0
	addl	$16, %esi
.LVL169:
	.loc 1 291 0
	movl	-4(%esi), %eax
.LVL170:
	movl	12(%edx), %ecx
	.loc 1 284 0
	movl	$-16843010, -16(%esi)
	.loc 1 285 0
	movl	$0, -12(%esi)
	.loc 1 291 0
	andl	$-8, %eax
	leal	16(%eax,%ecx), %eax
	movl	%eax, 12(%edx)
.LVL171:
.LBB103:
	.loc 1 294 0
	pushl	(%edx)
	call	cpu_intrpt_restore
.LVL172:
.LBE103:
	.loc 1 297 0
	popl	%eax
	popl	%edx
	movl	-28(%ebp), %edx
	pushl	%esi
	pushl	%edx
	call	k_mm_free
.LVL173:
	addl	$16, %esp
	.loc 1 299 0
	xorl	%eax, %eax
	jmp	.L134
.LVL174:
.L135:
.LBE90:
.LBE89:
	.loc 1 260 0
	movl	$6, %eax
.L134:
	.loc 1 300 0
	leal	-12(%ebp), %esp
	popl	%ebx
	.cfi_restore 3
	popl	%esi
	.cfi_restore 6
	popl	%edi
	.cfi_restore 7
	popl	%ebp
	.cfi_restore 5
	.cfi_def_cfa 4, 4
	ret
	.cfi_endproc
.LFE21:
	.size	krhino_add_mm_region, .-krhino_add_mm_region
	.section	.text.unlikely.krhino_add_mm_region
.LCOLDE18:
	.section	.text.krhino_add_mm_region
.LHOTE18:
	.section	.text.unlikely.k_mm_init,"ax",@progbits
.LCOLDB19:
	.section	.text.k_mm_init,"ax",@progbits
.LHOTB19:
	.globl	k_mm_init
	.type	k_mm_init, @function
k_mm_init:
.LFB13:
	.loc 1 15 0
	.cfi_startproc
.LVL175:
	pushl	%ebp
	.cfi_def_cfa_offset 8
	.cfi_offset 5, -8
	movl	%esp, %ebp
	.cfi_def_cfa_register 5
	pushl	%esi
	pushl	%ebx
	.cfi_offset 6, -12
	.cfi_offset 3, -16
	.loc 1 19 0
	pushl	%edx
	pushl	g_mm_region+4
	movl	$g_mm_region, %ebx
	pushl	g_mm_region
	pushl	$g_kmm_head
	.loc 1 20 0
	movl	$1, %esi
	.loc 1 19 0
	call	krhino_init_mm_head
.LVL176:
	.loc 1 20 0
	addl	$16, %esp
.LVL177:
.L139:
	addl	$8, %ebx
	.loc 1 20 0 is_stmt 0 discriminator 1
	cmpl	g_region_num, %esi
	jnb	.L142
	.loc 1 21 0 is_stmt 1 discriminator 3
	pushl	%eax
	pushl	4(%ebx)
	.loc 1 20 0 discriminator 3
	incl	%esi
.LVL178:
	.loc 1 21 0 discriminator 3
	pushl	(%ebx)
	pushl	g_kmm_head
	call	krhino_add_mm_region
.LVL179:
	.loc 1 20 0 discriminator 3
	addl	$16, %esp
	jmp	.L139
.L142:
	.loc 1 27 0
	leal	-8(%ebp), %esp
	popl	%ebx
	.cfi_restore 3
	popl	%esi
	.cfi_restore 6
.LVL180:
	popl	%ebp
	.cfi_restore 5
	.cfi_def_cfa 4, 4
	.loc 1 25 0
	jmp	aos_mm_leak_region_init
.LVL181:
	.cfi_endproc
.LFE13:
	.size	k_mm_init, .-k_mm_init
	.section	.text.unlikely.k_mm_init
.LCOLDE19:
	.section	.text.k_mm_init
.LHOTE19:
	.section	.text.unlikely.k_mm_realloc,"ax",@progbits
.LCOLDB20:
	.section	.text.k_mm_realloc,"ax",@progbits
.LHOTB20:
	.globl	k_mm_realloc
	.type	k_mm_realloc, @function
k_mm_realloc:
.LFB29:
	.loc 1 591 0
	.cfi_startproc
.LVL182:
	pushl	%ebp
	.cfi_def_cfa_offset 8
	.cfi_offset 5, -8
	movl	%esp, %ebp
	.cfi_def_cfa_register 5
.LVL183:
	pushl	%edi
	pushl	%esi
	pushl	%ebx
	subl	$28, %esp
	.cfi_offset 7, -12
	.cfi_offset 6, -16
	.cfi_offset 3, -20
	.loc 1 591 0
	movl	8(%ebp), %eax
	movl	12(%ebp), %ebx
	movl	%eax, -28(%ebp)
	movl	16(%ebp), %eax
	.loc 1 600 0
	testl	%ebx, %ebx
	.loc 1 591 0
	movl	%eax, -32(%ebp)
	.loc 1 600 0
	jne	.L144
	.loc 1 601 0
	testl	%eax, %eax
	je	.L156
	.loc 1 602 0
	movl	%eax, 12(%ebp)
.LVL184:
	.loc 1 731 0
	leal	-12(%ebp), %esp
	popl	%ebx
	.cfi_remember_state
	.cfi_restore 3
	popl	%esi
	.cfi_restore 6
	popl	%edi
	.cfi_restore 7
	popl	%ebp
	.cfi_restore 5
	.cfi_def_cfa 4, 4
	.loc 1 602 0
	jmp	k_mm_alloc
.LVL185:
.L144:
	.cfi_restore_state
	.loc 1 606 0
	cmpl	$0, -32(%ebp)
	jne	.L146
	.loc 1 607 0
	pushl	%eax
	pushl	%eax
	pushl	%ebx
	pushl	-28(%ebp)
	call	k_mm_free
.LVL186:
	.loc 1 608 0
	addl	$16, %esp
	jmp	.L156
.L146:
.LVL187:
.LBB104:
	.loc 1 613 0
	call	cpu_intrpt_save
.LVL188:
	movl	-28(%ebp), %edi
.LBE104:
	.loc 1 617 0
	movl	8(%edi), %edx
.LBB105:
	.loc 1 613 0
	movl	%eax, (%edi)
.LBE105:
	.loc 1 617 0
	testl	%edx, %edx
	je	.L147
	.loc 1 617 0 discriminator 1
	cmpl	8(%edx), %ebx
	jb	.L147
	.loc 1 617 0 is_stmt 0 discriminator 2
	cmpl	4(%edx), %ebx
	jnb	.L147
	.loc 1 619 0 is_stmt 1
	cmpl	$32, -32(%ebp)
	ja	.L148
.LVL189:
.LBB106:
	.loc 1 621 0
	subl	$12, %esp
	pushl	%eax
	jmp	.L171
.LVL190:
.L148:
.LBE106:
.LBB107:
	.loc 1 623 0
	subl	$12, %esp
	pushl	%eax
	call	cpu_intrpt_restore
.LVL191:
.LBE107:
	.loc 1 624 0
	popl	%esi
	popl	%edi
	pushl	-32(%ebp)
	pushl	-28(%ebp)
	call	k_mm_alloc
.LVL192:
	.loc 1 625 0
	addl	$16, %esp
	.loc 1 624 0
	movl	%eax, -32(%ebp)
.LVL193:
	xorl	%eax, %eax
.LVL194:
	.loc 1 625 0
	cmpl	$0, -32(%ebp)
	je	.L168
	.loc 1 626 0
	movl	-32(%ebp), %edi
	movl	$8, %ecx
	movl	%ebx, %esi
	rep movsl
	.loc 1 627 0
	movl	-28(%ebp), %eax
	movl	%ebx, %edx
	call	k_mm_smallblk_free
.LVL195:
	movl	-32(%ebp), %eax
	jmp	.L168
.LVL196:
.L147:
	.loc 1 639 0
	movl	-32(%ebp), %esi
	.loc 1 637 0
	movl	-4(%ebx), %ecx
	.loc 1 640 0
	movl	$32, %edx
	.loc 1 636 0
	leal	-16(%ebx), %edi
	.loc 1 639 0
	addl	$7, %esi
	.loc 1 637 0
	andl	$-8, %ecx
	.loc 1 636 0
	movl	%edi, -36(%ebp)
.LVL197:
	.loc 1 639 0
	andl	$-8, %esi
	.loc 1 638 0
	leal	(%ebx,%ecx), %edi
.LVL198:
	.loc 1 640 0
	cmpl	$32, %esi
	cmovb	%edx, %esi
.LVL199:
	.loc 1 642 0
	cmpl	%esi, %ecx
	jb	.L149
	.loc 1 644 0
	movl	-28(%ebp), %eax
	leal	16(%ecx), %edx
	movl	%ecx, -36(%ebp)
.LVL200:
	call	removesize
.LVL201:
	.loc 1 645 0
	testb	$1, 12(%edi)
	movl	-36(%ebp), %ecx
	je	.L150
	.loc 1 647 0
	movl	-28(%ebp), %eax
	movl	%edi, %edx
	call	k_mm_freelist_delete
.LVL202:
	.loc 1 648 0
	movl	12(%edi), %eax
	movl	-36(%ebp), %ecx
	andl	$-8, %eax
	leal	16(%ecx,%eax), %ecx
.LVL203:
	.loc 1 649 0
	leal	16(%edi,%eax), %edi
.LVL204:
.L150:
	.loc 1 651 0
	leal	48(%esi), %eax
	cmpl	%eax, %ecx
	jb	.L154
.LVL205:
	.loc 1 655 0
	movl	-4(%ebx), %edx
	.loc 1 658 0
	leal	-16(%ebx), %eax
	.loc 1 655 0
	andl	$2, %edx
	orl	%esi, %edx
	movl	%edx, -4(%ebx)
	.loc 1 656 0
	andl	$-8, %edx
	addl	%ebx, %edx
.LVL206:
	.loc 1 658 0
	movl	%eax, 8(%edx)
	.loc 1 659 0
	movl	%ecx, %eax
	.loc 1 661 0
	movl	$-1414812757, (%edx)
	.loc 1 659 0
	subl	%esi, %eax
	.loc 1 662 0
	movl	$0, 4(%edx)
	.loc 1 659 0
	subl	$16, %eax
.LVL207:
	orl	$1, %eax
.LVL208:
	movl	%eax, 12(%edx)
	.loc 1 664 0
	movl	%edx, 8(%edi)
	.loc 1 665 0
	orl	$2, 12(%edi)
	jmp	.L172
.LVL209:
.L149:
	.loc 1 670 0
	movl	12(%edi), %edx
	testb	$1, %dl
	je	.L153
	.loc 1 672 0
	andl	$-8, %edx
	leal	16(%ecx,%edx), %edx
	cmpl	%edx, %esi
	ja	.L153
	.loc 1 673 0
	movl	-28(%ebp), %eax
	leal	16(%ecx), %edx
	call	removesize
.LVL210:
	.loc 1 676 0
	movl	-28(%ebp), %eax
	movl	%edi, %edx
	call	k_mm_freelist_delete
.LVL211:
	.loc 1 679 0
	movl	12(%edi), %eax
	movl	-4(%ebx), %edx
	.loc 1 682 0
	leal	-16(%ebx), %edi
.LVL212:
	.loc 1 679 0
	andl	$-8, %eax
	leal	16(%eax,%edx), %eax
	movl	%eax, -4(%ebx)
	.loc 1 681 0
	andl	$-8, %eax
	addl	%ebx, %eax
.LVL213:
	.loc 1 683 0
	andl	$-3, 12(%eax)
	.loc 1 682 0
	movl	%edi, 8(%eax)
	.loc 1 685 0
	leal	48(%esi), %edi
	movl	-4(%ebx), %edx
	movl	%edx, %ecx
	andl	$-8, %ecx
	cmpl	%edi, %ecx
	jb	.L154
.LVL214:
	.loc 1 689 0
	andl	$2, %edx
	.loc 1 693 0
	subl	$16, %ecx
.LVL215:
	.loc 1 692 0
	leal	-16(%ebx), %edi
	.loc 1 689 0
	orl	%esi, %edx
	.loc 1 693 0
	subl	%esi, %ecx
.LVL216:
	.loc 1 689 0
	movl	%edx, -4(%ebx)
.LVL217:
	.loc 1 690 0
	andl	$-8, %edx
	.loc 1 693 0
	orl	$1, %ecx
	.loc 1 690 0
	addl	%ebx, %edx
.LVL218:
	.loc 1 692 0
	movl	%edi, 8(%edx)
	.loc 1 693 0
	movl	%ecx, 12(%edx)
	.loc 1 695 0
	movl	$-1414812757, (%edx)
	.loc 1 696 0
	movl	$0, 4(%edx)
	.loc 1 699 0
	orl	$2, 12(%eax)
	.loc 1 698 0
	movl	%edx, 8(%eax)
.LVL219:
.L172:
	.loc 1 700 0
	movl	-28(%ebp), %eax
	call	k_mm_freelist_insert
.LVL220:
.L154:
	.loc 1 702 0
	movl	-4(%ebx), %edx
	movl	-28(%ebp), %eax
	movl	-32(%ebp), %ecx
	andl	$-8, %edx
	addl	$16, %edx
	call	addsize
.LVL221:
.LBB108:
	.loc 1 713 0
	movl	-28(%ebp), %eax
.LBE108:
	.loc 1 710 0
	movl	$-16843010, -16(%ebx)
.LVL222:
.LBB109:
	.loc 1 713 0
	subl	$12, %esp
	pushl	(%eax)
	jmp	.L171
.LVL223:
.L156:
.LBE109:
	.loc 1 604 0
	xorl	%eax, %eax
	jmp	.L168
.LVL224:
.L153:
.LBB110:
	.loc 1 717 0
	subl	$12, %esp
	pushl	%eax
	call	cpu_intrpt_restore
.LVL225:
.LBE110:
	.loc 1 720 0
	popl	%eax
	popl	%edx
	pushl	%esi
	pushl	-28(%ebp)
	call	k_mm_alloc
.LVL226:
	movl	%eax, %edx
.LVL227:
	.loc 1 721 0
	addl	$16, %esp
	.loc 1 722 0
	xorl	%eax, %eax
.LVL228:
	.loc 1 721 0
	testl	%edx, %edx
	je	.L168
.LVL229:
	.loc 1 727 0
	movl	-4(%ebx), %ecx
	movl	%edx, %edi
.LVL230:
	movl	%edx, -32(%ebp)
.LVL231:
	andl	$-8, %ecx
	cmpl	%esi, %ecx
	cmova	%esi, %ecx
	movl	%ebx, %esi
.LVL232:
	rep movsb
	.loc 1 728 0
	pushl	%ecx
	pushl	%ecx
	pushl	%ebx
	pushl	-28(%ebp)
	call	k_mm_free
.LVL233:
	.loc 1 730 0
	movl	-32(%ebp), %edx
	addl	$16, %esp
	movl	%edx, %eax
	jmp	.L168
.LVL234:
.L171:
.LBB111:
	.loc 1 713 0
	call	cpu_intrpt_restore
.LVL235:
.LBE111:
	.loc 1 714 0
	addl	$16, %esp
	movl	%ebx, %eax
.LVL236:
.L168:
	.loc 1 731 0
	leal	-12(%ebp), %esp
	popl	%ebx
	.cfi_restore 3
	popl	%esi
	.cfi_restore 6
	popl	%edi
	.cfi_restore 7
	popl	%ebp
	.cfi_restore 5
	.cfi_def_cfa 4, 4
	ret
	.cfi_endproc
.LFE29:
	.size	k_mm_realloc, .-k_mm_realloc
	.section	.text.unlikely.k_mm_realloc
.LCOLDE20:
	.section	.text.k_mm_realloc
.LHOTE20:
	.section	.text.unlikely.krhino_owner_attach,"ax",@progbits
.LCOLDB21:
	.section	.text.krhino_owner_attach,"ax",@progbits
.LHOTB21:
	.globl	krhino_owner_attach
	.type	krhino_owner_attach, @function
krhino_owner_attach:
.LFB30:
	.loc 1 735 0
	.cfi_startproc
.LVL237:
	pushl	%ebp
	.cfi_def_cfa_offset 8
	.cfi_offset 5, -8
	movl	%esp, %ebp
	.cfi_def_cfa_register 5
	pushl	%edi
	pushl	%esi
	pushl	%ebx
	subl	$12, %esp
	.cfi_offset 7, -12
	.cfi_offset 6, -16
	.cfi_offset 3, -20
	.loc 1 735 0
	movl	8(%ebp), %esi
	movl	12(%ebp), %ebx
	movl	16(%ebp), %edi
	.loc 1 738 0
	testl	%esi, %esi
	je	.L173
	testl	%ebx, %ebx
	je	.L173
	.loc 1 744 0
	movl	8(%esi), %eax
	testl	%eax, %eax
	je	.L175
	.loc 1 744 0 discriminator 1
	cmpl	8(%eax), %ebx
	jb	.L175
	.loc 1 744 0 is_stmt 0 discriminator 2
	cmpl	4(%eax), %ebx
	jb	.L173
.L175:
.LVL238:
.LBB116:
.LBB117:
.LBB118:
	.loc 1 749 0 is_stmt 1
	call	cpu_intrpt_save
.LVL239:
	movl	%eax, (%esi)
.LVL240:
.LBE118:
	.loc 1 752 0
	movl	%edi, -12(%ebx)
.LVL241:
.LBB119:
	.loc 1 754 0
	movl	%eax, 8(%ebp)
.LVL242:
.LBE119:
.LBE117:
.LBE116:
	.loc 1 755 0
	addl	$12, %esp
	popl	%ebx
	.cfi_remember_state
	.cfi_restore 3
.LVL243:
	popl	%esi
	.cfi_restore 6
	popl	%edi
	.cfi_restore 7
.LVL244:
	popl	%ebp
	.cfi_restore 5
	.cfi_def_cfa 4, 4
.LBB122:
.LBB121:
.LBB120:
	.loc 1 754 0
	jmp	cpu_intrpt_restore
.LVL245:
.L173:
	.cfi_restore_state
.LBE120:
.LBE121:
.LBE122:
	.loc 1 755 0
	addl	$12, %esp
	popl	%ebx
	.cfi_restore 3
	popl	%esi
	.cfi_restore 6
	popl	%edi
	.cfi_restore 7
	popl	%ebp
	.cfi_restore 5
	.cfi_def_cfa 4, 4
	ret
	.cfi_endproc
.LFE30:
	.size	krhino_owner_attach, .-krhino_owner_attach
	.section	.text.unlikely.krhino_owner_attach
.LCOLDE21:
	.section	.text.krhino_owner_attach
.LHOTE21:
	.section	.rodata.str1.1
.LC22:
	.string	"WARNING, malloc size = 0\r"
.LC23:
	.string	"WARNING, malloc failed!!!!\r"
	.section	.text.unlikely.krhino_mm_alloc,"ax",@progbits
.LCOLDB24:
	.section	.text.krhino_mm_alloc,"ax",@progbits
.LHOTB24:
	.globl	krhino_mm_alloc
	.type	krhino_mm_alloc, @function
krhino_mm_alloc:
.LFB31:
	.loc 1 759 0
	.cfi_startproc
.LVL246:
	pushl	%ebp
	.cfi_def_cfa_offset 8
	.cfi_offset 5, -8
	movl	%esp, %ebp
	.cfi_def_cfa_register 5
	pushl	%edi
	pushl	%esi
	pushl	%ebx
	subl	$12, %esp
	.cfi_offset 7, -12
	.cfi_offset 6, -16
	.cfi_offset 3, -20
	.loc 1 759 0
	movl	8(%ebp), %eax
	.loc 1 763 0
	movl	%eax, %ebx
	andl	$-2147483648, %ebx
.LVL247:
	.loc 1 767 0
	andl	$2147483647, %eax
.LVL248:
	jne	.L181
	.loc 1 768 0
	subl	$12, %esp
	.loc 1 769 0
	xorl	%esi, %esi
	.loc 1 768 0
	pushl	$.LC22
	call	puts
.LVL249:
	.loc 1 769 0
	addl	$16, %esp
	jmp	.L182
.LVL250:
.L181:
	.loc 1 772 0
	pushl	%edx
	pushl	%edx
	pushl	%eax
	pushl	g_kmm_head
	call	k_mm_alloc
.LVL251:
	.loc 1 773 0
	addl	$16, %esp
	testl	%eax, %eax
	.loc 1 772 0
	movl	%eax, %edi
.LVL252:
	.loc 1 773 0
	jne	.L183
.LBB123:
	.loc 1 776 0
	subl	$12, %esp
	xorl	%esi, %esi
	pushl	$.LC23
	call	puts
.LVL253:
	.loc 1 777 0
	addl	$16, %esp
	cmpl	$0, dumped.4126
	jne	.L182
	.loc 1 781 0
	subl	$12, %esp
	.loc 1 780 0
	movl	$1, dumped.4126
	.loc 1 781 0
	pushl	$0
	call	dumpsys_mm_info_func
.LVL254:
	.loc 1 783 0
	call	dump_mmleak
.LVL255:
	.loc 1 785 0
	movl	$105, (%esp)
	call	k_err_proc
.LVL256:
	addl	$16, %esp
.L183:
.LBE123:
	.loc 1 794 0
	testl	%ebx, %ebx
	.loc 1 772 0
	movl	%edi, %esi
	.loc 1 794 0
	jne	.L182
.LVL257:
	.loc 1 798 0
	pushl	%eax
	pushl	4(%ebp)
	pushl	%edi
	pushl	g_kmm_head
	call	krhino_owner_attach
.LVL258:
	addl	$16, %esp
.LVL259:
.L182:
	.loc 1 804 0
	leal	-12(%ebp), %esp
	movl	%esi, %eax
	popl	%ebx
	.cfi_restore 3
.LVL260:
	popl	%esi
	.cfi_restore 6
	popl	%edi
	.cfi_restore 7
	popl	%ebp
	.cfi_restore 5
	.cfi_def_cfa 4, 4
	ret
	.cfi_endproc
.LFE31:
	.size	krhino_mm_alloc, .-krhino_mm_alloc
	.section	.text.unlikely.krhino_mm_alloc
.LCOLDE24:
	.section	.text.krhino_mm_alloc
.LHOTE24:
	.section	.text.unlikely.krhino_mm_free,"ax",@progbits
.LCOLDB25:
	.section	.text.krhino_mm_free,"ax",@progbits
.LHOTB25:
	.globl	krhino_mm_free
	.type	krhino_mm_free, @function
krhino_mm_free:
.LFB32:
	.loc 1 807 0
	.cfi_startproc
.LVL261:
	pushl	%ebp
	.cfi_def_cfa_offset 8
	.cfi_offset 5, -8
	movl	%esp, %ebp
	.cfi_def_cfa_register 5
	subl	$16, %esp
	.loc 1 808 0
	pushl	8(%ebp)
	pushl	g_kmm_head
	call	k_mm_free
.LVL262:
	.loc 1 809 0
	addl	$16, %esp
	leave
	.cfi_restore 5
	.cfi_def_cfa 4, 4
	ret
	.cfi_endproc
.LFE32:
	.size	krhino_mm_free, .-krhino_mm_free
	.section	.text.unlikely.krhino_mm_free
.LCOLDE25:
	.section	.text.krhino_mm_free
.LHOTE25:
	.section	.rodata.str1.1
.LC26:
	.string	"WARNING, realloc failed!!!!\r"
	.section	.text.unlikely.krhino_mm_realloc,"ax",@progbits
.LCOLDB27:
	.section	.text.krhino_mm_realloc,"ax",@progbits
.LHOTB27:
	.globl	krhino_mm_realloc
	.type	krhino_mm_realloc, @function
krhino_mm_realloc:
.LFB33:
	.loc 1 812 0
	.cfi_startproc
.LVL263:
	pushl	%ebp
	.cfi_def_cfa_offset 8
	.cfi_offset 5, -8
	movl	%esp, %ebp
	.cfi_def_cfa_register 5
	pushl	%edi
	pushl	%esi
	pushl	%ebx
	subl	$16, %esp
	.cfi_offset 7, -12
	.cfi_offset 6, -16
	.cfi_offset 3, -20
	.loc 1 812 0
	movl	12(%ebp), %edi
.LVL264:
	.loc 1 817 0
	movl	%edi, %esi
	andl	$2147483647, %esi
.LVL265:
	.loc 1 820 0
	pushl	%esi
	pushl	8(%ebp)
	pushl	g_kmm_head
	call	k_mm_realloc
.LVL266:
	.loc 1 823 0
	addl	$16, %esp
	testl	%edi, %edi
	.loc 1 820 0
	movl	%eax, %ebx
.LVL267:
	.loc 1 823 0
	js	.L190
.LVL268:
	.loc 1 827 0
	pushl	%eax
	pushl	4(%ebp)
	pushl	%ebx
	pushl	g_kmm_head
	call	krhino_owner_attach
.LVL269:
	addl	$16, %esp
.L190:
	.loc 1 831 0
	testl	%ebx, %ebx
	jne	.L193
	testl	%esi, %esi
	je	.L193
.LBB124:
	.loc 1 834 0
	subl	$12, %esp
	pushl	$.LC26
	call	puts
.LVL270:
	.loc 1 835 0
	addl	$16, %esp
	cmpl	$0, reallocdumped.4136
	jne	.L193
	.loc 1 839 0
	subl	$12, %esp
	.loc 1 838 0
	movl	$1, reallocdumped.4136
	.loc 1 839 0
	pushl	$0
	call	dumpsys_mm_info_func
.LVL271:
	.loc 1 841 0
	call	dump_mmleak
.LVL272:
	.loc 1 843 0
	movl	$1, (%esp)
	call	k_err_proc
.LVL273:
	addl	$16, %esp
.L193:
.LBE124:
	.loc 1 847 0
	leal	-12(%ebp), %esp
	movl	%ebx, %eax
	popl	%ebx
	.cfi_restore 3
.LVL274:
	popl	%esi
	.cfi_restore 6
.LVL275:
	popl	%edi
	.cfi_restore 7
.LVL276:
	popl	%ebp
	.cfi_restore 5
	.cfi_def_cfa 4, 4
	ret
	.cfi_endproc
.LFE33:
	.size	krhino_mm_realloc, .-krhino_mm_realloc
	.section	.text.unlikely.krhino_mm_realloc
.LCOLDE27:
	.section	.text.krhino_mm_realloc
.LHOTE27:
	.section	.bss.reallocdumped.4136,"aw",@nobits
	.align 4
	.type	reallocdumped.4136, @object
	.size	reallocdumped.4136, 4
reallocdumped.4136:
	.zero	4
	.section	.bss.dumped.4126,"aw",@nobits
	.align 4
	.type	dumped.4126, @object
	.size	dumped.4126, 4
dumped.4126:
	.zero	4
	.text
.Letext0:
	.section	.text.unlikely.size_to_level
.Letext_cold0:
	.file 3 "/home/stone/Documents/Ali_IOT/build/compiler/gcc-arm-none-eabi/Linux64/lib/gcc/arm-none-eabi/5.4.1/include/stddef.h"
	.file 4 "/home/stone/Documents/Ali_IOT/build/compiler/gcc-arm-none-eabi/Linux64/arm-none-eabi/include/machine/_default_types.h"
	.file 5 "/home/stone/Documents/Ali_IOT/build/compiler/gcc-arm-none-eabi/Linux64/arm-none-eabi/include/sys/_stdint.h"
	.file 6 "././platform/arch/arm/armv5/./gcc/k_types.h"
	.file 7 "./kernel/rhino/core/include/k_err.h"
	.file 8 "./kernel/rhino/core/include/k_spin_lock.h"
	.file 9 "./kernel/rhino/core/include/k_list.h"
	.file 10 "./kernel/rhino/core/include/k_mm.h"
	.file 11 "./kernel/rhino/core/include/k_mm_blk.h"
	.file 12 "./kernel/rhino/core/include/k_mm_region.h"
	.file 13 "./kernel/rhino/core/include/k_internal.h"
	.file 14 "/home/stone/Documents/Ali_IOT/build/compiler/gcc-arm-none-eabi/Linux64/arm-none-eabi/include/stdio.h"
	.file 15 "././platform/arch/arm/armv5/./gcc/port.h"
	.file 16 "./kernel/rhino/core/include/k_mm_debug.h"
	.file 17 "<built-in>"
	.section	.note.GNU-stack,"",@progbits
