	.file	"k_overview.c"
	.text
.Ltext0:
	.section	.rodata.str1.1,"aMS",@progbits,1
.LC9:
	.string	"0123456789ABCDEF"
	.section	.text.unlikely.k_int2str,"ax",@progbits
.LCOLDB10:
	.section	.text.k_int2str,"ax",@progbits
.LHOTB10:
	.section	.text.unlikely.k_int2str
.Ltext_cold0:
	.section	.text.k_int2str
	.globl	k_int2str
	.type	k_int2str, @function
k_int2str:
.LFB12:
	.file 1 "kernel/rhino/debug/k_overview.c"
	.loc 1 12 0
	.cfi_startproc
.LVL0:
	pushl	%ebp
	.cfi_def_cfa_offset 8
	.cfi_offset 5, -8
	.loc 1 13 0
	movl	$17, %ecx
	.loc 1 12 0
	movl	%esp, %ebp
	.cfi_def_cfa_register 5
	pushl	%edi
	pushl	%esi
	pushl	%ebx
	.cfi_offset 7, -12
	.cfi_offset 6, -16
	.cfi_offset 3, -20
	.loc 1 13 0
	leal	-45(%ebp), %edi
	movl	$.LC9, %esi
	.loc 1 12 0
	subl	$44, %esp
	.loc 1 12 0
	movl	12(%ebp), %ebx
	movl	%gs:20, %eax
	movl	%eax, -28(%ebp)
	xorl	%eax, %eax
	.loc 1 15 0
	movl	8(%ebp), %eax
	.loc 1 13 0
	rep movsb
	.loc 1 15 0
	movl	$16, %ecx
	.loc 1 19 0
	movl	$256, %esi
	.loc 1 15 0
	cltd
	idivl	%ecx
	movb	-45(%ebp,%edx), %dl
	movb	%dl, 7(%ebx)
.LVL1:
	.loc 1 17 0
	cltd
	idivl	%ecx
.LVL2:
	movb	-45(%ebp,%edx), %al
	movb	%al, 6(%ebx)
.LVL3:
	.loc 1 19 0
	movl	8(%ebp), %eax
	cltd
	idivl	%esi
.LVL4:
	.loc 1 21 0
	movl	$4096, %esi
	.loc 1 19 0
	cltd
	idivl	%ecx
.LVL5:
	movb	-45(%ebp,%edx), %al
	movb	%al, 5(%ebx)
.LVL6:
	.loc 1 21 0
	movl	8(%ebp), %eax
	cltd
	idivl	%esi
.LVL7:
	.loc 1 23 0
	movl	$65536, %esi
	.loc 1 21 0
	cltd
	idivl	%ecx
.LVL8:
	movb	-45(%ebp,%edx), %al
	movb	%al, 4(%ebx)
.LVL9:
	.loc 1 23 0
	movl	8(%ebp), %eax
	cltd
	idivl	%esi
.LVL10:
	.loc 1 25 0
	movl	$1048576, %esi
	.loc 1 23 0
	cltd
	idivl	%ecx
.LVL11:
	movb	-45(%ebp,%edx), %al
	movb	%al, 3(%ebx)
.LVL12:
	.loc 1 25 0
	movl	8(%ebp), %eax
	cltd
	idivl	%esi
.LVL13:
	.loc 1 27 0
	movl	$16777216, %esi
	.loc 1 25 0
	cltd
	idivl	%ecx
.LVL14:
	movb	-45(%ebp,%edx), %al
	movb	%al, 2(%ebx)
.LVL15:
	.loc 1 27 0
	movl	8(%ebp), %eax
	cltd
	idivl	%esi
.LVL16:
	cltd
	idivl	%ecx
.LVL17:
	.loc 1 29 0
	movl	$268435456, %ecx
	.loc 1 27 0
	movb	-45(%ebp,%edx), %al
	movb	%al, 1(%ebx)
.LVL18:
	.loc 1 29 0
	movl	8(%ebp), %eax
	cltd
	idivl	%ecx
.LVL19:
	movb	-45(%ebp,%eax), %al
.LVL20:
	movb	%al, (%ebx)
.LVL21:
	.loc 1 33 0
	movl	-28(%ebp), %edi
	xorl	%gs:20, %edi
	je	.L2
	call	__stack_chk_fail
.LVL22:
.L2:
	addl	$44, %esp
	movl	%ebx, %eax
	popl	%ebx
	.cfi_restore 3
	popl	%esi
	.cfi_restore 6
	popl	%edi
	.cfi_restore 7
	popl	%ebp
	.cfi_restore 5
	.cfi_def_cfa 4, 4
	ret
	.cfi_endproc
.LFE12:
	.size	k_int2str, .-k_int2str
	.section	.text.unlikely.k_int2str
.LCOLDE10:
	.section	.text.k_int2str
.LHOTE10:
	.section	.rodata.str1.1
.LC11:
	.string	"-----------------------------------------------------------\r\n"
.LC12:
	.string	"[HEAP]| TotalSz    | FreeSz     | UsedSz     | MinFreeSz  |\r\n"
.LC13:
	.string	"[POOL]| TotalSz    | FreeSz     | UsedSz     | BlkSz      |\r\n"
	.section	.text.unlikely.krhino_mm_overview,"ax",@progbits
.LCOLDB14:
	.section	.text.krhino_mm_overview,"ax",@progbits
.LHOTB14:
	.globl	krhino_mm_overview
	.type	krhino_mm_overview, @function
krhino_mm_overview:
.LFB13:
	.loc 1 37 0
	.cfi_startproc
.LVL23:
	pushl	%ebp
	.cfi_def_cfa_offset 8
	.cfi_offset 5, -8
	movl	%esp, %ebp
	.cfi_def_cfa_register 5
	pushl	%esi
	pushl	%ebx
	.cfi_offset 6, -12
	.cfi_offset 3, -16
	.loc 1 37 0
	movl	8(%ebp), %esi
	.loc 1 44 0
	testl	%esi, %esi
	je	.L5
	.loc 1 48 0
	subl	$12, %esp
	pushl	$.LC11
	call	*%esi
.LVL24:
	.loc 1 49 0
	movl	$.LC12, (%esp)
	call	*%esi
.LVL25:
	.loc 1 51 0
	movl	g_kmm_head, %edx
	popl	%eax
	popl	%ecx
	pushl	$s_heap_overview.2812+10
	movl	12(%edx), %eax
	addl	20(%edx), %eax
	pushl	%eax
	call	k_int2str
.LVL26:
	.loc 1 52 0
	popl	%ebx
	popl	%eax
	movl	g_kmm_head, %eax
	pushl	$s_heap_overview.2812+23
	pushl	20(%eax)
	call	k_int2str
.LVL27:
	.loc 1 53 0
	popl	%eax
	movl	g_kmm_head, %eax
	popl	%edx
	pushl	$s_heap_overview.2812+36
	pushl	12(%eax)
	call	k_int2str
.LVL28:
	.loc 1 54 0
	movl	g_kmm_head, %edx
	popl	%ecx
	popl	%ebx
	pushl	$s_heap_overview.2812+49
	movl	12(%edx), %eax
	addl	20(%edx), %eax
	subl	16(%edx), %eax
	pushl	%eax
	call	k_int2str
.LVL29:
	.loc 1 56 0
	movl	$s_heap_overview.2812, (%esp)
	call	*%esi
.LVL30:
	.loc 1 58 0
	movl	$.LC11, (%esp)
	call	*%esi
.LVL31:
	.loc 1 61 0
	movl	$.LC13, (%esp)
	call	*%esi
.LVL32:
	.loc 1 63 0
	movl	g_kmm_head, %eax
	addl	$16, %esp
	movl	8(%eax), %ebx
	testl	%ebx, %ebx
	je	.L7
.LVL33:
	.loc 1 65 0
	pushl	%eax
	pushl	%eax
	pushl	$s_heap_overview.2812+10
	movl	20(%ebx), %eax
	imull	12(%ebx), %eax
	pushl	%eax
	call	k_int2str
.LVL34:
	.loc 1 66 0
	popl	%edx
	popl	%ecx
	pushl	$s_heap_overview.2812+23
	movl	16(%ebx), %eax
	imull	12(%ebx), %eax
	pushl	%eax
	call	k_int2str
.LVL35:
	.loc 1 67 0
	popl	%eax
	popl	%edx
	pushl	$s_heap_overview.2812+36
	movl	20(%ebx), %eax
	subl	16(%ebx), %eax
	imull	12(%ebx), %eax
	pushl	%eax
	call	k_int2str
.LVL36:
	.loc 1 69 0
	popl	%ecx
	popl	%eax
	pushl	$s_heap_overview.2812+49
	pushl	12(%ebx)
	call	k_int2str
.LVL37:
	.loc 1 70 0
	movl	$s_heap_overview.2812, (%esp)
	call	*%esi
.LVL38:
	addl	$16, %esp
.LVL39:
.L7:
	.loc 1 73 0
	movl	$.LC11, 8(%ebp)
	.loc 1 75 0
	leal	-8(%ebp), %esp
	.loc 1 73 0
	movl	%esi, %eax
	.loc 1 75 0
	popl	%ebx
	.cfi_remember_state
	.cfi_restore 3
	popl	%esi
	.cfi_restore 6
	popl	%ebp
	.cfi_restore 5
	.cfi_def_cfa 4, 4
	.loc 1 73 0
	jmp	*%eax
.LVL40:
.L5:
	.cfi_restore_state
	.loc 1 75 0
	leal	-8(%ebp), %esp
	popl	%ebx
	.cfi_restore 3
	popl	%esi
	.cfi_restore 6
.LVL41:
	popl	%ebp
	.cfi_restore 5
	.cfi_def_cfa 4, 4
	ret
	.cfi_endproc
.LFE13:
	.size	krhino_mm_overview, .-krhino_mm_overview
	.section	.text.unlikely.krhino_mm_overview
.LCOLDE14:
	.section	.text.krhino_mm_overview
.LHOTE14:
	.section	.rodata.str1.1
.LC15:
	.string	"anonym"
.LC17:
	.string	"--------------------------------------------------------------------------\r\n"
.LC18:
	.string	"TaskName             State    Prio       Stack      StackSize (MinFree)\r\n"
.LC0:
	.string	"UNK"
.LC1:
	.string	"RDY"
.LC2:
	.string	"PEND"
.LC3:
	.string	"SUS"
.LC4:
	.string	"PEND_SUS"
.LC5:
	.string	"SLP"
.LC6:
	.string	"SLP_SUS"
.LC7:
	.string	"DEL"
	.section	.rodata
	.align 32
.LC16:
	.long	.LC0
	.long	.LC1
	.long	.LC2
	.long	.LC3
	.long	.LC4
	.long	.LC5
	.long	.LC6
	.long	.LC7
	.section	.text.unlikely.krhino_task_overview,"ax",@progbits
.LCOLDB19:
	.section	.text.krhino_task_overview,"ax",@progbits
.LHOTB19:
	.globl	krhino_task_overview
	.type	krhino_task_overview, @function
krhino_task_overview:
.LFB14:
	.loc 1 88 0
	.cfi_startproc
.LVL42:
	pushl	%ebp
	.cfi_def_cfa_offset 8
	.cfi_offset 5, -8
	.loc 1 94 0
	movl	$8, %ecx
	.loc 1 88 0
	movl	%esp, %ebp
	.cfi_def_cfa_register 5
	pushl	%edi
	pushl	%esi
	pushl	%ebx
	.cfi_offset 7, -12
	.cfi_offset 6, -16
	.cfi_offset 3, -20
	.loc 1 94 0
	leal	-60(%ebp), %edi
	movl	$.LC16, %esi
	.loc 1 88 0
	subl	$60, %esp
	.loc 1 88 0
	movl	8(%ebp), %ebx
	movl	%gs:20, %eax
	movl	%eax, -28(%ebp)
	xorl	%eax, %eax
	.loc 1 94 0
	rep movsl
	.loc 1 99 0
	testl	%ebx, %ebx
	je	.L12
	.loc 1 103 0
	subl	$12, %esp
	.loc 1 112 0
	leal	-64(%ebp), %edi
	.loc 1 103 0
	pushl	$.LC17
	call	*%ebx
.LVL43:
	.loc 1 104 0
	movl	$.LC18, (%esp)
	call	*%ebx
.LVL44:
	.loc 1 105 0
	movl	$.LC17, (%esp)
	call	*%ebx
.LVL45:
	.loc 1 107 0
	movl	g_kobj_list, %esi
.LVL46:
	addl	$16, %esp
.L14:
	.loc 1 107 0 is_stmt 0 discriminator 1
	cmpl	$g_kobj_list, %esi
	je	.L12
.LVL47:
	.loc 1 112 0 is_stmt 1
	pushl	%eax
	pushl	%eax
	leal	-40(%esi), %eax
.LVL48:
	pushl	%edi
	pushl	%eax
	call	krhino_task_stack_min_free
.LVL49:
	addl	$16, %esp
	.loc 1 113 0
	testl	%eax, %eax
	movl	$0, %eax
	cmove	-64(%ebp), %eax
	.loc 1 118 0
	movl	-36(%esi), %edx
	.loc 1 113 0
	movl	%eax, -64(%ebp)
	.loc 1 118 0
	movl	$.LC15, %eax
	.loc 1 115 0
	sall	$2, -64(%ebp)
	.loc 1 118 0
	testl	%edx, %edx
	cmove	%eax, %edx
.LVL50:
	.loc 1 119 0
	xorl	%eax, %eax
.LVL51:
.L17:
	.loc 1 120 0 discriminator 3
	movb	$32, s_task_overview.2824(%eax)
	.loc 1 119 0 discriminator 3
	incl	%eax
.LVL52:
	cmpl	$20, %eax
	jne	.L17
	xorl	%eax, %eax
.LVL53:
.L21:
	.loc 1 123 0
	movb	(%edx,%eax), %cl
	testb	%cl, %cl
	jne	.L18
.L22:
	.loc 1 130 0
	movl	44(%esi), %eax
.LVL54:
	movl	$0, %edx
.LVL55:
	cmpl	$8, %eax
	cmovnb	%edx, %eax
.LVL56:
	.loc 1 131 0
	movl	$21, %edx
	jmp	.L23
.LVL57:
.L18:
	.loc 1 126 0 discriminator 2
	movb	%cl, s_task_overview.2824(%eax)
	.loc 1 122 0 discriminator 2
	incl	%eax
.LVL58:
	cmpl	$20, %eax
	jne	.L21
	jmp	.L22
.LVL59:
.L23:
	.loc 1 132 0 discriminator 3
	movb	$32, s_task_overview.2824(%edx)
	.loc 1 131 0 discriminator 3
	incl	%edx
.LVL60:
	cmpl	$29, %edx
	jne	.L23
	.loc 1 135 0
	movl	-60(%ebp,%eax,4), %ecx
	movl	$21, %eax
.LVL61:
.L25:
	movb	-21(%ecx,%eax), %dl
	testb	%dl, %dl
	jne	.L24
.L26:
.LVL62:
	.loc 1 142 0
	pushl	%eax
	pushl	%eax
	pushl	$s_task_overview.2824+32
	movzbl	79(%esi), %eax
	pushl	%eax
	call	k_int2str
.LVL63:
	.loc 1 145 0
	popl	%edx
	popl	%ecx
	pushl	$s_task_overview.2824+43
	pushl	-24(%esi)
	call	k_int2str
.LVL64:
	.loc 1 146 0
	popl	%eax
	movl	-20(%esi), %eax
	popl	%edx
	pushl	$s_task_overview.2824+54
	sall	$2, %eax
	pushl	%eax
	call	k_int2str
.LVL65:
	.loc 1 147 0
	popl	%ecx
	popl	%eax
	pushl	$s_task_overview.2824+65
	pushl	-64(%ebp)
	call	k_int2str
.LVL66:
	.loc 1 150 0
	movl	$s_task_overview.2824, (%esp)
	call	*%ebx
.LVL67:
	.loc 1 109 0
	movl	(%esi), %esi
.LVL68:
	addl	$16, %esp
	jmp	.L14
.LVL69:
.L24:
	.loc 1 138 0 discriminator 2
	movb	%dl, s_task_overview.2824(%eax)
	.loc 1 134 0 discriminator 2
	incl	%eax
.LVL70:
	cmpl	$29, %eax
	jne	.L25
	jmp	.L26
.LVL71:
.L12:
	.loc 1 154 0
	movl	-28(%ebp), %eax
	xorl	%gs:20, %eax
	je	.L29
	call	__stack_chk_fail
.LVL72:
.L29:
	leal	-12(%ebp), %esp
	popl	%ebx
	.cfi_restore 3
	popl	%esi
	.cfi_restore 6
	popl	%edi
	.cfi_restore 7
	popl	%ebp
	.cfi_restore 5
	.cfi_def_cfa 4, 4
	ret
	.cfi_endproc
.LFE14:
	.size	krhino_task_overview, .-krhino_task_overview
	.section	.text.unlikely.krhino_task_overview
.LCOLDE19:
	.section	.text.krhino_task_overview
.LHOTE19:
	.section	.rodata.str1.1
.LC20:
	.string	" "
.LC21:
	.string	"------------------------------------------------------------------\r\n"
.LC22:
	.string	"BufQueAddr TotalSize  PeakNum    CurrNum    MinFreeSz  TaskWaiting\r\n"
.LC23:
	.string	"BufQueue Type error!\r\n"
	.section	.text.unlikely.krhino_buf_queue_overview,"ax",@progbits
.LCOLDB24:
	.section	.text.krhino_buf_queue_overview,"ax",@progbits
.LHOTB24:
	.globl	krhino_buf_queue_overview
	.type	krhino_buf_queue_overview, @function
krhino_buf_queue_overview:
.LFB15:
	.loc 1 169 0
	.cfi_startproc
.LVL73:
	pushl	%ebp
	.cfi_def_cfa_offset 8
	.cfi_offset 5, -8
	movl	%esp, %ebp
	.cfi_def_cfa_register 5
	pushl	%esi
	pushl	%ebx
	.cfi_offset 6, -12
	.cfi_offset 3, -16
	.loc 1 169 0
	movl	8(%ebp), %esi
	.loc 1 179 0
	testl	%esi, %esi
	je	.L38
	.loc 1 183 0
	subl	$12, %esp
	pushl	$.LC21
	call	*%esi
.LVL74:
	.loc 1 184 0
	movl	$.LC22, (%esp)
	call	*%esi
.LVL75:
	.loc 1 185 0
	movl	$.LC21, (%esp)
	call	*%esi
.LVL76:
	.loc 1 186 0
	movl	g_kobj_list+48, %ebx
.LVL77:
.L55:
	.loc 1 188 0
	addl	$16, %esp
	.loc 1 186 0
	cmpl	$g_kobj_list+48, %ebx
	je	.L38
.LVL78:
	.loc 1 191 0
	cmpl	$4, -52(%ebx)
	je	.L42
	.loc 1 192 0
	movl	$.LC23, 8(%ebp)
	.loc 1 226 0
	leal	-8(%ebp), %esp
	.loc 1 192 0
	movl	%esi, %eax
	.loc 1 226 0
	popl	%ebx
	.cfi_remember_state
	.cfi_restore 3
.LVL79:
	popl	%esi
	.cfi_restore 6
	popl	%ebp
	.cfi_restore 5
	.cfi_def_cfa 4, 4
	.loc 1 192 0
	jmp	*%eax
.LVL80:
.L42:
	.cfi_restore_state
	.loc 1 197 0
	pushl	%eax
	pushl	%eax
	pushl	$s_buf_queue_overview.2850+2
	pushl	-48(%ebx)
	call	k_int2str
.LVL81:
	.loc 1 198 0
	popl	%edx
	popl	%ecx
	pushl	$s_buf_queue_overview.2850+13
	movl	-40(%ebx), %eax
	subl	-44(%ebx), %eax
	pushl	%eax
	call	k_int2str
.LVL82:
	.loc 1 200 0
	popl	%eax
	popl	%edx
	pushl	$s_buf_queue_overview.2850+24
	pushl	-8(%ebx)
	call	k_int2str
.LVL83:
	.loc 1 201 0
	popl	%ecx
	popl	%eax
	pushl	$s_buf_queue_overview.2850+35
	pushl	-12(%ebx)
	call	k_int2str
.LVL84:
	.loc 1 202 0
	popl	%eax
	popl	%edx
	pushl	$s_buf_queue_overview.2850+46
	pushl	-4(%ebx)
	call	k_int2str
.LVL85:
.LBB8:
.LBB9:
	.file 2 "./kernel/rhino/core/include/k_list.h"
	.loc 2 23 0
	movl	-68(%ebx), %eax
.LVL86:
.LBE9:
.LBE8:
	.loc 1 205 0
	leal	-68(%ebx), %ecx
.LVL87:
	.loc 1 206 0
	addl	$16, %esp
	.loc 1 207 0
	movl	$.LC20, %edx
	.loc 1 206 0
	cmpl	%ecx, %eax
	je	.L43
.LVL88:
	.loc 1 210 0
	movl	-20(%eax), %edx
	.loc 1 210 0
	movl	$.LC15, %eax
.LVL89:
	testl	%edx, %edx
	cmove	%eax, %edx
.LVL90:
.L43:
	.loc 1 213 0
	xorl	%eax, %eax
.LVL91:
.L44:
	.loc 1 214 0 discriminator 3
	movb	$32, s_buf_queue_overview.2850+55(%eax)
	.loc 1 213 0 discriminator 3
	incl	%eax
.LVL92:
	cmpl	$20, %eax
	jne	.L44
	xorl	%eax, %eax
.LVL93:
.L46:
	.loc 1 217 0
	movb	(%edx,%eax), %cl
	testb	%cl, %cl
	jne	.L45
.L47:
	.loc 1 224 0
	subl	$12, %esp
	pushl	$s_buf_queue_overview.2850
	call	*%esi
.LVL94:
	.loc 1 188 0
	movl	(%ebx), %ebx
.LVL95:
	jmp	.L55
.LVL96:
.L45:
	.loc 1 220 0 discriminator 2
	movb	%cl, s_buf_queue_overview.2850+55(%eax)
	.loc 1 216 0 discriminator 2
	incl	%eax
.LVL97:
	cmpl	$20, %eax
	jne	.L46
	jmp	.L47
.LVL98:
.L38:
	.loc 1 226 0
	leal	-8(%ebp), %esp
	popl	%ebx
	.cfi_restore 3
	popl	%esi
	.cfi_restore 6
	popl	%ebp
	.cfi_restore 5
	.cfi_def_cfa 4, 4
	ret
	.cfi_endproc
.LFE15:
	.size	krhino_buf_queue_overview, .-krhino_buf_queue_overview
	.section	.text.unlikely.krhino_buf_queue_overview
.LCOLDE24:
	.section	.text.krhino_buf_queue_overview
.LHOTE24:
	.section	.rodata.str1.1
.LC25:
	.string	"-------------------------------------------------------\r\n"
.LC26:
	.string	"QueAddr    TotalSize  PeakNum    CurrNum    TaskWaiting\n"
.LC27:
	.string	"Queue Type error!\r\n"
	.section	.text.unlikely.krhino_queue_overview,"ax",@progbits
.LCOLDB28:
	.section	.text.krhino_queue_overview,"ax",@progbits
.LHOTB28:
	.globl	krhino_queue_overview
	.type	krhino_queue_overview, @function
krhino_queue_overview:
.LFB16:
	.loc 1 242 0
	.cfi_startproc
.LVL99:
	pushl	%ebp
	.cfi_def_cfa_offset 8
	.cfi_offset 5, -8
	movl	%esp, %ebp
	.cfi_def_cfa_register 5
	pushl	%esi
	pushl	%ebx
	.cfi_offset 6, -12
	.cfi_offset 3, -16
	.loc 1 242 0
	movl	8(%ebp), %esi
	.loc 1 252 0
	testl	%esi, %esi
	je	.L56
	.loc 1 256 0
	subl	$12, %esp
	pushl	$.LC25
	call	*%esi
.LVL100:
	.loc 1 257 0
	movl	$.LC26, (%esp)
	call	*%esi
.LVL101:
	.loc 1 258 0
	movl	$.LC25, (%esp)
	call	*%esi
.LVL102:
	.loc 1 260 0
	movl	g_kobj_list+32, %ebx
.LVL103:
.L73:
	.loc 1 262 0
	addl	$16, %esp
	.loc 1 260 0
	cmpl	$g_kobj_list+32, %ebx
	je	.L56
.LVL104:
	.loc 1 265 0
	cmpl	$3, -48(%ebx)
	je	.L60
	.loc 1 266 0
	movl	$.LC27, 8(%ebp)
	.loc 1 298 0
	leal	-8(%ebp), %esp
	.loc 1 266 0
	movl	%esi, %eax
	.loc 1 298 0
	popl	%ebx
	.cfi_remember_state
	.cfi_restore 3
.LVL105:
	popl	%esi
	.cfi_restore 6
	popl	%ebp
	.cfi_restore 5
	.cfi_def_cfa 4, 4
	.loc 1 266 0
	jmp	*%eax
.LVL106:
.L60:
	.cfi_restore_state
	.loc 1 271 0
	pushl	%eax
	pushl	%eax
	pushl	$s_queue_overview.2870+2
	pushl	-16(%ebx)
	call	k_int2str
.LVL107:
	.loc 1 272 0
	popl	%edx
	popl	%ecx
	pushl	$s_queue_overview.2870+13
	pushl	-12(%ebx)
	call	k_int2str
.LVL108:
	.loc 1 273 0
	popl	%eax
	popl	%edx
	pushl	$s_queue_overview.2870+24
	pushl	-4(%ebx)
	call	k_int2str
.LVL109:
	.loc 1 274 0
	popl	%ecx
	popl	%eax
	pushl	$s_queue_overview.2870+35
	pushl	-8(%ebx)
	call	k_int2str
.LVL110:
.LBB10:
.LBB11:
	.loc 2 23 0
	movl	-64(%ebx), %eax
.LVL111:
.LBE11:
.LBE10:
	.loc 1 277 0
	leal	-64(%ebx), %ecx
.LVL112:
	.loc 1 278 0
	addl	$16, %esp
	.loc 1 279 0
	movl	$.LC20, %edx
	.loc 1 278 0
	cmpl	%ecx, %eax
	je	.L61
.LVL113:
	.loc 1 282 0
	movl	-20(%eax), %edx
	.loc 1 282 0
	movl	$.LC15, %eax
.LVL114:
	testl	%edx, %edx
	cmove	%eax, %edx
.LVL115:
.L61:
	.loc 1 285 0
	xorl	%eax, %eax
.LVL116:
.L62:
	.loc 1 286 0 discriminator 3
	movb	$32, s_queue_overview.2870+44(%eax)
	.loc 1 285 0 discriminator 3
	incl	%eax
.LVL117:
	cmpl	$20, %eax
	jne	.L62
	xorl	%eax, %eax
.LVL118:
.L64:
	.loc 1 289 0
	movb	(%edx,%eax), %cl
	testb	%cl, %cl
	jne	.L63
.L65:
	.loc 1 296 0
	subl	$12, %esp
	pushl	$s_queue_overview.2870
	call	*%esi
.LVL119:
	.loc 1 262 0
	movl	(%ebx), %ebx
.LVL120:
	jmp	.L73
.LVL121:
.L63:
	.loc 1 292 0 discriminator 2
	movb	%cl, s_queue_overview.2870+44(%eax)
	.loc 1 288 0 discriminator 2
	incl	%eax
.LVL122:
	cmpl	$20, %eax
	jne	.L64
	jmp	.L65
.LVL123:
.L56:
	.loc 1 298 0
	leal	-8(%ebp), %esp
	popl	%ebx
	.cfi_restore 3
	popl	%esi
	.cfi_restore 6
	popl	%ebp
	.cfi_restore 5
	.cfi_def_cfa 4, 4
	ret
	.cfi_endproc
.LFE16:
	.size	krhino_queue_overview, .-krhino_queue_overview
	.section	.text.unlikely.krhino_queue_overview
.LCOLDE28:
	.section	.text.krhino_queue_overview
.LHOTE28:
	.section	.rodata.str1.1
.LC29:
	.string	"--------------------------------------------\r\n"
.LC30:
	.string	"SemAddr    Count      PeakCount  TaskWaiting\n"
.LC31:
	.string	"Sem Type error!\r\n"
	.section	.text.unlikely.krhino_sem_overview,"ax",@progbits
.LCOLDB32:
	.section	.text.krhino_sem_overview,"ax",@progbits
.LHOTB32:
	.globl	krhino_sem_overview
	.type	krhino_sem_overview, @function
krhino_sem_overview:
.LFB17:
	.loc 1 314 0
	.cfi_startproc
.LVL124:
	pushl	%ebp
	.cfi_def_cfa_offset 8
	.cfi_offset 5, -8
	movl	%esp, %ebp
	.cfi_def_cfa_register 5
	pushl	%edi
	pushl	%esi
	pushl	%ebx
	subl	$12, %esp
	.cfi_offset 7, -12
	.cfi_offset 6, -16
	.cfi_offset 3, -20
	.loc 1 314 0
	movl	8(%ebp), %esi
	.loc 1 324 0
	testl	%esi, %esi
	je	.L74
	.loc 1 328 0
	subl	$12, %esp
	pushl	$.LC29
	call	*%esi
.LVL125:
	.loc 1 329 0
	movl	$.LC30, (%esp)
	call	*%esi
.LVL126:
	.loc 1 330 0
	movl	$.LC29, (%esp)
	call	*%esi
.LVL127:
	.loc 1 332 0
	movl	g_kobj_list+24, %ebx
.LVL128:
.L91:
	.loc 1 334 0
	addl	$16, %esp
	.loc 1 332 0
	cmpl	$g_kobj_list+24, %ebx
	je	.L74
	.loc 1 337 0
	cmpl	$1, -12(%ebx)
	.loc 1 336 0
	leal	-28(%ebx), %edi
.LVL129:
	.loc 1 337 0
	je	.L78
	.loc 1 338 0
	movl	$.LC31, 8(%ebp)
	.loc 1 369 0
	leal	-12(%ebp), %esp
	.loc 1 338 0
	movl	%esi, %eax
	.loc 1 369 0
	popl	%ebx
	.cfi_remember_state
	.cfi_restore 3
.LVL130:
	popl	%esi
	.cfi_restore 6
	popl	%edi
	.cfi_restore 7
.LVL131:
	popl	%ebp
	.cfi_restore 5
	.cfi_def_cfa 4, 4
	.loc 1 338 0
	jmp	*%eax
.LVL132:
.L78:
	.cfi_restore_state
	.loc 1 343 0
	pushl	%eax
	pushl	%eax
	pushl	$s_sem_overview.2890+2
	pushl	%edi
	call	k_int2str
.LVL133:
	.loc 1 344 0
	popl	%edx
	popl	%ecx
	pushl	$s_sem_overview.2890+13
	pushl	-8(%ebx)
	call	k_int2str
.LVL134:
	.loc 1 345 0
	popl	%eax
	popl	%edx
	pushl	$s_sem_overview.2890+24
	pushl	-4(%ebx)
	call	k_int2str
.LVL135:
.LBB12:
.LBB13:
	.loc 2 23 0
	movl	-28(%ebx), %eax
.LVL136:
.LBE13:
.LBE12:
	.loc 1 349 0
	addl	$16, %esp
	.loc 1 350 0
	movl	$.LC20, %edx
	.loc 1 349 0
	cmpl	%edi, %eax
	je	.L79
.LVL137:
	.loc 1 353 0
	movl	-20(%eax), %edx
	.loc 1 353 0
	movl	$.LC15, %eax
.LVL138:
	testl	%edx, %edx
	cmove	%eax, %edx
.LVL139:
.L79:
	.loc 1 356 0
	xorl	%eax, %eax
.LVL140:
.L80:
	.loc 1 357 0 discriminator 3
	movb	$32, s_sem_overview.2890+33(%eax)
	.loc 1 356 0 discriminator 3
	incl	%eax
.LVL141:
	cmpl	$20, %eax
	jne	.L80
	xorl	%eax, %eax
.LVL142:
.L82:
	.loc 1 360 0
	movb	(%edx,%eax), %cl
	testb	%cl, %cl
	jne	.L81
.L83:
	.loc 1 367 0
	subl	$12, %esp
	pushl	$s_sem_overview.2890
	call	*%esi
.LVL143:
	.loc 1 334 0
	movl	(%ebx), %ebx
.LVL144:
	jmp	.L91
.LVL145:
.L81:
	.loc 1 363 0 discriminator 2
	movb	%cl, s_sem_overview.2890+33(%eax)
	.loc 1 359 0 discriminator 2
	incl	%eax
.LVL146:
	cmpl	$20, %eax
	jne	.L82
	jmp	.L83
.LVL147:
.L74:
	.loc 1 369 0
	leal	-12(%ebp), %esp
	popl	%ebx
	.cfi_restore 3
	popl	%esi
	.cfi_restore 6
	popl	%edi
	.cfi_restore 7
	popl	%ebp
	.cfi_restore 5
	.cfi_def_cfa 4, 4
	ret
	.cfi_endproc
.LFE17:
	.size	krhino_sem_overview, .-krhino_sem_overview
	.section	.text.unlikely.krhino_sem_overview
.LCOLDE32:
	.section	.text.krhino_sem_overview
.LHOTE32:
	.section	.data.s_sem_overview.2890,"aw",@progbits
	.align 32
	.type	s_sem_overview.2890, @object
	.size	s_sem_overview.2890, 56
s_sem_overview.2890:
	.string	"0x         0x         0x                             \r\n"
	.section	.data.s_queue_overview.2870,"aw",@progbits
	.align 32
	.type	s_queue_overview.2870, @object
	.size	s_queue_overview.2870, 67
s_queue_overview.2870:
	.string	"0x         0x         0x         0x                             \r\n"
	.section	.data.s_buf_queue_overview.2850,"aw",@progbits
	.align 32
	.type	s_buf_queue_overview.2850, @object
	.size	s_buf_queue_overview.2850, 78
s_buf_queue_overview.2850:
	.string	"0x         0x         0x         0x         0x                             \r\n"
	.section	.data.s_task_overview.2824,"aw",@progbits
	.align 32
	.type	s_task_overview.2824, @object
	.size	s_task_overview.2824, 77
s_task_overview.2824:
	.string	"                              0x         0x         0x        (0x        )\r\n"
	.section	.data.s_heap_overview.2812,"aw",@progbits
	.align 32
	.type	s_heap_overview.2812, @object
	.size	s_heap_overview.2812, 62
s_heap_overview.2812:
	.string	"      | 0x         | 0x         | 0x         | 0x         |\r\n"
	.text
.Letext0:
	.section	.text.unlikely.k_int2str
.Letext_cold0:
	.file 3 "/home/stone/Documents/Ali_IOT/build/compiler/gcc-arm-none-eabi/Linux64/lib/gcc/arm-none-eabi/5.4.1/include/stddef.h"
	.file 4 "/home/stone/Documents/Ali_IOT/build/compiler/gcc-arm-none-eabi/Linux64/arm-none-eabi/include/machine/_default_types.h"
	.file 5 "/home/stone/Documents/Ali_IOT/build/compiler/gcc-arm-none-eabi/Linux64/arm-none-eabi/include/sys/_stdint.h"
	.file 6 "././platform/arch/arm/armv5/./gcc/k_types.h"
	.file 7 "./kernel/rhino/core/include/k_spin_lock.h"
	.file 8 "./kernel/rhino/core/include/k_sys.h"
	.file 9 "./kernel/rhino/core/include/k_err.h"
	.file 10 "./kernel/rhino/core/include/k_obj.h"
	.file 11 "./kernel/rhino/core/include/k_task.h"
	.file 12 "./kernel/rhino/core/include/k_mutex.h"
	.file 13 "./kernel/rhino/core/include/k_sem.h"
	.file 14 "./kernel/rhino/core/include/k_ringbuf.h"
	.file 15 "./kernel/rhino/core/include/k_queue.h"
	.file 16 "./kernel/rhino/core/include/k_buf_queue.h"
	.file 17 "./kernel/rhino/core/include/k_mm.h"
	.file 18 "./kernel/rhino/core/include/k_mm_blk.h"
	.file 19 "./kernel/rhino/core/include/k_internal.h"
	.section	.note.GNU-stack,"",@progbits
