	.file	"k_pend.c"
	.text
.Ltext0:
	.section	.text.unlikely.klist_rm,"ax",@progbits
.LCOLDB0:
	.section	.text.klist_rm,"ax",@progbits
.LHOTB0:
	.section	.text.unlikely.klist_rm
.Ltext_cold0:
	.section	.text.klist_rm
	.type	klist_rm, @function
klist_rm:
.LFB9:
	.file 1 "./kernel/rhino/core/include/k_list.h"
	.loc 1 45 0
	.cfi_startproc
.LVL0:
	pushl	%ebp
	.cfi_def_cfa_offset 8
	.cfi_offset 5, -8
	.loc 1 46 0
	movl	4(%eax), %edx
	movl	(%eax), %ecx
	.loc 1 45 0
	movl	%esp, %ebp
	.cfi_def_cfa_register 5
	.loc 1 46 0
	movl	%ecx, (%edx)
	.loc 1 47 0
	movl	(%eax), %eax
.LVL1:
	movl	%edx, 4(%eax)
	.loc 1 48 0
	popl	%ebp
	.cfi_restore 5
	.cfi_def_cfa 4, 4
	ret
	.cfi_endproc
.LFE9:
	.size	klist_rm, .-klist_rm
	.section	.text.unlikely.klist_rm
.LCOLDE0:
	.section	.text.klist_rm
.LHOTE0:
	.section	.text.unlikely.pend_list_add,"ax",@progbits
.LCOLDB1:
	.section	.text.pend_list_add,"ax",@progbits
.LHOTB1:
	.type	pend_list_add, @function
pend_list_add:
.LFB12:
	.file 2 "kernel/rhino/core/k_pend.c"
	.loc 2 8 0
	.cfi_startproc
.LVL2:
	pushl	%ebp
	.cfi_def_cfa_offset 8
	.cfi_offset 5, -8
	movl	%esp, %ebp
	.cfi_def_cfa_register 5
	pushl	%ebx
	.cfi_offset 3, -12
	.loc 2 13 0
	movl	(%eax), %ecx
.LVL3:
.L4:
	.loc 2 13 0 is_stmt 0 discriminator 1
	cmpl	%eax, %ecx
	je	.L7
	.loc 2 14 0 is_stmt 1
	movb	119(%edx), %bl
	cmpb	%bl, 95(%ecx)
	jbe	.L5
	movl	%ecx, %eax
.LVL4:
.L7:
.LBB4:
.LBB5:
	.loc 1 28 0
	movl	4(%eax), %ebx
.LBE5:
.LBE4:
	.loc 2 19 0
	leal	24(%edx), %ecx
.LVL5:
.LBB7:
.LBB6:
	.loc 1 29 0
	movl	%eax, 24(%edx)
	.loc 1 28 0
	movl	%ebx, 28(%edx)
	.loc 1 31 0
	movl	4(%eax), %edx
.LVL6:
	movl	%ecx, (%edx)
	.loc 1 32 0
	movl	%ecx, 4(%eax)
.LVL7:
.LBE6:
.LBE7:
	.loc 2 20 0
	popl	%ebx
	.cfi_remember_state
	.cfi_restore 3
	popl	%ebp
	.cfi_restore 5
	.cfi_def_cfa 4, 4
	ret
.LVL8:
.L5:
	.cfi_restore_state
	.loc 2 13 0 discriminator 2
	movl	(%ecx), %ecx
.LVL9:
	jmp	.L4
	.cfi_endproc
.LFE12:
	.size	pend_list_add, .-pend_list_add
	.section	.text.unlikely.pend_list_add
.LCOLDE1:
	.section	.text.pend_list_add
.LHOTE1:
	.section	.text.unlikely.pend_task_wakeup,"ax",@progbits
.LCOLDB2:
	.section	.text.pend_task_wakeup,"ax",@progbits
.LHOTB2:
	.globl	pend_task_wakeup
	.type	pend_task_wakeup, @function
pend_task_wakeup:
.LFB13:
	.loc 2 23 0
	.cfi_startproc
.LVL10:
	pushl	%ebp
	.cfi_def_cfa_offset 8
	.cfi_offset 5, -8
	movl	%esp, %ebp
	.cfi_def_cfa_register 5
	pushl	%ebx
	pushl	%edx
	.cfi_offset 3, -12
	.loc 2 23 0
	movl	8(%ebp), %ebx
	.loc 2 25 0
	movl	84(%ebx), %eax
	cmpl	$2, %eax
	je	.L13
	cmpl	$4, %eax
	jne	.L19
	.loc 2 35 0
	leal	24(%ebx), %eax
	call	klist_rm
.LVL11:
	.loc 2 36 0
	movl	$3, 84(%ebx)
	.loc 2 37 0
	jmp	.L15
.L13:
	.loc 2 28 0
	leal	24(%ebx), %eax
	call	klist_rm
.LVL12:
	.loc 2 30 0
	pushl	%eax
	pushl	%eax
	pushl	%ebx
	pushl	$g_ready_queue
	call	ready_list_add
.LVL13:
	.loc 2 31 0
	movl	$1, 84(%ebx)
	jmp	.L18
.L19:
	.loc 2 39 0
	subl	$12, %esp
	pushl	$1
	call	k_err_proc
.LVL14:
.L18:
	.loc 2 40 0
	addl	$16, %esp
.L15:
	.loc 2 44 0
	subl	$12, %esp
	pushl	%ebx
	call	tick_list_rm
.LVL15:
	.loc 2 46 0
	movl	$0, 88(%ebx)
	.loc 2 47 0
	movl	$0, 92(%ebx)
	.loc 2 48 0
	addl	$16, %esp
	movl	-4(%ebp), %ebx
	leave
	.cfi_restore 5
	.cfi_restore 3
	.cfi_def_cfa 4, 4
	ret
	.cfi_endproc
.LFE13:
	.size	pend_task_wakeup, .-pend_task_wakeup
	.section	.text.unlikely.pend_task_wakeup
.LCOLDE2:
	.section	.text.pend_task_wakeup
.LHOTE2:
	.section	.text.unlikely.pend_to_blk_obj,"ax",@progbits
.LCOLDB3:
	.section	.text.pend_to_blk_obj,"ax",@progbits
.LHOTB3:
	.globl	pend_to_blk_obj
	.type	pend_to_blk_obj, @function
pend_to_blk_obj:
.LFB14:
	.loc 2 51 0
	.cfi_startproc
.LVL16:
	pushl	%ebp
	.cfi_def_cfa_offset 8
	.cfi_offset 5, -8
	movl	%esp, %ebp
	.cfi_def_cfa_register 5
	pushl	%esi
	pushl	%ebx
	.cfi_offset 6, -12
	.cfi_offset 3, -16
	.loc 2 51 0
	movl	20(%ebp), %edx
	movl	8(%ebp), %esi
	movl	12(%ebp), %ebx
	movl	16(%ebp), %eax
	.loc 2 55 0
	cmpl	$-1, %edx
	.loc 2 53 0
	movl	%esi, 92(%ebx)
	.loc 2 55 0
	jne	.L25
	cmpl	$-1, %eax
	je	.L21
.L25:
	.loc 2 56 0
	pushl	%ecx
	pushl	%edx
	pushl	%eax
	pushl	%ebx
	call	tick_list_insert
.LVL17:
	addl	$16, %esp
.L21:
	.loc 2 59 0
	movl	$2, 84(%ebx)
	.loc 2 62 0
	pushl	%eax
	pushl	%eax
	pushl	%ebx
	pushl	$g_ready_queue
	call	ready_list_rm
.LVL18:
	.loc 2 64 0
	addl	$16, %esp
	cmpl	$1, 12(%esi)
	jne	.L23
.LBB10:
.LBB11:
	.loc 1 28 0
	movl	4(%esi), %edx
.LBE11:
.LBE10:
	.loc 2 66 0
	leal	24(%ebx), %eax
.LVL19:
.LBB13:
.LBB12:
	.loc 1 29 0
	movl	%esi, 24(%ebx)
	.loc 1 28 0
	movl	%edx, 28(%ebx)
	.loc 1 31 0
	movl	4(%esi), %edx
	movl	%eax, (%edx)
	.loc 1 32 0
	movl	%eax, 4(%esi)
.LBE12:
.LBE13:
	.loc 2 71 0
	leal	-8(%ebp), %esp
	popl	%ebx
	.cfi_remember_state
	.cfi_restore 3
	popl	%esi
	.cfi_restore 6
	popl	%ebp
	.cfi_restore 5
	.cfi_def_cfa 4, 4
	ret
.LVL20:
.L23:
	.cfi_restore_state
	leal	-8(%ebp), %esp
	.loc 2 69 0
	movl	%ebx, %edx
	movl	%esi, %eax
	.loc 2 71 0
	popl	%ebx
	.cfi_restore 3
	popl	%esi
	.cfi_restore 6
	popl	%ebp
	.cfi_restore 5
	.cfi_def_cfa 4, 4
	.loc 2 69 0
	jmp	pend_list_add
.LVL21:
	.cfi_endproc
.LFE14:
	.size	pend_to_blk_obj, .-pend_to_blk_obj
	.section	.text.unlikely.pend_to_blk_obj
.LCOLDE3:
	.section	.text.pend_to_blk_obj
.LHOTE3:
	.section	.text.unlikely.pend_task_rm,"ax",@progbits
.LCOLDB4:
	.section	.text.pend_task_rm,"ax",@progbits
.LHOTB4:
	.globl	pend_task_rm
	.type	pend_task_rm, @function
pend_task_rm:
.LFB15:
	.loc 2 74 0
	.cfi_startproc
.LVL22:
	pushl	%ebp
	.cfi_def_cfa_offset 8
	.cfi_offset 5, -8
	movl	%esp, %ebp
	.cfi_def_cfa_register 5
	pushl	%ebx
	pushl	%edx
	.cfi_offset 3, -12
	.loc 2 74 0
	movl	8(%ebp), %ebx
	.loc 2 75 0
	movl	84(%ebx), %eax
	cmpl	$2, %eax
	je	.L30
	cmpl	$4, %eax
	jne	.L36
	.loc 2 85 0
	leal	24(%ebx), %eax
	call	klist_rm
.LVL23:
	.loc 2 86 0
	movl	$3, 84(%ebx)
	.loc 2 87 0
	jmp	.L32
.L30:
	.loc 2 78 0
	leal	24(%ebx), %eax
	call	klist_rm
.LVL24:
	.loc 2 80 0
	pushl	%eax
	pushl	%eax
	pushl	%ebx
	pushl	$g_ready_queue
	call	ready_list_add
.LVL25:
	.loc 2 81 0
	movl	$1, 84(%ebx)
	jmp	.L35
.L36:
	.loc 2 89 0
	subl	$12, %esp
	pushl	$1
	call	k_err_proc
.LVL26:
.L35:
	.loc 2 90 0
	addl	$16, %esp
.L32:
	.loc 2 94 0
	subl	$12, %esp
	pushl	%ebx
	call	tick_list_rm
.LVL27:
	.loc 2 95 0
	movl	$3, 88(%ebx)
	.loc 2 98 0
	movl	$0, 92(%ebx)
	.loc 2 99 0
	addl	$16, %esp
	movl	-4(%ebp), %ebx
	leave
	.cfi_restore 5
	.cfi_restore 3
	.cfi_def_cfa 4, 4
	ret
	.cfi_endproc
.LFE15:
	.size	pend_task_rm, .-pend_task_rm
	.section	.text.unlikely.pend_task_rm
.LCOLDE4:
	.section	.text.pend_task_rm
.LHOTE4:
	.section	.text.unlikely.pend_list_reorder,"ax",@progbits
.LCOLDB5:
	.section	.text.pend_list_reorder,"ax",@progbits
.LHOTB5:
	.globl	pend_list_reorder
	.type	pend_list_reorder, @function
pend_list_reorder:
.LFB16:
	.loc 2 102 0
	.cfi_startproc
.LVL28:
	pushl	%ebp
	.cfi_def_cfa_offset 8
	.cfi_offset 5, -8
	movl	%esp, %ebp
	.cfi_def_cfa_register 5
	pushl	%ebx
	.cfi_offset 3, -12
	.loc 2 102 0
	movl	8(%ebp), %ebx
	.loc 2 103 0
	movl	92(%ebx), %eax
	cmpl	$0, 12(%eax)
	jne	.L37
	.loc 2 105 0
	leal	24(%ebx), %eax
	call	klist_rm
.LVL29:
	.loc 2 106 0
	movl	92(%ebx), %eax
	movl	%ebx, %edx
	.loc 2 108 0
	popl	%ebx
	.cfi_remember_state
	.cfi_restore 3
	popl	%ebp
	.cfi_restore 5
	.cfi_def_cfa 4, 4
	.loc 2 106 0
	jmp	pend_list_add
.LVL30:
.L37:
	.cfi_restore_state
	.loc 2 108 0
	popl	%ebx
	.cfi_restore 3
.LVL31:
	popl	%ebp
	.cfi_restore 5
	.cfi_def_cfa 4, 4
	ret
	.cfi_endproc
.LFE16:
	.size	pend_list_reorder, .-pend_list_reorder
	.section	.text.unlikely.pend_list_reorder
.LCOLDE5:
	.section	.text.pend_list_reorder
.LHOTE5:
	.section	.text.unlikely.pend_state_end_proc,"ax",@progbits
.LCOLDB6:
	.section	.text.pend_state_end_proc,"ax",@progbits
.LHOTB6:
	.globl	pend_state_end_proc
	.type	pend_state_end_proc, @function
pend_state_end_proc:
.LFB17:
	.loc 2 111 0
	.cfi_startproc
.LVL32:
	pushl	%ebp
	.cfi_def_cfa_offset 8
	.cfi_offset 5, -8
	movl	%esp, %ebp
	.cfi_def_cfa_register 5
	subl	$8, %esp
	.loc 2 114 0
	movl	8(%ebp), %eax
	movl	88(%eax), %edx
	.loc 2 119 0
	movl	$401, %eax
	.loc 2 114 0
	cmpl	$1, %edx
	je	.L43
	.loc 2 116 0
	movl	$0, %eax
	.loc 2 114 0
	jb	.L43
	cmpl	$2, %edx
	.loc 2 122 0
	movl	$402, %eax
	.loc 2 114 0
	je	.L43
	cmpl	$3, %edx
	.loc 2 125 0
	movl	$403, %eax
	.loc 2 114 0
	je	.L43
	.loc 2 128 0
	subl	$12, %esp
	pushl	$404
	call	k_err_proc
.LVL33:
	.loc 2 130 0
	addl	$16, %esp
	.loc 2 129 0
	movl	$404, %eax
.LVL34:
.L43:
	.loc 2 134 0
	leave
	.cfi_restore 5
	.cfi_def_cfa 4, 4
	ret
	.cfi_endproc
.LFE17:
	.size	pend_state_end_proc, .-pend_state_end_proc
	.section	.text.unlikely.pend_state_end_proc
.LCOLDE6:
	.section	.text.pend_state_end_proc
.LHOTE6:
	.text
.Letext0:
	.section	.text.unlikely.klist_rm
.Letext_cold0:
	.file 3 "/home/stone/Documents/Ali_IOT/build/compiler/gcc-arm-none-eabi/Linux64/lib/gcc/arm-none-eabi/5.4.1/include/stddef.h"
	.file 4 "/home/stone/Documents/Ali_IOT/build/compiler/gcc-arm-none-eabi/Linux64/arm-none-eabi/include/machine/_default_types.h"
	.file 5 "/home/stone/Documents/Ali_IOT/build/compiler/gcc-arm-none-eabi/Linux64/arm-none-eabi/include/sys/_stdint.h"
	.file 6 "././platform/arch/arm/armv5/./gcc/k_types.h"
	.file 7 "./kernel/rhino/core/include/k_err.h"
	.file 8 "./kernel/rhino/core/include/k_sys.h"
	.file 9 "./kernel/rhino/core/include/k_obj.h"
	.file 10 "./kernel/rhino/core/include/k_sched.h"
	.file 11 "./kernel/rhino/core/include/k_task.h"
	.file 12 "./kernel/rhino/core/include/k_mutex.h"
	.file 13 "./kernel/rhino/core/include/k_sem.h"
	.file 14 "./kernel/rhino/core/include/k_internal.h"
	.section	.note.GNU-stack,"",@progbits
