	.file	"k_ringbuf.c"
	.text
.Ltext0:
	.section	.text.unlikely.ringbuf_is_full,"ax",@progbits
.LCOLDB0:
	.section	.text.ringbuf_is_full,"ax",@progbits
.LHOTB0:
	.section	.text.unlikely.ringbuf_is_full
.Ltext_cold0:
	.section	.text.ringbuf_is_full
	.globl	ringbuf_is_full
	.type	ringbuf_is_full, @function
ringbuf_is_full:
.LFB15:
	.file 1 "kernel/rhino/core/k_ringbuf.c"
	.loc 1 182 0
	.cfi_startproc
.LVL0:
	pushl	%ebp
	.cfi_def_cfa_offset 8
	.cfi_offset 5, -8
	movl	%esp, %ebp
	.cfi_def_cfa_register 5
	.loc 1 182 0
	movl	8(%ebp), %edx
	.loc 1 183 0
	movl	20(%edx), %ecx
	cmpl	$1, %ecx
	jne	.L2
	.loc 1 184 0 discriminator 1
	cmpl	$4, 16(%edx)
	setbe	%al
	jmp	.L3
.L2:
	.loc 1 192 0
	xorl	%eax, %eax
	.loc 1 187 0
	testl	%ecx, %ecx
	jne	.L3
	.loc 1 184 0 discriminator 1
	movl	24(%edx), %eax
	cmpl	%eax, 16(%edx)
	setb	%al
.LVL1:
.L3:
	.loc 1 193 0
	popl	%ebp
	.cfi_restore 5
	.cfi_def_cfa 4, 4
	ret
	.cfi_endproc
.LFE15:
	.size	ringbuf_is_full, .-ringbuf_is_full
	.section	.text.unlikely.ringbuf_is_full
.LCOLDE0:
	.section	.text.ringbuf_is_full
.LHOTE0:
	.section	.text.unlikely.ringbuf_push,"ax",@progbits
.LCOLDB1:
	.section	.text.ringbuf_push,"ax",@progbits
.LHOTB1:
	.globl	ringbuf_push
	.type	ringbuf_push, @function
ringbuf_push:
.LFB13:
	.loc 1 24 0
	.cfi_startproc
.LVL2:
	pushl	%ebp
	.cfi_def_cfa_offset 8
	.cfi_offset 5, -8
	movl	%esp, %ebp
	.cfi_def_cfa_register 5
	pushl	%edi
	pushl	%esi
	pushl	%ebx
	subl	$44, %esp
	.cfi_offset 7, -12
	.cfi_offset 6, -16
	.cfi_offset 3, -20
	.loc 1 24 0
	movl	8(%ebp), %ebx
	movl	12(%ebp), %eax
	.loc 1 27 0
	movl	$0, -32(%ebp)
	.loc 1 29 0
	pushl	%ebx
	.loc 1 24 0
	movl	%eax, -44(%ebp)
	movl	%gs:20, %eax
	movl	%eax, -28(%ebp)
	xorl	%eax, %eax
.LVL3:
	.loc 1 29 0
	call	ringbuf_is_full
.LVL4:
	testb	%al, %al
	popl	%edx
	je	.L8
.LVL5:
.L12:
	.loc 1 30 0
	movl	$106, %eax
	jmp	.L9
.LVL6:
.L8:
	.loc 1 33 0
	cmpl	$0, 20(%ebx)
	jne	.L10
	.loc 1 34 0
	movl	4(%ebx), %eax
	cmpl	%eax, 12(%ebx)
	jne	.L11
	.loc 1 35 0
	movl	(%ebx), %eax
	movl	%eax, 12(%ebx)
.L11:
	.loc 1 38 0
	movl	24(%ebx), %ecx
	movl	12(%ebx), %edi
	movl	-44(%ebp), %esi
	rep movsb
	.loc 1 39 0
	movl	24(%ebx), %eax
	jmp	.L28
.L10:
	.loc 1 42 0
	movl	16(%ebp), %eax
	leal	-1(%eax), %edx
	.loc 1 43 0
	movl	$5, %eax
	.loc 1 42 0
	cmpl	$-3, %edx
	ja	.L9
.LVL7:
	.loc 1 52 0
	movl	16(%ebp), %eax
	movl	%eax, -32(%ebp)
	.loc 1 55 0
	addl	$4, %eax
	cmpl	%eax, 16(%ebx)
	jb	.L12
	.loc 1 59 0
	movl	4(%ebx), %eax
	cmpl	%eax, 12(%ebx)
	jne	.L13
	.loc 1 60 0
	movl	(%ebx), %edx
	movl	%edx, 12(%ebx)
.L13:
	.loc 1 64 0
	movl	12(%ebx), %edx
	cmpl	8(%ebx), %edx
	jb	.L20
	.loc 1 65 0 discriminator 1
	subl	%edx, %eax
.LVL8:
	leal	-1(%eax), %ecx
	cmpl	$2, %ecx
	ja	.L20
	.loc 1 66 0
	movl	%edx, %edi
	leal	-32(%ebp), %esi
	movl	%eax, %ecx
	rep movsb
	.loc 1 67 0
	movl	$4, %edx
	subl	%eax, %edx
.LVL9:
	.loc 1 68 0
	movl	(%ebx), %ecx
	.loc 1 69 0
	subl	%eax, 16(%ebx)
	.loc 1 68 0
	movl	%ecx, 12(%ebx)
	.loc 1 69 0
	jmp	.L14
.LVL10:
.L20:
	.loc 1 71 0
	xorl	%eax, %eax
	.loc 1 46 0
	movl	$4, %edx
.LVL11:
.L14:
	.loc 1 75 0
	leal	-32(%ebp,%eax), %esi
	movl	12(%ebx), %edi
	movl	%edx, %ecx
	rep movsb
	.loc 1 77 0
	movl	12(%ebx), %eax
.LVL12:
	.loc 1 76 0
	subl	%edx, 16(%ebx)
	.loc 1 77 0
	addl	%edx, %eax
	.loc 1 83 0
	movl	4(%ebx), %edx
.LVL13:
	.loc 1 77 0
	movl	%eax, 12(%ebx)
.LVL14:
	.loc 1 83 0
	cmpl	%edx, %eax
	jne	.L15
	.loc 1 84 0
	movl	(%ebx), %eax
	movl	%eax, 12(%ebx)
.L15:
	.loc 1 87 0
	movl	12(%ebx), %eax
	cmpl	8(%ebx), %eax
	jb	.L16
.LVL15:
	.loc 1 88 0 discriminator 1
	subl	%eax, %edx
.LVL16:
	je	.L16
	cmpl	%edx, 16(%ebp)
	jbe	.L16
	.loc 1 91 0
	movl	%eax, %edi
	movl	-44(%ebp), %esi
	movl	%edx, %ecx
	rep movsb
	.loc 1 92 0
	subl	%edx, 16(%ebp)
	.loc 1 93 0
	movl	(%ebx), %eax
	.loc 1 94 0
	subl	%edx, 16(%ebx)
	.loc 1 91 0
	movl	%esi, -44(%ebp)
.LVL17:
	.loc 1 93 0
	movl	%eax, 12(%ebx)
.LVL18:
.L16:
	.loc 1 97 0
	movl	12(%ebx), %edi
	movl	-44(%ebp), %esi
	movl	16(%ebp), %ecx
	.loc 1 98 0
	movl	16(%ebp), %eax
	.loc 1 97 0
	rep movsb
.LVL19:
.L28:
	.loc 1 98 0
	addl	%eax, 12(%ebx)
	.loc 1 99 0
	subl	%eax, 16(%ebx)
	.loc 1 102 0
	xorl	%eax, %eax
.L9:
	.loc 1 103 0
	movl	-28(%ebp), %edi
	xorl	%gs:20, %edi
	je	.L17
	call	__stack_chk_fail
.LVL20:
.L17:
	leal	-12(%ebp), %esp
	popl	%ebx
	.cfi_restore 3
	popl	%esi
	.cfi_restore 6
	popl	%edi
	.cfi_restore 7
	popl	%ebp
	.cfi_restore 5
	.cfi_def_cfa 4, 4
	ret
	.cfi_endproc
.LFE13:
	.size	ringbuf_push, .-ringbuf_push
	.section	.text.unlikely.ringbuf_push
.LCOLDE1:
	.section	.text.ringbuf_push
.LHOTE1:
	.section	.text.unlikely.ringbuf_is_empty,"ax",@progbits
.LCOLDB2:
	.section	.text.ringbuf_is_empty,"ax",@progbits
.LHOTB2:
	.globl	ringbuf_is_empty
	.type	ringbuf_is_empty, @function
ringbuf_is_empty:
.LFB16:
	.loc 1 196 0
	.cfi_startproc
.LVL21:
	pushl	%ebp
	.cfi_def_cfa_offset 8
	.cfi_offset 5, -8
	movl	%esp, %ebp
	.cfi_def_cfa_register 5
	.loc 1 196 0
	movl	8(%ebp), %eax
	.loc 1 202 0
	popl	%ebp
	.cfi_restore 5
	.cfi_def_cfa 4, 4
	movl	4(%eax), %edx
	subl	(%eax), %edx
	cmpl	16(%eax), %edx
	sete	%al
	ret
	.cfi_endproc
.LFE16:
	.size	ringbuf_is_empty, .-ringbuf_is_empty
	.section	.text.unlikely.ringbuf_is_empty
.LCOLDE2:
	.section	.text.ringbuf_is_empty
.LHOTE2:
	.section	.text.unlikely.ringbuf_pop,"ax",@progbits
.LCOLDB3:
	.section	.text.ringbuf_pop,"ax",@progbits
.LHOTB3:
	.globl	ringbuf_pop
	.type	ringbuf_pop, @function
ringbuf_pop:
.LFB14:
	.loc 1 106 0
	.cfi_startproc
.LVL22:
	pushl	%ebp
	.cfi_def_cfa_offset 8
	.cfi_offset 5, -8
	movl	%esp, %ebp
	.cfi_def_cfa_register 5
	pushl	%edi
	pushl	%esi
	pushl	%ebx
	subl	$44, %esp
	.cfi_offset 7, -12
	.cfi_offset 6, -16
	.cfi_offset 3, -20
	.loc 1 106 0
	movl	12(%ebp), %eax
	movl	8(%ebp), %ebx
	.loc 1 110 0
	movl	$0, -32(%ebp)
	.loc 1 106 0
	movl	%eax, -48(%ebp)
	movl	16(%ebp), %eax
	.loc 1 113 0
	pushl	%ebx
	.loc 1 106 0
	movl	%eax, -52(%ebp)
	movl	%gs:20, %eax
	movl	%eax, -28(%ebp)
	xorl	%eax, %eax
.LVL23:
	.loc 1 113 0
	call	ringbuf_is_empty
.LVL24:
	testb	%al, %al
	popl	%edx
	.loc 1 114 0
	movl	$107, %edx
	.loc 1 113 0
	jne	.L32
	.loc 1 117 0
	cmpl	$0, 20(%ebx)
	.loc 1 118 0
	movl	4(%ebx), %eax
	.loc 1 117 0
	jne	.L33
	.loc 1 118 0
	cmpl	%eax, 8(%ebx)
	jne	.L34
	.loc 1 119 0
	movl	(%ebx), %eax
	movl	%eax, 8(%ebx)
.L34:
	.loc 1 122 0
	movl	8(%ebx), %esi
	movl	24(%ebx), %ecx
	.loc 1 130 0
	xorl	%edx, %edx
	.loc 1 122 0
	movl	-48(%ebp), %edi
	rep movsb
	.loc 1 123 0
	movl	24(%ebx), %eax
	addl	%eax, 8(%ebx)
	.loc 1 124 0
	addl	%eax, 16(%ebx)
	.loc 1 126 0
	cmpl	$0, -52(%ebp)
	je	.L32
	.loc 1 127 0
	movl	-52(%ebp), %ecx
	movl	%eax, (%ecx)
	jmp	.L32
.L33:
.LVL25:
	.loc 1 135 0
	cmpl	%eax, 8(%ebx)
	movl	%eax, -44(%ebp)
	jne	.L35
	.loc 1 136 0
	movl	(%ebx), %eax
	movl	%eax, 8(%ebx)
.L35:
	.loc 1 139 0
	movl	8(%ebx), %esi
	movl	-44(%ebp), %edx
	subl	%esi, %edx
.LVL26:
	leal	-1(%edx), %eax
	cmpl	$2, %eax
	ja	.L42
	.loc 1 142 0
	leal	-32(%ebp), %eax
	movl	%edx, %ecx
	movl	%eax, %edi
	.loc 1 144 0
	movl	(%ebx), %eax
	.loc 1 142 0
	rep movsb
	.loc 1 145 0
	addl	%edx, 16(%ebx)
	.loc 1 144 0
	movl	%eax, 8(%ebx)
	.loc 1 145 0
	jmp	.L36
.L42:
	.loc 1 147 0
	xorl	%edx, %edx
.LVL27:
.L36:
	.loc 1 151 0
	movl	$4, %eax
	movl	8(%ebx), %esi
	subl	%edx, %eax
	leal	-32(%ebp,%edx), %edx
.LVL28:
	movl	%eax, %ecx
	movl	%edx, %edi
	rep movsb
	.loc 1 153 0
	addl	%eax, 16(%ebx)
	.loc 1 157 0
	movl	-52(%ebp), %edi
	.loc 1 159 0
	cmpl	%esi, -44(%ebp)
	.loc 1 156 0
	movl	-32(%ebp), %eax
.LVL29:
	.loc 1 152 0
	movl	%esi, 8(%ebx)
	.loc 1 157 0
	movl	%eax, (%edi)
	.loc 1 159 0
	jne	.L37
	.loc 1 160 0
	movl	(%ebx), %edx
	movl	%edx, 8(%ebx)
.L37:
	.loc 1 163 0
	movl	8(%ebx), %esi
	cmpl	12(%ebx), %esi
	jbe	.L38
	.loc 1 164 0 discriminator 1
	movl	-44(%ebp), %edx
	subl	%esi, %edx
.LVL30:
	.loc 1 163 0 discriminator 1
	cmpl	%edx, %eax
	jbe	.L38
	.loc 1 166 0
	movl	-48(%ebp), %edi
	movl	%edx, %ecx
	.loc 1 167 0
	subl	%edx, %eax
.LVL31:
	.loc 1 166 0
	rep movsb
	.loc 1 168 0
	movl	(%ebx), %ecx
	.loc 1 169 0
	addl	%edx, 16(%ebx)
	.loc 1 166 0
	movl	%edi, -48(%ebp)
.LVL32:
	.loc 1 168 0
	movl	%ecx, 8(%ebx)
.LVL33:
.L38:
	.loc 1 172 0
	movl	8(%ebx), %esi
	movl	-48(%ebp), %edi
	movl	%eax, %ecx
	rep movsb
	.loc 1 176 0
	xorl	%edx, %edx
	.loc 1 173 0
	addl	%eax, 8(%ebx)
	.loc 1 174 0
	addl	%eax, 16(%ebx)
.LVL34:
.L32:
	.loc 1 179 0
	movl	-28(%ebp), %edi
	xorl	%gs:20, %edi
	movl	%edx, %eax
	je	.L39
	call	__stack_chk_fail
.LVL35:
.L39:
	leal	-12(%ebp), %esp
	popl	%ebx
	.cfi_restore 3
	popl	%esi
	.cfi_restore 6
	popl	%edi
	.cfi_restore 7
	popl	%ebp
	.cfi_restore 5
	.cfi_def_cfa 4, 4
	ret
	.cfi_endproc
.LFE14:
	.size	ringbuf_pop, .-ringbuf_pop
	.section	.text.unlikely.ringbuf_pop
.LCOLDE3:
	.section	.text.ringbuf_pop
.LHOTE3:
	.section	.text.unlikely.ringbuf_reset,"ax",@progbits
.LCOLDB4:
	.section	.text.ringbuf_reset,"ax",@progbits
.LHOTB4:
	.globl	ringbuf_reset
	.type	ringbuf_reset, @function
ringbuf_reset:
.LFB17:
	.loc 1 206 0
	.cfi_startproc
.LVL36:
	pushl	%ebp
	.cfi_def_cfa_offset 8
	.cfi_offset 5, -8
	movl	%esp, %ebp
	.cfi_def_cfa_register 5
	.loc 1 206 0
	movl	8(%ebp), %eax
	.loc 1 207 0
	movl	(%eax), %edx
	.loc 1 209 0
	movl	4(%eax), %ecx
	subl	%edx, %ecx
	.loc 1 207 0
	movl	%edx, 8(%eax)
	.loc 1 208 0
	movl	%edx, 12(%eax)
	.loc 1 209 0
	movl	%ecx, 16(%eax)
	.loc 1 212 0
	xorl	%eax, %eax
	popl	%ebp
	.cfi_restore 5
	.cfi_def_cfa 4, 4
	ret
	.cfi_endproc
.LFE17:
	.size	ringbuf_reset, .-ringbuf_reset
	.section	.text.unlikely.ringbuf_reset
.LCOLDE4:
	.section	.text.ringbuf_reset
.LHOTE4:
	.section	.text.unlikely.ringbuf_init,"ax",@progbits
.LCOLDB5:
	.section	.text.ringbuf_init,"ax",@progbits
.LHOTB5:
	.globl	ringbuf_init
	.type	ringbuf_init, @function
ringbuf_init:
.LFB12:
	.loc 1 11 0
	.cfi_startproc
.LVL37:
	pushl	%ebp
	.cfi_def_cfa_offset 8
	.cfi_offset 5, -8
	movl	%esp, %ebp
	.cfi_def_cfa_register 5
	.loc 1 11 0
	movl	8(%ebp), %eax
	movl	12(%ebp), %edx
	.loc 1 12 0
	movl	20(%ebp), %ecx
	.loc 1 13 0
	movl	%edx, (%eax)
	.loc 1 14 0
	addl	16(%ebp), %edx
	.loc 1 12 0
	movl	%ecx, 20(%eax)
	.loc 1 14 0
	movl	%edx, 4(%eax)
	.loc 1 15 0
	movl	24(%ebp), %edx
	movl	%edx, 24(%eax)
	.loc 1 17 0
	pushl	%eax
	call	ringbuf_reset
.LVL38:
	.loc 1 21 0
	xorl	%eax, %eax
	leave
	.cfi_restore 5
	.cfi_def_cfa 4, 4
	ret
	.cfi_endproc
.LFE12:
	.size	ringbuf_init, .-ringbuf_init
	.section	.text.unlikely.ringbuf_init
.LCOLDE5:
	.section	.text.ringbuf_init
.LHOTE5:
	.text
.Letext0:
	.section	.text.unlikely.ringbuf_is_full
.Letext_cold0:
	.file 2 "/home/stone/Documents/Ali_IOT/build/compiler/gcc-arm-none-eabi/Linux64/lib/gcc/arm-none-eabi/5.4.1/include/stddef.h"
	.file 3 "/home/stone/Documents/Ali_IOT/build/compiler/gcc-arm-none-eabi/Linux64/arm-none-eabi/include/machine/_default_types.h"
	.file 4 "/home/stone/Documents/Ali_IOT/build/compiler/gcc-arm-none-eabi/Linux64/arm-none-eabi/include/sys/_stdint.h"
	.file 5 "./kernel/rhino/core/include/k_err.h"
	.file 6 "./kernel/rhino/core/include/k_ringbuf.h"
	.section	.note.GNU-stack,"",@progbits
