	.file	"k_stats.c"
	.text
.Ltext0:
	.section	.text.unlikely.kobj_list_init,"ax",@progbits
.LCOLDB0:
	.section	.text.kobj_list_init,"ax",@progbits
.LHOTB0:
	.section	.text.unlikely.kobj_list_init
.Ltext_cold0:
	.section	.text.kobj_list_init
	.globl	kobj_list_init
	.type	kobj_list_init, @function
kobj_list_init:
.LFB12:
	.file 1 "kernel/rhino/core/k_stats.c"
	.loc 1 9 0
	.cfi_startproc
.LVL0:
	pushl	%ebp
	.cfi_def_cfa_offset 8
	.cfi_offset 5, -8
.LBB20:
.LBB21:
	.file 2 "./kernel/rhino/core/include/k_list.h"
	.loc 2 17 0
	movl	$g_kobj_list, g_kobj_list
	.loc 2 18 0
	movl	$g_kobj_list, g_kobj_list+4
.LVL1:
.LBE21:
.LBE20:
.LBB22:
.LBB23:
	.loc 2 17 0
	movl	$g_kobj_list+8, g_kobj_list+8
.LBE23:
.LBE22:
	.loc 1 9 0
	movl	%esp, %ebp
	.cfi_def_cfa_register 5
.LBB25:
.LBB24:
	.loc 2 18 0
	movl	$g_kobj_list+8, g_kobj_list+12
.LVL2:
.LBE24:
.LBE25:
.LBB26:
.LBB27:
	.loc 2 17 0
	movl	$g_kobj_list+16, g_kobj_list+16
	.loc 2 18 0
	movl	$g_kobj_list+16, g_kobj_list+20
.LVL3:
.LBE27:
.LBE26:
.LBB28:
.LBB29:
	.loc 2 17 0
	movl	$g_kobj_list+24, g_kobj_list+24
	.loc 2 18 0
	movl	$g_kobj_list+24, g_kobj_list+28
.LVL4:
.LBE29:
.LBE28:
.LBB30:
.LBB31:
	.loc 2 17 0
	movl	$g_kobj_list+32, g_kobj_list+32
	.loc 2 18 0
	movl	$g_kobj_list+32, g_kobj_list+36
.LVL5:
.LBE31:
.LBE30:
.LBB32:
.LBB33:
	.loc 2 17 0
	movl	$g_kobj_list+48, g_kobj_list+48
	.loc 2 18 0
	movl	$g_kobj_list+48, g_kobj_list+52
.LVL6:
.LBE33:
.LBE32:
.LBB34:
.LBB35:
	.loc 2 17 0
	movl	$g_kobj_list+40, g_kobj_list+40
	.loc 2 18 0
	movl	$g_kobj_list+40, g_kobj_list+44
.LVL7:
.LBE35:
.LBE34:
	.loc 1 32 0
	popl	%ebp
	.cfi_restore 5
	.cfi_def_cfa 4, 4
	ret
	.cfi_endproc
.LFE12:
	.size	kobj_list_init, .-kobj_list_init
	.section	.text.unlikely.kobj_list_init
.LCOLDE0:
	.section	.text.kobj_list_init
.LHOTE0:
	.section	.text.unlikely.krhino_stack_ovf_check,"ax",@progbits
.LCOLDB1:
	.section	.text.krhino_stack_ovf_check,"ax",@progbits
.LHOTB1:
	.globl	krhino_stack_ovf_check
	.type	krhino_stack_ovf_check, @function
krhino_stack_ovf_check:
.LFB13:
	.loc 1 38 0
	.cfi_startproc
	pushl	%ebp
	.cfi_def_cfa_offset 8
	.cfi_offset 5, -8
	movl	%esp, %ebp
	.cfi_def_cfa_register 5
	pushl	%ebx
	pushl	%eax
	.cfi_offset 3, -12
	.loc 1 42 0
	movl	g_active_task, %eax
	movl	16(%eax), %eax
.LVL8:
	.loc 1 45 0
	cmpl	$-559038801, (%eax)
	leal	4(%eax), %ebx
.LVL9:
	je	.L4
	.loc 1 46 0
	subl	$12, %esp
	pushl	$1200
	call	k_err_proc
.LVL10:
	addl	$16, %esp
.L4:
.LVL11:
	.loc 1 50 0 discriminator 2
	movl	g_active_task, %eax
	cmpl	(%eax), %ebx
	jbe	.L3
	.loc 1 51 0
	subl	$12, %esp
	pushl	$1200
	call	k_err_proc
.LVL12:
	addl	$16, %esp
.L3:
	.loc 1 53 0
	movl	-4(%ebp), %ebx
.LVL13:
	leave
	.cfi_restore 5
	.cfi_restore 3
	.cfi_def_cfa 4, 4
	ret
	.cfi_endproc
.LFE13:
	.size	krhino_stack_ovf_check, .-krhino_stack_ovf_check
	.section	.text.unlikely.krhino_stack_ovf_check
.LCOLDE1:
	.section	.text.krhino_stack_ovf_check
.LHOTE1:
	.text
.Letext0:
	.section	.text.unlikely.kobj_list_init
.Letext_cold0:
	.file 3 "/home/stone/Documents/Ali_IOT/build/compiler/gcc-arm-none-eabi/Linux64/lib/gcc/arm-none-eabi/5.4.1/include/stddef.h"
	.file 4 "/home/stone/Documents/Ali_IOT/build/compiler/gcc-arm-none-eabi/Linux64/arm-none-eabi/include/machine/_default_types.h"
	.file 5 "/home/stone/Documents/Ali_IOT/build/compiler/gcc-arm-none-eabi/Linux64/arm-none-eabi/include/sys/_stdint.h"
	.file 6 "././platform/arch/arm/armv5/./gcc/k_types.h"
	.file 7 "./kernel/rhino/core/include/k_sys.h"
	.file 8 "./kernel/rhino/core/include/k_err.h"
	.file 9 "./kernel/rhino/core/include/k_obj.h"
	.file 10 "./kernel/rhino/core/include/k_task.h"
	.file 11 "./kernel/rhino/core/include/k_mutex.h"
	.file 12 "./kernel/rhino/core/include/k_sem.h"
	.file 13 "./kernel/rhino/core/include/k_internal.h"
	.file 14 "././platform/arch/arm/armv5/./gcc/port.h"
	.section	.note.GNU-stack,"",@progbits
