	.file	"k_sys.c"
	.text
.Ltext0:
	.section	.rodata.str1.1,"aMS",@progbits,1
.LC0:
	.string	"res_sem"
.LC1:
	.string	"idle_task"
	.section	.text.unlikely.krhino_init,"ax",@progbits
.LCOLDB2:
	.section	.text.krhino_init,"ax",@progbits
.LHOTB2:
	.section	.text.unlikely.krhino_init
.Ltext_cold0:
	.section	.text.krhino_init
	.globl	krhino_init
	.type	krhino_init, @function
krhino_init:
.LFB13:
	.file 1 "kernel/rhino/core/k_sys.c"
	.loc 1 23 0
	.cfi_startproc
	pushl	%ebp
	.cfi_def_cfa_offset 8
	.cfi_offset 5, -8
	movl	%esp, %ebp
	.cfi_def_cfa_register 5
	subl	$20, %esp
	.loc 1 24 0
	movl	$4, g_sys_stat
	.loc 1 34 0
	pushl	$g_ready_queue
	call	runqueue_init
.LVL0:
	.loc 1 36 0
	call	tick_list_init
.LVL1:
	.loc 1 39 0
	call	kobj_list_init
.LVL2:
	.loc 1 43 0
	call	k_mm_init
.LVL3:
	.loc 1 48 0
	addl	$12, %esp
.LBB10:
.LBB11:
	.file 2 "./kernel/rhino/core/include/k_list.h"
	.loc 2 17 0
	movl	$g_res_list, g_res_list
	.loc 2 18 0
	movl	$g_res_list, g_res_list+4
.LVL4:
.LBE11:
.LBE10:
	.loc 1 48 0
	pushl	$0
	pushl	$.LC0
	pushl	$g_res_sem
	call	krhino_sem_create
.LVL5:
	.loc 1 49 0
	call	dyn_mem_proc_task_start
.LVL6:
	.loc 1 59 0
	popl	%eax
	popl	%edx
	pushl	$1
	pushl	$idle_task
	pushl	$200
	pushl	$g_idle_task_stack
	pushl	$0
	pushl	$0
	pushl	$61
	pushl	$0
	pushl	$.LC1
	pushl	$g_idle_task
	call	krhino_task_create
.LVL7:
	.loc 1 65 0
	addl	$48, %esp
	call	workqueue_init
.LVL8:
	.loc 1 69 0
	call	ktimer_init
.LVL9:
	.loc 1 79 0
	xorl	%eax, %eax
	leave
	.cfi_restore 5
	.cfi_def_cfa 4, 4
	ret
	.cfi_endproc
.LFE13:
	.size	krhino_init, .-krhino_init
	.section	.text.unlikely.krhino_init
.LCOLDE2:
	.section	.text.krhino_init
.LHOTE2:
	.section	.text.unlikely.krhino_start,"ax",@progbits
.LCOLDB3:
	.section	.text.krhino_start,"ax",@progbits
.LHOTB3:
	.globl	krhino_start
	.type	krhino_start, @function
krhino_start:
.LFB14:
	.loc 1 82 0
	.cfi_startproc
	.loc 1 85 0
	cmpl	$4, g_sys_stat
	jne	.L6
	.loc 1 82 0
	pushl	%ebp
	.cfi_def_cfa_offset 8
	.cfi_offset 5, -8
	movl	%esp, %ebp
	.cfi_def_cfa_register 5
	subl	$16, %esp
	.loc 1 96 0
	pushl	$0
	pushl	$g_ready_queue
	call	preferred_cpu_ready_task_get
.LVL10:
	.loc 1 105 0
	movl	$3, g_sys_stat
	.loc 1 97 0
	movl	%eax, g_preferred_ready_task
	.loc 1 98 0
	movl	%eax, g_active_task
	.loc 1 106 0
	call	cpu_first_task_start
.LVL11:
	.loc 1 109 0
	addl	$16, %esp
	movl	$1, %eax
	.loc 1 113 0
	leave
	.cfi_restore 5
	.cfi_def_cfa 4, 4
	ret
.L6:
	movl	$3, %eax
	ret
	.cfi_endproc
.LFE14:
	.size	krhino_start, .-krhino_start
	.section	.text.unlikely.krhino_start
.LCOLDE3:
	.section	.text.krhino_start
.LHOTE3:
	.section	.text.unlikely.krhino_intrpt_enter,"ax",@progbits
.LCOLDB4:
	.section	.text.krhino_intrpt_enter,"ax",@progbits
.LHOTB4:
	.globl	krhino_intrpt_enter
	.type	krhino_intrpt_enter, @function
krhino_intrpt_enter:
.LFB15:
	.loc 1 135 0
	.cfi_startproc
	pushl	%ebp
	.cfi_def_cfa_offset 8
	.cfi_offset 5, -8
	movl	%esp, %ebp
	.cfi_def_cfa_register 5
	subl	$8, %esp
	.loc 1 142 0
	call	cpu_intrpt_save
.LVL12:
	.loc 1 144 0
	subl	$12, %esp
	.loc 1 143 0
	incb	g_intrpt_nested_level
	.loc 1 144 0
	pushl	%eax
	call	cpu_intrpt_restore
.LVL13:
	.loc 1 151 0
	xorl	%eax, %eax
	leave
	.cfi_restore 5
	.cfi_def_cfa 4, 4
	ret
	.cfi_endproc
.LFE15:
	.size	krhino_intrpt_enter, .-krhino_intrpt_enter
	.section	.text.unlikely.krhino_intrpt_enter
.LCOLDE4:
	.section	.text.krhino_intrpt_enter
.LHOTE4:
	.section	.text.unlikely.krhino_intrpt_exit,"ax",@progbits
.LCOLDB5:
	.section	.text.krhino_intrpt_exit,"ax",@progbits
.LHOTB5:
	.globl	krhino_intrpt_exit
	.type	krhino_intrpt_exit, @function
krhino_intrpt_exit:
.LFB16:
	.loc 1 154 0
	.cfi_startproc
	pushl	%ebp
	.cfi_def_cfa_offset 8
	.cfi_offset 5, -8
	movl	%esp, %ebp
	.cfi_def_cfa_register 5
	pushl	%ebx
	pushl	%edx
	.cfi_offset 3, -12
	.loc 1 163 0
	call	cpu_intrpt_save
.LVL14:
	.loc 1 169 0
	decb	g_intrpt_nested_level
	.loc 1 163 0
	movl	%eax, %ebx
.LVL15:
	.loc 1 169 0
	jne	.L18
	.loc 1 174 0
	cmpb	$0, g_sched_lock
	jne	.L18
.LVL16:
	.loc 1 179 0
	pushl	%eax
	pushl	%eax
	pushl	$0
	pushl	$g_ready_queue
	call	preferred_cpu_ready_task_get
.LVL17:
	.loc 1 181 0
	addl	$16, %esp
	cmpl	g_active_task, %eax
	je	.L18
	.loc 1 196 0
	movl	%eax, g_preferred_ready_task
	.loc 1 197 0
	call	cpu_intrpt_switch
.LVL18:
.L18:
	.loc 1 201 0
	subl	$12, %esp
	pushl	%ebx
	call	cpu_intrpt_restore
.LVL19:
	addl	$16, %esp
	.loc 1 202 0
	movl	-4(%ebp), %ebx
.LVL20:
	leave
	.cfi_restore 5
	.cfi_restore 3
	.cfi_def_cfa 4, 4
	ret
	.cfi_endproc
.LFE16:
	.size	krhino_intrpt_exit, .-krhino_intrpt_exit
	.section	.text.unlikely.krhino_intrpt_exit
.LCOLDE5:
	.section	.text.krhino_intrpt_exit
.LHOTE5:
	.section	.text.unlikely.krhino_next_sleep_ticks_get,"ax",@progbits
.LCOLDB6:
	.section	.text.krhino_next_sleep_ticks_get,"ax",@progbits
.LHOTB6:
	.globl	krhino_next_sleep_ticks_get
	.type	krhino_next_sleep_ticks_get, @function
krhino_next_sleep_ticks_get:
.LFB17:
	.loc 1 205 0
	.cfi_startproc
.LVL21:
	pushl	%ebp
	.cfi_def_cfa_offset 8
	.cfi_offset 5, -8
	movl	%esp, %ebp
	.cfi_def_cfa_register 5
	pushl	%edi
	pushl	%esi
	.cfi_offset 7, -12
	.cfi_offset 6, -16
	.loc 1 215 0
	call	cpu_intrpt_save
.LVL22:
	movl	%eax, %edx
.LVL23:
	.loc 1 216 0
	movl	g_tick_head, %eax
.LVL24:
	cmpl	$g_tick_head, %eax
	jne	.L20
	.loc 1 217 0
	subl	$12, %esp
	pushl	%edx
	call	cpu_intrpt_restore
.LVL25:
	.loc 1 218 0
	orl	$-1, %eax
	addl	$16, %esp
	movl	%eax, %edx
	jmp	.L21
.LVL26:
.L20:
	.loc 1 223 0
	movl	8(%eax), %esi
	subl	g_tick_count, %esi
	movl	12(%eax), %edi
	sbbl	g_tick_count+4, %edi
.LVL27:
	.loc 1 224 0
	subl	$12, %esp
	pushl	%edx
	call	cpu_intrpt_restore
.LVL28:
	.loc 1 226 0
	addl	$16, %esp
	movl	%esi, %eax
	movl	%edi, %edx
.LVL29:
.L21:
	.loc 1 227 0
	leal	-8(%ebp), %esp
	popl	%esi
	.cfi_restore 6
	popl	%edi
	.cfi_restore 7
	popl	%ebp
	.cfi_restore 5
	.cfi_def_cfa 4, 4
	ret
	.cfi_endproc
.LFE17:
	.size	krhino_next_sleep_ticks_get, .-krhino_next_sleep_ticks_get
	.section	.text.unlikely.krhino_next_sleep_ticks_get
.LCOLDE6:
	.section	.text.krhino_next_sleep_ticks_get
.LHOTE6:
	.section	.text.unlikely.krhino_global_space_get,"ax",@progbits
.LCOLDB7:
	.section	.text.krhino_global_space_get,"ax",@progbits
.LHOTB7:
	.globl	krhino_global_space_get
	.type	krhino_global_space_get, @function
krhino_global_space_get:
.LFB18:
	.loc 1 231 0
	.cfi_startproc
.LVL30:
	pushl	%ebp
	.cfi_def_cfa_offset 8
	.cfi_offset 5, -8
	.loc 1 250 0
	movl	$3179, %eax
	.loc 1 231 0
	movl	%esp, %ebp
	.cfi_def_cfa_register 5
	.loc 1 250 0
	popl	%ebp
	.cfi_restore 5
	.cfi_def_cfa 4, 4
	ret
	.cfi_endproc
.LFE18:
	.size	krhino_global_space_get, .-krhino_global_space_get
	.section	.text.unlikely.krhino_global_space_get
.LCOLDE7:
	.section	.text.krhino_global_space_get
.LHOTE7:
	.section	.text.unlikely.krhino_version_get,"ax",@progbits
.LCOLDB8:
	.section	.text.krhino_version_get,"ax",@progbits
.LHOTB8:
	.globl	krhino_version_get
	.type	krhino_version_get, @function
krhino_version_get:
.LFB19:
	.loc 1 253 0
	.cfi_startproc
	pushl	%ebp
	.cfi_def_cfa_offset 8
	.cfi_offset 5, -8
	.loc 1 255 0
	movl	$12000, %eax
	.loc 1 253 0
	movl	%esp, %ebp
	.cfi_def_cfa_register 5
	.loc 1 255 0
	popl	%ebp
	.cfi_restore 5
	.cfi_def_cfa 4, 4
	ret
	.cfi_endproc
.LFE19:
	.size	krhino_version_get, .-krhino_version_get
	.section	.text.unlikely.krhino_version_get
.LCOLDE8:
	.section	.text.krhino_version_get
.LHOTE8:
	.text
.Letext0:
	.section	.text.unlikely.krhino_init
.Letext_cold0:
	.file 3 "/home/stone/Documents/Ali_IOT/build/compiler/gcc-arm-none-eabi/Linux64/lib/gcc/arm-none-eabi/5.4.1/include/stddef.h"
	.file 4 "/home/stone/Documents/Ali_IOT/build/compiler/gcc-arm-none-eabi/Linux64/arm-none-eabi/include/machine/_default_types.h"
	.file 5 "/home/stone/Documents/Ali_IOT/build/compiler/gcc-arm-none-eabi/Linux64/arm-none-eabi/include/sys/_stdint.h"
	.file 6 "././platform/arch/arm/armv5/./gcc/k_types.h"
	.file 7 "./kernel/rhino/core/include/k_err.h"
	.file 8 "./kernel/rhino/core/include/k_sys.h"
	.file 9 "./kernel/rhino/core/include/k_obj.h"
	.file 10 "./kernel/rhino/core/include/k_sched.h"
	.file 11 "./kernel/rhino/core/include/k_task.h"
	.file 12 "./kernel/rhino/core/include/k_mutex.h"
	.file 13 "./kernel/rhino/core/include/k_sem.h"
	.file 14 "./kernel/rhino/core/include/k_ringbuf.h"
	.file 15 "./kernel/rhino/core/include/k_buf_queue.h"
	.file 16 "./kernel/rhino/core/include/k_timer.h"
	.file 17 "./kernel/rhino/core/include/k_internal.h"
	.file 18 "./kernel/rhino/core/include/k_stats.h"
	.file 19 "././platform/arch/arm/armv5/./gcc/port.h"
	.section	.note.GNU-stack,"",@progbits
