	.file	"k_task.c"
	.text
.Ltext0:
	.section	.text.unlikely.klist_rm,"ax",@progbits
.LCOLDB0:
	.section	.text.klist_rm,"ax",@progbits
.LHOTB0:
	.section	.text.unlikely.klist_rm
.Ltext_cold0:
	.section	.text.klist_rm
	.type	klist_rm, @function
klist_rm:
.LFB9:
	.file 1 "./kernel/rhino/core/include/k_list.h"
	.loc 1 45 0
	.cfi_startproc
.LVL0:
	pushl	%ebp
	.cfi_def_cfa_offset 8
	.cfi_offset 5, -8
	.loc 1 46 0
	movl	4(%eax), %edx
	movl	(%eax), %ecx
	.loc 1 45 0
	movl	%esp, %ebp
	.cfi_def_cfa_register 5
	.loc 1 46 0
	movl	%ecx, (%edx)
	.loc 1 47 0
	movl	(%eax), %eax
.LVL1:
	movl	%edx, 4(%eax)
	.loc 1 48 0
	popl	%ebp
	.cfi_restore 5
	.cfi_def_cfa 4, 4
	ret
	.cfi_endproc
.LFE9:
	.size	klist_rm, .-klist_rm
	.section	.text.unlikely.klist_rm
.LCOLDE0:
	.section	.text.klist_rm
.LHOTE0:
	.section	.text.unlikely.task_mutex_free.isra.1,"ax",@progbits
.LCOLDB1:
	.section	.text.task_mutex_free.isra.1,"ax",@progbits
.LHOTB1:
	.type	task_mutex_free.isra.1, @function
task_mutex_free.isra.1:
.LFB38:
	.file 2 "kernel/rhino/core/k_task.c"
	.loc 2 692 0
	.cfi_startproc
	pushl	%ebp
	.cfi_def_cfa_offset 8
	.cfi_offset 5, -8
	movl	%esp, %ebp
	.cfi_def_cfa_register 5
	pushl	%edi
	pushl	%esi
	pushl	%ebx
	.cfi_offset 7, -12
	.cfi_offset 6, -16
	.cfi_offset 3, -20
	movl	%eax, %ebx
.LVL2:
	subl	$28, %esp
.L4:
.LVL3:
	.loc 2 701 0
	testl	%ebx, %ebx
	je	.L10
.LBB56:
.LBB57:
	.loc 1 23 0
	movl	(%ebx), %esi
.LBE57:
.LBE56:
	.loc 2 702 0
	movl	24(%ebx), %eax
	.loc 2 706 0
	cmpl	%esi, %ebx
	.loc 2 702 0
	movl	%eax, -28(%ebp)
.LVL4:
	.loc 2 706 0
	je	.L5
	.loc 2 707 0
	leal	-24(%esi), %edi
.LVL5:
	.loc 2 710 0
	subl	$12, %esp
	pushl	%edi
	call	pend_task_wakeup
.LVL6:
	.loc 2 714 0
	movl	12(%esi), %eax
	.loc 2 713 0
	movl	%edi, 20(%ebx)
	.loc 2 715 0
	addl	$16, %esp
	.loc 2 714 0
	movl	%eax, 24(%ebx)
	.loc 2 715 0
	movl	%ebx, 12(%esi)
	jmp	.L6
.LVL7:
.L5:
	.loc 2 718 0
	movl	$0, 20(%ebx)
.LVL8:
.L6:
	.loc 2 692 0
	movl	-28(%ebp), %ebx
.LVL9:
	jmp	.L4
.LVL10:
.L10:
	.loc 2 721 0
	leal	-12(%ebp), %esp
	popl	%ebx
	.cfi_restore 3
.LVL11:
	popl	%esi
	.cfi_restore 6
	popl	%edi
	.cfi_restore 7
	popl	%ebp
	.cfi_restore 5
	.cfi_def_cfa 4, 4
	ret
	.cfi_endproc
.LFE38:
	.size	task_mutex_free.isra.1, .-task_mutex_free.isra.1
	.section	.text.unlikely.task_mutex_free.isra.1
.LCOLDE1:
	.section	.text.task_mutex_free.isra.1
.LHOTE1:
	.section	.text.unlikely.task_create.part.0,"ax",@progbits
.LCOLDB2:
	.section	.text.task_create.part.0,"ax",@progbits
.LHOTB2:
	.type	task_create.part.0, @function
task_create.part.0:
.LFB37:
	.loc 2 7 0
	.cfi_startproc
.LVL12:
	pushl	%ebp
	.cfi_def_cfa_offset 8
	.cfi_offset 5, -8
	movl	%esp, %ebp
	.cfi_def_cfa_register 5
	pushl	%edi
	pushl	%esi
	pushl	%ebx
	.cfi_offset 7, -12
	.cfi_offset 6, -16
	.cfi_offset 3, -20
	movl	%eax, %ebx
	subl	$44, %esp
	.loc 2 7 0
	movl	8(%ebp), %eax
.LVL13:
	movl	%edx, -44(%ebp)
	movl	%ecx, -48(%ebp)
	movl	24(%ebp), %esi
	movl	%eax, -28(%ebp)
	movl	12(%ebp), %eax
	movl	%eax, -40(%ebp)
	movl	16(%ebp), %eax
	movl	%eax, -56(%ebp)
	movl	32(%ebp), %eax
	movl	%eax, -32(%ebp)
	movl	36(%ebp), %eax
	movl	%eax, -52(%ebp)
	movl	40(%ebp), %eax
	movl	%eax, -36(%ebp)
	.loc 2 30 0
	call	cpu_intrpt_save
.LVL14:
	.loc 2 32 0
	cmpb	$0, g_intrpt_nested_level
	je	.L12
	subl	$12, %esp
	pushl	%eax
	call	cpu_intrpt_restore
.LVL15:
	addl	$16, %esp
	movl	$1000, %eax
	jmp	.L13
.LVL16:
.L12:
	.loc 2 35 0
	cmpb	$61, -28(%ebp)
	jne	.L14
	.loc 2 36 0
	movzbl	-36(%ebp), %edx
	cmpb	$0, g_idle_task_spawned(%edx)
	je	.L15
	.loc 2 37 0
	subl	$12, %esp
	pushl	%eax
	call	cpu_intrpt_restore
.LVL17:
	addl	$16, %esp
	.loc 2 38 0
	movl	$308, %eax
	jmp	.L13
.LVL18:
.L15:
	.loc 2 41 0
	movb	$1, g_idle_task_spawned(%edx)
.L14:
	.loc 2 44 0
	subl	$12, %esp
	.loc 2 46 0
	movl	%ebx, %edi
	.loc 2 44 0
	pushl	%eax
	call	cpu_intrpt_restore
.LVL19:
	.loc 2 46 0
	xorl	%eax, %eax
	movl	$31, %ecx
	.loc 2 49 0
	addl	$16, %esp
	.loc 2 46 0
	rep stosl
	.loc 2 50 0
	movl	-56(%ebp), %eax
	orl	-40(%ebp), %eax
	movl	$50, %eax
	cmovne	-40(%ebp), %eax
	.loc 2 59 0
	cmpb	$0, -32(%ebp)
	.loc 2 56 0
	movb	$1, 117(%ebx)
	.loc 2 50 0
	movl	%eax, 104(%ebx)
	.loc 2 55 0
	movl	%eax, 100(%ebx)
	.loc 2 59 0
	je	.L18
	.loc 2 60 0
	movl	$1, 84(%ebx)
	jmp	.L19
.L18:
	.loc 2 62 0
	movl	$3, 84(%ebx)
	.loc 2 63 0
	movb	$1, 32(%ebx)
.L19:
	.loc 2 67 0
	movl	20(%ebp), %eax
	.loc 2 70 0
	movl	20(%ebp), %edi
	leal	0(,%esi,4), %ecx
	.loc 2 67 0
	movl	%eax, 16(%ebx)
.LVL20:
	.loc 2 70 0
	xorl	%eax, %eax
.LVL21:
	rep stosb
.LVL22:
	.loc 2 72 0
	movl	-44(%ebp), %eax
	.loc 2 75 0
	movl	%esi, 20(%ebx)
	.loc 2 72 0
	movl	%eax, 4(%ebx)
	.loc 2 73 0
	movb	-28(%ebp), %al
	movb	%al, 119(%ebx)
	.loc 2 74 0
	movb	%al, 120(%ebx)
	.loc 2 76 0
	movb	-52(%ebp), %al
	movb	%al, 121(%ebx)
	.loc 2 77 0
	movb	-36(%ebp), %al
	movb	%al, 118(%ebx)
.LVL23:
	.loc 2 89 0
	movl	16(%ebx), %eax
	movl	$-559038801, (%eax)
.LVL24:
	.loc 2 99 0
	pushl	28(%ebp)
	pushl	-48(%ebp)
	pushl	%esi
	pushl	20(%ebp)
	call	cpu_task_stack_init
.LVL25:
	movl	%eax, (%ebx)
	.loc 2 107 0
	call	cpu_intrpt_save
.LVL26:
	.loc 2 113 0
	addl	$16, %esp
	cmpb	$0, -32(%ebp)
.LBB60:
.LBB61:
	.loc 1 28 0
	movl	g_kobj_list+4, %edx
.LBE61:
.LBE60:
	.loc 2 107 0
	movl	%eax, %esi
.LVL27:
	.loc 2 110 0
	leal	40(%ebx), %eax
.LVL28:
.LBB63:
.LBB62:
	.loc 1 29 0
	movl	$g_kobj_list, 40(%ebx)
	.loc 1 28 0
	movl	%edx, 44(%ebx)
	.loc 1 31 0
	movl	%eax, (%edx)
	.loc 1 32 0
	movl	%eax, g_kobj_list+4
.LVL29:
.LBE62:
.LBE63:
	.loc 2 113 0
	je	.L20
	.loc 2 114 0
	pushl	%eax
	pushl	%eax
	pushl	%ebx
	pushl	$g_ready_queue
	call	ready_list_add_tail
.LVL30:
	.loc 2 116 0
	addl	$16, %esp
	cmpl	$3, g_sys_stat
	jne	.L20
	.loc 2 117 0
	subl	$12, %esp
	pushl	%esi
	call	cpu_intrpt_restore
.LVL31:
	call	core_sched
.LVL32:
	jmp	.L22
.L20:
	.loc 2 122 0
	subl	$12, %esp
	pushl	%esi
	call	cpu_intrpt_restore
.LVL33:
.L22:
	addl	$16, %esp
	.loc 2 123 0
	xorl	%eax, %eax
.LVL34:
.L13:
	.loc 2 124 0
	leal	-12(%ebp), %esp
	popl	%ebx
	.cfi_restore 3
.LVL35:
	popl	%esi
	.cfi_restore 6
	popl	%edi
	.cfi_restore 7
	popl	%ebp
	.cfi_restore 5
	.cfi_def_cfa 4, 4
	ret
	.cfi_endproc
.LFE37:
	.size	task_create.part.0, .-task_create.part.0
	.section	.text.unlikely.task_create.part.0
.LCOLDE2:
	.section	.text.task_create.part.0
.LHOTE2:
	.section	.text.unlikely.krhino_task_create,"ax",@progbits
.LCOLDB3:
	.section	.text.krhino_task_create,"ax",@progbits
.LHOTB3:
	.globl	krhino_task_create
	.type	krhino_task_create, @function
krhino_task_create:
.LFB13:
	.loc 2 129 0
	.cfi_startproc
.LVL36:
	pushl	%ebp
	.cfi_def_cfa_offset 8
	.cfi_offset 5, -8
	movl	%esp, %ebp
	.cfi_def_cfa_register 5
.LVL37:
	pushl	%edi
	pushl	%esi
	pushl	%ebx
	subl	$44, %esp
	.cfi_offset 7, -12
	.cfi_offset 6, -16
	.cfi_offset 3, -20
	.loc 2 129 0
	movl	8(%ebp), %eax
	movl	28(%ebp), %ebx
	movl	40(%ebp), %edi
	movl	24(%ebp), %ecx
	movl	12(%ebp), %edx
.LVL38:
	movl	36(%ebp), %esi
	movl	%eax, -28(%ebp)
.LVL39:
	movl	16(%ebp), %eax
	movl	%ebx, -44(%ebp)
.LVL40:
	movl	32(%ebp), %ebx
.LVL41:
.LBB66:
.LBB67:
	.loc 2 20 0
	testl	%edi, %edi
.LBE67:
.LBE66:
	.loc 2 129 0
	movl	%ecx, -48(%ebp)
	movl	%eax, -36(%ebp)
.LVL42:
	movl	20(%ebp), %eax
	movl	%eax, -32(%ebp)
.LVL43:
	movl	44(%ebp), %eax
	movl	%eax, -40(%ebp)
.LVL44:
.LBB70:
.LBB68:
	.loc 2 20 0
	sete	%al
	testl	%ebx, %ebx
	movb	%al, %cl
	sete	%al
	orl	%ecx, %eax
	testl	%edx, %edx
	sete	%cl
	orb	%al, %cl
	jne	.L25
	cmpl	$0, -28(%ebp)
	je	.L25
	.loc 2 22 0
	testl	%esi, %esi
	.loc 2 23 0
	movl	$300, %eax
	.loc 2 22 0
	je	.L24
	.loc 2 26 0
	cmpb	$61, -32(%ebp)
	.loc 2 27 0
	movl	$305, %eax
	.loc 2 26 0
	ja	.L24
	movzbl	-40(%ebp), %eax
	movl	%edi, 28(%ebp)
.LVL45:
	movl	%esi, 24(%ebp)
	movl	-44(%ebp), %edi
.LVL46:
	movl	-48(%ebp), %esi
.LVL47:
	movl	%ebx, 20(%ebp)
.LVL48:
	movl	$0, 40(%ebp)
.LVL49:
	movl	$1, 36(%ebp)
.LVL50:
	movl	%eax, 32(%ebp)
.LVL51:
	movzbl	-32(%ebp), %eax
	movl	%esi, 12(%ebp)
.LVL52:
	movl	%edi, 16(%ebp)
.LVL53:
	movl	-36(%ebp), %ecx
	movl	%eax, 8(%ebp)
.LVL54:
	movl	-28(%ebp), %eax
.LBE68:
.LBE70:
	.loc 2 132 0
	addl	$44, %esp
	popl	%ebx
	.cfi_remember_state
	.cfi_restore 3
.LVL55:
	popl	%esi
	.cfi_restore 6
	popl	%edi
	.cfi_restore 7
	popl	%ebp
	.cfi_restore 5
	.cfi_def_cfa 4, 4
.LBB71:
.LBB69:
	jmp	task_create.part.0
.LVL56:
.L25:
	.cfi_restore_state
	.loc 2 20 0
	movl	$6, %eax
.L24:
.LVL57:
.LBE69:
.LBE71:
	.loc 2 132 0
	addl	$44, %esp
	popl	%ebx
	.cfi_restore 3
	popl	%esi
	.cfi_restore 6
	popl	%edi
	.cfi_restore 7
	popl	%ebp
	.cfi_restore 5
	.cfi_def_cfa 4, 4
	ret
	.cfi_endproc
.LFE13:
	.size	krhino_task_create, .-krhino_task_create
	.section	.text.unlikely.krhino_task_create
.LCOLDE3:
	.section	.text.krhino_task_create
.LHOTE3:
	.section	.text.unlikely.task_dyn_create,"ax",@progbits
.LCOLDB4:
	.section	.text.task_dyn_create,"ax",@progbits
.LHOTB4:
	.globl	task_dyn_create
	.type	task_dyn_create, @function
task_dyn_create:
.LFB14:
	.loc 2 186 0
	.cfi_startproc
.LVL58:
	pushl	%ebp
	.cfi_def_cfa_offset 8
	.cfi_offset 5, -8
	movl	%esp, %ebp
	.cfi_def_cfa_register 5
	pushl	%edi
	pushl	%esi
	pushl	%ebx
	.cfi_offset 7, -12
	.cfi_offset 6, -16
	.cfi_offset 3, -20
	.loc 2 191 0
	movl	$6, %edi
	.loc 2 186 0
	subl	$44, %esp
	.loc 2 186 0
	movl	20(%ebp), %eax
	.loc 2 191 0
	cmpl	$0, 8(%ebp)
	.loc 2 186 0
	movl	28(%ebp), %edx
	movl	%eax, -28(%ebp)
	movl	24(%ebp), %eax
	movl	%edx, -36(%ebp)
	movl	%eax, -40(%ebp)
	movl	40(%ebp), %eax
	movl	%eax, -32(%ebp)
	movl	48(%ebp), %eax
	movl	%eax, -44(%ebp)
	.loc 2 191 0
	je	.L31
	.loc 2 193 0
	cmpl	$0, 32(%ebp)
	.loc 2 194 0
	movl	$5, %edi
	.loc 2 193 0
	je	.L31
.LVL59:
.LBB76:
.LBB77:
	.loc 2 197 0
	movl	32(%ebp), %eax
	subl	$12, %esp
	.loc 2 199 0
	movl	$105, %edi
	.loc 2 197 0
	sall	$2, %eax
	pushl	%eax
	call	krhino_mm_alloc
.LVL60:
	.loc 2 198 0
	addl	$16, %esp
	testl	%eax, %eax
	.loc 2 197 0
	movl	%eax, %esi
.LVL61:
	.loc 2 198 0
	je	.L31
	.loc 2 202 0
	subl	$12, %esp
	pushl	$124
	call	krhino_mm_alloc
.LVL62:
	.loc 2 203 0
	addl	$16, %esp
	testl	%eax, %eax
	.loc 2 202 0
	movl	%eax, %ebx
.LVL63:
	.loc 2 203 0
	jne	.L32
	.loc 2 204 0
	subl	$12, %esp
	pushl	%esi
	call	krhino_mm_free
.LVL64:
	jmp	.L45
.LVL65:
.L32:
.LBB78:
.LBB79:
	.loc 2 19 0
	cmpl	$0, 36(%ebp)
.LBE79:
.LBE78:
	.loc 2 208 0
	movl	8(%ebp), %eax
.LVL66:
	movl	%ebx, (%eax)
.LVL67:
.LBB81:
.LBB80:
	.loc 2 19 0
	je	.L37
.LVL68:
	cmpl	$0, 12(%ebp)
	je	.L37
	.loc 2 26 0
	cmpb	$61, -28(%ebp)
	.loc 2 27 0
	movl	$305, %edi
	.loc 2 26 0
	ja	.L33
	movzbl	-32(%ebp), %eax
	subl	$12, %esp
	movl	16(%ebp), %ecx
	movl	12(%ebp), %edx
	pushl	%eax
	movzbl	-44(%ebp), %eax
	pushl	$2
	pushl	%eax
	movzbl	-28(%ebp), %eax
	pushl	36(%ebp)
	pushl	32(%ebp)
	pushl	%esi
	pushl	-36(%ebp)
	pushl	-40(%ebp)
	pushl	%eax
	movl	%ebx, %eax
	call	task_create.part.0
.LVL69:
	addl	$48, %esp
	movl	%eax, %edi
	jmp	.L33
.L37:
	.loc 2 19 0
	movl	$6, %edi
.L33:
.LVL70:
.LBE80:
.LBE81:
	.loc 2 212 0
	testl	$-5, %edi
	je	.L31
	.loc 2 213 0
	subl	$12, %esp
	pushl	%esi
	call	krhino_mm_free
.LVL71:
	.loc 2 214 0
	movl	%ebx, (%esp)
	call	krhino_mm_free
.LVL72:
	.loc 2 215 0
	movl	8(%ebp), %eax
	movl	$0, (%eax)
.LVL73:
.L45:
	addl	$16, %esp
.LVL74:
.L31:
.LBE77:
.LBE76:
	.loc 2 220 0
	leal	-12(%ebp), %esp
	movl	%edi, %eax
	popl	%ebx
	.cfi_restore 3
	popl	%esi
	.cfi_restore 6
	popl	%edi
	.cfi_restore 7
	popl	%ebp
	.cfi_restore 5
	.cfi_def_cfa 4, 4
	ret
	.cfi_endproc
.LFE14:
	.size	task_dyn_create, .-task_dyn_create
	.section	.text.unlikely.task_dyn_create
.LCOLDE4:
	.section	.text.task_dyn_create
.LHOTE4:
	.section	.text.unlikely.krhino_task_dyn_create,"ax",@progbits
.LCOLDB5:
	.section	.text.krhino_task_dyn_create,"ax",@progbits
.LHOTB5:
	.globl	krhino_task_dyn_create
	.type	krhino_task_dyn_create, @function
krhino_task_dyn_create:
.LFB15:
	.loc 2 225 0
	.cfi_startproc
.LVL75:
	pushl	%ebp
	.cfi_def_cfa_offset 8
	.cfi_offset 5, -8
	movl	%esp, %ebp
	.cfi_def_cfa_register 5
	subl	$12, %esp
	.loc 2 226 0
	movzbl	40(%ebp), %eax
	pushl	%eax
	movzbl	20(%ebp), %eax
	pushl	$0
	pushl	$0
	pushl	36(%ebp)
	pushl	32(%ebp)
	pushl	28(%ebp)
	pushl	24(%ebp)
	pushl	%eax
	pushl	16(%ebp)
	pushl	12(%ebp)
	pushl	8(%ebp)
	call	task_dyn_create
.LVL76:
	.loc 2 227 0
	leave
	.cfi_restore 5
	.cfi_def_cfa 4, 4
	ret
	.cfi_endproc
.LFE15:
	.size	krhino_task_dyn_create, .-krhino_task_dyn_create
	.section	.text.unlikely.krhino_task_dyn_create
.LCOLDE5:
	.section	.text.krhino_task_dyn_create
.LHOTE5:
	.section	.text.unlikely.krhino_task_sleep,"ax",@progbits
.LCOLDB6:
	.section	.text.krhino_task_sleep,"ax",@progbits
.LHOTB6:
	.globl	krhino_task_sleep
	.type	krhino_task_sleep, @function
krhino_task_sleep:
.LFB16:
	.loc 2 240 0
	.cfi_startproc
.LVL77:
	pushl	%ebp
	.cfi_def_cfa_offset 8
	.cfi_offset 5, -8
	.loc 2 248 0
	movl	$5, %eax
	.loc 2 240 0
	movl	%esp, %ebp
	.cfi_def_cfa_register 5
	pushl	%edi
	pushl	%esi
	pushl	%ebx
	subl	$12, %esp
	.cfi_offset 7, -12
	.cfi_offset 6, -16
	.cfi_offset 3, -20
	.loc 2 240 0
	movl	12(%ebp), %edi
	movl	8(%ebp), %esi
	.loc 2 247 0
	movl	%edi, %edx
	orl	%esi, %edx
	je	.L49
	.loc 2 251 0
	call	cpu_intrpt_save
.LVL78:
	.loc 2 253 0
	cmpb	$0, g_intrpt_nested_level
	.loc 2 251 0
	movl	%eax, %ebx
.LVL79:
	.loc 2 253 0
	je	.L50
	.loc 2 253 0 is_stmt 0 discriminator 1
	subl	$12, %esp
	pushl	%eax
	call	cpu_intrpt_restore
.LVL80:
	addl	$16, %esp
	movl	$1000, %eax
	jmp	.L49
.LVL81:
.L50:
	.loc 2 258 0 is_stmt 1
	cmpb	$0, g_sched_lock
	je	.L51
	.loc 2 259 0
	subl	$12, %esp
	pushl	%eax
	call	cpu_intrpt_restore
.LVL82:
	.loc 2 260 0
	addl	$16, %esp
	movl	$200, %eax
	jmp	.L49
.LVL83:
.L51:
	.loc 2 263 0
	movl	g_active_task, %eax
.LVL84:
	movl	$5, 84(%eax)
	.loc 2 264 0
	pushl	%edx
	pushl	%edi
	pushl	%esi
	pushl	%eax
	call	tick_list_insert
.LVL85:
	.loc 2 265 0
	popl	%ecx
	popl	%esi
	pushl	g_active_task
	pushl	$g_ready_queue
	call	ready_list_rm
.LVL86:
	.loc 2 269 0
	movl	%ebx, (%esp)
	call	cpu_intrpt_restore
.LVL87:
	call	core_sched
.LVL88:
	.loc 2 271 0
	call	cpu_intrpt_save
.LVL89:
	.loc 2 274 0
	popl	%edi
	pushl	g_active_task
	.loc 2 271 0
	movl	%eax, %ebx
.LVL90:
	.loc 2 274 0
	call	pend_state_end_proc
.LVL91:
	movl	%eax, %esi
.LVL92:
	.loc 2 276 0
	movl	%ebx, (%esp)
	call	cpu_intrpt_restore
.LVL93:
	.loc 2 278 0
	addl	$16, %esp
	movl	%esi, %eax
.LVL94:
.L49:
	.loc 2 279 0
	leal	-12(%ebp), %esp
	popl	%ebx
	.cfi_restore 3
	popl	%esi
	.cfi_restore 6
	popl	%edi
	.cfi_restore 7
	popl	%ebp
	.cfi_restore 5
	.cfi_def_cfa 4, 4
	ret
	.cfi_endproc
.LFE16:
	.size	krhino_task_sleep, .-krhino_task_sleep
	.section	.text.unlikely.krhino_task_sleep
.LCOLDE6:
	.section	.text.krhino_task_sleep
.LHOTE6:
	.section	.text.unlikely.krhino_task_yield,"ax",@progbits
.LCOLDB7:
	.section	.text.krhino_task_yield,"ax",@progbits
.LHOTB7:
	.globl	krhino_task_yield
	.type	krhino_task_yield, @function
krhino_task_yield:
.LFB17:
	.loc 2 282 0
	.cfi_startproc
	pushl	%ebp
	.cfi_def_cfa_offset 8
	.cfi_offset 5, -8
	movl	%esp, %ebp
	.cfi_def_cfa_register 5
	pushl	%ebx
	pushl	%eax
	.cfi_offset 3, -12
	.loc 2 286 0
	call	cpu_intrpt_save
.LVL95:
	.loc 2 288 0
	pushl	%edx
	pushl	%edx
	.loc 2 286 0
	movl	%eax, %ebx
.LVL96:
	.loc 2 288 0
	pushl	g_active_task
	pushl	$g_ready_queue
	call	ready_list_head_to_tail
.LVL97:
	.loc 2 290 0
	movl	%ebx, (%esp)
	call	cpu_intrpt_restore
.LVL98:
	call	core_sched
.LVL99:
	.loc 2 293 0
	xorl	%eax, %eax
	movl	-4(%ebp), %ebx
.LVL100:
	leave
	.cfi_restore 5
	.cfi_restore 3
	.cfi_def_cfa 4, 4
	ret
	.cfi_endproc
.LFE17:
	.size	krhino_task_yield, .-krhino_task_yield
	.section	.text.unlikely.krhino_task_yield
.LCOLDE7:
	.section	.text.krhino_task_yield
.LHOTE7:
	.section	.text.unlikely.krhino_cur_task_get,"ax",@progbits
.LCOLDB8:
	.section	.text.krhino_cur_task_get,"ax",@progbits
.LHOTB8:
	.globl	krhino_cur_task_get
	.type	krhino_cur_task_get, @function
krhino_cur_task_get:
.LFB18:
	.loc 2 296 0
	.cfi_startproc
	pushl	%ebp
	.cfi_def_cfa_offset 8
	.cfi_offset 5, -8
	movl	%esp, %ebp
	.cfi_def_cfa_register 5
	pushl	%ebx
	pushl	%eax
	.cfi_offset 3, -12
	.loc 2 300 0
	call	cpu_intrpt_save
.LVL101:
	.loc 2 301 0
	movl	g_active_task, %ebx
.LVL102:
	.loc 2 302 0
	subl	$12, %esp
	pushl	%eax
	call	cpu_intrpt_restore
.LVL103:
	.loc 2 305 0
	movl	%ebx, %eax
	movl	-4(%ebp), %ebx
.LVL104:
	leave
	.cfi_restore 5
	.cfi_restore 3
	.cfi_def_cfa 4, 4
	ret
	.cfi_endproc
.LFE18:
	.size	krhino_cur_task_get, .-krhino_cur_task_get
	.section	.text.unlikely.krhino_cur_task_get
.LCOLDE8:
	.section	.text.krhino_cur_task_get
.LHOTE8:
	.section	.text.unlikely.task_suspend,"ax",@progbits
.LCOLDB9:
	.section	.text.task_suspend,"ax",@progbits
.LHOTB9:
	.globl	task_suspend
	.type	task_suspend, @function
task_suspend:
.LFB19:
	.loc 2 308 0
	.cfi_startproc
.LVL105:
	pushl	%ebp
	.cfi_def_cfa_offset 8
	.cfi_offset 5, -8
	movl	%esp, %ebp
	.cfi_def_cfa_register 5
	pushl	%esi
	pushl	%ebx
	.cfi_offset 6, -12
	.cfi_offset 3, -16
	.loc 2 308 0
	movl	8(%ebp), %ebx
	.loc 2 313 0
	call	cpu_intrpt_save
.LVL106:
	.loc 2 326 0
	cmpl	%ebx, g_active_task
	.loc 2 313 0
	movl	%eax, %esi
.LVL107:
	.loc 2 326 0
	jne	.L60
	.loc 2 327 0
	cmpb	$0, g_sched_lock
	je	.L60
	.loc 2 328 0
	subl	$12, %esp
	pushl	%eax
	call	cpu_intrpt_restore
.LVL108:
	.loc 2 329 0
	addl	$16, %esp
	movl	$200, %eax
	jmp	.L61
.LVL109:
.L60:
	.loc 2 333 0
	movl	84(%ebx), %eax
.LVL110:
	decl	%eax
	cmpl	$5, %eax
	ja	.L62
	jmp	*.L64(,%eax,4)
	.section	.rodata.task_suspend,"a",@progbits
	.align 4
	.align 4
.L64:
	.long	.L63
	.long	.L65
	.long	.L66
	.long	.L66
	.long	.L67
	.long	.L66
	.section	.text.task_suspend
.L63:
	.loc 2 335 0
	movb	$1, 32(%ebx)
	.loc 2 336 0
	movl	$3, 84(%ebx)
	.loc 2 337 0
	pushl	%eax
	pushl	%eax
	pushl	%ebx
	pushl	$g_ready_queue
	call	ready_list_rm
.LVL111:
	.loc 2 338 0
	addl	$16, %esp
	jmp	.L68
.L67:
	.loc 2 340 0
	movb	$1, 32(%ebx)
	.loc 2 341 0
	movl	$6, 84(%ebx)
	.loc 2 342 0
	jmp	.L68
.L65:
	.loc 2 344 0
	movb	$1, 32(%ebx)
	.loc 2 345 0
	movl	$4, 84(%ebx)
	.loc 2 346 0
	jmp	.L68
.L66:
	.loc 2 350 0
	movb	32(%ebx), %al
	cmpb	$-1, %al
	jne	.L69
	.loc 2 351 0
	subl	$12, %esp
	pushl	%esi
	call	cpu_intrpt_restore
.LVL112:
	.loc 2 352 0
	addl	$16, %esp
	movl	$304, %eax
	jmp	.L61
.L69:
	.loc 2 355 0
	incl	%eax
	movb	%al, 32(%ebx)
	.loc 2 356 0
	jmp	.L68
.L62:
	.loc 2 359 0
	subl	$12, %esp
	pushl	%esi
	call	cpu_intrpt_restore
.LVL113:
	.loc 2 360 0
	addl	$16, %esp
	movl	$307, %eax
	jmp	.L61
.L68:
	.loc 2 365 0
	subl	$12, %esp
	pushl	%esi
	call	cpu_intrpt_restore
.LVL114:
	call	core_sched
.LVL115:
	.loc 2 367 0
	addl	$16, %esp
	xorl	%eax, %eax
.L61:
	.loc 2 368 0
	leal	-8(%ebp), %esp
	popl	%ebx
	.cfi_restore 3
	popl	%esi
	.cfi_restore 6
.LVL116:
	popl	%ebp
	.cfi_restore 5
	.cfi_def_cfa 4, 4
	ret
	.cfi_endproc
.LFE19:
	.size	task_suspend, .-task_suspend
	.section	.text.unlikely.task_suspend
.LCOLDE9:
	.section	.text.task_suspend
.LHOTE9:
	.section	.text.unlikely.krhino_task_suspend,"ax",@progbits
.LCOLDB10:
	.section	.text.krhino_task_suspend,"ax",@progbits
.LHOTB10:
	.globl	krhino_task_suspend
	.type	krhino_task_suspend, @function
krhino_task_suspend:
.LFB20:
	.loc 2 371 0
	.cfi_startproc
.LVL117:
	pushl	%ebp
	.cfi_def_cfa_offset 8
	.cfi_offset 5, -8
	movl	%esp, %ebp
	.cfi_def_cfa_register 5
	.loc 2 371 0
	movl	8(%ebp), %edx
	.loc 2 372 0
	testl	%edx, %edx
	je	.L73
	.loc 2 376 0
	cmpb	$61, 119(%edx)
	.loc 2 377 0
	movl	$303, %eax
	.loc 2 376 0
	je	.L72
	.loc 2 381 0
	popl	%ebp
	.cfi_remember_state
	.cfi_restore 5
	.cfi_def_cfa 4, 4
	.loc 2 380 0
	jmp	task_suspend
.LVL118:
.L73:
	.cfi_restore_state
	.loc 2 373 0
	movl	$6, %eax
.L72:
	.loc 2 381 0
	popl	%ebp
	.cfi_restore 5
	.cfi_def_cfa 4, 4
	ret
	.cfi_endproc
.LFE20:
	.size	krhino_task_suspend, .-krhino_task_suspend
	.section	.text.unlikely.krhino_task_suspend
.LCOLDE10:
	.section	.text.krhino_task_suspend
.LHOTE10:
	.section	.text.unlikely.task_resume,"ax",@progbits
.LCOLDB11:
	.section	.text.task_resume,"ax",@progbits
.LHOTB11:
	.globl	task_resume
	.type	task_resume, @function
task_resume:
.LFB21:
	.loc 2 384 0
	.cfi_startproc
.LVL119:
	pushl	%ebp
	.cfi_def_cfa_offset 8
	.cfi_offset 5, -8
	movl	%esp, %ebp
	.cfi_def_cfa_register 5
	pushl	%esi
	pushl	%ebx
	.cfi_offset 6, -12
	.cfi_offset 3, -16
	.loc 2 384 0
	movl	8(%ebp), %ebx
	.loc 2 387 0
	call	cpu_intrpt_save
.LVL120:
	movl	%eax, %esi
.LVL121:
	.loc 2 389 0
	movl	84(%ebx), %eax
.LVL122:
	leal	-1(%eax), %edx
	cmpl	$5, %edx
	ja	.L77
	jmp	*.L79(,%edx,4)
	.section	.rodata.task_resume,"a",@progbits
	.align 4
	.align 4
.L79:
	.long	.L78
	.long	.L78
	.long	.L80
	.long	.L81
	.long	.L78
	.long	.L82
	.section	.text.task_resume
.L78:
	.loc 2 393 0
	subl	$12, %esp
	pushl	%esi
	call	cpu_intrpt_restore
.LVL123:
	.loc 2 394 0
	addl	$16, %esp
	movl	$301, %eax
	jmp	.L83
.L80:
	.loc 2 396 0
	movb	32(%ebx), %al
	leal	-1(%eax), %edx
	.loc 2 398 0
	testb	%dl, %dl
	.loc 2 396 0
	movb	%dl, 32(%ebx)
	.loc 2 398 0
	jne	.L85
	.loc 2 400 0
	movl	$1, 84(%ebx)
	.loc 2 401 0
	pushl	%eax
	pushl	%eax
	pushl	%ebx
	pushl	$g_ready_queue
	call	ready_list_add
.LVL124:
	addl	$16, %esp
	jmp	.L85
.L82:
	.loc 2 406 0
	movb	32(%ebx), %al
	leal	-1(%eax), %edx
	.loc 2 408 0
	testb	%dl, %dl
	.loc 2 406 0
	movb	%dl, 32(%ebx)
	.loc 2 408 0
	jne	.L85
	.loc 2 409 0
	movl	$5, 84(%ebx)
	jmp	.L85
.L81:
	.loc 2 414 0
	movb	32(%ebx), %al
	leal	-1(%eax), %edx
	.loc 2 416 0
	testb	%dl, %dl
	.loc 2 414 0
	movb	%dl, 32(%ebx)
	.loc 2 416 0
	jne	.L85
	.loc 2 417 0
	movl	$2, 84(%ebx)
	jmp	.L85
.L77:
	.loc 2 423 0
	subl	$12, %esp
	pushl	%esi
	call	cpu_intrpt_restore
.LVL125:
	.loc 2 424 0
	addl	$16, %esp
	movl	$307, %eax
	jmp	.L83
.L85:
	.loc 2 429 0
	subl	$12, %esp
	pushl	%esi
	call	cpu_intrpt_restore
.LVL126:
	call	core_sched
.LVL127:
	.loc 2 431 0
	addl	$16, %esp
	xorl	%eax, %eax
.L83:
	.loc 2 432 0
	leal	-8(%ebp), %esp
	popl	%ebx
	.cfi_restore 3
	popl	%esi
	.cfi_restore 6
.LVL128:
	popl	%ebp
	.cfi_restore 5
	.cfi_def_cfa 4, 4
	ret
	.cfi_endproc
.LFE21:
	.size	task_resume, .-task_resume
	.section	.text.unlikely.task_resume
.LCOLDE11:
	.section	.text.task_resume
.LHOTE11:
	.section	.text.unlikely.krhino_task_resume,"ax",@progbits
.LCOLDB12:
	.section	.text.krhino_task_resume,"ax",@progbits
.LHOTB12:
	.globl	krhino_task_resume
	.type	krhino_task_resume, @function
krhino_task_resume:
.LFB22:
	.loc 2 435 0
	.cfi_startproc
.LVL129:
	pushl	%ebp
	.cfi_def_cfa_offset 8
	.cfi_offset 5, -8
	movl	%esp, %ebp
	.cfi_def_cfa_register 5
	.loc 2 435 0
	movl	8(%ebp), %eax
	.loc 2 436 0
	testl	%eax, %eax
	je	.L88
	.loc 2 439 0
	popl	%ebp
	.cfi_remember_state
	.cfi_restore 5
	.cfi_def_cfa 4, 4
	.loc 2 438 0
	jmp	task_resume
.LVL130:
.L88:
	.cfi_restore_state
	.loc 2 439 0
	movl	$6, %eax
.LVL131:
	popl	%ebp
	.cfi_restore 5
	.cfi_def_cfa 4, 4
	ret
	.cfi_endproc
.LFE22:
	.size	krhino_task_resume, .-krhino_task_resume
	.section	.text.unlikely.krhino_task_resume
.LCOLDE12:
	.section	.text.krhino_task_resume
.LHOTE12:
	.section	.text.unlikely.krhino_task_stack_min_free,"ax",@progbits
.LCOLDB13:
	.section	.text.krhino_task_stack_min_free,"ax",@progbits
.LHOTB13:
	.globl	krhino_task_stack_min_free
	.type	krhino_task_stack_min_free, @function
krhino_task_stack_min_free:
.LFB23:
	.loc 2 442 0
	.cfi_startproc
.LVL132:
	pushl	%ebp
	.cfi_def_cfa_offset 8
	.cfi_offset 5, -8
	movl	%esp, %ebp
	.cfi_def_cfa_register 5
	.loc 2 442 0
	movl	12(%ebp), %ecx
	movl	8(%ebp), %edx
	.loc 2 447 0
	testl	%ecx, %ecx
	je	.L94
	testl	%edx, %edx
	je	.L94
	.loc 2 449 0
	cmpl	$7, 84(%edx)
	.loc 2 450 0
	movl	$307, %eax
	.loc 2 449 0
	je	.L91
	.loc 2 454 0
	movl	16(%edx), %edx
.LVL133:
	.loc 2 444 0
	xorl	%eax, %eax
.LVL134:
.L92:
	.loc 2 455 0
	cmpl	$0, 4(%edx,%eax,4)
	jne	.L97
	.loc 2 456 0
	incl	%eax
.LVL135:
	jmp	.L92
.LVL136:
.L97:
	.loc 2 466 0
	movl	%eax, (%ecx)
	.loc 2 468 0
	xorl	%eax, %eax
.LVL137:
	jmp	.L91
.LVL138:
.L94:
	.loc 2 447 0
	movl	$6, %eax
.LVL139:
.L91:
	.loc 2 469 0
	popl	%ebp
	.cfi_restore 5
	.cfi_def_cfa 4, 4
	ret
	.cfi_endproc
.LFE23:
	.size	krhino_task_stack_min_free, .-krhino_task_stack_min_free
	.section	.text.unlikely.krhino_task_stack_min_free
.LCOLDE13:
	.section	.text.krhino_task_stack_min_free
.LHOTE13:
	.section	.text.unlikely.krhino_task_stack_cur_free,"ax",@progbits
.LCOLDB14:
	.section	.text.krhino_task_stack_cur_free,"ax",@progbits
.LHOTB14:
	.globl	krhino_task_stack_cur_free
	.type	krhino_task_stack_cur_free, @function
krhino_task_stack_cur_free:
.LFB24:
	.loc 2 473 0
	.cfi_startproc
.LVL140:
	pushl	%ebp
	.cfi_def_cfa_offset 8
	.cfi_offset 5, -8
	movl	%esp, %ebp
	.cfi_def_cfa_register 5
	pushl	%esi
	pushl	%ebx
	.cfi_offset 6, -12
	.cfi_offset 3, -16
	.loc 2 473 0
	movl	8(%ebp), %ebx
	.loc 2 477 0
	call	cpu_intrpt_save
.LVL141:
	movl	%eax, %esi
.LVL142:
	.loc 2 479 0
	testl	%ebx, %ebx
	je	.L99
	.loc 2 479 0
	cmpl	g_active_task, %ebx
	jne	.L100
.L99:
	.loc 2 480 0
	movl	g_active_task, %ebx
.LVL143:
	.loc 2 481 0
	call	soc_get_cur_sp
.LVL144:
	jmp	.L101
.LVL145:
.L100:
	.loc 2 483 0
	movl	(%ebx), %eax
.LVL146:
.L101:
	.loc 2 486 0
	testl	%eax, %eax
	jne	.L102
	.loc 2 487 0
	subl	$12, %esp
	pushl	%esi
	call	cpu_intrpt_restore
.LVL147:
	.loc 2 488 0
	movl	$2, (%esp)
	call	k_err_proc
.LVL148:
	.loc 2 489 0
	addl	$16, %esp
	movl	$2, %eax
	jmp	.L103
.LVL149:
.L102:
	.loc 2 492 0
	movl	20(%ebx), %ecx
	movl	16(%ebx), %edx
	leal	(%edx,%ecx,4), %edx
	cmpl	%edx, %eax
	jbe	.L104
	.loc 2 493 0
	subl	$12, %esp
	pushl	%esi
	call	cpu_intrpt_restore
.LVL150:
	.loc 2 494 0
	movl	$1200, (%esp)
	call	k_err_proc
.LVL151:
	.loc 2 495 0
	addl	$16, %esp
	movl	$1200, %eax
	jmp	.L103
.LVL152:
.L104:
	.loc 2 498 0
	subl	%eax, %edx
	movl	12(%ebp), %eax
.LVL153:
	.loc 2 501 0
	subl	$12, %esp
	.loc 2 498 0
	shrl	$2, %edx
	movl	%edx, (%eax)
	.loc 2 501 0
	pushl	%esi
	call	cpu_intrpt_restore
.LVL154:
	.loc 2 502 0
	addl	$16, %esp
	xorl	%eax, %eax
.L103:
	.loc 2 503 0
	leal	-8(%ebp), %esp
	popl	%ebx
	.cfi_restore 3
.LVL155:
	popl	%esi
	.cfi_restore 6
.LVL156:
	popl	%ebp
	.cfi_restore 5
	.cfi_def_cfa 4, 4
	ret
	.cfi_endproc
.LFE24:
	.size	krhino_task_stack_cur_free, .-krhino_task_stack_cur_free
	.section	.text.unlikely.krhino_task_stack_cur_free
.LCOLDE14:
	.section	.text.krhino_task_stack_cur_free
.LHOTE14:
	.section	.text.unlikely.task_pri_change,"ax",@progbits
.LCOLDB15:
	.section	.text.task_pri_change,"ax",@progbits
.LHOTB15:
	.globl	task_pri_change
	.type	task_pri_change, @function
task_pri_change:
.LFB25:
	.loc 2 508 0
	.cfi_startproc
.LVL157:
	pushl	%ebp
	.cfi_def_cfa_offset 8
	.cfi_offset 5, -8
	movl	%esp, %ebp
	.cfi_def_cfa_register 5
	pushl	%esi
	pushl	%ebx
	subl	$16, %esp
	.cfi_offset 6, -12
	.cfi_offset 3, -16
	movl	8(%ebp), %ebx
	movb	12(%ebp), %al
.LVL158:
.L118:
	.loc 2 514 0
	movb	119(%ebx), %dl
	cmpb	%dl, %al
	je	.L115
	.loc 2 515 0
	movl	84(%ebx), %ecx
	cmpl	$6, %ecx
	ja	.L111
	movl	$1, %esi
	sall	%cl, %esi
	movl	%esi, %ecx
	testb	$20, %cl
	jne	.L112
	testb	$104, %cl
	jne	.L113
	andb	$2, %cl
	movb	%al, -9(%ebp)
	je	.L111
	.loc 2 517 0
	pushl	%esi
	pushl	%esi
	pushl	%ebx
	pushl	$g_ready_queue
	call	ready_list_rm
.LVL159:
	.loc 2 520 0
	addl	$16, %esp
	cmpl	g_active_task, %ebx
	.loc 2 518 0
	movb	-9(%ebp), %al
	movb	%al, 119(%ebx)
	.loc 2 520 0
	jne	.L114
	.loc 2 521 0
	pushl	%ecx
	pushl	%ecx
	pushl	%ebx
	pushl	$g_ready_queue
	call	ready_list_add_head
.LVL160:
	jmp	.L124
.L114:
	.loc 2 523 0
	pushl	%edx
	pushl	%edx
	pushl	%ebx
	pushl	$g_ready_queue
	call	ready_list_add_tail
.LVL161:
.L124:
	addl	$16, %esp
	jmp	.L115
.LVL162:
.L113:
	.loc 2 532 0
	movb	%al, 119(%ebx)
.LVL163:
	.loc 2 534 0
	jmp	.L115
.LVL164:
.L112:
	.loc 2 539 0
	subl	$12, %esp
	.loc 2 538 0
	movb	%al, 119(%ebx)
	movb	%dl, -10(%ebp)
.LVL165:
	.loc 2 539 0
	pushl	%ebx
	.loc 2 538 0
	movb	%al, -9(%ebp)
	.loc 2 539 0
	call	pend_list_reorder
.LVL166:
	.loc 2 541 0
	movl	92(%ebx), %ecx
	addl	$16, %esp
	cmpl	$2, 16(%ecx)
	jne	.L115
.LVL167:
	.loc 2 543 0
	movl	20(%ecx), %esi
.LVL168:
	.loc 2 545 0
	movb	-9(%ebp), %al
	movb	119(%esi), %cl
.LVL169:
	cmpb	119(%ebx), %cl
	ja	.L116
	.loc 2 550 0
	movb	-10(%ebp), %dl
	cmpb	%cl, %dl
	jne	.L115
	.loc 2 552 0
	pushl	%eax
.LVL170:
	pushl	%eax
	pushl	$0
	pushl	%esi
	call	mutex_pri_look
.LVL171:
	.loc 2 554 0
	addl	$16, %esp
	cmpb	119(%esi), %al
	jne	.L116
	jmp	.L115
.LVL172:
.L111:
	.loc 2 569 0
	subl	$12, %esp
	pushl	$307
	call	k_err_proc
.LVL173:
	.loc 2 570 0
	addl	$16, %esp
	movl	$307, %eax
	jmp	.L122
.LVL174:
.L115:
	.loc 2 577 0
	xorl	%eax, %eax
	jmp	.L122
.LVL175:
.L116:
	.loc 2 508 0
	movl	%esi, %ebx
	jmp	.L118
.LVL176:
.L122:
	.loc 2 578 0
	leal	-8(%ebp), %esp
	popl	%ebx
	.cfi_restore 3
	popl	%esi
	.cfi_restore 6
	popl	%ebp
	.cfi_restore 5
	.cfi_def_cfa 4, 4
	ret
	.cfi_endproc
.LFE25:
	.size	task_pri_change, .-task_pri_change
	.section	.text.unlikely.task_pri_change
.LCOLDE15:
	.section	.text.task_pri_change
.LHOTE15:
	.section	.text.unlikely.krhino_task_pri_change,"ax",@progbits
.LCOLDB16:
	.section	.text.krhino_task_pri_change,"ax",@progbits
.LHOTB16:
	.globl	krhino_task_pri_change
	.type	krhino_task_pri_change, @function
krhino_task_pri_change:
.LFB26:
	.loc 2 581 0
	.cfi_startproc
.LVL177:
	pushl	%ebp
	.cfi_def_cfa_offset 8
	.cfi_offset 5, -8
	movl	%esp, %ebp
	.cfi_def_cfa_register 5
	pushl	%edi
	pushl	%esi
	pushl	%ebx
	subl	$12, %esp
	.cfi_offset 7, -12
	.cfi_offset 6, -16
	.cfi_offset 3, -20
	.loc 2 581 0
	movl	8(%ebp), %edi
	movl	12(%ebp), %ebx
	.loc 2 588 0
	testl	%edi, %edi
	je	.L129
	cmpl	$0, 16(%ebp)
	je	.L129
	.loc 2 596 0
	cmpb	$60, 119(%edi)
	ja	.L130
	cmpb	$60, %bl
	ja	.L130
	.loc 2 601 0
	cmpl	$7, 84(%edi)
	.loc 2 602 0
	movl	$307, %eax
	.loc 2 601 0
	je	.L126
	.loc 2 605 0
	call	cpu_intrpt_save
.LVL178:
	.loc 2 607 0
	cmpb	$0, g_intrpt_nested_level
	.loc 2 605 0
	movl	%eax, %esi
.LVL179:
	.loc 2 607 0
	je	.L127
	.loc 2 607 0 is_stmt 0 discriminator 1
	subl	$12, %esp
	pushl	%eax
	call	cpu_intrpt_restore
.LVL180:
	addl	$16, %esp
	movl	$1000, %eax
	jmp	.L126
.LVL181:
.L127:
	.loc 2 610 0 is_stmt 1
	movzbl	%bl, %eax
.LVL182:
	pushl	%edx
	pushl	%edx
	pushl	%eax
	pushl	%edi
	call	mutex_pri_limit
.LVL183:
	.loc 2 615 0
	movb	119(%edi), %cl
	movl	16(%ebp), %edx
	.loc 2 617 0
	movzbl	%al, %eax
	.loc 2 612 0
	movb	%bl, 120(%edi)
.LVL184:
	.loc 2 615 0
	movb	%cl, (%edx)
	.loc 2 617 0
	popl	%ecx
	popl	%ebx
	pushl	%eax
	pushl	%edi
	call	task_pri_change
.LVL185:
	.loc 2 619 0
	addl	$16, %esp
	testl	%eax, %eax
	.loc 2 617 0
	movl	%eax, %ebx
.LVL186:
	.loc 2 619 0
	je	.L128
	.loc 2 620 0
	subl	$12, %esp
	pushl	%esi
	call	cpu_intrpt_restore
.LVL187:
	.loc 2 621 0
	addl	$16, %esp
	movl	%ebx, %eax
	jmp	.L126
.L128:
	.loc 2 626 0
	subl	$12, %esp
	pushl	%esi
	call	cpu_intrpt_restore
.LVL188:
	call	core_sched
.LVL189:
	.loc 2 628 0
	addl	$16, %esp
	xorl	%eax, %eax
	jmp	.L126
.LVL190:
.L129:
	.loc 2 588 0
	movl	$6, %eax
	jmp	.L126
.L130:
	.loc 2 597 0
	movl	$306, %eax
.LVL191:
.L126:
	.loc 2 629 0
	leal	-12(%ebp), %esp
	popl	%ebx
	.cfi_restore 3
	popl	%esi
	.cfi_restore 6
	popl	%edi
	.cfi_restore 7
	popl	%ebp
	.cfi_restore 5
	.cfi_def_cfa 4, 4
	ret
	.cfi_endproc
.LFE26:
	.size	krhino_task_pri_change, .-krhino_task_pri_change
	.section	.text.unlikely.krhino_task_pri_change
.LCOLDE16:
	.section	.text.krhino_task_pri_change
.LHOTE16:
	.section	.text.unlikely.krhino_task_wait_abort,"ax",@progbits
.LCOLDB17:
	.section	.text.krhino_task_wait_abort,"ax",@progbits
.LHOTB17:
	.globl	krhino_task_wait_abort
	.type	krhino_task_wait_abort, @function
krhino_task_wait_abort:
.LFB27:
	.loc 2 634 0
	.cfi_startproc
.LVL192:
	pushl	%ebp
	.cfi_def_cfa_offset 8
	.cfi_offset 5, -8
	.loc 2 637 0
	movl	$6, %eax
	.loc 2 634 0
	movl	%esp, %ebp
	.cfi_def_cfa_register 5
	pushl	%esi
	pushl	%ebx
	.cfi_offset 6, -12
	.cfi_offset 3, -16
	.loc 2 634 0
	movl	8(%ebp), %ebx
	.loc 2 637 0
	testl	%ebx, %ebx
	je	.L134
	.loc 2 639 0
	call	cpu_intrpt_save
.LVL193:
	.loc 2 641 0
	cmpb	$0, g_intrpt_nested_level
	.loc 2 639 0
	movl	%eax, %esi
.LVL194:
	.loc 2 641 0
	je	.L135
	.loc 2 641 0 is_stmt 0 discriminator 1
	subl	$12, %esp
	pushl	%eax
	call	cpu_intrpt_restore
.LVL195:
	addl	$16, %esp
	movl	$1000, %eax
	jmp	.L134
.LVL196:
.L135:
	.loc 2 643 0 is_stmt 1
	movl	84(%ebx), %eax
.LVL197:
	decl	%eax
	cmpl	$5, %eax
	ja	.L136
	jmp	*.L138(,%eax,4)
	.section	.rodata.krhino_task_wait_abort,"a",@progbits
	.align 4
	.align 4
.L138:
	.long	.L137
	.long	.L139
	.long	.L140
	.long	.L139
	.long	.L141
	.long	.L141
	.section	.text.krhino_task_wait_abort
.L140:
	.loc 2 648 0
	movl	$1, 84(%ebx)
	.loc 2 649 0
	pushl	%eax
	pushl	%eax
	pushl	%ebx
	pushl	$g_ready_queue
	call	ready_list_add
.LVL198:
	jmp	.L145
.L141:
	.loc 2 654 0
	subl	$12, %esp
	pushl	%ebx
	call	tick_list_rm
.LVL199:
	.loc 2 655 0
	popl	%ecx
	popl	%eax
	pushl	%ebx
	pushl	$g_ready_queue
	call	ready_list_add
.LVL200:
	.loc 2 656 0
	movl	$1, 84(%ebx)
	.loc 2 657 0
	movl	$1, 88(%ebx)
	jmp	.L145
.L139:
	.loc 2 662 0
	subl	$12, %esp
	pushl	%ebx
	call	tick_list_rm
.LVL201:
	.loc 2 664 0
	leal	24(%ebx), %eax
	call	klist_rm
.LVL202:
	.loc 2 666 0
	popl	%eax
	popl	%edx
	pushl	%ebx
	pushl	$g_ready_queue
	call	ready_list_add
.LVL203:
	.loc 2 667 0
	movl	$1, 84(%ebx)
	.loc 2 668 0
	movl	$1, 88(%ebx)
	.loc 2 670 0
	movl	%ebx, (%esp)
	call	mutex_task_pri_reset
.LVL204:
	.loc 2 671 0
	movl	$0, 92(%ebx)
.L145:
	.loc 2 673 0
	addl	$16, %esp
	jmp	.L137
.L136:
	.loc 2 675 0
	subl	$12, %esp
	pushl	%esi
	call	cpu_intrpt_restore
.LVL205:
	.loc 2 676 0
	addl	$16, %esp
	movl	$307, %eax
	jmp	.L134
.L137:
	.loc 2 685 0
	subl	$12, %esp
	pushl	%esi
	call	cpu_intrpt_restore
.LVL206:
	call	core_sched
.LVL207:
	.loc 2 687 0
	addl	$16, %esp
	xorl	%eax, %eax
.LVL208:
.L134:
	.loc 2 688 0
	leal	-8(%ebp), %esp
	popl	%ebx
	.cfi_restore 3
	popl	%esi
	.cfi_restore 6
	popl	%ebp
	.cfi_restore 5
	.cfi_def_cfa 4, 4
	ret
	.cfi_endproc
.LFE27:
	.size	krhino_task_wait_abort, .-krhino_task_wait_abort
	.section	.text.unlikely.krhino_task_wait_abort
.LCOLDE17:
	.section	.text.krhino_task_wait_abort
.LHOTE17:
	.section	.text.unlikely.krhino_task_del,"ax",@progbits
.LCOLDB18:
	.section	.text.krhino_task_del,"ax",@progbits
.LHOTB18:
	.globl	krhino_task_del
	.type	krhino_task_del, @function
krhino_task_del:
.LFB29:
	.loc 2 724 0
	.cfi_startproc
.LVL209:
	pushl	%ebp
	.cfi_def_cfa_offset 8
	.cfi_offset 5, -8
	movl	%esp, %ebp
	.cfi_def_cfa_register 5
	pushl	%esi
	pushl	%ebx
	.cfi_offset 6, -12
	.cfi_offset 3, -16
	.loc 2 724 0
	movl	8(%ebp), %ebx
	.loc 2 733 0
	call	cpu_intrpt_save
.LVL210:
	.loc 2 736 0
	cmpb	$0, g_intrpt_nested_level
	.loc 2 733 0
	movl	%eax, %esi
.LVL211:
	.loc 2 736 0
	je	.L147
	.loc 2 736 0 is_stmt 0 discriminator 1
	subl	$12, %esp
	pushl	%eax
	call	cpu_intrpt_restore
.LVL212:
	addl	$16, %esp
	movl	$1000, %eax
	jmp	.L148
.LVL213:
.L147:
	.loc 2 739 0 is_stmt 1
	testl	%ebx, %ebx
	cmove	g_active_task, %ebx
.LVL214:
	.loc 2 742 0
	cmpb	$61, 119(%ebx)
	jne	.L150
	.loc 2 743 0
	subl	$12, %esp
	pushl	%eax
	call	cpu_intrpt_restore
.LVL215:
	.loc 2 744 0
	addl	$16, %esp
	movl	$302, %eax
	jmp	.L148
.LVL216:
.L150:
	.loc 2 747 0
	cmpb	$1, 121(%ebx)
	je	.L151
	.loc 2 748 0
	subl	$12, %esp
	pushl	%eax
	call	cpu_intrpt_restore
.LVL217:
	.loc 2 749 0
	addl	$16, %esp
	movl	$9, %eax
	jmp	.L148
.LVL218:
.L151:
	.loc 2 761 0
	cmpl	g_active_task, %ebx
	jne	.L152
	.loc 2 762 0
	cmpb	$0, g_sched_lock
	je	.L152
	.loc 2 763 0
	subl	$12, %esp
	pushl	%eax
	call	cpu_intrpt_restore
.LVL219:
	.loc 2 764 0
	addl	$16, %esp
	movl	$200, %eax
	jmp	.L148
.LVL220:
.L152:
	.loc 2 769 0
	movl	36(%ebx), %eax
.LVL221:
	call	task_mutex_free.isra.1
.LVL222:
	.loc 2 771 0
	movl	84(%ebx), %eax
	decl	%eax
	cmpl	$5, %eax
	ja	.L153
	jmp	*.L155(,%eax,4)
	.section	.rodata.krhino_task_del,"a",@progbits
	.align 4
	.align 4
.L155:
	.long	.L154
	.long	.L156
	.long	.L157
	.long	.L156
	.long	.L158
	.long	.L158
	.section	.text.krhino_task_del
.L154:
	.loc 2 773 0
	pushl	%eax
	pushl	%eax
	pushl	%ebx
	pushl	$g_ready_queue
	call	ready_list_rm
.LVL223:
	jmp	.L162
.L157:
	.loc 2 777 0
	movl	$7, 84(%ebx)
	.loc 2 778 0
	jmp	.L159
.L158:
	.loc 2 781 0
	subl	$12, %esp
	pushl	%ebx
	call	tick_list_rm
.LVL224:
.L162:
	.loc 2 782 0
	movl	$7, 84(%ebx)
	jmp	.L161
.L156:
	.loc 2 786 0
	subl	$12, %esp
	pushl	%ebx
	call	tick_list_rm
.LVL225:
	.loc 2 787 0
	leal	24(%ebx), %eax
	call	klist_rm
.LVL226:
	.loc 2 788 0
	movl	$7, 84(%ebx)
	.loc 2 790 0
	movl	%ebx, (%esp)
	call	mutex_task_pri_reset
.LVL227:
.L161:
	.loc 2 791 0
	addl	$16, %esp
	jmp	.L159
.L153:
	.loc 2 793 0
	subl	$12, %esp
	pushl	%esi
	call	cpu_intrpt_restore
.LVL228:
	.loc 2 794 0
	addl	$16, %esp
	movl	$307, %eax
	jmp	.L148
.L159:
	.loc 2 798 0
	leal	40(%ebx), %eax
	call	klist_rm
.LVL229:
	.loc 2 814 0
	subl	$12, %esp
	pushl	%esi
	call	cpu_intrpt_restore
.LVL230:
	call	core_sched
.LVL231:
	.loc 2 816 0
	addl	$16, %esp
	xorl	%eax, %eax
.LVL232:
.L148:
	.loc 2 817 0
	leal	-8(%ebp), %esp
	popl	%ebx
	.cfi_restore 3
	popl	%esi
	.cfi_restore 6
.LVL233:
	popl	%ebp
	.cfi_restore 5
	.cfi_def_cfa 4, 4
	ret
	.cfi_endproc
.LFE29:
	.size	krhino_task_del, .-krhino_task_del
	.section	.text.unlikely.krhino_task_del
.LCOLDE18:
	.section	.text.krhino_task_del
.LHOTE18:
	.section	.text.unlikely.krhino_task_dyn_del,"ax",@progbits
.LCOLDB19:
	.section	.text.krhino_task_dyn_del,"ax",@progbits
.LHOTB19:
	.globl	krhino_task_dyn_del
	.type	krhino_task_dyn_del, @function
krhino_task_dyn_del:
.LFB30:
	.loc 2 821 0
	.cfi_startproc
.LVL234:
	pushl	%ebp
	.cfi_def_cfa_offset 8
	.cfi_offset 5, -8
	movl	%esp, %ebp
	.cfi_def_cfa_register 5
	pushl	%edi
	pushl	%esi
	pushl	%ebx
	subl	$12, %esp
	.cfi_offset 7, -12
	.cfi_offset 6, -16
	.cfi_offset 3, -20
	.loc 2 821 0
	movl	8(%ebp), %ebx
	.loc 2 828 0
	call	cpu_intrpt_save
.LVL235:
	.loc 2 832 0
	cmpb	$0, g_intrpt_nested_level
	.loc 2 828 0
	movl	%eax, %esi
.LVL236:
	.loc 2 832 0
	je	.L164
	.loc 2 832 0 is_stmt 0 discriminator 1
	subl	$12, %esp
	pushl	%eax
	call	cpu_intrpt_restore
.LVL237:
	addl	$16, %esp
	movl	$1000, %eax
	jmp	.L165
.LVL238:
.L164:
	.loc 2 835 0 is_stmt 1
	testl	%ebx, %ebx
	cmove	g_active_task, %ebx
.LVL239:
	.loc 2 838 0
	cmpb	$61, 119(%ebx)
	jne	.L167
	.loc 2 839 0
	subl	$12, %esp
	pushl	%eax
	call	cpu_intrpt_restore
.LVL240:
	.loc 2 841 0
	addl	$16, %esp
	movl	$302, %eax
	jmp	.L165
.LVL241:
.L167:
	.loc 2 844 0
	cmpb	$2, 121(%ebx)
	je	.L168
	.loc 2 845 0
	subl	$12, %esp
	pushl	%eax
	call	cpu_intrpt_restore
.LVL242:
	.loc 2 847 0
	addl	$16, %esp
	movl	$9, %eax
	jmp	.L165
.LVL243:
.L168:
	.loc 2 859 0
	cmpl	g_active_task, %ebx
	jne	.L169
	.loc 2 860 0
	cmpb	$0, g_sched_lock
	je	.L169
	.loc 2 861 0
	subl	$12, %esp
	pushl	%eax
	call	cpu_intrpt_restore
.LVL244:
	.loc 2 862 0
	addl	$16, %esp
	movl	$200, %eax
	jmp	.L165
.LVL245:
.L169:
	.loc 2 866 0
	cmpl	$7, 84(%ebx)
	jne	.L170
	.loc 2 867 0
	subl	$12, %esp
	pushl	%esi
	call	cpu_intrpt_restore
.LVL246:
	.loc 2 868 0
	addl	$16, %esp
	movl	$307, %eax
	jmp	.L165
.LVL247:
.L170:
	.loc 2 872 0
	movl	16(%ebx), %eax
.LVL248:
.LBB84:
.LBB85:
	.loc 1 28 0
	movl	g_res_list+4, %ecx
.LBE85:
.LBE84:
	.loc 2 883 0
	subl	$12, %esp
	.loc 2 878 0
	incb	g_sched_lock
	.loc 2 879 0
	leal	24(%eax), %edx
.LVL249:
.LBB87:
.LBB86:
	.loc 1 28 0
	movl	%ecx, 28(%eax)
	.loc 1 29 0
	movl	$g_res_list, 24(%eax)
	.loc 1 31 0
	movl	%edx, (%ecx)
	.loc 1 32 0
	movl	%edx, g_res_list+4
.LVL250:
.LBE86:
.LBE87:
	.loc 2 880 0
	movl	%eax, 8(%eax)
	.loc 2 881 0
	movl	%ebx, 12(%eax)
	.loc 2 882 0
	movl	$2, 4(%eax)
	.loc 2 883 0
	pushl	$g_res_sem
	call	krhino_sem_give
.LVL251:
	.loc 2 884 0
	decb	g_sched_lock
	.loc 2 886 0
	addl	$16, %esp
	testl	%eax, %eax
	.loc 2 883 0
	movl	%eax, %edi
.LVL252:
	.loc 2 886 0
	je	.L171
	.loc 2 887 0
	subl	$12, %esp
	pushl	%esi
	call	cpu_intrpt_restore
.LVL253:
	.loc 2 888 0
	movl	$2, (%esp)
	call	k_err_proc
.LVL254:
	.loc 2 889 0
	addl	$16, %esp
	movl	%edi, %eax
	jmp	.L165
.L171:
	.loc 2 893 0
	movl	36(%ebx), %eax
	call	task_mutex_free.isra.1
.LVL255:
	.loc 2 895 0
	movl	84(%ebx), %eax
	decl	%eax
	cmpl	$5, %eax
	ja	.L172
	jmp	*.L174(,%eax,4)
	.section	.rodata.krhino_task_dyn_del,"a",@progbits
	.align 4
	.align 4
.L174:
	.long	.L173
	.long	.L175
	.long	.L176
	.long	.L175
	.long	.L177
	.long	.L177
	.section	.text.krhino_task_dyn_del
.L173:
	.loc 2 897 0
	pushl	%eax
	pushl	%eax
	pushl	%ebx
	pushl	$g_ready_queue
	call	ready_list_rm
.LVL256:
	jmp	.L180
.L176:
	.loc 2 901 0
	movl	$7, 84(%ebx)
	.loc 2 902 0
	jmp	.L172
.L177:
	.loc 2 905 0
	subl	$12, %esp
	pushl	%ebx
	call	tick_list_rm
.LVL257:
.L180:
	.loc 2 906 0
	movl	$7, 84(%ebx)
	jmp	.L179
.L175:
	.loc 2 910 0
	subl	$12, %esp
	pushl	%ebx
	call	tick_list_rm
.LVL258:
	.loc 2 911 0
	leal	24(%ebx), %eax
	call	klist_rm
.LVL259:
	.loc 2 912 0
	movl	$7, 84(%ebx)
	.loc 2 913 0
	movl	%ebx, (%esp)
	call	mutex_task_pri_reset
.LVL260:
.L179:
	.loc 2 914 0
	addl	$16, %esp
.L172:
	.loc 2 921 0
	leal	40(%ebx), %eax
	call	klist_rm
.LVL261:
	.loc 2 930 0
	subl	$12, %esp
	pushl	%esi
	call	cpu_intrpt_restore
.LVL262:
	call	core_sched
.LVL263:
	.loc 2 932 0
	addl	$16, %esp
	xorl	%eax, %eax
.LVL264:
.L165:
	.loc 2 933 0
	leal	-12(%ebp), %esp
	popl	%ebx
	.cfi_restore 3
	popl	%esi
	.cfi_restore 6
.LVL265:
	popl	%edi
	.cfi_restore 7
	popl	%ebp
	.cfi_restore 5
	.cfi_def_cfa 4, 4
	ret
	.cfi_endproc
.LFE30:
	.size	krhino_task_dyn_del, .-krhino_task_dyn_del
	.section	.text.unlikely.krhino_task_dyn_del
.LCOLDE19:
	.section	.text.krhino_task_dyn_del
.LHOTE19:
	.section	.text.unlikely.krhino_task_time_slice_set,"ax",@progbits
.LCOLDB20:
	.section	.text.krhino_task_time_slice_set,"ax",@progbits
.LHOTB20:
	.globl	krhino_task_time_slice_set
	.type	krhino_task_time_slice_set, @function
krhino_task_time_slice_set:
.LFB31:
	.loc 2 940 0
	.cfi_startproc
.LVL266:
	pushl	%ebp
	.cfi_def_cfa_offset 8
	.cfi_offset 5, -8
	.loc 2 943 0
	movl	$6, %eax
	.loc 2 940 0
	movl	%esp, %ebp
	.cfi_def_cfa_register 5
	pushl	%esi
	pushl	%ebx
	.cfi_offset 6, -12
	.cfi_offset 3, -16
	.loc 2 940 0
	movl	8(%ebp), %esi
	movl	12(%ebp), %ebx
	.loc 2 943 0
	testl	%esi, %esi
	je	.L182
	.loc 2 945 0
	call	cpu_intrpt_save
.LVL267:
	.loc 2 947 0
	cmpb	$0, g_intrpt_nested_level
	je	.L183
	.loc 2 947 0 is_stmt 0 discriminator 1
	subl	$12, %esp
	pushl	%eax
	call	cpu_intrpt_restore
.LVL268:
	addl	$16, %esp
	movl	$1000, %eax
	jmp	.L182
.LVL269:
.L183:
	.loc 2 951 0 is_stmt 1
	testl	%ebx, %ebx
	movl	$50, %edx
	cmove	%edx, %ebx
	.loc 2 959 0
	subl	$12, %esp
	.loc 2 951 0
	movl	%ebx, 104(%esi)
	.loc 2 957 0
	movl	%ebx, 100(%esi)
	.loc 2 959 0
	pushl	%eax
	call	cpu_intrpt_restore
.LVL270:
	.loc 2 961 0
	addl	$16, %esp
	xorl	%eax, %eax
.L182:
	.loc 2 962 0
	leal	-8(%ebp), %esp
	popl	%ebx
	.cfi_restore 3
	popl	%esi
	.cfi_restore 6
	popl	%ebp
	.cfi_restore 5
	.cfi_def_cfa 4, 4
	ret
	.cfi_endproc
.LFE31:
	.size	krhino_task_time_slice_set, .-krhino_task_time_slice_set
	.section	.text.unlikely.krhino_task_time_slice_set
.LCOLDE20:
	.section	.text.krhino_task_time_slice_set
.LHOTE20:
	.section	.text.unlikely.krhino_sched_policy_set,"ax",@progbits
.LCOLDB21:
	.section	.text.krhino_sched_policy_set,"ax",@progbits
.LHOTB21:
	.globl	krhino_sched_policy_set
	.type	krhino_sched_policy_set, @function
krhino_sched_policy_set:
.LFB32:
	.loc 2 965 0
	.cfi_startproc
.LVL271:
	pushl	%ebp
	.cfi_def_cfa_offset 8
	.cfi_offset 5, -8
	.loc 2 968 0
	movl	$6, %eax
	.loc 2 965 0
	movl	%esp, %ebp
	.cfi_def_cfa_register 5
	pushl	%esi
	pushl	%ebx
	.cfi_offset 6, -12
	.cfi_offset 3, -16
	.loc 2 965 0
	movl	8(%ebp), %esi
	movl	12(%ebp), %ebx
	.loc 2 968 0
	testl	%esi, %esi
	je	.L190
	.loc 2 970 0
	cmpb	$1, %bl
	.loc 2 971 0
	movl	$203, %eax
	.loc 2 970 0
	ja	.L190
	.loc 2 974 0
	call	cpu_intrpt_save
.LVL272:
	.loc 2 976 0
	cmpb	$0, g_intrpt_nested_level
	je	.L191
	.loc 2 976 0 is_stmt 0 discriminator 1
	subl	$12, %esp
	pushl	%eax
	call	cpu_intrpt_restore
.LVL273:
	addl	$16, %esp
	movl	$1000, %eax
	jmp	.L190
.LVL274:
.L191:
	.loc 2 979 0 is_stmt 1
	subl	$12, %esp
	.loc 2 978 0
	movb	%bl, 117(%esi)
	.loc 2 979 0
	pushl	%eax
	call	cpu_intrpt_restore
.LVL275:
	.loc 2 981 0
	addl	$16, %esp
	xorl	%eax, %eax
.L190:
	.loc 2 982 0
	leal	-8(%ebp), %esp
	popl	%ebx
	.cfi_restore 3
	popl	%esi
	.cfi_restore 6
	popl	%ebp
	.cfi_restore 5
	.cfi_def_cfa 4, 4
	ret
	.cfi_endproc
.LFE32:
	.size	krhino_sched_policy_set, .-krhino_sched_policy_set
	.section	.text.unlikely.krhino_sched_policy_set
.LCOLDE21:
	.section	.text.krhino_sched_policy_set
.LHOTE21:
	.section	.text.unlikely.krhino_sched_policy_get,"ax",@progbits
.LCOLDB22:
	.section	.text.krhino_sched_policy_get,"ax",@progbits
.LHOTB22:
	.globl	krhino_sched_policy_get
	.type	krhino_sched_policy_get, @function
krhino_sched_policy_get:
.LFB33:
	.loc 2 985 0
	.cfi_startproc
.LVL276:
	pushl	%ebp
	.cfi_def_cfa_offset 8
	.cfi_offset 5, -8
	movl	%esp, %ebp
	.cfi_def_cfa_register 5
	pushl	%esi
	pushl	%ebx
	.cfi_offset 6, -12
	.cfi_offset 3, -16
	.loc 2 985 0
	movl	8(%ebp), %esi
	movl	12(%ebp), %ebx
	.loc 2 989 0
	testl	%esi, %esi
	je	.L198
	testl	%ebx, %ebx
	je	.L198
	.loc 2 991 0
	call	cpu_intrpt_save
.LVL277:
	.loc 2 993 0
	cmpb	$0, g_intrpt_nested_level
	je	.L197
	.loc 2 993 0 is_stmt 0 discriminator 1
	subl	$12, %esp
	pushl	%eax
	call	cpu_intrpt_restore
.LVL278:
	addl	$16, %esp
	movl	$1000, %eax
	jmp	.L196
.LVL279:
.L197:
	.loc 2 995 0 is_stmt 1
	movb	117(%esi), %dl
	.loc 2 996 0
	subl	$12, %esp
	.loc 2 995 0
	movb	%dl, (%ebx)
	.loc 2 996 0
	pushl	%eax
	call	cpu_intrpt_restore
.LVL280:
	.loc 2 998 0
	addl	$16, %esp
	xorl	%eax, %eax
	jmp	.L196
.LVL281:
.L198:
	.loc 2 989 0
	movl	$6, %eax
.LVL282:
.L196:
	.loc 2 999 0
	leal	-8(%ebp), %esp
	popl	%ebx
	.cfi_restore 3
	popl	%esi
	.cfi_restore 6
	popl	%ebp
	.cfi_restore 5
	.cfi_def_cfa 4, 4
	ret
	.cfi_endproc
.LFE33:
	.size	krhino_sched_policy_get, .-krhino_sched_policy_get
	.section	.text.unlikely.krhino_sched_policy_get
.LCOLDE22:
	.section	.text.krhino_sched_policy_get
.LHOTE22:
	.section	.text.unlikely.krhino_task_info_set,"ax",@progbits
.LCOLDB23:
	.section	.text.krhino_task_info_set,"ax",@progbits
.LHOTB23:
	.globl	krhino_task_info_set
	.type	krhino_task_info_set, @function
krhino_task_info_set:
.LFB34:
	.loc 2 1004 0
	.cfi_startproc
.LVL283:
	pushl	%ebp
	.cfi_def_cfa_offset 8
	.cfi_offset 5, -8
	.loc 2 1007 0
	movl	$6, %eax
	.loc 2 1004 0
	movl	%esp, %ebp
	.cfi_def_cfa_register 5
	pushl	%esi
	pushl	%ebx
	.cfi_offset 6, -12
	.cfi_offset 3, -16
	.loc 2 1004 0
	movl	8(%ebp), %ebx
	movl	12(%ebp), %esi
	.loc 2 1007 0
	testl	%ebx, %ebx
	je	.L201
	.loc 2 1009 0
	cmpl	$1, %esi
	.loc 2 1010 0
	movl	$5, %eax
	.loc 2 1009 0
	ja	.L201
	.loc 2 1013 0
	call	cpu_intrpt_save
.LVL284:
	.loc 2 1014 0
	movl	16(%ebp), %edx
	.loc 2 1015 0
	subl	$12, %esp
	.loc 2 1014 0
	movl	%edx, 8(%ebx,%esi,4)
	.loc 2 1015 0
	pushl	%eax
	call	cpu_intrpt_restore
.LVL285:
	.loc 2 1017 0
	addl	$16, %esp
	xorl	%eax, %eax
.L201:
	.loc 2 1018 0
	leal	-8(%ebp), %esp
	popl	%ebx
	.cfi_restore 3
	popl	%esi
	.cfi_restore 6
	popl	%ebp
	.cfi_restore 5
	.cfi_def_cfa 4, 4
	ret
	.cfi_endproc
.LFE34:
	.size	krhino_task_info_set, .-krhino_task_info_set
	.section	.text.unlikely.krhino_task_info_set
.LCOLDE23:
	.section	.text.krhino_task_info_set
.LHOTE23:
	.section	.text.unlikely.krhino_task_info_get,"ax",@progbits
.LCOLDB24:
	.section	.text.krhino_task_info_get,"ax",@progbits
.LHOTB24:
	.globl	krhino_task_info_get
	.type	krhino_task_info_get, @function
krhino_task_info_get:
.LFB35:
	.loc 2 1021 0
	.cfi_startproc
.LVL286:
	pushl	%ebp
	.cfi_def_cfa_offset 8
	.cfi_offset 5, -8
	movl	%esp, %ebp
	.cfi_def_cfa_register 5
	pushl	%ebx
	.cfi_offset 3, -12
	.loc 2 1021 0
	movl	8(%ebp), %ecx
	movl	12(%ebp), %ebx
	movl	16(%ebp), %edx
	.loc 2 1023 0
	testl	%ecx, %ecx
	je	.L207
	testl	%edx, %edx
	je	.L207
	.loc 2 1025 0
	cmpl	$1, %ebx
	.loc 2 1026 0
	movl	$5, %eax
	.loc 2 1025 0
	ja	.L206
	.loc 2 1029 0
	movl	8(%ecx,%ebx,4), %eax
	movl	%eax, (%edx)
	.loc 2 1031 0
	xorl	%eax, %eax
	jmp	.L206
.L207:
	.loc 2 1023 0
	movl	$6, %eax
.L206:
	.loc 2 1032 0
	popl	%ebx
	.cfi_restore 3
	popl	%ebp
	.cfi_restore 5
	.cfi_def_cfa 4, 4
	ret
	.cfi_endproc
.LFE35:
	.size	krhino_task_info_get, .-krhino_task_info_get
	.section	.text.unlikely.krhino_task_info_get
.LCOLDE24:
	.section	.text.krhino_task_info_get
.LHOTE24:
	.section	.text.unlikely.krhino_task_deathbed,"ax",@progbits
.LCOLDB25:
	.section	.text.krhino_task_deathbed,"ax",@progbits
.LHOTB25:
	.globl	krhino_task_deathbed
	.type	krhino_task_deathbed, @function
krhino_task_deathbed:
.LFB36:
	.loc 2 1036 0
	.cfi_startproc
	pushl	%ebp
	.cfi_def_cfa_offset 8
	.cfi_offset 5, -8
	movl	%esp, %ebp
	.cfi_def_cfa_register 5
	subl	$8, %esp
	.loc 2 1040 0
	call	krhino_cur_task_get
.LVL287:
	.loc 2 1042 0
	cmpb	$2, 121(%eax)
	jne	.L211
	.loc 2 1045 0
	subl	$12, %esp
	pushl	$0
	call	krhino_task_dyn_del
.LVL288:
	jmp	.L214
.LVL289:
.L211:
	.loc 2 1048 0
	subl	$12, %esp
	pushl	$0
	call	krhino_task_del
.LVL290:
.L214:
	addl	$16, %esp
	.loc 2 1056 0
	leave
	.cfi_restore 5
	.cfi_def_cfa 4, 4
	ret
	.cfi_endproc
.LFE36:
	.size	krhino_task_deathbed, .-krhino_task_deathbed
	.section	.text.unlikely.krhino_task_deathbed
.LCOLDE25:
	.section	.text.krhino_task_deathbed
.LHOTE25:
	.text
.Letext0:
	.section	.text.unlikely.klist_rm
.Letext_cold0:
	.file 3 "/home/stone/Documents/Ali_IOT/build/compiler/gcc-arm-none-eabi/Linux64/lib/gcc/arm-none-eabi/5.4.1/include/stddef.h"
	.file 4 "/home/stone/Documents/Ali_IOT/build/compiler/gcc-arm-none-eabi/Linux64/arm-none-eabi/include/machine/_default_types.h"
	.file 5 "/home/stone/Documents/Ali_IOT/build/compiler/gcc-arm-none-eabi/Linux64/arm-none-eabi/include/sys/_stdint.h"
	.file 6 "././platform/arch/arm/armv5/./gcc/k_types.h"
	.file 7 "./kernel/rhino/core/include/k_err.h"
	.file 8 "./kernel/rhino/core/include/k_sys.h"
	.file 9 "./kernel/rhino/core/include/k_obj.h"
	.file 10 "./kernel/rhino/core/include/k_sched.h"
	.file 11 "./kernel/rhino/core/include/k_task.h"
	.file 12 "./kernel/rhino/core/include/k_mutex.h"
	.file 13 "./kernel/rhino/core/include/k_sem.h"
	.file 14 "./kernel/rhino/core/include/k_internal.h"
	.file 15 "././platform/arch/arm/armv5/./gcc/port.h"
	.file 16 "./kernel/rhino/core/include/k_mm.h"
	.file 17 "./kernel/rhino/core/include/k_soc.h"
	.section	.note.GNU-stack,"",@progbits
