	.file	"k_time.c"
	.text
.Ltext0:
	.section	.text.unlikely.krhino_tick_proc,"ax",@progbits
.LCOLDB0:
	.section	.text.krhino_tick_proc,"ax",@progbits
.LHOTB0:
	.section	.text.unlikely.krhino_tick_proc
.Ltext_cold0:
	.section	.text.krhino_tick_proc
	.globl	krhino_tick_proc
	.type	krhino_tick_proc, @function
krhino_tick_proc:
.LFB12:
	.file 1 "kernel/rhino/core/k_time.c"
	.loc 1 8 0
	.cfi_startproc
	pushl	%ebp
	.cfi_def_cfa_offset 8
	.cfi_offset 5, -8
	movl	%esp, %ebp
	.cfi_def_cfa_register 5
	subl	$16, %esp
	.loc 1 17 0
	pushl	$0
	pushl	$1
	call	tick_list_update
.LVL0:
	.loc 1 20 0
	addl	$16, %esp
	.loc 1 22 0
	leave
	.cfi_restore 5
	.cfi_def_cfa 4, 4
	.loc 1 20 0
	jmp	time_slice_update
.LVL1:
	.cfi_endproc
.LFE12:
	.size	krhino_tick_proc, .-krhino_tick_proc
	.section	.text.unlikely.krhino_tick_proc
.LCOLDE0:
	.section	.text.krhino_tick_proc
.LHOTE0:
	.section	.text.unlikely.krhino_sys_tick_get,"ax",@progbits
.LCOLDB1:
	.section	.text.krhino_sys_tick_get,"ax",@progbits
.LHOTB1:
	.globl	krhino_sys_tick_get
	.type	krhino_sys_tick_get, @function
krhino_sys_tick_get:
.LFB13:
	.loc 1 25 0
	.cfi_startproc
	pushl	%ebp
	.cfi_def_cfa_offset 8
	.cfi_offset 5, -8
	movl	%esp, %ebp
	.cfi_def_cfa_register 5
	subl	$24, %esp
	.loc 1 30 0
	call	cpu_intrpt_save
.LVL2:
	.loc 1 31 0
	movl	g_tick_count+4, %edx
	.loc 1 30 0
	movl	%eax, %ecx
.LVL3:
	.loc 1 32 0
	subl	$12, %esp
	.loc 1 31 0
	movl	g_tick_count, %eax
.LVL4:
	.loc 1 32 0
	pushl	%ecx
	.loc 1 31 0
	movl	%edx, -12(%ebp)
.LVL5:
	movl	%eax, -16(%ebp)
.LVL6:
	.loc 1 32 0
	call	cpu_intrpt_restore
.LVL7:
	.loc 1 35 0
	movl	-16(%ebp), %eax
	movl	-12(%ebp), %edx
	leave
	.cfi_restore 5
	.cfi_def_cfa 4, 4
	ret
	.cfi_endproc
.LFE13:
	.size	krhino_sys_tick_get, .-krhino_sys_tick_get
	.section	.text.unlikely.krhino_sys_tick_get
.LCOLDE1:
	.section	.text.krhino_sys_tick_get
.LHOTE1:
	.globl	__udivdi3
	.section	.text.unlikely.krhino_sys_time_get,"ax",@progbits
.LCOLDB2:
	.section	.text.krhino_sys_time_get,"ax",@progbits
.LHOTB2:
	.globl	krhino_sys_time_get
	.type	krhino_sys_time_get, @function
krhino_sys_time_get:
.LFB14:
	.loc 1 38 0
	.cfi_startproc
	pushl	%ebp
	.cfi_def_cfa_offset 8
	.cfi_offset 5, -8
	movl	%esp, %ebp
	.cfi_def_cfa_register 5
	pushl	%esi
	pushl	%eax
	.cfi_offset 6, -12
	.loc 1 39 0
	call	krhino_sys_tick_get
.LVL8:
	movl	%eax, %ecx
	movl	$1000, %eax
	pushl	$0
	imull	$1000, %edx, %esi
	pushl	$500
	mull	%ecx
	addl	%esi, %edx
	pushl	%edx
	pushl	%eax
	call	__udivdi3
.LVL9:
	addl	$16, %esp
	.loc 1 40 0
	movl	-4(%ebp), %esi
	leave
	.cfi_restore 5
	.cfi_restore 6
	.cfi_def_cfa 4, 4
	ret
	.cfi_endproc
.LFE14:
	.size	krhino_sys_time_get, .-krhino_sys_time_get
	.section	.text.unlikely.krhino_sys_time_get
.LCOLDE2:
	.section	.text.krhino_sys_time_get
.LHOTE2:
	.globl	__umoddi3
	.section	.text.unlikely.krhino_ms_to_ticks,"ax",@progbits
.LCOLDB3:
	.section	.text.krhino_ms_to_ticks,"ax",@progbits
.LHOTB3:
	.globl	krhino_ms_to_ticks
	.type	krhino_ms_to_ticks, @function
krhino_ms_to_ticks:
.LFB15:
	.loc 1 43 0
	.cfi_startproc
.LVL10:
	pushl	%ebp
	.cfi_def_cfa_offset 8
	.cfi_offset 5, -8
	movl	%esp, %ebp
	.cfi_def_cfa_register 5
	pushl	%edi
	pushl	%esi
	pushl	%ebx
	subl	$28, %esp
	.cfi_offset 7, -12
	.cfi_offset 6, -16
	.cfi_offset 3, -20
	.loc 1 43 0
	movl	8(%ebp), %esi
	movl	12(%ebp), %edi
.LVL11:
	.loc 1 49 0
	pushl	$0
	pushl	$1000
	pushl	%edi
	pushl	%esi
	call	__udivdi3
.LVL12:
	movl	%eax, %ebx
	movl	$500, %eax
	addl	$16, %esp
	imull	$500, %edx, %ecx
	.loc 1 55 0
	pushl	$0
	pushl	$1000
	.loc 1 49 0
	mull	%ebx
	.loc 1 55 0
	pushl	%edi
	pushl	%esi
	.loc 1 49 0
	movl	%edx, -28(%ebp)
	movl	%eax, -32(%ebp)
	addl	%ecx, -28(%ebp)
.LVL13:
	.loc 1 55 0
	call	__umoddi3
.LVL14:
	incl	%eax
	addl	$16, %esp
	sarl	%eax
	cltd
	addl	-32(%ebp), %eax
	adcl	-28(%ebp), %edx
	.loc 1 56 0
	leal	-12(%ebp), %esp
	popl	%ebx
	.cfi_restore 3
	popl	%esi
	.cfi_restore 6
.LVL15:
	popl	%edi
	.cfi_restore 7
	popl	%ebp
	.cfi_restore 5
	.cfi_def_cfa 4, 4
	ret
	.cfi_endproc
.LFE15:
	.size	krhino_ms_to_ticks, .-krhino_ms_to_ticks
	.section	.text.unlikely.krhino_ms_to_ticks
.LCOLDE3:
	.section	.text.krhino_ms_to_ticks
.LHOTE3:
	.section	.text.unlikely.krhino_ticks_to_ms,"ax",@progbits
.LCOLDB4:
	.section	.text.krhino_ticks_to_ms,"ax",@progbits
.LHOTB4:
	.globl	krhino_ticks_to_ms
	.type	krhino_ticks_to_ms, @function
krhino_ticks_to_ms:
.LFB16:
	.loc 1 59 0
	.cfi_startproc
.LVL16:
	pushl	%ebp
	.cfi_def_cfa_offset 8
	.cfi_offset 5, -8
	movl	%esp, %ebp
	.cfi_def_cfa_register 5
	pushl	%edi
	pushl	%esi
	pushl	%ebx
	subl	$28, %esp
	.cfi_offset 7, -12
	.cfi_offset 6, -16
	.cfi_offset 3, -20
	.loc 1 59 0
	movl	8(%ebp), %esi
	movl	12(%ebp), %edi
.LVL17:
	.loc 1 65 0
	pushl	$0
	pushl	$500
	pushl	%edi
	pushl	%esi
	call	__udivdi3
.LVL18:
	movl	%eax, %ebx
	movl	$1000, %eax
	addl	$16, %esp
	imull	$1000, %edx, %ecx
	.loc 1 71 0
	pushl	$0
	pushl	$500
	.loc 1 65 0
	mull	%ebx
	.loc 1 71 0
	pushl	%edi
	pushl	%esi
	.loc 1 65 0
	movl	%edx, -28(%ebp)
	movl	%eax, -32(%ebp)
	addl	%ecx, -28(%ebp)
.LVL19:
	.loc 1 71 0
	call	__umoddi3
.LVL20:
	imull	$1000, %eax, %eax
	xorl	%edx, %edx
	movl	$500, %ecx
	addl	$16, %esp
	divl	%ecx
	xorl	%edx, %edx
	addl	-32(%ebp), %eax
	adcl	-28(%ebp), %edx
	.loc 1 72 0
	leal	-12(%ebp), %esp
	popl	%ebx
	.cfi_restore 3
	popl	%esi
	.cfi_restore 6
.LVL21:
	popl	%edi
	.cfi_restore 7
	popl	%ebp
	.cfi_restore 5
	.cfi_def_cfa 4, 4
	ret
	.cfi_endproc
.LFE16:
	.size	krhino_ticks_to_ms, .-krhino_ticks_to_ms
	.section	.text.unlikely.krhino_ticks_to_ms
.LCOLDE4:
	.section	.text.krhino_ticks_to_ms
.LHOTE4:
	.text
.Letext0:
	.section	.text.unlikely.krhino_tick_proc
.Letext_cold0:
	.file 2 "/home/stone/Documents/Ali_IOT/build/compiler/gcc-arm-none-eabi/Linux64/lib/gcc/arm-none-eabi/5.4.1/include/stddef.h"
	.file 3 "/home/stone/Documents/Ali_IOT/build/compiler/gcc-arm-none-eabi/Linux64/arm-none-eabi/include/machine/_default_types.h"
	.file 4 "/home/stone/Documents/Ali_IOT/build/compiler/gcc-arm-none-eabi/Linux64/arm-none-eabi/include/sys/_stdint.h"
	.file 5 "./kernel/rhino/core/include/k_sys.h"
	.file 6 "./kernel/rhino/core/include/k_internal.h"
	.file 7 "././platform/arch/arm/armv5/./gcc/port.h"
	.section	.note.GNU-stack,"",@progbits
