	.file	"k_tick.c"
	.text
.Ltext0:
	.section	.text.unlikely.tick_list_init,"ax",@progbits
.LCOLDB0:
	.section	.text.tick_list_init,"ax",@progbits
.LHOTB0:
	.section	.text.unlikely.tick_list_init
.Ltext_cold0:
	.section	.text.tick_list_init
	.globl	tick_list_init
	.type	tick_list_init, @function
tick_list_init:
.LFB12:
	.file 1 "kernel/rhino/core/k_tick.c"
	.loc 1 8 0
	.cfi_startproc
.LVL0:
	pushl	%ebp
	.cfi_def_cfa_offset 8
	.cfi_offset 5, -8
.LBB4:
.LBB5:
	.file 2 "./kernel/rhino/core/include/k_list.h"
	.loc 2 17 0
	movl	$g_tick_head, g_tick_head
	.loc 2 18 0
	movl	$g_tick_head, g_tick_head+4
.LVL1:
.LBE5:
.LBE4:
	.loc 1 8 0
	movl	%esp, %ebp
	.cfi_def_cfa_register 5
	.loc 1 10 0
	popl	%ebp
	.cfi_restore 5
	.cfi_def_cfa 4, 4
	ret
	.cfi_endproc
.LFE12:
	.size	tick_list_init, .-tick_list_init
	.section	.text.unlikely.tick_list_init
.LCOLDE0:
	.section	.text.tick_list_init
.LHOTE0:
	.section	.text.unlikely.tick_list_insert,"ax",@progbits
.LCOLDB1:
	.section	.text.tick_list_insert,"ax",@progbits
.LHOTB1:
	.globl	tick_list_insert
	.type	tick_list_insert, @function
tick_list_insert:
.LFB14:
	.loc 1 34 0
	.cfi_startproc
.LVL2:
	pushl	%ebp
	.cfi_def_cfa_offset 8
	.cfi_offset 5, -8
	movl	%esp, %ebp
	.cfi_def_cfa_register 5
	pushl	%edi
	pushl	%esi
	pushl	%ebx
	subl	$12, %esp
	.cfi_offset 7, -12
	.cfi_offset 6, -16
	.cfi_offset 3, -20
	.loc 1 34 0
	movl	12(%ebp), %eax
	movl	16(%ebp), %edx
	movl	%eax, -24(%ebp)
	movl	%edx, -20(%ebp)
	.loc 1 37 0
	movl	-20(%ebp), %eax
	orl	-24(%ebp), %eax
	je	.L3
	.loc 1 38 0
	movl	g_tick_count, %esi
	movl	-24(%ebp), %ecx
	movl	8(%ebp), %eax
	movl	g_tick_count+4, %edi
	movl	-20(%ebp), %ebx
	.loc 1 39 0
	movl	-24(%ebp), %edx
	.loc 1 38 0
	addl	%esi, %ecx
	movl	%ecx, 56(%eax)
	.loc 1 39 0
	movl	-20(%ebp), %ecx
	.loc 1 38 0
	adcl	%edi, %ebx
	.loc 1 39 0
	movl	%edx, 64(%eax)
	.loc 1 38 0
	movl	%ebx, 60(%eax)
	.loc 1 39 0
	movl	%ecx, 68(%eax)
.LVL3:
.LBB10:
.LBB11:
	.loc 1 23 0
	movl	g_tick_head, %ecx
.LVL4:
.L5:
	cmpl	$g_tick_head, %ecx
	je	.L6
.LVL5:
	.loc 1 25 0
	movl	8(%ecx), %eax
	movl	12(%ecx), %edx
	subl	%esi, %eax
	sbbl	%edi, %edx
	cmpl	%edx, -20(%ebp)
	jb	.L6
	ja	.L9
	cmpl	%eax, -24(%ebp)
	jb	.L6
.L9:
	.loc 1 23 0
	movl	(%ecx), %ecx
.LVL6:
	jmp	.L5
.L6:
.LBB12:
.LBB13:
	.loc 2 28 0
	movl	4(%ecx), %edx
	movl	8(%ebp), %edi
.LBE13:
.LBE12:
	.loc 1 30 0
	movl	8(%ebp), %eax
.LBB16:
.LBB14:
	.loc 2 28 0
	movl	%edx, 52(%edi)
	.loc 2 31 0
	movl	4(%ecx), %edx
.LBE14:
.LBE16:
	.loc 1 30 0
	addl	$48, %eax
.LVL7:
.LBB17:
.LBB15:
	.loc 2 29 0
	movl	%ecx, 48(%edi)
	.loc 2 31 0
	movl	%eax, (%edx)
	.loc 2 32 0
	movl	%eax, 4(%ecx)
.LVL8:
.LBE15:
.LBE17:
.LBE11:
.LBE10:
	.loc 1 43 0
	movl	$g_tick_head, 72(%edi)
.LVL9:
.L3:
	.loc 1 45 0
	addl	$12, %esp
	popl	%ebx
	.cfi_restore 3
	popl	%esi
	.cfi_restore 6
	popl	%edi
	.cfi_restore 7
	popl	%ebp
	.cfi_restore 5
	.cfi_def_cfa 4, 4
	ret
	.cfi_endproc
.LFE14:
	.size	tick_list_insert, .-tick_list_insert
	.section	.text.unlikely.tick_list_insert
.LCOLDE1:
	.section	.text.tick_list_insert
.LHOTE1:
	.section	.text.unlikely.tick_list_rm,"ax",@progbits
.LCOLDB2:
	.section	.text.tick_list_rm,"ax",@progbits
.LHOTB2:
	.globl	tick_list_rm
	.type	tick_list_rm, @function
tick_list_rm:
.LFB15:
	.loc 1 48 0
	.cfi_startproc
.LVL10:
	pushl	%ebp
	.cfi_def_cfa_offset 8
	.cfi_offset 5, -8
	movl	%esp, %ebp
	.cfi_def_cfa_register 5
	.loc 1 48 0
	movl	8(%ebp), %eax
.LVL11:
	.loc 1 51 0
	cmpl	$0, 72(%eax)
	je	.L15
.LVL12:
.LBB20:
.LBB21:
	.loc 2 46 0
	movl	48(%eax), %ecx
	movl	52(%eax), %edx
	movl	%ecx, (%edx)
.LVL13:
	.loc 2 47 0
	movl	48(%eax), %ecx
	movl	%edx, 4(%ecx)
.LVL14:
.LBE21:
.LBE20:
	.loc 1 53 0
	movl	$0, 72(%eax)
.L15:
	.loc 1 55 0
	popl	%ebp
	.cfi_restore 5
	.cfi_def_cfa 4, 4
	ret
	.cfi_endproc
.LFE15:
	.size	tick_list_rm, .-tick_list_rm
	.section	.text.unlikely.tick_list_rm
.LCOLDE2:
	.section	.text.tick_list_rm
.LHOTE2:
	.section	.text.unlikely.tick_list_update,"ax",@progbits
.LCOLDB3:
	.section	.text.tick_list_update,"ax",@progbits
.LHOTB3:
	.globl	tick_list_update
	.type	tick_list_update, @function
tick_list_update:
.LFB16:
	.loc 1 58 0
	.cfi_startproc
.LVL15:
	pushl	%ebp
	.cfi_def_cfa_offset 8
	.cfi_offset 5, -8
	movl	%esp, %ebp
	.cfi_def_cfa_register 5
	pushl	%edi
	pushl	%esi
	pushl	%ebx
	subl	$28, %esp
	.cfi_offset 7, -12
	.cfi_offset 6, -16
	.cfi_offset 3, -20
	.loc 1 58 0
	movl	12(%ebp), %edi
	movl	8(%ebp), %esi
	.loc 1 67 0
	call	cpu_intrpt_save
.LVL16:
	.loc 1 69 0
	addl	%esi, g_tick_count
	.loc 1 67 0
	movl	%eax, %ebx
.LVL17:
	.loc 1 69 0
	adcl	%edi, g_tick_count+4
.LVL18:
	.loc 1 72 0
	movl	g_tick_head, %edi
.LVL19:
.L19:
	.loc 1 76 0
	cmpl	$g_tick_head, %edi
	je	.L20
	.loc 1 78 0
	leal	-48(%edi), %esi
	.loc 1 77 0
	movl	(%edi), %eax
	.loc 1 81 0
	movl	12(%edi), %edx
	.loc 1 77 0
	movl	%eax, -28(%ebp)
.LVL20:
	.loc 1 81 0
	movl	8(%edi), %eax
.LVL21:
	subl	g_tick_count, %eax
	sbbl	g_tick_count+4, %edx
	cmpl	$0, %edx
	jg	.L20
	jl	.L29
	cmpl	$0, %eax
	ja	.L20
.L29:
	.loc 1 82 0
	movl	36(%edi), %eax
	cmpl	$4, %eax
	je	.L23
	ja	.L24
	cmpl	$2, %eax
	jne	.L22
	.loc 1 90 0
	subl	$12, %esp
	pushl	%esi
.LVL22:
	call	tick_list_rm
.LVL23:
.LBB26:
.LBB27:
	.loc 2 46 0
	movl	-20(%edi), %eax
	movl	-24(%edi), %edx
	movl	%edx, (%eax)
	.loc 2 47 0
	movl	-24(%edi), %edx
	movl	%eax, 4(%edx)
.LVL24:
.LBE27:
.LBE26:
	.loc 1 93 0
	popl	%eax
	popl	%edx
	pushl	%esi
	pushl	$g_ready_queue
	call	ready_list_add
.LVL25:
	.loc 1 94 0
	movl	$2, 40(%edi)
	.loc 1 95 0
	movl	$1, 36(%edi)
	jmp	.L35
.LVL26:
.L24:
	.loc 1 82 0
	cmpl	$5, %eax
	je	.L26
	cmpl	$6, %eax
	jne	.L22
	.loc 1 111 0
	subl	$12, %esp
	.loc 1 109 0
	movl	$3, 36(%edi)
	.loc 1 110 0
	movl	$0, 40(%edi)
	.loc 1 111 0
	pushl	%esi
.LVL27:
	call	tick_list_rm
.LVL28:
	jmp	.L34
.LVL29:
.L26:
	.loc 1 86 0
	subl	$12, %esp
	.loc 1 84 0
	movl	$0, 40(%edi)
	.loc 1 85 0
	movl	$1, 36(%edi)
	.loc 1 86 0
	pushl	%esi
.LVL30:
	call	tick_list_rm
.LVL31:
	.loc 1 87 0
	popl	%ecx
	popl	%edi
.LVL32:
	pushl	%esi
	pushl	$g_ready_queue
	call	ready_list_add
.LVL33:
	jmp	.L34
.LVL34:
.L23:
	.loc 1 100 0
	subl	$12, %esp
	pushl	%esi
.LVL35:
	call	tick_list_rm
.LVL36:
.LBB28:
.LBB29:
	.loc 2 46 0
	movl	-24(%edi), %edx
	movl	-20(%edi), %eax
	movl	%edx, (%eax)
	.loc 2 47 0
	movl	-24(%edi), %edx
	movl	%eax, 4(%edx)
.LVL37:
.LBE29:
.LBE28:
	.loc 1 103 0
	movl	$2, 40(%edi)
	.loc 1 104 0
	movl	$3, 36(%edi)
.L35:
	.loc 1 105 0
	movl	%esi, (%esp)
.LVL38:
	call	mutex_task_pri_reset
.LVL39:
	.loc 1 106 0
	movl	$0, 44(%edi)
	jmp	.L34
.LVL40:
.L22:
	.loc 1 114 0
	subl	$12, %esp
	pushl	$1
.LVL41:
	call	k_err_proc
.LVL42:
.L34:
	.loc 1 112 0
	addl	$16, %esp
	.loc 1 58 0
	movl	-28(%ebp), %edi
	jmp	.L19
.LVL43:
.L20:
	.loc 1 127 0
	movl	%ebx, 8(%ebp)
	.loc 1 128 0
	leal	-12(%ebp), %esp
	popl	%ebx
	.cfi_restore 3
.LVL44:
	popl	%esi
	.cfi_restore 6
	popl	%edi
	.cfi_restore 7
.LVL45:
	popl	%ebp
	.cfi_restore 5
	.cfi_def_cfa 4, 4
	.loc 1 127 0
	jmp	cpu_intrpt_restore
.LVL46:
	.cfi_endproc
.LFE16:
	.size	tick_list_update, .-tick_list_update
	.section	.text.unlikely.tick_list_update
.LCOLDE3:
	.section	.text.tick_list_update
.LHOTE3:
	.text
.Letext0:
	.section	.text.unlikely.tick_list_init
.Letext_cold0:
	.file 3 "/home/stone/Documents/Ali_IOT/build/compiler/gcc-arm-none-eabi/Linux64/lib/gcc/arm-none-eabi/5.4.1/include/stddef.h"
	.file 4 "/home/stone/Documents/Ali_IOT/build/compiler/gcc-arm-none-eabi/Linux64/arm-none-eabi/include/machine/_default_types.h"
	.file 5 "/home/stone/Documents/Ali_IOT/build/compiler/gcc-arm-none-eabi/Linux64/arm-none-eabi/include/sys/_stdint.h"
	.file 6 "././platform/arch/arm/armv5/./gcc/k_types.h"
	.file 7 "./kernel/rhino/core/include/k_sys.h"
	.file 8 "./kernel/rhino/core/include/k_err.h"
	.file 9 "./kernel/rhino/core/include/k_obj.h"
	.file 10 "./kernel/rhino/core/include/k_sched.h"
	.file 11 "./kernel/rhino/core/include/k_task.h"
	.file 12 "./kernel/rhino/core/include/k_mutex.h"
	.file 13 "./kernel/rhino/core/include/k_sem.h"
	.file 14 "./kernel/rhino/core/include/k_internal.h"
	.file 15 "././platform/arch/arm/armv5/./gcc/port.h"
	.section	.note.GNU-stack,"",@progbits
