	.file	"k_timer.c"
	.text
.Ltext0:
	.section	.text.unlikely.timer_list_pri_insert.constprop.3,"ax",@progbits
.LCOLDB0:
	.section	.text.timer_list_pri_insert.constprop.3,"ax",@progbits
.LHOTB0:
	.section	.text.unlikely.timer_list_pri_insert.constprop.3
.Ltext_cold0:
	.section	.text.timer_list_pri_insert.constprop.3
	.type	timer_list_pri_insert.constprop.3, @function
timer_list_pri_insert.constprop.3:
.LFB33:
	.file 1 "kernel/rhino/core/k_timer.c"
	.loc 1 8 0
	.cfi_startproc
.LVL0:
	pushl	%ebp
	.cfi_def_cfa_offset 8
	.cfi_offset 5, -8
	movl	%esp, %ebp
	.cfi_def_cfa_register 5
	pushl	%edi
	pushl	%esi
	pushl	%ebx
	subl	$12, %esp
	.cfi_offset 7, -12
	.cfi_offset 6, -16
	.cfi_offset 3, -20
	.loc 1 17 0
	movl	36(%eax), %ebx
	movl	32(%eax), %edi
	.loc 1 19 0
	movl	g_timer_head, %edx
	.loc 1 21 0
	movl	g_timer_count, %ecx
	.loc 1 17 0
	movl	%ebx, -24(%ebp)
.LVL1:
	.loc 1 21 0
	movl	g_timer_count+4, %ebx
.LVL2:
	.loc 1 17 0
	movl	%edi, -20(%ebp)
.LVL3:
.L2:
	.loc 1 19 0
	cmpl	$g_timer_head, %edx
	je	.L3
.LVL4:
	.loc 1 21 0
	movl	24(%edx), %esi
	movl	28(%edx), %edi
	subl	%ecx, %esi
	sbbl	%ebx, %edi
	cmpl	%edi, -24(%ebp)
	jb	.L3
	ja	.L6
	cmpl	%esi, -20(%ebp)
	jb	.L3
.L6:
	.loc 1 19 0
	movl	(%edx), %edx
.LVL5:
	jmp	.L2
.L3:
.LVL6:
.LBB12:
.LBB13:
	.file 2 "./kernel/rhino/core/include/k_list.h"
	.loc 2 28 0
	movl	4(%edx), %ecx
	.loc 2 29 0
	movl	%edx, (%eax)
	.loc 2 28 0
	movl	%ecx, 4(%eax)
	.loc 2 31 0
	movl	4(%edx), %ecx
	movl	%eax, (%ecx)
	.loc 2 32 0
	movl	%eax, 4(%edx)
.LVL7:
.LBE13:
.LBE12:
	.loc 1 27 0
	addl	$12, %esp
	popl	%ebx
	.cfi_restore 3
	popl	%esi
	.cfi_restore 6
	popl	%edi
	.cfi_restore 7
	popl	%ebp
	.cfi_restore 5
	.cfi_def_cfa 4, 4
	ret
	.cfi_endproc
.LFE33:
	.size	timer_list_pri_insert.constprop.3, .-timer_list_pri_insert.constprop.3
	.section	.text.unlikely.timer_list_pri_insert.constprop.3
.LCOLDE0:
	.section	.text.timer_list_pri_insert.constprop.3
.LHOTE0:
	.section	.text.unlikely.cmd_proc,"ax",@progbits
.LCOLDB1:
	.section	.text.cmd_proc,"ax",@progbits
.LHOTB1:
	.type	cmd_proc, @function
cmd_proc:
.LFB25:
	.loc 1 263 0
	.cfi_startproc
.LVL8:
	pushl	%ebp
	.cfi_def_cfa_offset 8
	.cfi_offset 5, -8
	.loc 1 267 0
	decl	%edx
.LVL9:
	cmpb	$6, %dl
	.loc 1 263 0
	movl	%esp, %ebp
	.cfi_def_cfa_register 5
	pushl	%esi
	pushl	%ebx
	.cfi_offset 6, -12
	.cfi_offset 3, -16
	.loc 1 265 0
	movl	(%eax), %esi
.LVL10:
	.loc 1 267 0
	ja	.L10
	movzbl	%dl, %edx
	jmp	*.L12(,%edx,4)
	.section	.rodata.cmd_proc,"a",@progbits
	.align 4
	.align 4
.L12:
	.long	.L11
	.long	.L13
	.long	.L14
	.long	.L15
	.long	.L10
	.long	.L16
	.long	.L17
	.section	.text.cmd_proc
.L11:
	.loc 1 269 0
	cmpl	$5, 60(%esi)
	jne	.L9
	.loc 1 273 0
	cmpb	$1, 64(%esi)
	je	.L9
	.loc 1 277 0
	movl	40(%esi), %eax
.LVL11:
	movl	44(%esi), %edx
	movl	%eax, %ecx
	addl	g_timer_count, %ecx
	movl	%edx, %ebx
	adcl	g_timer_count+4, %ebx
	.loc 1 279 0
	movl	%eax, 32(%esi)
	.loc 1 282 0
	movl	%esi, %eax
	.loc 1 279 0
	movl	%edx, 36(%esi)
	.loc 1 281 0
	movl	$g_timer_head, 8(%esi)
	.loc 1 277 0
	movl	%ecx, 24(%esi)
	movl	%ebx, 28(%esi)
	.loc 1 282 0
	call	timer_list_pri_insert.constprop.3
.LVL12:
	.loc 1 283 0
	movb	$1, 64(%esi)
	.loc 1 284 0
	jmp	.L9
.LVL13:
.L13:
	.loc 1 286 0
	cmpl	$5, 60(%esi)
	jne	.L9
	.loc 1 290 0
	cmpb	$0, 64(%esi)
	je	.L9
.LVL14:
.LBB18:
.LBB19:
	.loc 1 34 0
	cmpl	$0, 8(%esi)
	je	.L19
.LVL15:
.LBB20:
.LBB21:
	.loc 2 46 0
	movl	(%esi), %edx
	movl	4(%esi), %eax
.LVL16:
	movl	%edx, (%eax)
.LVL17:
	.loc 2 47 0
	movl	(%esi), %edx
	movl	%eax, 4(%edx)
.LVL18:
.LBE21:
.LBE20:
	.loc 1 36 0
	movl	$0, 8(%esi)
.L19:
.LVL19:
.LBE19:
.LBE18:
	.loc 1 294 0
	movb	$0, 64(%esi)
	.loc 1 295 0
	jmp	.L9
.LVL20:
.L14:
	.loc 1 297 0
	movl	12(%eax), %edx
	movl	8(%eax), %ecx
	movl	%edx, %ebx
	orl	%ecx, %ebx
	je	.L9
	.loc 1 301 0
	cmpl	$5, 60(%esi)
	jne	.L9
	.loc 1 305 0
	cmpb	$0, 64(%esi)
	jne	.L9
	.loc 1 309 0
	movl	%ecx, 40(%esi)
	movl	%edx, 44(%esi)
	.loc 1 310 0
	movl	20(%eax), %edx
	movl	16(%eax), %eax
.LVL21:
	movl	%edx, 52(%esi)
	movl	%eax, 48(%esi)
	.loc 1 311 0
	jmp	.L9
.LVL22:
.L15:
	.loc 1 313 0
	cmpl	$5, 60(%esi)
	jne	.L9
	.loc 1 317 0
	cmpb	$0, 64(%esi)
	jne	.L9
	.loc 1 321 0
	movl	16(%eax), %eax
.LVL23:
	movl	%eax, 20(%esi)
	.loc 1 322 0
	jmp	.L9
.LVL24:
.L16:
	.loc 1 324 0
	cmpl	$5, 60(%esi)
	jne	.L9
	.loc 1 328 0
	cmpb	$0, 64(%esi)
	jne	.L9
	.loc 1 332 0
	cmpb	$1, 65(%esi)
	jne	.L9
	.loc 1 336 0
	movl	$0, 60(%esi)
	.loc 1 338 0
	jmp	.L9
.L17:
	.loc 1 341 0
	cmpl	$5, 60(%esi)
	jne	.L9
	.loc 1 345 0
	cmpb	$0, 64(%esi)
	jne	.L9
	.loc 1 349 0
	cmpb	$2, 65(%esi)
	jne	.L9
	.loc 1 355 0
	subl	$12, %esp
	.loc 1 353 0
	movl	$0, 60(%esi)
	.loc 1 355 0
	pushl	%esi
	call	krhino_mm_free
.LVL25:
	jmp	.L24
.LVL26:
.L10:
	.loc 1 359 0
	subl	$12, %esp
	pushl	$1
	call	k_err_proc
.LVL27:
.L24:
	.loc 1 360 0
	addl	$16, %esp
.L9:
	.loc 1 363 0
	leal	-8(%ebp), %esp
	popl	%ebx
	.cfi_restore 3
	popl	%esi
	.cfi_restore 6
.LVL28:
	popl	%ebp
	.cfi_restore 5
	.cfi_def_cfa 4, 4
	ret
	.cfi_endproc
.LFE25:
	.size	cmd_proc, .-cmd_proc
	.section	.text.unlikely.cmd_proc
.LCOLDE1:
	.section	.text.cmd_proc
.LHOTE1:
	.section	.text.unlikely.timer_cmd_proc,"ax",@progbits
.LCOLDB2:
	.section	.text.timer_cmd_proc,"ax",@progbits
.LHOTB2:
	.type	timer_cmd_proc, @function
timer_cmd_proc:
.LFB26:
	.loc 1 366 0
	.cfi_startproc
.LVL29:
	.loc 1 367 0
	movzbl	4(%eax), %edx
	cmpb	$5, %dl
	jne	.L26
	.loc 1 366 0
	pushl	%ebp
	.cfi_def_cfa_offset 8
	.cfi_offset 5, -8
	movl	%esp, %ebp
	.cfi_def_cfa_register 5
	pushl	%ebx
	pushl	%edx
	.cfi_offset 3, -12
	movl	%eax, %ebx
.LVL30:
.LBB24:
.LBB25:
	.loc 1 368 0
	movl	$2, %edx
	call	cmd_proc
.LVL31:
	.loc 1 369 0
	movl	%ebx, %eax
	movl	$4, %edx
	call	cmd_proc
.LVL32:
.LBE25:
.LBE24:
	.loc 1 375 0
	popl	%ecx
.LBB27:
.LBB26:
	.loc 1 370 0
	movl	%ebx, %eax
	movl	$1, %edx
.LBE26:
.LBE27:
	.loc 1 375 0
	popl	%ebx
	.cfi_restore 3
.LVL33:
	popl	%ebp
	.cfi_restore 5
	.cfi_def_cfa 4, 4
.LVL34:
.L26:
	.loc 1 373 0
	jmp	cmd_proc
.LVL35:
	.cfi_endproc
.LFE26:
	.size	timer_cmd_proc, .-timer_cmd_proc
	.section	.text.unlikely.timer_cmd_proc
.LCOLDE2:
	.section	.text.timer_cmd_proc
.LHOTE2:
	.section	.text.unlikely.timer_task,"ax",@progbits
.LCOLDB3:
	.section	.text.timer_task,"ax",@progbits
.LHOTB3:
	.type	timer_task, @function
timer_task:
.LFB27:
	.loc 1 378 0
	.cfi_startproc
.LVL36:
	pushl	%ebp
	.cfi_def_cfa_offset 8
	.cfi_offset 5, -8
	movl	%esp, %ebp
	.cfi_def_cfa_register 5
	pushl	%edi
	pushl	%esi
	pushl	%ebx
	.cfi_offset 7, -12
	.cfi_offset 6, -16
	.cfi_offset 3, -20
	.loc 1 389 0
	leal	-56(%ebp), %edi
	leal	-52(%ebp), %esi
	.loc 1 378 0
	subl	$44, %esp
	.loc 1 378 0
	movl	%gs:20, %eax
	movl	%eax, -28(%ebp)
	xorl	%eax, %eax
.L44:
	.loc 1 389 0
	subl	$12, %esp
	pushl	%edi
	pushl	%esi
	pushl	$-1
	pushl	$-1
	pushl	$g_timer_queue
	call	krhino_buf_queue_recv
.LVL37:
	.loc 1 390 0
	addl	$32, %esp
	.loc 1 389 0
	movl	%eax, %ebx
.LVL38:
	.loc 1 390 0
	call	krhino_sys_tick_get
.LVL39:
	.loc 1 392 0
	testl	%ebx, %ebx
	jne	.L29
	.loc 1 393 0
	movl	%eax, g_timer_count
	movl	%edx, g_timer_count+4
	jmp	.L30
.L29:
	.loc 1 396 0
	subl	$12, %esp
	pushl	$1
	call	k_err_proc
.LVL40:
	addl	$16, %esp
.L30:
	.loc 1 399 0
	movl	%esi, %eax
	call	timer_cmd_proc
.LVL41:
.L48:
.LBB36:
.LBB37:
	.loc 2 23 0
	movl	g_timer_head, %ebx
.LVL42:
.LBE37:
.LBE36:
	.loc 1 401 0
	cmpl	$g_timer_head, %ebx
	je	.L44
.LVL43:
	.loc 1 403 0
	call	krhino_sys_tick_get
.LVL44:
	.loc 1 404 0
	movl	24(%ebx), %ecx
	movl	28(%ebx), %ebx
.LVL45:
	subl	%eax, %ecx
	sbbl	%edx, %ebx
.LVL46:
	.loc 1 405 0
	cmpl	$0, %ebx
	jl	.L32
	jg	.L46
	cmpl	$0, %ecx
	jbe	.L32
.L46:
	.loc 1 406 0
	subl	$12, %esp
	pushl	%edi
	pushl	%esi
	pushl	%ebx
	pushl	%ecx
	pushl	$g_timer_queue
	call	krhino_buf_queue_recv
.LVL47:
	.loc 1 407 0
	addl	$32, %esp
	.loc 1 406 0
	movl	%eax, %ebx
.LVL48:
	.loc 1 407 0
	call	krhino_sys_tick_get
.LVL49:
	.loc 1 408 0
	cmpl	$402, %ebx
	je	.L32
	.loc 1 411 0
	testl	%ebx, %ebx
	jne	.L36
	.loc 1 412 0
	movl	%eax, g_timer_count
	.loc 1 413 0
	movl	%esi, %eax
.LVL50:
	.loc 1 412 0
	movl	%edx, g_timer_count+4
	.loc 1 413 0
	call	timer_cmd_proc
.LVL51:
	jmp	.L35
.LVL52:
.L36:
	.loc 1 416 0
	subl	$12, %esp
	pushl	$1
	call	k_err_proc
.LVL53:
	addl	$16, %esp
	jmp	.L35
.LVL54:
.L32:
	.loc 1 420 0
	movl	%eax, g_timer_count
	movl	%edx, g_timer_count+4
.L35:
.LVL55:
.LBB38:
.LBB39:
	.loc 1 239 0
	movl	g_timer_head, %ebx
.LVL56:
.L37:
	cmpl	$g_timer_head, %ebx
	je	.L48
.LVL57:
	.loc 1 243 0
	movl	24(%ebx), %eax
	subl	g_timer_count, %eax
	movl	28(%ebx), %edx
	sbbl	g_timer_count+4, %edx
	cmpl	$0, %edx
	jg	.L48
	jl	.L47
	cmpl	$0, %eax
	ja	.L48
.L47:
	.loc 1 244 0
	pushl	%eax
.LVL58:
	pushl	%eax
	pushl	20(%ebx)
	pushl	%ebx
	call	*16(%ebx)
.LVL59:
.LBB40:
.LBB41:
	.loc 1 34 0
	addl	$16, %esp
	cmpl	$0, 8(%ebx)
	je	.L39
.LVL60:
.LBB42:
.LBB43:
	.loc 2 46 0
	movl	(%ebx), %edx
	movl	4(%ebx), %eax
	movl	%edx, (%eax)
.LVL61:
	.loc 2 47 0
	movl	(%ebx), %edx
	movl	%eax, 4(%edx)
.LVL62:
.LBE43:
.LBE42:
	.loc 1 36 0
	movl	$0, 8(%ebx)
.L39:
.LVL63:
.LBE41:
.LBE40:
	.loc 1 247 0
	movl	52(%ebx), %edx
	movl	48(%ebx), %eax
	movl	%edx, %ecx
	orl	%eax, %ecx
	je	.L40
	.loc 1 248 0
	movl	%eax, 32(%ebx)
	.loc 1 249 0
	addl	g_timer_count, %eax
	.loc 1 248 0
	movl	%edx, 36(%ebx)
	.loc 1 249 0
	adcl	g_timer_count+4, %edx
	.loc 1 250 0
	movl	$g_timer_head, 8(%ebx)
	.loc 1 249 0
	movl	%eax, 24(%ebx)
	.loc 1 251 0
	movl	%ebx, %eax
	.loc 1 249 0
	movl	%edx, 28(%ebx)
	.loc 1 251 0
	call	timer_list_pri_insert.constprop.3
.LVL64:
	jmp	.L41
.L40:
	.loc 1 253 0
	movb	$0, 64(%ebx)
.L41:
	.loc 1 239 0
	movl	(%ebx), %ebx
.LVL65:
	jmp	.L37
.LBE39:
.LBE38:
	.cfi_endproc
.LFE27:
	.size	timer_task, .-timer_task
	.section	.text.unlikely.timer_task
.LCOLDE3:
	.section	.text.timer_task
.LHOTE3:
	.section	.text.unlikely.krhino_timer_del,"ax",@progbits
.LCOLDB4:
	.section	.text.krhino_timer_del,"ax",@progbits
.LHOTB4:
	.globl	krhino_timer_del
	.type	krhino_timer_del, @function
krhino_timer_del:
.LFB16:
	.loc 1 93 0
	.cfi_startproc
.LVL66:
	pushl	%ebp
	.cfi_def_cfa_offset 8
	.cfi_offset 5, -8
	movl	%esp, %ebp
	.cfi_def_cfa_register 5
	subl	$40, %esp
	.loc 1 93 0
	movl	8(%ebp), %edx
	movl	%gs:20, %eax
	movl	%eax, -12(%ebp)
	xorl	%eax, %eax
	movl	$6, %eax
	.loc 1 97 0
	testl	%edx, %edx
	je	.L51
	.loc 1 101 0
	pushl	%eax
	leal	-36(%ebp), %eax
	pushl	$24
	.loc 1 99 0
	movl	%edx, -36(%ebp)
	.loc 1 100 0
	movb	$6, -32(%ebp)
	.loc 1 101 0
	pushl	%eax
	pushl	$g_timer_queue
	call	krhino_buf_queue_send
.LVL67:
	.loc 1 102 0
	addl	$16, %esp
.LVL68:
.L51:
	.loc 1 103 0
	movl	-12(%ebp), %ecx
	xorl	%gs:20, %ecx
	je	.L52
	call	__stack_chk_fail
.LVL69:
.L52:
	leave
	.cfi_restore 5
	.cfi_def_cfa 4, 4
	ret
	.cfi_endproc
.LFE16:
	.size	krhino_timer_del, .-krhino_timer_del
	.section	.text.unlikely.krhino_timer_del
.LCOLDE4:
	.section	.text.krhino_timer_del
.LHOTE4:
	.section	.text.unlikely.krhino_timer_dyn_del,"ax",@progbits
.LCOLDB5:
	.section	.text.krhino_timer_dyn_del,"ax",@progbits
.LHOTB5:
	.globl	krhino_timer_dyn_del
	.type	krhino_timer_dyn_del, @function
krhino_timer_dyn_del:
.LFB18:
	.loc 1 133 0
	.cfi_startproc
.LVL70:
	pushl	%ebp
	.cfi_def_cfa_offset 8
	.cfi_offset 5, -8
	movl	%esp, %ebp
	.cfi_def_cfa_register 5
	subl	$40, %esp
	.loc 1 133 0
	movl	8(%ebp), %edx
	movl	%gs:20, %eax
	movl	%eax, -12(%ebp)
	xorl	%eax, %eax
	movl	$6, %eax
	.loc 1 137 0
	testl	%edx, %edx
	je	.L58
	.loc 1 141 0
	pushl	%eax
	leal	-36(%ebp), %eax
	pushl	$24
	.loc 1 139 0
	movl	%edx, -36(%ebp)
	.loc 1 140 0
	movb	$7, -32(%ebp)
	.loc 1 141 0
	pushl	%eax
	pushl	$g_timer_queue
	call	krhino_buf_queue_send
.LVL71:
	.loc 1 143 0
	addl	$16, %esp
.LVL72:
.L58:
	.loc 1 144 0
	movl	-12(%ebp), %ecx
	xorl	%gs:20, %ecx
	je	.L59
	call	__stack_chk_fail
.LVL73:
.L59:
	leave
	.cfi_restore 5
	.cfi_def_cfa 4, 4
	ret
	.cfi_endproc
.LFE18:
	.size	krhino_timer_dyn_del, .-krhino_timer_dyn_del
	.section	.text.unlikely.krhino_timer_dyn_del
.LCOLDE5:
	.section	.text.krhino_timer_dyn_del
.LHOTE5:
	.section	.text.unlikely.krhino_timer_start,"ax",@progbits
.LCOLDB6:
	.section	.text.krhino_timer_start,"ax",@progbits
.LHOTB6:
	.globl	krhino_timer_start
	.type	krhino_timer_start, @function
krhino_timer_start:
.LFB19:
	.loc 1 148 0
	.cfi_startproc
.LVL74:
	pushl	%ebp
	.cfi_def_cfa_offset 8
	.cfi_offset 5, -8
	movl	%esp, %ebp
	.cfi_def_cfa_register 5
	subl	$40, %esp
	.loc 1 148 0
	movl	8(%ebp), %edx
	movl	%gs:20, %eax
	movl	%eax, -12(%ebp)
	xorl	%eax, %eax
	movl	$6, %eax
	.loc 1 152 0
	testl	%edx, %edx
	je	.L65
.LVL75:
.LBB46:
.LBB47:
	.loc 1 156 0
	pushl	%eax
	leal	-36(%ebp), %eax
	pushl	$24
	.loc 1 154 0
	movl	%edx, -36(%ebp)
	.loc 1 155 0
	movb	$1, -32(%ebp)
	.loc 1 156 0
	pushl	%eax
	pushl	$g_timer_queue
	call	krhino_buf_queue_send
.LVL76:
	addl	$16, %esp
.L65:
.LBE47:
.LBE46:
	.loc 1 158 0
	movl	-12(%ebp), %ecx
	xorl	%gs:20, %ecx
	je	.L66
	call	__stack_chk_fail
.LVL77:
.L66:
	leave
	.cfi_restore 5
	.cfi_def_cfa 4, 4
	ret
	.cfi_endproc
.LFE19:
	.size	krhino_timer_start, .-krhino_timer_start
	.section	.text.unlikely.krhino_timer_start
.LCOLDE6:
	.section	.text.krhino_timer_start
.LHOTE6:
	.section	.text.unlikely.krhino_timer_dyn_create,"ax",@progbits
.LCOLDB7:
	.section	.text.krhino_timer_dyn_create,"ax",@progbits
.LHOTB7:
	.globl	krhino_timer_dyn_create
	.type	krhino_timer_dyn_create, @function
krhino_timer_dyn_create:
.LFB17:
	.loc 1 109 0
	.cfi_startproc
.LVL78:
	pushl	%ebp
	.cfi_def_cfa_offset 8
	.cfi_offset 5, -8
	movl	%esp, %ebp
	.cfi_def_cfa_register 5
	pushl	%edi
	pushl	%esi
	pushl	%ebx
	subl	$28, %esp
	.cfi_offset 7, -12
	.cfi_offset 6, -16
	.cfi_offset 3, -20
	.loc 1 109 0
	movl	28(%ebp), %eax
	.loc 1 113 0
	cmpl	$0, 8(%ebp)
	.loc 1 109 0
	movl	40(%ebp), %ecx
	movl	20(%ebp), %esi
	movl	24(%ebp), %edi
	movl	%eax, -28(%ebp)
	movl	32(%ebp), %eax
	movl	%ecx, -36(%ebp)
	movl	%eax, -32(%ebp)
	.loc 1 113 0
	movl	$6, %eax
	.loc 1 113 0
	je	.L90
	.loc 1 115 0
	subl	$12, %esp
	pushl	$68
	call	krhino_mm_alloc
.LVL79:
	movl	%eax, %ebx
.LVL80:
	.loc 1 116 0
	addl	$16, %esp
	.loc 1 117 0
	movl	$105, %eax
.LVL81:
	.loc 1 116 0
	testl	%ebx, %ebx
	je	.L90
.LVL82:
.LBB54:
.LBB55:
	.loc 1 48 0
	cmpl	$0, 12(%ebp)
	je	.L82
	cmpl	$0, 16(%ebp)
	je	.L82
	.loc 1 58 0
	movl	%esi, %eax
	movl	%edi, %edx
	addl	$-1, %eax
	adcl	$-1, %edx
	cmpl	$2147483647, %edx
	ja	.L83
	movl	-36(%ebp), %ecx
	jb	.L75
	cmpl	$-3, %eax
	ja	.L83
.L75:
	cmpl	$2147483647, -32(%ebp)
	ja	.L83
	jb	.L77
	cmpl	$-2, -28(%ebp)
	ja	.L83
.L77:
.LVL83:
.LBB56:
.LBB57:
	.loc 1 62 0
	movl	12(%ebp), %eax
	.loc 1 76 0
	testb	%cl, %cl
	.loc 1 64 0
	movl	%esi, 40(%ebx)
	movl	%edi, 44(%ebx)
	.loc 1 66 0
	movl	$0, 32(%ebx)
	movl	$0, 36(%ebx)
	.loc 1 67 0
	movl	$0, 24(%ebx)
	.loc 1 62 0
	movl	%eax, 12(%ebx)
	.loc 1 63 0
	movl	16(%ebp), %eax
	.loc 1 67 0
	movl	$0, 28(%ebx)
	.loc 1 68 0
	movb	$0, 64(%ebx)
	.loc 1 69 0
	movl	$0, 8(%ebx)
	.loc 1 70 0
	movb	$2, 65(%ebx)
	.loc 1 63 0
	movl	%eax, 16(%ebx)
	.loc 1 65 0
	movl	-28(%ebp), %eax
.LBB58:
.LBB59:
	.loc 2 17 0
	movl	%ebx, (%ebx)
	.loc 2 18 0
	movl	%ebx, 4(%ebx)
.LBE59:
.LBE58:
	.loc 1 74 0
	movl	$5, 60(%ebx)
	.loc 1 65 0
	movl	%eax, 48(%ebx)
	movl	-32(%ebp), %eax
	movl	%eax, 52(%ebx)
	.loc 1 71 0
	movl	36(%ebp), %eax
	movl	%eax, 20(%ebx)
.LVL84:
	.loc 1 76 0
	je	.L78
	.loc 1 77 0
	subl	$12, %esp
	pushl	%ebx
	call	krhino_timer_start
.LVL85:
.LBE57:
.LBE56:
.LBE55:
.LBE54:
	.loc 1 122 0
	addl	$16, %esp
	testl	%eax, %eax
	je	.L78
.LVL86:
.L79:
	.loc 1 123 0
	subl	$12, %esp
	movl	%eax, -28(%ebp)
	pushl	%ebx
	call	krhino_mm_free
.LVL87:
	.loc 1 124 0
	addl	$16, %esp
	movl	-28(%ebp), %eax
	jmp	.L90
.LVL88:
.L78:
	.loc 1 127 0
	movl	8(%ebp), %eax
	movl	%ebx, (%eax)
	.loc 1 129 0
	xorl	%eax, %eax
	jmp	.L90
.LVL89:
.L82:
.LBB61:
.LBB60:
	.loc 1 48 0
	movl	$6, %eax
	jmp	.L79
.L83:
	.loc 1 59 0
	movl	$5, %eax
.LVL90:
	jmp	.L79
.LVL91:
.L90:
.LBE60:
.LBE61:
	.loc 1 130 0
	leal	-12(%ebp), %esp
	popl	%ebx
	.cfi_restore 3
	popl	%esi
	.cfi_restore 6
	popl	%edi
	.cfi_restore 7
	popl	%ebp
	.cfi_restore 5
	.cfi_def_cfa 4, 4
	ret
	.cfi_endproc
.LFE17:
	.size	krhino_timer_dyn_create, .-krhino_timer_dyn_create
	.section	.text.unlikely.krhino_timer_dyn_create
.LCOLDE7:
	.section	.text.krhino_timer_dyn_create
.LHOTE7:
	.section	.text.unlikely.krhino_timer_create,"ax",@progbits
.LCOLDB8:
	.section	.text.krhino_timer_create,"ax",@progbits
.LHOTB8:
	.globl	krhino_timer_create
	.type	krhino_timer_create, @function
krhino_timer_create:
.LFB15:
	.loc 1 87 0
	.cfi_startproc
.LVL92:
	pushl	%ebp
	.cfi_def_cfa_offset 8
	.cfi_offset 5, -8
	movl	%esp, %ebp
	.cfi_def_cfa_register 5
	pushl	%edi
	pushl	%esi
	pushl	%ebx
	subl	$44, %esp
	.cfi_offset 7, -12
	.cfi_offset 6, -16
	.cfi_offset 3, -20
	.loc 1 87 0
	movl	24(%ebp), %ebx
	movl	12(%ebp), %eax
	movl	16(%ebp), %esi
	movl	20(%ebp), %ecx
	movl	8(%ebp), %edx
.LVL93:
	movl	28(%ebp), %edi
.LVL94:
	movl	%ebx, -28(%ebp)
.LVL95:
	movl	32(%ebp), %ebx
.LBB68:
.LBB69:
	.loc 1 48 0
	testl	%eax, %eax
.LBE69:
.LBE68:
	.loc 1 87 0
	movl	%ecx, -32(%ebp)
	movl	40(%ebp), %ecx
	movl	%ebx, -36(%ebp)
.LVL96:
	movl	36(%ebp), %ebx
	movl	%ecx, -44(%ebp)
.LVL97:
	movl	%ebx, -40(%ebp)
.LVL98:
.LBB78:
.LBB76:
	.loc 1 48 0
	sete	%bl
	testl	%esi, %esi
	sete	-45(%ebp)
	orb	-45(%ebp), %bl
	jne	.L101
	testl	%edx, %edx
	je	.L101
	.loc 1 58 0
	movl	-32(%ebp), %ecx
	movl	-28(%ebp), %ebx
	addl	$-1, %ecx
	adcl	$-1, %ebx
	cmpl	$2147483647, %ebx
	ja	.L102
	jb	.L98
	cmpl	$-3, %ecx
	ja	.L102
.L98:
	cmpl	$2147483647, -36(%ebp)
	ja	.L102
	jb	.L100
	cmpl	$-2, %edi
	ja	.L102
.L100:
.LVL99:
.LBB70:
.LBB71:
	.loc 1 62 0
	movl	%eax, 12(%edx)
	.loc 1 65 0
	movl	-36(%ebp), %eax
.LVL100:
	.loc 1 63 0
	movl	%esi, 16(%edx)
	.loc 1 64 0
	movl	-32(%ebp), %ebx
	movl	-28(%ebp), %esi
.LVL101:
	.loc 1 65 0
	movl	%edi, 48(%edx)
	movl	%eax, 52(%edx)
	.loc 1 71 0
	movl	-40(%ebp), %eax
	.loc 1 64 0
	movl	%ebx, 40(%edx)
	.loc 1 66 0
	movl	$0, 32(%edx)
	.loc 1 64 0
	movl	%esi, 44(%edx)
	.loc 1 66 0
	movl	$0, 36(%edx)
	.loc 1 71 0
	movl	%eax, 20(%edx)
.LVL102:
	.loc 1 44 0
	xorl	%eax, %eax
	.loc 1 76 0
	cmpb	$0, -44(%ebp)
	.loc 1 67 0
	movl	$0, 24(%edx)
	movl	$0, 28(%edx)
	.loc 1 68 0
	movb	$0, 64(%edx)
	.loc 1 69 0
	movl	$0, 8(%edx)
	.loc 1 70 0
	movb	$1, 65(%edx)
.LBB72:
.LBB73:
	.loc 2 17 0
	movl	%edx, (%edx)
	.loc 2 18 0
	movl	%edx, 4(%edx)
.LVL103:
.LBE73:
.LBE72:
	.loc 1 74 0
	movl	$5, 60(%edx)
	.loc 1 76 0
	je	.L96
.LVL104:
	.loc 1 77 0
	movl	%edx, 8(%ebp)
.LVL105:
.LBE71:
.LBE70:
.LBE76:
.LBE78:
	.loc 1 90 0
	addl	$44, %esp
	popl	%ebx
	.cfi_remember_state
	.cfi_restore 3
	popl	%esi
	.cfi_restore 6
	popl	%edi
	.cfi_restore 7
.LVL106:
	popl	%ebp
	.cfi_restore 5
	.cfi_def_cfa 4, 4
.LBB79:
.LBB77:
.LBB75:
.LBB74:
	.loc 1 77 0
	jmp	krhino_timer_start
.LVL107:
.L101:
	.cfi_restore_state
.LBE74:
.LBE75:
	.loc 1 48 0
	movl	$6, %eax
.LVL108:
	jmp	.L96
.LVL109:
.L102:
	.loc 1 59 0
	movl	$5, %eax
.LVL110:
.L96:
.LBE77:
.LBE79:
	.loc 1 90 0
	addl	$44, %esp
	popl	%ebx
	.cfi_restore 3
	popl	%esi
	.cfi_restore 6
	popl	%edi
	.cfi_restore 7
	popl	%ebp
	.cfi_restore 5
	.cfi_def_cfa 4, 4
	ret
	.cfi_endproc
.LFE15:
	.size	krhino_timer_create, .-krhino_timer_create
	.section	.text.unlikely.krhino_timer_create
.LCOLDE8:
	.section	.text.krhino_timer_create
.LHOTE8:
	.section	.text.unlikely.krhino_timer_stop,"ax",@progbits
.LCOLDB9:
	.section	.text.krhino_timer_stop,"ax",@progbits
.LHOTB9:
	.globl	krhino_timer_stop
	.type	krhino_timer_stop, @function
krhino_timer_stop:
.LFB20:
	.loc 1 161 0
	.cfi_startproc
.LVL111:
	pushl	%ebp
	.cfi_def_cfa_offset 8
	.cfi_offset 5, -8
	movl	%esp, %ebp
	.cfi_def_cfa_register 5
	subl	$40, %esp
	.loc 1 161 0
	movl	8(%ebp), %edx
	movl	%gs:20, %eax
	movl	%eax, -12(%ebp)
	xorl	%eax, %eax
	movl	$6, %eax
	.loc 1 165 0
	testl	%edx, %edx
	je	.L112
	.loc 1 169 0
	pushl	%eax
	leal	-36(%ebp), %eax
	pushl	$24
	.loc 1 167 0
	movl	%edx, -36(%ebp)
	.loc 1 168 0
	movb	$2, -32(%ebp)
	.loc 1 169 0
	pushl	%eax
	pushl	$g_timer_queue
	call	krhino_buf_queue_send
.LVL112:
	.loc 1 170 0
	addl	$16, %esp
.LVL113:
.L112:
	.loc 1 171 0
	movl	-12(%ebp), %ecx
	xorl	%gs:20, %ecx
	je	.L113
	call	__stack_chk_fail
.LVL114:
.L113:
	leave
	.cfi_restore 5
	.cfi_def_cfa 4, 4
	ret
	.cfi_endproc
.LFE20:
	.size	krhino_timer_stop, .-krhino_timer_stop
	.section	.text.unlikely.krhino_timer_stop
.LCOLDE9:
	.section	.text.krhino_timer_stop
.LHOTE9:
	.section	.text.unlikely.krhino_timer_change,"ax",@progbits
.LCOLDB10:
	.section	.text.krhino_timer_change,"ax",@progbits
.LHOTB10:
	.globl	krhino_timer_change
	.type	krhino_timer_change, @function
krhino_timer_change:
.LFB21:
	.loc 1 174 0
	.cfi_startproc
.LVL115:
	pushl	%ebp
	.cfi_def_cfa_offset 8
	.cfi_offset 5, -8
	movl	%esp, %ebp
	.cfi_def_cfa_register 5
	pushl	%edi
	pushl	%esi
	pushl	%ebx
	subl	$60, %esp
	.cfi_offset 7, -12
	.cfi_offset 6, -16
	.cfi_offset 3, -20
	.loc 1 174 0
	movl	24(%ebp), %eax
	movl	8(%ebp), %ebx
	movl	12(%ebp), %esi
	movl	16(%ebp), %edi
	movl	20(%ebp), %ecx
	movl	%eax, -60(%ebp)
	movl	%gs:20, %eax
	movl	%eax, -28(%ebp)
	xorl	%eax, %eax
	.loc 1 178 0
	testl	%ebx, %ebx
	.loc 1 178 0
	movl	$6, %eax
	.loc 1 178 0
	je	.L119
	.loc 1 188 0
	movl	%esi, %eax
	movl	%edi, %edx
	addl	$-1, %eax
	adcl	$-1, %edx
	cmpl	$2147483647, %edx
	ja	.L126
	jb	.L121
	cmpl	$-3, %eax
	ja	.L126
.L121:
	cmpl	$2147483647, -60(%ebp)
	ja	.L126
	jb	.L123
	cmpl	$-2, %ecx
	ja	.L126
.L123:
	.loc 1 194 0
	movl	-60(%ebp), %eax
	.loc 1 192 0
	movl	%ebx, -52(%ebp)
	.loc 1 193 0
	movl	%esi, -44(%ebp)
	movl	%edi, -40(%ebp)
	.loc 1 194 0
	movl	%ecx, -36(%ebp)
	.loc 1 195 0
	movb	$3, -48(%ebp)
	.loc 1 194 0
	movl	%eax, -32(%ebp)
	.loc 1 196 0
	pushl	%eax
	leal	-52(%ebp), %eax
	pushl	$24
	pushl	%eax
	pushl	$g_timer_queue
	call	krhino_buf_queue_send
.LVL116:
	.loc 1 197 0
	addl	$16, %esp
	jmp	.L119
.LVL117:
.L126:
	.loc 1 189 0
	movl	$5, %eax
.L119:
	.loc 1 198 0
	movl	-28(%ebp), %edi
	xorl	%gs:20, %edi
	je	.L124
	call	__stack_chk_fail
.LVL118:
.L124:
	leal	-12(%ebp), %esp
	popl	%ebx
	.cfi_restore 3
	popl	%esi
	.cfi_restore 6
	popl	%edi
	.cfi_restore 7
	popl	%ebp
	.cfi_restore 5
	.cfi_def_cfa 4, 4
	ret
	.cfi_endproc
.LFE21:
	.size	krhino_timer_change, .-krhino_timer_change
	.section	.text.unlikely.krhino_timer_change
.LCOLDE10:
	.section	.text.krhino_timer_change
.LHOTE10:
	.section	.text.unlikely.krhino_timer_arg_change,"ax",@progbits
.LCOLDB11:
	.section	.text.krhino_timer_arg_change,"ax",@progbits
.LHOTB11:
	.globl	krhino_timer_arg_change
	.type	krhino_timer_arg_change, @function
krhino_timer_arg_change:
.LFB22:
	.loc 1 201 0
	.cfi_startproc
.LVL119:
	pushl	%ebp
	.cfi_def_cfa_offset 8
	.cfi_offset 5, -8
	movl	%esp, %ebp
	.cfi_def_cfa_register 5
	subl	$40, %esp
	.loc 1 201 0
	movl	8(%ebp), %edx
	movl	12(%ebp), %ecx
	movl	%gs:20, %eax
	movl	%eax, -12(%ebp)
	xorl	%eax, %eax
	movl	$6, %eax
	.loc 1 205 0
	testl	%edx, %edx
	je	.L135
	.loc 1 210 0
	pushl	%eax
	leal	-36(%ebp), %eax
	pushl	$24
	.loc 1 207 0
	movl	%edx, -36(%ebp)
	.loc 1 208 0
	movl	%ecx, -20(%ebp)
	.loc 1 210 0
	pushl	%eax
	pushl	$g_timer_queue
	.loc 1 209 0
	movb	$4, -32(%ebp)
	.loc 1 210 0
	call	krhino_buf_queue_send
.LVL120:
	.loc 1 211 0
	addl	$16, %esp
.LVL121:
.L135:
	.loc 1 212 0
	movl	-12(%ebp), %ecx
	xorl	%gs:20, %ecx
	je	.L136
	call	__stack_chk_fail
.LVL122:
.L136:
	leave
	.cfi_restore 5
	.cfi_def_cfa 4, 4
	ret
	.cfi_endproc
.LFE22:
	.size	krhino_timer_arg_change, .-krhino_timer_arg_change
	.section	.text.unlikely.krhino_timer_arg_change
.LCOLDE11:
	.section	.text.krhino_timer_arg_change
.LHOTE11:
	.section	.text.unlikely.krhino_timer_arg_change_auto,"ax",@progbits
.LCOLDB12:
	.section	.text.krhino_timer_arg_change_auto,"ax",@progbits
.LHOTB12:
	.globl	krhino_timer_arg_change_auto
	.type	krhino_timer_arg_change_auto, @function
krhino_timer_arg_change_auto:
.LFB23:
	.loc 1 215 0
	.cfi_startproc
.LVL123:
	pushl	%ebp
	.cfi_def_cfa_offset 8
	.cfi_offset 5, -8
	movl	%esp, %ebp
	.cfi_def_cfa_register 5
	subl	$40, %esp
	.loc 1 215 0
	movl	8(%ebp), %edx
	movl	12(%ebp), %ecx
	movl	%gs:20, %eax
	movl	%eax, -12(%ebp)
	xorl	%eax, %eax
	movl	$6, %eax
	.loc 1 219 0
	testl	%edx, %edx
	je	.L142
	.loc 1 225 0
	pushl	%eax
	leal	-36(%ebp), %eax
	pushl	$24
	.loc 1 221 0
	movl	%edx, -36(%ebp)
	.loc 1 222 0
	movl	%ecx, -20(%ebp)
	.loc 1 225 0
	pushl	%eax
	pushl	$g_timer_queue
	.loc 1 223 0
	movb	$5, -32(%ebp)
	.loc 1 225 0
	call	krhino_buf_queue_send
.LVL124:
	.loc 1 226 0
	addl	$16, %esp
.LVL125:
.L142:
	.loc 1 227 0
	movl	-12(%ebp), %ecx
	xorl	%gs:20, %ecx
	je	.L143
	call	__stack_chk_fail
.LVL126:
.L143:
	leave
	.cfi_restore 5
	.cfi_def_cfa 4, 4
	ret
	.cfi_endproc
.LFE23:
	.size	krhino_timer_arg_change_auto, .-krhino_timer_arg_change_auto
	.section	.text.unlikely.krhino_timer_arg_change_auto
.LCOLDE12:
	.section	.text.krhino_timer_arg_change_auto
.LHOTE12:
	.section	.rodata.str1.1,"aMS",@progbits,1
.LC13:
	.string	"timer_queue"
.LC14:
	.string	"timer_task"
	.section	.text.unlikely.ktimer_init,"ax",@progbits
.LCOLDB15:
	.section	.text.ktimer_init,"ax",@progbits
.LHOTB15:
	.globl	ktimer_init
	.type	ktimer_init, @function
ktimer_init:
.LFB28:
	.loc 1 428 0
	.cfi_startproc
.LVL127:
	pushl	%ebp
	.cfi_def_cfa_offset 8
	.cfi_offset 5, -8
	movl	%esp, %ebp
	.cfi_def_cfa_register 5
	subl	$20, %esp
.LBB80:
.LBB81:
	.loc 2 17 0
	movl	$g_timer_head, g_timer_head
.LBE81:
.LBE80:
	.loc 1 431 0
	pushl	$20
	pushl	$24
	pushl	$timer_queue_cb
	pushl	$.LC13
	pushl	$g_timer_queue
.LBB83:
.LBB82:
	.loc 2 18 0
	movl	$g_timer_head, g_timer_head+4
.LVL128:
.LBE82:
.LBE83:
	.loc 1 431 0
	call	krhino_fix_buf_queue_create
.LVL129:
	.loc 1 433 0
	addl	$24, %esp
	pushl	$1
	pushl	$timer_task
	pushl	$300
	pushl	$g_timer_task_stack
	pushl	$0
	pushl	$0
	pushl	$5
	pushl	$0
	pushl	$.LC14
	pushl	$g_timer_task
	call	krhino_task_create
.LVL130:
	.loc 1 436 0
	addl	$48, %esp
	leave
	.cfi_restore 5
	.cfi_def_cfa 4, 4
	ret
	.cfi_endproc
.LFE28:
	.size	ktimer_init, .-ktimer_init
	.section	.text.unlikely.ktimer_init
.LCOLDE15:
	.section	.text.ktimer_init
.LHOTE15:
	.text
.Letext0:
	.section	.text.unlikely.timer_list_pri_insert.constprop.3
.Letext_cold0:
	.file 3 "/home/stone/Documents/Ali_IOT/build/compiler/gcc-arm-none-eabi/Linux64/lib/gcc/arm-none-eabi/5.4.1/include/stddef.h"
	.file 4 "/home/stone/Documents/Ali_IOT/build/compiler/gcc-arm-none-eabi/Linux64/arm-none-eabi/include/machine/_default_types.h"
	.file 5 "/home/stone/Documents/Ali_IOT/build/compiler/gcc-arm-none-eabi/Linux64/arm-none-eabi/include/sys/_stdint.h"
	.file 6 "././platform/arch/arm/armv5/./gcc/k_types.h"
	.file 7 "./kernel/rhino/core/include/k_err.h"
	.file 8 "./kernel/rhino/core/include/k_sys.h"
	.file 9 "./kernel/rhino/core/include/k_obj.h"
	.file 10 "./kernel/rhino/core/include/k_task.h"
	.file 11 "./kernel/rhino/core/include/k_mutex.h"
	.file 12 "./kernel/rhino/core/include/k_sem.h"
	.file 13 "./kernel/rhino/core/include/k_ringbuf.h"
	.file 14 "./kernel/rhino/core/include/k_buf_queue.h"
	.file 15 "./kernel/rhino/core/include/k_timer.h"
	.file 16 "./kernel/rhino/core/include/k_internal.h"
	.file 17 "./kernel/rhino/core/include/k_mm.h"
	.file 18 "./kernel/rhino/core/include/k_time.h"
	.section	.note.GNU-stack,"",@progbits
