	.file	"k_workqueue.c"
	.text
.Ltext0:
	.section	.text.unlikely.klist_rm_init,"ax",@progbits
.LCOLDB0:
	.section	.text.klist_rm_init,"ax",@progbits
.LHOTB0:
	.section	.text.unlikely.klist_rm_init
.Ltext_cold0:
	.section	.text.klist_rm_init
	.type	klist_rm_init, @function
klist_rm_init:
.LFB10:
	.file 1 "./kernel/rhino/core/include/k_list.h"
	.loc 1 51 0
	.cfi_startproc
.LVL0:
	.loc 1 52 0
	movl	(%eax), %ecx
	movl	4(%eax), %edx
	.loc 1 51 0
	pushl	%ebp
	.cfi_def_cfa_offset 8
	.cfi_offset 5, -8
	.loc 1 52 0
	movl	%ecx, (%edx)
	.loc 1 53 0
	movl	(%eax), %ecx
	.loc 1 51 0
	movl	%esp, %ebp
	.cfi_def_cfa_register 5
	.loc 1 53 0
	movl	%edx, 4(%ecx)
	.loc 1 55 0
	movl	%eax, 4(%eax)
	movl	%eax, (%eax)
	.loc 1 56 0
	popl	%ebp
	.cfi_restore 5
	.cfi_def_cfa 4, 4
	ret
	.cfi_endproc
.LFE10:
	.size	klist_rm_init, .-klist_rm_init
	.section	.text.unlikely.klist_rm_init
.LCOLDE0:
	.section	.text.klist_rm_init
.LHOTE0:
	.section	.text.unlikely.worker_task,"ax",@progbits
.LCOLDB1:
	.section	.text.worker_task,"ax",@progbits
.LHOTB1:
	.type	worker_task, @function
worker_task:
.LFB13:
	.file 2 "kernel/rhino/core/k_workqueue.c"
	.loc 2 29 0
	.cfi_startproc
.LVL1:
	pushl	%ebp
	.cfi_def_cfa_offset 8
	.cfi_offset 5, -8
	movl	%esp, %ebp
	.cfi_def_cfa_register 5
	pushl	%edi
	pushl	%esi
	pushl	%ebx
	subl	$28, %esp
	.cfi_offset 7, -12
	.cfi_offset 6, -16
	.cfi_offset 3, -20
	.loc 2 29 0
	movl	8(%ebp), %esi
.LVL2:
	.loc 2 38 0
	leal	148(%esi), %edi
.LVL3:
.L5:
	pushl	%edx
	pushl	$-1
	pushl	$-1
	pushl	%edi
	call	krhino_sem_take
.LVL4:
	.loc 2 39 0
	addl	$16, %esp
	testl	%eax, %eax
	je	.L4
	.loc 2 40 0
	subl	$12, %esp
	pushl	%eax
	call	k_err_proc
.LVL5:
	addl	$16, %esp
.L4:
	.loc 2 43 0
	call	cpu_intrpt_save
.LVL6:
	.loc 2 46 0
	movl	8(%esi), %ebx
	.loc 2 43 0
	movl	%eax, -28(%ebp)
.LVL7:
	.loc 2 47 0
	movl	%ebx, %eax
.LVL8:
	call	klist_rm_init
.LVL9:
	.loc 2 50 0
	movl	-28(%ebp), %edx
	subl	$12, %esp
	.loc 2 48 0
	movl	%ebx, 16(%esi)
	.loc 2 49 0
	movb	$0, 32(%ebx)
	.loc 2 50 0
	pushl	%edx
	call	cpu_intrpt_restore
.LVL10:
	.loc 2 53 0
	popl	%eax
	pushl	12(%ebx)
	call	*8(%ebx)
.LVL11:
	.loc 2 54 0
	call	cpu_intrpt_save
.LVL12:
	.loc 2 56 0
	movl	$0, 16(%esi)
	.loc 2 58 0
	movl	%eax, (%esp)
	call	cpu_intrpt_restore
.LVL13:
	.loc 2 59 0
	addl	$16, %esp
	jmp	.L5
	.cfi_endproc
.LFE13:
	.size	worker_task, .-worker_task
	.section	.text.unlikely.worker_task
.LCOLDE1:
	.section	.text.worker_task
.LHOTE1:
	.section	.text.unlikely.work_timer_cb,"ax",@progbits
.LCOLDB2:
	.section	.text.work_timer_cb,"ax",@progbits
.LHOTB2:
	.type	work_timer_cb, @function
work_timer_cb:
.LFB15:
	.loc 2 116 0
	.cfi_startproc
.LVL14:
	pushl	%ebp
	.cfi_def_cfa_offset 8
	.cfi_offset 5, -8
	movl	%esp, %ebp
	.cfi_def_cfa_register 5
	pushl	%edi
	pushl	%esi
	pushl	%ebx
	subl	$12, %esp
	.cfi_offset 7, -12
	.cfi_offset 6, -16
	.cfi_offset 3, -20
	.loc 2 116 0
	movl	12(%ebp), %ebx
	.loc 2 120 0
	movl	8(%ebp), %eax
	movl	56(%eax), %esi
.LVL15:
	.loc 2 124 0
	call	cpu_intrpt_save
.LVL16:
	.loc 2 125 0
	cmpl	16(%ebx), %esi
	.loc 2 124 0
	movl	%eax, %edi
.LVL17:
	.loc 2 125 0
	je	.L15
	.loc 2 130 0
	cmpb	$1, 32(%esi)
	jne	.L13
.L15:
	.loc 2 131 0
	movl	%edi, 8(%ebp)
	.loc 2 148 0
	leal	-12(%ebp), %esp
	popl	%ebx
	.cfi_remember_state
	.cfi_restore 3
.LVL18:
	popl	%esi
	.cfi_restore 6
.LVL19:
	popl	%edi
	.cfi_restore 7
	popl	%ebp
	.cfi_restore 5
	.cfi_def_cfa 4, 4
	.loc 2 131 0
	jmp	cpu_intrpt_restore
.LVL20:
.L13:
	.cfi_restore_state
	.loc 2 136 0
	movl	%esi, %eax
.LVL21:
	call	klist_rm_init
.LVL22:
.LBB16:
.LBB17:
	.loc 1 28 0
	movl	12(%ebx), %eax
.LBE17:
.LBE16:
	.loc 2 141 0
	subl	$12, %esp
.LBB20:
.LBB18:
	.loc 1 28 0
	movl	%eax, 4(%esi)
.LBE18:
.LBE20:
	.loc 2 137 0
	leal	8(%ebx), %eax
.LVL23:
	movl	%eax, (%esi)
.LBB21:
.LBB19:
	.loc 1 31 0
	movl	12(%ebx), %eax
.LVL24:
	movl	%esi, (%eax)
.LVL25:
	.loc 1 32 0
	movl	%esi, 12(%ebx)
.LVL26:
.LBE19:
.LBE21:
	.loc 2 139 0
	movl	%ebx, 28(%esi)
	.loc 2 140 0
	movb	$1, 32(%esi)
	.loc 2 143 0
	addl	$148, %ebx
.LVL27:
	.loc 2 141 0
	pushl	%edi
	call	cpu_intrpt_restore
.LVL28:
	.loc 2 143 0
	movl	%ebx, 8(%ebp)
	addl	$16, %esp
	.loc 2 148 0
	leal	-12(%ebp), %esp
	popl	%ebx
	.cfi_restore 3
	popl	%esi
	.cfi_restore 6
.LVL29:
	popl	%edi
	.cfi_restore 7
.LVL30:
	popl	%ebp
	.cfi_restore 5
	.cfi_def_cfa 4, 4
	.loc 2 143 0
	jmp	krhino_sem_give
.LVL31:
	.cfi_endproc
.LFE15:
	.size	work_timer_cb, .-work_timer_cb
	.section	.text.unlikely.work_timer_cb
.LCOLDE2:
	.section	.text.work_timer_cb
.LHOTE2:
	.section	.rodata.str1.1,"aMS",@progbits,1
.LC3:
	.string	"WORKQUEUE-SEM"
	.section	.text.unlikely.krhino_workqueue_create,"ax",@progbits
.LCOLDB4:
	.section	.text.krhino_workqueue_create,"ax",@progbits
.LHOTB4:
	.globl	krhino_workqueue_create
	.type	krhino_workqueue_create, @function
krhino_workqueue_create:
.LFB14:
	.loc 2 64 0
	.cfi_startproc
.LVL32:
	pushl	%ebp
	.cfi_def_cfa_offset 8
	.cfi_offset 5, -8
	movl	%esp, %ebp
	.cfi_def_cfa_register 5
	pushl	%edi
	pushl	%esi
	pushl	%ebx
	subl	$28, %esp
	.cfi_offset 7, -12
	.cfi_offset 6, -16
	.cfi_offset 3, -20
	.loc 2 71 0
	cmpl	$0, 12(%ebp)
	.loc 2 64 0
	movl	16(%ebp), %eax
	movl	8(%ebp), %ebx
	movl	%eax, -28(%ebp)
	.loc 2 71 0
	sete	%dl
	cmpl	$0, 20(%ebp)
	sete	%al
	orb	%al, %dl
	jne	.L21
	testl	%ebx, %ebx
	je	.L21
	.loc 2 73 0
	cmpb	$61, -28(%ebp)
	.loc 2 74 0
	movl	$305, %edi
	.loc 2 73 0
	ja	.L17
	.loc 2 77 0
	cmpl	$0, 24(%ebp)
	.loc 2 78 0
	movl	$300, %edi
	.loc 2 77 0
	je	.L17
.LVL33:
.LBB32:
.LBB33:
	.loc 2 13 0
	call	cpu_intrpt_save
.LVL34:
	.loc 2 15 0
	movl	g_workqueue_list_head, %edx
.LVL35:
.L18:
	cmpl	$g_workqueue_list_head, %edx
	je	.L29
	.loc 2 18 0
	cmpl	%edx, %ebx
	jne	.L19
	.loc 2 19 0
	subl	$12, %esp
.LBE33:
.LBE32:
	.loc 2 83 0
	movl	$1100, %edi
.LBB36:
.LBB34:
	.loc 2 19 0
	pushl	%eax
	call	cpu_intrpt_restore
.LVL36:
	addl	$16, %esp
	jmp	.L17
.LVL37:
.L19:
	.loc 2 17 0
	movl	(%edx), %edx
.LVL38:
	jmp	.L18
.L29:
	.loc 2 24 0
	subl	$12, %esp
.LBE34:
.LBE36:
.LBB37:
.LBB38:
	.loc 2 91 0
	leal	148(%ebx), %esi
.LBE38:
.LBE37:
.LBB50:
.LBB35:
	.loc 2 24 0
	pushl	%eax
	call	cpu_intrpt_restore
.LVL39:
.LBE35:
.LBE50:
.LBB51:
.LBB49:
	.loc 2 87 0
	leal	8(%ebx), %eax
	.loc 2 91 0
	addl	$12, %esp
.LBB39:
.LBB40:
	.loc 1 17 0
	movl	%ebx, (%ebx)
	.loc 1 18 0
	movl	%ebx, 4(%ebx)
.LVL40:
.LBE40:
.LBE39:
	.loc 2 88 0
	movl	$0, 16(%ebx)
.LBB41:
.LBB42:
	.loc 1 17 0
	movl	%eax, 8(%ebx)
	.loc 1 18 0
	movl	%eax, 12(%ebx)
.LVL41:
.LBE42:
.LBE41:
	.loc 2 89 0
	movl	12(%ebp), %eax
	movl	%eax, 20(%ebx)
	.loc 2 91 0
	pushl	$0
	pushl	$.LC3
	pushl	%esi
	call	krhino_sem_create
.LVL42:
	.loc 2 92 0
	addl	$16, %esp
	testl	%eax, %eax
	movl	%eax, %edi
	jne	.L17
	.loc 2 96 0
	call	cpu_intrpt_save
.LVL43:
.LBB43:
.LBB44:
	.loc 1 28 0
	movl	g_workqueue_list_head+4, %edx
.LBE44:
.LBE43:
	.loc 2 98 0
	subl	$12, %esp
.LBB47:
.LBB45:
	.loc 1 29 0
	movl	$g_workqueue_list_head, (%ebx)
	.loc 1 28 0
	movl	%edx, 4(%ebx)
	.loc 1 31 0
	movl	g_workqueue_list_head+4, %edx
	movl	%ebx, (%edx)
.LBE45:
.LBE47:
	.loc 2 98 0
	pushl	%eax
.LBB48:
.LBB46:
	.loc 1 32 0
	movl	%ebx, g_workqueue_list_head+4
.LVL44:
.LBE46:
.LBE48:
	.loc 2 98 0
	call	cpu_intrpt_restore
.LVL45:
	.loc 2 100 0
	popl	%eax
	movzbl	-28(%ebp), %eax
	popl	%edx
	pushl	$1
	pushl	$worker_task
	pushl	24(%ebp)
	pushl	20(%ebp)
	pushl	$0
	pushl	$0
	pushl	%eax
	leal	24(%ebx), %eax
	pushl	%ebx
	pushl	12(%ebp)
	pushl	%eax
	call	krhino_task_create
.LVL46:
	.loc 2 102 0
	addl	$48, %esp
	testl	%eax, %eax
	je	.L17
	movl	%eax, -28(%ebp)
.LVL47:
	.loc 2 103 0
	call	cpu_intrpt_save
.LVL48:
	movl	%eax, %edi
.LVL49:
	.loc 2 104 0
	movl	%ebx, %eax
.LVL50:
	call	klist_rm_init
.LVL51:
	.loc 2 105 0
	subl	$12, %esp
	pushl	%edi
	call	cpu_intrpt_restore
.LVL52:
	.loc 2 106 0
	movl	%esi, (%esp)
	call	krhino_sem_del
.LVL53:
	movl	-28(%ebp), %edx
	addl	$16, %esp
	movl	%edx, %edi
.LVL54:
	jmp	.L17
.LVL55:
.L21:
.LBE49:
.LBE51:
	.loc 2 71 0
	movl	$6, %edi
.L17:
	.loc 2 113 0
	leal	-12(%ebp), %esp
	movl	%edi, %eax
	popl	%ebx
	.cfi_restore 3
	popl	%esi
	.cfi_restore 6
	popl	%edi
	.cfi_restore 7
	popl	%ebp
	.cfi_restore 5
	.cfi_def_cfa 4, 4
	ret
	.cfi_endproc
.LFE14:
	.size	krhino_workqueue_create, .-krhino_workqueue_create
	.section	.text.unlikely.krhino_workqueue_create
.LCOLDE4:
	.section	.text.krhino_workqueue_create
.LHOTE4:
	.section	.rodata.str1.1
.LC5:
	.string	"WORK-TIMER"
	.section	.text.unlikely.krhino_work_init,"ax",@progbits
.LCOLDB6:
	.section	.text.krhino_work_init,"ax",@progbits
.LHOTB6:
	.globl	krhino_work_init
	.type	krhino_work_init, @function
krhino_work_init:
.LFB16:
	.loc 2 152 0
	.cfi_startproc
.LVL56:
	pushl	%ebp
	.cfi_def_cfa_offset 8
	.cfi_offset 5, -8
	movl	%esp, %ebp
	.cfi_def_cfa_register 5
	pushl	%edi
	pushl	%esi
	pushl	%ebx
	subl	$12, %esp
	.cfi_offset 7, -12
	.cfi_offset 6, -16
	.cfi_offset 3, -20
	.loc 2 152 0
	movl	8(%ebp), %edx
	movl	20(%ebp), %ebx
	movl	24(%ebp), %esi
	.loc 2 159 0
	testl	%edx, %edx
	je	.L32
	cmpl	$0, 12(%ebp)
	je	.L32
	.loc 2 166 0
	xorl	%eax, %eax
	movl	$9, %ecx
	movl	%edx, %edi
	rep stosl
.LVL57:
	.loc 2 169 0
	movl	12(%ebp), %eax
	.loc 2 174 0
	movl	%esi, %ecx
.LBB52:
.LBB53:
	.loc 1 17 0
	movl	%edx, (%edx)
	.loc 1 18 0
	movl	%edx, 4(%edx)
.LVL58:
.LBE53:
.LBE52:
	.loc 2 171 0
	movl	%ebx, 16(%edx)
	movl	%esi, 20(%edx)
	.loc 2 169 0
	movl	%eax, 8(%edx)
	.loc 2 170 0
	movl	16(%ebp), %eax
	movl	%eax, 12(%edx)
	.loc 2 184 0
	xorl	%eax, %eax
	.loc 2 174 0
	orl	%ebx, %ecx
	je	.L31
	.loc 2 175 0
	subl	$12, %esp
	pushl	$0
	pushl	%edx
	addl	$24, %edx
	pushl	$0
	pushl	$0
	pushl	%esi
	pushl	%ebx
	pushl	$work_timer_cb
	pushl	$.LC5
	pushl	%edx
	call	krhino_timer_dyn_create
.LVL59:
	addl	$48, %esp
	jmp	.L31
.LVL60:
.L32:
	.loc 2 160 0
	movl	$6, %eax
.L31:
	.loc 2 185 0
	leal	-12(%ebp), %esp
	popl	%ebx
	.cfi_restore 3
	popl	%esi
	.cfi_restore 6
	popl	%edi
	.cfi_restore 7
	popl	%ebp
	.cfi_restore 5
	.cfi_def_cfa 4, 4
	ret
	.cfi_endproc
.LFE16:
	.size	krhino_work_init, .-krhino_work_init
	.section	.text.unlikely.krhino_work_init
.LCOLDE6:
	.section	.text.krhino_work_init
.LHOTE6:
	.section	.text.unlikely.krhino_work_run,"ax",@progbits
.LCOLDB7:
	.section	.text.krhino_work_run,"ax",@progbits
.LHOTB7:
	.globl	krhino_work_run
	.type	krhino_work_run, @function
krhino_work_run:
.LFB17:
	.loc 2 188 0
	.cfi_startproc
.LVL61:
	pushl	%ebp
	.cfi_def_cfa_offset 8
	.cfi_offset 5, -8
	movl	%esp, %ebp
	.cfi_def_cfa_register 5
	pushl	%edi
	pushl	%esi
	pushl	%ebx
	subl	$12, %esp
	.cfi_offset 7, -12
	.cfi_offset 6, -16
	.cfi_offset 3, -20
	.loc 2 188 0
	movl	8(%ebp), %esi
	movl	12(%ebp), %ebx
	.loc 2 194 0
	testl	%esi, %esi
	je	.L41
	testl	%ebx, %ebx
	je	.L41
.LVL62:
.LBB58:
.LBB59:
	.loc 2 196 0
	call	cpu_intrpt_save
.LVL63:
	movl	%eax, %edi
.LVL64:
	.loc 2 198 0
	movl	20(%ebx), %eax
.LVL65:
	orl	16(%ebx), %eax
	jne	.L38
	.loc 2 199 0
	cmpl	16(%esi), %ebx
	jne	.L39
	.loc 2 200 0
	subl	$12, %esp
	pushl	%edi
	call	cpu_intrpt_restore
.LVL66:
	addl	$16, %esp
	.loc 2 201 0
	movl	$1104, %eax
	jmp	.L37
.L39:
	.loc 2 204 0
	cmpb	$1, 32(%ebx)
	jne	.L40
	.loc 2 205 0
	subl	$12, %esp
	pushl	%edi
	call	cpu_intrpt_restore
.LVL67:
	addl	$16, %esp
	.loc 2 206 0
	movl	$1102, %eax
	jmp	.L37
.L40:
	.loc 2 210 0
	movl	%ebx, %eax
	call	klist_rm_init
.LVL68:
.LBB60:
.LBB61:
	.loc 1 28 0
	movl	12(%esi), %eax
.LBE61:
.LBE60:
	.loc 2 216 0
	subl	$12, %esp
.LBB64:
.LBB62:
	.loc 1 28 0
	movl	%eax, 4(%ebx)
.LBE62:
.LBE64:
	.loc 2 211 0
	leal	8(%esi), %eax
.LVL69:
	movl	%eax, (%ebx)
.LBB65:
.LBB63:
	.loc 1 31 0
	movl	12(%esi), %eax
.LVL70:
	movl	%ebx, (%eax)
.LVL71:
	.loc 1 32 0
	movl	%ebx, 12(%esi)
.LVL72:
.LBE63:
.LBE65:
	.loc 2 213 0
	movl	%esi, 28(%ebx)
	.loc 2 214 0
	movb	$1, 32(%ebx)
	.loc 2 217 0
	addl	$148, %esi
.LVL73:
	.loc 2 216 0
	pushl	%edi
	call	cpu_intrpt_restore
.LVL74:
	.loc 2 217 0
	movl	%esi, 8(%ebp)
.LVL75:
	addl	$16, %esp
.LBE59:
.LBE58:
	.loc 2 232 0
	leal	-12(%ebp), %esp
	popl	%ebx
	.cfi_remember_state
	.cfi_restore 3
.LVL76:
	popl	%esi
	.cfi_restore 6
.LVL77:
	popl	%edi
	.cfi_restore 7
.LVL78:
	popl	%ebp
	.cfi_restore 5
	.cfi_def_cfa 4, 4
.LBB68:
.LBB66:
	.loc 2 217 0
	jmp	krhino_sem_give
.LVL79:
.L38:
	.cfi_restore_state
	.loc 2 223 0
	movl	24(%ebx), %eax
	.loc 2 224 0
	subl	$12, %esp
	.loc 2 223 0
	movl	%ebx, 56(%eax)
	.loc 2 224 0
	pushl	%edi
	call	cpu_intrpt_restore
.LVL80:
	.loc 2 225 0
	movl	%esi, 12(%ebp)
	movl	24(%ebx), %eax
	addl	$16, %esp
	movl	%eax, 8(%ebp)
.LBE66:
.LBE68:
	.loc 2 232 0
	leal	-12(%ebp), %esp
	popl	%ebx
	.cfi_remember_state
	.cfi_restore 3
.LVL81:
	popl	%esi
	.cfi_restore 6
.LVL82:
	popl	%edi
	.cfi_restore 7
.LVL83:
	popl	%ebp
	.cfi_restore 5
	.cfi_def_cfa 4, 4
.LBB69:
.LBB67:
	.loc 2 225 0
	jmp	krhino_timer_arg_change_auto
.LVL84:
.L41:
	.cfi_restore_state
.LBE67:
.LBE69:
	.loc 2 194 0
	movl	$6, %eax
.L37:
	.loc 2 232 0
	leal	-12(%ebp), %esp
	popl	%ebx
	.cfi_restore 3
	popl	%esi
	.cfi_restore 6
	popl	%edi
	.cfi_restore 7
	popl	%ebp
	.cfi_restore 5
	.cfi_def_cfa 4, 4
	ret
	.cfi_endproc
.LFE17:
	.size	krhino_work_run, .-krhino_work_run
	.section	.text.unlikely.krhino_work_run
.LCOLDE7:
	.section	.text.krhino_work_run
.LHOTE7:
	.section	.text.unlikely.krhino_work_sched,"ax",@progbits
.LCOLDB8:
	.section	.text.krhino_work_sched,"ax",@progbits
.LHOTB8:
	.globl	krhino_work_sched
	.type	krhino_work_sched, @function
krhino_work_sched:
.LFB18:
	.loc 2 235 0
	.cfi_startproc
.LVL85:
	pushl	%ebp
	.cfi_def_cfa_offset 8
	.cfi_offset 5, -8
	movl	%esp, %ebp
	.cfi_def_cfa_register 5
	subl	$16, %esp
	.loc 2 236 0
	pushl	8(%ebp)
	pushl	$g_workqueue_default
	call	krhino_work_run
.LVL86:
	.loc 2 237 0
	leave
	.cfi_restore 5
	.cfi_def_cfa 4, 4
	ret
	.cfi_endproc
.LFE18:
	.size	krhino_work_sched, .-krhino_work_sched
	.section	.text.unlikely.krhino_work_sched
.LCOLDE8:
	.section	.text.krhino_work_sched
.LHOTE8:
	.section	.text.unlikely.krhino_work_cancel,"ax",@progbits
.LCOLDB9:
	.section	.text.krhino_work_cancel,"ax",@progbits
.LHOTB9:
	.globl	krhino_work_cancel
	.type	krhino_work_cancel, @function
krhino_work_cancel:
.LFB19:
	.loc 2 240 0
	.cfi_startproc
.LVL87:
	pushl	%ebp
	.cfi_def_cfa_offset 8
	.cfi_offset 5, -8
	movl	%esp, %ebp
	.cfi_def_cfa_register 5
	pushl	%edi
	pushl	%esi
	pushl	%ebx
	.cfi_offset 7, -12
	.cfi_offset 6, -16
	.cfi_offset 3, -20
	.loc 2 244 0
	movl	$6, %esi
	.loc 2 240 0
	subl	$12, %esp
	.loc 2 240 0
	movl	8(%ebp), %ebx
	.loc 2 244 0
	testl	%ebx, %ebx
	je	.L46
	.loc 2 246 0
	movl	28(%ebx), %edi
.LVL88:
	.loc 2 248 0
	testl	%edi, %edi
	jne	.L47
	.loc 2 249 0
	movl	20(%ebx), %eax
	.loc 2 252 0
	xorl	%esi, %esi
	.loc 2 249 0
	orl	16(%ebx), %eax
	je	.L46
	.loc 2 250 0
	subl	$12, %esp
	pushl	24(%ebx)
	call	krhino_timer_stop
.LVL89:
	addl	$16, %esp
	jmp	.L46
.L47:
	.loc 2 255 0
	call	cpu_intrpt_save
.LVL90:
	.loc 2 256 0
	cmpl	16(%edi), %ebx
	.loc 2 255 0
	movl	%eax, %esi
.LVL91:
	.loc 2 256 0
	jne	.L48
	.loc 2 257 0
	subl	$12, %esp
	.loc 2 258 0
	movl	$1104, %esi
	.loc 2 257 0
	pushl	%eax
	call	cpu_intrpt_restore
.LVL92:
	.loc 2 258 0
	addl	$16, %esp
	jmp	.L46
.LVL93:
.L48:
	.loc 2 261 0
	cmpb	$1, 32(%ebx)
	jne	.L49
	.loc 2 262 0
	subl	$12, %esp
	.loc 2 263 0
	movl	$1102, %esi
	.loc 2 262 0
	pushl	%eax
	call	cpu_intrpt_restore
.LVL94:
	.loc 2 263 0
	addl	$16, %esp
	jmp	.L46
.LVL95:
.L49:
	.loc 2 266 0
	movl	%ebx, %eax
.LVL96:
	call	klist_rm_init
.LVL97:
	.loc 2 268 0
	subl	$12, %esp
	.loc 2 267 0
	movl	$0, 28(%ebx)
	.loc 2 268 0
	pushl	%esi
	.loc 2 270 0
	xorl	%esi, %esi
.LVL98:
	.loc 2 268 0
	call	cpu_intrpt_restore
.LVL99:
	.loc 2 270 0
	addl	$16, %esp
.LVL100:
.L46:
	.loc 2 271 0
	leal	-12(%ebp), %esp
	movl	%esi, %eax
	popl	%ebx
	.cfi_restore 3
	popl	%esi
	.cfi_restore 6
	popl	%edi
	.cfi_restore 7
	popl	%ebp
	.cfi_restore 5
	.cfi_def_cfa 4, 4
	ret
	.cfi_endproc
.LFE19:
	.size	krhino_work_cancel, .-krhino_work_cancel
	.section	.text.unlikely.krhino_work_cancel
.LCOLDE9:
	.section	.text.krhino_work_cancel
.LHOTE9:
	.section	.rodata.str1.1
.LC10:
	.string	"DEFAULT-WORKQUEUE"
	.section	.text.unlikely.workqueue_init,"ax",@progbits
.LCOLDB11:
	.section	.text.workqueue_init,"ax",@progbits
.LHOTB11:
	.globl	workqueue_init
	.type	workqueue_init, @function
workqueue_init:
.LFB20:
	.loc 2 274 0
	.cfi_startproc
.LVL101:
	pushl	%ebp
	.cfi_def_cfa_offset 8
	.cfi_offset 5, -8
	movl	%esp, %ebp
	.cfi_def_cfa_register 5
	subl	$20, %esp
.LBB70:
.LBB71:
	.loc 1 17 0
	movl	$g_workqueue_list_head, g_workqueue_list_head
.LBE71:
.LBE70:
	.loc 2 277 0
	pushl	$768
	pushl	$g_workqueue_stack
	pushl	$20
	pushl	$.LC10
	pushl	$g_workqueue_default
.LBB73:
.LBB72:
	.loc 1 18 0
	movl	$g_workqueue_list_head, g_workqueue_list_head+4
.LVL102:
.LBE72:
.LBE73:
	.loc 2 277 0
	call	krhino_workqueue_create
.LVL103:
	.loc 2 280 0
	addl	$32, %esp
	leave
	.cfi_restore 5
	.cfi_def_cfa 4, 4
	ret
	.cfi_endproc
.LFE20:
	.size	workqueue_init, .-workqueue_init
	.section	.text.unlikely.workqueue_init
.LCOLDE11:
	.section	.text.workqueue_init
.LHOTE11:
	.text
.Letext0:
	.section	.text.unlikely.klist_rm_init
.Letext_cold0:
	.file 3 "/home/stone/Documents/Ali_IOT/build/compiler/gcc-arm-none-eabi/Linux64/lib/gcc/arm-none-eabi/5.4.1/include/stddef.h"
	.file 4 "/home/stone/Documents/Ali_IOT/build/compiler/gcc-arm-none-eabi/Linux64/arm-none-eabi/include/machine/_default_types.h"
	.file 5 "/home/stone/Documents/Ali_IOT/build/compiler/gcc-arm-none-eabi/Linux64/arm-none-eabi/include/sys/_stdint.h"
	.file 6 "././platform/arch/arm/armv5/./gcc/k_types.h"
	.file 7 "./kernel/rhino/core/include/k_err.h"
	.file 8 "./kernel/rhino/core/include/k_sys.h"
	.file 9 "./kernel/rhino/core/include/k_obj.h"
	.file 10 "./kernel/rhino/core/include/k_task.h"
	.file 11 "./kernel/rhino/core/include/k_mutex.h"
	.file 12 "./kernel/rhino/core/include/k_sem.h"
	.file 13 "./kernel/rhino/core/include/k_timer.h"
	.file 14 "./kernel/rhino/core/include/k_workqueue.h"
	.file 15 "./kernel/rhino/core/include/k_internal.h"
	.file 16 "././platform/arch/arm/armv5/./gcc/port.h"
	.section	.note.GNU-stack,"",@progbits
