	.file	"keys.c"
	.text
.Ltext0:
	.section	.text.unlikely.bt_keys_clear,"ax",@progbits
.LCOLDB0:
	.section	.text.bt_keys_clear,"ax",@progbits
.LHOTB0:
	.section	.text.unlikely.bt_keys_clear
.Ltext_cold0:
	.section	.text.bt_keys_clear
	.globl	bt_keys_clear
	.type	bt_keys_clear, @function
bt_keys_clear:
.LFB67:
	.file 1 "src/keys.c"
	.loc 1 3288 0
	.cfi_startproc
.LVL0:
	pushl	%ebp
	.cfi_def_cfa_offset 8
	.cfi_offset 5, -8
	movl	%esp, %ebp
	.cfi_def_cfa_register 5
	pushl	%edi
	pushl	%ebx
	.cfi_offset 7, -12
	.cfi_offset 3, -16
	.loc 1 3288 0
	movl	8(%ebp), %ebx
	.loc 1 3290 0
	testb	$2, 12(%ebx)
	je	.L2
	.loc 1 3291 0
	subl	$12, %esp
	pushl	%ebx
	call	bt_id_del
.LVL1:
	addl	$16, %esp
.L2:
	.loc 1 3293 0
	movl	%ebx, %edi
	movl	$24, %ecx
	xorl	%eax, %eax
	rep stosl
	.loc 1 3294 0
	leal	-8(%ebp), %esp
	popl	%ebx
	.cfi_restore 3
	popl	%edi
	.cfi_restore 7
	popl	%ebp
	.cfi_restore 5
	.cfi_def_cfa 4, 4
	ret
	.cfi_endproc
.LFE67:
	.size	bt_keys_clear, .-bt_keys_clear
	.section	.text.unlikely.bt_keys_clear
.LCOLDE0:
	.section	.text.bt_keys_clear
.LHOTE0:
	.section	.text.unlikely.bt_keys_get_addr,"ax",@progbits
.LCOLDB1:
	.section	.text.bt_keys_get_addr,"ax",@progbits
.LHOTB1:
	.globl	bt_keys_get_addr
	.type	bt_keys_get_addr, @function
bt_keys_get_addr:
.LFB60:
	.loc 1 3177 0
	.cfi_startproc
.LVL2:
	pushl	%ebp
	.cfi_def_cfa_offset 8
	.cfi_offset 5, -8
	movl	%esp, %ebp
	.cfi_def_cfa_register 5
	pushl	%edi
	pushl	%esi
	subl	$20, %esp
	.cfi_offset 7, -12
	.cfi_offset 6, -16
	.loc 1 3177 0
	movl	8(%ebp), %esi
.LBB10:
.LBB11:
	.loc 1 1379 0
	pushl	$7
.LBE11:
.LBE10:
	.loc 1 3177 0
	movl	%gs:20, %eax
	movl	%eax, -12(%ebp)
	xorl	%eax, %eax
.LVL3:
.LBB13:
.LBB12:
	.loc 1 1379 0
	pushl	%esi
	pushl	$key_pool
	call	memcmp
.LVL4:
	addl	$16, %esp
.LVL5:
.LBE12:
.LBE13:
	.loc 1 3183 0
	testl	%eax, %eax
	movl	$key_pool, %edx
	je	.L9
	.loc 1 3186 0
	leal	-19(%ebp), %edi
	xorl	%eax, %eax
	movl	$7, %ecx
	rep stosb
.LVL6:
.LBB14:
.LBB15:
	.loc 1 1379 0
	pushl	%eax
	leal	-19(%ebp), %eax
.LVL7:
	pushl	$7
	pushl	%eax
	pushl	%edx
	call	memcmp
.LVL8:
	addl	$16, %esp
.LVL9:
.LBE15:
.LBE14:
	.loc 1 3194 0
	xorl	%edx, %edx
	.loc 1 3186 0
	testl	%eax, %eax
	jne	.L9
.LVL10:
.LBB16:
.LBB17:
	.loc 1 1387 0
	movl	$key_pool, %eax
	movl	$7, %ecx
	movl	%eax, %edi
	movl	%eax, %edx
	rep movsb
.LVL11:
.L9:
.LBE17:
.LBE16:
	.loc 1 3196 0
	movl	%edx, %eax
	movl	-12(%ebp), %edx
	xorl	%gs:20, %edx
	je	.L10
	call	__stack_chk_fail
.LVL12:
.L10:
	leal	-8(%ebp), %esp
	popl	%esi
	.cfi_restore 6
	popl	%edi
	.cfi_restore 7
	popl	%ebp
	.cfi_restore 5
	.cfi_def_cfa 4, 4
	ret
	.cfi_endproc
.LFE60:
	.size	bt_keys_get_addr, .-bt_keys_get_addr
	.section	.text.unlikely.bt_keys_get_addr
.LCOLDE1:
	.section	.text.bt_keys_get_addr
.LHOTE1:
	.section	.text.unlikely.bt_keys_foreach,"ax",@progbits
.LCOLDB2:
	.section	.text.bt_keys_foreach,"ax",@progbits
.LHOTB2:
	.globl	bt_keys_foreach
	.type	bt_keys_foreach, @function
bt_keys_foreach:
.LFB61:
	.loc 1 3198 0
	.cfi_startproc
.LVL13:
	pushl	%ebp
	.cfi_def_cfa_offset 8
	.cfi_offset 5, -8
	.loc 1 3201 0
	movzwl	key_pool+12, %edx
	.loc 1 3198 0
	movl	%esp, %ebp
	.cfi_def_cfa_register 5
	.loc 1 3201 0
	testl	%edx, 8(%ebp)
	.loc 1 3198 0
	movl	12(%ebp), %eax
	.loc 1 3201 0
	je	.L14
	.loc 1 3202 0
	movl	$key_pool, 8(%ebp)
.LVL14:
	.loc 1 3205 0
	popl	%ebp
	.cfi_remember_state
	.cfi_restore 5
	.cfi_def_cfa 4, 4
	.loc 1 3202 0
	jmp	*%eax
.LVL15:
.L14:
	.cfi_restore_state
	.loc 1 3205 0
	popl	%ebp
	.cfi_restore 5
	.cfi_def_cfa 4, 4
	ret
	.cfi_endproc
.LFE61:
	.size	bt_keys_foreach, .-bt_keys_foreach
	.section	.text.unlikely.bt_keys_foreach
.LCOLDE2:
	.section	.text.bt_keys_foreach
.LHOTE2:
	.section	.text.unlikely.bt_keys_find,"ax",@progbits
.LCOLDB3:
	.section	.text.bt_keys_find,"ax",@progbits
.LHOTB3:
	.globl	bt_keys_find
	.type	bt_keys_find, @function
bt_keys_find:
.LFB62:
	.loc 1 3207 0
	.cfi_startproc
.LVL16:
	pushl	%ebp
	.cfi_def_cfa_offset 8
	.cfi_offset 5, -8
	movl	%esp, %ebp
	.cfi_def_cfa_register 5
	pushl	%ebx
	pushl	%edx
	.cfi_offset 3, -12
	.loc 1 3211 0
	movzwl	key_pool+12, %eax
	.loc 1 3217 0
	xorl	%ebx, %ebx
	.loc 1 3211 0
	testl	%eax, 8(%ebp)
	je	.L18
.LVL17:
.LBB20:
.LBB21:
	.loc 1 1379 0
	pushl	%eax
	pushl	$7
	pushl	12(%ebp)
	pushl	$key_pool
	call	memcmp
.LVL18:
	addl	$16, %esp
.LVL19:
.LBE21:
.LBE20:
	.loc 1 3213 0
	testl	%eax, %eax
	movl	$key_pool, %eax
	cmove	%eax, %ebx
.L18:
	.loc 1 3219 0
	movl	%ebx, %eax
	movl	-4(%ebp), %ebx
	leave
	.cfi_restore 5
	.cfi_restore 3
	.cfi_def_cfa 4, 4
	ret
	.cfi_endproc
.LFE62:
	.size	bt_keys_find, .-bt_keys_find
	.section	.text.unlikely.bt_keys_find
.LCOLDE3:
	.section	.text.bt_keys_find
.LHOTE3:
	.section	.text.unlikely.bt_keys_get_type,"ax",@progbits
.LCOLDB4:
	.section	.text.bt_keys_get_type,"ax",@progbits
.LHOTB4:
	.globl	bt_keys_get_type
	.type	bt_keys_get_type, @function
bt_keys_get_type:
.LFB63:
	.loc 1 3221 0
	.cfi_startproc
.LVL20:
	pushl	%ebp
	.cfi_def_cfa_offset 8
	.cfi_offset 5, -8
	movl	%esp, %ebp
	.cfi_def_cfa_register 5
	pushl	%edi
	pushl	%esi
	pushl	%ebx
	subl	$20, %esp
	.cfi_offset 7, -12
	.cfi_offset 6, -16
	.cfi_offset 3, -20
	.loc 1 3221 0
	movl	8(%ebp), %esi
	movl	12(%ebp), %edi
	.loc 1 3224 0
	pushl	%edi
	pushl	%esi
	call	bt_keys_find
.LVL21:
	addl	$16, %esp
	.loc 1 3225 0
	testl	%eax, %eax
	.loc 1 3224 0
	movl	%eax, %ebx
.LVL22:
	.loc 1 3225 0
	jne	.L24
	.loc 1 3228 0
	subl	$12, %esp
	pushl	%edi
	call	bt_keys_get_addr
.LVL23:
	.loc 1 3229 0
	addl	$16, %esp
	testl	%eax, %eax
	je	.L24
.LVL24:
.LBB22:
.LBB23:
	.loc 1 3285 0
	orw	%si, 12(%eax)
.LVL25:
.LBE23:
.LBE22:
	.loc 1 3235 0
	movl	%eax, %ebx
.LVL26:
.L24:
	.loc 1 3236 0
	leal	-12(%ebp), %esp
	movl	%ebx, %eax
	popl	%ebx
	.cfi_restore 3
	popl	%esi
	.cfi_restore 6
	popl	%edi
	.cfi_restore 7
	popl	%ebp
	.cfi_restore 5
	.cfi_def_cfa 4, 4
	ret
	.cfi_endproc
.LFE63:
	.size	bt_keys_get_type, .-bt_keys_get_type
	.section	.text.unlikely.bt_keys_get_type
.LCOLDE4:
	.section	.text.bt_keys_get_type
.LHOTE4:
	.section	.text.unlikely.bt_keys_find_irk,"ax",@progbits
.LCOLDB5:
	.section	.text.bt_keys_find_irk,"ax",@progbits
.LHOTB5:
	.globl	bt_keys_find_irk
	.type	bt_keys_find_irk, @function
bt_keys_find_irk:
.LFB64:
	.loc 1 3238 0
	.cfi_startproc
.LVL27:
	pushl	%ebp
	.cfi_def_cfa_offset 8
	.cfi_offset 5, -8
	movl	%esp, %ebp
	.cfi_def_cfa_register 5
	pushl	%esi
	pushl	%ebx
	.cfi_offset 6, -12
	.cfi_offset 3, -16
	.loc 1 3238 0
	movl	8(%ebp), %ebx
.LVL28:
.LBB30:
.LBB31:
	.loc 1 1395 0
	cmpb	$1, (%ebx)
	je	.L29
.LVL29:
.L31:
.LBE31:
.LBE30:
	.loc 1 3243 0
	xorl	%edx, %edx
	jmp	.L30
.LVL30:
.L29:
	.loc 1 3241 0
	movb	6(%ebx), %al
	andl	$-64, %eax
	cmpb	$64, %al
	jne	.L31
.LVL31:
	.loc 1 3247 0 discriminator 1
	testb	$2, key_pool+12
	je	.L31
.LVL32:
.LBB32:
.LBB33:
	.loc 1 1375 0
	leal	1(%ebx), %esi
.LVL33:
	pushl	%edx
	pushl	$6
	pushl	$key_pool+60
.LVL34:
	pushl	%esi
.LVL35:
	call	memcmp
.LVL36:
	addl	$16, %esp
.LVL37:
.LBE33:
.LBE32:
	.loc 1 3250 0
	testl	%eax, %eax
	.loc 1 3252 0
	movl	$key_pool, %edx
	.loc 1 3250 0
	je	.L30
	.loc 1 3259 0
	pushl	%eax
	pushl	%eax
	pushl	%esi
	pushl	$key_pool+44
	call	bt_rpa_irk_matches
.LVL38:
	addl	$16, %esp
	testb	%al, %al
	je	.L31
.LVL39:
.LBB34:
.LBB35:
	.loc 1 1383 0
	movl	1(%ebx), %eax
.LBE35:
.LBE34:
	.loc 1 3262 0
	movl	$key_pool, %edx
.LBB37:
.LBB36:
	.loc 1 1383 0
	movl	%eax, key_pool+60
	movw	5(%ebx), %ax
	movw	%ax, key_pool+64
.LVL40:
.L30:
.LBE36:
.LBE37:
	.loc 1 3269 0
	leal	-8(%ebp), %esp
	movl	%edx, %eax
	popl	%ebx
	.cfi_restore 3
	popl	%esi
	.cfi_restore 6
	popl	%ebp
	.cfi_restore 5
	.cfi_def_cfa 4, 4
	ret
	.cfi_endproc
.LFE64:
	.size	bt_keys_find_irk, .-bt_keys_find_irk
	.section	.text.unlikely.bt_keys_find_irk
.LCOLDE5:
	.section	.text.bt_keys_find_irk
.LHOTE5:
	.section	.text.unlikely.bt_keys_find_addr,"ax",@progbits
.LCOLDB6:
	.section	.text.bt_keys_find_addr,"ax",@progbits
.LHOTB6:
	.globl	bt_keys_find_addr
	.type	bt_keys_find_addr, @function
bt_keys_find_addr:
.LFB65:
	.loc 1 3271 0
	.cfi_startproc
.LVL41:
	pushl	%ebp
	.cfi_def_cfa_offset 8
	.cfi_offset 5, -8
	movl	%esp, %ebp
	.cfi_def_cfa_register 5
.LVL42:
	subl	$12, %esp
.LBB40:
.LBB41:
	.loc 1 1379 0
	pushl	$7
	pushl	8(%ebp)
	pushl	$key_pool
	call	memcmp
.LVL43:
	addl	$16, %esp
.LVL44:
.LBE41:
.LBE40:
	.loc 1 3280 0
	movl	$0, %edx
	testl	%eax, %eax
	movl	$key_pool, %eax
	.loc 1 3282 0
	leave
	.cfi_restore 5
	.cfi_def_cfa 4, 4
	.loc 1 3280 0
	cmovne	%edx, %eax
	.loc 1 3282 0
	ret
	.cfi_endproc
.LFE65:
	.size	bt_keys_find_addr, .-bt_keys_find_addr
	.section	.text.unlikely.bt_keys_find_addr
.LCOLDE6:
	.section	.text.bt_keys_find_addr
.LHOTE6:
	.section	.text.unlikely.bt_keys_add_type,"ax",@progbits
.LCOLDB7:
	.section	.text.bt_keys_add_type,"ax",@progbits
.LHOTB7:
	.globl	bt_keys_add_type
	.type	bt_keys_add_type, @function
bt_keys_add_type:
.LFB66:
	.loc 1 3284 0
	.cfi_startproc
.LVL45:
	pushl	%ebp
	.cfi_def_cfa_offset 8
	.cfi_offset 5, -8
	movl	%esp, %ebp
	.cfi_def_cfa_register 5
	.loc 1 3284 0
	movl	8(%ebp), %eax
	.loc 1 3285 0
	movl	12(%ebp), %edx
	orw	%dx, 12(%eax)
	.loc 1 3286 0
	popl	%ebp
	.cfi_restore 5
	.cfi_def_cfa 4, 4
	ret
	.cfi_endproc
.LFE66:
	.size	bt_keys_add_type, .-bt_keys_add_type
	.section	.text.unlikely.bt_keys_add_type
.LCOLDE7:
	.section	.text.bt_keys_add_type
.LHOTE7:
	.section	.text.unlikely.bt_keys_clear_all,"ax",@progbits
.LCOLDB8:
	.section	.text.bt_keys_clear_all,"ax",@progbits
.LHOTB8:
	.globl	bt_keys_clear_all
	.type	bt_keys_clear_all, @function
bt_keys_clear_all:
.LFB68:
	.loc 1 3296 0
	.cfi_startproc
	pushl	%ebp
	.cfi_def_cfa_offset 8
	.cfi_offset 5, -8
	movl	%esp, %ebp
	.cfi_def_cfa_register 5
	subl	$16, %esp
	.loc 1 3297 0
	pushl	$bt_keys_clear
	pushl	$63
	call	bt_keys_foreach
.LVL46:
	.loc 1 3298 0
	addl	$16, %esp
	leave
	.cfi_restore 5
	.cfi_def_cfa 4, 4
	ret
	.cfi_endproc
.LFE68:
	.size	bt_keys_clear_all, .-bt_keys_clear_all
	.section	.text.unlikely.bt_keys_clear_all
.LCOLDE8:
	.section	.text.bt_keys_clear_all
.LHOTE8:
	.section	.bss.key_pool,"aw",@nobits
	.align 32
	.type	key_pool, @object
	.size	key_pool, 96
key_pool:
	.zero	96
	.text
.Letext0:
	.section	.text.unlikely.bt_keys_clear
.Letext_cold0:
	.section	.note.GNU-stack,"",@progbits
