	.file	"kvmgr.c"
	.text
.Ltext0:
	.section	.text.unlikely.utils_crc8,"ax",@progbits
.LCOLDB0:
	.section	.text.utils_crc8,"ax",@progbits
.LHOTB0:
	.section	.text.unlikely.utils_crc8
.Ltext_cold0:
	.section	.text.utils_crc8
	.type	utils_crc8, @function
utils_crc8:
.LFB16:
	.file 1 "kernel/modules/fs/kv/kvmgr.c"
	.loc 1 106 0
	.cfi_startproc
.LVL0:
	pushl	%ebp
	.cfi_def_cfa_offset 8
	.cfi_offset 5, -8
	movl	%eax, %ecx
	.loc 1 107 0
	xorl	%eax, %eax
.LVL1:
	.loc 1 106 0
	movl	%esp, %ebp
	.cfi_def_cfa_register 5
	pushl	%ebx
	.cfi_offset 3, -12
.LVL2:
.L2:
	.loc 1 110 0
	decl	%edx
.LVL3:
	cmpw	$-1, %dx
	je	.L10
.LVL4:
	.loc 1 111 0
	xorb	(%ecx), %al
.LVL5:
	movb	$8, %bl
.LVL6:
.L5:
	.loc 1 113 0
	testb	%al, %al
	jns	.L3
	.loc 1 114 0
	addl	%eax, %eax
.LVL7:
	xorl	$49, %eax
.LVL8:
	jmp	.L4
.LVL9:
.L3:
	.loc 1 116 0
	addl	%eax, %eax
.LVL10:
.L4:
	.loc 1 112 0 discriminator 2
	decb	%bl
.LVL11:
	jne	.L5
	incl	%ecx
.LVL12:
	jmp	.L2
.LVL13:
.L10:
	.loc 1 122 0
	popl	%ebx
	.cfi_restore 3
	popl	%ebp
	.cfi_restore 5
	.cfi_def_cfa 4, 4
	ret
	.cfi_endproc
.LFE16:
	.size	utils_crc8, .-utils_crc8
	.section	.text.unlikely.utils_crc8
.LCOLDE0:
	.section	.text.utils_crc8
.LHOTE0:
	.section	.text.unlikely.kv_item_free,"ax",@progbits
.LCOLDB1:
	.section	.text.kv_item_free,"ax",@progbits
.LHOTB1:
	.type	kv_item_free, @function
kv_item_free:
.LFB21:
	.loc 1 151 0
	.cfi_startproc
.LVL14:
	.loc 1 152 0
	testl	%eax, %eax
	je	.L22
	.loc 1 151 0
	pushl	%ebp
	.cfi_def_cfa_offset 8
	.cfi_offset 5, -8
	movl	%esp, %ebp
	.cfi_def_cfa_register 5
	pushl	%ebx
	.cfi_offset 3, -12
	movl	%eax, %ebx
	pushl	%edx
	.loc 1 153 0
	movl	8(%eax), %eax
.LVL15:
	testl	%eax, %eax
	je	.L13
	.loc 1 154 0
	subl	$12, %esp
	pushl	%eax
	call	aos_free
.LVL16:
	addl	$16, %esp
.L13:
	.loc 1 156 0
	subl	$12, %esp
	pushl	%ebx
	call	aos_free
.LVL17:
	addl	$16, %esp
	.loc 1 158 0
	movl	-4(%ebp), %ebx
.LVL18:
	leave
	.cfi_restore 5
	.cfi_restore 3
	.cfi_def_cfa 4, 4
.L22:
	ret
	.cfi_endproc
.LFE21:
	.size	kv_item_free, .-kv_item_free
	.section	.text.unlikely.kv_item_free
.LCOLDE1:
	.section	.text.kv_item_free
.LHOTE1:
	.section	.text.unlikely.raw_read,"ax",@progbits
.LCOLDB2:
	.section	.text.raw_read,"ax",@progbits
.LHOTB2:
	.type	raw_read, @function
raw_read:
.LFB17:
	.loc 1 125 0
	.cfi_startproc
.LVL19:
	pushl	%ebp
	.cfi_def_cfa_offset 8
	.cfi_offset 5, -8
	movl	%esp, %ebp
	.cfi_def_cfa_register 5
	subl	$24, %esp
	.loc 1 125 0
	movl	%eax, -12(%ebp)
	.loc 1 126 0
	leal	-12(%ebp), %eax
.LVL20:
	pushl	%ecx
	pushl	%edx
	pushl	%eax
	pushl	$6
	call	hal_flash_read
.LVL21:
	.loc 1 127 0
	leave
	.cfi_restore 5
	.cfi_def_cfa 4, 4
.LVL22:
	ret
	.cfi_endproc
.LFE17:
	.size	raw_read, .-raw_read
	.section	.text.unlikely.raw_read
.LCOLDE2:
	.section	.text.raw_read
.LHOTE2:
	.section	.text.unlikely.__item_find_cb,"ax",@progbits
.LCOLDB3:
	.section	.text.__item_find_cb,"ax",@progbits
.LHOTB3:
	.type	__item_find_cb, @function
__item_find_cb:
.LFB27:
	.loc 1 320 0
	.cfi_startproc
.LVL23:
	pushl	%ebp
	.cfi_def_cfa_offset 8
	.cfi_offset 5, -8
	.loc 1 321 0
	xorl	%eax, %eax
	.loc 1 320 0
	movl	%esp, %ebp
	.cfi_def_cfa_register 5
	pushl	%edi
	pushl	%esi
	pushl	%ebx
	.cfi_offset 7, -12
	.cfi_offset 6, -16
	.cfi_offset 3, -20
	.loc 1 321 0
	orl	$-1, %esi
	movl	%esi, %ecx
	.loc 1 320 0
	subl	$12, %esp
	.loc 1 320 0
	movl	8(%ebp), %ebx
	.loc 1 321 0
	movl	12(%ebp), %edi
	repnz scasb
.LVL24:
	movzbl	3(%ebx), %eax
	notl	%ecx
	decl	%ecx
	cmpl	%ecx, %eax
	jne	.L26
	.loc 1 325 0
	movzwl	4(%ebx), %edx
	subl	$12, %esp
	addl	%edx, %eax
	pushl	%eax
	call	aos_malloc
.LVL25:
	.loc 1 326 0
	addl	$16, %esp
	testl	%eax, %eax
	.loc 1 325 0
	movl	%eax, %edx
	movl	%eax, 8(%ebx)
	.loc 1 327 0
	movl	$-12, %ecx
	.loc 1 326 0
	je	.L27
	.loc 1 330 0
	movzwl	14(%ebx), %eax
	movzwl	12(%ebx), %ecx
	addl	$8, %eax
	call	raw_read
.LVL26:
	testl	%eax, %eax
	.loc 1 331 0
	movl	$-5, %ecx
	.loc 1 330 0
	jne	.L27
	.loc 1 334 0
	movl	12(%ebp), %edi
	movl	%esi, %ecx
	repnz scasb
	pushl	%eax
	notl	%ecx
	decl	%ecx
	pushl	%ecx
	pushl	12(%ebp)
	pushl	8(%ebx)
	call	memcmp
.LVL27:
	addl	$16, %esp
	testl	%eax, %eax
	movl	%eax, %ecx
	je	.L27
.L26:
	.loc 1 338 0
	movl	$-11, %ecx
.L27:
	.loc 1 339 0
	leal	-12(%ebp), %esp
	movl	%ecx, %eax
	popl	%ebx
	.cfi_restore 3
	popl	%esi
	.cfi_restore 6
	popl	%edi
	.cfi_restore 7
	popl	%ebp
	.cfi_restore 5
	.cfi_def_cfa 4, 4
	ret
	.cfi_endproc
.LFE27:
	.size	__item_find_cb, .-__item_find_cb
	.section	.text.unlikely.__item_find_cb
.LCOLDE3:
	.section	.text.__item_find_cb
.LHOTE3:
	.section	.rodata.str1.1,"aMS",@progbits,1
.LC4:
	.string	"%s = %s\r\n"
	.section	.text.unlikely.__item_print_cb,"ax",@progbits
.LCOLDB5:
	.section	.text.__item_print_cb,"ax",@progbits
.LHOTB5:
	.type	__item_print_cb, @function
__item_print_cb:
.LFB38:
	.loc 1 762 0
	.cfi_startproc
.LVL28:
	pushl	%ebp
	.cfi_def_cfa_offset 8
	.cfi_offset 5, -8
	movl	%esp, %ebp
	.cfi_def_cfa_register 5
	pushl	%edi
	pushl	%esi
	pushl	%ebx
	subl	$40, %esp
	.cfi_offset 7, -12
	.cfi_offset 6, -16
	.cfi_offset 3, -20
	.loc 1 762 0
	movl	8(%ebp), %ebx
	.loc 1 765 0
	movzbl	3(%ebx), %eax
	incl	%eax
	pushl	%eax
	call	aos_malloc
.LVL29:
	movl	%eax, %esi
.LVL30:
	.loc 1 766 0
	addl	$16, %esp
	.loc 1 767 0
	movl	$-12, %eax
.LVL31:
	.loc 1 766 0
	testl	%esi, %esi
	je	.L35
	.loc 1 769 0
	movzbl	3(%ebx), %ecx
	xorl	%eax, %eax
	movl	%esi, %edi
	.loc 1 770 0
	movl	%esi, %edx
	.loc 1 769 0
	incl	%ecx
	rep stosb
	.loc 1 770 0
	movzwl	14(%ebx), %eax
	movzbl	3(%ebx), %ecx
	addl	$8, %eax
	call	raw_read
.LVL32:
	.loc 1 772 0
	movzwl	4(%ebx), %eax
	subl	$12, %esp
	incl	%eax
	pushl	%eax
	call	aos_malloc
.LVL33:
	.loc 1 773 0
	addl	$16, %esp
	testl	%eax, %eax
	.loc 1 772 0
	movl	%eax, -28(%ebp)
.LVL34:
	.loc 1 773 0
	jne	.L36
	.loc 1 774 0
	subl	$12, %esp
	pushl	%esi
	call	aos_free
.LVL35:
	.loc 1 775 0
	addl	$16, %esp
	movl	$-12, %eax
	jmp	.L35
.LVL36:
.L36:
	.loc 1 777 0
	movzwl	4(%ebx), %ecx
	movl	-28(%ebp), %edi
	xorl	%eax, %eax
.LVL37:
	incl	%ecx
	rep stosb
	.loc 1 778 0
	movzwl	14(%ebx), %edx
	movzbl	3(%ebx), %eax
	movzwl	4(%ebx), %ecx
	leal	8(%edx,%eax), %eax
	movl	-28(%ebp), %edx
	call	raw_read
.LVL38:
	.loc 1 780 0
	pushl	%eax
	pushl	-28(%ebp)
	pushl	%esi
	pushl	$.LC4
	call	aos_cli_printf
.LVL39:
	.loc 1 781 0
	movl	%esi, (%esp)
	call	aos_free
.LVL40:
	.loc 1 782 0
	popl	%edx
	pushl	-28(%ebp)
	call	aos_free
.LVL41:
	.loc 1 784 0
	addl	$16, %esp
	movl	$-11, %eax
.LVL42:
.L35:
	.loc 1 785 0
	leal	-12(%ebp), %esp
	popl	%ebx
	.cfi_restore 3
	popl	%esi
	.cfi_restore 6
.LVL43:
	popl	%edi
	.cfi_restore 7
	popl	%ebp
	.cfi_restore 5
	.cfi_def_cfa 4, 4
	ret
	.cfi_endproc
.LFE38:
	.size	__item_print_cb, .-__item_print_cb
	.section	.text.unlikely.__item_print_cb
.LCOLDE5:
	.section	.text.__item_print_cb
.LHOTE5:
	.section	.rodata.str1.1
.LC6:
	.string	"kv-gc"
	.section	.text.unlikely.trigger_gc,"ax",@progbits
.LCOLDB7:
	.section	.text.trigger_gc,"ax",@progbits
.LHOTB7:
	.type	trigger_gc, @function
trigger_gc:
.LFB20:
	.loc 1 140 0
	.cfi_startproc
	.loc 1 141 0
	cmpb	$0, g_kv_mgr+1
	jne	.L43
	.loc 1 140 0
	pushl	%ebp
	.cfi_def_cfa_offset 8
	.cfi_offset 5, -8
	movl	%esp, %ebp
	.cfi_def_cfa_register 5
	subl	$8, %esp
.LBB4:
.LBB5:
	.loc 1 145 0
	movb	$0, g_kv_mgr+2
	.loc 1 147 0
	pushl	$1024
	pushl	$0
	pushl	$aos_kv_gc
	pushl	$.LC6
	.loc 1 146 0
	movb	$1, g_kv_mgr+1
	.loc 1 147 0
	call	aos_task_new
.LVL44:
	addl	$16, %esp
.LBE5:
.LBE4:
	.loc 1 148 0
	leave
	.cfi_restore 5
	.cfi_def_cfa 4, 4
.L43:
	ret
	.cfi_endproc
.LFE20:
	.size	trigger_gc, .-trigger_gc
	.section	.text.unlikely.trigger_gc
.LCOLDE7:
	.section	.text.trigger_gc
.LHOTE7:
	.section	.text.unlikely.kv_item_store,"ax",@progbits
.LCOLDB8:
	.section	.text.kv_item_store,"ax",@progbits
.LHOTB8:
	.type	kv_item_store, @function
kv_item_store:
.LFB31:
	.loc 1 465 0
	.cfi_startproc
.LVL45:
	pushl	%ebp
	.cfi_def_cfa_offset 8
	.cfi_offset 5, -8
	movl	%esp, %ebp
	.cfi_def_cfa_register 5
	pushl	%edi
	pushl	%esi
	pushl	%ebx
	.cfi_offset 7, -12
	.cfi_offset 6, -16
	.cfi_offset 3, -20
	.loc 1 474 0
	xorl	%esi, %esi
	.loc 1 465 0
	subl	$72, %esp
	.loc 1 465 0
	movl	%eax, -56(%ebp)
	.loc 1 474 0
	movl	-56(%ebp), %edi
	.loc 1 465 0
	movl	%gs:20, %eax
	movl	%eax, -28(%ebp)
	xorl	%eax, %eax
.LVL46:
	movl	%ecx, -52(%ebp)
	movl	%edx, -64(%ebp)
	.loc 1 474 0
	orl	$-1, %ecx
.LVL47:
	movl	%esi, %eax
	.loc 1 476 0
	movzwl	-52(%ebp), %edx
.LVL48:
	.loc 1 474 0
	repnz scasb
.LVL49:
	notl	%ecx
	decl	%ecx
	movzbl	%cl, %eax
	.loc 1 478 0
	movzbl	%cl, %ecx
	addl	-52(%ebp), %ecx
	.loc 1 474 0
	movl	%eax, -60(%ebp)
	sall	$24, %eax
	orl	$61001, %eax
	movl	%eax, -68(%ebp)
	.loc 1 476 0
	movl	8(%ebp), %eax
	.loc 1 478 0
	movw	%cx, -44(%ebp)
	.loc 1 476 0
	sall	$16, %eax
	orl	%eax, %edx
	.loc 1 478 0
	movl	%ecx, %eax
	addl	$11, %eax
	.loc 1 476 0
	movl	%edx, -72(%ebp)
	.loc 1 478 0
	andl	$-4, %eax
	movw	%ax, -42(%ebp)
.LVL50:
	.loc 1 479 0
	movzwl	%ax, %eax
.LVL51:
	pushl	%eax
	movl	%eax, -48(%ebp)
	call	aos_malloc
.LVL52:
	movl	%eax, %ebx
.LVL53:
	.loc 1 480 0
	addl	$16, %esp
	movl	$-12, %eax
.LVL54:
	testl	%ebx, %ebx
	je	.L45
	.loc 1 484 0
	movl	-48(%ebp), %ecx
	movl	%esi, %eax
	movl	%ebx, %edi
	.loc 1 485 0
	leal	8(%ebx), %edx
.LVL55:
	.loc 1 486 0
	movl	-56(%ebp), %esi
	.loc 1 484 0
	rep stosb
	.loc 1 486 0
	movl	%edx, %edi
	movl	-60(%ebp), %ecx
	.loc 1 490 0
	movzwl	-44(%ebp), %edx
.LVL56:
	.loc 1 486 0
	rep movsb
.LVL57:
	.loc 1 488 0
	movzwl	-52(%ebp), %ecx
	movl	-64(%ebp), %esi
	.loc 1 486 0
	movl	%edi, %eax
.LVL58:
	.loc 1 490 0
	subl	-60(%ebp), %eax
.LVL59:
	.loc 1 488 0
	rep movsb
.LVL60:
	.loc 1 490 0
	call	utils_crc8
.LVL61:
	movzbl	%al, %eax
	sall	$16, %eax
	orl	-68(%ebp), %eax
	.loc 1 491 0
	movl	%eax, (%ebx)
	movl	-72(%ebp), %eax
	movl	%eax, 4(%ebx)
.LVL62:
.LBB10:
.LBB11:
	.loc 1 197 0
	movl	g_kv_mgr+4, %eax
	shrw	$12, %ax
.LVL63:
	movzwl	%ax, %eax
	movzwl	g_kv_mgr+16(,%eax,4), %eax
.LVL64:
	cmpw	%ax, -42(%ebp)
	jnb	.L46
	.loc 1 198 0
	subl	-48(%ebp), %eax
	cmpl	$647, %eax
	jg	.L47
	cmpb	$1, g_kv_mgr+3
	ja	.L47
	.loc 1 199 0
	call	trigger_gc
.LVL65:
.L47:
	.loc 1 201 0
	movl	g_kv_mgr+4, %esi
.LVL66:
.LBE11:
.LBE10:
	.loc 1 494 0
	testw	%si, %si
	je	.L55
	jmp	.L48
.LVL67:
.L46:
.LBB13:
.LBB12:
	.loc 1 225 0
	call	trigger_gc
.LVL68:
.L55:
.LBE12:
.LBE13:
	.loc 1 502 0
	movl	$-28, %edi
	jmp	.L49
.L48:
	movzwl	%si, %eax
.LBB14:
.LBB15:
	.loc 1 131 0
	pushl	-48(%ebp)
	pushl	%ebx
	movl	%eax, -32(%ebp)
.LVL69:
	leal	-32(%ebp), %eax
.LVL70:
	pushl	%eax
.LVL71:
	pushl	$6
.LVL72:
	call	hal_flash_write
.LVL73:
.LBE15:
.LBE14:
	.loc 1 496 0
	addl	$16, %esp
	testl	%eax, %eax
.LBB17:
.LBB16:
	.loc 1 131 0
	movl	%eax, %edi
.LVL74:
.LBE16:
.LBE17:
	.loc 1 496 0
	jne	.L49
	.loc 1 497 0
	addw	-42(%ebp), %si
	.loc 1 499 0
	movw	-42(%ebp), %ax
	.loc 1 497 0
	movw	%si, g_kv_mgr+4
.LVL75:
	.loc 1 499 0
	shrw	$12, %si
.LVL76:
	movzwl	%si, %esi
	subw	%ax, g_kv_mgr+16(,%esi,4)
.LVL77:
.L49:
	.loc 1 506 0
	subl	$12, %esp
	pushl	%ebx
	call	aos_free
.LVL78:
	addl	$16, %esp
	movl	%edi, %eax
.LVL79:
.L45:
	.loc 1 509 0
	movl	-28(%ebp), %ebx
	xorl	%gs:20, %ebx
.LVL80:
	je	.L51
	call	__stack_chk_fail
.LVL81:
.L51:
	leal	-12(%ebp), %esp
	popl	%ebx
	.cfi_restore 3
	popl	%esi
	.cfi_restore 6
	popl	%edi
	.cfi_restore 7
	popl	%ebp
	.cfi_restore 5
	.cfi_def_cfa 4, 4
	ret
	.cfi_endproc
.LFE31:
	.size	kv_item_store, .-kv_item_store
	.section	.text.unlikely.kv_item_store
.LCOLDE8:
	.section	.text.kv_item_store
.LHOTE8:
	.section	.text.unlikely.kv_state_set,"ax",@progbits
.LCOLDB9:
	.section	.text.kv_state_set,"ax",@progbits
.LHOTB9:
	.type	kv_state_set, @function
kv_state_set:
.LFB22:
	.loc 1 161 0
	.cfi_startproc
.LVL82:
	pushl	%ebp
	.cfi_def_cfa_offset 8
	.cfi_offset 5, -8
	movzwl	%ax, %eax
	incl	%eax
.LVL83:
	movl	%esp, %ebp
	.cfi_def_cfa_register 5
	subl	$40, %esp
	movl	%eax, -16(%ebp)
.LVL84:
.LBB20:
.LBB21:
	.loc 1 131 0
	leal	-28(%ebp), %eax
.LVL85:
	pushl	$1
.LBE21:
.LBE20:
	.loc 1 161 0
	movl	%gs:20, %ecx
	movl	%ecx, -12(%ebp)
	xorl	%ecx, %ecx
.LBB24:
.LBB22:
	.loc 1 131 0
	pushl	%eax
	leal	-16(%ebp), %eax
.LVL86:
.LBE22:
.LBE24:
	.loc 1 161 0
	movb	%dl, -28(%ebp)
.LBB25:
.LBB23:
	.loc 1 131 0
	pushl	%eax
.LVL87:
	pushl	$6
.LVL88:
	call	hal_flash_write
.LVL89:
.LBE23:
.LBE25:
	.loc 1 163 0
	movl	-12(%ebp), %ecx
	xorl	%gs:20, %ecx
	je	.L57
	call	__stack_chk_fail
.LVL90:
.L57:
	leave
	.cfi_restore 5
	.cfi_def_cfa 4, 4
.LVL91:
	ret
	.cfi_endproc
.LFE22:
	.size	kv_state_set, .-kv_state_set
	.section	.text.unlikely.kv_state_set
.LCOLDE9:
	.section	.text.kv_state_set
.LHOTE9:
	.section	.text.unlikely.kv_item_traverse,"ax",@progbits
.LCOLDB10:
	.section	.text.kv_item_traverse,"ax",@progbits
.LHOTB10:
	.type	kv_item_traverse, @function
kv_item_traverse:
.LFB29:
	.loc 1 375 0
	.cfi_startproc
.LVL92:
	pushl	%ebp
	.cfi_def_cfa_offset 8
	.cfi_offset 5, -8
	movl	%esp, %ebp
	.cfi_def_cfa_register 5
	pushl	%edi
	pushl	%esi
	pushl	%ebx
	subl	$44, %esp
	.cfi_offset 7, -12
	.cfi_offset 6, -16
	.cfi_offset 3, -20
	.loc 1 375 0
	movl	%edx, -32(%ebp)
	movl	%eax, -44(%ebp)
	.loc 1 378 0
	movl	-32(%ebp), %eax
.LVL93:
	.loc 1 375 0
	movl	%ecx, -48(%ebp)
	.loc 1 378 0
	sall	$12, %eax
	.loc 1 379 0
	leal	4096(%eax), %ecx
.LVL94:
	.loc 1 378 0
	leal	4(%eax), %esi
.LVL95:
	.loc 1 409 0
	movzwl	%ax, %eax
	movl	%eax, -40(%ebp)
	.loc 1 379 0
	movw	%cx, -26(%ebp)
.LVL96:
	.loc 1 408 0
	movzbl	-32(%ebp), %ecx
.LVL97:
	movl	%ecx, -36(%ebp)
.LVL98:
.L73:
	.loc 1 384 0
	subl	$12, %esp
	pushl	$16
	call	aos_malloc
.LVL99:
	.loc 1 385 0
	addl	$16, %esp
	testl	%eax, %eax
	.loc 1 384 0
	movl	%eax, %ebx
.LVL100:
	.loc 1 385 0
	je	.L83
	.loc 1 388 0
	xorl	%eax, %eax
.LVL101:
	movl	$4, %ecx
	movl	%ebx, %edi
	rep stosl
.LVL102:
	.loc 1 391 0
	movl	%ebx, %edx
	movzwl	%si, %eax
	movl	$8, %ecx
	call	raw_read
.LVL103:
	testl	%eax, %eax
	jne	.L84
	.loc 1 396 0
	movb	(%ebx), %al
	cmpb	$73, %al
	je	.L62
	.loc 1 397 0
	incb	%al
	jne	.L63
	.loc 1 397 0 is_stmt 0 discriminator 1
	cmpb	$-1, 1(%ebx)
	jne	.L63
	.loc 1 398 0 is_stmt 1
	movl	%ebx, %eax
	call	kv_item_free
.LVL104:
	.loc 1 399 0
	jmp	.L64
.L63:
	.loc 1 401 0
	movw	$-1, 4(%ebx)
.L62:
	.loc 1 404 0
	movw	4(%ebx), %ax
	cmpw	$512, %ax
	ja	.L65
	.loc 1 404 0 is_stmt 0 discriminator 1
	movzbl	3(%ebx), %edx
	.loc 1 405 0 is_stmt 1 discriminator 1
	movb	%dl, %cl
	decb	%cl
	js	.L65
	testw	%ax, %ax
	jne	.L66
.L65:
	.loc 1 407 0
	movl	%ebx, %eax
	.loc 1 406 0
	addl	$8, %esi
.LVL105:
	.loc 1 407 0
	call	kv_item_free
.LVL106:
	.loc 1 408 0
	movl	-36(%ebp), %eax
	leal	4(%eax), %ebx
.LVL107:
	cmpb	$-52, g_kv_mgr+2(,%ebx,4)
	jne	.L68
	.loc 1 409 0
	movl	-40(%ebp), %eax
	movl	$68, %edx
	call	kv_state_set
.LVL108:
	.loc 1 410 0
	movb	$68, g_kv_mgr+2(,%ebx,4)
	jmp	.L68
.LVL109:
.L66:
	.loc 1 415 0
	addl	%edx, %eax
	leal	11(%eax), %edi
	andl	$-4, %edi
	.loc 1 417 0
	cmpb	$-18, 1(%ebx)
	.loc 1 415 0
	movw	%di, -28(%ebp)
.LVL110:
	.loc 1 417 0
	jne	.L69
	.loc 1 419 0
	movw	%ax, 12(%ebx)
	.loc 1 418 0
	movw	%si, 14(%ebx)
	.loc 1 420 0
	pushl	%eax
	pushl	%eax
	pushl	-48(%ebp)
	pushl	%ebx
	movl	-44(%ebp), %eax
	call	*%eax
.LVL111:
	.loc 1 421 0
	addl	$16, %esp
	testl	%eax, %eax
	je	.L76
	.loc 1 423 0
	cmpl	$-11, %eax
	je	.L71
.LVL112:
.L84:
	.loc 1 424 0
	movl	%ebx, %eax
	call	kv_item_free
.LVL113:
	jmp	.L83
.LVL114:
.L69:
	.loc 1 428 0
	movl	-36(%ebp), %eax
	leal	4(%eax), %edi
.LVL115:
	cmpb	$-52, g_kv_mgr+2(,%edi,4)
	jne	.L71
	.loc 1 429 0
	movl	-40(%ebp), %eax
	movl	$68, %edx
	call	kv_state_set
.LVL116:
	.loc 1 430 0
	movb	$68, g_kv_mgr+2(,%edi,4)
.L71:
	.loc 1 434 0
	movl	%ebx, %eax
	call	kv_item_free
.LVL117:
	.loc 1 435 0
	addl	-28(%ebp), %esi
.LVL118:
.L68:
	.loc 1 436 0
	movzwl	-26(%ebp), %edx
	movzwl	%si, %eax
	addl	$8, %eax
	cmpl	%eax, %edx
	jg	.L73
.L64:
	.loc 1 438 0
	movw	-26(%ebp), %dx
	movzbl	-32(%ebp), %eax
	movl	$8, %ecx
	subl	%esi, %edx
	cmpw	-26(%ebp), %si
	cmovnb	%ecx, %edx
	movw	%dx, g_kv_mgr+16(,%eax,4)
.L83:
	.loc 1 439 0
	xorl	%eax, %eax
	jmp	.L60
.LVL119:
.L76:
	.loc 1 384 0
	movl	%ebx, %eax
.LVL120:
.L60:
	.loc 1 440 0
	leal	-12(%ebp), %esp
	popl	%ebx
	.cfi_restore 3
	popl	%esi
	.cfi_restore 6
.LVL121:
	popl	%edi
	.cfi_restore 7
	popl	%ebp
	.cfi_restore 5
	.cfi_def_cfa 4, 4
.LVL122:
	ret
	.cfi_endproc
.LFE29:
	.size	kv_item_traverse, .-kv_item_traverse
	.section	.text.unlikely.kv_item_traverse
.LCOLDE10:
	.section	.text.kv_item_traverse
.LHOTE10:
	.section	.text.unlikely.kv_item_get,"ax",@progbits
.LCOLDB11:
	.section	.text.kv_item_get,"ax",@progbits
.LHOTB11:
	.type	kv_item_get, @function
kv_item_get:
.LFB30:
	.loc 1 443 0
	.cfi_startproc
.LVL123:
	pushl	%ebp
	.cfi_def_cfa_offset 8
	.cfi_offset 5, -8
	movl	%esp, %ebp
	.cfi_def_cfa_register 5
	pushl	%ebx
	pushl	%ecx
	.cfi_offset 3, -12
	.loc 1 448 0
	cmpb	$-18, g_kv_mgr+18
	.loc 1 443 0
	movl	%eax, %ebx
	.loc 1 448 0
	je	.L86
	.loc 1 449 0
	movl	%eax, %ecx
	xorl	%edx, %edx
	movl	$__item_find_cb, %eax
.LVL124:
	call	kv_item_traverse
.LVL125:
	.loc 1 450 0
	testl	%eax, %eax
	jne	.L89
.LVL126:
.L86:
	.loc 1 448 0
	cmpb	$-18, g_kv_mgr+22
	jne	.L88
.L90:
.LVL127:
	.loc 1 456 0
	xorl	%eax, %eax
	jmp	.L89
.LVL128:
.L88:
	.loc 1 449 0
	movl	%ebx, %ecx
	movl	$1, %edx
	movl	$__item_find_cb, %eax
	call	kv_item_traverse
.LVL129:
	.loc 1 450 0
	testl	%eax, %eax
	je	.L90
.LVL130:
.L89:
	.loc 1 457 0
	popl	%edx
	popl	%ebx
	.cfi_restore 3
.LVL131:
	popl	%ebp
	.cfi_restore 5
	.cfi_def_cfa 4, 4
	ret
	.cfi_endproc
.LFE30:
	.size	kv_item_get, .-kv_item_get
	.section	.text.unlikely.kv_item_get
.LCOLDE11:
	.section	.text.kv_item_get
.LHOTE11:
	.section	.text.unlikely.kv_item_del,"ax",@progbits
.LCOLDB12:
	.section	.text.kv_item_del,"ax",@progbits
.LHOTB12:
	.type	kv_item_del, @function
kv_item_del:
.LFB25:
	.loc 1 230 0
	.cfi_startproc
.LVL132:
	pushl	%ebp
	.cfi_def_cfa_offset 8
	.cfi_offset 5, -8
	movl	%esp, %ebp
	.cfi_def_cfa_register 5
	pushl	%edi
	pushl	%esi
	pushl	%ebx
	subl	$60, %esp
	.cfi_offset 7, -12
	.cfi_offset 6, -16
	.cfi_offset 3, -20
	.loc 1 230 0
	movl	%eax, -60(%ebp)
	movl	%gs:20, %eax
	movl	%eax, -28(%ebp)
	xorl	%eax, %eax
.LVL133:
	.loc 1 238 0
	testl	%edx, %edx
	jne	.L96
	.loc 1 239 0
	movl	-60(%ebp), %eax
	movw	14(%eax), %ax
	movw	%ax, -56(%ebp)
.LVL134:
	jmp	.L97
.LVL135:
.L96:
	.loc 1 240 0
	decl	%edx
.LVL136:
	.loc 1 274 0
	movl	$-22, %ebx
	.loc 1 240 0
	jne	.L98
	.loc 1 241 0
	movl	-60(%ebp), %eax
	.loc 1 242 0
	leal	-36(%ebp), %edx
	movl	$2, %ecx
	movl	%edx, %edi
	.loc 1 241 0
	movw	6(%eax), %ax
	movw	%ax, -56(%ebp)
.LVL137:
	.loc 1 242 0
	xorl	%eax, %eax
.LVL138:
	rep stosl
	.loc 1 243 0
	movzwl	-56(%ebp), %eax
	movl	$8, %ecx
	movl	%eax, -64(%ebp)
	call	raw_read
.LVL139:
	testl	%eax, %eax
	movl	%eax, %ebx
	jne	.L105
	.loc 1 247 0
	cmpb	$73, -36(%ebp)
	je	.L99
.LVL140:
.L100:
	.loc 1 250 0
	xorl	%ebx, %ebx
	jmp	.L98
.LVL141:
.L99:
	.loc 1 247 0 discriminator 1
	cmpb	$-18, -35(%ebp)
	jne	.L100
	.loc 1 248 0
	movl	-60(%ebp), %edi
	.loc 1 249 0
	movzbl	-33(%ebp), %eax
	.loc 1 248 0
	cmpb	3(%edi), %al
	jne	.L100
	.loc 1 253 0
	subl	$12, %esp
	pushl	%eax
	call	aos_malloc
.LVL142:
	.loc 1 254 0
	addl	$16, %esp
	testl	%eax, %eax
	.loc 1 253 0
	movl	%eax, %esi
.LVL143:
	.loc 1 254 0
	je	.L106
	.loc 1 257 0
	movzbl	-33(%ebp), %eax
.LVL144:
	subl	$12, %esp
	pushl	%eax
	call	aos_malloc
.LVL145:
	.loc 1 258 0
	addl	$16, %esp
	testl	%eax, %eax
	.loc 1 257 0
	movl	%eax, %edi
.LVL146:
	.loc 1 258 0
	jne	.L101
	.loc 1 259 0
	subl	$12, %esp
	pushl	%esi
	call	aos_free
.LVL147:
	.loc 1 260 0
	addl	$16, %esp
	jmp	.L106
.LVL148:
.L101:
	.loc 1 263 0
	movzbl	-33(%ebp), %ecx
	movl	-64(%ebp), %eax
.LVL149:
	movl	%esi, %edx
	addl	$8, %eax
	call	raw_read
.LVL150:
	.loc 1 264 0
	movl	-60(%ebp), %eax
	movzbl	-33(%ebp), %ecx
	movl	%edi, %edx
	movzwl	14(%eax), %eax
	addl	$8, %eax
	call	raw_read
.LVL151:
	.loc 1 265 0
	pushl	%eax
	movzbl	-33(%ebp), %eax
	pushl	%eax
	pushl	%edi
	pushl	%esi
	call	memcmp
.LVL152:
	addl	$16, %esp
	testl	%eax, %eax
	je	.L102
	.loc 1 266 0
	subl	$12, %esp
	pushl	%esi
	call	aos_free
.LVL153:
	.loc 1 267 0
	movl	%edi, (%esp)
	call	aos_free
.LVL154:
	.loc 1 268 0
	addl	$16, %esp
	jmp	.L98
.L102:
	.loc 1 271 0
	subl	$12, %esp
	pushl	%esi
	call	aos_free
.LVL155:
	.loc 1 272 0
	movl	%edi, (%esp)
	call	aos_free
.LVL156:
	addl	$16, %esp
.LVL157:
.L97:
	.loc 1 277 0
	movzwl	-56(%ebp), %eax
	xorl	%edx, %edx
	call	kv_state_set
.LVL158:
	testl	%eax, %eax
	movl	%eax, %ebx
.LVL159:
	jne	.L98
.LVL160:
	.loc 1 282 0
	movl	-56(%ebp), %esi
	shrw	$12, %si
	movzwl	%si, %esi
	addl	$4, %esi
	cmpb	$-52, g_kv_mgr+2(,%esi,4)
	jne	.L100
	.loc 1 283 0
	movl	-56(%ebp), %eax
.LVL161:
	movl	$68, %edx
	andl	$61440, %eax
	call	kv_state_set
.LVL162:
	testl	%eax, %eax
	movl	%eax, %ebx
.LVL163:
	jne	.L98
	.loc 1 286 0
	movb	$68, g_kv_mgr+2(,%esi,4)
	jmp	.L98
.LVL164:
.L105:
	.loc 1 244 0
	movl	$-5, %ebx
	jmp	.L98
.LVL165:
.L106:
	.loc 1 255 0
	movl	$-12, %ebx
.LVL166:
.L98:
	.loc 1 290 0
	movl	-28(%ebp), %ecx
	xorl	%gs:20, %ecx
	movl	%ebx, %eax
	je	.L103
	call	__stack_chk_fail
.LVL167:
.L103:
	leal	-12(%ebp), %esp
	popl	%ebx
	.cfi_restore 3
	popl	%esi
	.cfi_restore 6
	popl	%edi
	.cfi_restore 7
	popl	%ebp
	.cfi_restore 5
	.cfi_def_cfa 4, 4
.LVL168:
	ret
	.cfi_endproc
.LFE25:
	.size	kv_item_del, .-kv_item_del
	.section	.text.unlikely.kv_item_del
.LCOLDE12:
	.section	.text.kv_item_del
.LHOTE12:
	.section	.text.unlikely.__item_recovery_cb,"ax",@progbits
.LCOLDB13:
	.section	.text.__item_recovery_cb,"ax",@progbits
.LHOTB13:
	.type	__item_recovery_cb, @function
__item_recovery_cb:
.LFB26:
	.loc 1 296 0
	.cfi_startproc
.LVL169:
	pushl	%ebp
	.cfi_def_cfa_offset 8
	.cfi_offset 5, -8
	movl	%esp, %ebp
	.cfi_def_cfa_register 5
	pushl	%esi
	pushl	%ebx
	.cfi_offset 6, -12
	.cfi_offset 3, -16
	.loc 1 296 0
	movl	8(%ebp), %ebx
	.loc 1 297 0
	subl	$12, %esp
	movzwl	12(%ebx), %eax
	pushl	%eax
	call	aos_malloc
.LVL170:
	movl	%eax, %esi
.LVL171:
	.loc 1 298 0
	addl	$16, %esp
	.loc 1 299 0
	movl	$-12, %eax
.LVL172:
	.loc 1 298 0
	testl	%esi, %esi
	je	.L111
	.loc 1 302 0
	movzwl	14(%ebx), %eax
	movzwl	12(%ebx), %ecx
	movl	%esi, %edx
	addl	$8, %eax
	call	raw_read
.LVL173:
	testl	%eax, %eax
	je	.L112
	.loc 1 303 0
	subl	$12, %esp
	pushl	%esi
	call	aos_free
.LVL174:
	.loc 1 304 0
	addl	$16, %esp
	movl	$-5, %eax
	jmp	.L111
.L112:
	.loc 1 307 0
	movzwl	12(%ebx), %edx
	movl	%esi, %eax
	call	utils_crc8
.LVL175:
	.loc 1 312 0
	xorl	%edx, %edx
	.loc 1 307 0
	cmpb	%al, 2(%ebx)
	jne	.L120
	.loc 1 308 0
	movw	6(%ebx), %ax
	testw	%ax, %ax
	je	.L114
	.loc 1 308 0 is_stmt 0 discriminator 1
	cmpw	14(%ebx), %ax
	.loc 1 309 0 is_stmt 1 discriminator 1
	movl	$1, %edx
	.loc 1 308 0 discriminator 1
	je	.L114
.L120:
	.loc 1 312 0
	movl	%ebx, %eax
	call	kv_item_del
.LVL176:
.L114:
	.loc 1 315 0
	subl	$12, %esp
	pushl	%esi
	call	aos_free
.LVL177:
	.loc 1 316 0
	addl	$16, %esp
	movl	$-11, %eax
.L111:
	.loc 1 317 0
	leal	-8(%ebp), %esp
	popl	%ebx
	.cfi_restore 3
	popl	%esi
	.cfi_restore 6
.LVL178:
	popl	%ebp
	.cfi_restore 5
	.cfi_def_cfa 4, 4
	ret
	.cfi_endproc
.LFE26:
	.size	__item_recovery_cb, .-__item_recovery_cb
	.section	.text.unlikely.__item_recovery_cb
.LCOLDE13:
	.section	.text.__item_recovery_cb
.LHOTE13:
	.section	.text.unlikely.kv_block_format,"ax",@progbits
.LCOLDB14:
	.section	.text.kv_block_format,"ax",@progbits
.LHOTB14:
	.type	kv_block_format, @function
kv_block_format:
.LFB23:
	.loc 1 166 0
	.cfi_startproc
.LVL179:
	pushl	%ebp
	.cfi_def_cfa_offset 8
	.cfi_offset 5, -8
	movl	%esp, %ebp
	.cfi_def_cfa_register 5
	pushl	%edi
	pushl	%esi
	pushl	%ebx
	.cfi_offset 7, -12
	.cfi_offset 6, -16
	.cfi_offset 3, -20
	movl	%eax, %ebx
	.loc 1 172 0
	movl	%ebx, %esi
	sall	$12, %esi
	.loc 1 166 0
	subl	$32, %esp
	.loc 1 170 0
	movl	$0, -32(%ebp)
	.loc 1 172 0
	movzwl	%si, %esi
.LBB30:
.LBB31:
	.loc 1 136 0
	pushl	$4096
.LBE31:
.LBE30:
	.loc 1 171 0
	movb	$75, -32(%ebp)
.LBB34:
.LBB32:
	.loc 1 136 0
	pushl	%esi
	pushl	$6
.LBE32:
.LBE34:
	.loc 1 166 0
	movl	%gs:20, %eax
	movl	%eax, -28(%ebp)
	xorl	%eax, %eax
.LVL180:
.LBB35:
.LBB33:
	.loc 1 136 0
	call	hal_flash_erase
.LVL181:
.LBE33:
.LBE35:
	.loc 1 172 0
	addl	$16, %esp
	testl	%eax, %eax
	je	.L122
.L124:
	.loc 1 175 0
	movl	$-5, %eax
	jmp	.L123
.L122:
.LBB36:
.LBB37:
	.loc 1 131 0
	leal	-36(%ebp), %eax
	leal	-32(%ebp), %edi
	pushl	$4
.LBE37:
.LBE36:
	.loc 1 173 0
	movb	$-18, -31(%ebp)
	movl	%esi, -36(%ebp)
.LVL182:
.LBB39:
.LBB38:
	.loc 1 131 0
	pushl	%edi
	pushl	%eax
	pushl	$6
	call	hal_flash_write
.LVL183:
.LBE38:
.LBE39:
	.loc 1 178 0
	addl	$16, %esp
	testl	%eax, %eax
	jne	.L124
	.loc 1 184 0
	incb	g_kv_mgr+3
	.loc 1 182 0
	movzbl	%bl, %ebx
	addl	$4, %ebx
.LVL184:
	movb	$-18, g_kv_mgr+2(,%ebx,4)
	.loc 1 183 0
	movw	$4092, g_kv_mgr(,%ebx,4)
.LVL185:
.L123:
	.loc 1 186 0
	movl	-28(%ebp), %edx
	xorl	%gs:20, %edx
	je	.L125
	call	__stack_chk_fail
.LVL186:
.L125:
	leal	-12(%ebp), %esp
	popl	%ebx
	.cfi_restore 3
	popl	%esi
	.cfi_restore 6
	popl	%edi
	.cfi_restore 7
	popl	%ebp
	.cfi_restore 5
	.cfi_def_cfa 4, 4
	ret
	.cfi_endproc
.LFE23:
	.size	kv_block_format, .-kv_block_format
	.section	.text.unlikely.kv_block_format
.LCOLDE14:
	.section	.text.kv_block_format
.LHOTE14:
	.section	.text.unlikely.aos_kv_gc,"ax",@progbits
.LCOLDB15:
	.section	.text.aos_kv_gc,"ax",@progbits
.LHOTB15:
	.globl	aos_kv_gc
	.type	aos_kv_gc, @function
aos_kv_gc:
.LFB34:
	.loc 1 611 0
	.cfi_startproc
.LVL187:
	pushl	%ebp
	.cfi_def_cfa_offset 8
	.cfi_offset 5, -8
	movl	%esp, %ebp
	.cfi_def_cfa_register 5
	pushl	%edi
	pushl	%esi
	pushl	%ebx
	subl	$20, %esp
	.cfi_offset 7, -12
	.cfi_offset 6, -16
	.cfi_offset 3, -20
	.loc 1 617 0
	pushl	$-1
	pushl	$g_kv_mgr+12
	call	aos_mutex_lock
.LVL188:
	addl	$16, %esp
	testl	%eax, %eax
	jne	.L132
.LVL189:
	.loc 1 622 0
	cmpb	$0, g_kv_mgr+3
	je	.L132
.LVL190:
	.loc 1 627 0 discriminator 1
	cmpb	$-18, g_kv_mgr+18
	je	.L136
.LVL191:
	.loc 1 627 0 is_stmt 0
	cmpb	$-18, g_kv_mgr+22
	.loc 1 626 0 is_stmt 1
	movl	$1, %ebx
	.loc 1 627 0
	jne	.L132
	jmp	.L129
.LVL192:
.L136:
	xorl	%ebx, %ebx
.LVL193:
.L129:
	.loc 1 621 0
	movl	g_kv_mgr+4, %edx
	.loc 1 628 0
	movzbl	%bl, %eax
	.loc 1 640 0
	xorl	%edi, %edi
	.loc 1 628 0
	sall	$12, %eax
	addl	$4, %eax
	.loc 1 637 0
	movl	%edx, %ecx
	.loc 1 628 0
	movw	%ax, g_kv_mgr+4
.LVL194:
	.loc 1 637 0
	shrw	$12, %cx
	leal	1(%ecx), %eax
.LVL195:
.L134:
	.loc 1 640 0
	cmpb	$2, %al
	cmove	%edi, %eax
.LVL196:
	.loc 1 643 0
	movzbl	%al, %esi
	cmpb	$68, g_kv_mgr+18(,%esi,4)
	jne	.L131
	.loc 1 644 0
	xorl	%ecx, %ecx
	movl	%esi, %edx
	movl	$__item_gc_cb, %eax
.LVL197:
	call	kv_item_traverse
.LVL198:
	.loc 1 647 0
	movl	%esi, %eax
	call	kv_block_format
.LVL199:
	testl	%eax, %eax
	jne	.L132
	.loc 1 651 0
	movl	g_kv_mgr+4, %eax
	movl	$204, %edx
	.loc 1 652 0
	addl	$4, %ebx
	.loc 1 651 0
	andl	$61440, %eax
	call	kv_state_set
.LVL200:
	.loc 1 652 0
	movb	$-52, g_kv_mgr+2(,%ebx,4)
	.loc 1 653 0
	decb	g_kv_mgr+3
	jmp	.L132
.LVL201:
.L131:
	.loc 1 656 0
	movzbl	%al, %esi
	cmpw	%si, %cx
	je	.L133
	.loc 1 659 0
	incl	%eax
.LVL202:
	.loc 1 660 0
	jmp	.L134
.L133:
	.loc 1 663 0
	movw	%dx, g_kv_mgr+4
.LVL203:
.L132:
	.loc 1 668 0
	subl	$12, %esp
	.loc 1 667 0
	movb	$0, g_kv_mgr+1
	.loc 1 668 0
	pushl	$g_kv_mgr+12
	call	aos_mutex_unlock
.LVL204:
	.loc 1 669 0
	addl	$16, %esp
	cmpb	$0, g_kv_mgr+2
	je	.L135
	.loc 1 670 0
	subl	$12, %esp
	pushl	$g_kv_mgr+8
	call	aos_sem_signal_all
.LVL205:
	addl	$16, %esp
.L135:
	.loc 1 673 0
	movl	$0, 8(%ebp)
	.loc 1 674 0
	leal	-12(%ebp), %esp
	popl	%ebx
	.cfi_restore 3
	popl	%esi
	.cfi_restore 6
	popl	%edi
	.cfi_restore 7
	popl	%ebp
	.cfi_restore 5
	.cfi_def_cfa 4, 4
	.loc 1 673 0
	jmp	aos_task_exit
.LVL206:
	.cfi_endproc
.LFE34:
	.size	aos_kv_gc, .-aos_kv_gc
	.section	.text.unlikely.aos_kv_gc
.LCOLDE15:
	.section	.text.aos_kv_gc
.LHOTE15:
	.section	.text.unlikely.__item_gc_cb,"ax",@progbits
.LCOLDB16:
	.section	.text.__item_gc_cb,"ax",@progbits
.LHOTB16:
	.type	__item_gc_cb, @function
__item_gc_cb:
.LFB28:
	.loc 1 342 0
	.cfi_startproc
.LVL207:
	pushl	%ebp
	.cfi_def_cfa_offset 8
	.cfi_offset 5, -8
	movl	%esp, %ebp
	.cfi_def_cfa_register 5
	pushl	%edi
	pushl	%esi
	pushl	%ebx
	subl	$56, %esp
	.cfi_offset 7, -12
	.cfi_offset 6, -16
	.cfi_offset 3, -20
	.loc 1 342 0
	movl	8(%ebp), %edx
	movl	%gs:20, %eax
	movl	%eax, -28(%ebp)
	xorl	%eax, %eax
	.loc 1 348 0
	movl	12(%edx), %eax
	movl	%edx, -44(%ebp)
	leal	11(%eax), %ebx
	andl	$-4, %ebx
.LVL208:
	.loc 1 349 0
	movzwl	%bx, %edi
	pushl	%edi
	call	aos_malloc
.LVL209:
	movl	%eax, %esi
.LVL210:
	.loc 1 350 0
	addl	$16, %esp
	movl	$-12, %eax
.LVL211:
	testl	%esi, %esi
	je	.L139
	.loc 1 354 0
	movl	-44(%ebp), %edx
	movl	%edi, %ecx
	movzwl	14(%edx), %eax
	movl	%esi, %edx
	call	raw_read
.LVL212:
	testl	%eax, %eax
	je	.L140
.L142:
	.loc 1 355 0
	movl	$-5, %ebx
.LVL213:
	jmp	.L141
.LVL214:
.L140:
	movzwl	g_kv_mgr+4, %eax
.LBB42:
.LBB43:
	.loc 1 131 0
	pushl	%edi
	pushl	%esi
	movl	%eax, -32(%ebp)
.LVL215:
	leal	-32(%ebp), %eax
.LVL216:
	pushl	%eax
.LVL217:
	pushl	$6
.LVL218:
	call	hal_flash_write
.LVL219:
.LBE43:
.LBE42:
	.loc 1 359 0
	addl	$16, %esp
	testl	%eax, %eax
	jne	.L142
	.loc 1 364 0
	movl	%ebx, %eax
	addl	g_kv_mgr+4, %eax
	movw	%ax, g_kv_mgr+4
.LVL220:
	.loc 1 366 0
	shrw	$12, %ax
.LVL221:
	movzwl	%ax, %eax
	subw	%bx, g_kv_mgr+16(,%eax,4)
.LVL222:
	.loc 1 367 0
	movl	$-11, %ebx
.LVL223:
.L141:
	.loc 1 370 0
	subl	$12, %esp
	pushl	%esi
	call	aos_free
.LVL224:
	.loc 1 371 0
	addl	$16, %esp
	movl	%ebx, %eax
.LVL225:
.L139:
	.loc 1 372 0
	movl	-28(%ebp), %ecx
	xorl	%gs:20, %ecx
	je	.L143
	call	__stack_chk_fail
.LVL226:
.L143:
	leal	-12(%ebp), %esp
	popl	%ebx
	.cfi_restore 3
	popl	%esi
	.cfi_restore 6
.LVL227:
	popl	%edi
	.cfi_restore 7
.LVL228:
	popl	%ebp
	.cfi_restore 5
	.cfi_def_cfa 4, 4
	ret
	.cfi_endproc
.LFE28:
	.size	__item_gc_cb, .-__item_gc_cb
	.section	.text.unlikely.__item_gc_cb
.LCOLDE16:
	.section	.text.__item_gc_cb
.LHOTE16:
	.section	.text.unlikely.aos_kv_del,"ax",@progbits
.LCOLDB17:
	.section	.text.aos_kv_del,"ax",@progbits
.LHOTB17:
	.globl	aos_kv_del
	.type	aos_kv_del, @function
aos_kv_del:
.LFB35:
	.loc 1 677 0
	.cfi_startproc
.LVL229:
	pushl	%ebp
	.cfi_def_cfa_offset 8
	.cfi_offset 5, -8
	movl	%esp, %ebp
	.cfi_def_cfa_register 5
	pushl	%esi
	pushl	%ebx
	.cfi_offset 6, -12
	.cfi_offset 3, -16
	.loc 1 680 0
	pushl	%eax
	pushl	%eax
	pushl	$-1
	pushl	$g_kv_mgr+12
	call	aos_mutex_lock
.LVL230:
	addl	$16, %esp
	testl	%eax, %eax
	jne	.L148
.LVL231:
.LBB46:
.LBB47:
	.loc 1 684 0
	movl	8(%ebp), %eax
.LVL232:
	call	kv_item_get
.LVL233:
	.loc 1 685 0
	testl	%eax, %eax
	.loc 1 684 0
	movl	%eax, %esi
.LVL234:
	.loc 1 685 0
	jne	.L149
	.loc 1 686 0
	subl	$12, %esp
	pushl	$g_kv_mgr+12
	call	aos_mutex_unlock
.LVL235:
	addl	$16, %esp
	.loc 1 687 0
	movl	$-2, %eax
	jmp	.L148
.LVL236:
.L149:
	.loc 1 690 0
	xorl	%edx, %edx
	call	kv_item_del
.LVL237:
	movl	%eax, %ebx
.LVL238:
	.loc 1 691 0
	movl	%esi, %eax
.LVL239:
	call	kv_item_free
.LVL240:
	.loc 1 692 0
	subl	$12, %esp
	pushl	$g_kv_mgr+12
	call	aos_mutex_unlock
.LVL241:
	addl	$16, %esp
	.loc 1 693 0
	movl	%ebx, %eax
.LVL242:
.L148:
.LBE47:
.LBE46:
	.loc 1 694 0
	leal	-8(%ebp), %esp
	popl	%ebx
	.cfi_restore 3
	popl	%esi
	.cfi_restore 6
	popl	%ebp
	.cfi_restore 5
	.cfi_def_cfa 4, 4
	ret
	.cfi_endproc
.LFE35:
	.size	aos_kv_del, .-aos_kv_del
	.section	.text.unlikely.aos_kv_del
.LCOLDE17:
	.section	.text.aos_kv_del
.LHOTE17:
	.section	.text.unlikely.aos_kv_set,"ax",@progbits
.LCOLDB18:
	.section	.text.aos_kv_set,"ax",@progbits
.LHOTB18:
	.globl	aos_kv_set
	.type	aos_kv_set, @function
aos_kv_set:
.LFB36:
	.loc 1 697 0
	.cfi_startproc
.LVL243:
	pushl	%ebp
	.cfi_def_cfa_offset 8
	.cfi_offset 5, -8
	movl	%esp, %ebp
	.cfi_def_cfa_register 5
	pushl	%edi
	pushl	%esi
	pushl	%ebx
	subl	$12, %esp
	.cfi_offset 7, -12
	.cfi_offset 6, -16
	.cfi_offset 3, -20
	.loc 1 700 0
	cmpl	$0, 12(%ebp)
	.loc 1 697 0
	movl	16(%ebp), %ebx
	.loc 1 700 0
	sete	%dl
	testl	%ebx, %ebx
	setle	%al
	orb	%al, %dl
	jne	.L160
	cmpl	$0, 8(%ebp)
	sete	%al
	je	.L160
	.loc 1 700 0 is_stmt 0 discriminator 2
	movl	8(%ebp), %edi
	orl	$-1, %ecx
	repnz scasb
.LVL244:
	notl	%ecx
	decl	%ecx
	cmpl	$128, %ecx
	ja	.L160
	cmpl	$512, %ebx
	jg	.L160
	.loc 1 704 0 is_stmt 1
	cmpb	$0, g_kv_mgr+1
	je	.L154
	.loc 1 706 0
	pushl	%ecx
	pushl	%ecx
	pushl	$-1
	pushl	$g_kv_mgr+8
	.loc 1 705 0
	incb	g_kv_mgr+2
	.loc 1 706 0
	call	aos_sem_wait
.LVL245:
	addl	$16, %esp
.L154:
	.loc 1 709 0
	pushl	%edx
	pushl	%edx
	pushl	$-1
	pushl	$g_kv_mgr+12
	call	aos_mutex_lock
.LVL246:
	addl	$16, %esp
	testl	%eax, %eax
	jne	.L153
.LVL247:
.LBB52:
.LBB53:
	.loc 1 713 0
	movl	8(%ebp), %eax
.LVL248:
	call	kv_item_get
.LVL249:
	.loc 1 714 0
	testl	%eax, %eax
	.loc 1 713 0
	movl	%eax, %edi
.LVL250:
	.loc 1 714 0
	je	.L155
.LVL251:
.LBB54:
.LBB55:
	.loc 1 515 0
	movzwl	4(%eax), %eax
.LVL252:
	cmpl	%eax, %ebx
	jne	.L156
	.loc 1 516 0
	pushl	%eax
	pushl	%ebx
	.loc 1 517 0
	xorl	%esi, %esi
	.loc 1 516 0
	pushl	12(%ebp)
	movzbl	3(%edi), %eax
	addl	8(%edi), %eax
	pushl	%eax
	call	memcmp
.LVL253:
	addl	$16, %esp
	testl	%eax, %eax
	je	.L157
.L156:
	.loc 1 521 0
	movzwl	14(%edi), %eax
	subl	$12, %esp
	movl	12(%ebp), %edx
	movl	%ebx, %ecx
	pushl	%eax
	movl	8(%ebp), %eax
	call	kv_item_store
.LVL254:
	.loc 1 522 0
	addl	$16, %esp
	testl	%eax, %eax
	.loc 1 521 0
	movl	%eax, %esi
.LVL255:
	.loc 1 522 0
	jne	.L157
	.loc 1 526 0
	xorl	%edx, %edx
	movl	%edi, %eax
.LVL256:
	call	kv_item_del
.LVL257:
	movl	%eax, %esi
.LVL258:
.L157:
.LBE55:
.LBE54:
	.loc 1 716 0
	movl	%edi, %eax
	call	kv_item_free
.LVL259:
	jmp	.L158
.LVL260:
.L155:
	.loc 1 718 0
	subl	$12, %esp
	movl	12(%ebp), %edx
	movl	8(%ebp), %eax
.LVL261:
	pushl	$0
	movl	%ebx, %ecx
	call	kv_item_store
.LVL262:
	addl	$16, %esp
	movl	%eax, %esi
.LVL263:
.L158:
	.loc 1 721 0
	subl	$12, %esp
	pushl	$g_kv_mgr+12
	call	aos_mutex_unlock
.LVL264:
	addl	$16, %esp
	movl	%esi, %eax
	jmp	.L153
.L160:
.LBE53:
.LBE52:
	.loc 1 701 0
	movl	$-22, %eax
.L153:
	.loc 1 723 0
	leal	-12(%ebp), %esp
	popl	%ebx
	.cfi_restore 3
	popl	%esi
	.cfi_restore 6
	popl	%edi
	.cfi_restore 7
	popl	%ebp
	.cfi_restore 5
	.cfi_def_cfa 4, 4
	ret
	.cfi_endproc
.LFE36:
	.size	aos_kv_set, .-aos_kv_set
	.section	.text.unlikely.aos_kv_set
.LCOLDE18:
	.section	.text.aos_kv_set
.LHOTE18:
	.section	.text.unlikely.aos_kv_get,"ax",@progbits
.LCOLDB19:
	.section	.text.aos_kv_get,"ax",@progbits
.LHOTB19:
	.globl	aos_kv_get
	.type	aos_kv_get, @function
aos_kv_get:
.LFB37:
	.loc 1 726 0
	.cfi_startproc
.LVL265:
	pushl	%ebp
	.cfi_def_cfa_offset 8
	.cfi_offset 5, -8
	movl	%esp, %ebp
	.cfi_def_cfa_register 5
	pushl	%edi
	pushl	%esi
	pushl	%ebx
	subl	$28, %esp
	.cfi_offset 7, -12
	.cfi_offset 6, -16
	.cfi_offset 3, -20
	.loc 1 730 0
	cmpl	$0, 12(%ebp)
	.loc 1 726 0
	movl	8(%ebp), %ebx
	.loc 1 730 0
	sete	%dl
	cmpl	$0, 16(%ebp)
	sete	%al
	orb	%al, %dl
	.loc 1 731 0
	movl	$-22, %edx
	.loc 1 730 0
	jne	.L166
	testl	%ebx, %ebx
	je	.L166
	.loc 1 730 0 is_stmt 0 discriminator 2
	movl	16(%ebp), %eax
	cmpl	$0, (%eax)
	jle	.L166
	.loc 1 734 0 is_stmt 1
	pushl	%eax
	pushl	%eax
	pushl	$-1
	pushl	$g_kv_mgr+12
	call	aos_mutex_lock
.LVL266:
	addl	$16, %esp
	testl	%eax, %eax
	movl	%eax, %edx
	jne	.L166
	movl	%eax, -28(%ebp)
.LVL267:
.LBB58:
.LBB59:
	.loc 1 738 0
	movl	%ebx, %eax
.LVL268:
	call	kv_item_get
.LVL269:
	.loc 1 740 0
	subl	$12, %esp
	.loc 1 738 0
	movl	%eax, %ebx
.LVL270:
	.loc 1 740 0
	pushl	$g_kv_mgr+12
	call	aos_mutex_unlock
.LVL271:
	.loc 1 742 0
	addl	$16, %esp
	testl	%ebx, %ebx
	.loc 1 743 0
	movl	$-2, %edx
	.loc 1 742 0
	je	.L166
	.loc 1 746 0
	movl	16(%ebp), %eax
	movzwl	4(%ebx), %ecx
	movl	-28(%ebp), %edx
	cmpl	%ecx, (%eax)
	jge	.L167
	.loc 1 747 0
	movl	%ecx, (%eax)
	.loc 1 748 0
	movl	%ebx, %eax
	call	kv_item_free
.LVL272:
	.loc 1 749 0
	movl	$-28, %edx
	jmp	.L166
.L167:
	.loc 1 751 0
	movzbl	3(%ebx), %esi
	movl	12(%ebp), %edi
	addl	8(%ebx), %esi
	movl	%edx, -28(%ebp)
.LVL273:
	rep movsb
	.loc 1 752 0
	movl	16(%ebp), %edi
	movzwl	4(%ebx), %eax
	movl	%eax, (%edi)
	.loc 1 755 0
	movl	%ebx, %eax
	call	kv_item_free
.LVL274:
	movl	-28(%ebp), %edx
.LVL275:
.L166:
.LBE59:
.LBE58:
	.loc 1 757 0
	leal	-12(%ebp), %esp
	movl	%edx, %eax
	popl	%ebx
	.cfi_restore 3
	popl	%esi
	.cfi_restore 6
	popl	%edi
	.cfi_restore 7
	popl	%ebp
	.cfi_restore 5
	.cfi_def_cfa 4, 4
	ret
	.cfi_endproc
.LFE37:
	.size	aos_kv_get, .-aos_kv_get
	.section	.text.unlikely.aos_kv_get
.LCOLDE19:
	.section	.text.aos_kv_get
.LHOTE19:
	.section	.rodata.str1.1
.LC20:
	.string	""
.LC21:
	.string	"set"
.LC22:
	.string	"cli set kv failed\r\n"
.LC23:
	.string	"get"
.LC24:
	.string	"cli get kv failed\r\n"
.LC25:
	.string	"cli: no paired kv\r\n"
.LC26:
	.string	"value is %s\r\n"
.LC27:
	.string	"del"
.LC28:
	.string	"cli kv del failed\r\n"
.LC29:
	.string	"list"
	.section	.text.unlikely.handle_kv_cmd,"ax",@progbits
.LCOLDB30:
	.section	.text.handle_kv_cmd,"ax",@progbits
.LHOTB30:
	.type	handle_kv_cmd, @function
handle_kv_cmd:
.LFB39:
	.loc 1 788 0
	.cfi_startproc
.LVL276:
	pushl	%ebp
	.cfi_def_cfa_offset 8
	.cfi_offset 5, -8
	movl	%esp, %ebp
	.cfi_def_cfa_register 5
	pushl	%edi
	pushl	%esi
	pushl	%ebx
	.cfi_offset 7, -12
	.cfi_offset 6, -16
	.cfi_offset 3, -20
	movl	$.LC20, %edi
	subl	$44, %esp
	.loc 1 788 0
	movl	16(%ebp), %esi
	movl	20(%ebp), %ebx
	movl	%gs:20, %eax
	movl	%eax, -28(%ebp)
	xorl	%eax, %eax
	.loc 1 789 0
	cmpl	$1, %esi
	jle	.L174
	.loc 1 789 0 is_stmt 0 discriminator 1
	movl	4(%ebx), %edi
.L174:
.LVL277:
	.loc 1 794 0 is_stmt 1 discriminator 4
	pushl	%eax
	pushl	%eax
	pushl	$.LC21
	pushl	%edi
	.loc 1 792 0 discriminator 4
	movl	$4096, -32(%ebp)
	.loc 1 794 0 discriminator 4
	call	strcmp
.LVL278:
	addl	$16, %esp
	testl	%eax, %eax
	jne	.L175
	.loc 1 795 0
	cmpl	$4, %esi
	jne	.L173
	.loc 1 798 0
	movl	12(%ebx), %edx
	orl	$-1, %ecx
	movl	%edx, %edi
.LVL279:
	repnz scasb
	pushl	$1
	notl	%ecx
	decl	%ecx
	pushl	%ecx
	pushl	%edx
	pushl	8(%ebx)
	call	aos_kv_set
.LVL280:
	.loc 1 799 0
	addl	$16, %esp
	testl	%eax, %eax
	je	.L173
	.loc 1 800 0
	subl	$12, %esp
	pushl	$.LC22
	jmp	.L195
.LVL281:
.L175:
	.loc 1 802 0
	pushl	%eax
	pushl	%eax
	pushl	$.LC23
	pushl	%edi
	call	strcmp
.LVL282:
	addl	$16, %esp
	testl	%eax, %eax
	jne	.L179
	.loc 1 803 0
	cmpl	$3, %esi
	jne	.L173
	.loc 1 806 0
	subl	$12, %esp
	movl	%eax, -44(%ebp)
	pushl	$4096
	call	aos_malloc
.LVL283:
	.loc 1 807 0
	addl	$16, %esp
	testl	%eax, %eax
	.loc 1 806 0
	movl	%eax, %esi
.LVL284:
	.loc 1 807 0
	movl	-44(%ebp), %edx
	jne	.L180
	.loc 1 808 0
	subl	$12, %esp
	pushl	$.LC24
.LVL285:
.L195:
	call	aos_cli_printf
.LVL286:
.L196:
	.loc 1 809 0
	addl	$16, %esp
	jmp	.L173
.LVL287:
.L180:
	.loc 1 812 0
	movl	%eax, %edi
.LVL288:
	movl	$1024, %ecx
	movl	%edx, %eax
.LVL289:
	rep stosl
	.loc 1 814 0
	leal	-32(%ebp), %eax
	pushl	%edi
	pushl	%eax
	pushl	%esi
	pushl	8(%ebx)
	call	aos_kv_get
.LVL290:
	.loc 1 815 0
	addl	$16, %esp
	testl	%eax, %eax
	je	.L181
	.loc 1 816 0
	subl	$12, %esp
	pushl	$.LC25
	jmp	.L194
.L181:
	.loc 1 818 0
	pushl	%ecx
	pushl	%ecx
	pushl	%esi
	pushl	$.LC26
.L194:
	call	aos_cli_printf
.LVL291:
	addl	$16, %esp
	.loc 1 822 0
	subl	$12, %esp
	pushl	%esi
	call	aos_free
.LVL292:
	jmp	.L196
.LVL293:
.L179:
	.loc 1 824 0
	pushl	%edx
	pushl	%edx
	pushl	$.LC27
	pushl	%edi
	call	strcmp
.LVL294:
	addl	$16, %esp
	testl	%eax, %eax
	jne	.L183
	.loc 1 825 0
	cmpl	$3, %esi
	jne	.L173
	.loc 1 828 0
	subl	$12, %esp
	pushl	8(%ebx)
	call	aos_kv_del
.LVL295:
	.loc 1 829 0
	addl	$16, %esp
	testl	%eax, %eax
	je	.L173
	.loc 1 830 0
	subl	$12, %esp
	pushl	$.LC28
	jmp	.L195
.LVL296:
.L183:
	.loc 1 832 0
	pushl	%eax
	pushl	%eax
	pushl	$.LC29
	pushl	%edi
	call	strcmp
.LVL297:
	addl	$16, %esp
	testl	%eax, %eax
	jne	.L173
.LVL298:
	.loc 1 834 0 discriminator 1
	xorl	%ecx, %ecx
	xorl	%edx, %edx
	movl	$__item_print_cb, %eax
	call	kv_item_traverse
.LVL299:
	xorl	%ecx, %ecx
	movl	$1, %edx
	movl	$__item_print_cb, %eax
	call	kv_item_traverse
.LVL300:
.L173:
	.loc 1 838 0
	movl	-28(%ebp), %eax
	xorl	%gs:20, %eax
	je	.L184
	call	__stack_chk_fail
.LVL301:
.L184:
	leal	-12(%ebp), %esp
	popl	%ebx
	.cfi_restore 3
	popl	%esi
	.cfi_restore 6
	popl	%edi
	.cfi_restore 7
	popl	%ebp
	.cfi_restore 5
	.cfi_def_cfa 4, 4
	ret
	.cfi_endproc
.LFE39:
	.size	handle_kv_cmd, .-handle_kv_cmd
	.section	.text.unlikely.handle_kv_cmd
.LCOLDE30:
	.section	.text.handle_kv_cmd
.LHOTE30:
	.section	.text.unlikely.aos_kv_init,"ax",@progbits
.LCOLDB31:
	.section	.text.aos_kv_init,"ax",@progbits
.LHOTB31:
	.globl	aos_kv_init
	.type	aos_kv_init, @function
aos_kv_init:
.LFB40:
	.loc 1 848 0
	.cfi_startproc
	pushl	%ebp
	.cfi_def_cfa_offset 8
	.cfi_offset 5, -8
	movl	%esp, %ebp
	.cfi_def_cfa_register 5
	pushl	%edi
	pushl	%esi
	pushl	%ebx
	subl	$44, %esp
	.cfi_offset 7, -12
	.cfi_offset 6, -16
	.cfi_offset 3, -20
	.loc 1 848 0
	movl	%gs:20, %eax
	movl	%eax, -28(%ebp)
	xorl	%eax, %eax
	.loc 1 852 0
	cmpb	$0, g_kv_mgr
	je	.L198
.L219:
	.loc 1 853 0
	xorl	%ebx, %ebx
	jmp	.L199
.L198:
	movl	$g_kv_mgr, %edx
	.loc 1 860 0
	xorl	%eax, %eax
	movl	$6, %ecx
	movl	%edx, %edi
	.loc 1 861 0
	subl	$12, %esp
	.loc 1 860 0
	rep stosl
	.loc 1 861 0
	pushl	$g_kv_mgr+12
	call	aos_mutex_new
.LVL302:
	addl	$16, %esp
	testl	%eax, %eax
	movl	%eax, %ebx
	jne	.L199
	.loc 1 866 0
	subl	$12, %esp
	movl	$g_kv_mgr, %edi
.LBB62:
.LBB63:
	.loc 1 536 0
	xorl	%esi, %esi
.LBE63:
.LBE62:
	.loc 1 866 0
	pushl	$ncmd
	call	aos_cli_register_command
.LVL303:
.LBB66:
.LBB64:
	.loc 1 536 0
	movw	$0, -30(%ebp)
.LVL304:
	addl	$16, %esp
.LVL305:
.L205:
	movl	%esi, %eax
	.loc 1 540 0
	leal	-34(%ebp), %edx
	movl	$4, %ecx
	movb	%al, -41(%ebp)
.LVL306:
	movl	%esi, %eax
.LVL307:
	.loc 1 539 0
	movl	$0, -34(%ebp)
	.loc 1 540 0
	sall	$12, %eax
	call	raw_read
.LVL308:
	.loc 1 541 0
	cmpb	$75, -34(%ebp)
	jne	.L200
	.loc 1 542 0
	movb	-33(%ebp), %al
	cmpb	$-52, %al
	setne	%cl
	cmpb	$-18, %al
	setne	%dl
	testb	%dl, %cl
	je	.L201
	cmpb	$68, %al
	jne	.L200
.L201:
	.loc 1 550 0
	movb	%al, 18(%edi)
	.loc 1 551 0
	xorl	%ecx, %ecx
	movl	%esi, %edx
	movl	$__item_recovery_cb, %eax
	call	kv_item_traverse
.LVL309:
	.loc 1 552 0
	cmpb	$-18, -33(%ebp)
	jne	.L203
	.loc 1 553 0
	cmpw	$4092, 16(%edi)
	je	.L204
	.loc 1 554 0
	movl	%esi, %eax
	movb	%al, -30(%ebp,%ebx)
	.loc 1 555 0
	incl	%ebx
.LVL310:
	jmp	.L203
.L204:
	.loc 1 557 0
	incb	g_kv_mgr+3
	jmp	.L203
.L200:
	.loc 1 561 0
	movl	%esi, %eax
	call	kv_block_format
.LVL311:
	testl	%eax, %eax
	jne	.L226
.LVL312:
.L203:
	incl	%esi
.LVL313:
	addl	$4, %edi
	.loc 1 538 0
	cmpl	$2, %esi
	jne	.L205
	leal	-30(%ebp), %esi
	leal	(%esi,%ebx), %edi
.LVL314:
.L206:
	.loc 1 567 0
	cmpl	%esi, %edi
	je	.L248
	.loc 1 569 0
	cmpb	$0, g_kv_mgr+3
	.loc 1 568 0
	movzbl	-1(%edi), %ebx
.LVL315:
	.loc 1 569 0
	je	.L207
	.loc 1 570 0
	movl	%ebx, %eax
	movl	$68, %edx
	sall	$12, %eax
	movzwl	%ax, %eax
	call	kv_state_set
.LVL316:
	testl	%eax, %eax
	jne	.L226
	.loc 1 573 0
	movb	$68, g_kv_mgr+18(,%ebx,4)
	jmp	.L208
.LVL317:
.L207:
	.loc 1 575 0
	movzbl	%bl, %eax
	call	kv_block_format
.LVL318:
	testl	%eax, %eax
	jne	.L226
.L208:
	decl	%edi
.LVL319:
	jmp	.L206
.LVL320:
.L248:
	.loc 1 582 0
	cmpb	$0, g_kv_mgr+3
	je	.L210
.L213:
	.loc 1 588 0
	cmpb	$2, g_kv_mgr+3
	jne	.L244
	jmp	.L249
.L210:
	.loc 1 583 0
	xorl	%eax, %eax
	call	kv_block_format
.LVL321:
	testl	%eax, %eax
	je	.L213
	jmp	.L226
.LVL322:
.L244:
	.loc 1 596 0
	movb	g_kv_mgr+18, %al
	cmpb	$-52, %al
	je	.L230
	cmpb	$68, %al
	jne	.L214
.L230:
.LVL323:
	.loc 1 599 0
	cmpb	$-18, g_kv_mgr+22
	je	.L227
.LVL324:
.L214:
	.loc 1 596 0
	movb	g_kv_mgr+22, %dl
.LVL325:
	.loc 1 599 0
	cmpb	$-52, %dl
	sete	%cl
	cmpb	$68, %dl
	sete	%dl
	orb	%dl, %cl
	je	.L247
	cmpb	$-18, %al
	jne	.L247
	.loc 1 596 0
	movl	$1, %edx
	.loc 1 595 0
	movl	$1, %eax
	jmp	.L216
.LVL326:
.L249:
	.loc 1 590 0
	xorl	%eax, %eax
	movl	$204, %edx
	.loc 1 589 0
	movw	$4, g_kv_mgr+4
	.loc 1 590 0
	call	kv_state_set
.LVL327:
	testl	%eax, %eax
	movl	%eax, %ebx
	jne	.L247
	.loc 1 591 0
	movb	$-52, g_kv_mgr+18
	.loc 1 592 0
	decb	g_kv_mgr+3
	jmp	.L245
.LVL328:
.L227:
	.loc 1 596 0
	xorl	%edx, %edx
	.loc 1 599 0
	xorl	%eax, %eax
.LVL329:
.L216:
	.loc 1 600 0
	addl	$4, %edx
	movl	$4096, %ecx
	sall	$12, %eax
	subl	g_kv_mgr(,%edx,4), %ecx
	movl	%ecx, %edx
	addl	%edx, %eax
	movw	%ax, g_kv_mgr+4
.L247:
	.loc 1 607 0
	xorl	%ebx, %ebx
	jmp	.L245
.LVL330:
.L226:
.LBE64:
.LBE66:
	.loc 1 869 0
	testl	%eax, %eax
.LBB67:
.LBB65:
	.loc 1 583 0
	movl	%eax, %ebx
.LVL331:
.LBE65:
.LBE67:
	.loc 1 869 0
	jne	.L199
.L245:
	.loc 1 873 0
	pushl	%eax
	pushl	%eax
	pushl	$0
	pushl	$g_kv_mgr+8
	call	aos_sem_new
.LVL332:
	addl	$16, %esp
	testl	%eax, %eax
	jne	.L229
	.loc 1 880 0
	movl	g_kv_mgr+4, %eax
.LVL333:
	.loc 1 877 0
	movb	$1, g_kv_mgr
.LVL334:
	.loc 1 880 0
	shrw	$12, %ax
.LVL335:
	movzwl	%ax, %eax
	cmpw	$647, g_kv_mgr+16(,%eax,4)
	ja	.L219
	.loc 1 880 0 is_stmt 0 discriminator 1
	cmpb	$1, g_kv_mgr+3
	ja	.L219
	.loc 1 882 0 is_stmt 1
	call	trigger_gc
.LVL336:
	jmp	.L199
.LVL337:
.L229:
	movl	%eax, %ebx
.LVL338:
.L199:
	.loc 1 886 0
	movl	-28(%ebp), %edi
	xorl	%gs:20, %edi
	movl	%ebx, %eax
	je	.L220
	call	__stack_chk_fail
.LVL339:
.L220:
	leal	-12(%ebp), %esp
	popl	%ebx
	.cfi_restore 3
	popl	%esi
	.cfi_restore 6
	popl	%edi
	.cfi_restore 7
	popl	%ebp
	.cfi_restore 5
	.cfi_def_cfa 4, 4
	ret
	.cfi_endproc
.LFE40:
	.size	aos_kv_init, .-aos_kv_init
	.section	.text.unlikely.aos_kv_init
.LCOLDE31:
	.section	.text.aos_kv_init
.LHOTE31:
	.section	.text.unlikely.aos_kv_deinit,"ax",@progbits
.LCOLDB32:
	.section	.text.aos_kv_deinit,"ax",@progbits
.LHOTB32:
	.globl	aos_kv_deinit
	.type	aos_kv_deinit, @function
aos_kv_deinit:
.LFB41:
	.loc 1 890 0
	.cfi_startproc
	pushl	%ebp
	.cfi_def_cfa_offset 8
	.cfi_offset 5, -8
	movl	%esp, %ebp
	.cfi_def_cfa_register 5
	subl	$20, %esp
	.loc 1 891 0
	movb	$0, g_kv_mgr
	.loc 1 892 0
	pushl	$g_kv_mgr+8
	call	aos_sem_free
.LVL340:
	.loc 1 893 0
	movl	$g_kv_mgr+12, (%esp)
	call	aos_mutex_free
.LVL341:
	.loc 1 894 0
	addl	$16, %esp
	leave
	.cfi_restore 5
	.cfi_def_cfa 4, 4
	ret
	.cfi_endproc
.LFE41:
	.size	aos_kv_deinit, .-aos_kv_deinit
	.section	.text.unlikely.aos_kv_deinit
.LCOLDE32:
	.section	.text.aos_kv_deinit
.LHOTE32:
	.section	.rodata.str1.1
.LC33:
	.string	"kv"
.LC34:
	.string	"kv [set key value | get key | del key | list]"
	.section	.data.ncmd,"aw",@progbits
	.align 4
	.type	ncmd, @object
	.size	ncmd, 12
ncmd:
	.long	.LC33
	.long	.LC34
	.long	handle_kv_cmd
	.section	.bss.g_kv_mgr,"aw",@nobits
	.align 4
	.type	g_kv_mgr, @object
	.size	g_kv_mgr, 24
g_kv_mgr:
	.zero	24
	.text
.Letext0:
	.section	.text.unlikely.utils_crc8
.Letext_cold0:
	.file 2 "/home/stone/Documents/Ali_IOT/build/compiler/gcc-arm-none-eabi/Linux64/lib/gcc/arm-none-eabi/5.4.1/include/stddef.h"
	.file 3 "/home/stone/Documents/Ali_IOT/build/compiler/gcc-arm-none-eabi/Linux64/arm-none-eabi/include/machine/_default_types.h"
	.file 4 "/home/stone/Documents/Ali_IOT/build/compiler/gcc-arm-none-eabi/Linux64/arm-none-eabi/include/sys/_stdint.h"
	.file 5 "./include/aos/cli.h"
	.file 6 "./include/aos/kernel.h"
	.file 7 "./include/hal/soc/flash.h"
	.file 8 "./include/hal/sensor.h"
	.file 9 "/home/stone/Documents/Ali_IOT/build/compiler/gcc-arm-none-eabi/Linux64/arm-none-eabi/include/string.h"
	.file 10 "./include/aos/log.h"
	.section	.note.GNU-stack,"",@progbits
