	.file	"l2cap.c"
	.text
.Ltext0:
	.section	.text.unlikely.l2cap_disconnected,"ax",@progbits
.LCOLDB0:
	.section	.text.l2cap_disconnected,"ax",@progbits
.LHOTB0:
	.section	.text.unlikely.l2cap_disconnected
.Ltext_cold0:
	.section	.text.l2cap_disconnected
	.type	l2cap_disconnected, @function
l2cap_disconnected:
.LFB99:
	.file 1 "src/l2cap.c"
	.loc 1 3933 0
	.cfi_startproc
.LVL0:
	pushl	%ebp
	.cfi_def_cfa_offset 8
	.cfi_offset 5, -8
	movl	%esp, %ebp
	.cfi_def_cfa_register 5
	.loc 1 3935 0
	popl	%ebp
	.cfi_restore 5
	.cfi_def_cfa 4, 4
	ret
	.cfi_endproc
.LFE99:
	.size	l2cap_disconnected, .-l2cap_disconnected
	.section	.text.unlikely.l2cap_disconnected
.LCOLDE0:
	.section	.text.l2cap_disconnected
.LHOTE0:
	.section	.text.unlikely.l2cap_accept,"ax",@progbits
.LCOLDB1:
	.section	.text.l2cap_accept,"ax",@progbits
.LHOTB1:
	.type	l2cap_accept, @function
l2cap_accept:
.LFB100:
	.loc 1 3937 0
	.cfi_startproc
.LVL1:
.LBB95:
	.loc 1 3947 0
	cmpl	$0, bt_l2cap_pool
	jne	.L6
.LBE95:
	.loc 1 3937 0
	pushl	%ebp
	.cfi_def_cfa_offset 8
	.cfi_offset 5, -8
.LBB96:
	.loc 1 3950 0
	movl	$ops.5180, bt_l2cap_pool+4
.LBE96:
	.loc 1 3937 0
	movl	%esp, %ebp
	.cfi_def_cfa_register 5
.LBB97:
	.loc 1 3951 0
	movl	12(%ebp), %eax
	movl	$bt_l2cap_pool, (%eax)
	.loc 1 3952 0
	xorl	%eax, %eax
.LBE97:
	.loc 1 3956 0
	popl	%ebp
	.cfi_restore 5
	.cfi_def_cfa 4, 4
	ret
.L6:
	movl	$-12, %eax
	ret
	.cfi_endproc
.LFE100:
	.size	l2cap_accept, .-l2cap_accept
	.section	.text.unlikely.l2cap_accept
.LCOLDE1:
	.section	.text.l2cap_accept
.LHOTE1:
	.section	.text.unlikely.l2cap_connected,"ax",@progbits
.LCOLDB2:
	.section	.text.l2cap_connected,"ax",@progbits
.LHOTB2:
	.type	l2cap_connected, @function
l2cap_connected:
.LFB105:
	.cfi_startproc
	pushl	%ebp
	.cfi_def_cfa_offset 8
	.cfi_offset 5, -8
	movl	%esp, %ebp
	.cfi_def_cfa_register 5
	popl	%ebp
	.cfi_restore 5
	.cfi_def_cfa 4, 4
	ret
	.cfi_endproc
.LFE105:
	.size	l2cap_connected, .-l2cap_connected
	.section	.text.unlikely.l2cap_connected
.LCOLDE2:
	.section	.text.l2cap_connected
.LHOTE2:
	.section	.text.unlikely.bt_l2cap_le_fixed_chan_register,"ax",@progbits
.LCOLDB3:
	.section	.text.bt_l2cap_le_fixed_chan_register,"ax",@progbits
.LHOTB3:
	.globl	bt_l2cap_le_fixed_chan_register
	.type	bt_l2cap_le_fixed_chan_register, @function
bt_l2cap_le_fixed_chan_register:
.LFB78:
	.loc 1 3490 0
	.cfi_startproc
.LVL2:
	.loc 1 3490 0
	pushl	%ebp
	.cfi_def_cfa_offset 8
	.cfi_offset 5, -8
	movl	%esp, %ebp
	.cfi_def_cfa_register 5
	.loc 1 3490 0
	movl	8(%ebp), %edx
	.loc 1 3492 0
	leal	8(%edx), %eax
.LVL3:
.LBB100:
.LBB101:
	.loc 1 116 0
	movl	$0, 8(%edx)
	.loc 1 119 0
	movl	le_channels+4, %edx
	testl	%edx, %edx
	jne	.L13
	.loc 1 120 0
	movl	%eax, le_channels+4
	.loc 1 121 0
	movl	%eax, le_channels
	jmp	.L12
.L13:
	.loc 1 123 0
	movl	%eax, (%edx)
	.loc 1 124 0
	movl	%eax, le_channels+4
.LVL4:
.L12:
.LBE101:
.LBE100:
	.loc 1 3493 0
	popl	%ebp
	.cfi_restore 5
	.cfi_def_cfa 4, 4
	ret
	.cfi_endproc
.LFE78:
	.size	bt_l2cap_le_fixed_chan_register, .-bt_l2cap_le_fixed_chan_register
	.section	.text.unlikely.bt_l2cap_le_fixed_chan_register
.LCOLDE3:
	.section	.text.bt_l2cap_le_fixed_chan_register
.LHOTE3:
	.section	.text.unlikely.bt_l2cap_chan_remove,"ax",@progbits
.LCOLDB4:
	.section	.text.bt_l2cap_chan_remove,"ax",@progbits
.LHOTB4:
	.globl	bt_l2cap_chan_remove
	.type	bt_l2cap_chan_remove, @function
bt_l2cap_chan_remove:
.LFB79:
	.loc 1 3495 0
	.cfi_startproc
.LVL5:
	pushl	%ebp
	.cfi_def_cfa_offset 8
	.cfi_offset 5, -8
	movl	%esp, %ebp
	.cfi_def_cfa_register 5
	pushl	%esi
	pushl	%ebx
	.cfi_offset 6, -12
	.cfi_offset 3, -16
	.loc 1 3495 0
	movl	8(%ebp), %edx
	movl	12(%ebp), %ebx
	movl	52(%edx), %eax
.LVL6:
	.loc 1 3506 0
	testl	%eax, %eax
	je	.L16
.LVL7:
	.loc 1 3506 0 is_stmt 0 discriminator 1
	subl	$8, %eax
	xorl	%ecx, %ecx
.LVL8:
.L18:
	.loc 1 3500 0 is_stmt 1 discriminator 1
	testl	%eax, %eax
	je	.L16
	.loc 1 3519 0
	cmpl	%ebx, %eax
	jne	.L19
.LBB112:
.LBB113:
	.loc 1 177 0
	testl	%ecx, %ecx
.LBE113:
.LBE112:
	.loc 1 3520 0
	leal	8(%ebx), %esi
.LVL9:
	movl	8(%ebx), %eax
.LVL10:
.LBB115:
.LBB114:
	.loc 1 177 0
	jne	.L20
	.loc 1 179 0
	cmpl	56(%edx), %esi
	.loc 1 178 0
	movl	%eax, 52(%edx)
	.loc 1 179 0
	jne	.L22
	.loc 1 180 0
	movl	%eax, 56(%edx)
	jmp	.L22
.L20:
	.loc 1 184 0
	cmpl	56(%edx), %esi
	.loc 1 183 0
	movl	%eax, (%ecx)
	.loc 1 184 0
	jne	.L22
	.loc 1 185 0
	movl	%ecx, 56(%edx)
.LVL11:
.L22:
	.loc 1 188 0
	movl	$0, 8(%ebx)
	jmp	.L16
.LVL12:
.L19:
.LBE114:
.LBE115:
.LBB116:
.LBB117:
	.loc 1 100 0
	movl	%eax, %ecx
	addl	$8, %ecx
.LVL13:
	je	.L16
.LVL14:
.LBB118:
.LBB119:
	.loc 1 96 0
	movl	8(%eax), %esi
.LVL15:
.LBE119:
.LBE118:
.LBE117:
.LBE116:
	.loc 1 3514 0
	leal	-8(%esi), %eax
.LVL16:
	testl	%esi, %esi
	movl	$0, %esi
	cmove	%esi, %eax
	jmp	.L18
.LVL17:
.L16:
	.loc 1 3525 0
	popl	%ebx
	.cfi_restore 3
.LVL18:
	popl	%esi
	.cfi_restore 6
	popl	%ebp
	.cfi_restore 5
	.cfi_def_cfa 4, 4
	ret
	.cfi_endproc
.LFE79:
	.size	bt_l2cap_chan_remove, .-bt_l2cap_chan_remove
	.section	.text.unlikely.bt_l2cap_chan_remove
.LCOLDE4:
	.section	.text.bt_l2cap_chan_remove
.LHOTE4:
	.section	.text.unlikely.bt_l2cap_chan_del,"ax",@progbits
.LCOLDB5:
	.section	.text.bt_l2cap_chan_del,"ax",@progbits
.LHOTB5:
	.globl	bt_l2cap_chan_del
	.type	bt_l2cap_chan_del, @function
bt_l2cap_chan_del:
.LFB80:
	.loc 1 3527 0
	.cfi_startproc
.LVL19:
	pushl	%ebp
	.cfi_def_cfa_offset 8
	.cfi_offset 5, -8
	movl	%esp, %ebp
	.cfi_def_cfa_register 5
	pushl	%ebx
	pushl	%eax
	.cfi_offset 3, -12
	.loc 1 3527 0
	movl	8(%ebp), %ebx
	.loc 1 3529 0
	cmpl	$0, (%ebx)
	je	.L33
	.loc 1 3532 0
	movl	4(%ebx), %eax
	movl	4(%eax), %eax
	testl	%eax, %eax
	je	.L34
	.loc 1 3533 0
	subl	$12, %esp
	pushl	%ebx
	call	*%eax
.LVL20:
	addl	$16, %esp
.L34:
	.loc 1 3535 0
	movl	$0, (%ebx)
.L33:
	.loc 1 3539 0
	movl	12(%ebx), %eax
	testl	%eax, %eax
	je	.L32
	.loc 1 3540 0
	movl	%ebx, 8(%ebp)
	.loc 1 3542 0
	movl	-4(%ebp), %ebx
	leave
	.cfi_remember_state
	.cfi_restore 5
	.cfi_restore 3
	.cfi_def_cfa 4, 4
	.loc 1 3540 0
	jmp	*%eax
.LVL21:
.L32:
	.cfi_restore_state
	.loc 1 3542 0
	movl	-4(%ebp), %ebx
	leave
	.cfi_restore 5
	.cfi_restore 3
	.cfi_def_cfa 4, 4
	ret
	.cfi_endproc
.LFE80:
	.size	bt_l2cap_chan_del, .-bt_l2cap_chan_del
	.section	.text.unlikely.bt_l2cap_chan_del
.LCOLDE5:
	.section	.text.bt_l2cap_chan_del
.LHOTE5:
	.section	.text.unlikely.l2cap_rtx_timeout,"ax",@progbits
.LCOLDB6:
	.section	.text.l2cap_rtx_timeout,"ax",@progbits
.LHOTB6:
	.type	l2cap_rtx_timeout, @function
l2cap_rtx_timeout:
.LFB81:
	.loc 1 3544 0
	.cfi_startproc
.LVL22:
	pushl	%ebp
	.cfi_def_cfa_offset 8
	.cfi_offset 5, -8
	movl	%esp, %ebp
	.cfi_def_cfa_register 5
	pushl	%ebx
	pushl	%eax
	.cfi_offset 3, -12
	.loc 1 3544 0
	movl	8(%ebp), %eax
.LVL23:
	.loc 1 3553 0
	leal	-16(%eax), %ebx
.LVL24:
	pushl	%ebx
	pushl	-16(%eax)
	call	bt_l2cap_chan_remove
.LVL25:
	.loc 1 3554 0
	popl	%edx
	popl	%ecx
	movl	%ebx, 8(%ebp)
	.loc 1 3555 0
	movl	-4(%ebp), %ebx
.LVL26:
	leave
	.cfi_restore 5
	.cfi_restore 3
	.cfi_def_cfa 4, 4
	.loc 1 3554 0
	jmp	bt_l2cap_chan_del
.LVL27:
	.cfi_endproc
.LFE81:
	.size	l2cap_rtx_timeout, .-l2cap_rtx_timeout
	.section	.text.unlikely.l2cap_rtx_timeout
.LCOLDE6:
	.section	.text.l2cap_rtx_timeout
.LHOTE6:
	.section	.text.unlikely.bt_l2cap_chan_add,"ax",@progbits
.LCOLDB7:
	.section	.text.bt_l2cap_chan_add,"ax",@progbits
.LHOTB7:
	.globl	bt_l2cap_chan_add
	.type	bt_l2cap_chan_add, @function
bt_l2cap_chan_add:
.LFB82:
	.loc 1 3558 0
	.cfi_startproc
.LVL28:
	pushl	%ebp
	.cfi_def_cfa_offset 8
	.cfi_offset 5, -8
	movl	%esp, %ebp
	.cfi_def_cfa_register 5
	pushl	%ebx
	.cfi_offset 3, -12
	.loc 1 3558 0
	movl	8(%ebp), %eax
	movl	12(%ebp), %edx
.LBB122:
.LBB123:
	.loc 1 119 0
	movl	56(%eax), %ebx
.LBE123:
.LBE122:
	.loc 1 3559 0
	leal	8(%edx), %ecx
.LVL29:
.LBB125:
.LBB124:
	.loc 1 116 0
	movl	$0, 8(%edx)
	.loc 1 119 0
	testl	%ebx, %ebx
	jne	.L43
	.loc 1 120 0
	movl	%ecx, 56(%eax)
	.loc 1 121 0
	movl	%ecx, 52(%eax)
	jmp	.L44
.L43:
	.loc 1 123 0
	movl	%ecx, (%ebx)
	.loc 1 124 0
	movl	%ecx, 56(%eax)
.LVL30:
.L44:
.LBE124:
.LBE125:
	.loc 1 3560 0
	movl	%eax, (%edx)
	.loc 1 3561 0
	movl	16(%ebp), %eax
.LVL31:
	movl	%eax, 12(%edx)
	.loc 1 3563 0
	popl	%ebx
	.cfi_restore 3
	popl	%ebp
	.cfi_restore 5
	.cfi_def_cfa 4, 4
	ret
	.cfi_endproc
.LFE82:
	.size	bt_l2cap_chan_add, .-bt_l2cap_chan_add
	.section	.text.unlikely.bt_l2cap_chan_add
.LCOLDE7:
	.section	.text.bt_l2cap_chan_add
.LHOTE7:
	.section	.text.unlikely.bt_l2cap_connected,"ax",@progbits
.LCOLDB8:
	.section	.text.bt_l2cap_connected,"ax",@progbits
.LHOTB8:
	.globl	bt_l2cap_connected
	.type	bt_l2cap_connected, @function
bt_l2cap_connected:
.LFB84:
	.loc 1 3594 0
	.cfi_startproc
.LVL32:
	pushl	%ebp
	.cfi_def_cfa_offset 8
	.cfi_offset 5, -8
	movl	%esp, %ebp
	.cfi_def_cfa_register 5
	pushl	%edi
	pushl	%esi
	pushl	%ebx
	subl	$28, %esp
	.cfi_offset 7, -12
	.cfi_offset 6, -16
	.cfi_offset 3, -20
	.loc 1 3594 0
	movl	8(%ebp), %edi
	movl	%gs:20, %eax
	movl	%eax, -28(%ebp)
	xorl	%eax, %eax
	movl	le_channels, %eax
.LVL33:
	.loc 1 3608 0
	testl	%eax, %eax
	leal	-8(%eax), %ebx
	je	.L46
.L62:
.LVL34:
	.loc 1 3602 0 discriminator 1
	testl	%ebx, %ebx
	je	.L46
.LBB141:
	.loc 1 3622 0
	leal	-32(%ebp), %eax
	pushl	%edx
	pushl	%edx
	pushl	%eax
	pushl	%edi
	call	*4(%ebx)
.LVL35:
	addl	$16, %esp
	testl	%eax, %eax
	js	.L50
	.loc 1 3632 0
	movl	(%ebx), %eax
	.loc 1 3625 0
	movl	-32(%ebp), %esi
.LVL36:
	.loc 1 3632 0
	movw	%ax, 52(%esi)
	.loc 1 3633 0
	movw	%ax, 72(%esi)
.LVL37:
.LBB142:
.LBB143:
	.loc 1 3583 0
	pushl	%eax
	pushl	%eax
	leal	16(%esi), %eax
	pushl	$l2cap_rtx_timeout
	pushl	%eax
	call	k_delayed_work_init
.LVL38:
.LBB144:
.LBB145:
.LBB146:
.LBB147:
	.loc 1 119 0
	movl	56(%edi), %ecx
	addl	$16, %esp
.LBE147:
.LBE146:
	.loc 1 3559 0
	leal	8(%esi), %eax
.LVL39:
.LBB149:
.LBB148:
	.loc 1 116 0
	movl	$0, 8(%esi)
	.loc 1 119 0
	testl	%ecx, %ecx
	jne	.L51
	.loc 1 120 0
	movl	%eax, 56(%edi)
	.loc 1 121 0
	movl	%eax, 52(%edi)
	jmp	.L52
.L51:
	.loc 1 123 0
	movl	%eax, (%ecx)
	.loc 1 124 0
	movl	%eax, 56(%edi)
.L52:
.LVL40:
.LBE148:
.LBE149:
.LBE145:
.LBE144:
.LBE143:
.LBE142:
	.loc 1 3639 0
	movl	-32(%ebp), %ecx
.LBB153:
.LBB152:
.LBB151:
.LBB150:
	.loc 1 3560 0
	movl	%edi, (%esi)
	.loc 1 3561 0
	movl	$0, 12(%esi)
.LVL41:
.LBE150:
.LBE151:
.LBE152:
.LBE153:
	.loc 1 3639 0
	movl	4(%ecx), %eax
	movl	(%eax), %eax
	testl	%eax, %eax
	je	.L50
	.loc 1 3640 0
	subl	$12, %esp
	pushl	%ecx
	call	*%eax
.LVL42:
	addl	$16, %esp
.LVL43:
.L50:
.LBE141:
.LBB154:
.LBB155:
.LBB156:
	.loc 1 96 0
	movl	8(%ebx), %eax
.LVL44:
.LBE156:
.LBE155:
.LBE154:
	.loc 1 3616 0
	leal	-8(%eax), %ebx
.LVL45:
	testl	%eax, %eax
	movl	$0, %eax
	cmove	%eax, %ebx
	jmp	.L62
.L46:
	.loc 1 3643 0
	movl	-28(%ebp), %eax
	xorl	%gs:20, %eax
	je	.L57
	call	__stack_chk_fail
.LVL46:
.L57:
	leal	-12(%ebp), %esp
	popl	%ebx
	.cfi_restore 3
	popl	%esi
	.cfi_restore 6
	popl	%edi
	.cfi_restore 7
	popl	%ebp
	.cfi_restore 5
	.cfi_def_cfa 4, 4
	ret
	.cfi_endproc
.LFE84:
	.size	bt_l2cap_connected, .-bt_l2cap_connected
	.section	.text.unlikely.bt_l2cap_connected
.LCOLDE8:
	.section	.text.bt_l2cap_connected
.LHOTE8:
	.section	.text.unlikely.bt_l2cap_disconnected,"ax",@progbits
.LCOLDB9:
	.section	.text.bt_l2cap_disconnected,"ax",@progbits
.LHOTB9:
	.globl	bt_l2cap_disconnected
	.type	bt_l2cap_disconnected, @function
bt_l2cap_disconnected:
.LFB85:
	.loc 1 3645 0
	.cfi_startproc
.LVL47:
	pushl	%ebp
	.cfi_def_cfa_offset 8
	.cfi_offset 5, -8
	movl	%esp, %ebp
	.cfi_def_cfa_register 5
	pushl	%ebx
	pushl	%eax
	.cfi_offset 3, -12
	movl	8(%ebp), %eax
	movl	52(%eax), %eax
.LVL48:
	.loc 1 3653 0
	testl	%eax, %eax
	je	.L65
.LVL49:
	.loc 1 3663 0 discriminator 1
	movl	%eax, %edx
	subl	$8, %edx
.LVL50:
	je	.L65
.LVL51:
.LBB157:
.LBB158:
.LBB159:
	.loc 1 96 0
	movl	(%eax), %eax
.LVL52:
.LBE159:
.LBE158:
.LBE157:
	.loc 1 3661 0
	testl	%eax, %eax
	leal	-8(%eax), %ebx
	je	.L80
.L76:
.LVL53:
	.loc 1 3676 0
	subl	$12, %esp
	pushl	%edx
	call	bt_l2cap_chan_del
.LVL54:
	.loc 1 3673 0
	addl	$16, %esp
	testl	%ebx, %ebx
	je	.L65
.LVL55:
.LBB160:
.LBB161:
.LBB162:
	.loc 1 96 0
	movl	8(%ebx), %eax
.LVL56:
.LBE162:
.LBE161:
.LBE160:
	.loc 1 3671 0
	testl	%eax, %eax
	je	.L70
.LVL57:
	movl	%ebx, %edx
	leal	-8(%eax), %ebx
.LVL58:
	jmp	.L76
.LVL59:
.L80:
	.loc 1 3676 0
	movl	%edx, 8(%ebp)
.LVL60:
	jmp	.L79
.LVL61:
.L70:
	movl	%ebx, 8(%ebp)
.LVL62:
.L79:
	.loc 1 3678 0
	movl	-4(%ebp), %ebx
	leave
	.cfi_remember_state
	.cfi_restore 5
	.cfi_restore 3
	.cfi_def_cfa 4, 4
	.loc 1 3676 0
	jmp	bt_l2cap_chan_del
.LVL63:
.L65:
	.cfi_restore_state
	.loc 1 3678 0
	movl	-4(%ebp), %ebx
	leave
	.cfi_restore 5
	.cfi_restore 3
	.cfi_def_cfa 4, 4
	ret
	.cfi_endproc
.LFE85:
	.size	bt_l2cap_disconnected, .-bt_l2cap_disconnected
	.section	.text.unlikely.bt_l2cap_disconnected
.LCOLDE9:
	.section	.text.bt_l2cap_disconnected
.LHOTE9:
	.section	.text.unlikely.bt_l2cap_encrypt_change,"ax",@progbits
.LCOLDB10:
	.section	.text.bt_l2cap_encrypt_change,"ax",@progbits
.LHOTB10:
	.globl	bt_l2cap_encrypt_change
	.type	bt_l2cap_encrypt_change, @function
bt_l2cap_encrypt_change:
.LFB87:
	.loc 1 3694 0
	.cfi_startproc
.LVL64:
	pushl	%ebp
	.cfi_def_cfa_offset 8
	.cfi_offset 5, -8
	movl	%esp, %ebp
	.cfi_def_cfa_register 5
	pushl	%esi
	pushl	%ebx
	.cfi_offset 6, -12
	.cfi_offset 3, -16
	movl	8(%ebp), %eax
	.loc 1 3721 0
	movzbl	12(%ebp), %esi
	movl	52(%eax), %eax
.LVL65:
	.loc 1 3707 0
	testl	%eax, %eax
	leal	-8(%eax), %ebx
	je	.L81
.L92:
.LVL66:
	.loc 1 3701 0 discriminator 1
	testl	%ebx, %ebx
	je	.L81
	.loc 1 3720 0
	movl	4(%ebx), %eax
	movl	8(%eax), %eax
	testl	%eax, %eax
	je	.L84
	.loc 1 3721 0
	pushl	%edx
	pushl	%edx
	pushl	%esi
	pushl	%ebx
	call	*%eax
.LVL67:
	addl	$16, %esp
.L84:
.LVL68:
.LBB163:
.LBB164:
.LBB165:
	.loc 1 96 0
	movl	8(%ebx), %edx
.LVL69:
.LBE165:
.LBE164:
.LBE163:
	.loc 1 3715 0
	movl	$0, %ebx
.LVL70:
	leal	-8(%edx), %eax
	testl	%edx, %edx
	cmovne	%eax, %ebx
	jmp	.L92
.L81:
	.loc 1 3724 0
	leal	-8(%ebp), %esp
	popl	%ebx
	.cfi_restore 3
	popl	%esi
	.cfi_restore 6
	popl	%ebp
	.cfi_restore 5
	.cfi_def_cfa 4, 4
	ret
	.cfi_endproc
.LFE87:
	.size	bt_l2cap_encrypt_change, .-bt_l2cap_encrypt_change
	.section	.text.unlikely.bt_l2cap_encrypt_change
.LCOLDE10:
	.section	.text.bt_l2cap_encrypt_change
.LHOTE10:
	.section	.text.unlikely.bt_l2cap_create_pdu,"ax",@progbits
.LCOLDB11:
	.section	.text.bt_l2cap_create_pdu,"ax",@progbits
.LHOTB11:
	.globl	bt_l2cap_create_pdu
	.type	bt_l2cap_create_pdu, @function
bt_l2cap_create_pdu:
.LFB88:
	.loc 1 3726 0
	.cfi_startproc
.LVL71:
	pushl	%ebp
	.cfi_def_cfa_offset 8
	.cfi_offset 5, -8
	movl	%esp, %ebp
	.cfi_def_cfa_register 5
	.loc 1 3727 0
	addl	$4, 12(%ebp)
.LVL72:
	.loc 1 3728 0
	popl	%ebp
	.cfi_restore 5
	.cfi_def_cfa 4, 4
	.loc 1 3727 0
	jmp	bt_conn_create_pdu
.LVL73:
	.cfi_endproc
.LFE88:
	.size	bt_l2cap_create_pdu, .-bt_l2cap_create_pdu
	.section	.text.unlikely.bt_l2cap_create_pdu
.LCOLDE11:
	.section	.text.bt_l2cap_create_pdu
.LHOTE11:
	.section	.text.unlikely.bt_l2cap_send_cb,"ax",@progbits
.LCOLDB12:
	.section	.text.bt_l2cap_send_cb,"ax",@progbits
.LHOTB12:
	.globl	bt_l2cap_send_cb
	.type	bt_l2cap_send_cb, @function
bt_l2cap_send_cb:
.LFB89:
	.loc 1 3731 0
	.cfi_startproc
.LVL74:
	pushl	%ebp
	.cfi_def_cfa_offset 8
	.cfi_offset 5, -8
	movl	%esp, %ebp
	.cfi_def_cfa_register 5
	pushl	%edi
	pushl	%esi
	pushl	%ebx
	subl	$36, %esp
	.cfi_offset 7, -12
	.cfi_offset 6, -16
	.cfi_offset 3, -20
	.loc 1 3731 0
	movl	16(%ebp), %ebx
	movl	12(%ebp), %ecx
	.loc 1 3734 0
	pushl	$4
	.loc 1 3731 0
	movl	8(%ebp), %esi
	movl	20(%ebp), %edi
	.loc 1 3734 0
	leal	8(%ebx), %eax
	.loc 1 3731 0
	movl	%ecx, -28(%ebp)
	.loc 1 3734 0
	pushl	%eax
	call	net_buf_simple_push
.LVL75:
	.loc 1 3735 0
	movl	12(%ebx), %edx
	.loc 1 3736 0
	movl	-28(%ebp), %ecx
	.loc 1 3737 0
	addl	$16, %esp
	.loc 1 3735 0
	subl	$4, %edx
	.loc 1 3736 0
	movw	%cx, 2(%eax)
	.loc 1 3735 0
	movw	%dx, (%eax)
	.loc 1 3737 0
	movl	%edi, 16(%ebp)
	movl	%ebx, 12(%ebp)
	movl	%esi, 8(%ebp)
	.loc 1 3738 0
	leal	-12(%ebp), %esp
	popl	%ebx
	.cfi_restore 3
	popl	%esi
	.cfi_restore 6
	popl	%edi
	.cfi_restore 7
	popl	%ebp
	.cfi_restore 5
	.cfi_def_cfa 4, 4
	.loc 1 3737 0
	jmp	bt_conn_send_cb
.LVL76:
	.cfi_endproc
.LFE89:
	.size	bt_l2cap_send_cb, .-bt_l2cap_send_cb
	.section	.text.unlikely.bt_l2cap_send_cb
.LCOLDE12:
	.section	.text.bt_l2cap_send_cb
.LHOTE12:
	.section	.text.unlikely.l2cap_recv,"ax",@progbits
.LCOLDB13:
	.section	.text.l2cap_recv,"ax",@progbits
.LHOTB13:
	.type	l2cap_recv, @function
l2cap_recv:
.LFB94:
	.loc 1 3839 0
	.cfi_startproc
.LVL77:
	pushl	%ebp
	.cfi_def_cfa_offset 8
	.cfi_offset 5, -8
	movl	%esp, %ebp
	.cfi_def_cfa_register 5
.LVL78:
	pushl	%edi
	pushl	%esi
	pushl	%ebx
	subl	$28, %esp
	.cfi_offset 7, -12
	.cfi_offset 6, -16
	.cfi_offset 3, -20
	.loc 1 3839 0
	movl	12(%ebp), %ebx
.LVL79:
	.loc 1 3849 0
	cmpw	$3, 12(%ebx)
	jbe	.L99
	.loc 1 3847 0
	movl	8(%ebx), %esi
	.loc 1 3854 0
	leal	8(%ebx), %eax
.LVL80:
	.loc 1 3853 0
	movw	2(%esi), %di
.LVL81:
	.loc 1 3854 0
	pushl	%ecx
	pushl	%ecx
	pushl	$4
	pushl	%eax
	call	net_buf_simple_pull
.LVL82:
	.loc 1 3856 0
	addl	$16, %esp
	cmpw	12(%ebx), %di
	jne	.L99
	.loc 1 3860 0
	movb	1(%esi), %dl
	testb	%dl, %dl
	movb	%dl, -25(%ebp)
	je	.L99
	.loc 1 3864 0
	movb	(%esi), %al
	cmpb	$1, %al
	je	.L99
	cmpb	$19, %al
	je	.L99
	.loc 1 3872 0
	movl	8(%ebp), %eax
	movl	(%eax), %edi
.LVL83:
.LBB174:
.LBB175:
.LBB176:
.LBB177:
.LBB178:
.LBB179:
	.loc 1 3727 0
	pushl	%eax
	pushl	%eax
	pushl	$4
	pushl	$0
	call	bt_conn_create_pdu
.LVL84:
.LBE179:
.LBE178:
	.loc 1 3687 0
	popl	%edx
	leal	8(%eax), %esi
.LVL85:
.LBB181:
.LBB180:
	.loc 1 3727 0
	movl	%eax, %ebx
.LVL86:
.LBE180:
.LBE181:
	.loc 1 3687 0
	popl	%ecx
	pushl	$4
	pushl	%esi
	call	net_buf_simple_add
.LVL87:
	.loc 1 3689 0
	movb	-25(%ebp), %dl
	.loc 1 3688 0
	movb	$1, (%eax)
	.loc 1 3690 0
	movw	$2, 2(%eax)
.LVL88:
	.loc 1 3689 0
	movb	%dl, 1(%eax)
.LBE177:
.LBE176:
	.loc 1 3748 0
	popl	%eax
	popl	%edx
	pushl	$2
	pushl	%esi
	call	net_buf_simple_add
.LVL89:
	.loc 1 3749 0
	movw	$0, (%eax)
.LVL90:
.LBB182:
.LBB183:
	.loc 1 3452 0
	pushl	$0
	pushl	%ebx
	pushl	$5
	pushl	%edi
	call	bt_l2cap_send_cb
.LVL91:
	addl	$32, %esp
.LVL92:
.L99:
.LBE183:
.LBE182:
.LBE175:
.LBE174:
	.loc 1 3878 0
	leal	-12(%ebp), %esp
	popl	%ebx
	.cfi_restore 3
	popl	%esi
	.cfi_restore 6
	popl	%edi
	.cfi_restore 7
	popl	%ebp
	.cfi_restore 5
	.cfi_def_cfa 4, 4
	ret
	.cfi_endproc
.LFE94:
	.size	l2cap_recv, .-l2cap_recv
	.section	.text.unlikely.l2cap_recv
.LCOLDE13:
	.section	.text.l2cap_recv
.LHOTE13:
	.section	.text.unlikely.bt_l2cap_le_lookup_tx_cid,"ax",@progbits
.LCOLDB14:
	.section	.text.bt_l2cap_le_lookup_tx_cid,"ax",@progbits
.LHOTB14:
	.globl	bt_l2cap_le_lookup_tx_cid
	.type	bt_l2cap_le_lookup_tx_cid, @function
bt_l2cap_le_lookup_tx_cid:
.LFB92:
	.loc 1 3766 0
	.cfi_startproc
.LVL93:
	pushl	%ebp
	.cfi_def_cfa_offset 8
	.cfi_offset 5, -8
	movl	%esp, %ebp
	.cfi_def_cfa_register 5
	movl	8(%ebp), %eax
	.loc 1 3766 0
	movl	12(%ebp), %ecx
	movl	52(%eax), %edx
.LVL94:
	.loc 1 3798 0
	xorl	%eax, %eax
	.loc 1 3774 0
	testl	%edx, %edx
	je	.L115
.LVL95:
	.loc 1 3774 0 is_stmt 0 discriminator 1
	leal	-8(%edx), %eax
.L116:
.LVL96:
	.loc 1 3768 0 is_stmt 1 discriminator 1
	testl	%eax, %eax
	je	.L115
	.loc 1 3787 0
	cmpw	%cx, 72(%eax)
	je	.L115
.LVL97:
.LBB184:
.LBB185:
.LBB186:
	.loc 1 96 0
	movl	8(%eax), %eax
.LVL98:
.LBE186:
.LBE185:
.LBE184:
	.loc 1 3782 0
	testl	%eax, %eax
	je	.L120
	subl	$8, %eax
	jmp	.L116
.L120:
	.loc 1 3798 0
	xorl	%eax, %eax
.LVL99:
.L115:
	.loc 1 3800 0
	popl	%ebp
	.cfi_restore 5
	.cfi_def_cfa 4, 4
	ret
	.cfi_endproc
.LFE92:
	.size	bt_l2cap_le_lookup_tx_cid, .-bt_l2cap_le_lookup_tx_cid
	.section	.text.unlikely.bt_l2cap_le_lookup_tx_cid
.LCOLDE14:
	.section	.text.bt_l2cap_le_lookup_tx_cid
.LHOTE14:
	.section	.text.unlikely.bt_l2cap_le_lookup_rx_cid,"ax",@progbits
.LCOLDB15:
	.section	.text.bt_l2cap_le_lookup_rx_cid,"ax",@progbits
.LHOTB15:
	.globl	bt_l2cap_le_lookup_rx_cid
	.type	bt_l2cap_le_lookup_rx_cid, @function
bt_l2cap_le_lookup_rx_cid:
.LFB93:
	.loc 1 3803 0
	.cfi_startproc
.LVL100:
	pushl	%ebp
	.cfi_def_cfa_offset 8
	.cfi_offset 5, -8
	movl	%esp, %ebp
	.cfi_def_cfa_register 5
	movl	8(%ebp), %eax
	.loc 1 3803 0
	movl	12(%ebp), %ecx
	movl	52(%eax), %edx
.LVL101:
	.loc 1 3835 0
	xorl	%eax, %eax
	.loc 1 3811 0
	testl	%edx, %edx
	je	.L123
.LVL102:
	.loc 1 3811 0 is_stmt 0 discriminator 1
	leal	-8(%edx), %eax
.L124:
.LVL103:
	.loc 1 3805 0 is_stmt 1 discriminator 1
	testl	%eax, %eax
	je	.L123
	.loc 1 3824 0
	cmpw	%cx, 52(%eax)
	je	.L123
.LVL104:
.LBB187:
.LBB188:
.LBB189:
	.loc 1 96 0
	movl	8(%eax), %eax
.LVL105:
.LBE189:
.LBE188:
.LBE187:
	.loc 1 3819 0
	testl	%eax, %eax
	je	.L128
	subl	$8, %eax
	jmp	.L124
.L128:
	.loc 1 3835 0
	xorl	%eax, %eax
.LVL106:
.L123:
	.loc 1 3837 0
	popl	%ebp
	.cfi_restore 5
	.cfi_def_cfa 4, 4
	ret
	.cfi_endproc
.LFE93:
	.size	bt_l2cap_le_lookup_rx_cid, .-bt_l2cap_le_lookup_rx_cid
	.section	.text.unlikely.bt_l2cap_le_lookup_rx_cid
.LCOLDE15:
	.section	.text.bt_l2cap_le_lookup_rx_cid
.LHOTE15:
	.section	.text.unlikely.bt_l2cap_recv,"ax",@progbits
.LCOLDB16:
	.section	.text.bt_l2cap_recv,"ax",@progbits
.LHOTB16:
	.globl	bt_l2cap_recv
	.type	bt_l2cap_recv, @function
bt_l2cap_recv:
.LFB96:
	.loc 1 3885 0
	.cfi_startproc
.LVL107:
	pushl	%ebp
	.cfi_def_cfa_offset 8
	.cfi_offset 5, -8
	movl	%esp, %ebp
	.cfi_def_cfa_register 5
	pushl	%edi
	pushl	%esi
	pushl	%ebx
	subl	$12, %esp
	.cfi_offset 7, -12
	.cfi_offset 6, -16
	.cfi_offset 3, -20
	.loc 1 3885 0
	movl	12(%ebp), %ebx
.LVL108:
	movl	8(%ebp), %edi
	.loc 1 3894 0
	cmpw	$3, 12(%ebx)
	jbe	.L137
	.loc 1 3899 0
	movl	8(%ebx), %eax
	movzwl	2(%eax), %esi
.LVL109:
	.loc 1 3900 0
	leal	8(%ebx), %eax
.LVL110:
	pushl	%ecx
.LVL111:
	pushl	%ecx
	pushl	$4
	pushl	%eax
	call	net_buf_simple_pull
.LVL112:
	.loc 1 3902 0
	popl	%eax
	popl	%edx
	pushl	%esi
	pushl	%edi
	call	bt_l2cap_le_lookup_rx_cid
.LVL113:
	addl	$16, %esp
.LVL114:
	.loc 1 3903 0
	testl	%eax, %eax
	je	.L137
.LVL115:
.LBB192:
.LBB193:
	.loc 1 3882 0
	pushl	%edx
	pushl	%edx
	movl	4(%eax), %edx
	pushl	%ebx
	pushl	%eax
	call	*16(%edx)
.LVL116:
.LBE193:
.LBE192:
	.loc 1 3909 0
	addl	$16, %esp
.LVL117:
.L137:
	movl	%ebx, 8(%ebp)
	.loc 1 3910 0
	leal	-12(%ebp), %esp
	popl	%ebx
	.cfi_restore 3
	popl	%esi
	.cfi_restore 6
	popl	%edi
	.cfi_restore 7
	popl	%ebp
	.cfi_restore 5
	.cfi_def_cfa 4, 4
	.loc 1 3909 0
	jmp	net_buf_unref
.LVL118:
	.cfi_endproc
.LFE96:
	.size	bt_l2cap_recv, .-bt_l2cap_recv
	.section	.text.unlikely.bt_l2cap_recv
.LCOLDE16:
	.section	.text.bt_l2cap_recv
.LHOTE16:
	.section	.text.unlikely.bt_l2cap_update_conn_param,"ax",@progbits
.LCOLDB17:
	.section	.text.bt_l2cap_update_conn_param,"ax",@progbits
.LHOTB17:
	.globl	bt_l2cap_update_conn_param
	.type	bt_l2cap_update_conn_param, @function
bt_l2cap_update_conn_param:
.LFB97:
	.loc 1 3913 0
	.cfi_startproc
.LVL119:
	pushl	%ebp
	.cfi_def_cfa_offset 8
	.cfi_offset 5, -8
	movl	%esp, %ebp
	.cfi_def_cfa_register 5
	pushl	%edi
	pushl	%esi
	pushl	%ebx
	subl	$28, %esp
	.cfi_offset 7, -12
	.cfi_offset 6, -16
	.cfi_offset 3, -20
.LBB202:
.LBB203:
	.loc 1 3483 0
	movb	ident.5035, %al
.LBE203:
.LBE202:
	.loc 1 3913 0
	movl	12(%ebp), %ebx
.LBB206:
.LBB204:
	.loc 1 3484 0
	movb	%al, %dl
	incb	%dl
	je	.L139
	.loc 1 3483 0
	movb	%dl, ident.5035
	jmp	.L140
.L139:
	.loc 1 3485 0
	addl	$2, %eax
	movb	%al, ident.5035
.L140:
	.loc 1 3487 0
	movb	ident.5035, %dl
.LBE204:
.LBE206:
.LBB207:
.LBB208:
.LBB209:
.LBB210:
	.loc 1 3727 0
	pushl	%eax
	pushl	%eax
	pushl	$4
	pushl	$0
.LBE210:
.LBE209:
.LBE208:
.LBE207:
.LBB216:
.LBB205:
	.loc 1 3487 0
	movb	%dl, -25(%ebp)
.LVL120:
.LBE205:
.LBE216:
.LBB217:
.LBB215:
.LBB213:
.LBB211:
	.loc 1 3727 0
	call	bt_conn_create_pdu
.LVL121:
.LBE211:
.LBE213:
	.loc 1 3687 0
	popl	%edx
	leal	8(%eax), %edi
.LBB214:
.LBB212:
	.loc 1 3727 0
	movl	%eax, %esi
.LVL122:
.LBE212:
.LBE214:
	.loc 1 3687 0
	popl	%ecx
	pushl	$4
	pushl	%edi
	call	net_buf_simple_add
.LVL123:
	.loc 1 3689 0
	movb	-25(%ebp), %dl
	.loc 1 3688 0
	movb	$18, (%eax)
	.loc 1 3690 0
	movw	$8, 2(%eax)
.LVL124:
	.loc 1 3689 0
	movb	%dl, 1(%eax)
.LBE215:
.LBE217:
	.loc 1 3920 0
	popl	%eax
	popl	%edx
	pushl	$8
	pushl	%edi
	call	net_buf_simple_add
.LVL125:
	.loc 1 3921 0
	movw	(%ebx), %dx
	movw	%dx, (%eax)
	.loc 1 3922 0
	movw	2(%ebx), %dx
	movw	%dx, 2(%eax)
	.loc 1 3923 0
	movw	4(%ebx), %dx
	movw	%dx, 4(%eax)
	.loc 1 3924 0
	movw	6(%ebx), %dx
	movw	%dx, 6(%eax)
.LVL126:
.LBB218:
.LBB219:
	.loc 1 3452 0
	pushl	$0
	pushl	%esi
	pushl	$5
	pushl	8(%ebp)
	call	bt_l2cap_send_cb
.LVL127:
.LBE219:
.LBE218:
	.loc 1 3927 0
	leal	-12(%ebp), %esp
	xorl	%eax, %eax
	popl	%ebx
	.cfi_restore 3
	popl	%esi
	.cfi_restore 6
	popl	%edi
	.cfi_restore 7
	popl	%ebp
	.cfi_restore 5
	.cfi_def_cfa 4, 4
	ret
	.cfi_endproc
.LFE97:
	.size	bt_l2cap_update_conn_param, .-bt_l2cap_update_conn_param
	.section	.text.unlikely.bt_l2cap_update_conn_param
.LCOLDE17:
	.section	.text.bt_l2cap_update_conn_param
.LHOTE17:
	.section	.text.unlikely.bt_l2cap_init,"ax",@progbits
.LCOLDB18:
	.section	.text.bt_l2cap_init,"ax",@progbits
.LHOTB18:
	.globl	bt_l2cap_init
	.type	bt_l2cap_init, @function
bt_l2cap_init:
.LFB101:
	.loc 1 3958 0
	.cfi_startproc
	pushl	%ebp
	.cfi_def_cfa_offset 8
	.cfi_offset 5, -8
	movl	%esp, %ebp
	.cfi_def_cfa_register 5
	.loc 1 3963 0
	pushl	$chan.5189
	call	bt_l2cap_le_fixed_chan_register
.LVL128:
	.loc 1 3967 0
	popl	%eax
	leave
	.cfi_restore 5
	.cfi_def_cfa 4, 4
	ret
	.cfi_endproc
.LFE101:
	.size	bt_l2cap_init, .-bt_l2cap_init
	.section	.text.unlikely.bt_l2cap_init
.LCOLDE18:
	.section	.text.bt_l2cap_init
.LHOTE18:
	.section	.data.ops.5180,"aw",@progbits
	.align 4
	.type	ops.5180, @object
	.size	ops.5180, 20
ops.5180:
	.long	l2cap_connected
	.long	l2cap_disconnected
	.zero	8
	.long	l2cap_recv
	.section	.data.chan.5189,"aw",@progbits
	.align 4
	.type	chan.5189, @object
	.size	chan.5189, 12
chan.5189:
	.value	5
	.zero	2
	.long	l2cap_accept
	.zero	4
	.section	.bss.ident.5035,"aw",@nobits
	.type	ident.5035, @object
	.size	ident.5035, 1
ident.5035:
	.zero	1
	.section	.bss.bt_l2cap_pool,"aw",@nobits
	.align 32
	.type	bt_l2cap_pool, @object
	.size	bt_l2cap_pool, 116
bt_l2cap_pool:
	.zero	116
	.section	.bss.le_channels,"aw",@nobits
	.align 4
	.type	le_channels, @object
	.size	le_channels, 8
le_channels:
	.zero	8
	.text
.Letext0:
	.section	.text.unlikely.l2cap_disconnected
.Letext_cold0:
	.section	.note.GNU-stack,"",@progbits
