	.file	"ll.c"
	.text
.Ltext0:
	.section	.text.unlikely.RADIO_IRQHandler,"ax",@progbits
.LCOLDB0:
	.section	.text.RADIO_IRQHandler,"ax",@progbits
.LHOTB0:
	.section	.text.unlikely.RADIO_IRQHandler
.Ltext_cold0:
	.section	.text.RADIO_IRQHandler
	.globl	RADIO_IRQHandler
	.type	RADIO_IRQHandler, @function
RADIO_IRQHandler:
.LFB199:
	.file 1 "src/ll.c"
	.loc 1 6609 0
	.cfi_startproc
.LVL0:
	pushl	%ebp
	.cfi_def_cfa_offset 8
	.cfi_offset 5, -8
	movl	%esp, %ebp
	.cfi_def_cfa_register 5
	subl	$8, %esp
	.loc 1 6610 0
	call	krhino_intrpt_enter
.LVL1:
	.loc 1 6611 0
	call	isr_radio
.LVL2:
	.loc 1 6613 0
	leave
	.cfi_restore 5
	.cfi_def_cfa 4, 4
	.loc 1 6612 0
	jmp	krhino_intrpt_exit
.LVL3:
	.cfi_endproc
.LFE199:
	.size	RADIO_IRQHandler, .-RADIO_IRQHandler
	.section	.text.unlikely.RADIO_IRQHandler
.LCOLDE0:
	.section	.text.RADIO_IRQHandler
.LHOTE0:
	.section	.text.unlikely.RTC0_IRQHandler,"ax",@progbits
.LCOLDB1:
	.section	.text.RTC0_IRQHandler,"ax",@progbits
.LHOTB1:
	.globl	RTC0_IRQHandler
	.type	RTC0_IRQHandler, @function
RTC0_IRQHandler:
.LFB200:
	.loc 1 6615 0
	.cfi_startproc
.LVL4:
	pushl	%ebp
	.cfi_def_cfa_offset 8
	.cfi_offset 5, -8
	movl	%esp, %ebp
	.cfi_def_cfa_register 5
	pushl	%ebx
	pushl	%eax
	.cfi_offset 3, -12
	.loc 1 6617 0
	call	krhino_intrpt_enter
.LVL5:
	.loc 1 6618 0
	movl	1073787200, %eax
.LVL6:
	.loc 1 6619 0
	movl	1073787204, %ebx
.LVL7:
	.loc 1 6620 0
	testl	%eax, %eax
	je	.L4
	.loc 1 6622 0
	subl	$12, %esp
	.loc 1 6621 0
	movl	$0, 1073787200
	.loc 1 6622 0
	pushl	$0
	call	ticker_trigger
.LVL8:
	addl	$16, %esp
.L4:
	.loc 1 6624 0
	testl	%ebx, %ebx
	je	.L5
	.loc 1 6626 0
	subl	$12, %esp
	.loc 1 6625 0
	movl	$0, 1073787204
	.loc 1 6626 0
	pushl	$1
	call	ticker_trigger
.LVL9:
	addl	$16, %esp
.L5:
	.loc 1 6628 0
	subl	$12, %esp
	pushl	$0
	call	mayfly_run
.LVL10:
	.loc 1 6629 0
	addl	$16, %esp
	.loc 1 6630 0
	movl	-4(%ebp), %ebx
.LVL11:
	leave
	.cfi_restore 5
	.cfi_restore 3
	.cfi_def_cfa 4, 4
	.loc 1 6629 0
	jmp	krhino_intrpt_exit
.LVL12:
	.cfi_endproc
.LFE200:
	.size	RTC0_IRQHandler, .-RTC0_IRQHandler
	.section	.text.unlikely.RTC0_IRQHandler
.LCOLDE1:
	.section	.text.RTC0_IRQHandler
.LHOTE1:
	.section	.text.unlikely.SWI4_EGU4_IRQHandler,"ax",@progbits
.LCOLDB2:
	.section	.text.SWI4_EGU4_IRQHandler,"ax",@progbits
.LHOTB2:
	.globl	SWI4_EGU4_IRQHandler
	.type	SWI4_EGU4_IRQHandler, @function
SWI4_EGU4_IRQHandler:
.LFB202:
	.loc 1 6638 0
	.cfi_startproc
.LVL13:
	pushl	%ebp
	.cfi_def_cfa_offset 8
	.cfi_offset 5, -8
	movl	%esp, %ebp
	.cfi_def_cfa_register 5
	subl	$8, %esp
	.loc 1 6639 0
	call	krhino_intrpt_enter
.LVL14:
	.loc 1 6640 0
	subl	$12, %esp
	pushl	$1
	call	mayfly_run
.LVL15:
	.loc 1 6641 0
	addl	$16, %esp
	.loc 1 6642 0
	leave
	.cfi_restore 5
	.cfi_def_cfa 4, 4
	.loc 1 6641 0
	jmp	krhino_intrpt_exit
.LVL16:
	.cfi_endproc
.LFE202:
	.size	SWI4_EGU4_IRQHandler, .-SWI4_EGU4_IRQHandler
	.section	.text.unlikely.SWI4_EGU4_IRQHandler
.LCOLDE2:
	.section	.text.SWI4_EGU4_IRQHandler
.LHOTE2:
	.section	.text.unlikely.RNG_IRQHandler,"ax",@progbits
.LCOLDB3:
	.section	.text.RNG_IRQHandler,"ax",@progbits
.LHOTB3:
	.globl	RNG_IRQHandler
	.type	RNG_IRQHandler, @function
RNG_IRQHandler:
.LFB201:
	.loc 1 6632 0
	.cfi_startproc
.LVL17:
	pushl	%ebp
	.cfi_def_cfa_offset 8
	.cfi_offset 5, -8
	movl	%esp, %ebp
	.cfi_def_cfa_register 5
	pushl	%ebx
	pushl	%eax
	.cfi_offset 3, -12
	.loc 1 6632 0
	movl	8(%ebp), %ebx
	.loc 1 6633 0
	call	krhino_intrpt_enter
.LVL18:
	.loc 1 6634 0
	subl	$12, %esp
	pushl	%ebx
	call	isr_rand
.LVL19:
	.loc 1 6635 0
	addl	$16, %esp
	.loc 1 6636 0
	movl	-4(%ebp), %ebx
	leave
	.cfi_restore 5
	.cfi_restore 3
	.cfi_def_cfa 4, 4
	.loc 1 6635 0
	jmp	krhino_intrpt_exit
.LVL20:
	.cfi_endproc
.LFE201:
	.size	RNG_IRQHandler, .-RNG_IRQHandler
	.section	.text.unlikely.RNG_IRQHandler
.LCOLDE3:
	.section	.text.RNG_IRQHandler
.LHOTE3:
	.section	.text.unlikely.mayfly_enable_cb,"ax",@progbits
.LCOLDB4:
	.section	.text.mayfly_enable_cb,"ax",@progbits
.LHOTB4:
	.globl	mayfly_enable_cb
	.type	mayfly_enable_cb, @function
mayfly_enable_cb:
.LFB193:
	.loc 1 6557 0
	.cfi_startproc
.LVL21:
	pushl	%ebp
	.cfi_def_cfa_offset 8
	.cfi_offset 5, -8
	movl	%esp, %ebp
	.cfi_def_cfa_register 5
	.loc 1 6560 0
	cmpb	$0, 16(%ebp)
	.loc 1 6561 0
	movl	$24, 8(%ebp)
.LVL22:
	.loc 1 6560 0
	je	.L19
	.loc 1 6565 0
	popl	%ebp
	.cfi_remember_state
	.cfi_restore 5
	.cfi_def_cfa 4, 4
	.loc 1 6561 0
	jmp	_arch_irq_enable
.LVL23:
.L19:
	.cfi_restore_state
	.loc 1 6565 0
	popl	%ebp
	.cfi_restore 5
	.cfi_def_cfa 4, 4
	.loc 1 6563 0
	jmp	_arch_irq_disable
.LVL24:
	.cfi_endproc
.LFE193:
	.size	mayfly_enable_cb, .-mayfly_enable_cb
	.section	.text.unlikely.mayfly_enable_cb
.LCOLDE4:
	.section	.text.mayfly_enable_cb
.LHOTE4:
	.section	.text.unlikely.mayfly_is_enabled,"ax",@progbits
.LCOLDB5:
	.section	.text.mayfly_is_enabled,"ax",@progbits
.LHOTB5:
	.globl	mayfly_is_enabled
	.type	mayfly_is_enabled, @function
mayfly_is_enabled:
.LFB194:
	.loc 1 6567 0
	.cfi_startproc
.LVL25:
	pushl	%ebp
	.cfi_def_cfa_offset 8
	.cfi_offset 5, -8
	movl	%esp, %ebp
	.cfi_def_cfa_register 5
	.loc 1 6567 0
	movl	12(%ebp), %eax
	.loc 1 6569 0
	testb	%al, %al
	jne	.L22
	.loc 1 6570 0
	movl	$11, 8(%ebp)
.LVL26:
	jmp	.L25
.LVL27:
.L22:
	.loc 1 6571 0
	decb	%al
.LVL28:
	jne	.L23
	.loc 1 6572 0
	movl	$24, 8(%ebp)
.LVL29:
.L25:
	.loc 1 6576 0
	popl	%ebp
	.cfi_remember_state
	.cfi_restore 5
	.cfi_def_cfa 4, 4
	.loc 1 6572 0
	jmp	_arch_irq_is_enabled
.LVL30:
.L23:
	.cfi_restore_state
	.loc 1 6576 0
	xorl	%eax, %eax
	popl	%ebp
	.cfi_restore 5
	.cfi_def_cfa 4, 4
	ret
	.cfi_endproc
.LFE194:
	.size	mayfly_is_enabled, .-mayfly_is_enabled
	.section	.text.unlikely.mayfly_is_enabled
.LCOLDE5:
	.section	.text.mayfly_is_enabled
.LHOTE5:
	.section	.text.unlikely.mayfly_prio_is_equal,"ax",@progbits
.LCOLDB6:
	.section	.text.mayfly_prio_is_equal,"ax",@progbits
.LHOTB6:
	.globl	mayfly_prio_is_equal
	.type	mayfly_prio_is_equal, @function
mayfly_prio_is_equal:
.LFB195:
	.loc 1 6578 0
	.cfi_startproc
.LVL31:
	pushl	%ebp
	.cfi_def_cfa_offset 8
	.cfi_offset 5, -8
	.loc 1 6581 0
	movl	$1, %eax
	.loc 1 6578 0
	movl	%esp, %ebp
	.cfi_def_cfa_register 5
	.loc 1 6578 0
	movl	8(%ebp), %ecx
	movl	12(%ebp), %edx
	.loc 1 6581 0
	cmpb	%dl, %cl
	je	.L27
	.loc 1 6579 0
	testb	%cl, %cl
	jne	.L31
	cmpb	$1, %dl
	je	.L27
.L31:
	.loc 1 6581 0 discriminator 2
	decb	%cl
.LVL32:
	sete	%al
	testb	%dl, %dl
	sete	%dl
	movzbl	%dl, %edx
	andl	%edx, %eax
.L27:
	.loc 1 6584 0
	popl	%ebp
	.cfi_restore 5
	.cfi_def_cfa 4, 4
	ret
	.cfi_endproc
.LFE195:
	.size	mayfly_prio_is_equal, .-mayfly_prio_is_equal
	.section	.text.unlikely.mayfly_prio_is_equal
.LCOLDE6:
	.section	.text.mayfly_prio_is_equal
.LHOTE6:
	.section	.text.unlikely.mayfly_pend,"ax",@progbits
.LCOLDB7:
	.section	.text.mayfly_pend,"ax",@progbits
.LHOTB7:
	.globl	mayfly_pend
	.type	mayfly_pend, @function
mayfly_pend:
.LFB196:
	.loc 1 6586 0
	.cfi_startproc
.LVL33:
	pushl	%ebp
	.cfi_def_cfa_offset 8
	.cfi_offset 5, -8
	movl	%esp, %ebp
	.cfi_def_cfa_register 5
	.loc 1 6586 0
	movl	12(%ebp), %eax
	.loc 1 6588 0
	testb	%al, %al
	je	.L38
	decb	%al
.LVL34:
	jne	.L36
.LVL35:
.LBB6:
.LBB7:
	.loc 1 4054 0
	movl	$16777216, -536813056
.LVL36:
.LBE7:
.LBE6:
	.loc 1 6600 0
	jmp	.L36
.LVL37:
.L38:
.LBB8:
.LBB9:
	.loc 1 4054 0
	movl	$2048, -536813056
.LVL38:
.L36:
.LBE9:
.LBE8:
	.loc 1 6600 0
	popl	%ebp
	.cfi_restore 5
	.cfi_def_cfa 4, 4
	ret
	.cfi_endproc
.LFE196:
	.size	mayfly_pend, .-mayfly_pend
	.section	.text.unlikely.mayfly_pend
.LCOLDE7:
	.section	.text.mayfly_pend
.LHOTE7:
	.section	.text.unlikely.radio_active_callback,"ax",@progbits
.LCOLDB8:
	.section	.text.radio_active_callback,"ax",@progbits
.LHOTB8:
	.globl	radio_active_callback
	.type	radio_active_callback, @function
radio_active_callback:
.LFB197:
	.loc 1 6602 0
	.cfi_startproc
.LVL39:
	pushl	%ebp
	.cfi_def_cfa_offset 8
	.cfi_offset 5, -8
	movl	%esp, %ebp
	.cfi_def_cfa_register 5
	.loc 1 6603 0
	popl	%ebp
	.cfi_restore 5
	.cfi_def_cfa 4, 4
	ret
	.cfi_endproc
.LFE197:
	.size	radio_active_callback, .-radio_active_callback
	.section	.text.unlikely.radio_active_callback
.LCOLDE8:
	.section	.text.radio_active_callback
.LHOTE8:
	.section	.text.unlikely.radio_event_callback,"ax",@progbits
.LCOLDB9:
	.section	.text.radio_event_callback,"ax",@progbits
.LHOTB9:
	.globl	radio_event_callback
	.type	radio_event_callback, @function
radio_event_callback:
.LFB198:
	.loc 1 6605 0
	.cfi_startproc
	pushl	%ebp
	.cfi_def_cfa_offset 8
	.cfi_offset 5, -8
	movl	%esp, %ebp
	.cfi_def_cfa_register 5
	subl	$20, %esp
	.loc 1 6606 0
	pushl	sem_recv
	call	k_sem_give
.LVL40:
	.loc 1 6607 0
	addl	$16, %esp
	leave
	.cfi_restore 5
	.cfi_def_cfa 4, 4
	ret
	.cfi_endproc
.LFE198:
	.size	radio_event_callback, .-radio_event_callback
	.section	.text.unlikely.radio_event_callback
.LCOLDE9:
	.section	.text.radio_event_callback
.LHOTE9:
	.section	.rodata.str1.1,"aMS",@progbits,1
.LC10:
	.string	"nrf5k32srcclockcontrol"
.LC11:
	.string	"nrf5m16srcclockcontrol"
	.section	.text.unlikely.ll_init,"ax",@progbits
.LCOLDB12:
	.section	.text.ll_init,"ax",@progbits
.LHOTB12:
	.globl	ll_init
	.type	ll_init, @function
ll_init:
.LFB203:
	.loc 1 6644 0
	.cfi_startproc
.LVL41:
	pushl	%ebp
	.cfi_def_cfa_offset 8
	.cfi_offset 5, -8
	movl	%esp, %ebp
	.cfi_def_cfa_register 5
	subl	$20, %esp
	.loc 1 6648 0
	movl	8(%ebp), %eax
	.loc 1 6650 0
	pushl	$mutex_rand
	.loc 1 6648 0
	movl	%eax, sem_recv
	.loc 1 6650 0
	call	k_mutex_init
.LVL42:
	.loc 1 6651 0
	addl	$12, %esp
	pushl	$4
	pushl	$9
	pushl	$rand_context
	call	rand_init
.LVL43:
	.loc 1 6652 0
	addl	$12, %esp
	pushl	$12
	pushl	$17
	pushl	$rand_isr_context
	call	rand_isr_init
.LVL44:
	.loc 1 6654 0
	movl	$.LC10, (%esp)
	call	device_get_binding
.LVL45:
	.loc 1 6655 0
	addl	$16, %esp
	testl	%eax, %eax
	jne	.L46
.LVL46:
.L48:
	.loc 1 6656 0
	movl	$-19, %edx
	jmp	.L47
.LVL47:
.L46:
.LBB16:
.LBB17:
	.loc 1 910 0
	pushl	%edx
.LVL48:
	pushl	%edx
	movl	4(%eax), %edx
	pushl	$1
	pushl	%eax
	call	*(%edx)
.LVL49:
.LBE17:
.LBE16:
	.loc 1 6659 0
	call	cntr_init
.LVL50:
	.loc 1 6660 0
	call	mayfly_init
.LVL51:
	.loc 1 6665 0
	addl	$12, %esp
	.loc 1 6661 0
	movb	$8, _ticker_users
	.loc 1 6662 0
	movb	$3, _ticker_users+8
	.loc 1 6665 0
	pushl	$_ticker_user_ops
	pushl	$13
	pushl	$_ticker_users
	pushl	$4
	pushl	$_ticker_nodes
	pushl	$8
	pushl	$0
	.loc 1 6663 0
	movb	$0, _ticker_users+16
	.loc 1 6664 0
	movb	$2, _ticker_users+24
	.loc 1 6665 0
	call	ticker_init
.LVL52:
	.loc 1 6668 0
	addl	$20, %esp
	pushl	$.LC11
	call	device_get_binding
.LVL53:
	.loc 1 6669 0
	addl	$16, %esp
	testl	%eax, %eax
	je	.L48
	.loc 1 6672 0
	subl	$12, %esp
	pushl	$836
	pushl	$_radio
	pushl	$27
	pushl	$27
	pushl	$2
	pushl	$1
	pushl	$1
	pushl	$1
	pushl	%eax
	call	radio_init
.LVL54:
	.loc 1 6678 0
	addl	$48, %esp
	testl	%eax, %eax
	.loc 1 6680 0
	movl	$-12, %edx
	.loc 1 6678 0
	jne	.L47
	.loc 1 6682 0
	subl	$12, %esp
	pushl	$1
	call	ll_filter_reset
.LVL55:
.LBB18:
	.loc 1 6687 0
	addl	$12, %esp
	pushl	$0
	pushl	$RADIO_IRQHandler
	pushl	$1
	call	os_hwi_set_handler
.LVL56:
	.loc 1 6689 0
	addl	$12, %esp
	pushl	$0
	pushl	$0
	pushl	$1
	call	_irq_priority_set
.LVL57:
.LBE18:
.LBB19:
	.loc 1 6693 0
	addl	$12, %esp
	pushl	$0
	pushl	$RTC0_IRQHandler
	pushl	$11
	call	os_hwi_set_handler
.LVL58:
	.loc 1 6695 0
	addl	$12, %esp
	pushl	$0
	pushl	$0
	pushl	$11
	call	_irq_priority_set
.LVL59:
.LBE19:
.LBB20:
	.loc 1 6699 0
	addl	$12, %esp
	pushl	$0
	pushl	$SWI4_EGU4_IRQHandler
	pushl	$24
	call	os_hwi_set_handler
.LVL60:
	.loc 1 6701 0
	addl	$12, %esp
	pushl	$0
	pushl	$0
	pushl	$24
	call	_irq_priority_set
.LVL61:
.LBE20:
.LBB21:
	.loc 1 6705 0
	addl	$12, %esp
	pushl	$0
	pushl	$RNG_IRQHandler
	pushl	$13
	call	os_hwi_set_handler
.LVL62:
	.loc 1 6707 0
	addl	$12, %esp
	pushl	$0
	pushl	$1
	pushl	$13
	call	_irq_priority_set
.LVL63:
.LBE21:
	.loc 1 6708 0
	movl	$1, (%esp)
	call	_arch_irq_enable
.LVL64:
	.loc 1 6709 0
	movl	$11, (%esp)
	call	_arch_irq_enable
.LVL65:
	.loc 1 6710 0
	movl	$24, (%esp)
	call	_arch_irq_enable
.LVL66:
	.loc 1 6711 0
	movl	$13, (%esp)
	call	_arch_irq_enable
.LVL67:
	.loc 1 6712 0
	addl	$16, %esp
	xorl	%edx, %edx
.L47:
	.loc 1 6713 0
	movl	%edx, %eax
	leave
	.cfi_restore 5
	.cfi_def_cfa 4, 4
	ret
	.cfi_endproc
.LFE203:
	.size	ll_init, .-ll_init
	.section	.text.unlikely.ll_init
.LCOLDE12:
	.section	.text.ll_init
.LHOTE12:
	.section	.text.unlikely.ll_timeslice_ticker_id_get,"ax",@progbits
.LCOLDB13:
	.section	.text.ll_timeslice_ticker_id_get,"ax",@progbits
.LHOTB13:
	.globl	ll_timeslice_ticker_id_get
	.type	ll_timeslice_ticker_id_get, @function
ll_timeslice_ticker_id_get:
.LFB204:
	.loc 1 6715 0
	.cfi_startproc
.LVL68:
	pushl	%ebp
	.cfi_def_cfa_offset 8
	.cfi_offset 5, -8
	movl	%esp, %ebp
	.cfi_def_cfa_register 5
	.loc 1 6716 0
	movl	12(%ebp), %eax
	movb	$8, (%eax)
	.loc 1 6717 0
	movl	8(%ebp), %eax
	movb	$0, (%eax)
	.loc 1 6718 0
	popl	%ebp
	.cfi_restore 5
	.cfi_def_cfa 4, 4
	ret
	.cfi_endproc
.LFE204:
	.size	ll_timeslice_ticker_id_get, .-ll_timeslice_ticker_id_get
	.section	.text.unlikely.ll_timeslice_ticker_id_get
.LCOLDE13:
	.section	.text.ll_timeslice_ticker_id_get
.LHOTE13:
	.section	.text.unlikely.ll_addr_get,"ax",@progbits
.LCOLDB14:
	.section	.text.ll_addr_get,"ax",@progbits
.LHOTB14:
	.globl	ll_addr_get
	.type	ll_addr_get, @function
ll_addr_get:
.LFB205:
	.loc 1 6720 0
	.cfi_startproc
.LVL69:
	pushl	%ebp
	.cfi_def_cfa_offset 8
	.cfi_offset 5, -8
	.loc 1 6723 0
	xorl	%eax, %eax
	.loc 1 6720 0
	movl	%esp, %ebp
	.cfi_def_cfa_register 5
	.loc 1 6720 0
	movl	8(%ebp), %ecx
	movl	12(%ebp), %edx
	.loc 1 6721 0
	cmpb	$1, %cl
	ja	.L57
	.loc 1 6726 0
	testb	%cl, %cl
	je	.L58
	.loc 1 6727 0
	testl	%edx, %edx
	.loc 1 6730 0
	movl	$_ll_context+6, %eax
	.loc 1 6727 0
	je	.L57
	.loc 1 6728 0
	movl	_ll_context+6, %eax
	movl	%eax, (%edx)
	movw	_ll_context+10, %ax
	movw	%ax, 4(%edx)
	.loc 1 6730 0
	movl	$_ll_context+6, %eax
	jmp	.L57
.L58:
	.loc 1 6732 0
	testl	%edx, %edx
	.loc 1 6735 0
	movl	$_ll_context, %eax
	.loc 1 6732 0
	je	.L57
	.loc 1 6733 0
	movl	_ll_context, %eax
	movl	%eax, (%edx)
	movl	_ll_context+4, %eax
	movw	%ax, 4(%edx)
	.loc 1 6735 0
	movl	$_ll_context, %eax
.LVL70:
.L57:
	.loc 1 6736 0
	popl	%ebp
	.cfi_restore 5
	.cfi_def_cfa 4, 4
	ret
	.cfi_endproc
.LFE205:
	.size	ll_addr_get, .-ll_addr_get
	.section	.text.unlikely.ll_addr_get
.LCOLDE14:
	.section	.text.ll_addr_get
.LHOTE14:
	.section	.text.unlikely.ll_addr_set,"ax",@progbits
.LCOLDB15:
	.section	.text.ll_addr_set,"ax",@progbits
.LHOTB15:
	.globl	ll_addr_set
	.type	ll_addr_set, @function
ll_addr_set:
.LFB206:
	.loc 1 6738 0
	.cfi_startproc
.LVL71:
	pushl	%ebp
	.cfi_def_cfa_offset 8
	.cfi_offset 5, -8
	movl	%esp, %ebp
	.cfi_def_cfa_register 5
	.loc 1 6739 0
	cmpb	$0, 8(%ebp)
	.loc 1 6738 0
	movl	12(%ebp), %eax
	movl	(%eax), %edx
	.loc 1 6739 0
	je	.L64
	.loc 1 6740 0
	movl	%edx, _ll_context+6
	movw	4(%eax), %ax
	movw	%ax, _ll_context+10
	jmp	.L63
.LVL72:
.L64:
	.loc 1 6742 0
	movl	%edx, _ll_context
	movw	4(%eax), %ax
.LVL73:
	movw	%ax, _ll_context+4
.L63:
	.loc 1 6744 0
	popl	%ebp
	.cfi_restore 5
	.cfi_def_cfa 4, 4
	ret
	.cfi_endproc
.LFE206:
	.size	ll_addr_set, .-ll_addr_set
	.section	.text.unlikely.ll_addr_set
.LCOLDE15:
	.section	.text.ll_addr_set
.LHOTE15:
	.section	.intList,"aw",@progbits
	.align 4
	.type	__isr_RNG_IRQHandler_irq___COUNTER__.8407, @object
	.size	__isr_RNG_IRQHandler_irq___COUNTER__.8407, 16
__isr_RNG_IRQHandler_irq___COUNTER__.8407:
	.long	13
	.long	0
	.long	RNG_IRQHandler
	.long	0
	.align 4
	.type	__isr_SWI4_EGU4_IRQHandler_irq___COUNTER__.8405, @object
	.size	__isr_SWI4_EGU4_IRQHandler_irq___COUNTER__.8405, 16
__isr_SWI4_EGU4_IRQHandler_irq___COUNTER__.8405:
	.long	24
	.long	0
	.long	SWI4_EGU4_IRQHandler
	.long	0
	.align 4
	.type	__isr_RTC0_IRQHandler_irq___COUNTER__.8403, @object
	.size	__isr_RTC0_IRQHandler_irq___COUNTER__.8403, 16
__isr_RTC0_IRQHandler_irq___COUNTER__.8403:
	.long	11
	.long	0
	.long	RTC0_IRQHandler
	.long	0
	.align 4
	.type	__isr_RADIO_IRQHandler_irq___COUNTER__.8401, @object
	.size	__isr_RADIO_IRQHandler_irq___COUNTER__.8401, 16
__isr_RADIO_IRQHandler_irq___COUNTER__.8401:
	.long	1
	.long	1
	.long	RADIO_IRQHandler
	.long	0
	.section	.bss._ll_context,"aw",@nobits
	.align 4
	.type	_ll_context, @object
	.size	_ll_context, 12
_ll_context:
	.zero	12
	.section	.bss.sem_recv,"aw",@nobits
	.align 4
	.type	sem_recv, @object
	.size	sem_recv, 4
sem_recv:
	.zero	4
	.section	.bss._radio,"aw",@nobits
	.align 4
	.type	_radio, @object
	.size	_radio, 836
_radio:
	.zero	836
	.section	.bss._ticker_user_ops,"aw",@nobits
	.align 4
	.type	_ticker_user_ops, @object
	.size	_ticker_user_ops, 572
_ticker_user_ops:
	.zero	572
	.section	.bss._ticker_users,"aw",@nobits
	.align 4
	.type	_ticker_users, @object
	.size	_ticker_users, 32
_ticker_users:
	.zero	32
	.section	.bss._ticker_nodes,"aw",@nobits
	.align 4
	.type	_ticker_nodes, @object
	.size	_ticker_nodes, 288
_ticker_nodes:
	.zero	288
	.section	.bss.rand_isr_context,"aw",@nobits
	.align 4
	.type	rand_isr_context, @object
	.size	rand_isr_context, 17
rand_isr_context:
	.zero	17
	.section	.bss.rand_context,"aw",@nobits
	.align 4
	.type	rand_context, @object
	.size	rand_context, 9
rand_context:
	.zero	9
	.text
.Letext0:
	.section	.text.unlikely.RADIO_IRQHandler
.Letext_cold0:
	.section	.note.GNU-stack,"",@progbits
