	.file	"ll_filter.c"
	.text
.Ltext0:
	.section	.text.unlikely.ctrl_filter_get,"ax",@progbits
.LCOLDB0:
	.section	.text.ctrl_filter_get,"ax",@progbits
.LHOTB0:
	.section	.text.unlikely.ctrl_filter_get
.Ltext_cold0:
	.section	.text.ctrl_filter_get
	.globl	ctrl_filter_get
	.type	ctrl_filter_get, @function
ctrl_filter_get:
.LFB200:
	.file 1 "src/ll_filter.c"
	.loc 1 5942 0
	.cfi_startproc
.LVL0:
	pushl	%ebp
	.cfi_def_cfa_offset 8
	.cfi_offset 5, -8
	.loc 1 5945 0
	movl	$wl_filter, %eax
	.loc 1 5942 0
	movl	%esp, %ebp
	.cfi_def_cfa_register 5
	.loc 1 5945 0
	popl	%ebp
	.cfi_restore 5
	.cfi_def_cfa 4, 4
	ret
	.cfi_endproc
.LFE200:
	.size	ctrl_filter_get, .-ctrl_filter_get
	.section	.text.unlikely.ctrl_filter_get
.LCOLDE0:
	.section	.text.ctrl_filter_get
.LHOTE0:
	.section	.text.unlikely.ll_wl_size_get,"ax",@progbits
.LCOLDB1:
	.section	.text.ll_wl_size_get,"ax",@progbits
.LHOTB1:
	.globl	ll_wl_size_get
	.type	ll_wl_size_get, @function
ll_wl_size_get:
.LFB201:
	.loc 1 5947 0
	.cfi_startproc
	pushl	%ebp
	.cfi_def_cfa_offset 8
	.cfi_offset 5, -8
	.loc 1 5949 0
	movl	$8, %eax
	.loc 1 5947 0
	movl	%esp, %ebp
	.cfi_def_cfa_register 5
	.loc 1 5949 0
	popl	%ebp
	.cfi_restore 5
	.cfi_def_cfa 4, 4
	ret
	.cfi_endproc
.LFE201:
	.size	ll_wl_size_get, .-ll_wl_size_get
	.section	.text.unlikely.ll_wl_size_get
.LCOLDE1:
	.section	.text.ll_wl_size_get
.LHOTE1:
	.section	.text.unlikely.ll_wl_clear,"ax",@progbits
.LCOLDB2:
	.section	.text.ll_wl_clear,"ax",@progbits
.LHOTB2:
	.globl	ll_wl_clear
	.type	ll_wl_clear, @function
ll_wl_clear:
.LFB202:
	.loc 1 5951 0
	.cfi_startproc
	pushl	%ebp
	.cfi_def_cfa_offset 8
	.cfi_offset 5, -8
	movl	%esp, %ebp
	.cfi_def_cfa_register 5
	subl	$8, %esp
	.loc 1 5952 0
	call	radio_adv_filter_pol_get
.LVL1:
	testl	%eax, %eax
	je	.L6
.L8:
	.loc 1 5953 0
	movl	$12, %eax
	jmp	.L7
.L6:
	.loc 1 5952 0 discriminator 1
	call	radio_scan_filter_pol_get
.LVL2:
	andl	$1, %eax
	jne	.L8
.LVL3:
.LBB6:
.LBB7:
	.loc 1 5896 0
	movb	$0, wl_filter
	.loc 1 5897 0
	movb	$0, wl_filter+1
.LVL4:
.LBE7:
.LBE6:
	.loc 1 5956 0
	movb	$0, wl_anon
.L7:
	.loc 1 5958 0
	leave
	.cfi_restore 5
	.cfi_def_cfa 4, 4
	ret
	.cfi_endproc
.LFE202:
	.size	ll_wl_clear, .-ll_wl_clear
	.section	.text.unlikely.ll_wl_clear
.LCOLDE2:
	.section	.text.ll_wl_clear
.LHOTE2:
	.section	.text.unlikely.ll_wl_add,"ax",@progbits
.LCOLDB3:
	.section	.text.ll_wl_add,"ax",@progbits
.LHOTB3:
	.globl	ll_wl_add
	.type	ll_wl_add, @function
ll_wl_add:
.LFB203:
	.loc 1 5960 0
	.cfi_startproc
.LVL5:
	pushl	%ebp
	.cfi_def_cfa_offset 8
	.cfi_offset 5, -8
	movl	%esp, %ebp
	.cfi_def_cfa_register 5
	pushl	%edi
	pushl	%esi
	pushl	%ebx
	subl	$12, %esp
	.cfi_offset 7, -12
	.cfi_offset 6, -16
	.cfi_offset 3, -20
	.loc 1 5960 0
	movl	8(%ebp), %esi
	.loc 1 5961 0
	call	radio_adv_filter_pol_get
.LVL6:
	testl	%eax, %eax
	je	.L12
.L14:
	.loc 1 5962 0
	movl	$12, %eax
	jmp	.L13
.L12:
	.loc 1 5961 0 discriminator 1
	call	radio_scan_filter_pol_get
.LVL7:
	andl	$1, %eax
	jne	.L14
	.loc 1 5964 0
	movb	(%esi), %dl
	cmpb	$-1, %dl
	jne	.L15
	.loc 1 5965 0
	movb	$1, wl_anon
	.loc 1 5966 0
	jmp	.L13
.L15:
.LVL8:
.LBB12:
.LBB13:
	.loc 1 5909 0
	movb	wl_filter, %bl
	cmpb	$-1, %bl
	je	.L18
	xorl	%ecx, %ecx
	.loc 1 5912 0
	movzbl	%bl, %edi
.L16:
.LVL9:
	btl	%ecx, %edi
	jnc	.L20
	.loc 1 5914 0
	incl	%ecx
.LVL10:
	jmp	.L16
.L20:
.LVL11:
.LBB14:
.LBB15:
	.loc 1 5903 0
	andl	$1, %edx
.LVL12:
	.loc 1 5902 0
	movl	$1, %edi
	.loc 1 5903 0
	sall	%cl, %edx
	orb	%dl, wl_filter+1
.LVL13:
	.loc 1 5902 0
	sall	%cl, %edi
	.loc 1 5904 0
	movl	1(%esi), %edx
	.loc 1 5902 0
	orl	%edi, %ebx
	.loc 1 5904 0
	imull	$6, %ecx, %ecx
.LVL14:
	.loc 1 5902 0
	movb	%bl, wl_filter
	.loc 1 5904 0
	movl	%edx, wl_filter+2(%ecx)
	movw	5(%esi), %dx
	movw	%dx, wl_filter+6(%ecx)
	jmp	.L13
.LVL15:
.L18:
.LBE15:
.LBE14:
	.loc 1 5910 0
	movl	$7, %eax
.LVL16:
.L13:
.LBE13:
.LBE12:
	.loc 1 5969 0
	addl	$12, %esp
	popl	%ebx
	.cfi_restore 3
	popl	%esi
	.cfi_restore 6
	popl	%edi
	.cfi_restore 7
	popl	%ebp
	.cfi_restore 5
	.cfi_def_cfa 4, 4
	ret
	.cfi_endproc
.LFE203:
	.size	ll_wl_add, .-ll_wl_add
	.section	.text.unlikely.ll_wl_add
.LCOLDE3:
	.section	.text.ll_wl_add
.LHOTE3:
	.section	.text.unlikely.ll_wl_remove,"ax",@progbits
.LCOLDB4:
	.section	.text.ll_wl_remove,"ax",@progbits
.LHOTB4:
	.globl	ll_wl_remove
	.type	ll_wl_remove, @function
ll_wl_remove:
.LFB204:
	.loc 1 5971 0
	.cfi_startproc
.LVL17:
	pushl	%ebp
	.cfi_def_cfa_offset 8
	.cfi_offset 5, -8
	movl	%esp, %ebp
	.cfi_def_cfa_register 5
	pushl	%edi
	pushl	%esi
	pushl	%ebx
	subl	$28, %esp
	.cfi_offset 7, -12
	.cfi_offset 6, -16
	.cfi_offset 3, -20
	.loc 1 5972 0
	call	radio_adv_filter_pol_get
.LVL18:
	testl	%eax, %eax
	je	.L22
.L24:
	.loc 1 5973 0
	movl	$12, %ebx
	jmp	.L23
.L22:
	.loc 1 5972 0 discriminator 1
	call	radio_scan_filter_pol_get
.LVL19:
	andl	$1, %eax
	movl	%eax, %ebx
	jne	.L24
	.loc 1 5975 0
	movl	8(%ebp), %eax
	movb	(%eax), %al
	cmpb	$-1, %al
	jne	.L25
	.loc 1 5976 0
	movb	$0, wl_anon
	.loc 1 5977 0
	jmp	.L23
.L25:
.LVL20:
.LBB18:
.LBB19:
	.loc 1 5923 0
	movb	wl_filter, %dl
	testb	%dl, %dl
	je	.L29
	.loc 1 5929 0
	movzbl	wl_filter+1, %esi
	.loc 1 5928 0
	movzbl	%al, %edi
	.loc 1 5929 0
	movl	%esi, %ecx
	movl	%esi, -32(%ebp)
	.loc 1 5928 0
	movzbl	%dl, %esi
	.loc 1 5929 0
	movb	%cl, -25(%ebp)
	movl	$8, %ecx
.LVL21:
.L26:
	.loc 1 5927 0
	decl	%ecx
.LVL22:
	cmpl	$-1, %ecx
	je	.L29
	.loc 1 5928 0
	btl	%ecx, %esi
	jnc	.L26
	movl	-32(%ebp), %eax
	sarl	%cl, %eax
	xorl	%edi, %eax
	testb	$1, %al
	jne	.L26
	.loc 1 5931 0
	pushl	%eax
	movl	8(%ebp), %eax
	pushl	$6
	movb	%dl, -26(%ebp)
	movl	%ecx, -36(%ebp)
	incl	%eax
	pushl	%eax
	imull	$6, %ecx, %eax
	addl	$wl_filter+2, %eax
	pushl	%eax
	call	memcmp
.LVL23:
	addl	$16, %esp
	.loc 1 5930 0
	testl	%eax, %eax
	movl	-36(%ebp), %ecx
	movb	-26(%ebp), %dl
	jne	.L26
	.loc 1 5932 0
	movl	$-2, %eax
	roll	%cl, %eax
	andl	%eax, %edx
	.loc 1 5933 0
	andb	-25(%ebp), %al
	.loc 1 5932 0
	movb	%dl, wl_filter
	.loc 1 5933 0
	movb	%al, wl_filter+1
	jmp	.L23
.LVL24:
.L29:
	.loc 1 5924 0
	movl	$18, %ebx
.LVL25:
.L23:
.LBE19:
.LBE18:
	.loc 1 5980 0
	leal	-12(%ebp), %esp
	movl	%ebx, %eax
	popl	%ebx
	.cfi_restore 3
	popl	%esi
	.cfi_restore 6
	popl	%edi
	.cfi_restore 7
	popl	%ebp
	.cfi_restore 5
	.cfi_def_cfa 4, 4
	ret
	.cfi_endproc
.LFE204:
	.size	ll_wl_remove, .-ll_wl_remove
	.section	.text.unlikely.ll_wl_remove
.LCOLDE4:
	.section	.text.ll_wl_remove
.LHOTE4:
	.section	.text.unlikely.ll_filter_reset,"ax",@progbits
.LCOLDB5:
	.section	.text.ll_filter_reset,"ax",@progbits
.LHOTB5:
	.globl	ll_filter_reset
	.type	ll_filter_reset, @function
ll_filter_reset:
.LFB205:
	.loc 1 5984 0
	.cfi_startproc
.LVL26:
	pushl	%ebp
	.cfi_def_cfa_offset 8
	.cfi_offset 5, -8
	.loc 1 5985 0
	movb	$0, wl_anon
.LVL27:
.LBB20:
.LBB21:
	.loc 1 5896 0
	movb	$0, wl_filter
	.loc 1 5897 0
	movb	$0, wl_filter+1
.LVL28:
.LBE21:
.LBE20:
	.loc 1 5984 0
	movl	%esp, %ebp
	.cfi_def_cfa_register 5
	.loc 1 5987 0
	popl	%ebp
	.cfi_restore 5
	.cfi_def_cfa 4, 4
	ret
	.cfi_endproc
.LFE205:
	.size	ll_filter_reset, .-ll_filter_reset
	.section	.text.unlikely.ll_filter_reset
.LCOLDE5:
	.section	.text.ll_filter_reset
.LHOTE5:
	.globl	wl_anon
	.section	.bss.wl_anon,"aw",@nobits
	.type	wl_anon, @object
	.size	wl_anon, 1
wl_anon:
	.zero	1
	.section	.bss.wl_filter,"aw",@nobits
	.align 32
	.type	wl_filter, @object
	.size	wl_filter, 50
wl_filter:
	.zero	50
	.text
.Letext0:
	.section	.text.unlikely.ctrl_filter_get
.Letext_cold0:
	.section	.note.GNU-stack,"",@progbits
