	.file	"ll_master.c"
	.text
.Ltext0:
	.section	.text.unlikely.ll_create_connection,"ax",@progbits
.LCOLDB0:
	.section	.text.ll_create_connection,"ax",@progbits
.LHOTB0:
	.section	.text.unlikely.ll_create_connection
.Ltext_cold0:
	.section	.text.ll_create_connection
	.globl	ll_create_connection
	.type	ll_create_connection, @function
ll_create_connection:
.LFB50:
	.file 1 "src/ll_master.c"
	.loc 1 2847 0
	.cfi_startproc
.LVL0:
	pushl	%ebp
	.cfi_def_cfa_offset 8
	.cfi_offset 5, -8
	movl	%esp, %ebp
	.cfi_def_cfa_register 5
	pushl	%edi
	pushl	%esi
	pushl	%ebx
	subl	$44, %esp
	.cfi_offset 7, -12
	.cfi_offset 6, -16
	.cfi_offset 3, -20
	.loc 1 2847 0
	movl	8(%ebp), %eax
	movl	24(%ebp), %ecx
	movl	32(%ebp), %ebx
	movl	36(%ebp), %esi
	movl	40(%ebp), %edi
	movl	%eax, -28(%ebp)
	movl	12(%ebp), %eax
	movl	%ecx, -48(%ebp)
	movl	%eax, -32(%ebp)
	movl	16(%ebp), %eax
	movl	%eax, -36(%ebp)
	movl	20(%ebp), %eax
	movl	%eax, -40(%ebp)
	movl	28(%ebp), %eax
	movl	%eax, -44(%ebp)
	.loc 1 2851 0
	call	radio_scan_is_enabled
.LVL1:
	testl	%eax, %eax
	movl	$12, %edx
	movl	-48(%ebp), %ecx
	jne	.L2
	.loc 1 2854 0
	movzbl	-40(%ebp), %eax
	subl	$12, %esp
	movzwl	%di, %edi
	movzwl	%si, %esi
	movzwl	%bx, %ebx
	pushl	%edi
	pushl	%esi
	pushl	%ebx
	pushl	%ecx
	pushl	%eax
	call	radio_connect_enable
.LVL2:
	.loc 1 2856 0
	addl	$32, %esp
	testl	%eax, %eax
	movl	%eax, %edx
	jne	.L2
	.loc 1 2859 0
	movzbl	-44(%ebp), %ebx
.LVL3:
	pushl	%eax
	pushl	%eax
	pushl	$0
	pushl	%ebx
	call	ll_addr_get
.LVL4:
	movzbl	-36(%ebp), %edx
	movl	%ebx, 12(%ebp)
	addl	$16, %esp
	movl	$255, 36(%ebp)
	movl	$0, 32(%ebp)
	movl	%eax, 16(%ebp)
	movl	$0, 8(%ebp)
	movl	%edx, 28(%ebp)
	movzwl	-32(%ebp), %edx
	movl	%edx, 24(%ebp)
	movzwl	-28(%ebp), %edx
	movl	%edx, 20(%ebp)
	.loc 1 2865 0
	leal	-12(%ebp), %esp
	popl	%ebx
	.cfi_remember_state
	.cfi_restore 3
	popl	%esi
	.cfi_restore 6
	popl	%edi
	.cfi_restore 7
	popl	%ebp
	.cfi_restore 5
	.cfi_def_cfa 4, 4
	.loc 1 2859 0
	jmp	radio_scan_enable
.LVL5:
.L2:
	.cfi_restore_state
	.loc 1 2865 0
	leal	-12(%ebp), %esp
	movl	%edx, %eax
	popl	%ebx
	.cfi_restore 3
	popl	%esi
	.cfi_restore 6
	popl	%edi
	.cfi_restore 7
	popl	%ebp
	.cfi_restore 5
	.cfi_def_cfa 4, 4
	ret
	.cfi_endproc
.LFE50:
	.size	ll_create_connection, .-ll_create_connection
	.section	.text.unlikely.ll_create_connection
.LCOLDE0:
	.section	.text.ll_create_connection
.LHOTE0:
	.text
.Letext0:
	.section	.text.unlikely.ll_create_connection
.Letext_cold0:
	.section	.note.GNU-stack,"",@progbits
