	.file	"ll_scan.c"
	.text
.Ltext0:
	.section	.text.unlikely.ll_scan_params_set,"ax",@progbits
.LCOLDB0:
	.section	.text.ll_scan_params_set,"ax",@progbits
.LHOTB0:
	.section	.text.unlikely.ll_scan_params_set
.Ltext_cold0:
	.section	.text.ll_scan_params_set
	.globl	ll_scan_params_set
	.type	ll_scan_params_set, @function
ll_scan_params_set:
.LFB50:
	.file 1 "src/ll_scan.c"
	.loc 1 2851 0
	.cfi_startproc
.LVL0:
	pushl	%ebp
	.cfi_def_cfa_offset 8
	.cfi_offset 5, -8
	movl	%esp, %ebp
	.cfi_def_cfa_register 5
	pushl	%edi
	pushl	%esi
	pushl	%ebx
	subl	$28, %esp
	.cfi_offset 7, -12
	.cfi_offset 6, -16
	.cfi_offset 3, -20
	.loc 1 2851 0
	movl	20(%ebp), %eax
	movl	8(%ebp), %edi
	movl	12(%ebp), %esi
	movl	16(%ebp), %ebx
	movl	%eax, -28(%ebp)
	movl	24(%ebp), %eax
	movl	%eax, -32(%ebp)
	.loc 1 2852 0
	call	radio_scan_is_enabled
.LVL1:
	testl	%eax, %eax
	jne	.L3
	.loc 1 2855 0
	movl	%edi, %edx
	.loc 1 2857 0
	movw	%bx, ll_scan+2
	.loc 1 2855 0
	movl	ll_scan+4, %edi
	.loc 1 2858 0
	movb	-28(%ebp), %bl
	.loc 1 2855 0
	andl	$1, %edx
	.loc 1 2856 0
	movw	%si, ll_scan
	.loc 1 2859 0
	movl	-32(%ebp), %esi
	.loc 1 2855 0
	andl	$-8, %edi
	.loc 1 2858 0
	andl	$3, %ebx
	orl	%edx, %edi
	addl	%ebx, %ebx
	.loc 1 2859 0
	andl	$3, %esi
	.loc 1 2858 0
	orl	%ebx, %edi
	.loc 1 2859 0
	sall	$3, %esi
	andl	$-25, %edi
	movl	%edi, %edx
	orl	%esi, %edx
	movb	%dl, ll_scan+4
	.loc 1 2860 0
	jmp	.L2
.L3:
	.loc 1 2853 0
	movl	$12, %eax
.L2:
	.loc 1 2861 0
	addl	$28, %esp
	popl	%ebx
	.cfi_restore 3
	popl	%esi
	.cfi_restore 6
	popl	%edi
	.cfi_restore 7
	popl	%ebp
	.cfi_restore 5
	.cfi_def_cfa 4, 4
	ret
	.cfi_endproc
.LFE50:
	.size	ll_scan_params_set, .-ll_scan_params_set
	.section	.text.unlikely.ll_scan_params_set
.LCOLDE0:
	.section	.text.ll_scan_params_set
.LHOTE0:
	.section	.text.unlikely.ll_scan_enable,"ax",@progbits
.LCOLDB1:
	.section	.text.ll_scan_enable,"ax",@progbits
.LHOTB1:
	.globl	ll_scan_enable
	.type	ll_scan_enable, @function
ll_scan_enable:
.LFB51:
	.loc 1 2863 0
	.cfi_startproc
.LVL2:
	pushl	%ebp
	.cfi_def_cfa_offset 8
	.cfi_offset 5, -8
	movl	%esp, %ebp
	.cfi_def_cfa_register 5
	pushl	%edi
	pushl	%esi
	pushl	%ebx
	subl	$12, %esp
	.cfi_offset 7, -12
	.cfi_offset 6, -16
	.cfi_offset 3, -20
	.loc 1 2866 0
	cmpb	$0, 8(%ebp)
	jne	.L7
	.loc 1 2879 0
	leal	-12(%ebp), %esp
	popl	%ebx
	.cfi_remember_state
	.cfi_restore 3
	popl	%esi
	.cfi_restore 6
	popl	%edi
	.cfi_restore 7
	popl	%ebp
	.cfi_restore 5
	.cfi_def_cfa 4, 4
	.loc 1 2867 0
	jmp	radio_scan_disable
.LVL3:
.L7:
	.cfi_restore_state
	.loc 1 2868 0
	call	radio_scan_is_enabled
.LVL4:
	.loc 1 2869 0
	xorl	%edx, %edx
	.loc 1 2868 0
	testl	%eax, %eax
	jne	.L8
	.loc 1 2876 0
	movb	ll_scan+4, %al
	.loc 1 2871 0
	movzwl	ll_scan+2, %edi
	movzwl	ll_scan, %esi
	pushl	%edx
	pushl	%edx
	pushl	$0
	.loc 1 2876 0
	movb	%al, %bl
	.loc 1 2872 0
	shrb	%al
	.loc 1 2871 0
	andl	$1, %eax
	.loc 1 2876 0
	shrb	$3, %bl
	.loc 1 2871 0
	pushl	%eax
	andl	$3, %ebx
	call	ll_addr_get
.LVL5:
	pushl	$255
	pushl	$0
	pushl	%ebx
	pushl	%edi
	pushl	%esi
	pushl	%eax
	movb	ll_scan+4, %al
	movb	%al, %dl
	andl	$1, %eax
	shrb	%dl
	andl	$1, %edx
	pushl	%edx
	pushl	%eax
	call	radio_scan_enable
.LVL6:
	.loc 1 2878 0
	addl	$48, %esp
	movl	%eax, %edx
.LVL7:
.L8:
	.loc 1 2879 0
	leal	-12(%ebp), %esp
	movl	%edx, %eax
	popl	%ebx
	.cfi_restore 3
	popl	%esi
	.cfi_restore 6
	popl	%edi
	.cfi_restore 7
	popl	%ebp
	.cfi_restore 5
	.cfi_def_cfa 4, 4
	ret
	.cfi_endproc
.LFE51:
	.size	ll_scan_enable, .-ll_scan_enable
	.section	.text.unlikely.ll_scan_enable
.LCOLDE1:
	.section	.text.ll_scan_enable
.LHOTE1:
	.section	.bss.ll_scan,"aw",@nobits
	.align 4
	.type	ll_scan, @object
	.size	ll_scan, 6
ll_scan:
	.zero	6
	.text
.Letext0:
	.section	.text.unlikely.ll_scan_params_set
.Letext_cold0:
	.section	.note.GNU-stack,"",@progbits
