	.file	"local_event.c"
	.text
.Ltext0:
	.section	.text.unlikely.event_read_cb,"ax",@progbits
.LCOLDB0:
	.section	.text.event_read_cb,"ax",@progbits
.LHOTB0:
	.section	.text.unlikely.event_read_cb
.Ltext_cold0:
	.section	.text.event_read_cb
	.type	event_read_cb, @function
event_read_cb:
.LFB24:
	.file 1 "kernel/yloop/local_event.c"
	.loc 1 73 0
	.cfi_startproc
.LVL0:
	pushl	%ebp
	.cfi_def_cfa_offset 8
	.cfi_offset 5, -8
	movl	%esp, %ebp
	.cfi_def_cfa_register 5
	pushl	%esi
	pushl	%ebx
	.cfi_offset 6, -12
	.cfi_offset 3, -16
	.loc 1 75 0
	leal	-28(%ebp), %esi
	.loc 1 73 0
	subl	$36, %esp
	.loc 1 75 0
	pushl	$16
	pushl	%esi
	pushl	8(%ebp)
	.loc 1 73 0
	movl	%gs:20, %eax
	movl	%eax, -12(%ebp)
	xorl	%eax, %eax
	.loc 1 75 0
	call	aos_read
.LVL1:
	.loc 1 76 0
	addl	$16, %esp
	cmpl	$16, %eax
	jne	.L1
.LVL2:
.LBB11:
.LBB12:
	.loc 1 39 0
	cmpw	$256, -24(%ebp)
	.loc 1 48 0
	movl	g_local_event_list+4, %ebx
	.loc 1 39 0
	jne	.L13
.LVL3:
.LBB13:
	.loc 1 42 0
	subl	$12, %esp
	pushl	-16(%ebp)
	call	*-20(%ebp)
.LVL4:
	addl	$16, %esp
	jmp	.L1
.LVL5:
.L8:
.LBE13:
	.loc 1 49 0
	movl	16(%ebx), %eax
	testw	%ax, %ax
	je	.L6
	.loc 1 50 0
	cmpw	-24(%ebp), %ax
	je	.L6
.L7:
	.loc 1 48 0
	movl	4(%ebx), %ebx
.LVL6:
.L13:
	cmpl	$g_local_event_list, %ebx
	jne	.L8
	jmp	.L1
.L6:
	.loc 1 53 0
	pushl	%eax
	pushl	%eax
	pushl	12(%ebx)
	pushl	%esi
	call	*8(%ebx)
.LVL7:
	addl	$16, %esp
	jmp	.L7
.LVL8:
.L1:
.LBE12:
.LBE11:
	.loc 1 79 0
	movl	-12(%ebp), %eax
	xorl	%gs:20, %eax
	je	.L10
	call	__stack_chk_fail
.LVL9:
.L10:
	leal	-8(%ebp), %esp
	popl	%ebx
	.cfi_restore 3
	popl	%esi
	.cfi_restore 6
	popl	%ebp
	.cfi_restore 5
	.cfi_def_cfa 4, 4
	ret
	.cfi_endproc
.LFE24:
	.size	event_read_cb, .-event_read_cb
	.section	.text.unlikely.event_read_cb
.LCOLDE0:
	.section	.text.event_read_cb
.LHOTE0:
	.section	.text.unlikely._schedule_call,"ax",@progbits
.LCOLDB1:
	.section	.text._schedule_call,"ax",@progbits
.LHOTB1:
	.type	_schedule_call, @function
_schedule_call:
.LFB30:
	.loc 1 160 0
	.cfi_startproc
.LVL10:
	pushl	%ebp
	.cfi_def_cfa_offset 8
	.cfi_offset 5, -8
	movl	%esp, %ebp
	.cfi_def_cfa_register 5
	pushl	%edi
	pushl	%esi
	pushl	%ebx
	.cfi_offset 7, -12
	.cfi_offset 6, -16
	.cfi_offset 3, -20
	movl	%eax, %esi
	subl	$60, %esp
	.loc 1 160 0
	movl	8(%ebp), %eax
.LVL11:
	movl	%eax, -60(%ebp)
	movl	%gs:20, %eax
	movl	%eax, -28(%ebp)
	xorl	%eax, %eax
	.loc 1 162 0
	testl	%edx, %edx
	.loc 1 163 0
	movl	$-22, %eax
	.loc 1 162 0
	je	.L18
	.loc 1 162 0 discriminator 1
	cmpl	$0, g_main_ctx
	je	.L18
	.loc 1 166 0
	leal	-44(%ebp), %edi
	.loc 1 171 0
	subl	$12, %esp
	.loc 1 166 0
	xorl	%eax, %eax
	movl	%ecx, %ebx
	movl	$4, %ecx
.LVL12:
	rep stosl
	.loc 1 171 0
	pushl	%esi
	.loc 1 166 0
	movw	$256, -40(%ebp)
	movl	%edx, -36(%ebp)
	movl	%ebx, -32(%ebp)
	.loc 1 171 0
	call	aos_loop_get_eventfd
.LVL13:
	.loc 1 172 0
	addl	$16, %esp
	.loc 1 173 0
	testl	%eax, %eax
	cmovs	local_event+4, %eax
.LVL14:
	.loc 1 176 0
	cmpb	$0, -60(%ebp)
	je	.L20
	.loc 1 177 0
	orw	$-32768, -40(%ebp)
.L20:
.LVL15:
.LBB16:
.LBB17:
	.loc 1 59 0
	movl	-40(%ebp), %edx
.LVL16:
	.loc 1 60 0
	movl	%edx, %ecx
	.loc 1 63 0
	andw	$-32768, %dx
.LVL17:
	.loc 1 60 0
	andw	$32767, %cx
.LVL18:
	.loc 1 66 0
	cmpw	$1, %dx
	.loc 1 60 0
	movw	%cx, -40(%ebp)
.LVL19:
	.loc 1 66 0
	sbbl	%edx, %edx
	.loc 1 69 0
	pushl	%ecx
	leal	-44(%ebp), %ecx
.LVL20:
	.loc 1 66 0
	addl	$258, %edx
.LVL21:
	.loc 1 69 0
	pushl	%ecx
	pushl	%edx
	pushl	%eax
	call	aos_ioctl
.LVL22:
.LBE17:
.LBE16:
	.loc 1 179 0
	addl	$16, %esp
.LVL23:
.L18:
	.loc 1 180 0
	movl	-28(%ebp), %ebx
	xorl	%gs:20, %ebx
	je	.L22
	call	__stack_chk_fail
.LVL24:
.L22:
	leal	-12(%ebp), %esp
	popl	%ebx
	.cfi_restore 3
	popl	%esi
	.cfi_restore 6
.LVL25:
	popl	%edi
	.cfi_restore 7
	popl	%ebp
	.cfi_restore 5
	.cfi_def_cfa 4, 4
	ret
	.cfi_endproc
.LFE30:
	.size	_schedule_call, .-_schedule_call
	.section	.text.unlikely._schedule_call
.LCOLDE1:
	.section	.text._schedule_call
.LHOTE1:
	.section	.rodata.str1.1,"aMS",@progbits,1
.LC2:
	.string	"/dev/event"
	.section	.text.unlikely.aos_event_service_init,"ax",@progbits
.LCOLDB3:
	.section	.text.aos_event_service_init,"ax",@progbits
.LHOTB3:
	.globl	aos_event_service_init
	.type	aos_event_service_init, @function
aos_event_service_init:
.LFB25:
	.loc 1 82 0
	.cfi_startproc
	pushl	%ebp
	.cfi_def_cfa_offset 8
	.cfi_offset 5, -8
	movl	%esp, %ebp
	.cfi_def_cfa_register 5
	pushl	%ebx
	subl	$12, %esp
	.cfi_offset 3, -12
	.loc 1 83 0
	pushl	$0
	pushl	$.LC2
	call	aos_open
.LVL26:
	.loc 1 85 0
	addl	$16, %esp
	cmpl	$0, local_event+4
	.loc 1 83 0
	movl	%eax, %ebx
.LVL27:
	.loc 1 85 0
	jns	.L28
	.loc 1 86 0
	movl	%eax, local_event+4
.L28:
.LVL28:
	.loc 1 88 0
	pushl	%eax
	pushl	$0
	pushl	$event_read_cb
	pushl	%ebx
	call	aos_poll_read_fd
.LVL29:
	.loc 1 89 0
	movl	%ebx, (%esp)
	call	aos_loop_set_eventfd
.LVL30:
	.loc 1 92 0
	xorl	%eax, %eax
	movl	-4(%ebp), %ebx
.LVL31:
	leave
	.cfi_restore 5
	.cfi_restore 3
	.cfi_def_cfa 4, 4
	ret
	.cfi_endproc
.LFE25:
	.size	aos_event_service_init, .-aos_event_service_init
	.section	.text.unlikely.aos_event_service_init
.LCOLDE3:
	.section	.text.aos_event_service_init
.LHOTE3:
	.section	.text.unlikely.aos_event_service_deinit,"ax",@progbits
.LCOLDB4:
	.section	.text.aos_event_service_deinit,"ax",@progbits
.LHOTB4:
	.globl	aos_event_service_deinit
	.type	aos_event_service_deinit, @function
aos_event_service_deinit:
.LFB26:
	.loc 1 95 0
	.cfi_startproc
.LVL32:
	pushl	%ebp
	.cfi_def_cfa_offset 8
	.cfi_offset 5, -8
	movl	%esp, %ebp
	.cfi_def_cfa_register 5
	pushl	%ebx
	subl	$8, %esp
	.cfi_offset 3, -12
	.loc 1 95 0
	movl	8(%ebp), %ebx
	.loc 1 96 0
	pushl	$0
	pushl	$event_read_cb
	pushl	%ebx
	call	aos_cancel_poll_read_fd
.LVL33:
	.loc 1 97 0
	movl	%ebx, 8(%ebp)
	addl	$16, %esp
	.loc 1 98 0
	movl	-4(%ebp), %ebx
	leave
	.cfi_restore 5
	.cfi_restore 3
	.cfi_def_cfa 4, 4
	.loc 1 97 0
	jmp	aos_close
.LVL34:
	.cfi_endproc
.LFE26:
	.size	aos_event_service_deinit, .-aos_event_service_deinit
	.section	.text.unlikely.aos_event_service_deinit
.LCOLDE4:
	.section	.text.aos_event_service_deinit
.LHOTE4:
	.section	.text.unlikely.aos_post_event,"ax",@progbits
.LCOLDB5:
	.section	.text.aos_post_event,"ax",@progbits
.LHOTB5:
	.globl	aos_post_event
	.type	aos_post_event, @function
aos_post_event:
.LFB27:
	.loc 1 101 0
	.cfi_startproc
.LVL35:
	pushl	%ebp
	.cfi_def_cfa_offset 8
	.cfi_offset 5, -8
	.loc 1 102 0
	movl	$4, %ecx
	.loc 1 101 0
	movl	%esp, %ebp
	.cfi_def_cfa_register 5
	pushl	%edi
	.cfi_offset 7, -12
	.loc 1 102 0
	leal	-28(%ebp), %edi
	.loc 1 101 0
	subl	$40, %esp
	.loc 1 101 0
	movl	8(%ebp), %edx
	movl	%gs:20, %eax
	movl	%eax, -12(%ebp)
	xorl	%eax, %eax
	.loc 1 102 0
	rep stosl
	movl	12(%ebp), %eax
	movw	%ax, -22(%ebp)
	movl	16(%ebp), %eax
	movl	%eax, -20(%ebp)
.LVL36:
.LBB20:
.LBB21:
	.loc 1 60 0
	movl	%edx, %eax
	.loc 1 63 0
	andw	$-32768, %dx
.LVL37:
	.loc 1 60 0
	andw	$32767, %ax
.LVL38:
	.loc 1 66 0
	cmpw	$1, %dx
	.loc 1 69 0
	leal	-28(%ebp), %edx
.LVL39:
	.loc 1 60 0
	movw	%ax, -24(%ebp)
	.loc 1 66 0
	sbbl	%eax, %eax
	addl	$258, %eax
.LVL40:
	.loc 1 69 0
	pushl	%edx
	pushl	%eax
	pushl	local_event+4
	call	aos_ioctl
.LVL41:
.LBE21:
.LBE20:
	.loc 1 109 0
	movl	-12(%ebp), %ecx
	xorl	%gs:20, %ecx
	je	.L34
	call	__stack_chk_fail
.LVL42:
.L34:
	movl	-4(%ebp), %edi
	leave
	.cfi_restore 5
	.cfi_restore 7
	.cfi_def_cfa 4, 4
	ret
	.cfi_endproc
.LFE27:
	.size	aos_post_event, .-aos_post_event
	.section	.text.unlikely.aos_post_event
.LCOLDE5:
	.section	.text.aos_post_event
.LHOTE5:
	.section	.text.unlikely.aos_register_event_filter,"ax",@progbits
.LCOLDB6:
	.section	.text.aos_register_event_filter,"ax",@progbits
.LHOTB6:
	.globl	aos_register_event_filter
	.type	aos_register_event_filter, @function
aos_register_event_filter:
.LFB28:
	.loc 1 112 0
	.cfi_startproc
.LVL43:
	pushl	%ebp
	.cfi_def_cfa_offset 8
	.cfi_offset 5, -8
	.loc 1 114 0
	movl	$-22, %eax
	.loc 1 112 0
	movl	%esp, %ebp
	.cfi_def_cfa_register 5
	pushl	%esi
	pushl	%ebx
	.cfi_offset 6, -12
	.cfi_offset 3, -16
	.loc 1 112 0
	movl	12(%ebp), %ebx
	movl	8(%ebp), %esi
	.loc 1 113 0
	testl	%ebx, %ebx
	je	.L38
	.loc 1 117 0
	subl	$12, %esp
	pushl	$20
	call	aos_malloc
.LVL44:
	movl	%eax, %edx
.LVL45:
	.loc 1 118 0
	addl	$16, %esp
	.loc 1 119 0
	movl	$-12, %eax
.LVL46:
	.loc 1 118 0
	testl	%edx, %edx
	je	.L38
	.loc 1 124 0
	movl	16(%ebp), %eax
	.loc 1 122 0
	movl	%ebx, 8(%edx)
	.loc 1 123 0
	movw	%si, 16(%edx)
.LBB22:
.LBB23:
.LBB24:
.LBB25:
	.file 2 "./include/aos/list.h"
	.loc 2 38 0
	movl	$g_local_event_list, 4(%edx)
.LBE25:
.LBE24:
.LBE23:
.LBE22:
	.loc 1 124 0
	movl	%eax, 12(%edx)
.LVL47:
.LBB32:
.LBB30:
	.loc 2 63 0
	movl	g_local_event_list, %eax
.LVL48:
.LBB28:
.LBB26:
	.loc 2 39 0
	movl	%eax, (%edx)
	.loc 2 41 0
	movl	%edx, 4(%eax)
.LBE26:
.LBE28:
.LBE30:
.LBE32:
	.loc 1 128 0
	xorl	%eax, %eax
.LVL49:
.LBB33:
.LBB31:
.LBB29:
.LBB27:
	.loc 2 42 0
	movl	%edx, g_local_event_list
.LVL50:
.L38:
.LBE27:
.LBE29:
.LBE31:
.LBE33:
	.loc 1 129 0
	leal	-8(%ebp), %esp
	popl	%ebx
	.cfi_restore 3
	popl	%esi
	.cfi_restore 6
	popl	%ebp
	.cfi_restore 5
	.cfi_def_cfa 4, 4
	ret
	.cfi_endproc
.LFE28:
	.size	aos_register_event_filter, .-aos_register_event_filter
	.section	.text.unlikely.aos_register_event_filter
.LCOLDE6:
	.section	.text.aos_register_event_filter
.LHOTE6:
	.section	.text.unlikely.aos_unregister_event_filter,"ax",@progbits
.LCOLDB7:
	.section	.text.aos_unregister_event_filter,"ax",@progbits
.LHOTB7:
	.globl	aos_unregister_event_filter
	.type	aos_unregister_event_filter, @function
aos_unregister_event_filter:
.LFB29:
	.loc 1 132 0
	.cfi_startproc
.LVL51:
	pushl	%ebp
	.cfi_def_cfa_offset 8
	.cfi_offset 5, -8
	movl	%esp, %ebp
	.cfi_def_cfa_register 5
	pushl	%ebx
	pushl	%eax
	.cfi_offset 3, -12
	.loc 1 132 0
	movl	12(%ebp), %ecx
	movl	8(%ebp), %edx
	.loc 1 134 0
	movl	g_local_event_list+4, %eax
.LVL52:
.L43:
	.loc 1 134 0 is_stmt 0 discriminator 1
	cmpl	$g_local_event_list, %eax
	je	.L48
	.loc 1 135 0 is_stmt 1
	cmpw	%dx, 16(%eax)
	jne	.L44
	.loc 1 139 0
	cmpl	%ecx, 8(%eax)
	jne	.L44
	.loc 1 143 0
	movl	16(%ebp), %ebx
	cmpl	%ebx, 12(%eax)
	jne	.L44
.LVL53:
.LBB36:
.LBB37:
	.loc 2 68 0
	movl	(%eax), %ecx
.LVL54:
	.loc 2 69 0
	movl	4(%eax), %edx
.LVL55:
.LBE37:
.LBE36:
	.loc 1 148 0
	subl	$12, %esp
.LBB39:
.LBB38:
	.loc 2 71 0
	movl	%edx, 4(%ecx)
	.loc 2 72 0
	movl	%ecx, (%edx)
.LVL56:
.LBE38:
.LBE39:
	.loc 1 148 0
	pushl	%eax
	call	aos_free
.LVL57:
	.loc 1 149 0
	addl	$16, %esp
	xorl	%eax, %eax
	jmp	.L45
.LVL58:
.L44:
	.loc 1 134 0 discriminator 2
	movl	4(%eax), %eax
.LVL59:
	jmp	.L43
.L48:
	.loc 1 152 0
	movl	$-22, %eax
.LVL60:
.L45:
	.loc 1 153 0
	movl	-4(%ebp), %ebx
	leave
	.cfi_restore 5
	.cfi_restore 3
	.cfi_def_cfa 4, 4
	ret
	.cfi_endproc
.LFE29:
	.size	aos_unregister_event_filter, .-aos_unregister_event_filter
	.section	.text.unlikely.aos_unregister_event_filter
.LCOLDE7:
	.section	.text.aos_unregister_event_filter
.LHOTE7:
	.section	.text.unlikely.aos_loop_schedule_urgent_call,"ax",@progbits
.LCOLDB8:
	.section	.text.aos_loop_schedule_urgent_call,"ax",@progbits
.LHOTB8:
	.globl	aos_loop_schedule_urgent_call
	.type	aos_loop_schedule_urgent_call, @function
aos_loop_schedule_urgent_call:
.LFB31:
	.loc 1 183 0
	.cfi_startproc
.LVL61:
	pushl	%ebp
	.cfi_def_cfa_offset 8
	.cfi_offset 5, -8
	movl	%esp, %ebp
	.cfi_def_cfa_register 5
	.loc 1 183 0
	movl	8(%ebp), %eax
	.loc 1 184 0
	movl	16(%ebp), %ecx
	movl	$1, 8(%ebp)
.LVL62:
	movl	12(%ebp), %edx
	.loc 1 185 0
	popl	%ebp
	.cfi_restore 5
	.cfi_def_cfa 4, 4
	.loc 1 184 0
	jmp	_schedule_call
.LVL63:
	.cfi_endproc
.LFE31:
	.size	aos_loop_schedule_urgent_call, .-aos_loop_schedule_urgent_call
	.section	.text.unlikely.aos_loop_schedule_urgent_call
.LCOLDE8:
	.section	.text.aos_loop_schedule_urgent_call
.LHOTE8:
	.section	.text.unlikely.aos_loop_schedule_call,"ax",@progbits
.LCOLDB9:
	.section	.text.aos_loop_schedule_call,"ax",@progbits
.LHOTB9:
	.globl	aos_loop_schedule_call
	.type	aos_loop_schedule_call, @function
aos_loop_schedule_call:
.LFB32:
	.loc 1 188 0
	.cfi_startproc
.LVL64:
	pushl	%ebp
	.cfi_def_cfa_offset 8
	.cfi_offset 5, -8
	movl	%esp, %ebp
	.cfi_def_cfa_register 5
	.loc 1 188 0
	movl	8(%ebp), %eax
	.loc 1 189 0
	movl	16(%ebp), %ecx
	movl	$0, 8(%ebp)
.LVL65:
	movl	12(%ebp), %edx
	.loc 1 190 0
	popl	%ebp
	.cfi_restore 5
	.cfi_def_cfa 4, 4
	.loc 1 189 0
	jmp	_schedule_call
.LVL66:
	.cfi_endproc
.LFE32:
	.size	aos_loop_schedule_call, .-aos_loop_schedule_call
	.section	.text.unlikely.aos_loop_schedule_call
.LCOLDE9:
	.section	.text.aos_loop_schedule_call
.LHOTE9:
	.section	.text.unlikely.run_my_work,"ax",@progbits
.LCOLDB10:
	.section	.text.run_my_work,"ax",@progbits
.LHOTB10:
	.type	run_my_work, @function
run_my_work:
.LFB35:
	.loc 1 215 0
	.cfi_startproc
.LVL67:
	pushl	%ebp
	.cfi_def_cfa_offset 8
	.cfi_offset 5, -8
	movl	%esp, %ebp
	.cfi_def_cfa_register 5
	pushl	%ebx
	subl	$16, %esp
	.cfi_offset 3, -12
	.loc 1 215 0
	movl	8(%ebp), %ebx
.LVL68:
	.loc 1 218 0
	pushl	12(%ebx)
	call	*8(%ebx)
.LVL69:
	.loc 1 220 0
	movl	16(%ebx), %eax
	addl	$16, %esp
	testl	%eax, %eax
	je	.L54
	.loc 1 221 0
	pushl	%edx
	pushl	20(%ebx)
	pushl	%eax
	pushl	4(%ebx)
	call	aos_loop_schedule_call
.LVL70:
	addl	$16, %esp
.L54:
.LVL71:
.LBB42:
.LBB43:
	.loc 1 209 0
	subl	$12, %esp
	pushl	(%ebx)
	call	aos_work_destroy
.LVL72:
	.loc 1 210 0
	popl	%eax
	pushl	(%ebx)
	call	aos_free
.LVL73:
	.loc 1 211 0
	movl	%ebx, 8(%ebp)
	addl	$16, %esp
.LBE43:
.LBE42:
	.loc 1 225 0
	movl	-4(%ebp), %ebx
.LVL74:
	leave
	.cfi_restore 5
	.cfi_restore 3
	.cfi_def_cfa 4, 4
.LBB45:
.LBB44:
	.loc 1 211 0
	jmp	aos_free
.LVL75:
.LBE44:
.LBE45:
	.cfi_endproc
.LFE35:
	.size	run_my_work, .-run_my_work
	.section	.text.unlikely.run_my_work
.LCOLDE10:
	.section	.text.run_my_work
.LHOTE10:
	.section	.text.unlikely.aos_schedule_call,"ax",@progbits
.LCOLDB11:
	.section	.text.aos_schedule_call,"ax",@progbits
.LHOTB11:
	.globl	aos_schedule_call
	.type	aos_schedule_call, @function
aos_schedule_call:
.LFB33:
	.loc 1 193 0
	.cfi_startproc
.LVL76:
	pushl	%ebp
	.cfi_def_cfa_offset 8
	.cfi_offset 5, -8
	.loc 1 194 0
	xorl	%eax, %eax
	.loc 1 193 0
	movl	%esp, %ebp
	.cfi_def_cfa_register 5
	.loc 1 193 0
	movl	8(%ebp), %edx
	.loc 1 194 0
	movl	12(%ebp), %ecx
	movl	$0, 8(%ebp)
.LVL77:
	.loc 1 195 0
	popl	%ebp
	.cfi_restore 5
	.cfi_def_cfa 4, 4
	.loc 1 194 0
	jmp	_schedule_call
.LVL78:
	.cfi_endproc
.LFE33:
	.size	aos_schedule_call, .-aos_schedule_call
	.section	.text.unlikely.aos_schedule_call
.LCOLDE11:
	.section	.text.aos_schedule_call
.LHOTE11:
	.section	.text.unlikely.aos_cancel_work,"ax",@progbits
.LCOLDB12:
	.section	.text.aos_cancel_work,"ax",@progbits
.LHOTB12:
	.globl	aos_cancel_work
	.type	aos_cancel_work, @function
aos_cancel_work:
.LFB36:
	.loc 1 228 0
	.cfi_startproc
.LVL79:
	pushl	%ebp
	.cfi_def_cfa_offset 8
	.cfi_offset 5, -8
	movl	%esp, %ebp
	.cfi_def_cfa_register 5
	pushl	%ebx
	pushl	%edx
	.cfi_offset 3, -12
	.loc 1 228 0
	movl	8(%ebp), %ebx
.LVL80:
	movl	12(%ebp), %edx
	movl	16(%ebp), %eax
	.loc 1 231 0
	testl	%ebx, %ebx
	je	.L61
	.loc 1 235 0
	cmpl	%edx, 8(%ebx)
	jne	.L61
	.loc 1 239 0
	cmpl	%eax, 12(%ebx)
	jne	.L61
	.loc 1 243 0
	subl	$12, %esp
	pushl	(%ebx)
	call	aos_work_cancel
.LVL81:
	.loc 1 244 0
	addl	$16, %esp
	testl	%eax, %eax
	jne	.L61
.LVL82:
.LBB48:
.LBB49:
	.loc 1 209 0
	subl	$12, %esp
	pushl	(%ebx)
	call	aos_work_destroy
.LVL83:
	.loc 1 210 0
	popl	%eax
	pushl	(%ebx)
	call	aos_free
.LVL84:
	.loc 1 211 0
	movl	%ebx, 8(%ebp)
	addl	$16, %esp
.LBE49:
.LBE48:
	.loc 1 249 0
	movl	-4(%ebp), %ebx
.LVL85:
	leave
	.cfi_remember_state
	.cfi_restore 5
	.cfi_restore 3
	.cfi_def_cfa 4, 4
.LBB51:
.LBB50:
	.loc 1 211 0
	jmp	aos_free
.LVL86:
.L61:
	.cfi_restore_state
.LBE50:
.LBE51:
	.loc 1 249 0
	movl	-4(%ebp), %ebx
.LVL87:
	leave
	.cfi_restore 5
	.cfi_restore 3
	.cfi_def_cfa 4, 4
	ret
	.cfi_endproc
.LFE36:
	.size	aos_cancel_work, .-aos_cancel_work
	.section	.text.unlikely.aos_cancel_work
.LCOLDE12:
	.section	.text.aos_cancel_work
.LHOTE12:
	.section	.text.unlikely.aos_loop_schedule_work,"ax",@progbits
.LCOLDB13:
	.section	.text.aos_loop_schedule_work,"ax",@progbits
.LHOTB13:
	.globl	aos_loop_schedule_work
	.type	aos_loop_schedule_work, @function
aos_loop_schedule_work:
.LFB37:
	.loc 1 253 0
	.cfi_startproc
.LVL88:
	pushl	%ebp
	.cfi_def_cfa_offset 8
	.cfi_offset 5, -8
	.loc 1 257 0
	xorl	%eax, %eax
	.loc 1 253 0
	movl	%esp, %ebp
	.cfi_def_cfa_register 5
	pushl	%edi
	pushl	%esi
	pushl	%ebx
	subl	$12, %esp
	.cfi_offset 7, -12
	.cfi_offset 6, -16
	.cfi_offset 3, -20
	.loc 1 253 0
	movl	12(%ebp), %esi
	.loc 1 256 0
	testl	%esi, %esi
	je	.L67
	.loc 1 260 0
	subl	$12, %esp
	pushl	$4
	call	aos_malloc
.LVL89:
	movl	%eax, %edi
.LVL90:
	.loc 1 261 0
	movl	$24, (%esp)
	call	aos_malloc
.LVL91:
	.loc 1 263 0
	addl	$16, %esp
	testl	%edi, %edi
	.loc 1 261 0
	movl	%eax, %ebx
.LVL92:
	.loc 1 263 0
	je	.L70
	testl	%eax, %eax
	jne	.L68
.LVL93:
.L70:
.LDL1:
	.loc 1 285 0
	subl	$12, %esp
	pushl	%edi
	call	aos_free
.LVL94:
	.loc 1 286 0
	movl	%ebx, (%esp)
	call	aos_free
.LVL95:
	.loc 1 287 0
	addl	$16, %esp
	xorl	%eax, %eax
	jmp	.L67
.LVL96:
.L68:
	.loc 1 267 0
	movl	%edi, (%eax)
	.loc 1 268 0
	call	aos_current_loop
.LVL97:
	movl	%eax, 4(%ebx)
	.loc 1 270 0
	movl	16(%ebp), %eax
	.loc 1 269 0
	movl	%esi, 8(%ebx)
	.loc 1 270 0
	movl	%eax, 12(%ebx)
	.loc 1 271 0
	movl	20(%ebp), %eax
	movl	%eax, 16(%ebx)
	.loc 1 272 0
	movl	24(%ebp), %eax
	movl	%eax, 20(%ebx)
	.loc 1 274 0
	pushl	8(%ebp)
	pushl	%ebx
	pushl	$run_my_work
	pushl	%edi
	call	aos_work_init
.LVL98:
	.loc 1 275 0
	addl	$16, %esp
	testl	%eax, %eax
	jne	.L70
	.loc 1 278 0
	subl	$12, %esp
	pushl	%edi
	call	aos_work_sched
.LVL99:
	.loc 1 279 0
	addl	$16, %esp
	testl	%eax, %eax
	jne	.L70
	movl	%ebx, %eax
.LVL100:
.L67:
	.loc 1 288 0
	leal	-12(%ebp), %esp
	popl	%ebx
	.cfi_restore 3
	popl	%esi
	.cfi_restore 6
	popl	%edi
	.cfi_restore 7
	popl	%ebp
	.cfi_restore 5
	.cfi_def_cfa 4, 4
	ret
	.cfi_endproc
.LFE37:
	.size	aos_loop_schedule_work, .-aos_loop_schedule_work
	.section	.text.unlikely.aos_loop_schedule_work
.LCOLDE13:
	.section	.text.aos_loop_schedule_work
.LHOTE13:
	.section	.data.g_local_event_list,"aw",@progbits
	.align 4
	.type	g_local_event_list, @object
	.size	g_local_event_list, 8
g_local_event_list:
	.long	g_local_event_list
	.long	g_local_event_list
	.section	.data.local_event,"aw",@progbits
	.align 4
	.type	local_event, @object
	.size	local_event, 8
local_event:
	.zero	4
	.long	-1
	.text
.Letext0:
	.section	.text.unlikely.event_read_cb
.Letext_cold0:
	.file 3 "/home/stone/Documents/Ali_IOT/build/compiler/gcc-arm-none-eabi/Linux64/lib/gcc/arm-none-eabi/5.4.1/include/stddef.h"
	.file 4 "/home/stone/Documents/Ali_IOT/build/compiler/gcc-arm-none-eabi/Linux64/arm-none-eabi/include/machine/_default_types.h"
	.file 5 "/home/stone/Documents/Ali_IOT/build/compiler/gcc-arm-none-eabi/Linux64/arm-none-eabi/include/sys/_stdint.h"
	.file 6 "./include/aos/types.h"
	.file 7 "./include/aos/kernel.h"
	.file 8 "./include/aos/yloop.h"
	.file 9 "kernel/yloop/yloop.h"
	.file 10 "./include/aos/log.h"
	.file 11 "./include/aos/vfs.h"
	.section	.note.GNU-stack,"",@progbits
