	.file	"mayfly.c"
	.text
.Ltext0:
	.section	.text.unlikely.mayfly_init,"ax",@progbits
.LCOLDB0:
	.section	.text.mayfly_init,"ax",@progbits
.LHOTB0:
	.section	.text.unlikely.mayfly_init
.Ltext_cold0:
	.section	.text.mayfly_init
	.globl	mayfly_init
	.type	mayfly_init, @function
mayfly_init:
.LFB0:
	.file 1 "src/mayfly.c"
	.loc 1 91 0
	.cfi_startproc
.LVL0:
	pushl	%ebp
	.cfi_def_cfa_offset 8
	.cfi_offset 5, -8
	movl	%esp, %ebp
	.cfi_def_cfa_register 5
	pushl	%edi
	pushl	%esi
	pushl	%ebx
	.cfi_offset 7, -12
	.cfi_offset 6, -16
	.cfi_offset 3, -20
	.loc 1 93 0
	movb	$4, %bl
	.loc 1 91 0
	subl	$28, %esp
.LVL1:
.L2:
	.loc 1 94 0
	decl	%ebx
.LVL2:
	cmpb	$-1, %bl
	je	.L1
.LBB2:
	.loc 1 100 0
	movzbl	%bl, %esi
.LBE2:
	movb	$4, %dl
.LBB3:
	.loc 1 98 0
	imull	$48, %esi, %eax
	movl	%eax, -28(%ebp)
.L5:
.LVL3:
	.loc 1 97 0
	decl	%edx
.LVL4:
	cmpb	$-1, %dl
	je	.L2
	.loc 1 100 0
	movzbl	%dl, %eax
	.loc 1 98 0
	movl	-28(%ebp), %edi
	.loc 1 100 0
	movb	%dl, -29(%ebp)
	.loc 1 98 0
	imull	$12, %eax, %ecx
	leal	(%eax,%esi,4), %eax
.LVL5:
	pushl	%edx
	leal	mfl(,%eax,8), %eax
	leal	mft(%ecx,%edi), %ecx
	leal	4(%ecx), %edi
	pushl	%edi
	pushl	%ecx
	pushl	%eax
	call	memq_init
.LVL6:
	addl	$16, %esp
	movb	-29(%ebp), %dl
	jmp	.L5
.LVL7:
.L1:
.LBE3:
	.loc 1 103 0
	leal	-12(%ebp), %esp
	popl	%ebx
	.cfi_restore 3
.LVL8:
	popl	%esi
	.cfi_restore 6
	popl	%edi
	.cfi_restore 7
	popl	%ebp
	.cfi_restore 5
	.cfi_def_cfa 4, 4
	ret
	.cfi_endproc
.LFE0:
	.size	mayfly_init, .-mayfly_init
	.section	.text.unlikely.mayfly_init
.LCOLDE0:
	.section	.text.mayfly_init
.LHOTE0:
	.section	.text.unlikely.mayfly_enable,"ax",@progbits
.LCOLDB1:
	.section	.text.mayfly_enable,"ax",@progbits
.LHOTB1:
	.globl	mayfly_enable
	.type	mayfly_enable, @function
mayfly_enable:
.LFB1:
	.loc 1 105 0
	.cfi_startproc
.LVL9:
	pushl	%ebp
	.cfi_def_cfa_offset 8
	.cfi_offset 5, -8
	movl	%esp, %ebp
	.cfi_def_cfa_register 5
	pushl	%esi
	pushl	%ebx
	.cfi_offset 6, -12
	.cfi_offset 3, -16
	.loc 1 105 0
	movl	16(%ebp), %ecx
	movzbl	12(%ebp), %edx
	movzbl	8(%ebp), %eax
	.loc 1 106 0
	testb	%cl, %cl
	je	.L9
	.loc 1 107 0
	imull	$48, %edx, %ebx
	imull	$12, %eax, %esi
	leal	mft(%esi,%ebx), %esi
	movb	8(%esi), %bl
	cmpb	9(%esi), %bl
	jne	.L10
	.loc 1 109 0
	incl	%ebx
	movb	%bl, 8(%esi)
.L10:
	.loc 1 111 0
	movzbl	%cl, %ecx
	movl	%edx, 12(%ebp)
.LVL10:
	movl	%eax, 8(%ebp)
.LVL11:
	.loc 1 119 0
	popl	%ebx
	.cfi_remember_state
	.cfi_restore 3
	.loc 1 111 0
	movl	%ecx, 16(%ebp)
.LVL12:
	.loc 1 119 0
	popl	%esi
	.cfi_restore 6
	popl	%ebp
	.cfi_restore 5
	.cfi_def_cfa 4, 4
	.loc 1 111 0
	jmp	mayfly_enable_cb
.LVL13:
.L9:
	.cfi_restore_state
	.loc 1 113 0
	imull	$48, %edx, %ecx
	imull	$12, %eax, %ebx
	leal	mft(%ebx,%ecx), %ebx
	movb	10(%ebx), %cl
	cmpb	11(%ebx), %cl
	jne	.L8
	.loc 1 115 0
	incl	%ecx
	movb	%cl, 10(%ebx)
	.loc 1 116 0
	movl	%edx, 12(%ebp)
.LVL14:
	.loc 1 119 0
	popl	%ebx
	.cfi_remember_state
	.cfi_restore 3
	.loc 1 116 0
	movl	%eax, 8(%ebp)
.LVL15:
	.loc 1 119 0
	popl	%esi
	.cfi_restore 6
	popl	%ebp
	.cfi_restore 5
	.cfi_def_cfa 4, 4
	.loc 1 116 0
	jmp	mayfly_pend
.LVL16:
.L8:
	.cfi_restore_state
	.loc 1 119 0
	popl	%ebx
	.cfi_restore 3
	popl	%esi
	.cfi_restore 6
	popl	%ebp
	.cfi_restore 5
	.cfi_def_cfa 4, 4
	ret
	.cfi_endproc
.LFE1:
	.size	mayfly_enable, .-mayfly_enable
	.section	.text.unlikely.mayfly_enable
.LCOLDE1:
	.section	.text.mayfly_enable
.LHOTE1:
	.section	.text.unlikely.mayfly_enqueue,"ax",@progbits
.LCOLDB2:
	.section	.text.mayfly_enqueue,"ax",@progbits
.LHOTB2:
	.globl	mayfly_enqueue
	.type	mayfly_enqueue, @function
mayfly_enqueue:
.LFB2:
	.loc 1 122 0
	.cfi_startproc
.LVL17:
	pushl	%ebp
	.cfi_def_cfa_offset 8
	.cfi_offset 5, -8
	movl	%esp, %ebp
	.cfi_def_cfa_register 5
	pushl	%edi
	pushl	%esi
	pushl	%ebx
	subl	$28, %esp
	.cfi_offset 7, -12
	.cfi_offset 6, -16
	.cfi_offset 3, -20
	.loc 1 126 0
	cmpb	$0, 16(%ebp)
	.loc 1 122 0
	movl	8(%ebp), %eax
	movl	12(%ebp), %ebx
	movl	20(%ebp), %ecx
	movl	%eax, -28(%ebp)
	.loc 1 126 0
	je	.L14
.L16:
	movl	$1, %esi
	jmp	.L15
.L14:
	.loc 1 125 0
	movzbl	-28(%ebp), %edi
	movzbl	%bl, %esi
	pushl	%eax
	pushl	%eax
	pushl	%esi
	movl	%ecx, -32(%ebp)
	pushl	%edi
	call	mayfly_prio_is_equal
.LVL18:
	addl	$16, %esp
	testl	%eax, %eax
	movl	-32(%ebp), %ecx
	je	.L16
	.loc 1 126 0 discriminator 1
	pushl	%eax
	pushl	%eax
	pushl	%esi
	pushl	%edi
	call	mayfly_is_enabled
.LVL19:
	.loc 1 125 0 discriminator 1
	addl	$16, %esp
	testl	%eax, %eax
	movl	-32(%ebp), %ecx
	je	.L16
	.loc 1 127 0 discriminator 2
	imull	$48, %esi, %esi
	imull	$12, %edi, %edi
	.loc 1 126 0 discriminator 2
	movb	mft+11(%edi,%esi), %al
	cmpb	%al, mft+10(%edi,%esi)
	setne	%al
	movzbl	%al, %eax
	movl	%eax, %esi
.L15:
.LVL20:
	.loc 1 129 0
	movb	1(%ecx), %dl
.LVL21:
	.loc 1 130 0
	movb	(%ecx), %al
	subl	%edx, %eax
.LVL22:
	.loc 1 131 0
	andb	$3, %al
.LVL23:
	movb	%al, -32(%ebp)
	je	.L17
	.loc 1 132 0
	testl	%esi, %esi
	je	.L18
	.loc 1 133 0
	cmpb	$1, -32(%ebp)
	.loc 1 138 0
	movl	$1, %eax
.LVL24:
	.loc 1 133 0
	je	.L19
	.loc 1 135 0
	movzbl	-28(%ebp), %eax
	.loc 1 134 0
	incl	%edx
.LVL25:
	.loc 1 135 0
	movzbl	%bl, %ebx
	.loc 1 134 0
	movb	%dl, (%ecx)
.LVL26:
	.loc 1 135 0
	pushl	%esi
.LVL27:
	pushl	%esi
	pushl	%ebx
	pushl	%eax
	jmp	.L31
.LVL28:
.L18:
	.loc 1 140 0
	addl	$2, %edx
.LVL29:
	movb	%dl, (%ecx)
	jmp	.L20
.LVL30:
.L17:
	.loc 1 142 0
	testl	%esi, %esi
	jne	.L21
.LVL31:
.L20:
	.loc 1 143 0
	subl	$12, %esp
	pushl	8(%ecx)
.LVL32:
	call	*12(%ecx)
.LVL33:
	jmp	.L32
.LVL34:
.L21:
	.loc 1 147 0
	movzbl	-28(%ebp), %esi
.LVL35:
	.loc 1 146 0
	incl	%edx
.LVL36:
	.loc 1 147 0
	movzbl	%bl, %ebx
	.loc 1 146 0
	movb	%dl, (%ecx)
.LVL37:
	.loc 1 147 0
	pushl	%eax
.LVL38:
	imull	$48, %ebx, %eax
	imull	$12, %esi, %edx
	leal	mft+4(%edx,%eax), %eax
	pushl	%eax
	pushl	%ecx
	pushl	4(%ecx)
	call	memq_enqueue
.LVL39:
	.loc 1 148 0
	popl	%edx
	popl	%ecx
	pushl	%ebx
	pushl	%esi
.L31:
	call	mayfly_pend
.LVL40:
.L32:
	.loc 1 149 0
	addl	$16, %esp
	xorl	%eax, %eax
.L19:
	.loc 1 150 0
	leal	-12(%ebp), %esp
	popl	%ebx
	.cfi_restore 3
	popl	%esi
	.cfi_restore 6
	popl	%edi
	.cfi_restore 7
	popl	%ebp
	.cfi_restore 5
	.cfi_def_cfa 4, 4
	ret
	.cfi_endproc
.LFE2:
	.size	mayfly_enqueue, .-mayfly_enqueue
	.section	.text.unlikely.mayfly_enqueue
.LCOLDE2:
	.section	.text.mayfly_enqueue
.LHOTE2:
	.section	.text.unlikely.mayfly_run,"ax",@progbits
.LCOLDB3:
	.section	.text.mayfly_run,"ax",@progbits
.LHOTB3:
	.globl	mayfly_run
	.type	mayfly_run, @function
mayfly_run:
.LFB3:
	.loc 1 152 0
	.cfi_startproc
.LVL41:
	pushl	%ebp
	.cfi_def_cfa_offset 8
	.cfi_offset 5, -8
	movl	%esp, %ebp
	.cfi_def_cfa_register 5
	pushl	%edi
	pushl	%esi
	pushl	%ebx
	subl	$60, %esp
	.cfi_offset 7, -12
	.cfi_offset 6, -16
	.cfi_offset 3, -20
	.loc 1 152 0
	movl	8(%ebp), %eax
	.loc 1 156 0
	movb	$4, -41(%ebp)
	.loc 1 154 0
	movb	$0, -43(%ebp)
	.loc 1 153 0
	movb	$0, -42(%ebp)
	.loc 1 152 0
	movl	%eax, -56(%ebp)
	movl	%gs:20, %eax
	movl	%eax, -28(%ebp)
	xorl	%eax, %eax
.LVL42:
.LBB4:
	.loc 1 160 0
	movzbl	-56(%ebp), %eax
	imull	$48, %eax, %ebx
	movl	%eax, -52(%ebp)
.LVL43:
.L34:
.LBE4:
	.loc 1 157 0
	decb	-41(%ebp)
.LVL44:
	cmpb	$-1, -41(%ebp)
	je	.L57
.LVL45:
.LBB6:
	.loc 1 160 0
	movzbl	-41(%ebp), %eax
	.loc 1 159 0
	movl	$0, -32(%ebp)
	.loc 1 160 0
	movl	%eax, -48(%ebp)
	pushl	%eax
	leal	-32(%ebp), %eax
	imull	$12, -48(%ebp), %esi
	pushl	%eax
	leal	(%esi,%ebx), %eax
	pushl	mft+4(%eax)
	pushl	mft(%eax)
	call	memq_peek
.LVL46:
	.loc 1 163 0
	addl	$16, %esp
	.loc 1 160 0
	movl	%eax, %edi
.LVL47:
.L35:
	.loc 1 163 0
	testl	%edi, %edi
	je	.L54
.LBB5:
	.loc 1 166 0
	movl	-32(%ebp), %eax
.LVL48:
	movb	(%eax), %dl
.LVL49:
	.loc 1 167 0
	movb	1(%eax), %cl
	subl	%ecx, %edx
.LVL50:
	andl	$3, %edx
	movb	%dl, -44(%ebp)
.LVL51:
	.loc 1 168 0
	decb	%dl
.LVL52:
	jne	.L36
	.loc 1 169 0
	decl	%ecx
	.loc 1 170 0
	subl	$12, %esp
	.loc 1 169 0
	movb	%cl, 1(%eax)
	.loc 1 170 0
	pushl	8(%eax)
	call	*12(%eax)
.LVL53:
	addl	$16, %esp
.L36:
	.loc 1 172 0
	movl	-32(%ebp), %eax
	movb	(%eax), %dl
.LVL54:
	.loc 1 173 0
	movzbl	1(%eax), %eax
	movl	%edx, %ecx
	movb	%dl, -57(%ebp)
	subl	%eax, %ecx
	movl	%ecx, %eax
	andl	$3, %eax
	decl	%eax
	je	.L37
	.loc 1 174 0
	pushl	%eax
	leal	mft(%esi,%ebx), %eax
	pushl	$0
	pushl	%eax
	pushl	4(%eax)
	call	memq_dequeue
.LVL55:
	.loc 1 177 0
	movl	-32(%ebp), %eax
	.loc 1 178 0
	movb	-57(%ebp), %dl
	addl	$16, %esp
	.loc 1 177 0
	movl	%edi, 4(%eax)
	.loc 1 178 0
	movb	%dl, 1(%eax)
.L37:
	.loc 1 180 0
	leal	-32(%ebp), %eax
.LVL56:
	pushl	%edi
	pushl	%eax
	leal	(%esi,%ebx), %eax
	pushl	mft+4(%eax)
	pushl	mft(%eax)
	call	memq_peek
.LVL57:
	.loc 1 183 0
	addl	$16, %esp
	cmpb	$1, -44(%ebp)
	.loc 1 180 0
	movl	%eax, %edi
.LVL58:
	.loc 1 183 0
	jne	.L35
	.loc 1 184 0
	cmpb	$0, -41(%ebp)
	jne	.L47
	testl	%eax, %eax
	je	.L54
.L47:
	.loc 1 185 0
	pushl	%ecx
	pushl	%ecx
	pushl	-52(%ebp)
	pushl	-52(%ebp)
	call	mayfly_pend
.LVL59:
	jmp	.L56
.LVL60:
.L54:
.LBE5:
	.loc 1 190 0
	imull	$12, -48(%ebp), %eax
	leal	mft(%eax,%ebx), %eax
	movb	10(%eax), %dl
	cmpb	11(%eax), %dl
	je	.L42
.LVL61:
	.loc 1 193 0
	movb	%dl, 11(%eax)
	.loc 1 192 0
	movb	$1, -42(%ebp)
.LVL62:
.L42:
	.loc 1 196 0
	imull	$12, -48(%ebp), %eax
	leal	mft(%eax,%ebx), %eax
	movb	8(%eax), %dl
	cmpb	9(%eax), %dl
	je	.L34
.LVL63:
	.loc 1 199 0
	movb	%dl, 9(%eax)
	.loc 1 198 0
	movb	$1, -43(%ebp)
.LVL64:
	jmp	.L34
.LVL65:
.L57:
.LBE6:
	.loc 1 203 0
	movb	-43(%ebp), %al
	xorl	$1, %eax
	testb	%al, -42(%ebp)
	je	.L33
	.loc 1 204 0
	movzbl	-56(%ebp), %eax
	pushl	%edx
	pushl	$0
	pushl	%eax
	pushl	%eax
	call	mayfly_enable_cb
.LVL66:
.L56:
	addl	$16, %esp
.L33:
	.loc 1 206 0
	movl	-28(%ebp), %eax
	xorl	%gs:20, %eax
	je	.L45
	call	__stack_chk_fail
.LVL67:
.L45:
	leal	-12(%ebp), %esp
	popl	%ebx
	.cfi_restore 3
	popl	%esi
	.cfi_restore 6
	popl	%edi
	.cfi_restore 7
	popl	%ebp
	.cfi_restore 5
	.cfi_def_cfa 4, 4
	ret
	.cfi_endproc
.LFE3:
	.size	mayfly_run, .-mayfly_run
	.section	.text.unlikely.mayfly_run
.LCOLDE3:
	.section	.text.mayfly_run
.LHOTE3:
	.section	.bss.mfl,"aw",@nobits
	.align 32
	.type	mfl, @object
	.size	mfl, 128
mfl:
	.zero	128
	.section	.bss.mft,"aw",@nobits
	.align 32
	.type	mft, @object
	.size	mft, 192
mft:
	.zero	192
	.text
.Letext0:
	.section	.text.unlikely.mayfly_init
.Letext_cold0:
	.section	.note.GNU-stack,"",@progbits
