	.file	"mbedtls_ssl.c"
	.text
.Ltext0:
	.section	.text.unlikely.ssl_random,"ax",@progbits
.LCOLDB0:
	.section	.text.ssl_random,"ax",@progbits
.LHOTB0:
	.section	.text.unlikely.ssl_random
.Ltext_cold0:
	.section	.text.ssl_random
	.type	ssl_random, @function
ssl_random:
.LFB42:
	.file 1 "security/mbedtls/src/mbedtls_ssl.c"
	.loc 1 32 0
	.cfi_startproc
.LVL0:
	pushl	%ebp
	.cfi_def_cfa_offset 8
	.cfi_offset 5, -8
	movl	%esp, %ebp
	.cfi_def_cfa_register 5
	pushl	%ebx
	subl	$28, %esp
	.cfi_offset 3, -12
	.loc 1 32 0
	movl	12(%ebp), %ebx
	movl	%gs:20, %eax
	movl	%eax, -12(%ebp)
	xorl	%eax, %eax
	.loc 1 38 0
	leal	-20(%ebp), %eax
	pushl	$0
	pushl	%eax
	call	gettimeofday
.LVL1:
	.loc 1 39 0
	popl	%eax
	leal	-16(%ebp), %eax
	popl	%edx
	pushl	$4
	pushl	%eax
	call	ali_seed
.LVL2:
	.loc 1 40 0
	popl	%ecx
	popl	%eax
	pushl	16(%ebp)
	pushl	%ebx
	call	ali_rand_gen
.LVL3:
	.loc 1 43 0
	movl	-12(%ebp), %edx
	xorl	%gs:20, %edx
	je	.L2
	call	__stack_chk_fail
.LVL4:
.L2:
	xorl	%eax, %eax
	movl	-4(%ebp), %ebx
	leave
	.cfi_restore 5
	.cfi_restore 3
	.cfi_def_cfa 4, 4
	ret
	.cfi_endproc
.LFE42:
	.size	ssl_random, .-ssl_random
	.section	.text.unlikely.ssl_random
.LCOLDE0:
	.section	.text.ssl_random
.LHOTE0:
	.section	.rodata.str1.1,"aMS",@progbits,1
.LC1:
	.string	"ssl_connect: invalid input args!"
.LC2:
	.string	"ssl_connect: invalid tcp fd - %d\n"
.LC3:
	.string	"ssl_connect: malloc(%d) fail\n"
.LC4:
	.string	"ssl_connect: set block failed- 0x%x\n"
.LC5:
	.string	"ssl_connect: x509 parse failed- 0x%x\n"
.LC6:
	.string	"ssl_connect: set ssl config failed - %d\n"
.LC7:
	.string	"ssl_connect: mbedtls_ssl_conf_max_frag_len returned - %d\n"
.LC8:
	.string	"ssl_connect: mbedtls_ssl_setup returned - %d\n"
.LC9:
	.string	"ssl_connect: mbedtls_ssl_handshake returned -0x%x\n"
.LC10:
	.string	"ssl_connect: verify result not confirmed - %d\n"
	.section	.text.unlikely.mbedtls_ssl_connect,"ax",@progbits
.LCOLDB11:
	.section	.text.mbedtls_ssl_connect,"ax",@progbits
.LHOTB11:
	.globl	mbedtls_ssl_connect
	.type	mbedtls_ssl_connect, @function
mbedtls_ssl_connect:
.LFB43:
	.loc 1 59 0
	.cfi_startproc
.LVL5:
	pushl	%ebp
	.cfi_def_cfa_offset 8
	.cfi_offset 5, -8
	movl	%esp, %ebp
	.cfi_def_cfa_register 5
	pushl	%edi
	pushl	%esi
	pushl	%ebx
	subl	$28, %esp
	.cfi_offset 7, -12
	.cfi_offset 6, -16
	.cfi_offset 3, -20
	.loc 1 64 0
	cmpl	$0, 12(%ebp)
	je	.L20
	cmpl	$0, 16(%ebp)
	jg	.L6
.L20:
	.loc 1 65 0
	subl	$12, %esp
	pushl	$.LC1
	call	puts
.LVL6:
	jmp	.L26
.L6:
	.loc 1 69 0
	cmpl	$0, 8(%ebp)
	jns	.L9
	.loc 1 70 0
	pushl	%esi
	pushl	%esi
	pushl	8(%ebp)
	pushl	$.LC2
	jmp	.L27
.L9:
	.loc 1 79 0
	pushl	$threading_mutex_unlock
	pushl	$threading_mutex_lock
	pushl	$threading_mutex_free
	pushl	$threading_mutex_init
	call	mbedtls_threading_set_alt
.LVL7:
	.loc 1 85 0
	movl	$616, (%esp)
	call	malloc
.LVL8:
	.loc 1 86 0
	addl	$16, %esp
	testl	%eax, %eax
	.loc 1 85 0
	movl	%eax, %ebx
.LVL9:
	.loc 1 86 0
	jne	.L10
	.loc 1 87 0
	pushl	%ebx
	pushl	%ebx
	pushl	$616
	pushl	$.LC3
.LVL10:
.L27:
	call	printf
.LVL11:
	jmp	.L26
.LVL12:
.L10:
	.loc 1 90 0
	xorl	%eax, %eax
.LVL13:
	movl	$154, %ecx
	movl	%ebx, %edi
	rep stosl
	.loc 1 92 0
	leal	4(%ebx), %eax
	subl	$12, %esp
	.loc 1 94 0
	leal	320(%ebx), %esi
	.loc 1 95 0
	leal	412(%ebx), %edi
	.loc 1 92 0
	pushl	%eax
	movl	%eax, -28(%ebp)
	call	mbedtls_net_init
.LVL14:
	.loc 1 93 0
	leal	8(%ebx), %eax
	movl	%eax, (%esp)
	movl	%eax, -32(%ebp)
	call	mbedtls_x509_crt_init
.LVL15:
	.loc 1 94 0
	movl	%esi, (%esp)
	call	mbedtls_ssl_config_init
.LVL16:
	.loc 1 95 0
	movl	%edi, (%esp)
	call	mbedtls_ssl_init
.LVL17:
	.loc 1 102 0
	movl	8(%ebp), %eax
	.loc 1 96 0
	movl	$1412567570, (%ebx)
	.loc 1 102 0
	movl	%eax, 4(%ebx)
	.loc 1 105 0
	popl	%ecx
	pushl	-28(%ebp)
	call	mbedtls_net_set_block
.LVL18:
	.loc 1 106 0
	addl	$16, %esp
	testl	%eax, %eax
	je	.L11
	.loc 1 107 0
	negl	%eax
.LVL19:
	pushl	%edx
	pushl	%edx
	pushl	%eax
	pushl	$.LC4
	jmp	.L25
.LVL20:
.L11:
	.loc 1 119 0
	movl	16(%ebp), %eax
.LVL21:
	pushl	%ecx
	incl	%eax
	pushl	%eax
	pushl	12(%ebp)
	pushl	-32(%ebp)
	call	mbedtls_x509_crt_parse
.LVL22:
	.loc 1 121 0
	addl	$16, %esp
	testl	%eax, %eax
	jns	.L13
	.loc 1 122 0
	negl	%eax
.LVL23:
	pushl	%edx
	pushl	%edx
	pushl	%eax
	pushl	$.LC5
	jmp	.L25
.LVL24:
.L13:
	.loc 1 137 0
	pushl	$0
	pushl	$0
	pushl	$0
	pushl	%esi
	call	mbedtls_ssl_config_defaults
.LVL25:
	.loc 1 142 0
	addl	$16, %esp
	testl	%eax, %eax
	je	.L14
	.loc 1 143 0
	pushl	%ecx
	pushl	%ecx
	pushl	%eax
	pushl	$.LC6
	jmp	.L25
.L14:
	.loc 1 151 0
	pushl	%ecx
	pushl	%ecx
	pushl	$2
	pushl	%esi
	call	mbedtls_ssl_conf_authmode
.LVL26:
	.loc 1 152 0
	addl	$12, %esp
	pushl	$0
	pushl	-32(%ebp)
	pushl	%esi
	call	mbedtls_ssl_conf_ca_chain
.LVL27:
	.loc 1 153 0
	addl	$12, %esp
	pushl	$0
	pushl	$ssl_random
	pushl	%esi
	call	mbedtls_ssl_conf_rng
.LVL28:
	.loc 1 160 0
	popl	%eax
	popl	%edx
	pushl	$4
	pushl	%esi
	call	mbedtls_ssl_conf_max_frag_len
.LVL29:
	.loc 1 161 0
	addl	$16, %esp
	testl	%eax, %eax
	je	.L15
	.loc 1 162 0
	pushl	%edx
	pushl	%edx
	pushl	%eax
	pushl	$.LC7
	jmp	.L25
.L15:
	.loc 1 167 0
	pushl	%ecx
	pushl	%ecx
	pushl	%esi
	pushl	%edi
	call	mbedtls_ssl_setup
.LVL30:
	.loc 1 168 0
	addl	$16, %esp
	testl	%eax, %eax
	je	.L16
	.loc 1 169 0
	pushl	%edx
	pushl	%edx
	pushl	%eax
	pushl	$.LC8
	jmp	.L25
.L16:
	.loc 1 173 0
	subl	$12, %esp
	pushl	$0
	pushl	$mbedtls_net_recv
	pushl	$mbedtls_net_send
	pushl	-28(%ebp)
	pushl	%edi
	call	mbedtls_ssl_set_bio
.LVL31:
	.loc 1 182 0
	addl	$32, %esp
.L17:
	subl	$12, %esp
	pushl	%edi
	call	mbedtls_ssl_handshake
.LVL32:
	addl	$16, %esp
	testl	%eax, %eax
	je	.L28
	.loc 1 183 0
	movl	%eax, %edx
	andb	$127, %dl
	cmpl	$-26880, %edx
	je	.L17
	.loc 1 184 0
	negl	%eax
.LVL33:
	pushl	%ecx
	pushl	%ecx
	pushl	%eax
	pushl	$.LC9
	jmp	.L25
.LVL34:
.L28:
	.loc 1 200 0
	subl	$12, %esp
	pushl	%edi
	call	mbedtls_ssl_get_verify_result
.LVL35:
	.loc 1 201 0
	addl	$16, %esp
	testl	%eax, %eax
	movl	%ebx, %edx
	je	.L8
.LVL36:
.LVL37:
	.loc 1 202 0
	pushl	%edx
	pushl	%edx
	pushl	%eax
	pushl	$.LC10
.LVL38:
.L25:
.L12:
	call	printf
.LVL39:
	.loc 1 203 0
	addl	$16, %esp
	.loc 1 214 0
	subl	$12, %esp
	pushl	-28(%ebp)
	call	mbedtls_net_free
.LVL40:
	.loc 1 215 0
	popl	%eax
	pushl	-32(%ebp)
	call	mbedtls_x509_crt_free
.LVL41:
	.loc 1 216 0
	movl	%edi, (%esp)
	call	mbedtls_ssl_free
.LVL42:
	.loc 1 217 0
	movl	%esi, (%esp)
	call	mbedtls_ssl_config_free
.LVL43:
	.loc 1 219 0
	movl	%ebx, (%esp)
	call	free
.LVL44:
.L26:
	addl	$16, %esp
	.loc 1 223 0
	xorl	%edx, %edx
.LVL45:
.L8:
	.loc 1 224 0
	leal	-12(%ebp), %esp
	movl	%edx, %eax
	popl	%ebx
	.cfi_restore 3
	popl	%esi
	.cfi_restore 6
	popl	%edi
	.cfi_restore 7
	popl	%ebp
	.cfi_restore 5
	.cfi_def_cfa 4, 4
	ret
	.cfi_endproc
.LFE43:
	.size	mbedtls_ssl_connect, .-mbedtls_ssl_connect
	.section	.text.unlikely.mbedtls_ssl_connect
.LCOLDE11:
	.section	.text.mbedtls_ssl_connect
.LHOTE11:
	.section	.rodata.str1.1
.LC12:
	.string	"ssl_send: invalid input args"
.LC13:
	.string	"ssl_send: invalid magic - 0x%x\n"
.LC14:
	.string	"ssl_send: mbedtls_ssl_write failed - 0x%x\n"
	.section	.text.unlikely.mbedtls_ssl_send,"ax",@progbits
.LCOLDB15:
	.section	.text.mbedtls_ssl_send,"ax",@progbits
.LHOTB15:
	.globl	mbedtls_ssl_send
	.type	mbedtls_ssl_send, @function
mbedtls_ssl_send:
.LFB44:
	.loc 1 227 0
	.cfi_startproc
.LVL46:
	pushl	%ebp
	.cfi_def_cfa_offset 8
	.cfi_offset 5, -8
	movl	%esp, %ebp
	.cfi_def_cfa_register 5
	pushl	%edi
	pushl	%esi
	pushl	%ebx
	subl	$28, %esp
	.cfi_offset 7, -12
	.cfi_offset 6, -16
	.cfi_offset 3, -20
	.loc 1 233 0
	cmpl	$0, 12(%ebp)
	.loc 1 227 0
	movl	8(%ebp), %ebx
	.loc 1 233 0
	sete	%dl
	cmpl	$0, 16(%ebp)
	setle	%al
	orb	%al, %dl
	jne	.L42
	testl	%ebx, %ebx
	jne	.L30
.L42:
	.loc 1 234 0
	subl	$12, %esp
	pushl	$.LC12
	call	puts
.LVL47:
	jmp	.L50
.L30:
.LVL48:
	.loc 1 243 0
	movl	(%ebx), %eax
	xorl	%edi, %edi
	xorl	%esi, %esi
	.loc 1 249 0
	addl	$412, %ebx
.LVL49:
	.loc 1 243 0
	cmpl	$1412567570, %eax
	je	.L46
	.loc 1 244 0
	pushl	%ebx
	pushl	%ebx
	pushl	%eax
	pushl	$.LC13
	jmp	.L52
.LVL50:
.L34:
	.loc 1 254 0
	je	.L41
	.loc 1 258 0
	cmpl	$-26752, %eax
	jne	.L36
	.loc 1 260 0
	subl	$12, %esp
	movl	%eax, -28(%ebp)
	.loc 1 259 0
	incl	%edi
.LVL51:
	.loc 1 260 0
	pushl	$10
	call	aos_msleep
.LVL52:
	.loc 1 261 0
	movl	-28(%ebp), %eax
	addl	$16, %esp
.LVL53:
.L35:
	.loc 1 276 0
	cmpl	16(%ebp), %esi
	jge	.L43
	cmpl	$9, %edi
	jg	.L43
.LVL54:
.L46:
	.loc 1 249 0
	movl	16(%ebp), %eax
	pushl	%ecx
	subl	%esi, %eax
	pushl	%eax
	pushl	12(%ebp)
	pushl	%ebx
	call	mbedtls_ssl_write
.LVL55:
	.loc 1 251 0
	addl	$16, %esp
	cmpl	$0, %eax
	jle	.L34
	.loc 1 252 0
	addl	%eax, %esi
.LVL56:
	.loc 1 253 0
	addl	%eax, 12(%ebp)
	jmp	.L35
.L36:
	.loc 1 264 0
	cmpl	$-30848, %eax
	je	.L51
	.loc 1 272 0
	negl	%eax
.LVL57:
	pushl	%edx
	pushl	%edx
	pushl	%eax
	pushl	$.LC14
.LVL58:
.L52:
	call	printf
.LVL59:
.L50:
	.loc 1 274 0
	addl	$16, %esp
.L51:
	orl	$-1, %eax
	jmp	.L32
.LVL60:
.L43:
	.loc 1 293 0
	testl	%eax, %eax
	js	.L51
.L41:
	movl	%esi, %eax
.LVL61:
.L32:
	.loc 1 294 0
	leal	-12(%ebp), %esp
	popl	%ebx
	.cfi_restore 3
	popl	%esi
	.cfi_restore 6
	popl	%edi
	.cfi_restore 7
	popl	%ebp
	.cfi_restore 5
	.cfi_def_cfa 4, 4
	ret
	.cfi_endproc
.LFE44:
	.size	mbedtls_ssl_send, .-mbedtls_ssl_send
	.section	.text.unlikely.mbedtls_ssl_send
.LCOLDE15:
	.section	.text.mbedtls_ssl_send
.LHOTE15:
	.section	.rodata.str1.1
.LC16:
	.string	"ssl_recv: invalid input args"
.LC17:
	.string	"ssl_recv: invalid magic - 0x%x\n"
.LC18:
	.string	"ssl_recv: mbedtls_ssl_read failed - 0x%x\n"
	.section	.text.unlikely.mbedtls_ssl_recv,"ax",@progbits
.LCOLDB19:
	.section	.text.mbedtls_ssl_recv,"ax",@progbits
.LHOTB19:
	.globl	mbedtls_ssl_recv
	.type	mbedtls_ssl_recv, @function
mbedtls_ssl_recv:
.LFB45:
	.loc 1 297 0
	.cfi_startproc
.LVL62:
	pushl	%ebp
	.cfi_def_cfa_offset 8
	.cfi_offset 5, -8
	movl	%esp, %ebp
	.cfi_def_cfa_register 5
	pushl	%esi
	pushl	%ebx
	.cfi_offset 6, -12
	.cfi_offset 3, -16
	.loc 1 297 0
	movl	12(%ebp), %edx
	movl	16(%ebp), %esi
	movl	8(%ebp), %eax
	.loc 1 302 0
	testl	%edx, %edx
	sete	%bl
	testl	%esi, %esi
	setle	%cl
	orb	%cl, %bl
	jne	.L62
	testl	%eax, %eax
	jne	.L54
.L62:
	.loc 1 303 0
	subl	$12, %esp
	pushl	$.LC16
	call	puts
.LVL63:
	jmp	.L66
.LVL64:
.L54:
	.loc 1 307 0
	movl	(%eax), %ecx
	cmpl	$1412567570, %ecx
	je	.L57
	.loc 1 308 0
	pushl	%ebx
	pushl	%ebx
	pushl	%ecx
	pushl	$.LC17
.LVL65:
.L67:
	call	printf
.LVL66:
.L66:
	.loc 1 309 0
	addl	$16, %esp
	orl	$-1, %edx
	jmp	.L56
.LVL67:
.L57:
	.loc 1 318 0
	addl	$412, %eax
.LVL68:
	pushl	%ecx
	pushl	%esi
	pushl	%edx
	pushl	%eax
	call	mbedtls_ssl_read
.LVL69:
	.loc 1 320 0
	addl	$16, %esp
	testl	%eax, %eax
	movl	%eax, %edx
	jg	.L56
	.loc 1 325 0
	xorl	%edx, %edx
	.loc 1 323 0
	testl	%eax, %eax
	je	.L56
	.loc 1 327 0
	cmpl	$-26880, %eax
	je	.L60
	.loc 1 331 0
	cmpl	$-30848, %eax
	je	.L56
	.loc 1 339 0
	negl	%eax
.LVL70:
	pushl	%edx
	pushl	%edx
	pushl	%eax
	pushl	$.LC18
	jmp	.L67
.LVL71:
.L60:
	.loc 1 328 0
	movl	$-11, %edx
.LVL72:
.L56:
	.loc 1 361 0
	leal	-8(%ebp), %esp
	movl	%edx, %eax
	popl	%ebx
	.cfi_restore 3
	popl	%esi
	.cfi_restore 6
	popl	%ebp
	.cfi_restore 5
	.cfi_def_cfa 4, 4
	ret
	.cfi_endproc
.LFE45:
	.size	mbedtls_ssl_recv, .-mbedtls_ssl_recv
	.section	.text.unlikely.mbedtls_ssl_recv
.LCOLDE19:
	.section	.text.mbedtls_ssl_recv
.LHOTE19:
	.section	.rodata.str1.1
.LC20:
	.string	"ssl_close: invalid magic - 0x%x\n"
	.section	.text.unlikely.mbedtls_ssl_close,"ax",@progbits
.LCOLDB21:
	.section	.text.mbedtls_ssl_close,"ax",@progbits
.LHOTB21:
	.globl	mbedtls_ssl_close
	.type	mbedtls_ssl_close, @function
mbedtls_ssl_close:
.LFB46:
	.loc 1 364 0
	.cfi_startproc
.LVL73:
	pushl	%ebp
	.cfi_def_cfa_offset 8
	.cfi_offset 5, -8
	.loc 1 368 0
	xorl	%eax, %eax
	.loc 1 364 0
	movl	%esp, %ebp
	.cfi_def_cfa_register 5
	pushl	%esi
	pushl	%ebx
	.cfi_offset 6, -12
	.cfi_offset 3, -16
	.loc 1 364 0
	movl	8(%ebp), %ebx
	.loc 1 367 0
	testl	%ebx, %ebx
	je	.L69
.LVL74:
	.loc 1 372 0
	movl	(%ebx), %eax
	cmpl	$1412567570, %eax
	je	.L70
	.loc 1 373 0
	pushl	%edx
	pushl	%edx
	pushl	%eax
	pushl	$.LC20
	call	printf
.LVL75:
	.loc 1 374 0
	addl	$16, %esp
	orl	$-1, %eax
	jmp	.L69
.L70:
	.loc 1 377 0
	leal	412(%ebx), %esi
	subl	$12, %esp
	pushl	%esi
	call	mbedtls_ssl_close_notify
.LVL76:
	.loc 1 379 0
	leal	4(%ebx), %eax
	movl	%eax, (%esp)
	call	mbedtls_net_free
.LVL77:
	.loc 1 380 0
	leal	8(%ebx), %eax
	movl	%eax, (%esp)
	call	mbedtls_x509_crt_free
.LVL78:
	.loc 1 381 0
	movl	%esi, (%esp)
	call	mbedtls_ssl_free
.LVL79:
	.loc 1 382 0
	leal	320(%ebx), %eax
	movl	%eax, (%esp)
	call	mbedtls_ssl_config_free
.LVL80:
	.loc 1 385 0
	movl	%ebx, (%esp)
	call	free
.LVL81:
	.loc 1 388 0
	call	mbedtls_threading_free_alt
.LVL82:
	.loc 1 391 0
	addl	$16, %esp
	xorl	%eax, %eax
.LVL83:
.L69:
	.loc 1 392 0
	leal	-8(%ebp), %esp
	popl	%ebx
	.cfi_restore 3
	popl	%esi
	.cfi_restore 6
	popl	%ebp
	.cfi_restore 5
	.cfi_def_cfa 4, 4
	ret
	.cfi_endproc
.LFE46:
	.size	mbedtls_ssl_close, .-mbedtls_ssl_close
	.section	.text.unlikely.mbedtls_ssl_close
.LCOLDE21:
	.section	.text.mbedtls_ssl_close
.LHOTE21:
	.text
.Letext0:
	.section	.text.unlikely.ssl_random
.Letext_cold0:
	.file 2 "/home/stone/Documents/Ali_IOT/build/compiler/gcc-arm-none-eabi/Linux64/arm-none-eabi/include/machine/_default_types.h"
	.file 3 "/home/stone/Documents/Ali_IOT/build/compiler/gcc-arm-none-eabi/Linux64/lib/gcc/arm-none-eabi/5.4.1/include/stddef.h"
	.file 4 "/home/stone/Documents/Ali_IOT/build/compiler/gcc-arm-none-eabi/Linux64/arm-none-eabi/include/sys/_types.h"
	.file 5 "/home/stone/Documents/Ali_IOT/build/compiler/gcc-arm-none-eabi/Linux64/arm-none-eabi/include/sys/_stdint.h"
	.file 6 "/home/stone/Documents/Ali_IOT/build/compiler/gcc-arm-none-eabi/Linux64/arm-none-eabi/include/sys/_timeval.h"
	.file 7 "./security/mbedtls/include/mbedtls/md.h"
	.file 8 "./security/mbedtls/include/mbedtls/pk.h"
	.file 9 "./security/mbedtls/include/mbedtls/asn1.h"
	.file 10 "./security/mbedtls/include/mbedtls/x509.h"
	.file 11 "./security/mbedtls/include/mbedtls/x509_crl.h"
	.file 12 "./security/mbedtls/include/mbedtls/x509_crt.h"
	.file 13 "./security/mbedtls/include/mbedtls/ssl.h"
	.file 14 "./security/mbedtls/include/mbedtls/net_sockets.h"
	.file 15 "/home/stone/Documents/Ali_IOT/build/compiler/gcc-arm-none-eabi/Linux64/arm-none-eabi/include/sys/time.h"
	.file 16 "./security/alicrypto/./libalicrypto/inc/ali_crypto.h"
	.file 17 "./security/mbedtls/include/mbedtls/threading.h"
	.file 18 "/home/stone/Documents/Ali_IOT/build/compiler/gcc-arm-none-eabi/Linux64/arm-none-eabi/include/stdlib.h"
	.file 19 "/home/stone/Documents/Ali_IOT/build/compiler/gcc-arm-none-eabi/Linux64/arm-none-eabi/include/stdio.h"
	.file 20 "./include/aos/kernel.h"
	.file 21 "./include/aos/log.h"
	.file 22 "<built-in>"
	.section	.note.GNU-stack,"",@progbits
