	.file	"mbedtls_alt.c"
	.text
.Ltext0:
	.section	.text.unlikely.mbedtls_calloc,"ax",@progbits
.LCOLDB0:
	.section	.text.mbedtls_calloc,"ax",@progbits
.LHOTB0:
	.section	.text.unlikely.mbedtls_calloc
.Ltext_cold0:
	.section	.text.mbedtls_calloc
	.globl	mbedtls_calloc
	.type	mbedtls_calloc, @function
mbedtls_calloc:
.LFB9:
	.file 1 "security/mbedtls/src/mbedtls_alt.c"
	.loc 1 124 0
	.cfi_startproc
.LVL0:
	pushl	%ebp
	.cfi_def_cfa_offset 8
	.cfi_offset 5, -8
	movl	%esp, %ebp
	.cfi_def_cfa_register 5
	pushl	%edi
	pushl	%esi
	pushl	%ebx
	subl	$12, %esp
	.cfi_offset 7, -12
	.cfi_offset 6, -16
	.cfi_offset 3, -20
	.loc 1 124 0
	movl	8(%ebp), %esi
	movl	12(%ebp), %eax
	.loc 1 127 0
	testl	%esi, %esi
	je	.L3
	testl	%eax, %eax
	sete	%bl
	je	.L3
	.loc 1 132 0
	imull	%eax, %esi
	subl	$12, %esp
	pushl	%esi
	call	aos_malloc
.LVL1:
	movl	%eax, %edx
.LVL2:
	.loc 1 136 0
	addl	$16, %esp
	.loc 1 137 0
	xorl	%eax, %eax
.LVL3:
	.loc 1 136 0
	testl	%edx, %edx
	je	.L2
	.loc 1 139 0
	movb	%bl, %al
	movl	%edx, %edi
	movl	%esi, %ecx
	rep stosb
	.loc 1 142 0
	movl	%edx, %eax
	jmp	.L2
.LVL4:
.L3:
	.loc 1 128 0
	xorl	%eax, %eax
.L2:
	.loc 1 143 0
	leal	-12(%ebp), %esp
	popl	%ebx
	.cfi_restore 3
	popl	%esi
	.cfi_restore 6
	popl	%edi
	.cfi_restore 7
	popl	%ebp
	.cfi_restore 5
	.cfi_def_cfa 4, 4
	ret
	.cfi_endproc
.LFE9:
	.size	mbedtls_calloc, .-mbedtls_calloc
	.section	.text.unlikely.mbedtls_calloc
.LCOLDE0:
	.section	.text.mbedtls_calloc
.LHOTE0:
	.section	.text.unlikely.mbedtls_free,"ax",@progbits
.LCOLDB1:
	.section	.text.mbedtls_free,"ax",@progbits
.LHOTB1:
	.globl	mbedtls_free
	.type	mbedtls_free, @function
mbedtls_free:
.LFB10:
	.loc 1 146 0
	.cfi_startproc
.LVL5:
	pushl	%ebp
	.cfi_def_cfa_offset 8
	.cfi_offset 5, -8
	movl	%esp, %ebp
	.cfi_def_cfa_register 5
	.loc 1 146 0
	movl	8(%ebp), %eax
	.loc 1 147 0
	testl	%eax, %eax
	je	.L7
	.loc 1 156 0
	popl	%ebp
	.cfi_remember_state
	.cfi_restore 5
	.cfi_def_cfa 4, 4
	.loc 1 152 0
	jmp	aos_free
.LVL6:
.L7:
	.cfi_restore_state
	.loc 1 156 0
	popl	%ebp
	.cfi_restore 5
	.cfi_def_cfa 4, 4
	ret
	.cfi_endproc
.LFE10:
	.size	mbedtls_free, .-mbedtls_free
	.section	.text.unlikely.mbedtls_free
.LCOLDE1:
	.section	.text.mbedtls_free
.LHOTE1:
	.section	.text.unlikely.threading_mutex_init,"ax",@progbits
.LCOLDB2:
	.section	.text.threading_mutex_init,"ax",@progbits
.LHOTB2:
	.globl	threading_mutex_init
	.type	threading_mutex_init, @function
threading_mutex_init:
.LFB11:
	.loc 1 162 0
	.cfi_startproc
.LVL7:
	pushl	%ebp
	.cfi_def_cfa_offset 8
	.cfi_offset 5, -8
	movl	%esp, %ebp
	.cfi_def_cfa_register 5
	pushl	%ebx
	pushl	%eax
	.cfi_offset 3, -12
	.loc 1 162 0
	movl	8(%ebp), %ebx
	.loc 1 163 0
	testl	%ebx, %ebx
	je	.L10
	.loc 1 163 0 discriminator 1
	cmpb	$0, 4(%ebx)
	jne	.L10
	.loc 1 167 0
	subl	$12, %esp
	pushl	%ebx
	call	aos_mutex_new
.LVL8:
	addl	$16, %esp
	testl	%eax, %eax
	sete	4(%ebx)
.L10:
	.loc 1 168 0
	movl	-4(%ebp), %ebx
	leave
	.cfi_restore 5
	.cfi_restore 3
	.cfi_def_cfa 4, 4
	ret
	.cfi_endproc
.LFE11:
	.size	threading_mutex_init, .-threading_mutex_init
	.section	.text.unlikely.threading_mutex_init
.LCOLDE2:
	.section	.text.threading_mutex_init
.LHOTE2:
	.section	.text.unlikely.threading_mutex_free,"ax",@progbits
.LCOLDB3:
	.section	.text.threading_mutex_free,"ax",@progbits
.LHOTB3:
	.globl	threading_mutex_free
	.type	threading_mutex_free, @function
threading_mutex_free:
.LFB12:
	.loc 1 171 0
	.cfi_startproc
.LVL9:
	pushl	%ebp
	.cfi_def_cfa_offset 8
	.cfi_offset 5, -8
	movl	%esp, %ebp
	.cfi_def_cfa_register 5
	pushl	%ebx
	pushl	%eax
	.cfi_offset 3, -12
	.loc 1 171 0
	movl	8(%ebp), %ebx
	.loc 1 172 0
	testl	%ebx, %ebx
	je	.L16
	.loc 1 172 0 discriminator 1
	cmpb	$0, 4(%ebx)
	je	.L16
	.loc 1 176 0
	subl	$12, %esp
	pushl	%ebx
	call	aos_mutex_free
.LVL10:
	.loc 1 177 0
	movb	$0, 4(%ebx)
	addl	$16, %esp
.L16:
	.loc 1 178 0
	movl	-4(%ebp), %ebx
	leave
	.cfi_restore 5
	.cfi_restore 3
	.cfi_def_cfa 4, 4
	ret
	.cfi_endproc
.LFE12:
	.size	threading_mutex_free, .-threading_mutex_free
	.section	.text.unlikely.threading_mutex_free
.LCOLDE3:
	.section	.text.threading_mutex_free
.LHOTE3:
	.section	.text.unlikely.threading_mutex_lock,"ax",@progbits
.LCOLDB4:
	.section	.text.threading_mutex_lock,"ax",@progbits
.LHOTB4:
	.globl	threading_mutex_lock
	.type	threading_mutex_lock, @function
threading_mutex_lock:
.LFB13:
	.loc 1 181 0
	.cfi_startproc
.LVL11:
	pushl	%ebp
	.cfi_def_cfa_offset 8
	.cfi_offset 5, -8
	.loc 1 183 0
	movl	$-28, %eax
	.loc 1 181 0
	movl	%esp, %ebp
	.cfi_def_cfa_register 5
	subl	$8, %esp
	.loc 1 181 0
	movl	8(%ebp), %edx
	.loc 1 182 0
	testl	%edx, %edx
	je	.L23
	.loc 1 182 0 discriminator 1
	cmpb	$0, 4(%edx)
	je	.L23
	.loc 1 186 0
	pushl	%eax
	pushl	%eax
	pushl	$-1
	pushl	%edx
	call	aos_mutex_lock
.LVL12:
	addl	$16, %esp
	.loc 1 187 0
	movl	$-30, %edx
	testl	%eax, %eax
	cmovne	%edx, %eax
.L23:
	.loc 1 191 0
	leave
	.cfi_restore 5
	.cfi_def_cfa 4, 4
	ret
	.cfi_endproc
.LFE13:
	.size	threading_mutex_lock, .-threading_mutex_lock
	.section	.text.unlikely.threading_mutex_lock
.LCOLDE4:
	.section	.text.threading_mutex_lock
.LHOTE4:
	.section	.text.unlikely.threading_mutex_unlock,"ax",@progbits
.LCOLDB5:
	.section	.text.threading_mutex_unlock,"ax",@progbits
.LHOTB5:
	.globl	threading_mutex_unlock
	.type	threading_mutex_unlock, @function
threading_mutex_unlock:
.LFB14:
	.loc 1 194 0
	.cfi_startproc
.LVL13:
	pushl	%ebp
	.cfi_def_cfa_offset 8
	.cfi_offset 5, -8
	.loc 1 196 0
	movl	$-28, %eax
	.loc 1 194 0
	movl	%esp, %ebp
	.cfi_def_cfa_register 5
	subl	$8, %esp
	.loc 1 194 0
	movl	8(%ebp), %edx
	.loc 1 195 0
	testl	%edx, %edx
	je	.L29
	.loc 1 195 0 discriminator 1
	cmpb	$0, 4(%edx)
	je	.L29
	.loc 1 199 0
	subl	$12, %esp
	pushl	%edx
	call	aos_mutex_unlock
.LVL14:
	addl	$16, %esp
	.loc 1 200 0
	movl	$-30, %edx
	testl	%eax, %eax
	cmovne	%edx, %eax
.L29:
	.loc 1 204 0
	leave
	.cfi_restore 5
	.cfi_def_cfa 4, 4
	ret
	.cfi_endproc
.LFE14:
	.size	threading_mutex_unlock, .-threading_mutex_unlock
	.section	.text.unlikely.threading_mutex_unlock
.LCOLDE5:
	.section	.text.threading_mutex_unlock
.LHOTE5:
	.section	.text.unlikely.mbedtls_aes_init_alt,"ax",@progbits
.LCOLDB6:
	.section	.text.mbedtls_aes_init_alt,"ax",@progbits
.LHOTB6:
	.globl	mbedtls_aes_init_alt
	.type	mbedtls_aes_init_alt, @function
mbedtls_aes_init_alt:
.LFB15:
	.loc 1 210 0
	.cfi_startproc
.LVL15:
	pushl	%ebp
	.cfi_def_cfa_offset 8
	.cfi_offset 5, -8
	.loc 1 211 0
	movl	$12, %ecx
	xorl	%eax, %eax
	.loc 1 210 0
	movl	%esp, %ebp
	.cfi_def_cfa_register 5
	pushl	%edi
	.cfi_offset 7, -12
	.loc 1 211 0
	movl	8(%ebp), %edi
	rep stosl
	.loc 1 212 0
	popl	%edi
	.cfi_restore 7
	popl	%ebp
	.cfi_restore 5
	.cfi_def_cfa 4, 4
	ret
	.cfi_endproc
.LFE15:
	.size	mbedtls_aes_init_alt, .-mbedtls_aes_init_alt
	.section	.text.unlikely.mbedtls_aes_init_alt
.LCOLDE6:
	.section	.text.mbedtls_aes_init_alt
.LHOTE6:
	.section	.text.unlikely.mbedtls_aes_free_alt,"ax",@progbits
.LCOLDB7:
	.section	.text.mbedtls_aes_free_alt,"ax",@progbits
.LHOTB7:
	.globl	mbedtls_aes_free_alt
	.type	mbedtls_aes_free_alt, @function
mbedtls_aes_free_alt:
.LFB16:
	.loc 1 215 0
	.cfi_startproc
.LVL16:
	pushl	%ebp
	.cfi_def_cfa_offset 8
	.cfi_offset 5, -8
	movl	%esp, %ebp
	.cfi_def_cfa_register 5
	pushl	%ebx
	pushl	%eax
	.cfi_offset 3, -12
	.loc 1 215 0
	movl	8(%ebp), %ebx
	.loc 1 216 0
	testl	%ebx, %ebx
	je	.L36
	.loc 1 220 0
	movl	44(%ebx), %eax
	testl	%eax, %eax
	je	.L38
	.loc 1 221 0
	subl	$12, %esp
	pushl	%eax
	call	mbedtls_free
.LVL17:
	addl	$16, %esp
.L38:
	leal	48(%ebx), %eax
.L39:
.LVL18:
.LBB4:
.LBB5:
	.loc 1 77 0
	cmpl	%eax, %ebx
	je	.L36
.LVL19:
	.loc 1 78 0
	movb	$0, (%ebx)
	incl	%ebx
.LVL20:
	jmp	.L39
.LVL21:
.L36:
.LBE5:
.LBE4:
	.loc 1 225 0
	movl	-4(%ebp), %ebx
	leave
	.cfi_restore 5
	.cfi_restore 3
	.cfi_def_cfa 4, 4
	ret
	.cfi_endproc
.LFE16:
	.size	mbedtls_aes_free_alt, .-mbedtls_aes_free_alt
	.section	.text.unlikely.mbedtls_aes_free_alt
.LCOLDE7:
	.section	.text.mbedtls_aes_free_alt
.LHOTE7:
	.section	.rodata.str1.1,"aMS",@progbits,1
.LC8:
	.string	"%s %d: invalid input args\n"
.LC9:
	.string	"%s %d: invalid key length - %d\n"
	.section	.text.unlikely.mbedtls_aes_setkey_enc_alt,"ax",@progbits
.LCOLDB10:
	.section	.text.mbedtls_aes_setkey_enc_alt,"ax",@progbits
.LHOTB10:
	.globl	mbedtls_aes_setkey_enc_alt
	.type	mbedtls_aes_setkey_enc_alt, @function
mbedtls_aes_setkey_enc_alt:
.LFB17:
	.loc 1 229 0
	.cfi_startproc
.LVL22:
	pushl	%ebp
	.cfi_def_cfa_offset 8
	.cfi_offset 5, -8
	movl	%esp, %ebp
	.cfi_def_cfa_register 5
	pushl	%edi
	pushl	%esi
	pushl	%ebx
	subl	$12, %esp
	.cfi_offset 7, -12
	.cfi_offset 6, -16
	.cfi_offset 3, -20
	.loc 1 229 0
	movl	12(%ebp), %esi
	movl	16(%ebp), %ecx
	movl	8(%ebp), %eax
	.loc 1 230 0
	testl	%esi, %esi
	sete	%bl
	testl	%ecx, %ecx
	sete	%dl
	orb	%dl, %bl
	jne	.L51
	testl	%eax, %eax
	jne	.L47
.L51:
	.loc 1 231 0
	pushl	%eax
	pushl	$231
	pushl	$__FUNCTION__.4406
	pushl	$.LC8
	jmp	.L53
.L47:
	.loc 1 235 0
	shrl	$3, %ecx
	cmpl	$32, %ecx
	jbe	.L50
	.loc 1 236 0
	pushl	%ecx
	pushl	$236
	pushl	$__FUNCTION__.4406
	pushl	$.LC9
.L53:
	call	printf
.LVL23:
	.loc 1 237 0
	addl	$16, %esp
	orl	$-1, %eax
	jmp	.L49
.L50:
	.loc 1 239 0
	movl	%ecx, 40(%eax)
	.loc 1 240 0
	addl	$8, %eax
	movl	%eax, %edi
	.loc 1 243 0
	xorl	%eax, %eax
	.loc 1 240 0
	rep movsb
.L49:
	.loc 1 244 0
	leal	-12(%ebp), %esp
	popl	%ebx
	.cfi_restore 3
	popl	%esi
	.cfi_restore 6
	popl	%edi
	.cfi_restore 7
	popl	%ebp
	.cfi_restore 5
	.cfi_def_cfa 4, 4
	ret
	.cfi_endproc
.LFE17:
	.size	mbedtls_aes_setkey_enc_alt, .-mbedtls_aes_setkey_enc_alt
	.section	.text.unlikely.mbedtls_aes_setkey_enc_alt
.LCOLDE10:
	.section	.text.mbedtls_aes_setkey_enc_alt
.LHOTE10:
	.section	.text.unlikely.mbedtls_aes_setkey_dec_alt,"ax",@progbits
.LCOLDB11:
	.section	.text.mbedtls_aes_setkey_dec_alt,"ax",@progbits
.LHOTB11:
	.globl	mbedtls_aes_setkey_dec_alt
	.type	mbedtls_aes_setkey_dec_alt, @function
mbedtls_aes_setkey_dec_alt:
.LFB18:
	.loc 1 248 0
	.cfi_startproc
.LVL24:
	pushl	%ebp
	.cfi_def_cfa_offset 8
	.cfi_offset 5, -8
	movl	%esp, %ebp
	.cfi_def_cfa_register 5
	pushl	%edi
	pushl	%esi
	pushl	%ebx
	subl	$12, %esp
	.cfi_offset 7, -12
	.cfi_offset 6, -16
	.cfi_offset 3, -20
	.loc 1 248 0
	movl	12(%ebp), %esi
	movl	16(%ebp), %ecx
	movl	8(%ebp), %eax
	.loc 1 249 0
	testl	%esi, %esi
	sete	%bl
	testl	%ecx, %ecx
	sete	%dl
	orb	%dl, %bl
	jne	.L59
	testl	%eax, %eax
	jne	.L55
.L59:
	.loc 1 250 0
	pushl	%eax
	pushl	$250
	pushl	$__FUNCTION__.4412
	pushl	$.LC8
	jmp	.L61
.L55:
	.loc 1 254 0
	shrl	$3, %ecx
	cmpl	$32, %ecx
	jbe	.L58
	.loc 1 255 0
	pushl	%ecx
	pushl	$255
	pushl	$__FUNCTION__.4412
	pushl	$.LC9
.L61:
	call	printf
.LVL25:
	.loc 1 256 0
	addl	$16, %esp
	orl	$-1, %eax
	jmp	.L57
.L58:
	.loc 1 258 0
	movl	%ecx, 40(%eax)
	.loc 1 259 0
	addl	$8, %eax
	movl	%eax, %edi
	.loc 1 262 0
	xorl	%eax, %eax
	.loc 1 259 0
	rep movsb
.L57:
	.loc 1 263 0
	leal	-12(%ebp), %esp
	popl	%ebx
	.cfi_restore 3
	popl	%esi
	.cfi_restore 6
	popl	%edi
	.cfi_restore 7
	popl	%ebp
	.cfi_restore 5
	.cfi_def_cfa 4, 4
	ret
	.cfi_endproc
.LFE18:
	.size	mbedtls_aes_setkey_dec_alt, .-mbedtls_aes_setkey_dec_alt
	.section	.text.unlikely.mbedtls_aes_setkey_dec_alt
.LCOLDE11:
	.section	.text.mbedtls_aes_setkey_dec_alt
.LHOTE11:
	.section	.rodata.str1.1
.LC12:
	.string	"%s %d: not support!\n"
	.section	.text.unlikely.mbedtls_aes_crypt_ecb_alt,"ax",@progbits
.LCOLDB13:
	.section	.text.mbedtls_aes_crypt_ecb_alt,"ax",@progbits
.LHOTB13:
	.globl	mbedtls_aes_crypt_ecb_alt
	.type	mbedtls_aes_crypt_ecb_alt, @function
mbedtls_aes_crypt_ecb_alt:
.LFB19:
	.loc 1 269 0
	.cfi_startproc
.LVL26:
	pushl	%ebp
	.cfi_def_cfa_offset 8
	.cfi_offset 5, -8
	movl	%esp, %ebp
	.cfi_def_cfa_register 5
	subl	$12, %esp
	.loc 1 275 0
	pushl	$275
	pushl	$__FUNCTION__.4419
	pushl	$.LC12
	call	printf
.LVL27:
	.loc 1 278 0
	orl	$-1, %eax
	leave
	.cfi_restore 5
	.cfi_def_cfa 4, 4
	ret
	.cfi_endproc
.LFE19:
	.size	mbedtls_aes_crypt_ecb_alt, .-mbedtls_aes_crypt_ecb_alt
	.section	.text.unlikely.mbedtls_aes_crypt_ecb_alt
.LCOLDE13:
	.section	.text.mbedtls_aes_crypt_ecb_alt
.LHOTE13:
	.section	.rodata.str1.1
.LC14:
	.string	"%s %d: invalid input length - %d\n"
.LC15:
	.string	"%s %d: get ctx size fail - 0x%x\n"
.LC16:
	.string	"%s %d: mbedtls_calloc(%d) fail\n"
.LC17:
	.string	"%s %d: aes reset fail - 0x%x\n"
.LC18:
	.string	"%s %d: aes init fail - 0x%x\n"
.LC19:
	.string	"%s %d: aes process fail - 0x%x\n"
	.section	.text.unlikely.mbedtls_aes_crypt_cbc_alt,"ax",@progbits
.LCOLDB20:
	.section	.text.mbedtls_aes_crypt_cbc_alt,"ax",@progbits
.LHOTB20:
	.globl	mbedtls_aes_crypt_cbc_alt
	.type	mbedtls_aes_crypt_cbc_alt, @function
mbedtls_aes_crypt_cbc_alt:
.LFB20:
	.loc 1 286 0
	.cfi_startproc
.LVL28:
	pushl	%ebp
	.cfi_def_cfa_offset 8
	.cfi_offset 5, -8
	movl	%esp, %ebp
	.cfi_def_cfa_register 5
	pushl	%edi
	pushl	%esi
	pushl	%ebx
	subl	$44, %esp
	.cfi_offset 7, -12
	.cfi_offset 6, -16
	.cfi_offset 3, -20
	.loc 1 286 0
	movl	24(%ebp), %eax
	movl	8(%ebp), %esi
	movl	20(%ebp), %ebx
	movl	%eax, -44(%ebp)
	movl	28(%ebp), %eax
	movl	%eax, -48(%ebp)
	movl	%gs:20, %eax
	movl	%eax, -28(%ebp)
	xorl	%eax, %eax
	.loc 1 291 0
	testl	%esi, %esi
	je	.L65
	cmpl	$0, 16(%ebp)
	je	.L65
	.loc 1 292 0
	cmpl	$0, -44(%ebp)
	je	.L65
	cmpl	$0, -48(%ebp)
	sete	-49(%ebp)
	jne	.L66
.L65:
	.loc 1 293 0
	pushl	%ebx
	pushl	$293
	pushl	$__FUNCTION__.4431
	pushl	$.LC8
	jmp	.L83
.L66:
	.loc 1 297 0
	testb	$15, 16(%ebp)
	je	.L69
	.loc 1 298 0
	pushl	16(%ebp)
	pushl	$298
	pushl	$__FUNCTION__.4431
	pushl	$.LC14
	jmp	.L83
.L69:
	.loc 1 302 0
	cmpl	$0, 44(%esi)
	jne	.L70
	.loc 1 303 0
	leal	-32(%ebp), %eax
	pushl	%ecx
	pushl	%ecx
	pushl	%eax
	pushl	$1
	call	ali_aes_get_ctx_size
.LVL29:
	.loc 1 304 0
	addl	$16, %esp
	testl	%eax, %eax
	je	.L71
	.loc 1 305 0
	pushl	%eax
	pushl	$305
	pushl	$__FUNCTION__.4431
	pushl	$.LC15
	jmp	.L83
.L71:
	.loc 1 309 0
	pushl	%edx
	pushl	%edx
	pushl	-32(%ebp)
	pushl	$1
	call	mbedtls_calloc
.LVL30:
	.loc 1 310 0
	addl	$16, %esp
	testl	%eax, %eax
	.loc 1 309 0
	movl	%eax, 44(%esi)
	.loc 1 310 0
	jne	.L72
	.loc 1 311 0
	pushl	-32(%ebp)
	pushl	$311
	pushl	$__FUNCTION__.4431
	pushl	$.LC16
	jmp	.L83
.L72:
	.loc 1 314 0
	movl	%eax, %edi
	movl	-32(%ebp), %ecx
	movb	-49(%ebp), %al
	rep stosb
.L70:
	.loc 1 318 0
	cmpl	$1, 4(%esi)
	jne	.L73
.LVL31:
	.loc 1 319 0
	cmpl	$1, 12(%ebp)
	sete	-49(%ebp)
.LVL32:
	.loc 1 325 0
	cmpl	$0, (%esi)
	je	.L74
	.loc 1 326 0
	subl	$12, %esp
	pushl	44(%esi)
	call	ali_aes_reset
.LVL33:
	.loc 1 327 0
	addl	$16, %esp
	testl	%eax, %eax
	je	.L74
	.loc 1 328 0
	pushl	%eax
	pushl	$328
	pushl	$__FUNCTION__.4431
	pushl	$.LC17
	jmp	.L83
.LVL34:
.L74:
	.loc 1 333 0
	pushl	%eax
	pushl	44(%esi)
	.loc 1 334 0
	leal	8(%esi), %eax
	.loc 1 333 0
	pushl	%ebx
	movzbl	-49(%ebp), %ebx
	pushl	40(%esi)
	pushl	$0
	pushl	%eax
	pushl	%ebx
	pushl	$1
	call	ali_aes_init
.LVL35:
	.loc 1 335 0
	addl	$32, %esp
	testl	%eax, %eax
	je	.L75
	.loc 1 336 0
	pushl	%eax
	pushl	$336
	pushl	$__FUNCTION__.4431
	pushl	$.LC18
	jmp	.L83
.L75:
	.loc 1 339 0
	movl	$1, (%esi)
	.loc 1 340 0
	movl	$2, 4(%esi)
.LVL36:
.L73:
	.loc 1 344 0
	pushl	44(%esi)
	pushl	16(%ebp)
	pushl	-48(%ebp)
	pushl	-44(%ebp)
	call	ali_aes_process
.LVL37:
	.loc 1 346 0
	addl	$16, %esp
	.loc 1 351 0
	xorl	%edx, %edx
	.loc 1 346 0
	testl	%eax, %eax
	je	.L68
	.loc 1 347 0
	pushl	%eax
	pushl	$347
	pushl	$__FUNCTION__.4431
	pushl	$.LC19
.LVL38:
.L83:
	call	printf
.LVL39:
	.loc 1 348 0
	addl	$16, %esp
	orl	$-1, %edx
.L68:
	.loc 1 352 0
	movl	-28(%ebp), %edi
	xorl	%gs:20, %edi
	movl	%edx, %eax
	je	.L76
	call	__stack_chk_fail
.LVL40:
.L76:
	leal	-12(%ebp), %esp
	popl	%ebx
	.cfi_restore 3
	popl	%esi
	.cfi_restore 6
	popl	%edi
	.cfi_restore 7
	popl	%ebp
	.cfi_restore 5
	.cfi_def_cfa 4, 4
	ret
	.cfi_endproc
.LFE20:
	.size	mbedtls_aes_crypt_cbc_alt, .-mbedtls_aes_crypt_cbc_alt
	.section	.text.unlikely.mbedtls_aes_crypt_cbc_alt
.LCOLDE20:
	.section	.text.mbedtls_aes_crypt_cbc_alt
.LHOTE20:
	.section	.rodata.str1.1
.LC21:
	.string	"%s %d: invalid sig len - %d\n"
.LC22:
	.string	"%s %d: invalid rsa padding - %d\n"
.LC23:
	.string	"%s %d: invalid hash len - %d\n"
.LC24:
	.string	"%s %d: not support hash_id - %d\n"
.LC25:
	.string	"%s %d: get pubkey size fail - 0x%x\n"
.LC26:
	.string	"%s %d: init pub_key fail - 0x%x\n"
.LC27:
	.string	"%s %d: rsa verify fail - 0x%x\n"
	.section	.text.unlikely.rsa_verify_alt,"ax",@progbits
.LCOLDB28:
	.section	.text.rsa_verify_alt,"ax",@progbits
.LHOTB28:
	.globl	rsa_verify_alt
	.type	rsa_verify_alt, @function
rsa_verify_alt:
.LFB21:
	.loc 1 360 0
	.cfi_startproc
.LVL41:
	pushl	%ebp
	.cfi_def_cfa_offset 8
	.cfi_offset 5, -8
	movl	%esp, %ebp
	.cfi_def_cfa_register 5
	pushl	%edi
	pushl	%esi
	pushl	%ebx
	subl	$60, %esp
	.cfi_offset 7, -12
	.cfi_offset 6, -16
	.cfi_offset 3, -20
	.loc 1 360 0
	movl	16(%ebp), %eax
	movl	8(%ebp), %edx
	movl	12(%ebp), %ebx
	movl	28(%ebp), %esi
	.loc 1 362 0
	movb	$0, -45(%ebp)
	.loc 1 360 0
	movl	%eax, -64(%ebp)
	movl	24(%ebp), %eax
	movl	%eax, -68(%ebp)
	movl	%gs:20, %eax
	movl	%eax, -28(%ebp)
	xorl	%eax, %eax
.LVL42:
	.loc 1 370 0
	cmpl	$0, -64(%ebp)
	sete	%cl
	cmpl	$0, -68(%ebp)
	sete	%al
	orb	%al, %cl
	jne	.L105
	testl	%edx, %edx
	jne	.L85
.L105:
	.loc 1 371 0
	pushl	%eax
	pushl	$371
	pushl	$__FUNCTION__.4448
	pushl	$.LC8
	jmp	.L113
.L85:
.LVL43:
	.loc 1 376 0
	movl	(%edx), %eax
	cmpl	%esi, %eax
	movl	%eax, -60(%ebp)
	je	.L88
	.loc 1 377 0
	pushl	%esi
	pushl	$377
	pushl	$__FUNCTION__.4448
	pushl	$.LC21
.LVL44:
.L113:
	call	printf
.LVL45:
	.loc 1 378 0
	addl	$16, %esp
	orl	$-1, %eax
	jmp	.L87
.LVL46:
.L88:
	.loc 1 381 0
	movl	16(%edx), %eax
	testl	%eax, %eax
	je	.L89
	.loc 1 382 0
	pushl	%eax
	pushl	$382
	pushl	$__FUNCTION__.4448
	pushl	$.LC22
	jmp	.L113
.L89:
	.loc 1 386 0
	cmpl	$4, %ebx
	je	.L91
	cmpl	$6, %ebx
	je	.L92
	cmpl	$3, %ebx
	jne	.L109
	.loc 1 388 0
	cmpl	$16, 20(%ebp)
	.loc 1 392 0
	movl	$6, %esi
	.loc 1 388 0
	je	.L94
	.loc 1 389 0
	pushl	20(%ebp)
	pushl	$389
	jmp	.L115
.L91:
	.loc 1 398 0
	cmpl	$20, 20(%ebp)
	.loc 1 402 0
	movl	$1, %esi
	.loc 1 398 0
	je	.L94
	.loc 1 399 0
	pushl	20(%ebp)
	pushl	$399
	jmp	.L115
.L92:
	.loc 1 408 0
	cmpl	$32, 20(%ebp)
	.loc 1 412 0
	movl	$3, %esi
	.loc 1 408 0
	je	.L94
	.loc 1 409 0
	pushl	20(%ebp)
	pushl	$409
.L115:
	pushl	$__FUNCTION__.4448
	pushl	$.LC23
	jmp	.L113
.L109:
	.loc 1 419 0
	pushl	%ebx
	pushl	$419
	pushl	$__FUNCTION__.4448
	pushl	$.LC24
	jmp	.L113
.L94:
	.loc 1 423 0
	leal	-44(%ebp), %eax
	pushl	%edi
	pushl	%edi
	movl	%edx, -72(%ebp)
.LVL47:
	pushl	%eax
	pushl	-60(%ebp)
	call	ali_rsa_get_pubkey_size
.LVL48:
	.loc 1 424 0
	addl	$16, %esp
	testl	%eax, %eax
	movl	-72(%ebp), %edx
	je	.L95
	.loc 1 425 0
	pushl	%eax
	pushl	$425
	pushl	$__FUNCTION__.4448
	pushl	$.LC25
	jmp	.L113
.L95:
	.loc 1 429 0
	pushl	%ebx
	pushl	%ebx
	pushl	-44(%ebp)
	pushl	$1
	movl	%edx, -72(%ebp)
	call	mbedtls_calloc
.LVL49:
	.loc 1 430 0
	addl	$16, %esp
	testl	%eax, %eax
	.loc 1 429 0
	movl	%eax, %ebx
.LVL50:
	.loc 1 430 0
	movl	-72(%ebp), %edx
	jne	.L96
	.loc 1 431 0
	pushl	-44(%ebp)
	pushl	$431
	pushl	$__FUNCTION__.4448
	pushl	$.LC16
	jmp	.L113
.L96:
	.loc 1 435 0
	movl	-44(%ebp), %ecx
	xorl	%eax, %eax
.LVL51:
	movl	%ebx, %edi
	rep stosb
	.loc 1 438 0
	movl	(%edx), %eax
	pushl	%ecx
	pushl	%ecx
	pushl	%ebx
	pushl	4(%edx)
	pushl	12(%edx)
	pushl	%eax
	sall	$3, %eax
	pushl	8(%edx)
	pushl	%eax
	call	ali_rsa_init_pubkey
.LVL52:
	.loc 1 441 0
	addl	$32, %esp
	testl	%eax, %eax
	je	.L97
	.loc 1 442 0
	pushl	%eax
	pushl	$442
	pushl	$__FUNCTION__.4448
	pushl	$.LC26
	jmp	.L114
.L97:
	.loc 1 449 0
	leal	-45(%ebp), %eax
.LVL53:
	subl	$12, %esp
	.loc 1 448 0
	movl	%esi, -36(%ebp)
	.loc 1 447 0
	movl	$20, -40(%ebp)
	.loc 1 449 0
	leal	-40(%ebp), %esi
.LVL54:
	movl	$3, %ecx
	pushl	%eax
	subl	$12, %esp
	movl	%esp, %edi
	rep movsl
	pushl	-60(%ebp)
	pushl	-68(%ebp)
	pushl	20(%ebp)
	pushl	-64(%ebp)
	pushl	%ebx
	call	ali_rsa_verify
.LVL55:
	.loc 1 452 0
	addl	$48, %esp
	testl	%eax, %eax
	jne	.L99
	.loc 1 361 0 discriminator 1
	xorl	%esi, %esi
	.loc 1 452 0 discriminator 1
	cmpb	$0, -45(%ebp)
	jne	.L98
.L99:
	.loc 1 453 0
	pushl	%eax
	pushl	$453
	pushl	$__FUNCTION__.4448
	pushl	$.LC27
.LVL56:
.L114:
	call	printf
.LVL57:
	.loc 1 454 0
	orl	$-1, %esi
	.loc 1 455 0
	addl	$16, %esp
.LVL58:
.L98:
	.loc 1 460 0
	subl	$12, %esp
	pushl	%ebx
	call	mbedtls_free
.LVL59:
	addl	$16, %esp
	movl	%esi, %eax
.LVL60:
.L87:
	.loc 1 464 0
	movl	-28(%ebp), %edi
	xorl	%gs:20, %edi
	je	.L100
	call	__stack_chk_fail
.LVL61:
.L100:
	leal	-12(%ebp), %esp
	popl	%ebx
	.cfi_restore 3
	popl	%esi
	.cfi_restore 6
	popl	%edi
	.cfi_restore 7
	popl	%ebp
	.cfi_restore 5
	.cfi_def_cfa 4, 4
	ret
	.cfi_endproc
.LFE21:
	.size	rsa_verify_alt, .-rsa_verify_alt
	.section	.text.unlikely.rsa_verify_alt
.LCOLDE28:
	.section	.text.rsa_verify_alt
.LHOTE28:
	.section	.text.unlikely.rsa_sign_alt,"ax",@progbits
.LCOLDB29:
	.section	.text.rsa_sign_alt,"ax",@progbits
.LHOTB29:
	.globl	rsa_sign_alt
	.type	rsa_sign_alt, @function
rsa_sign_alt:
.LFB22:
	.loc 1 469 0
	.cfi_startproc
.LVL62:
	pushl	%ebp
	.cfi_def_cfa_offset 8
	.cfi_offset 5, -8
	movl	%esp, %ebp
	.cfi_def_cfa_register 5
	subl	$12, %esp
	.loc 1 478 0
	pushl	$478
	pushl	$__FUNCTION__.4463
	pushl	$.LC12
	call	printf
.LVL63:
	.loc 1 481 0
	orl	$-1, %eax
	leave
	.cfi_restore 5
	.cfi_def_cfa 4, 4
	ret
	.cfi_endproc
.LFE22:
	.size	rsa_sign_alt, .-rsa_sign_alt
	.section	.text.unlikely.rsa_sign_alt
.LCOLDE29:
	.section	.text.rsa_sign_alt
.LHOTE29:
	.section	.text.unlikely.rsa_decrypt_alt,"ax",@progbits
.LCOLDB30:
	.section	.text.rsa_decrypt_alt,"ax",@progbits
.LHOTB30:
	.globl	rsa_decrypt_alt
	.type	rsa_decrypt_alt, @function
rsa_decrypt_alt:
.LFB23:
	.loc 1 486 0
	.cfi_startproc
.LVL64:
	pushl	%ebp
	.cfi_def_cfa_offset 8
	.cfi_offset 5, -8
	movl	%esp, %ebp
	.cfi_def_cfa_register 5
	subl	$12, %esp
	.loc 1 494 0
	pushl	$494
	pushl	$__FUNCTION__.4471
	pushl	$.LC12
	call	printf
.LVL65:
	.loc 1 497 0
	orl	$-1, %eax
	leave
	.cfi_restore 5
	.cfi_def_cfa 4, 4
	ret
	.cfi_endproc
.LFE23:
	.size	rsa_decrypt_alt, .-rsa_decrypt_alt
	.section	.text.unlikely.rsa_decrypt_alt
.LCOLDE30:
	.section	.text.rsa_decrypt_alt
.LHOTE30:
	.section	.rodata.str1.1
.LC31:
	.string	"%s %d: rsa encrypt fail - 0x%x\n"
	.section	.text.unlikely.rsa_encrypt_alt,"ax",@progbits
.LCOLDB32:
	.section	.text.rsa_encrypt_alt,"ax",@progbits
.LHOTB32:
	.globl	rsa_encrypt_alt
	.type	rsa_encrypt_alt, @function
rsa_encrypt_alt:
.LFB24:
	.loc 1 502 0
	.cfi_startproc
.LVL66:
	pushl	%ebp
	.cfi_def_cfa_offset 8
	.cfi_offset 5, -8
	movl	%esp, %ebp
	.cfi_def_cfa_register 5
	pushl	%edi
	pushl	%esi
	pushl	%ebx
	subl	$60, %esp
	.cfi_offset 7, -12
	.cfi_offset 6, -16
	.cfi_offset 3, -20
	.loc 1 502 0
	movl	12(%ebp), %eax
	movl	8(%ebp), %esi
	movl	%eax, -60(%ebp)
	movl	20(%ebp), %eax
	movl	%eax, -64(%ebp)
	movl	24(%ebp), %eax
	movl	%eax, -68(%ebp)
	movl	%gs:20, %eax
	movl	%eax, -28(%ebp)
	xorl	%eax, %eax
.LVL67:
	.loc 1 510 0
	testl	%esi, %esi
	je	.L121
	cmpl	$0, -60(%ebp)
	je	.L121
	.loc 1 511 0 discriminator 1
	cmpl	$0, 16(%ebp)
	sete	%dl
	cmpl	$0, -64(%ebp)
	sete	%al
	orb	%al, %dl
	jne	.L121
	cmpl	$0, -68(%ebp)
	sete	-69(%ebp)
	jne	.L122
.L121:
	.loc 1 512 0
	pushl	%esi
	pushl	$512
	pushl	$__FUNCTION__.4485
	pushl	$.LC8
	jmp	.L136
.L122:
.LVL68:
	.loc 1 517 0
	movl	16(%esi), %eax
	testl	%eax, %eax
	je	.L125
	.loc 1 518 0
	pushl	%eax
	pushl	$518
	pushl	$__FUNCTION__.4485
	pushl	$.LC22
.LVL69:
.L136:
	call	printf
.LVL70:
	.loc 1 519 0
	addl	$16, %esp
	orl	$-1, %eax
	jmp	.L124
.LVL71:
.L125:
	.loc 1 522 0
	leal	-44(%ebp), %eax
	pushl	%ebx
	pushl	%ebx
	pushl	%eax
	pushl	(%esi)
	call	ali_rsa_get_pubkey_size
.LVL72:
	.loc 1 523 0
	addl	$16, %esp
	testl	%eax, %eax
	je	.L126
	.loc 1 524 0
	pushl	%eax
	pushl	$524
	pushl	$__FUNCTION__.4485
	pushl	$.LC25
	jmp	.L136
.L126:
	.loc 1 528 0
	pushl	%ecx
	pushl	%ecx
	pushl	-44(%ebp)
	pushl	$1
	call	mbedtls_calloc
.LVL73:
	.loc 1 529 0
	addl	$16, %esp
	testl	%eax, %eax
	.loc 1 528 0
	movl	%eax, %ebx
.LVL74:
	.loc 1 529 0
	jne	.L127
	.loc 1 530 0
	pushl	-44(%ebp)
	pushl	$530
	pushl	$__FUNCTION__.4485
	pushl	$.LC16
	jmp	.L136
.L127:
	.loc 1 534 0
	movl	-44(%ebp), %ecx
	movl	%eax, %edi
	movb	-69(%ebp), %al
.LVL75:
	rep stosb
	.loc 1 537 0
	movl	(%esi), %eax
	pushl	%edx
	pushl	%edx
	pushl	%ebx
	pushl	4(%esi)
	pushl	12(%esi)
	pushl	%eax
	sall	$3, %eax
	pushl	8(%esi)
	pushl	%eax
	call	ali_rsa_init_pubkey
.LVL76:
	.loc 1 540 0
	addl	$32, %esp
	testl	%eax, %eax
	je	.L128
	.loc 1 541 0
	pushl	%eax
	pushl	$541
	pushl	$__FUNCTION__.4485
	pushl	$.LC26
	jmp	.L137
.L128:
	.loc 1 547 0
	subl	$12, %esp
	.loc 1 546 0
	movl	$10, -40(%ebp)
	.loc 1 547 0
	leal	-40(%ebp), %esi
.LVL77:
	movl	%esp, %edi
	movl	$3, %ecx
	rep movsl
	.loc 1 503 0
	xorl	%esi, %esi
	.loc 1 547 0
	pushl	-68(%ebp)
	pushl	-64(%ebp)
	pushl	16(%ebp)
	pushl	-60(%ebp)
	pushl	%ebx
	call	ali_rsa_public_encrypt
.LVL78:
	.loc 1 549 0
	addl	$32, %esp
	testl	%eax, %eax
	je	.L129
	.loc 1 550 0
	pushl	%eax
	pushl	$550
	pushl	$__FUNCTION__.4485
	pushl	$.LC31
.L137:
	call	printf
.LVL79:
	.loc 1 551 0
	orl	$-1, %esi
	.loc 1 552 0
	addl	$16, %esp
.LVL80:
.L129:
	.loc 1 557 0
	subl	$12, %esp
	pushl	%ebx
	call	mbedtls_free
.LVL81:
	addl	$16, %esp
	movl	%esi, %eax
.LVL82:
.L124:
	.loc 1 561 0
	movl	-28(%ebp), %edx
	xorl	%gs:20, %edx
	je	.L130
	call	__stack_chk_fail
.LVL83:
.L130:
	leal	-12(%ebp), %esp
	popl	%ebx
	.cfi_restore 3
	popl	%esi
	.cfi_restore 6
	popl	%edi
	.cfi_restore 7
	popl	%ebp
	.cfi_restore 5
	.cfi_def_cfa 4, 4
	ret
	.cfi_endproc
.LFE24:
	.size	rsa_encrypt_alt, .-rsa_encrypt_alt
	.section	.text.unlikely.rsa_encrypt_alt
.LCOLDE32:
	.section	.text.rsa_encrypt_alt
.LHOTE32:
	.section	.text.unlikely.mbedtls_rsa_init_alt,"ax",@progbits
.LCOLDB33:
	.section	.text.mbedtls_rsa_init_alt,"ax",@progbits
.LHOTB33:
	.globl	mbedtls_rsa_init_alt
	.type	mbedtls_rsa_init_alt, @function
mbedtls_rsa_init_alt:
.LFB25:
	.loc 1 565 0
	.cfi_startproc
.LVL84:
	pushl	%ebp
	.cfi_def_cfa_offset 8
	.cfi_offset 5, -8
	.loc 1 566 0
	xorl	%eax, %eax
	movl	$6, %ecx
	.loc 1 565 0
	movl	%esp, %ebp
	.cfi_def_cfa_register 5
	pushl	%edi
	.cfi_offset 7, -12
	.loc 1 565 0
	movl	8(%ebp), %edx
	.loc 1 566 0
	movl	%edx, %edi
	rep stosl
	.loc 1 568 0
	movl	12(%ebp), %eax
	movl	%eax, 16(%edx)
	.loc 1 569 0
	movl	16(%ebp), %eax
	movl	%eax, 20(%edx)
	.loc 1 570 0
	popl	%edi
	.cfi_restore 7
	popl	%ebp
	.cfi_restore 5
	.cfi_def_cfa 4, 4
	ret
	.cfi_endproc
.LFE25:
	.size	mbedtls_rsa_init_alt, .-mbedtls_rsa_init_alt
	.section	.text.unlikely.mbedtls_rsa_init_alt
.LCOLDE33:
	.section	.text.mbedtls_rsa_init_alt
.LHOTE33:
	.section	.text.unlikely.mbedtls_rsa_free_alt,"ax",@progbits
.LCOLDB34:
	.section	.text.mbedtls_rsa_free_alt,"ax",@progbits
.LHOTB34:
	.globl	mbedtls_rsa_free_alt
	.type	mbedtls_rsa_free_alt, @function
mbedtls_rsa_free_alt:
.LFB26:
	.loc 1 574 0
	.cfi_startproc
.LVL85:
	pushl	%ebp
	.cfi_def_cfa_offset 8
	.cfi_offset 5, -8
	.loc 1 575 0
	movl	$6, %ecx
	xorl	%eax, %eax
	.loc 1 574 0
	movl	%esp, %ebp
	.cfi_def_cfa_register 5
	pushl	%edi
	.cfi_offset 7, -12
	.loc 1 575 0
	movl	8(%ebp), %edi
	rep stosl
	.loc 1 576 0
	popl	%edi
	.cfi_restore 7
	popl	%ebp
	.cfi_restore 5
	.cfi_def_cfa 4, 4
	ret
	.cfi_endproc
.LFE26:
	.size	mbedtls_rsa_free_alt, .-mbedtls_rsa_free_alt
	.section	.text.unlikely.mbedtls_rsa_free_alt
.LCOLDE34:
	.section	.text.mbedtls_rsa_free_alt
.LHOTE34:
	.section	.text.unlikely.mbedtls_md5_free_alt,"ax",@progbits
.LCOLDB35:
	.section	.text.mbedtls_md5_free_alt,"ax",@progbits
.LHOTB35:
	.globl	mbedtls_md5_free_alt
	.type	mbedtls_md5_free_alt, @function
mbedtls_md5_free_alt:
.LFB28:
	.loc 1 587 0
	.cfi_startproc
.LVL86:
	pushl	%ebp
	.cfi_def_cfa_offset 8
	.cfi_offset 5, -8
	movl	%esp, %ebp
	.cfi_def_cfa_register 5
	pushl	%ebx
	pushl	%eax
	.cfi_offset 3, -12
	.loc 1 587 0
	movl	8(%ebp), %ebx
	.loc 1 588 0
	testl	%ebx, %ebx
	je	.L142
	.loc 1 592 0
	movl	4(%ebx), %eax
	testl	%eax, %eax
	je	.L144
	.loc 1 593 0
	subl	$12, %esp
	pushl	%eax
	call	mbedtls_free
.LVL87:
	addl	$16, %esp
.L144:
	leal	8(%ebx), %eax
.L145:
.LVL88:
.LBB8:
.LBB9:
	.loc 1 77 0
	cmpl	%eax, %ebx
	je	.L142
.LVL89:
	.loc 1 78 0
	movb	$0, (%ebx)
	incl	%ebx
.LVL90:
	jmp	.L145
.LVL91:
.L142:
.LBE9:
.LBE8:
	.loc 1 597 0
	movl	-4(%ebp), %ebx
	leave
	.cfi_restore 5
	.cfi_restore 3
	.cfi_def_cfa 4, 4
	ret
	.cfi_endproc
.LFE28:
	.size	mbedtls_md5_free_alt, .-mbedtls_md5_free_alt
	.section	.text.unlikely.mbedtls_md5_free_alt
.LCOLDE35:
	.section	.text.mbedtls_md5_free_alt
.LHOTE35:
	.section	.rodata.str1.1
.LC36:
	.string	"ASSERT FAILURE:"
.LC37:
	.string	"security/mbedtls/src/mbedtls_alt.c"
.LC38:
	.string	"%s (%d): %s\n"
	.section	.text.unlikely.mbedtls_md5_clone_alt,"ax",@progbits
.LCOLDB39:
	.section	.text.mbedtls_md5_clone_alt,"ax",@progbits
.LHOTB39:
	.globl	mbedtls_md5_clone_alt
	.type	mbedtls_md5_clone_alt, @function
mbedtls_md5_clone_alt:
.LFB29:
	.loc 1 601 0
	.cfi_startproc
.LVL92:
	pushl	%ebp
	.cfi_def_cfa_offset 8
	.cfi_offset 5, -8
	movl	%esp, %ebp
	.cfi_def_cfa_register 5
	pushl	%edi
	pushl	%esi
	pushl	%ebx
	subl	$20, %esp
	.cfi_offset 7, -12
	.cfi_offset 6, -16
	.cfi_offset 3, -20
	.loc 1 601 0
	movl	12(%ebp), %ebx
	movl	8(%ebp), %esi
	.loc 1 602 0
	pushl	(%ebx)
	pushl	$1
	call	mbedtls_calloc
.LVL93:
	.loc 1 603 0
	addl	$16, %esp
	testl	%eax, %eax
	.loc 1 602 0
	movl	%eax, 4(%esi)
	.loc 1 603 0
	jne	.L153
	.loc 1 604 0
	pushl	(%ebx)
	pushl	$604
	pushl	$__FUNCTION__.4505
	pushl	$.LC16
	call	printf
.LVL94:
	.loc 1 605 0
	movl	$.LC36, (%esp)
	call	puts
.LVL95:
	pushl	$__FUNCTION__.4505
	pushl	$605
	pushl	$.LC37
	pushl	$.LC38
	call	printf
.LVL96:
	addl	$32, %esp
.L154:
	jmp	.L154
.L153:
	.loc 1 608 0
	movl	(%ebx), %ecx
	.loc 1 609 0
	movl	%eax, %edi
	.loc 1 608 0
	movl	%ecx, (%esi)
	.loc 1 609 0
	movl	4(%ebx), %esi
	rep movsb
	.loc 1 610 0
	leal	-12(%ebp), %esp
	popl	%ebx
	.cfi_restore 3
	popl	%esi
	.cfi_restore 6
	popl	%edi
	.cfi_restore 7
	popl	%ebp
	.cfi_restore 5
	.cfi_def_cfa 4, 4
	ret
	.cfi_endproc
.LFE29:
	.size	mbedtls_md5_clone_alt, .-mbedtls_md5_clone_alt
	.section	.text.unlikely.mbedtls_md5_clone_alt
.LCOLDE39:
	.section	.text.mbedtls_md5_clone_alt
.LHOTE39:
	.section	.rodata.str1.1
.LC40:
	.string	"%s %d: md5 init fail - 0x%x\n"
	.section	.text.unlikely.mbedtls_md5_starts_alt,"ax",@progbits
.LCOLDB41:
	.section	.text.mbedtls_md5_starts_alt,"ax",@progbits
.LHOTB41:
	.globl	mbedtls_md5_starts_alt
	.type	mbedtls_md5_starts_alt, @function
mbedtls_md5_starts_alt:
.LFB30:
	.loc 1 613 0
	.cfi_startproc
.LVL97:
	pushl	%ebp
	.cfi_def_cfa_offset 8
	.cfi_offset 5, -8
	movl	%esp, %ebp
	.cfi_def_cfa_register 5
	pushl	%edi
	pushl	%ebx
	subl	$16, %esp
	.cfi_offset 7, -12
	.cfi_offset 3, -16
	.loc 1 613 0
	movl	8(%ebp), %ebx
	movl	%gs:20, %eax
	movl	%eax, -12(%ebp)
	xorl	%eax, %eax
.LVL98:
	.loc 1 618 0
	cmpl	$0, 4(%ebx)
	jne	.L157
	.loc 1 619 0
	leal	-16(%ebp), %eax
	pushl	%ecx
	pushl	%ecx
	pushl	%eax
	pushl	$6
	call	ali_hash_get_ctx_size
.LVL99:
	.loc 1 620 0
	addl	$16, %esp
	testl	%eax, %eax
	je	.L158
	.loc 1 621 0
	pushl	%eax
	pushl	$621
	pushl	$__FUNCTION__.4513
	pushl	$.LC15
	call	printf
.LVL100:
	.loc 1 622 0
	movl	$.LC36, (%esp)
	call	puts
.LVL101:
	pushl	$__FUNCTION__.4513
	pushl	$622
	pushl	$.LC37
	pushl	$.LC38
	call	printf
.LVL102:
	addl	$32, %esp
.L159:
	jmp	.L159
.LVL103:
.L158:
	.loc 1 625 0
	movl	-16(%ebp), %eax
.LVL104:
	movl	%eax, (%ebx)
	.loc 1 626 0
	pushl	%edx
	pushl	%edx
	pushl	%eax
	pushl	$1
	call	mbedtls_calloc
.LVL105:
	.loc 1 627 0
	addl	$16, %esp
	testl	%eax, %eax
	.loc 1 626 0
	movl	%eax, %edx
	movl	%eax, 4(%ebx)
	.loc 1 627 0
	jne	.L160
	.loc 1 628 0
	pushl	-16(%ebp)
	pushl	$628
	pushl	$__FUNCTION__.4513
	pushl	$.LC16
	call	printf
.LVL106:
	.loc 1 629 0
	movl	$.LC36, (%esp)
	call	puts
.LVL107:
	pushl	$__FUNCTION__.4513
	pushl	$629
	pushl	$.LC37
	pushl	$.LC38
	call	printf
.LVL108:
	addl	$32, %esp
.L161:
	jmp	.L161
.L160:
	.loc 1 631 0
	movl	-16(%ebp), %ecx
	xorl	%eax, %eax
	movl	%edx, %edi
	rep stosb
.L157:
	.loc 1 635 0
	pushl	%eax
	pushl	%eax
	pushl	4(%ebx)
	pushl	$6
	call	ali_hash_init
.LVL109:
	.loc 1 636 0
	addl	$16, %esp
	testl	%eax, %eax
	je	.L156
	.loc 1 637 0
	pushl	%eax
	pushl	$637
	pushl	$__FUNCTION__.4513
	pushl	$.LC40
	call	printf
.LVL110:
	.loc 1 638 0
	movl	$.LC36, (%esp)
	call	puts
.LVL111:
	pushl	$__FUNCTION__.4513
	pushl	$638
	pushl	$.LC37
	pushl	$.LC38
	call	printf
.LVL112:
	addl	$32, %esp
.L163:
	jmp	.L163
.LVL113:
.L156:
	.loc 1 642 0
	movl	-12(%ebp), %eax
	xorl	%gs:20, %eax
.LVL114:
	je	.L164
	call	__stack_chk_fail
.LVL115:
.L164:
	leal	-8(%ebp), %esp
	popl	%ebx
	.cfi_restore 3
	popl	%edi
	.cfi_restore 7
	popl	%ebp
	.cfi_restore 5
	.cfi_def_cfa 4, 4
	ret
	.cfi_endproc
.LFE30:
	.size	mbedtls_md5_starts_alt, .-mbedtls_md5_starts_alt
	.section	.text.unlikely.mbedtls_md5_starts_alt
.LCOLDE41:
	.section	.text.mbedtls_md5_starts_alt
.LHOTE41:
	.section	.rodata.str1.1
.LC42:
	.string	"%s %d: md5 update fail - 0x%x\n"
	.section	.text.unlikely.mbedtls_md5_update_alt,"ax",@progbits
.LCOLDB43:
	.section	.text.mbedtls_md5_update_alt,"ax",@progbits
.LHOTB43:
	.globl	mbedtls_md5_update_alt
	.type	mbedtls_md5_update_alt, @function
mbedtls_md5_update_alt:
.LFB31:
	.loc 1 645 0
	.cfi_startproc
.LVL116:
	pushl	%ebp
	.cfi_def_cfa_offset 8
	.cfi_offset 5, -8
	movl	%esp, %ebp
	.cfi_def_cfa_register 5
	subl	$12, %esp
	.loc 1 648 0
	movl	8(%ebp), %eax
	pushl	4(%eax)
	pushl	16(%ebp)
	pushl	12(%ebp)
	call	ali_hash_update
.LVL117:
	.loc 1 649 0
	addl	$16, %esp
	testl	%eax, %eax
	je	.L166
	.loc 1 650 0
	pushl	%eax
	pushl	$650
	pushl	$__FUNCTION__.4523
	pushl	$.LC42
	call	printf
.LVL118:
	.loc 1 651 0
	movl	$.LC36, (%esp)
	call	puts
.LVL119:
	pushl	$__FUNCTION__.4523
	pushl	$651
	pushl	$.LC37
	pushl	$.LC38
	call	printf
.LVL120:
	addl	$32, %esp
.L168:
	jmp	.L168
.LVL121:
.L166:
	.loc 1 655 0
	leave
	.cfi_restore 5
	.cfi_def_cfa 4, 4
	ret
	.cfi_endproc
.LFE31:
	.size	mbedtls_md5_update_alt, .-mbedtls_md5_update_alt
	.section	.text.unlikely.mbedtls_md5_update_alt
.LCOLDE43:
	.section	.text.mbedtls_md5_update_alt
.LHOTE43:
	.section	.rodata.str1.1
.LC44:
	.string	"%s %d: md5 final fail - 0x%x\n"
	.section	.text.unlikely.mbedtls_md5_finish_alt,"ax",@progbits
.LCOLDB45:
	.section	.text.mbedtls_md5_finish_alt,"ax",@progbits
.LHOTB45:
	.globl	mbedtls_md5_finish_alt
	.type	mbedtls_md5_finish_alt, @function
mbedtls_md5_finish_alt:
.LFB32:
	.loc 1 658 0
	.cfi_startproc
.LVL122:
	pushl	%ebp
	.cfi_def_cfa_offset 8
	.cfi_offset 5, -8
	movl	%esp, %ebp
	.cfi_def_cfa_register 5
	subl	$16, %esp
	.loc 1 661 0
	movl	8(%ebp), %eax
	pushl	4(%eax)
	pushl	12(%ebp)
	call	ali_hash_final
.LVL123:
	.loc 1 662 0
	addl	$16, %esp
	testl	%eax, %eax
	je	.L170
	.loc 1 663 0
	pushl	%eax
	pushl	$663
	pushl	$__FUNCTION__.4530
	pushl	$.LC44
	call	printf
.LVL124:
	.loc 1 664 0
	movl	$.LC36, (%esp)
	call	puts
.LVL125:
	pushl	$__FUNCTION__.4530
	pushl	$664
	pushl	$.LC37
	pushl	$.LC38
	call	printf
.LVL126:
	addl	$32, %esp
.L172:
	jmp	.L172
.LVL127:
.L170:
	.loc 1 668 0
	leave
	.cfi_restore 5
	.cfi_def_cfa 4, 4
	ret
	.cfi_endproc
.LFE32:
	.size	mbedtls_md5_finish_alt, .-mbedtls_md5_finish_alt
	.section	.text.unlikely.mbedtls_md5_finish_alt
.LCOLDE45:
	.section	.text.mbedtls_md5_finish_alt
.LHOTE45:
	.section	.text.unlikely.mbedtls_sha1_free_alt,"ax",@progbits
.LCOLDB46:
	.section	.text.mbedtls_sha1_free_alt,"ax",@progbits
.LHOTB46:
	.globl	mbedtls_sha1_free_alt
	.type	mbedtls_sha1_free_alt, @function
mbedtls_sha1_free_alt:
.LFB35:
	.loc 1 689 0
	.cfi_startproc
.LVL128:
	pushl	%ebp
	.cfi_def_cfa_offset 8
	.cfi_offset 5, -8
	movl	%esp, %ebp
	.cfi_def_cfa_register 5
	pushl	%ebx
	pushl	%eax
	.cfi_offset 3, -12
	.loc 1 689 0
	movl	8(%ebp), %ebx
	.loc 1 690 0
	testl	%ebx, %ebx
	je	.L174
	.loc 1 694 0
	movl	4(%ebx), %eax
	testl	%eax, %eax
	je	.L176
	.loc 1 695 0
	subl	$12, %esp
	pushl	%eax
	call	mbedtls_free
.LVL129:
	addl	$16, %esp
.L176:
	leal	8(%ebx), %eax
.L177:
.LVL130:
.LBB12:
.LBB13:
	.loc 1 77 0
	cmpl	%eax, %ebx
	je	.L174
.LVL131:
	.loc 1 78 0
	movb	$0, (%ebx)
	incl	%ebx
.LVL132:
	jmp	.L177
.LVL133:
.L174:
.LBE13:
.LBE12:
	.loc 1 699 0
	movl	-4(%ebp), %ebx
	leave
	.cfi_restore 5
	.cfi_restore 3
	.cfi_def_cfa 4, 4
	ret
	.cfi_endproc
.LFE35:
	.size	mbedtls_sha1_free_alt, .-mbedtls_sha1_free_alt
	.section	.text.unlikely.mbedtls_sha1_free_alt
.LCOLDE46:
	.section	.text.mbedtls_sha1_free_alt
.LHOTE46:
	.section	.text.unlikely.mbedtls_sha1_clone_alt,"ax",@progbits
.LCOLDB47:
	.section	.text.mbedtls_sha1_clone_alt,"ax",@progbits
.LHOTB47:
	.globl	mbedtls_sha1_clone_alt
	.type	mbedtls_sha1_clone_alt, @function
mbedtls_sha1_clone_alt:
.LFB36:
	.loc 1 703 0
	.cfi_startproc
.LVL134:
	pushl	%ebp
	.cfi_def_cfa_offset 8
	.cfi_offset 5, -8
	movl	%esp, %ebp
	.cfi_def_cfa_register 5
	pushl	%edi
	pushl	%esi
	pushl	%ebx
	subl	$20, %esp
	.cfi_offset 7, -12
	.cfi_offset 6, -16
	.cfi_offset 3, -20
	.loc 1 703 0
	movl	12(%ebp), %ebx
	movl	8(%ebp), %esi
	.loc 1 704 0
	pushl	(%ebx)
	pushl	$1
	call	mbedtls_calloc
.LVL135:
	.loc 1 705 0
	addl	$16, %esp
	testl	%eax, %eax
	.loc 1 704 0
	movl	%eax, 4(%esi)
	.loc 1 705 0
	jne	.L185
	.loc 1 706 0
	pushl	(%ebx)
	pushl	$706
	pushl	$__FUNCTION__.4548
	pushl	$.LC16
	call	printf
.LVL136:
	.loc 1 707 0
	movl	$.LC36, (%esp)
	call	puts
.LVL137:
	pushl	$__FUNCTION__.4548
	pushl	$707
	pushl	$.LC37
	pushl	$.LC38
	call	printf
.LVL138:
	addl	$32, %esp
.L186:
	jmp	.L186
.L185:
	.loc 1 710 0
	movl	(%ebx), %ecx
	.loc 1 711 0
	movl	%eax, %edi
	.loc 1 710 0
	movl	%ecx, (%esi)
	.loc 1 711 0
	movl	4(%ebx), %esi
	rep movsb
	.loc 1 712 0
	leal	-12(%ebp), %esp
	popl	%ebx
	.cfi_restore 3
	popl	%esi
	.cfi_restore 6
	popl	%edi
	.cfi_restore 7
	popl	%ebp
	.cfi_restore 5
	.cfi_def_cfa 4, 4
	ret
	.cfi_endproc
.LFE36:
	.size	mbedtls_sha1_clone_alt, .-mbedtls_sha1_clone_alt
	.section	.text.unlikely.mbedtls_sha1_clone_alt
.LCOLDE47:
	.section	.text.mbedtls_sha1_clone_alt
.LHOTE47:
	.section	.rodata.str1.1
.LC48:
	.string	"%s %d: sha1 init fail - 0x%x\n"
	.section	.text.unlikely.mbedtls_sha1_starts_alt,"ax",@progbits
.LCOLDB49:
	.section	.text.mbedtls_sha1_starts_alt,"ax",@progbits
.LHOTB49:
	.globl	mbedtls_sha1_starts_alt
	.type	mbedtls_sha1_starts_alt, @function
mbedtls_sha1_starts_alt:
.LFB37:
	.loc 1 715 0
	.cfi_startproc
.LVL139:
	pushl	%ebp
	.cfi_def_cfa_offset 8
	.cfi_offset 5, -8
	movl	%esp, %ebp
	.cfi_def_cfa_register 5
	pushl	%edi
	pushl	%ebx
	subl	$16, %esp
	.cfi_offset 7, -12
	.cfi_offset 3, -16
	.loc 1 715 0
	movl	8(%ebp), %ebx
	movl	%gs:20, %eax
	movl	%eax, -12(%ebp)
	xorl	%eax, %eax
.LVL140:
	.loc 1 720 0
	cmpl	$0, 4(%ebx)
	jne	.L189
	.loc 1 721 0
	leal	-16(%ebp), %eax
	pushl	%ecx
	pushl	%ecx
	pushl	%eax
	pushl	$1
	call	ali_hash_get_ctx_size
.LVL141:
	.loc 1 722 0
	addl	$16, %esp
	testl	%eax, %eax
	je	.L190
	.loc 1 723 0
	pushl	%eax
	pushl	$723
	pushl	$__FUNCTION__.4556
	pushl	$.LC15
	call	printf
.LVL142:
	.loc 1 724 0
	movl	$.LC36, (%esp)
	call	puts
.LVL143:
	pushl	$__FUNCTION__.4556
	pushl	$724
	pushl	$.LC37
	pushl	$.LC38
	call	printf
.LVL144:
	addl	$32, %esp
.L191:
	jmp	.L191
.LVL145:
.L190:
	.loc 1 727 0
	movl	-16(%ebp), %eax
.LVL146:
	movl	%eax, (%ebx)
	.loc 1 728 0
	pushl	%edx
	pushl	%edx
	pushl	%eax
	pushl	$1
	call	mbedtls_calloc
.LVL147:
	.loc 1 729 0
	addl	$16, %esp
	testl	%eax, %eax
	.loc 1 728 0
	movl	%eax, %edx
	movl	%eax, 4(%ebx)
	.loc 1 729 0
	jne	.L192
	.loc 1 730 0
	pushl	-16(%ebp)
	pushl	$730
	pushl	$__FUNCTION__.4556
	pushl	$.LC16
	call	printf
.LVL148:
	.loc 1 731 0
	movl	$.LC36, (%esp)
	call	puts
.LVL149:
	pushl	$__FUNCTION__.4556
	pushl	$731
	pushl	$.LC37
	pushl	$.LC38
	call	printf
.LVL150:
	addl	$32, %esp
.L193:
	jmp	.L193
.L192:
	.loc 1 733 0
	movl	-16(%ebp), %ecx
	xorl	%eax, %eax
	movl	%edx, %edi
	rep stosb
.L189:
	.loc 1 737 0
	pushl	%eax
	pushl	%eax
	pushl	4(%ebx)
	pushl	$1
	call	ali_hash_init
.LVL151:
	.loc 1 738 0
	addl	$16, %esp
	testl	%eax, %eax
	je	.L188
	.loc 1 739 0
	pushl	%eax
	pushl	$739
	pushl	$__FUNCTION__.4556
	pushl	$.LC48
	call	printf
.LVL152:
	.loc 1 740 0
	movl	$.LC36, (%esp)
	call	puts
.LVL153:
	pushl	$__FUNCTION__.4556
	pushl	$740
	pushl	$.LC37
	pushl	$.LC38
	call	printf
.LVL154:
	addl	$32, %esp
.L195:
	jmp	.L195
.LVL155:
.L188:
	.loc 1 744 0
	movl	-12(%ebp), %eax
	xorl	%gs:20, %eax
.LVL156:
	je	.L196
	call	__stack_chk_fail
.LVL157:
.L196:
	leal	-8(%ebp), %esp
	popl	%ebx
	.cfi_restore 3
	popl	%edi
	.cfi_restore 7
	popl	%ebp
	.cfi_restore 5
	.cfi_def_cfa 4, 4
	ret
	.cfi_endproc
.LFE37:
	.size	mbedtls_sha1_starts_alt, .-mbedtls_sha1_starts_alt
	.section	.text.unlikely.mbedtls_sha1_starts_alt
.LCOLDE49:
	.section	.text.mbedtls_sha1_starts_alt
.LHOTE49:
	.section	.rodata.str1.1
.LC50:
	.string	"%s %d: sha1 update fail - 0x%x\n"
	.section	.text.unlikely.mbedtls_sha1_update_alt,"ax",@progbits
.LCOLDB51:
	.section	.text.mbedtls_sha1_update_alt,"ax",@progbits
.LHOTB51:
	.globl	mbedtls_sha1_update_alt
	.type	mbedtls_sha1_update_alt, @function
mbedtls_sha1_update_alt:
.LFB38:
	.loc 1 747 0
	.cfi_startproc
.LVL158:
	pushl	%ebp
	.cfi_def_cfa_offset 8
	.cfi_offset 5, -8
	movl	%esp, %ebp
	.cfi_def_cfa_register 5
	subl	$12, %esp
	.loc 1 750 0
	movl	8(%ebp), %eax
	pushl	4(%eax)
	pushl	16(%ebp)
	pushl	12(%ebp)
	call	ali_hash_update
.LVL159:
	.loc 1 751 0
	addl	$16, %esp
	testl	%eax, %eax
	je	.L198
	.loc 1 752 0
	pushl	%eax
	pushl	$752
	pushl	$__FUNCTION__.4566
	pushl	$.LC50
	call	printf
.LVL160:
	.loc 1 753 0
	movl	$.LC36, (%esp)
	call	puts
.LVL161:
	pushl	$__FUNCTION__.4566
	pushl	$753
	pushl	$.LC37
	pushl	$.LC38
	call	printf
.LVL162:
	addl	$32, %esp
.L200:
	jmp	.L200
.LVL163:
.L198:
	.loc 1 757 0
	leave
	.cfi_restore 5
	.cfi_def_cfa 4, 4
	ret
	.cfi_endproc
.LFE38:
	.size	mbedtls_sha1_update_alt, .-mbedtls_sha1_update_alt
	.section	.text.unlikely.mbedtls_sha1_update_alt
.LCOLDE51:
	.section	.text.mbedtls_sha1_update_alt
.LHOTE51:
	.section	.rodata.str1.1
.LC52:
	.string	"%s %d: sha1 final fail - 0x%x\n"
	.section	.text.unlikely.mbedtls_sha1_finish_alt,"ax",@progbits
.LCOLDB53:
	.section	.text.mbedtls_sha1_finish_alt,"ax",@progbits
.LHOTB53:
	.globl	mbedtls_sha1_finish_alt
	.type	mbedtls_sha1_finish_alt, @function
mbedtls_sha1_finish_alt:
.LFB39:
	.loc 1 760 0
	.cfi_startproc
.LVL164:
	pushl	%ebp
	.cfi_def_cfa_offset 8
	.cfi_offset 5, -8
	movl	%esp, %ebp
	.cfi_def_cfa_register 5
	subl	$16, %esp
	.loc 1 763 0
	movl	8(%ebp), %eax
	pushl	4(%eax)
	pushl	12(%ebp)
	call	ali_hash_final
.LVL165:
	.loc 1 764 0
	addl	$16, %esp
	testl	%eax, %eax
	je	.L202
	.loc 1 765 0
	pushl	%eax
	pushl	$765
	pushl	$__FUNCTION__.4573
	pushl	$.LC52
	call	printf
.LVL166:
	.loc 1 766 0
	movl	$.LC36, (%esp)
	call	puts
.LVL167:
	pushl	$__FUNCTION__.4573
	pushl	$766
	pushl	$.LC37
	pushl	$.LC38
	call	printf
.LVL168:
	addl	$32, %esp
.L204:
	jmp	.L204
.LVL169:
.L202:
	.loc 1 770 0
	leave
	.cfi_restore 5
	.cfi_def_cfa 4, 4
	ret
	.cfi_endproc
.LFE39:
	.size	mbedtls_sha1_finish_alt, .-mbedtls_sha1_finish_alt
	.section	.text.unlikely.mbedtls_sha1_finish_alt
.LCOLDE53:
	.section	.text.mbedtls_sha1_finish_alt
.LHOTE53:
	.section	.text.unlikely.mbedtls_sha256_init_alt,"ax",@progbits
.LCOLDB54:
	.section	.text.mbedtls_sha256_init_alt,"ax",@progbits
.LHOTB54:
	.globl	mbedtls_sha256_init_alt
	.type	mbedtls_sha256_init_alt, @function
mbedtls_sha256_init_alt:
.LFB41:
	.loc 1 786 0
	.cfi_startproc
.LVL170:
	pushl	%ebp
	.cfi_def_cfa_offset 8
	.cfi_offset 5, -8
	.loc 1 787 0
	movl	$2, %ecx
	xorl	%eax, %eax
	.loc 1 786 0
	movl	%esp, %ebp
	.cfi_def_cfa_register 5
	pushl	%edi
	.cfi_offset 7, -12
	.loc 1 787 0
	movl	8(%ebp), %edi
	rep stosl
	.loc 1 788 0
	popl	%edi
	.cfi_restore 7
	popl	%ebp
	.cfi_restore 5
	.cfi_def_cfa 4, 4
	ret
	.cfi_endproc
.LFE41:
	.size	mbedtls_sha256_init_alt, .-mbedtls_sha256_init_alt
	.section	.text.unlikely.mbedtls_sha256_init_alt
.LCOLDE54:
	.section	.text.mbedtls_sha256_init_alt
.LHOTE54:
	.section	.text.unlikely.mbedtls_sha1_alt,"ax",@progbits
.LCOLDB55:
	.section	.text.mbedtls_sha1_alt,"ax",@progbits
.LHOTB55:
	.globl	mbedtls_sha1_alt
	.type	mbedtls_sha1_alt, @function
mbedtls_sha1_alt:
.LFB40:
	.loc 1 773 0
	.cfi_startproc
.LVL171:
	pushl	%ebp
	.cfi_def_cfa_offset 8
	.cfi_offset 5, -8
	movl	%esp, %ebp
	.cfi_def_cfa_register 5
	pushl	%edi
	pushl	%esi
	pushl	%ebx
	.cfi_offset 7, -12
	.cfi_offset 6, -16
	.cfi_offset 3, -20
	.loc 1 776 0
	leal	-36(%ebp), %ebx
	.loc 1 773 0
	subl	$28, %esp
	.loc 1 773 0
	movl	8(%ebp), %edi
	movl	16(%ebp), %esi
	movl	%gs:20, %eax
	movl	%eax, -28(%ebp)
	xorl	%eax, %eax
	.loc 1 776 0
	pushl	%ebx
	call	mbedtls_sha256_init_alt
.LVL172:
	.loc 1 777 0
	pushl	%eax
	pushl	%eax
	pushl	%ebx
	call	mbedtls_sha1_starts_alt
.LVL173:
	.loc 1 778 0
	addl	$12, %esp
	pushl	12(%ebp)
	pushl	%edi
	pushl	%ebx
	call	mbedtls_sha1_update_alt
.LVL174:
	.loc 1 779 0
	popl	%edx
	popl	%ecx
	pushl	%esi
	pushl	%ebx
	call	mbedtls_sha1_finish_alt
.LVL175:
	.loc 1 780 0
	movl	%ebx, (%esp)
	call	mbedtls_sha1_free_alt
.LVL176:
	.loc 1 781 0
	addl	$16, %esp
	movl	-28(%ebp), %eax
	xorl	%gs:20, %eax
	je	.L209
	call	__stack_chk_fail
.LVL177:
.L209:
	leal	-12(%ebp), %esp
	popl	%ebx
	.cfi_restore 3
	popl	%esi
	.cfi_restore 6
	popl	%edi
	.cfi_restore 7
	popl	%ebp
	.cfi_restore 5
	.cfi_def_cfa 4, 4
	ret
	.cfi_endproc
.LFE40:
	.size	mbedtls_sha1_alt, .-mbedtls_sha1_alt
	.section	.text.unlikely.mbedtls_sha1_alt
.LCOLDE55:
	.section	.text.mbedtls_sha1_alt
.LHOTE55:
	.section	.text.unlikely.mbedtls_sha1_init_alt,"ax",@progbits
.LCOLDB56:
	.section	.text.mbedtls_sha1_init_alt,"ax",@progbits
.LHOTB56:
	.globl	mbedtls_sha1_init_alt
	.type	mbedtls_sha1_init_alt, @function
mbedtls_sha1_init_alt:
.LFB49:
	.cfi_startproc
	pushl	%ebp
	.cfi_def_cfa_offset 8
	.cfi_offset 5, -8
	movl	%esp, %ebp
	.cfi_def_cfa_register 5
	popl	%ebp
	.cfi_restore 5
	.cfi_def_cfa 4, 4
	jmp	mbedtls_sha256_init_alt
	.cfi_endproc
.LFE49:
	.size	mbedtls_sha1_init_alt, .-mbedtls_sha1_init_alt
	.section	.text.unlikely.mbedtls_sha1_init_alt
.LCOLDE56:
	.section	.text.mbedtls_sha1_init_alt
.LHOTE56:
	.section	.text.unlikely.mbedtls_md5_alt,"ax",@progbits
.LCOLDB57:
	.section	.text.mbedtls_md5_alt,"ax",@progbits
.LHOTB57:
	.globl	mbedtls_md5_alt
	.type	mbedtls_md5_alt, @function
mbedtls_md5_alt:
.LFB33:
	.loc 1 671 0
	.cfi_startproc
.LVL178:
	.loc 1 671 0
	pushl	%ebp
	.cfi_def_cfa_offset 8
	.cfi_offset 5, -8
	movl	%esp, %ebp
	.cfi_def_cfa_register 5
	pushl	%edi
	pushl	%esi
	pushl	%ebx
	.cfi_offset 7, -12
	.cfi_offset 6, -16
	.cfi_offset 3, -20
	.loc 1 674 0
	leal	-36(%ebp), %ebx
	.loc 1 671 0
	subl	$28, %esp
	.loc 1 671 0
	movl	8(%ebp), %edi
	movl	16(%ebp), %esi
	movl	%gs:20, %eax
	movl	%eax, -28(%ebp)
	xorl	%eax, %eax
	.loc 1 674 0
	pushl	%ebx
	call	mbedtls_sha256_init_alt
.LVL179:
	.loc 1 675 0
	pushl	%eax
	pushl	%eax
	pushl	%ebx
	call	mbedtls_md5_starts_alt
.LVL180:
	.loc 1 676 0
	addl	$12, %esp
	pushl	12(%ebp)
	pushl	%edi
	pushl	%ebx
	call	mbedtls_md5_update_alt
.LVL181:
	.loc 1 677 0
	popl	%edx
	popl	%ecx
	pushl	%esi
	pushl	%ebx
	call	mbedtls_md5_finish_alt
.LVL182:
	.loc 1 678 0
	movl	%ebx, (%esp)
	call	mbedtls_md5_free_alt
.LVL183:
	.loc 1 679 0
	addl	$16, %esp
	movl	-28(%ebp), %eax
	xorl	%gs:20, %eax
	je	.L214
	call	__stack_chk_fail
.LVL184:
.L214:
	leal	-12(%ebp), %esp
	popl	%ebx
	.cfi_restore 3
	popl	%esi
	.cfi_restore 6
	popl	%edi
	.cfi_restore 7
	popl	%ebp
	.cfi_restore 5
	.cfi_def_cfa 4, 4
	ret
	.cfi_endproc
.LFE33:
	.size	mbedtls_md5_alt, .-mbedtls_md5_alt
	.section	.text.unlikely.mbedtls_md5_alt
.LCOLDE57:
	.section	.text.mbedtls_md5_alt
.LHOTE57:
	.section	.text.unlikely.mbedtls_md5_init_alt,"ax",@progbits
.LCOLDB58:
	.section	.text.mbedtls_md5_init_alt,"ax",@progbits
.LHOTB58:
	.globl	mbedtls_md5_init_alt
	.type	mbedtls_md5_init_alt, @function
mbedtls_md5_init_alt:
.LFB51:
	.cfi_startproc
	pushl	%ebp
	.cfi_def_cfa_offset 8
	.cfi_offset 5, -8
	movl	%esp, %ebp
	.cfi_def_cfa_register 5
	popl	%ebp
	.cfi_restore 5
	.cfi_def_cfa 4, 4
	jmp	mbedtls_sha256_init_alt
	.cfi_endproc
.LFE51:
	.size	mbedtls_md5_init_alt, .-mbedtls_md5_init_alt
	.section	.text.unlikely.mbedtls_md5_init_alt
.LCOLDE58:
	.section	.text.mbedtls_md5_init_alt
.LHOTE58:
	.section	.text.unlikely.mbedtls_sha256_free_alt,"ax",@progbits
.LCOLDB59:
	.section	.text.mbedtls_sha256_free_alt,"ax",@progbits
.LHOTB59:
	.globl	mbedtls_sha256_free_alt
	.type	mbedtls_sha256_free_alt, @function
mbedtls_sha256_free_alt:
.LFB42:
	.loc 1 791 0
	.cfi_startproc
.LVL185:
	.loc 1 791 0
	pushl	%ebp
	.cfi_def_cfa_offset 8
	.cfi_offset 5, -8
	movl	%esp, %ebp
	.cfi_def_cfa_register 5
	pushl	%ebx
	pushl	%eax
	.cfi_offset 3, -12
	.loc 1 791 0
	movl	8(%ebp), %ebx
	.loc 1 792 0
	testl	%ebx, %ebx
	je	.L218
	.loc 1 796 0
	movl	4(%ebx), %eax
	testl	%eax, %eax
	je	.L220
	.loc 1 797 0
	subl	$12, %esp
	pushl	%eax
	call	mbedtls_free
.LVL186:
	addl	$16, %esp
.L220:
	leal	8(%ebx), %eax
.L221:
.LVL187:
.LBB16:
.LBB17:
	.loc 1 77 0
	cmpl	%eax, %ebx
	je	.L218
.LVL188:
	.loc 1 78 0
	movb	$0, (%ebx)
	incl	%ebx
.LVL189:
	jmp	.L221
.LVL190:
.L218:
.LBE17:
.LBE16:
	.loc 1 801 0
	movl	-4(%ebp), %ebx
	leave
	.cfi_restore 5
	.cfi_restore 3
	.cfi_def_cfa 4, 4
	ret
	.cfi_endproc
.LFE42:
	.size	mbedtls_sha256_free_alt, .-mbedtls_sha256_free_alt
	.section	.text.unlikely.mbedtls_sha256_free_alt
.LCOLDE59:
	.section	.text.mbedtls_sha256_free_alt
.LHOTE59:
	.section	.text.unlikely.mbedtls_sha256_clone_alt,"ax",@progbits
.LCOLDB60:
	.section	.text.mbedtls_sha256_clone_alt,"ax",@progbits
.LHOTB60:
	.globl	mbedtls_sha256_clone_alt
	.type	mbedtls_sha256_clone_alt, @function
mbedtls_sha256_clone_alt:
.LFB43:
	.loc 1 805 0
	.cfi_startproc
.LVL191:
	pushl	%ebp
	.cfi_def_cfa_offset 8
	.cfi_offset 5, -8
	movl	%esp, %ebp
	.cfi_def_cfa_register 5
	pushl	%edi
	pushl	%esi
	pushl	%ebx
	subl	$20, %esp
	.cfi_offset 7, -12
	.cfi_offset 6, -16
	.cfi_offset 3, -20
	.loc 1 805 0
	movl	12(%ebp), %ebx
	movl	8(%ebp), %esi
	.loc 1 806 0
	pushl	(%ebx)
	pushl	$1
	call	mbedtls_calloc
.LVL192:
	.loc 1 807 0
	addl	$16, %esp
	testl	%eax, %eax
	.loc 1 806 0
	movl	%eax, 4(%esi)
	.loc 1 807 0
	jne	.L229
	.loc 1 808 0
	pushl	(%ebx)
	pushl	$808
	pushl	$__FUNCTION__.4591
	pushl	$.LC16
	call	printf
.LVL193:
	.loc 1 809 0
	movl	$.LC36, (%esp)
	call	puts
.LVL194:
	pushl	$__FUNCTION__.4591
	pushl	$809
	pushl	$.LC37
	pushl	$.LC38
	call	printf
.LVL195:
	addl	$32, %esp
.L230:
	jmp	.L230
.L229:
	.loc 1 812 0
	movl	(%ebx), %ecx
	.loc 1 813 0
	movl	%eax, %edi
	.loc 1 812 0
	movl	%ecx, (%esi)
	.loc 1 813 0
	movl	4(%ebx), %esi
	rep movsb
	.loc 1 814 0
	leal	-12(%ebp), %esp
	popl	%ebx
	.cfi_restore 3
	popl	%esi
	.cfi_restore 6
	popl	%edi
	.cfi_restore 7
	popl	%ebp
	.cfi_restore 5
	.cfi_def_cfa 4, 4
	ret
	.cfi_endproc
.LFE43:
	.size	mbedtls_sha256_clone_alt, .-mbedtls_sha256_clone_alt
	.section	.text.unlikely.mbedtls_sha256_clone_alt
.LCOLDE60:
	.section	.text.mbedtls_sha256_clone_alt
.LHOTE60:
	.section	.rodata.str1.1
.LC61:
	.string	"%s %d: sha256 init fail - 0x%x\n"
	.section	.text.unlikely.mbedtls_sha256_starts_alt,"ax",@progbits
.LCOLDB62:
	.section	.text.mbedtls_sha256_starts_alt,"ax",@progbits
.LHOTB62:
	.globl	mbedtls_sha256_starts_alt
	.type	mbedtls_sha256_starts_alt, @function
mbedtls_sha256_starts_alt:
.LFB44:
	.loc 1 817 0
	.cfi_startproc
.LVL196:
	pushl	%ebp
	.cfi_def_cfa_offset 8
	.cfi_offset 5, -8
	movl	%esp, %ebp
	.cfi_def_cfa_register 5
	pushl	%edi
	pushl	%esi
	pushl	%ebx
	subl	$28, %esp
	.cfi_offset 7, -12
	.cfi_offset 6, -16
	.cfi_offset 3, -20
	.loc 1 817 0
	movl	8(%ebp), %esi
	movl	%gs:20, %eax
	movl	%eax, -28(%ebp)
	xorl	%eax, %eax
	.loc 1 825 0
	cmpl	$1, 12(%ebp)
	sbbl	%ebx, %ebx
	notl	%ebx
	addl	$3, %ebx
.LVL197:
	.loc 1 828 0
	cmpl	$0, 4(%esi)
	jne	.L234
	.loc 1 829 0
	leal	-32(%ebp), %eax
	pushl	%ecx
	pushl	%ecx
	pushl	%eax
	pushl	%ebx
	call	ali_hash_get_ctx_size
.LVL198:
	.loc 1 830 0
	addl	$16, %esp
	testl	%eax, %eax
	je	.L235
	.loc 1 831 0
	pushl	%eax
	pushl	$831
	pushl	$__FUNCTION__.4600
	pushl	$.LC15
	call	printf
.LVL199:
	.loc 1 832 0
	movl	$.LC36, (%esp)
	call	puts
.LVL200:
	pushl	$__FUNCTION__.4600
	pushl	$832
	pushl	$.LC37
	pushl	$.LC38
	call	printf
.LVL201:
	addl	$32, %esp
.L236:
	jmp	.L236
.LVL202:
.L235:
	.loc 1 835 0
	movl	-32(%ebp), %eax
.LVL203:
	movl	%eax, (%esi)
	.loc 1 836 0
	pushl	%edx
	pushl	%edx
	pushl	%eax
	pushl	$1
	call	mbedtls_calloc
.LVL204:
	.loc 1 837 0
	addl	$16, %esp
	testl	%eax, %eax
	.loc 1 836 0
	movl	%eax, %edx
	movl	%eax, 4(%esi)
	.loc 1 837 0
	jne	.L237
	.loc 1 838 0
	pushl	-32(%ebp)
	pushl	$838
	pushl	$__FUNCTION__.4600
	pushl	$.LC16
	call	printf
.LVL205:
	.loc 1 839 0
	movl	$.LC36, (%esp)
	call	puts
.LVL206:
	pushl	$__FUNCTION__.4600
	pushl	$839
	pushl	$.LC37
	pushl	$.LC38
	call	printf
.LVL207:
	addl	$32, %esp
.L238:
	jmp	.L238
.L237:
	.loc 1 841 0
	movl	-32(%ebp), %ecx
	xorl	%eax, %eax
	movl	%edx, %edi
	rep stosb
.L234:
	.loc 1 845 0
	pushl	%eax
	pushl	%eax
	pushl	4(%esi)
	pushl	%ebx
	call	ali_hash_init
.LVL208:
	.loc 1 846 0
	addl	$16, %esp
	testl	%eax, %eax
	je	.L232
	.loc 1 847 0
	pushl	%eax
	pushl	$847
	pushl	$__FUNCTION__.4600
	pushl	$.LC61
	call	printf
.LVL209:
	.loc 1 848 0
	movl	$.LC36, (%esp)
	call	puts
.LVL210:
	pushl	$__FUNCTION__.4600
	pushl	$848
	pushl	$.LC37
	pushl	$.LC38
	call	printf
.LVL211:
	addl	$32, %esp
.L240:
	jmp	.L240
.LVL212:
.L232:
	.loc 1 852 0
	movl	-28(%ebp), %eax
	xorl	%gs:20, %eax
.LVL213:
	je	.L241
	call	__stack_chk_fail
.LVL214:
.L241:
	leal	-12(%ebp), %esp
	popl	%ebx
	.cfi_restore 3
.LVL215:
	popl	%esi
	.cfi_restore 6
	popl	%edi
	.cfi_restore 7
	popl	%ebp
	.cfi_restore 5
	.cfi_def_cfa 4, 4
	ret
	.cfi_endproc
.LFE44:
	.size	mbedtls_sha256_starts_alt, .-mbedtls_sha256_starts_alt
	.section	.text.unlikely.mbedtls_sha256_starts_alt
.LCOLDE62:
	.section	.text.mbedtls_sha256_starts_alt
.LHOTE62:
	.section	.rodata.str1.1
.LC63:
	.string	"%s %d: sha256 update fail - 0x%x\n"
	.section	.text.unlikely.mbedtls_sha256_update_alt,"ax",@progbits
.LCOLDB64:
	.section	.text.mbedtls_sha256_update_alt,"ax",@progbits
.LHOTB64:
	.globl	mbedtls_sha256_update_alt
	.type	mbedtls_sha256_update_alt, @function
mbedtls_sha256_update_alt:
.LFB45:
	.loc 1 855 0
	.cfi_startproc
.LVL216:
	pushl	%ebp
	.cfi_def_cfa_offset 8
	.cfi_offset 5, -8
	movl	%esp, %ebp
	.cfi_def_cfa_register 5
	subl	$12, %esp
	.loc 1 858 0
	movl	8(%ebp), %eax
	pushl	4(%eax)
	pushl	16(%ebp)
	pushl	12(%ebp)
	call	ali_hash_update
.LVL217:
	.loc 1 859 0
	addl	$16, %esp
	testl	%eax, %eax
	je	.L244
	.loc 1 860 0
	pushl	%eax
	pushl	$860
	pushl	$__FUNCTION__.4610
	pushl	$.LC63
	call	printf
.LVL218:
	.loc 1 861 0
	movl	$.LC36, (%esp)
	call	puts
.LVL219:
	pushl	$__FUNCTION__.4610
	pushl	$861
	pushl	$.LC37
	pushl	$.LC38
	call	printf
.LVL220:
	addl	$32, %esp
.L246:
	jmp	.L246
.LVL221:
.L244:
	.loc 1 865 0
	leave
	.cfi_restore 5
	.cfi_def_cfa 4, 4
	ret
	.cfi_endproc
.LFE45:
	.size	mbedtls_sha256_update_alt, .-mbedtls_sha256_update_alt
	.section	.text.unlikely.mbedtls_sha256_update_alt
.LCOLDE64:
	.section	.text.mbedtls_sha256_update_alt
.LHOTE64:
	.section	.rodata.str1.1
.LC65:
	.string	"%s %d: sha256 final fail - 0x%x\n"
	.section	.text.unlikely.mbedtls_sha256_finish_alt,"ax",@progbits
.LCOLDB66:
	.section	.text.mbedtls_sha256_finish_alt,"ax",@progbits
.LHOTB66:
	.globl	mbedtls_sha256_finish_alt
	.type	mbedtls_sha256_finish_alt, @function
mbedtls_sha256_finish_alt:
.LFB46:
	.loc 1 868 0
	.cfi_startproc
.LVL222:
	pushl	%ebp
	.cfi_def_cfa_offset 8
	.cfi_offset 5, -8
	movl	%esp, %ebp
	.cfi_def_cfa_register 5
	subl	$16, %esp
	.loc 1 871 0
	movl	8(%ebp), %eax
	pushl	4(%eax)
	pushl	12(%ebp)
	call	ali_hash_final
.LVL223:
	.loc 1 872 0
	addl	$16, %esp
	testl	%eax, %eax
	je	.L248
	.loc 1 873 0
	pushl	%eax
	pushl	$873
	pushl	$__FUNCTION__.4617
	pushl	$.LC65
	call	printf
.LVL224:
	.loc 1 874 0
	movl	$.LC36, (%esp)
	call	puts
.LVL225:
	pushl	$__FUNCTION__.4617
	pushl	$874
	pushl	$.LC37
	pushl	$.LC38
	call	printf
.LVL226:
	addl	$32, %esp
.L250:
	jmp	.L250
.LVL227:
.L248:
	.loc 1 878 0
	leave
	.cfi_restore 5
	.cfi_def_cfa 4, 4
	ret
	.cfi_endproc
.LFE46:
	.size	mbedtls_sha256_finish_alt, .-mbedtls_sha256_finish_alt
	.section	.text.unlikely.mbedtls_sha256_finish_alt
.LCOLDE66:
	.section	.text.mbedtls_sha256_finish_alt
.LHOTE66:
	.section	.text.unlikely.mbedtls_sha256_alt,"ax",@progbits
.LCOLDB67:
	.section	.text.mbedtls_sha256_alt,"ax",@progbits
.LHOTB67:
	.globl	mbedtls_sha256_alt
	.type	mbedtls_sha256_alt, @function
mbedtls_sha256_alt:
.LFB47:
	.loc 1 881 0
	.cfi_startproc
.LVL228:
	pushl	%ebp
	.cfi_def_cfa_offset 8
	.cfi_offset 5, -8
	movl	%esp, %ebp
	.cfi_def_cfa_register 5
	pushl	%edi
	pushl	%esi
	pushl	%ebx
	.cfi_offset 7, -12
	.cfi_offset 6, -16
	.cfi_offset 3, -20
	.loc 1 884 0
	leal	-36(%ebp), %ebx
	.loc 1 881 0
	subl	$28, %esp
	.loc 1 881 0
	movl	8(%ebp), %edi
	movl	16(%ebp), %esi
	movl	%gs:20, %eax
	movl	%eax, -28(%ebp)
	xorl	%eax, %eax
	.loc 1 884 0
	pushl	%ebx
	call	mbedtls_sha256_init_alt
.LVL229:
	.loc 1 885 0
	pushl	%eax
	pushl	20(%ebp)
	pushl	%ebx
	call	mbedtls_sha256_starts_alt
.LVL230:
	.loc 1 886 0
	addl	$12, %esp
	pushl	12(%ebp)
	pushl	%edi
	pushl	%ebx
	call	mbedtls_sha256_update_alt
.LVL231:
	.loc 1 887 0
	popl	%edx
	popl	%ecx
	pushl	%esi
	pushl	%ebx
	call	mbedtls_sha256_finish_alt
.LVL232:
	.loc 1 888 0
	movl	%ebx, (%esp)
	call	mbedtls_sha256_free_alt
.LVL233:
	.loc 1 889 0
	addl	$16, %esp
	movl	-28(%ebp), %eax
	xorl	%gs:20, %eax
	je	.L253
	call	__stack_chk_fail
.LVL234:
.L253:
	leal	-12(%ebp), %esp
	popl	%ebx
	.cfi_restore 3
	popl	%esi
	.cfi_restore 6
	popl	%edi
	.cfi_restore 7
	popl	%ebp
	.cfi_restore 5
	.cfi_def_cfa 4, 4
	ret
	.cfi_endproc
.LFE47:
	.size	mbedtls_sha256_alt, .-mbedtls_sha256_alt
	.section	.text.unlikely.mbedtls_sha256_alt
.LCOLDE67:
	.section	.text.mbedtls_sha256_alt
.LHOTE67:
	.section	.rodata.__FUNCTION__.4617,"a",@progbits
	.align 4
	.type	__FUNCTION__.4617, @object
	.size	__FUNCTION__.4617, 26
__FUNCTION__.4617:
	.string	"mbedtls_sha256_finish_alt"
	.section	.rodata.__FUNCTION__.4610,"a",@progbits
	.align 4
	.type	__FUNCTION__.4610, @object
	.size	__FUNCTION__.4610, 26
__FUNCTION__.4610:
	.string	"mbedtls_sha256_update_alt"
	.section	.rodata.__FUNCTION__.4600,"a",@progbits
	.align 4
	.type	__FUNCTION__.4600, @object
	.size	__FUNCTION__.4600, 26
__FUNCTION__.4600:
	.string	"mbedtls_sha256_starts_alt"
	.section	.rodata.__FUNCTION__.4591,"a",@progbits
	.align 4
	.type	__FUNCTION__.4591, @object
	.size	__FUNCTION__.4591, 25
__FUNCTION__.4591:
	.string	"mbedtls_sha256_clone_alt"
	.section	.rodata.__FUNCTION__.4573,"a",@progbits
	.align 4
	.type	__FUNCTION__.4573, @object
	.size	__FUNCTION__.4573, 24
__FUNCTION__.4573:
	.string	"mbedtls_sha1_finish_alt"
	.section	.rodata.__FUNCTION__.4566,"a",@progbits
	.align 4
	.type	__FUNCTION__.4566, @object
	.size	__FUNCTION__.4566, 24
__FUNCTION__.4566:
	.string	"mbedtls_sha1_update_alt"
	.section	.rodata.__FUNCTION__.4556,"a",@progbits
	.align 4
	.type	__FUNCTION__.4556, @object
	.size	__FUNCTION__.4556, 24
__FUNCTION__.4556:
	.string	"mbedtls_sha1_starts_alt"
	.section	.rodata.__FUNCTION__.4548,"a",@progbits
	.align 4
	.type	__FUNCTION__.4548, @object
	.size	__FUNCTION__.4548, 23
__FUNCTION__.4548:
	.string	"mbedtls_sha1_clone_alt"
	.section	.rodata.__FUNCTION__.4530,"a",@progbits
	.align 4
	.type	__FUNCTION__.4530, @object
	.size	__FUNCTION__.4530, 23
__FUNCTION__.4530:
	.string	"mbedtls_md5_finish_alt"
	.section	.rodata.__FUNCTION__.4523,"a",@progbits
	.align 4
	.type	__FUNCTION__.4523, @object
	.size	__FUNCTION__.4523, 23
__FUNCTION__.4523:
	.string	"mbedtls_md5_update_alt"
	.section	.rodata.__FUNCTION__.4513,"a",@progbits
	.align 4
	.type	__FUNCTION__.4513, @object
	.size	__FUNCTION__.4513, 23
__FUNCTION__.4513:
	.string	"mbedtls_md5_starts_alt"
	.section	.rodata.__FUNCTION__.4505,"a",@progbits
	.align 4
	.type	__FUNCTION__.4505, @object
	.size	__FUNCTION__.4505, 22
__FUNCTION__.4505:
	.string	"mbedtls_md5_clone_alt"
	.section	.rodata.__FUNCTION__.4485,"a",@progbits
	.align 4
	.type	__FUNCTION__.4485, @object
	.size	__FUNCTION__.4485, 16
__FUNCTION__.4485:
	.string	"rsa_encrypt_alt"
	.section	.rodata.__FUNCTION__.4471,"a",@progbits
	.align 4
	.type	__FUNCTION__.4471, @object
	.size	__FUNCTION__.4471, 16
__FUNCTION__.4471:
	.string	"rsa_decrypt_alt"
	.section	.rodata.__FUNCTION__.4463,"a",@progbits
	.align 4
	.type	__FUNCTION__.4463, @object
	.size	__FUNCTION__.4463, 13
__FUNCTION__.4463:
	.string	"rsa_sign_alt"
	.section	.rodata.__FUNCTION__.4448,"a",@progbits
	.align 4
	.type	__FUNCTION__.4448, @object
	.size	__FUNCTION__.4448, 15
__FUNCTION__.4448:
	.string	"rsa_verify_alt"
	.section	.rodata.__FUNCTION__.4431,"a",@progbits
	.align 4
	.type	__FUNCTION__.4431, @object
	.size	__FUNCTION__.4431, 26
__FUNCTION__.4431:
	.string	"mbedtls_aes_crypt_cbc_alt"
	.section	.rodata.__FUNCTION__.4419,"a",@progbits
	.align 4
	.type	__FUNCTION__.4419, @object
	.size	__FUNCTION__.4419, 26
__FUNCTION__.4419:
	.string	"mbedtls_aes_crypt_ecb_alt"
	.section	.rodata.__FUNCTION__.4412,"a",@progbits
	.align 4
	.type	__FUNCTION__.4412, @object
	.size	__FUNCTION__.4412, 27
__FUNCTION__.4412:
	.string	"mbedtls_aes_setkey_dec_alt"
	.section	.rodata.__FUNCTION__.4406,"a",@progbits
	.align 4
	.type	__FUNCTION__.4406, @object
	.size	__FUNCTION__.4406, 27
__FUNCTION__.4406:
	.string	"mbedtls_aes_setkey_enc_alt"
	.text
.Letext0:
	.section	.text.unlikely.mbedtls_calloc
.Letext_cold0:
	.file 2 "/home/stone/Documents/Ali_IOT/build/compiler/gcc-arm-none-eabi/Linux64/arm-none-eabi/include/machine/_default_types.h"
	.file 3 "/home/stone/Documents/Ali_IOT/build/compiler/gcc-arm-none-eabi/Linux64/lib/gcc/arm-none-eabi/5.4.1/include/stddef.h"
	.file 4 "/home/stone/Documents/Ali_IOT/build/compiler/gcc-arm-none-eabi/Linux64/arm-none-eabi/include/sys/_stdint.h"
	.file 5 "./include/aos/kernel.h"
	.file 6 "./security/mbedtls/include/mbedtls/threading_alt.h"
	.file 7 "./security/mbedtls/include/mbedtls/aes_alt.h"
	.file 8 "./security/mbedtls/include/mbedtls/rsa_alt.h"
	.file 9 "./security/mbedtls/include/mbedtls/md5_alt.h"
	.file 10 "./security/mbedtls/include/mbedtls/sha1_alt.h"
	.file 11 "./security/mbedtls/include/mbedtls/sha256_alt.h"
	.file 12 "./security/alicrypto/./libalicrypto/inc/ali_crypto.h"
	.file 13 "./security/mbedtls/include/mbedtls/md.h"
	.file 14 "/home/stone/Documents/Ali_IOT/build/compiler/gcc-arm-none-eabi/Linux64/arm-none-eabi/include/stdio.h"
	.file 15 "<built-in>"
	.section	.note.GNU-stack,"",@progbits
