	.file	"md.c"
	.text
.Ltext0:
	.section	.text.unlikely.mbedtls_md_list,"ax",@progbits
.LCOLDB0:
	.section	.text.mbedtls_md_list,"ax",@progbits
.LHOTB0:
	.section	.text.unlikely.mbedtls_md_list
.Ltext_cold0:
	.section	.text.mbedtls_md_list
	.globl	mbedtls_md_list
	.type	mbedtls_md_list, @function
mbedtls_md_list:
.LFB1:
	.file 1 "security/mbedtls/src/md.c"
	.loc 1 95 0
	.cfi_startproc
	pushl	%ebp
	.cfi_def_cfa_offset 8
	.cfi_offset 5, -8
	.loc 1 97 0
	movl	$supported_digests, %eax
	.loc 1 95 0
	movl	%esp, %ebp
	.cfi_def_cfa_register 5
	.loc 1 97 0
	popl	%ebp
	.cfi_restore 5
	.cfi_def_cfa 4, 4
	ret
	.cfi_endproc
.LFE1:
	.size	mbedtls_md_list, .-mbedtls_md_list
	.section	.text.unlikely.mbedtls_md_list
.LCOLDE0:
	.section	.text.mbedtls_md_list
.LHOTE0:
	.section	.rodata.str1.1,"aMS",@progbits,1
.LC1:
	.string	"MD5"
.LC2:
	.string	"SHA1"
.LC3:
	.string	"SHA"
.LC4:
	.string	"SHA224"
.LC5:
	.string	"SHA256"
	.section	.text.unlikely.mbedtls_md_info_from_string,"ax",@progbits
.LCOLDB6:
	.section	.text.mbedtls_md_info_from_string,"ax",@progbits
.LHOTB6:
	.globl	mbedtls_md_info_from_string
	.type	mbedtls_md_info_from_string, @function
mbedtls_md_info_from_string:
.LFB2:
	.loc 1 100 0
	.cfi_startproc
.LVL0:
	pushl	%ebp
	.cfi_def_cfa_offset 8
	.cfi_offset 5, -8
	movl	%esp, %ebp
	.cfi_def_cfa_register 5
	pushl	%esi
	pushl	%ebx
	.cfi_offset 6, -12
	.cfi_offset 3, -16
	.loc 1 100 0
	movl	8(%ebp), %esi
	.loc 1 137 0
	xorl	%ebx, %ebx
	.loc 1 101 0
	testl	%esi, %esi
	je	.L4
	.loc 1 114 0
	pushl	%eax
	pushl	%eax
	.loc 1 115 0
	movl	$mbedtls_md5_info, %ebx
	.loc 1 114 0
	pushl	%esi
	pushl	$.LC1
	call	strcmp
.LVL1:
	addl	$16, %esp
	testl	%eax, %eax
	je	.L4
	.loc 1 122 0
	pushl	%ebx
	pushl	%ebx
	.loc 1 123 0
	movl	$mbedtls_sha1_info, %ebx
	.loc 1 122 0
	pushl	%esi
	pushl	$.LC2
	call	strcmp
.LVL2:
	addl	$16, %esp
	testl	%eax, %eax
	je	.L4
	.loc 1 122 0 is_stmt 0 discriminator 1
	pushl	%ecx
	pushl	%ecx
	pushl	%esi
	pushl	$.LC3
	call	strcmp
.LVL3:
	addl	$16, %esp
	testl	%eax, %eax
	je	.L4
	.loc 1 126 0 is_stmt 1
	pushl	%edx
	pushl	%edx
	.loc 1 127 0
	movl	$mbedtls_sha224_info, %ebx
	.loc 1 126 0
	pushl	%esi
	pushl	$.LC4
	call	strcmp
.LVL4:
	addl	$16, %esp
	testl	%eax, %eax
	je	.L4
	.loc 1 128 0
	pushl	%eax
	pushl	%eax
	.loc 1 129 0
	movl	$mbedtls_sha256_info, %ebx
	.loc 1 128 0
	pushl	%esi
	pushl	$.LC5
	call	strcmp
.LVL5:
	addl	$16, %esp
	.loc 1 129 0
	testl	%eax, %eax
	movl	$0, %eax
	cmovne	%eax, %ebx
.L4:
	.loc 1 138 0
	leal	-8(%ebp), %esp
	movl	%ebx, %eax
	popl	%ebx
	.cfi_restore 3
	popl	%esi
	.cfi_restore 6
	popl	%ebp
	.cfi_restore 5
	.cfi_def_cfa 4, 4
	ret
	.cfi_endproc
.LFE2:
	.size	mbedtls_md_info_from_string, .-mbedtls_md_info_from_string
	.section	.text.unlikely.mbedtls_md_info_from_string
.LCOLDE6:
	.section	.text.mbedtls_md_info_from_string
.LHOTE6:
	.section	.text.unlikely.mbedtls_md_info_from_type,"ax",@progbits
.LCOLDB7:
	.section	.text.mbedtls_md_info_from_type,"ax",@progbits
.LHOTB7:
	.globl	mbedtls_md_info_from_type
	.type	mbedtls_md_info_from_type, @function
mbedtls_md_info_from_type:
.LFB3:
	.loc 1 141 0
	.cfi_startproc
.LVL6:
	pushl	%ebp
	.cfi_def_cfa_offset 8
	.cfi_offset 5, -8
	movl	%esp, %ebp
	.cfi_def_cfa_register 5
	movl	8(%ebp), %eax
	leal	-3(%eax), %edx
	xorl	%eax, %eax
	cmpl	$3, %edx
	ja	.L18
	movl	CSWTCH.5(,%edx,4), %eax
.L18:
	.loc 1 179 0
	popl	%ebp
	.cfi_restore 5
	.cfi_def_cfa 4, 4
	ret
	.cfi_endproc
.LFE3:
	.size	mbedtls_md_info_from_type, .-mbedtls_md_info_from_type
	.section	.text.unlikely.mbedtls_md_info_from_type
.LCOLDE7:
	.section	.text.mbedtls_md_info_from_type
.LHOTE7:
	.section	.text.unlikely.mbedtls_md_init,"ax",@progbits
.LCOLDB8:
	.section	.text.mbedtls_md_init,"ax",@progbits
.LHOTB8:
	.globl	mbedtls_md_init
	.type	mbedtls_md_init, @function
mbedtls_md_init:
.LFB4:
	.loc 1 182 0
	.cfi_startproc
.LVL7:
	pushl	%ebp
	.cfi_def_cfa_offset 8
	.cfi_offset 5, -8
	.loc 1 183 0
	movl	$3, %ecx
	xorl	%eax, %eax
	.loc 1 182 0
	movl	%esp, %ebp
	.cfi_def_cfa_register 5
	pushl	%edi
	.cfi_offset 7, -12
	.loc 1 183 0
	movl	8(%ebp), %edi
	rep stosl
	.loc 1 184 0
	popl	%edi
	.cfi_restore 7
	popl	%ebp
	.cfi_restore 5
	.cfi_def_cfa 4, 4
	ret
	.cfi_endproc
.LFE4:
	.size	mbedtls_md_init, .-mbedtls_md_init
	.section	.text.unlikely.mbedtls_md_init
.LCOLDE8:
	.section	.text.mbedtls_md_init
.LHOTE8:
	.section	.text.unlikely.mbedtls_md_free,"ax",@progbits
.LCOLDB9:
	.section	.text.mbedtls_md_free,"ax",@progbits
.LHOTB9:
	.globl	mbedtls_md_free
	.type	mbedtls_md_free, @function
mbedtls_md_free:
.LFB5:
	.loc 1 187 0
	.cfi_startproc
.LVL8:
	pushl	%ebp
	.cfi_def_cfa_offset 8
	.cfi_offset 5, -8
	movl	%esp, %ebp
	.cfi_def_cfa_register 5
	pushl	%ebx
	pushl	%eax
	.cfi_offset 3, -12
	.loc 1 187 0
	movl	8(%ebp), %ebx
	.loc 1 188 0
	testl	%ebx, %ebx
	je	.L24
	.loc 1 188 0 discriminator 1
	movl	(%ebx), %eax
	testl	%eax, %eax
	je	.L24
	.loc 1 191 0
	movl	4(%ebx), %edx
	testl	%edx, %edx
	je	.L27
	.loc 1 192 0
	subl	$12, %esp
	pushl	%edx
	call	*36(%eax)
.LVL9:
	addl	$16, %esp
.L27:
	.loc 1 194 0
	movl	8(%ebx), %eax
	testl	%eax, %eax
	je	.L28
.LVL10:
	.loc 1 196 0
	movl	(%ebx), %edx
	movl	12(%edx), %edx
	addl	%edx, %edx
	addl	%eax, %edx
.LVL11:
.L29:
.LBB14:
.LBB15:
	.loc 1 53 0
	cmpl	%eax, %edx
	je	.L43
.LVL12:
	movb	$0, (%eax)
	incl	%eax
.LVL13:
	jmp	.L29
.L43:
.LBE15:
.LBE14:
	.loc 1 197 0
	subl	$12, %esp
	pushl	8(%ebx)
	call	mbedtls_free
.LVL14:
	addl	$16, %esp
.L28:
	leal	12(%ebx), %eax
.L31:
.LVL15:
.LBB16:
.LBB17:
	.loc 1 53 0
	cmpl	%eax, %ebx
	je	.L24
.LVL16:
	movb	$0, (%ebx)
	incl	%ebx
.LVL17:
	jmp	.L31
.LVL18:
.L24:
.LBE17:
.LBE16:
	.loc 1 201 0
	movl	-4(%ebp), %ebx
	leave
	.cfi_restore 5
	.cfi_restore 3
	.cfi_def_cfa 4, 4
	ret
	.cfi_endproc
.LFE5:
	.size	mbedtls_md_free, .-mbedtls_md_free
	.section	.text.unlikely.mbedtls_md_free
.LCOLDE9:
	.section	.text.mbedtls_md_free
.LHOTE9:
	.section	.text.unlikely.mbedtls_md_clone,"ax",@progbits
.LCOLDB10:
	.section	.text.mbedtls_md_clone,"ax",@progbits
.LHOTB10:
	.globl	mbedtls_md_clone
	.type	mbedtls_md_clone, @function
mbedtls_md_clone:
.LFB6:
	.loc 1 205 0
	.cfi_startproc
.LVL19:
	pushl	%ebp
	.cfi_def_cfa_offset 8
	.cfi_offset 5, -8
	movl	%esp, %ebp
	.cfi_def_cfa_register 5
	pushl	%ebx
	pushl	%eax
	.cfi_offset 3, -12
	.loc 1 205 0
	movl	8(%ebp), %edx
	movl	12(%ebp), %ecx
	.loc 1 210 0
	movl	$-20736, %eax
	.loc 1 206 0
	testl	%edx, %edx
	je	.L45
	.loc 1 206 0 discriminator 1
	testl	%ecx, %ecx
	.loc 1 206 0 discriminator 1
	movl	(%edx), %eax
	.loc 1 206 0 discriminator 1
	je	.L48
	testl	%eax, %eax
	je	.L48
	.loc 1 207 0
	movl	(%ecx), %ebx
	.loc 1 207 0
	testl	%ebx, %ebx
	je	.L48
	cmpl	%ebx, %eax
	jne	.L48
	.loc 1 213 0
	pushl	%ebx
	pushl	%ebx
	pushl	4(%ecx)
	pushl	4(%edx)
	call	*40(%eax)
.LVL20:
	.loc 1 215 0
	addl	$16, %esp
	xorl	%eax, %eax
	jmp	.L45
.L48:
	.loc 1 210 0
	movl	$-20736, %eax
.L45:
	.loc 1 216 0
	movl	-4(%ebp), %ebx
	leave
	.cfi_restore 5
	.cfi_restore 3
	.cfi_def_cfa 4, 4
	ret
	.cfi_endproc
.LFE6:
	.size	mbedtls_md_clone, .-mbedtls_md_clone
	.section	.text.unlikely.mbedtls_md_clone
.LCOLDE10:
	.section	.text.mbedtls_md_clone
.LHOTE10:
	.section	.text.unlikely.mbedtls_md_setup,"ax",@progbits
.LCOLDB11:
	.section	.text.mbedtls_md_setup,"ax",@progbits
.LHOTB11:
	.globl	mbedtls_md_setup
	.type	mbedtls_md_setup, @function
mbedtls_md_setup:
.LFB8:
	.loc 1 226 0
	.cfi_startproc
.LVL21:
	pushl	%ebp
	.cfi_def_cfa_offset 8
	.cfi_offset 5, -8
	movl	%esp, %ebp
	.cfi_def_cfa_register 5
	pushl	%esi
	pushl	%ebx
	.cfi_offset 6, -12
	.cfi_offset 3, -16
	.loc 1 226 0
	movl	12(%ebp), %esi
	movl	8(%ebp), %ebx
	.loc 1 227 0
	testl	%esi, %esi
	je	.L53
	testl	%ebx, %ebx
	je	.L53
	.loc 1 230 0
	call	*32(%esi)
.LVL22:
	testl	%eax, %eax
	movl	%eax, 4(%ebx)
	.loc 1 231 0
	movl	$-20864, %edx
	.loc 1 230 0
	je	.L51
	.loc 1 233 0
	cmpl	$0, 16(%ebp)
	je	.L52
	.loc 1 235 0
	pushl	%eax
	pushl	%eax
	pushl	12(%esi)
	pushl	$2
	call	mbedtls_calloc
.LVL23:
	.loc 1 236 0
	addl	$16, %esp
	testl	%eax, %eax
	.loc 1 235 0
	movl	%eax, 8(%ebx)
	.loc 1 236 0
	jne	.L52
.LVL24:
.LBB20:
.LBB21:
	.loc 1 238 0
	subl	$12, %esp
	pushl	4(%ebx)
	call	*36(%esi)
.LVL25:
	addl	$16, %esp
	movl	$-20864, %edx
	jmp	.L51
.L52:
.LBE21:
.LBE20:
	.loc 1 243 0
	movl	%esi, (%ebx)
	.loc 1 245 0
	xorl	%edx, %edx
	jmp	.L51
.LVL26:
.L53:
	.loc 1 228 0
	movl	$-20736, %edx
.LVL27:
.L51:
	.loc 1 246 0
	leal	-8(%ebp), %esp
	movl	%edx, %eax
	popl	%ebx
	.cfi_restore 3
	popl	%esi
	.cfi_restore 6
	popl	%ebp
	.cfi_restore 5
	.cfi_def_cfa 4, 4
	ret
	.cfi_endproc
.LFE8:
	.size	mbedtls_md_setup, .-mbedtls_md_setup
	.section	.text.unlikely.mbedtls_md_setup
.LCOLDE11:
	.section	.text.mbedtls_md_setup
.LHOTE11:
	.section	.text.unlikely.mbedtls_md_init_ctx,"ax",@progbits
.LCOLDB12:
	.section	.text.mbedtls_md_init_ctx,"ax",@progbits
.LHOTB12:
	.globl	mbedtls_md_init_ctx
	.type	mbedtls_md_init_ctx, @function
mbedtls_md_init_ctx:
.LFB7:
	.loc 1 220 0
	.cfi_startproc
.LVL28:
	pushl	%ebp
	.cfi_def_cfa_offset 8
	.cfi_offset 5, -8
	movl	%esp, %ebp
	.cfi_def_cfa_register 5
	subl	$12, %esp
	.loc 1 221 0
	pushl	$1
	pushl	12(%ebp)
	pushl	8(%ebp)
	call	mbedtls_md_setup
.LVL29:
	.loc 1 222 0
	leave
	.cfi_restore 5
	.cfi_def_cfa 4, 4
	ret
	.cfi_endproc
.LFE7:
	.size	mbedtls_md_init_ctx, .-mbedtls_md_init_ctx
	.section	.text.unlikely.mbedtls_md_init_ctx
.LCOLDE12:
	.section	.text.mbedtls_md_init_ctx
.LHOTE12:
	.section	.text.unlikely.mbedtls_md_starts,"ax",@progbits
.LCOLDB13:
	.section	.text.mbedtls_md_starts,"ax",@progbits
.LHOTB13:
	.globl	mbedtls_md_starts
	.type	mbedtls_md_starts, @function
mbedtls_md_starts:
.LFB9:
	.loc 1 249 0
	.cfi_startproc
.LVL30:
	pushl	%ebp
	.cfi_def_cfa_offset 8
	.cfi_offset 5, -8
	.loc 1 251 0
	movl	$-20736, %eax
	.loc 1 249 0
	movl	%esp, %ebp
	.cfi_def_cfa_register 5
	subl	$8, %esp
	.loc 1 249 0
	movl	8(%ebp), %edx
	.loc 1 250 0
	testl	%edx, %edx
	je	.L62
	.loc 1 250 0 discriminator 1
	movl	(%edx), %ecx
	testl	%ecx, %ecx
	je	.L62
	.loc 1 253 0
	subl	$12, %esp
	pushl	4(%edx)
	call	*16(%ecx)
.LVL31:
	.loc 1 255 0
	addl	$16, %esp
	xorl	%eax, %eax
.L62:
	.loc 1 256 0
	leave
	.cfi_restore 5
	.cfi_def_cfa 4, 4
	ret
	.cfi_endproc
.LFE9:
	.size	mbedtls_md_starts, .-mbedtls_md_starts
	.section	.text.unlikely.mbedtls_md_starts
.LCOLDE13:
	.section	.text.mbedtls_md_starts
.LHOTE13:
	.section	.text.unlikely.mbedtls_md_update,"ax",@progbits
.LCOLDB14:
	.section	.text.mbedtls_md_update,"ax",@progbits
.LHOTB14:
	.globl	mbedtls_md_update
	.type	mbedtls_md_update, @function
mbedtls_md_update:
.LFB10:
	.loc 1 259 0
	.cfi_startproc
.LVL32:
	pushl	%ebp
	.cfi_def_cfa_offset 8
	.cfi_offset 5, -8
	.loc 1 261 0
	movl	$-20736, %eax
	.loc 1 259 0
	movl	%esp, %ebp
	.cfi_def_cfa_register 5
	subl	$8, %esp
	.loc 1 259 0
	movl	8(%ebp), %edx
	.loc 1 260 0
	testl	%edx, %edx
	je	.L67
	.loc 1 260 0 discriminator 1
	movl	(%edx), %ecx
	testl	%ecx, %ecx
	je	.L67
	.loc 1 263 0
	pushl	%eax
	pushl	16(%ebp)
	pushl	12(%ebp)
	pushl	4(%edx)
	call	*20(%ecx)
.LVL33:
	.loc 1 265 0
	addl	$16, %esp
	xorl	%eax, %eax
.L67:
	.loc 1 266 0
	leave
	.cfi_restore 5
	.cfi_def_cfa 4, 4
	ret
	.cfi_endproc
.LFE10:
	.size	mbedtls_md_update, .-mbedtls_md_update
	.section	.text.unlikely.mbedtls_md_update
.LCOLDE14:
	.section	.text.mbedtls_md_update
.LHOTE14:
	.section	.text.unlikely.mbedtls_md_finish,"ax",@progbits
.LCOLDB15:
	.section	.text.mbedtls_md_finish,"ax",@progbits
.LHOTB15:
	.globl	mbedtls_md_finish
	.type	mbedtls_md_finish, @function
mbedtls_md_finish:
.LFB11:
	.loc 1 269 0
	.cfi_startproc
.LVL34:
	pushl	%ebp
	.cfi_def_cfa_offset 8
	.cfi_offset 5, -8
	.loc 1 271 0
	movl	$-20736, %eax
	.loc 1 269 0
	movl	%esp, %ebp
	.cfi_def_cfa_register 5
	subl	$8, %esp
	.loc 1 269 0
	movl	8(%ebp), %edx
	.loc 1 270 0
	testl	%edx, %edx
	je	.L72
	.loc 1 270 0 discriminator 1
	movl	(%edx), %ecx
	testl	%ecx, %ecx
	je	.L72
	.loc 1 273 0
	pushl	%eax
	pushl	%eax
	pushl	12(%ebp)
	pushl	4(%edx)
	call	*24(%ecx)
.LVL35:
	.loc 1 275 0
	addl	$16, %esp
	xorl	%eax, %eax
.L72:
	.loc 1 276 0
	leave
	.cfi_restore 5
	.cfi_def_cfa 4, 4
	ret
	.cfi_endproc
.LFE11:
	.size	mbedtls_md_finish, .-mbedtls_md_finish
	.section	.text.unlikely.mbedtls_md_finish
.LCOLDE15:
	.section	.text.mbedtls_md_finish
.LHOTE15:
	.section	.text.unlikely.mbedtls_md,"ax",@progbits
.LCOLDB16:
	.section	.text.mbedtls_md,"ax",@progbits
.LHOTB16:
	.globl	mbedtls_md
	.type	mbedtls_md, @function
mbedtls_md:
.LFB12:
	.loc 1 280 0
	.cfi_startproc
.LVL36:
	pushl	%ebp
	.cfi_def_cfa_offset 8
	.cfi_offset 5, -8
	movl	$-20736, %eax
	movl	%esp, %ebp
	.cfi_def_cfa_register 5
	subl	$8, %esp
	.loc 1 280 0
	movl	8(%ebp), %edx
	.loc 1 281 0
	testl	%edx, %edx
	je	.L77
	.loc 1 284 0
	pushl	%eax
	pushl	20(%ebp)
	pushl	16(%ebp)
	pushl	12(%ebp)
	call	*28(%edx)
.LVL37:
	.loc 1 286 0
	addl	$16, %esp
	xorl	%eax, %eax
.L77:
	.loc 1 287 0
	leave
	.cfi_restore 5
	.cfi_def_cfa 4, 4
	ret
	.cfi_endproc
.LFE12:
	.size	mbedtls_md, .-mbedtls_md
	.section	.text.unlikely.mbedtls_md
.LCOLDE16:
	.section	.text.mbedtls_md
.LHOTE16:
	.section	.text.unlikely.mbedtls_md_hmac_starts,"ax",@progbits
.LCOLDB17:
	.section	.text.mbedtls_md_hmac_starts,"ax",@progbits
.LHOTB17:
	.globl	mbedtls_md_hmac_starts
	.type	mbedtls_md_hmac_starts, @function
mbedtls_md_hmac_starts:
.LFB13:
	.loc 1 331 0
	.cfi_startproc
.LVL38:
	pushl	%ebp
	.cfi_def_cfa_offset 8
	.cfi_offset 5, -8
	movl	%esp, %ebp
	.cfi_def_cfa_register 5
	pushl	%edi
	pushl	%esi
	pushl	%ebx
	subl	$76, %esp
	.cfi_offset 7, -12
	.cfi_offset 6, -16
	.cfi_offset 3, -20
	.loc 1 331 0
	movl	8(%ebp), %ebx
	movl	12(%ebp), %esi
	movl	%gs:20, %eax
	movl	%eax, -28(%ebp)
	xorl	%eax, %eax
	.loc 1 337 0
	movl	$-20736, %eax
	.loc 1 336 0
	testl	%ebx, %ebx
	je	.L82
	.loc 1 336 0 discriminator 1
	movl	(%ebx), %edx
	testl	%edx, %edx
	je	.L82
	.loc 1 336 0 discriminator 2
	cmpl	$0, 8(%ebx)
	je	.L82
	.loc 1 339 0
	movl	16(%ebp), %eax
	cmpl	%eax, 12(%edx)
	jnb	.L83
	.loc 1 341 0
	subl	$12, %esp
	pushl	4(%ebx)
	call	*16(%edx)
.LVL39:
	.loc 1 342 0
	movl	(%ebx), %eax
	addl	$12, %esp
	pushl	16(%ebp)
	pushl	%esi
	pushl	4(%ebx)
	.loc 1 343 0
	leal	-60(%ebp), %esi
	.loc 1 342 0
	call	*20(%eax)
.LVL40:
	.loc 1 343 0
	popl	%eax
	movl	(%ebx), %eax
	popl	%edx
	pushl	%esi
	pushl	4(%ebx)
	call	*24(%eax)
.LVL41:
	.loc 1 345 0
	movl	(%ebx), %eax
	addl	$16, %esp
	movl	8(%eax), %eax
	movl	%eax, 16(%ebp)
.LVL42:
.L83:
	.loc 1 350 0
	movl	(%ebx), %eax
	.loc 1 349 0
	movl	8(%ebx), %edx
.LVL43:
	.loc 1 350 0
	movl	12(%eax), %ecx
	.loc 1 352 0
	movl	%edx, %edi
	.loc 1 350 0
	leal	(%edx,%ecx), %eax
	movl	%eax, -76(%ebp)
.LVL44:
	.loc 1 352 0
	movb	$54, %al
.LVL45:
	rep stosb
	.loc 1 353 0
	movl	(%ebx), %eax
	movl	12(%eax), %ecx
	movb	$92, %al
	rep stosb
.LVL46:
	movl	16(%ebp), %edi
	movl	%edx, %eax
	addl	%edx, %edi
	movl	%edi, -80(%ebp)
.LVL47:
.L84:
	.loc 1 355 0 discriminator 1
	cmpl	-80(%ebp), %eax
	je	.L93
	.loc 1 358 0 discriminator 3
	movl	-76(%ebp), %edi
	.loc 1 357 0 discriminator 3
	movb	(%esi), %cl
	incl	%esi
	xorb	%cl, (%eax)
	incl	-76(%ebp)
	incl	%eax
.LVL48:
	.loc 1 358 0 discriminator 3
	movb	-1(%esi), %cl
	xorb	%cl, (%edi)
.LVL49:
	jmp	.L84
.LVL50:
.L93:
	leal	-60(%ebp), %eax
.LVL51:
.LBB24:
.LBB25:
	.loc 1 53 0
	leal	-28(%ebp), %ecx
.L86:
.LVL52:
	movb	$0, (%eax)
.LVL53:
	incl	%eax
.LVL54:
	cmpl	%ecx, %eax
	jne	.L86
.LBE25:
.LBE24:
	.loc 1 363 0
	movl	(%ebx), %eax
.LVL55:
	subl	$12, %esp
	movl	%edx, -76(%ebp)
	pushl	4(%ebx)
	call	*16(%eax)
.LVL56:
	.loc 1 364 0
	movl	(%ebx), %eax
	movl	-76(%ebp), %edx
	addl	$12, %esp
	pushl	12(%eax)
	pushl	%edx
	pushl	4(%ebx)
	call	*20(%eax)
.LVL57:
	.loc 1 366 0
	addl	$16, %esp
	xorl	%eax, %eax
.LVL58:
.L82:
	.loc 1 367 0
	movl	-28(%ebp), %edi
	xorl	%gs:20, %edi
	je	.L87
	call	__stack_chk_fail
.LVL59:
.L87:
	leal	-12(%ebp), %esp
	popl	%ebx
	.cfi_restore 3
	popl	%esi
	.cfi_restore 6
	popl	%edi
	.cfi_restore 7
	popl	%ebp
	.cfi_restore 5
	.cfi_def_cfa 4, 4
	ret
	.cfi_endproc
.LFE13:
	.size	mbedtls_md_hmac_starts, .-mbedtls_md_hmac_starts
	.section	.text.unlikely.mbedtls_md_hmac_starts
.LCOLDE17:
	.section	.text.mbedtls_md_hmac_starts
.LHOTE17:
	.section	.text.unlikely.mbedtls_md_hmac_update,"ax",@progbits
.LCOLDB18:
	.section	.text.mbedtls_md_hmac_update,"ax",@progbits
.LHOTB18:
	.globl	mbedtls_md_hmac_update
	.type	mbedtls_md_hmac_update, @function
mbedtls_md_hmac_update:
.LFB14:
	.loc 1 370 0
	.cfi_startproc
.LVL60:
	pushl	%ebp
	.cfi_def_cfa_offset 8
	.cfi_offset 5, -8
	.loc 1 372 0
	movl	$-20736, %eax
	.loc 1 370 0
	movl	%esp, %ebp
	.cfi_def_cfa_register 5
	subl	$8, %esp
	.loc 1 370 0
	movl	8(%ebp), %edx
	.loc 1 371 0
	testl	%edx, %edx
	je	.L95
	.loc 1 371 0 discriminator 1
	movl	(%edx), %ecx
	testl	%ecx, %ecx
	je	.L95
	.loc 1 371 0 discriminator 2
	cmpl	$0, 8(%edx)
	je	.L95
	.loc 1 374 0
	pushl	%eax
	pushl	16(%ebp)
	pushl	12(%ebp)
	pushl	4(%edx)
	call	*20(%ecx)
.LVL61:
	.loc 1 376 0
	addl	$16, %esp
	xorl	%eax, %eax
.L95:
	.loc 1 377 0
	leave
	.cfi_restore 5
	.cfi_def_cfa 4, 4
	ret
	.cfi_endproc
.LFE14:
	.size	mbedtls_md_hmac_update, .-mbedtls_md_hmac_update
	.section	.text.unlikely.mbedtls_md_hmac_update
.LCOLDE18:
	.section	.text.mbedtls_md_hmac_update
.LHOTE18:
	.section	.text.unlikely.mbedtls_md_hmac_finish,"ax",@progbits
.LCOLDB19:
	.section	.text.mbedtls_md_hmac_finish,"ax",@progbits
.LHOTB19:
	.globl	mbedtls_md_hmac_finish
	.type	mbedtls_md_hmac_finish, @function
mbedtls_md_hmac_finish:
.LFB15:
	.loc 1 380 0
	.cfi_startproc
.LVL62:
	pushl	%ebp
	.cfi_def_cfa_offset 8
	.cfi_offset 5, -8
	movl	%esp, %ebp
	.cfi_def_cfa_register 5
	pushl	%edi
	pushl	%esi
	pushl	%ebx
	subl	$76, %esp
	.cfi_offset 7, -12
	.cfi_offset 6, -16
	.cfi_offset 3, -20
	.loc 1 380 0
	movl	8(%ebp), %ebx
	movl	12(%ebp), %esi
	movl	%gs:20, %eax
	movl	%eax, -28(%ebp)
	xorl	%eax, %eax
	.loc 1 385 0
	movl	$-20736, %eax
	.loc 1 384 0
	testl	%ebx, %ebx
	je	.L101
	.loc 1 384 0 discriminator 1
	movl	(%ebx), %ecx
	testl	%ecx, %ecx
	je	.L101
	.loc 1 384 0 discriminator 2
	movl	8(%ebx), %edx
	testl	%edx, %edx
	je	.L101
	.loc 1 387 0
	addl	12(%ecx), %edx
	.loc 1 389 0
	leal	-60(%ebp), %edi
	pushl	%eax
	pushl	%eax
	pushl	%edi
	pushl	4(%ebx)
	.loc 1 387 0
	movl	%edx, -76(%ebp)
.LVL63:
	.loc 1 389 0
	call	*24(%ecx)
.LVL64:
	.loc 1 390 0
	movl	(%ebx), %eax
	popl	%edx
	pushl	4(%ebx)
	call	*16(%eax)
.LVL65:
	.loc 1 391 0
	movl	(%ebx), %eax
	movl	-76(%ebp), %edx
	addl	$12, %esp
	pushl	12(%eax)
	pushl	%edx
	pushl	4(%ebx)
	call	*20(%eax)
.LVL66:
	.loc 1 392 0
	movl	(%ebx), %eax
	addl	$12, %esp
	pushl	8(%eax)
	pushl	%edi
	pushl	4(%ebx)
	call	*20(%eax)
.LVL67:
	.loc 1 393 0
	popl	%ecx
	popl	%edi
	movl	(%ebx), %eax
	pushl	%esi
	pushl	4(%ebx)
	call	*24(%eax)
.LVL68:
	.loc 1 395 0
	addl	$16, %esp
	xorl	%eax, %eax
.LVL69:
.L101:
	.loc 1 396 0
	movl	-28(%ebp), %esi
	xorl	%gs:20, %esi
	je	.L102
	call	__stack_chk_fail
.LVL70:
.L102:
	leal	-12(%ebp), %esp
	popl	%ebx
	.cfi_restore 3
	popl	%esi
	.cfi_restore 6
	popl	%edi
	.cfi_restore 7
	popl	%ebp
	.cfi_restore 5
	.cfi_def_cfa 4, 4
	ret
	.cfi_endproc
.LFE15:
	.size	mbedtls_md_hmac_finish, .-mbedtls_md_hmac_finish
	.section	.text.unlikely.mbedtls_md_hmac_finish
.LCOLDE19:
	.section	.text.mbedtls_md_hmac_finish
.LHOTE19:
	.section	.text.unlikely.mbedtls_md_hmac_reset,"ax",@progbits
.LCOLDB20:
	.section	.text.mbedtls_md_hmac_reset,"ax",@progbits
.LHOTB20:
	.globl	mbedtls_md_hmac_reset
	.type	mbedtls_md_hmac_reset, @function
mbedtls_md_hmac_reset:
.LFB16:
	.loc 1 399 0
	.cfi_startproc
.LVL71:
	pushl	%ebp
	.cfi_def_cfa_offset 8
	.cfi_offset 5, -8
	.loc 1 403 0
	movl	$-20736, %eax
	.loc 1 399 0
	movl	%esp, %ebp
	.cfi_def_cfa_register 5
	pushl	%esi
	pushl	%ebx
	.cfi_offset 6, -12
	.cfi_offset 3, -16
	.loc 1 399 0
	movl	8(%ebp), %ebx
	.loc 1 402 0
	testl	%ebx, %ebx
	je	.L108
	.loc 1 402 0 discriminator 1
	movl	(%ebx), %edx
	testl	%edx, %edx
	je	.L108
	.loc 1 402 0 discriminator 2
	movl	8(%ebx), %esi
	testl	%esi, %esi
	je	.L108
.LVL72:
	.loc 1 407 0
	subl	$12, %esp
	pushl	4(%ebx)
	call	*16(%edx)
.LVL73:
	.loc 1 408 0
	movl	(%ebx), %eax
	addl	$12, %esp
	pushl	12(%eax)
	pushl	%esi
	pushl	4(%ebx)
	call	*20(%eax)
.LVL74:
	.loc 1 410 0
	addl	$16, %esp
	xorl	%eax, %eax
.LVL75:
.L108:
	.loc 1 411 0
	leal	-8(%ebp), %esp
	popl	%ebx
	.cfi_restore 3
	popl	%esi
	.cfi_restore 6
	popl	%ebp
	.cfi_restore 5
	.cfi_def_cfa 4, 4
	ret
	.cfi_endproc
.LFE16:
	.size	mbedtls_md_hmac_reset, .-mbedtls_md_hmac_reset
	.section	.text.unlikely.mbedtls_md_hmac_reset
.LCOLDE20:
	.section	.text.mbedtls_md_hmac_reset
.LHOTE20:
	.section	.text.unlikely.mbedtls_md_hmac,"ax",@progbits
.LCOLDB21:
	.section	.text.mbedtls_md_hmac,"ax",@progbits
.LHOTB21:
	.globl	mbedtls_md_hmac
	.type	mbedtls_md_hmac, @function
mbedtls_md_hmac:
.LFB17:
	.loc 1 416 0
	.cfi_startproc
.LVL76:
	pushl	%ebp
	.cfi_def_cfa_offset 8
	.cfi_offset 5, -8
	movl	%esp, %ebp
	.cfi_def_cfa_register 5
	pushl	%edi
	pushl	%esi
	pushl	%ebx
	subl	$44, %esp
	.cfi_offset 7, -12
	.cfi_offset 6, -16
	.cfi_offset 3, -20
	.loc 1 416 0
	movl	8(%ebp), %edx
	movl	12(%ebp), %ecx
	movl	%gs:20, %eax
	movl	%eax, -28(%ebp)
	xorl	%eax, %eax
	movl	20(%ebp), %edi
	movl	28(%ebp), %esi
	.loc 1 420 0
	testl	%edx, %edx
	.loc 1 416 0
	movl	%ecx, -48(%ebp)
	.loc 1 421 0
	movl	$-20736, -44(%ebp)
	.loc 1 420 0
	je	.L114
	.loc 1 423 0
	leal	-40(%ebp), %ebx
	pushl	%ebx
	call	mbedtls_md_init
.LVL77:
	.loc 1 425 0
	pushl	$1
	pushl	%edx
	pushl	%ebx
	call	mbedtls_md_setup
.LVL78:
	addl	$16, %esp
	testl	%eax, %eax
	movl	%eax, -44(%ebp)
	movl	-48(%ebp), %ecx
	jne	.L114
.LVL79:
	.loc 1 428 0
	pushl	%eax
	pushl	16(%ebp)
	pushl	%ecx
	pushl	%ebx
	call	mbedtls_md_hmac_starts
.LVL80:
	.loc 1 429 0
	addl	$12, %esp
	pushl	24(%ebp)
	pushl	%edi
	pushl	%ebx
	call	mbedtls_md_hmac_update
.LVL81:
	.loc 1 430 0
	popl	%edx
	popl	%ecx
	pushl	%esi
	pushl	%ebx
	call	mbedtls_md_hmac_finish
.LVL82:
	.loc 1 432 0
	movl	%ebx, (%esp)
	call	mbedtls_md_free
.LVL83:
	.loc 1 434 0
	addl	$16, %esp
.LVL84:
.L114:
	.loc 1 435 0
	movl	-28(%ebp), %esi
	xorl	%gs:20, %esi
	movl	-44(%ebp), %eax
	je	.L115
	call	__stack_chk_fail
.LVL85:
.L115:
	leal	-12(%ebp), %esp
	popl	%ebx
	.cfi_restore 3
	popl	%esi
	.cfi_restore 6
	popl	%edi
	.cfi_restore 7
	popl	%ebp
	.cfi_restore 5
	.cfi_def_cfa 4, 4
	ret
	.cfi_endproc
.LFE17:
	.size	mbedtls_md_hmac, .-mbedtls_md_hmac
	.section	.text.unlikely.mbedtls_md_hmac
.LCOLDE21:
	.section	.text.mbedtls_md_hmac
.LHOTE21:
	.section	.text.unlikely.mbedtls_md_process,"ax",@progbits
.LCOLDB22:
	.section	.text.mbedtls_md_process,"ax",@progbits
.LHOTB22:
	.globl	mbedtls_md_process
	.type	mbedtls_md_process, @function
mbedtls_md_process:
.LFB18:
	.loc 1 438 0
	.cfi_startproc
.LVL86:
	pushl	%ebp
	.cfi_def_cfa_offset 8
	.cfi_offset 5, -8
	.loc 1 440 0
	movl	$-20736, %eax
	.loc 1 438 0
	movl	%esp, %ebp
	.cfi_def_cfa_register 5
	subl	$8, %esp
	.loc 1 438 0
	movl	8(%ebp), %edx
	.loc 1 439 0
	testl	%edx, %edx
	je	.L120
	.loc 1 439 0 discriminator 1
	movl	(%edx), %ecx
	testl	%ecx, %ecx
	je	.L120
	.loc 1 442 0
	pushl	%eax
	pushl	%eax
	pushl	12(%ebp)
	pushl	4(%edx)
	call	*44(%ecx)
.LVL87:
	.loc 1 444 0
	addl	$16, %esp
	xorl	%eax, %eax
.L120:
	.loc 1 445 0
	leave
	.cfi_restore 5
	.cfi_def_cfa 4, 4
	ret
	.cfi_endproc
.LFE18:
	.size	mbedtls_md_process, .-mbedtls_md_process
	.section	.text.unlikely.mbedtls_md_process
.LCOLDE22:
	.section	.text.mbedtls_md_process
.LHOTE22:
	.section	.text.unlikely.mbedtls_md_get_size,"ax",@progbits
.LCOLDB23:
	.section	.text.mbedtls_md_get_size,"ax",@progbits
.LHOTB23:
	.globl	mbedtls_md_get_size
	.type	mbedtls_md_get_size, @function
mbedtls_md_get_size:
.LFB19:
	.loc 1 448 0
	.cfi_startproc
.LVL88:
	pushl	%ebp
	.cfi_def_cfa_offset 8
	.cfi_offset 5, -8
	xorl	%eax, %eax
	movl	%esp, %ebp
	.cfi_def_cfa_register 5
	.loc 1 448 0
	movl	8(%ebp), %edx
	.loc 1 449 0
	testl	%edx, %edx
	je	.L125
	.loc 1 452 0
	movb	8(%edx), %al
.L125:
	.loc 1 453 0
	popl	%ebp
	.cfi_restore 5
	.cfi_def_cfa 4, 4
	ret
	.cfi_endproc
.LFE19:
	.size	mbedtls_md_get_size, .-mbedtls_md_get_size
	.section	.text.unlikely.mbedtls_md_get_size
.LCOLDE23:
	.section	.text.mbedtls_md_get_size
.LHOTE23:
	.section	.text.unlikely.mbedtls_md_get_type,"ax",@progbits
.LCOLDB24:
	.section	.text.mbedtls_md_get_type,"ax",@progbits
.LHOTB24:
	.globl	mbedtls_md_get_type
	.type	mbedtls_md_get_type, @function
mbedtls_md_get_type:
.LFB20:
	.loc 1 456 0
	.cfi_startproc
.LVL89:
	pushl	%ebp
	.cfi_def_cfa_offset 8
	.cfi_offset 5, -8
	xorl	%eax, %eax
	movl	%esp, %ebp
	.cfi_def_cfa_register 5
	.loc 1 456 0
	movl	8(%ebp), %edx
	.loc 1 457 0
	testl	%edx, %edx
	je	.L130
	.loc 1 460 0
	movl	(%edx), %eax
.L130:
	.loc 1 461 0
	popl	%ebp
	.cfi_restore 5
	.cfi_def_cfa 4, 4
	ret
	.cfi_endproc
.LFE20:
	.size	mbedtls_md_get_type, .-mbedtls_md_get_type
	.section	.text.unlikely.mbedtls_md_get_type
.LCOLDE24:
	.section	.text.mbedtls_md_get_type
.LHOTE24:
	.section	.text.unlikely.mbedtls_md_get_name,"ax",@progbits
.LCOLDB25:
	.section	.text.mbedtls_md_get_name,"ax",@progbits
.LHOTB25:
	.globl	mbedtls_md_get_name
	.type	mbedtls_md_get_name, @function
mbedtls_md_get_name:
.LFB21:
	.loc 1 464 0
	.cfi_startproc
.LVL90:
	pushl	%ebp
	.cfi_def_cfa_offset 8
	.cfi_offset 5, -8
	xorl	%eax, %eax
	movl	%esp, %ebp
	.cfi_def_cfa_register 5
	.loc 1 464 0
	movl	8(%ebp), %edx
	.loc 1 465 0
	testl	%edx, %edx
	je	.L135
	.loc 1 468 0
	movl	4(%edx), %eax
.L135:
	.loc 1 469 0
	popl	%ebp
	.cfi_restore 5
	.cfi_def_cfa 4, 4
	ret
	.cfi_endproc
.LFE21:
	.size	mbedtls_md_get_name, .-mbedtls_md_get_name
	.section	.text.unlikely.mbedtls_md_get_name
.LCOLDE25:
	.section	.text.mbedtls_md_get_name
.LHOTE25:
	.section	.rodata.CSWTCH.5,"a",@progbits
	.align 4
	.type	CSWTCH.5, @object
	.size	CSWTCH.5, 16
CSWTCH.5:
	.long	mbedtls_md5_info
	.long	mbedtls_sha1_info
	.long	mbedtls_sha224_info
	.long	mbedtls_sha256_info
	.section	.rodata.supported_digests,"a",@progbits
	.align 4
	.type	supported_digests, @object
	.size	supported_digests, 20
supported_digests:
	.long	6
	.long	5
	.long	4
	.long	3
	.long	0
	.text
.Letext0:
	.section	.text.unlikely.mbedtls_md_list
.Letext_cold0:
	.file 2 "/home/stone/Documents/Ali_IOT/build/compiler/gcc-arm-none-eabi/Linux64/lib/gcc/arm-none-eabi/5.4.1/include/stddef.h"
	.file 3 "./security/mbedtls/include/mbedtls/md.h"
	.file 4 "./security/mbedtls/include/mbedtls/md_internal.h"
	.file 5 "/home/stone/Documents/Ali_IOT/build/compiler/gcc-arm-none-eabi/Linux64/arm-none-eabi/include/string.h"
	.file 6 "./security/mbedtls/include/mbedtls/platform_alt.h"
	.section	.note.GNU-stack,"",@progbits
