	.file	"md5.c"
	.text
.Ltext0:
	.section	.text.unlikely.Encode,"ax",@progbits
.LCOLDB0:
	.section	.text.Encode,"ax",@progbits
.LHOTB0:
	.section	.text.unlikely.Encode
.Ltext_cold0:
	.section	.text.Encode
	.type	Encode, @function
Encode:
.LFB4:
	.file 1 "utility/digest_algorithm/md5.c"
	.loc 1 278 0
	.cfi_startproc
.LVL0:
	pushl	%ebp
	.cfi_def_cfa_offset 8
	.cfi_offset 5, -8
	movl	%esp, %ebp
	.cfi_def_cfa_register 5
	pushl	%edi
	.cfi_offset 7, -12
	movl	%ecx, %edi
	pushl	%esi
	pushl	%ebx
	.cfi_offset 6, -16
	.cfi_offset 3, -20
	.loc 1 281 0
	xorl	%ebx, %ebx
.LVL1:
.L2:
	.loc 1 281 0 is_stmt 0 discriminator 1
	cmpl	%edi, %ebx
	jnb	.L6
	.loc 1 282 0 is_stmt 1 discriminator 3
	movb	(%edx,%ebx), %cl
	movb	%cl, (%eax,%ebx)
	.loc 1 283 0 discriminator 3
	movl	(%edx,%ebx), %esi
	shrl	$8, %esi
	movl	%esi, %ecx
	movb	%cl, 1(%eax,%ebx)
	.loc 1 284 0 discriminator 3
	movl	(%edx,%ebx), %esi
	shrl	$16, %esi
	movl	%esi, %ecx
	movb	%cl, 2(%eax,%ebx)
	.loc 1 285 0 discriminator 3
	movl	(%edx,%ebx), %esi
	shrl	$24, %esi
	movl	%esi, %ecx
	movb	%cl, 3(%eax,%ebx)
	.loc 1 281 0 discriminator 3
	addl	$4, %ebx
.LVL2:
	jmp	.L2
.L6:
	.loc 1 287 0
	popl	%ebx
	.cfi_restore 3
.LVL3:
	popl	%esi
	.cfi_restore 6
	popl	%edi
	.cfi_restore 7
.LVL4:
	popl	%ebp
	.cfi_restore 5
	.cfi_def_cfa 4, 4
	ret
	.cfi_endproc
.LFE4:
	.size	Encode, .-Encode
	.section	.text.unlikely.Encode
.LCOLDE0:
	.section	.text.Encode
.LHOTE0:
	.section	.text.unlikely.MD5Transform,"ax",@progbits
.LCOLDB1:
	.section	.text.MD5Transform,"ax",@progbits
.LHOTB1:
	.type	MD5Transform, @function
MD5Transform:
.LFB3:
	.loc 1 190 0
	.cfi_startproc
.LVL5:
	pushl	%ebp
	.cfi_def_cfa_offset 8
	.cfi_offset 5, -8
	movl	%esp, %ebp
	.cfi_def_cfa_register 5
	pushl	%edi
	pushl	%esi
	pushl	%ebx
	.cfi_offset 7, -12
	.cfi_offset 6, -16
	.cfi_offset 3, -20
	movl	%eax, %edi
	subl	$124, %esp
	.loc 1 190 0
	movl	%gs:20, %eax
	movl	%eax, -28(%ebp)
	xorl	%eax, %eax
.LVL6:
	.loc 1 191 0
	movl	(%edi), %eax
	movl	%eax, -124(%ebp)
.LVL7:
	movl	4(%edi), %eax
.LVL8:
	movl	%eax, -108(%ebp)
.LVL9:
	movl	8(%edi), %eax
.LVL10:
	movl	%eax, -112(%ebp)
.LVL11:
	movl	12(%edi), %eax
.LVL12:
	movl	%eax, -116(%ebp)
.LVL13:
.LBB4:
.LBB5:
	.loc 1 297 0
	xorl	%eax, %eax
.LVL14:
.L8:
	.loc 1 298 0
	movzbl	1(%edx,%eax), %ebx
	movzbl	2(%edx,%eax), %ecx
	sall	$8, %ebx
	sall	$16, %ecx
	orl	%ecx, %ebx
	movzbl	(%edx,%eax), %ecx
	orl	%ecx, %ebx
	movzbl	3(%edx,%eax), %ecx
	sall	$24, %ecx
	orl	%ebx, %ecx
	movl	%ecx, -92(%ebp,%eax)
	.loc 1 297 0
	addl	$4, %eax
.LVL15:
	cmpl	$64, %eax
	jne	.L8
.LVL16:
	movl	-124(%ebp), %eax
	movl	-92(%ebp), %esi
.LBE5:
.LBE4:
	.loc 1 197 0
	movl	-108(%ebp), %ecx
	xorl	-112(%ebp), %ecx
	.loc 1 198 0
	movl	-108(%ebp), %ebx
	leal	-680876936(%eax,%esi), %edx
.LVL17:
	.loc 1 196 0
	movl	-112(%ebp), %eax
	xorl	-116(%ebp), %eax
	andl	-108(%ebp), %eax
	movl	-116(%ebp), %esi
	xorl	-116(%ebp), %eax
	addl	%edx, %eax
.LVL18:
	movl	-88(%ebp), %edx
	roll	$7, %eax
.LVL19:
	addl	-108(%ebp), %eax
.LVL20:
	leal	-389564586(%esi,%edx), %edx
	movl	-112(%ebp), %esi
	.loc 1 197 0
	andl	%eax, %ecx
	xorl	-112(%ebp), %ecx
	.loc 1 198 0
	xorl	%eax, %ebx
	.loc 1 197 0
	addl	%edx, %ecx
.LVL21:
	movl	-84(%ebp), %edx
	roll	$12, %ecx
.LVL22:
	addl	%eax, %ecx
.LVL23:
	.loc 1 198 0
	andl	%ecx, %ebx
	xorl	-108(%ebp), %ebx
	leal	606105819(%esi,%edx), %edx
	movl	-108(%ebp), %esi
	addl	%edx, %ebx
.LVL24:
	movl	-80(%ebp), %edx
	rorl	$15, %ebx
.LVL25:
	addl	%ecx, %ebx
.LVL26:
	leal	-1044525330(%esi,%edx), %esi
	.loc 1 199 0
	movl	%eax, %edx
	xorl	%ecx, %edx
	andl	%ebx, %edx
	xorl	%eax, %edx
	addl	%esi, %edx
.LVL27:
	movl	-76(%ebp), %esi
	rorl	$10, %edx
.LVL28:
	addl	%ebx, %edx
.LVL29:
	leal	-176418897(%eax,%esi), %esi
	.loc 1 200 0
	movl	%ecx, %eax
.LVL30:
	xorl	%ebx, %eax
	andl	%edx, %eax
	xorl	%ecx, %eax
	addl	%esi, %eax
.LVL31:
	movl	-72(%ebp), %esi
	roll	$7, %eax
.LVL32:
	addl	%edx, %eax
.LVL33:
	leal	1200080426(%ecx,%esi), %esi
	.loc 1 201 0
	movl	%ebx, %ecx
.LVL34:
	xorl	%edx, %ecx
	andl	%eax, %ecx
	xorl	%ebx, %ecx
	addl	%esi, %ecx
.LVL35:
	movl	-68(%ebp), %esi
	roll	$12, %ecx
.LVL36:
	addl	%eax, %ecx
.LVL37:
	leal	-1473231341(%ebx,%esi), %esi
	.loc 1 202 0
	movl	%edx, %ebx
.LVL38:
	xorl	%eax, %ebx
	andl	%ecx, %ebx
	xorl	%edx, %ebx
	addl	%esi, %ebx
.LVL39:
	movl	-64(%ebp), %esi
	rorl	$15, %ebx
.LVL40:
	addl	%ecx, %ebx
.LVL41:
	leal	-45705983(%edx,%esi), %esi
	.loc 1 203 0
	movl	%eax, %edx
.LVL42:
	xorl	%ecx, %edx
	andl	%ebx, %edx
	xorl	%eax, %edx
	addl	%esi, %edx
.LVL43:
	movl	-60(%ebp), %esi
	rorl	$10, %edx
.LVL44:
	addl	%ebx, %edx
.LVL45:
	leal	1770035416(%eax,%esi), %esi
	.loc 1 204 0
	movl	%ecx, %eax
.LVL46:
	xorl	%ebx, %eax
	andl	%edx, %eax
	xorl	%ecx, %eax
	addl	%esi, %eax
.LVL47:
	movl	-56(%ebp), %esi
	roll	$7, %eax
.LVL48:
	addl	%edx, %eax
.LVL49:
	leal	-1958414417(%ecx,%esi), %esi
	.loc 1 205 0
	movl	%ebx, %ecx
.LVL50:
	xorl	%edx, %ecx
	andl	%eax, %ecx
	xorl	%ebx, %ecx
	addl	%esi, %ecx
.LVL51:
	movl	-52(%ebp), %esi
	roll	$12, %ecx
.LVL52:
	addl	%eax, %ecx
.LVL53:
	leal	-42063(%ebx,%esi), %esi
	.loc 1 206 0
	movl	%edx, %ebx
.LVL54:
	xorl	%eax, %ebx
	andl	%ecx, %ebx
	xorl	%edx, %ebx
	addl	%esi, %ebx
.LVL55:
	movl	-48(%ebp), %esi
	rorl	$15, %ebx
.LVL56:
	addl	%ecx, %ebx
.LVL57:
	leal	-1990404162(%edx,%esi), %esi
	.loc 1 207 0
	movl	%eax, %edx
.LVL58:
	xorl	%ecx, %edx
	andl	%ebx, %edx
	xorl	%eax, %edx
	addl	%esi, %edx
.LVL59:
	movl	-44(%ebp), %esi
	rorl	$10, %edx
.LVL60:
	addl	%ebx, %edx
.LVL61:
	leal	1804603682(%eax,%esi), %esi
	.loc 1 208 0
	movl	%ecx, %eax
.LVL62:
	xorl	%ebx, %eax
	andl	%edx, %eax
	xorl	%ecx, %eax
	addl	%esi, %eax
.LVL63:
	movl	-40(%ebp), %esi
	roll	$7, %eax
.LVL64:
	addl	%edx, %eax
.LVL65:
	leal	-40341101(%ecx,%esi), %esi
	.loc 1 209 0
	movl	%ebx, %ecx
.LVL66:
	xorl	%edx, %ecx
	andl	%eax, %ecx
	xorl	%ebx, %ecx
	addl	%esi, %ecx
.LVL67:
	movl	-36(%ebp), %esi
	roll	$12, %ecx
.LVL68:
	addl	%eax, %ecx
.LVL69:
	leal	-1502002290(%ebx,%esi), %esi
	.loc 1 210 0
	movl	%edx, %ebx
.LVL70:
	xorl	%eax, %ebx
	andl	%ecx, %ebx
	xorl	%edx, %ebx
	addl	%esi, %ebx
.LVL71:
	movl	-32(%ebp), %esi
	rorl	$15, %ebx
.LVL72:
	addl	%ecx, %ebx
.LVL73:
	leal	1236535329(%edx,%esi), %esi
	.loc 1 211 0
	movl	%eax, %edx
.LVL74:
	xorl	%ecx, %edx
	andl	%ebx, %edx
	xorl	%eax, %edx
	addl	%esi, %edx
.LVL75:
	movl	-88(%ebp), %esi
	rorl	$10, %edx
.LVL76:
	addl	%ebx, %edx
.LVL77:
	leal	-165796510(%esi,%eax), %esi
	.loc 1 214 0
	movl	%ebx, %eax
.LVL78:
	xorl	%edx, %eax
	andl	%ecx, %eax
	xorl	%ebx, %eax
	addl	%esi, %eax
.LVL79:
	movl	-68(%ebp), %esi
	roll	$5, %eax
.LVL80:
	addl	%edx, %eax
.LVL81:
	leal	-1069501632(%esi,%ecx), %esi
	.loc 1 215 0
	movl	%edx, %ecx
.LVL82:
	xorl	%eax, %ecx
	andl	%ebx, %ecx
	xorl	%edx, %ecx
	addl	%esi, %ecx
.LVL83:
	movl	-48(%ebp), %esi
	roll	$9, %ecx
.LVL84:
	addl	%eax, %ecx
.LVL85:
	leal	643717713(%esi,%ebx), %esi
	.loc 1 216 0
	movl	%eax, %ebx
.LVL86:
	xorl	%ecx, %ebx
	andl	%edx, %ebx
	xorl	%eax, %ebx
	addl	%esi, %ebx
.LVL87:
	movl	-92(%ebp), %esi
	roll	$14, %ebx
.LVL88:
	addl	%ecx, %ebx
.LVL89:
	leal	-373897302(%esi,%edx), %esi
	.loc 1 217 0
	movl	%ecx, %edx
.LVL90:
	xorl	%ebx, %edx
	andl	%eax, %edx
	xorl	%ecx, %edx
	addl	%esi, %edx
.LVL91:
	movl	-72(%ebp), %esi
	rorl	$12, %edx
.LVL92:
	addl	%ebx, %edx
.LVL93:
	leal	-701558691(%esi,%eax), %esi
	.loc 1 218 0
	movl	%ebx, %eax
.LVL94:
	xorl	%edx, %eax
	andl	%ecx, %eax
	xorl	%ebx, %eax
	addl	%esi, %eax
.LVL95:
	movl	-52(%ebp), %esi
	roll	$5, %eax
.LVL96:
	addl	%edx, %eax
.LVL97:
	leal	38016083(%esi,%ecx), %esi
	.loc 1 219 0
	movl	%edx, %ecx
.LVL98:
	xorl	%eax, %ecx
	andl	%ebx, %ecx
	xorl	%edx, %ecx
	addl	%esi, %ecx
.LVL99:
	movl	-32(%ebp), %esi
	roll	$9, %ecx
.LVL100:
	addl	%eax, %ecx
.LVL101:
	leal	-660478335(%esi,%ebx), %esi
	.loc 1 220 0
	movl	%eax, %ebx
.LVL102:
	xorl	%ecx, %ebx
	andl	%edx, %ebx
	xorl	%eax, %ebx
	addl	%esi, %ebx
.LVL103:
	movl	-76(%ebp), %esi
	roll	$14, %ebx
.LVL104:
	addl	%ecx, %ebx
.LVL105:
	leal	-405537848(%esi,%edx), %esi
	.loc 1 221 0
	movl	%ecx, %edx
.LVL106:
	xorl	%ebx, %edx
	andl	%eax, %edx
	xorl	%ecx, %edx
	addl	%esi, %edx
.LVL107:
	movl	-56(%ebp), %esi
	rorl	$12, %edx
.LVL108:
	addl	%ebx, %edx
.LVL109:
	leal	568446438(%esi,%eax), %esi
	.loc 1 222 0
	movl	%ebx, %eax
.LVL110:
	xorl	%edx, %eax
	andl	%ecx, %eax
	xorl	%ebx, %eax
	addl	%esi, %eax
.LVL111:
	movl	-36(%ebp), %esi
	roll	$5, %eax
.LVL112:
	addl	%edx, %eax
.LVL113:
	leal	-1019803690(%esi,%ecx), %esi
	.loc 1 223 0
	movl	%edx, %ecx
.LVL114:
	xorl	%eax, %ecx
	andl	%ebx, %ecx
	xorl	%edx, %ecx
	addl	%esi, %ecx
.LVL115:
	movl	-80(%ebp), %esi
	roll	$9, %ecx
.LVL116:
	addl	%eax, %ecx
.LVL117:
	leal	-187363961(%esi,%ebx), %esi
	.loc 1 224 0
	movl	%eax, %ebx
.LVL118:
	xorl	%ecx, %ebx
	andl	%edx, %ebx
	xorl	%eax, %ebx
	addl	%esi, %ebx
.LVL119:
	movl	-60(%ebp), %esi
	roll	$14, %ebx
.LVL120:
	addl	%ecx, %ebx
.LVL121:
	leal	1163531501(%esi,%edx), %esi
	.loc 1 225 0
	movl	%ecx, %edx
.LVL122:
	xorl	%ebx, %edx
	andl	%eax, %edx
	xorl	%ecx, %edx
	addl	%esi, %edx
.LVL123:
	movl	-40(%ebp), %esi
	rorl	$12, %edx
.LVL124:
	addl	%ebx, %edx
.LVL125:
	leal	-1444681467(%esi,%eax), %esi
	.loc 1 226 0
	movl	%ebx, %eax
.LVL126:
	xorl	%edx, %eax
	andl	%ecx, %eax
	xorl	%ebx, %eax
	addl	%esi, %eax
.LVL127:
	movl	-84(%ebp), %esi
	roll	$5, %eax
.LVL128:
	addl	%edx, %eax
.LVL129:
	leal	-51403784(%esi,%ecx), %esi
	.loc 1 227 0
	movl	%edx, %ecx
.LVL130:
	xorl	%eax, %ecx
	andl	%ebx, %ecx
	xorl	%edx, %ecx
	addl	%esi, %ecx
.LVL131:
	movl	-64(%ebp), %esi
	roll	$9, %ecx
.LVL132:
	addl	%eax, %ecx
.LVL133:
	leal	1735328473(%esi,%ebx), %esi
	.loc 1 228 0
	movl	%eax, %ebx
.LVL134:
	xorl	%ecx, %ebx
	andl	%edx, %ebx
	xorl	%eax, %ebx
	addl	%esi, %ebx
.LVL135:
	roll	$14, %ebx
.LVL136:
	leal	(%ebx,%ecx), %esi
	movl	-44(%ebp), %ebx
.LVL137:
	movl	%esi, -120(%ebp)
.LVL138:
	movl	-120(%ebp), %esi
	leal	-1926607734(%ebx,%edx), %edx
.LVL139:
	.loc 1 229 0
	movl	%eax, %ebx
	xorl	%ecx, %esi
.LVL140:
	andl	%esi, %ebx
	xorl	%ecx, %ebx
	addl	%ebx, %edx
.LVL141:
	movl	-72(%ebp), %ebx
	rorl	$12, %edx
.LVL142:
	addl	-120(%ebp), %edx
.LVL143:
	leal	-378558(%ebx,%eax), %eax
.LVL144:
	movl	-120(%ebp), %ebx
	.loc 1 232 0
	xorl	%edx, %esi
	addl	%eax, %esi
.LVL145:
	movl	-60(%ebp), %eax
	roll	$4, %esi
.LVL146:
	addl	%edx, %esi
.LVL147:
	leal	-2022574463(%eax,%ecx), %ecx
.LVL148:
	.loc 1 233 0
	movl	-120(%ebp), %eax
	xorl	%edx, %eax
	xorl	%esi, %eax
	addl	%ecx, %eax
.LVL149:
	movl	-48(%ebp), %ecx
	roll	$11, %eax
.LVL150:
	addl	%esi, %eax
.LVL151:
	leal	1839030562(%ecx,%ebx), %ebx
	.loc 1 234 0
	movl	%edx, %ecx
	xorl	%esi, %ecx
	xorl	%eax, %ecx
	addl	%ebx, %ecx
.LVL152:
	movl	-36(%ebp), %ebx
	roll	$16, %ecx
.LVL153:
	addl	%eax, %ecx
.LVL154:
	leal	-35309556(%ebx,%edx), %ebx
	.loc 1 235 0
	movl	%esi, %edx
.LVL155:
	xorl	%eax, %edx
	xorl	%ecx, %edx
	addl	%ebx, %edx
.LVL156:
	movl	-88(%ebp), %ebx
	rorl	$9, %edx
.LVL157:
	addl	%ecx, %edx
.LVL158:
	leal	-1530992060(%ebx,%esi), %esi
.LVL159:
	.loc 1 236 0
	movl	%eax, %ebx
	xorl	%ecx, %ebx
	xorl	%edx, %ebx
	addl	%esi, %ebx
.LVL160:
	movl	-76(%ebp), %esi
	roll	$4, %ebx
.LVL161:
	addl	%edx, %ebx
.LVL162:
	leal	1272893353(%esi,%eax), %esi
	.loc 1 237 0
	movl	%ecx, %eax
.LVL163:
	xorl	%edx, %eax
	xorl	%ebx, %eax
	addl	%esi, %eax
.LVL164:
	movl	-64(%ebp), %esi
	roll	$11, %eax
.LVL165:
	addl	%ebx, %eax
.LVL166:
	leal	-155497632(%esi,%ecx), %esi
	.loc 1 238 0
	movl	%edx, %ecx
.LVL167:
	xorl	%ebx, %ecx
	xorl	%eax, %ecx
	addl	%esi, %ecx
.LVL168:
	movl	-52(%ebp), %esi
	roll	$16, %ecx
.LVL169:
	addl	%eax, %ecx
.LVL170:
	leal	-1094730640(%esi,%edx), %edx
.LVL171:
	.loc 1 239 0
	movl	%ebx, %esi
	xorl	%eax, %esi
	xorl	%ecx, %esi
	addl	%edx, %esi
.LVL172:
	movl	-40(%ebp), %edx
	rorl	$9, %esi
.LVL173:
	addl	%ecx, %esi
.LVL174:
	leal	681279174(%edx,%ebx), %ebx
.LVL175:
	.loc 1 240 0
	movl	%eax, %edx
	xorl	%ecx, %edx
	xorl	%esi, %edx
	addl	%ebx, %edx
.LVL176:
	movl	-92(%ebp), %ebx
	roll	$4, %edx
.LVL177:
	addl	%esi, %edx
.LVL178:
	leal	-358537222(%ebx,%eax), %eax
.LVL179:
	.loc 1 241 0
	movl	%ecx, %ebx
	xorl	%esi, %ebx
	xorl	%edx, %ebx
	addl	%eax, %ebx
.LVL180:
	movl	-80(%ebp), %eax
	roll	$11, %ebx
.LVL181:
	addl	%edx, %ebx
.LVL182:
	leal	-722521979(%eax,%ecx), %eax
	.loc 1 242 0
	movl	%esi, %ecx
.LVL183:
	xorl	%edx, %ecx
	xorl	%ebx, %ecx
	addl	%eax, %ecx
.LVL184:
	movl	-68(%ebp), %eax
	roll	$16, %ecx
.LVL185:
	addl	%ebx, %ecx
.LVL186:
	leal	76029189(%eax,%esi), %esi
.LVL187:
	.loc 1 243 0
	movl	%edx, %eax
	xorl	%ebx, %eax
	xorl	%ecx, %eax
	addl	%esi, %eax
.LVL188:
	movl	-56(%ebp), %esi
	rorl	$9, %eax
.LVL189:
	addl	%ecx, %eax
.LVL190:
	leal	-640364487(%esi,%edx), %edx
.LVL191:
	.loc 1 244 0
	movl	%ebx, %esi
	xorl	%ecx, %esi
	xorl	%eax, %esi
	addl	%edx, %esi
.LVL192:
	movl	-44(%ebp), %edx
	roll	$4, %esi
.LVL193:
	addl	%eax, %esi
.LVL194:
	leal	-421815835(%edx,%ebx), %edx
	.loc 1 245 0
	movl	%ecx, %ebx
.LVL195:
	xorl	%eax, %ebx
	xorl	%esi, %ebx
	addl	%edx, %ebx
.LVL196:
	movl	-32(%ebp), %edx
	roll	$11, %ebx
.LVL197:
	addl	%esi, %ebx
.LVL198:
	leal	530742520(%edx,%ecx), %ecx
.LVL199:
	.loc 1 246 0
	movl	%eax, %edx
	xorl	%esi, %edx
	xorl	%ebx, %edx
	addl	%ecx, %edx
.LVL200:
	movl	-84(%ebp), %ecx
	roll	$16, %edx
.LVL201:
	addl	%ebx, %edx
.LVL202:
	leal	-995338651(%ecx,%eax), %eax
.LVL203:
	.loc 1 247 0
	movl	%esi, %ecx
	xorl	%ebx, %ecx
	xorl	%edx, %ecx
	addl	%eax, %ecx
.LVL204:
	movl	-92(%ebp), %eax
	rorl	$9, %ecx
.LVL205:
	addl	%edx, %ecx
.LVL206:
	leal	-198630844(%eax,%esi), %eax
	.loc 1 250 0
	movl	%ebx, %esi
.LVL207:
	notl	%esi
	orl	%ecx, %esi
	xorl	%edx, %esi
	addl	%eax, %esi
.LVL208:
	movl	-64(%ebp), %eax
	roll	$6, %esi
.LVL209:
	addl	%ecx, %esi
.LVL210:
	leal	1126891415(%eax,%ebx), %eax
	.loc 1 251 0
	movl	%edx, %ebx
.LVL211:
	notl	%ebx
	orl	%esi, %ebx
	xorl	%ecx, %ebx
	addl	%ebx, %eax
.LVL212:
	movl	-36(%ebp), %ebx
	roll	$10, %eax
.LVL213:
	addl	%esi, %eax
.LVL214:
	leal	-1416354905(%ebx,%edx), %edx
.LVL215:
	.loc 1 252 0
	movl	%ecx, %ebx
	notl	%ebx
	orl	%eax, %ebx
	xorl	%esi, %ebx
	addl	%edx, %ebx
.LVL216:
	movl	-72(%ebp), %edx
	roll	$15, %ebx
.LVL217:
	addl	%eax, %ebx
.LVL218:
	leal	-57434055(%edx,%ecx), %edx
	.loc 1 253 0
	movl	%esi, %ecx
.LVL219:
	notl	%ecx
	orl	%ebx, %ecx
	xorl	%eax, %ecx
	addl	%ecx, %edx
.LVL220:
	movl	-44(%ebp), %ecx
	rorl	$11, %edx
.LVL221:
	addl	%ebx, %edx
.LVL222:
	leal	1700485571(%ecx,%esi), %esi
.LVL223:
	.loc 1 254 0
	movl	%eax, %ecx
	notl	%ecx
	orl	%edx, %ecx
	xorl	%ebx, %ecx
	addl	%esi, %ecx
.LVL224:
	movl	-80(%ebp), %esi
	roll	$6, %ecx
.LVL225:
	addl	%edx, %ecx
.LVL226:
	leal	-1894986606(%esi,%eax), %eax
.LVL227:
	.loc 1 255 0
	movl	%ebx, %esi
	notl	%esi
	orl	%ecx, %esi
	xorl	%edx, %esi
	addl	%eax, %esi
.LVL228:
	movl	-52(%ebp), %eax
	roll	$10, %esi
.LVL229:
	addl	%ecx, %esi
.LVL230:
	leal	-1051523(%eax,%ebx), %ebx
.LVL231:
	.loc 1 256 0
	movl	%edx, %eax
	notl	%eax
	orl	%esi, %eax
	xorl	%ecx, %eax
	addl	%ebx, %eax
.LVL232:
	movl	-88(%ebp), %ebx
	roll	$15, %eax
.LVL233:
	addl	%esi, %eax
.LVL234:
	leal	-2054922799(%ebx,%edx), %edx
.LVL235:
	.loc 1 257 0
	movl	%ecx, %ebx
	notl	%ebx
	orl	%eax, %ebx
	xorl	%esi, %ebx
	addl	%edx, %ebx
.LVL236:
	movl	-60(%ebp), %edx
	rorl	$11, %ebx
.LVL237:
	addl	%eax, %ebx
.LVL238:
	leal	1873313359(%edx,%ecx), %edx
	.loc 1 258 0
	movl	%esi, %ecx
.LVL239:
	notl	%ecx
	orl	%ebx, %ecx
	xorl	%eax, %ecx
	addl	%edx, %ecx
.LVL240:
	movl	-32(%ebp), %edx
	roll	$6, %ecx
.LVL241:
	addl	%ebx, %ecx
.LVL242:
	leal	-30611744(%edx,%esi), %esi
.LVL243:
	.loc 1 259 0
	movl	%eax, %edx
	notl	%edx
	orl	%ecx, %edx
	xorl	%ebx, %edx
	addl	%esi, %edx
.LVL244:
	movl	-68(%ebp), %esi
	roll	$10, %edx
.LVL245:
	addl	%ecx, %edx
.LVL246:
	leal	-1560198380(%esi,%eax), %eax
.LVL247:
	.loc 1 260 0
	movl	%ebx, %esi
	notl	%esi
	orl	%edx, %esi
	xorl	%ecx, %esi
	addl	%eax, %esi
.LVL248:
	movl	-40(%ebp), %eax
	roll	$15, %esi
.LVL249:
	addl	%edx, %esi
.LVL250:
	leal	1309151649(%eax,%ebx), %eax
	.loc 1 261 0
	movl	%ecx, %ebx
.LVL251:
	notl	%ebx
	orl	%esi, %ebx
	xorl	%edx, %ebx
	addl	%eax, %ebx
.LVL252:
	movl	-76(%ebp), %eax
	rorl	$11, %ebx
.LVL253:
	addl	%esi, %ebx
.LVL254:
	leal	-145523070(%eax,%ecx), %ecx
.LVL255:
	.loc 1 262 0
	movl	%edx, %eax
	notl	%eax
	orl	%ebx, %eax
	xorl	%esi, %eax
	addl	%ecx, %eax
.LVL256:
	movl	-48(%ebp), %ecx
	roll	$6, %eax
.LVL257:
	addl	%ebx, %eax
.LVL258:
	leal	-1120210379(%ecx,%edx), %ecx
	.loc 1 263 0
	movl	%esi, %edx
.LVL259:
	notl	%edx
	orl	%eax, %edx
	xorl	%ebx, %edx
	addl	%ecx, %edx
.LVL260:
	movl	-84(%ebp), %ecx
	roll	$10, %edx
.LVL261:
	addl	%eax, %edx
.LVL262:
	leal	718787259(%ecx,%esi), %esi
.LVL263:
	.loc 1 264 0
	movl	%ebx, %ecx
	notl	%ecx
	orl	%edx, %ecx
	xorl	%eax, %ecx
	addl	%esi, %ecx
.LVL264:
	movl	-56(%ebp), %esi
	roll	$15, %ecx
.LVL265:
	addl	%edx, %ecx
.LVL266:
	leal	-343485551(%esi,%ebx), %esi
	.loc 1 265 0
	movl	%eax, %ebx
.LVL267:
	.loc 1 267 0
	addl	-124(%ebp), %eax
.LVL268:
	.loc 1 265 0
	notl	%ebx
.LVL269:
	orl	%ecx, %ebx
.LVL270:
	xorl	%edx, %ebx
	.loc 1 267 0
	movl	%eax, (%edi)
	.loc 1 268 0
	movl	-108(%ebp), %eax
	.loc 1 265 0
	addl	%esi, %ebx
.LVL271:
	.loc 1 268 0
	rorl	$11, %ebx
.LVL272:
	leal	(%eax,%ecx), %esi
	.loc 1 269 0
	addl	-112(%ebp), %ecx
.LVL273:
	.loc 1 268 0
	addl	%esi, %ebx
	.loc 1 270 0
	addl	-116(%ebp), %edx
.LVL274:
	.loc 1 271 0
	movl	-28(%ebp), %eax
	xorl	%gs:20, %eax
	.loc 1 268 0
	movl	%ebx, 4(%edi)
	.loc 1 269 0
	movl	%ecx, 8(%edi)
	.loc 1 270 0
	movl	%edx, 12(%edi)
	.loc 1 271 0
	je	.L9
	call	__stack_chk_fail
.LVL275:
.L9:
	addl	$124, %esp
	popl	%ebx
	.cfi_restore 3
	popl	%esi
	.cfi_restore 6
	popl	%edi
	.cfi_restore 7
.LVL276:
	popl	%ebp
	.cfi_restore 5
	.cfi_def_cfa 4, 4
	ret
	.cfi_endproc
.LFE3:
	.size	MD5Transform, .-MD5Transform
	.section	.text.unlikely.MD5Transform
.LCOLDE1:
	.section	.text.MD5Transform
.LHOTE1:
	.section	.text.unlikely.MD5_Init,"ax",@progbits
.LCOLDB2:
	.section	.text.MD5_Init,"ax",@progbits
.LHOTB2:
	.globl	MD5_Init
	.type	MD5_Init, @function
MD5_Init:
.LFB0:
	.loc 1 113 0
	.cfi_startproc
.LVL277:
	pushl	%ebp
	.cfi_def_cfa_offset 8
	.cfi_offset 5, -8
	movl	%esp, %ebp
	.cfi_def_cfa_register 5
	.loc 1 113 0
	movl	8(%ebp), %eax
	.loc 1 114 0
	movl	$0, 20(%eax)
	movl	$0, 16(%eax)
	.loc 1 118 0
	movl	$1732584193, (%eax)
	.loc 1 119 0
	movl	$-271733879, 4(%eax)
	.loc 1 120 0
	movl	$-1732584194, 8(%eax)
	.loc 1 121 0
	movl	$271733878, 12(%eax)
	.loc 1 122 0
	popl	%ebp
	.cfi_restore 5
	.cfi_def_cfa 4, 4
	ret
	.cfi_endproc
.LFE0:
	.size	MD5_Init, .-MD5_Init
	.section	.text.unlikely.MD5_Init
.LCOLDE2:
	.section	.text.MD5_Init
.LHOTE2:
	.section	.text.unlikely.MD5_Update,"ax",@progbits
.LCOLDB3:
	.section	.text.MD5_Update,"ax",@progbits
.LHOTB3:
	.globl	MD5_Update
	.type	MD5_Update, @function
MD5_Update:
.LFB1:
	.loc 1 129 0
	.cfi_startproc
.LVL278:
	pushl	%ebp
	.cfi_def_cfa_offset 8
	.cfi_offset 5, -8
	movl	%esp, %ebp
	.cfi_def_cfa_register 5
	pushl	%edi
	pushl	%esi
	pushl	%ebx
	subl	$28, %esp
	.cfi_offset 7, -12
	.cfi_offset 6, -16
	.cfi_offset 3, -20
	.loc 1 129 0
	movl	8(%ebp), %ebx
	.loc 1 137 0
	movl	16(%ebp), %edi
	.loc 1 134 0
	movl	16(%ebx), %edx
	.loc 1 137 0
	leal	0(,%edi,8), %ecx
	.loc 1 134 0
	movl	%edx, %eax
	.loc 1 137 0
	addl	%ecx, %edx
	.loc 1 134 0
	shrl	$3, %eax
	.loc 1 137 0
	movl	%edx, 16(%ebx)
	.loc 1 134 0
	andl	$63, %eax
.LVL279:
	.loc 1 137 0
	cmpl	%edx, %ecx
	jbe	.L15
	.loc 1 138 0
	incl	20(%ebx)
.L15:
	.loc 1 140 0
	movl	16(%ebp), %edx
	.loc 1 155 0
	xorl	%esi, %esi
	.loc 1 140 0
	shrl	$29, %edx
	addl	%edx, 20(%ebx)
	.loc 1 142 0
	movl	$64, %edx
	subl	%eax, %edx
	.loc 1 145 0
	cmpl	%edx, 16(%ebp)
	.loc 1 142 0
	movl	%edx, -28(%ebp)
.LVL280:
	.loc 1 145 0
	jl	.L16
	.loc 1 146 0
	leal	24(%ebx,%eax), %eax
.LVL281:
	movl	12(%ebp), %esi
	movl	%edx, %ecx
	.loc 1 147 0
	leal	24(%ebx), %edx
.LVL282:
	.loc 1 146 0
	movl	%eax, %edi
	.loc 1 147 0
	movl	%ebx, %eax
	.loc 1 146 0
	rep movsb
.LVL283:
	.loc 1 147 0
	call	MD5Transform
.LVL284:
	.loc 1 149 0
	movl	-28(%ebp), %esi
.LVL285:
.L17:
	.loc 1 149 0 is_stmt 0 discriminator 1
	leal	63(%esi), %eax
	cmpl	%eax, 16(%ebp)
	jle	.L21
	.loc 1 150 0 is_stmt 1 discriminator 3
	movl	12(%ebp), %edx
	movl	%ebx, %eax
	addl	%esi, %edx
	.loc 1 149 0 discriminator 3
	addl	$64, %esi
.LVL286:
	.loc 1 150 0 discriminator 3
	call	MD5Transform
.LVL287:
	jmp	.L17
.L21:
	movl	16(%ebp), %esi
.LVL288:
	subl	-28(%ebp), %esi
	.loc 1 153 0
	xorl	%eax, %eax
.LVL289:
	andl	$-64, %esi
	addl	-28(%ebp), %esi
.L16:
.LVL290:
	.loc 1 159 0
	movl	16(%ebp), %ecx
	leal	24(%ebx,%eax), %eax
.LVL291:
	movl	%eax, %edi
	subl	%esi, %ecx
	addl	12(%ebp), %esi
.LVL292:
	rep movsb
	.loc 1 160 0
	addl	$28, %esp
	popl	%ebx
	.cfi_restore 3
	popl	%esi
	.cfi_restore 6
	popl	%edi
	.cfi_restore 7
	popl	%ebp
	.cfi_restore 5
	.cfi_def_cfa 4, 4
	ret
	.cfi_endproc
.LFE1:
	.size	MD5_Update, .-MD5_Update
	.section	.text.unlikely.MD5_Update
.LCOLDE3:
	.section	.text.MD5_Update
.LHOTE3:
	.section	.text.unlikely.MD5_Final,"ax",@progbits
.LCOLDB4:
	.section	.text.MD5_Final,"ax",@progbits
.LHOTB4:
	.globl	MD5_Final
	.type	MD5_Final, @function
MD5_Final:
.LFB2:
	.loc 1 166 0
	.cfi_startproc
.LVL293:
	pushl	%ebp
	.cfi_def_cfa_offset 8
	.cfi_offset 5, -8
	.loc 1 171 0
	movl	$8, %ecx
	.loc 1 166 0
	movl	%esp, %ebp
	.cfi_def_cfa_register 5
	pushl	%edi
	pushl	%esi
	pushl	%ebx
	.cfi_offset 7, -12
	.cfi_offset 6, -16
	.cfi_offset 3, -20
	.loc 1 171 0
	leal	-36(%ebp), %esi
	.loc 1 166 0
	subl	$28, %esp
	.loc 1 166 0
	movl	12(%ebp), %ebx
	movl	8(%ebp), %edi
	movl	%gs:20, %eax
	movl	%eax, -28(%ebp)
	xorl	%eax, %eax
	.loc 1 171 0
	movl	%esi, %eax
	leal	16(%ebx), %edx
	call	Encode
.LVL294:
	.loc 1 175 0
	movl	16(%ebx), %eax
	.loc 1 176 0
	movl	$56, %edx
	.loc 1 175 0
	shrl	$3, %eax
	andl	$63, %eax
.LVL295:
	.loc 1 176 0
	cmpl	$55, %eax
	jbe	.L27
	.loc 1 176 0 is_stmt 0 discriminator 2
	movl	$120, %edx
.L27:
	subl	%eax, %edx
	movl	%edx, %eax
.LVL296:
	.loc 1 177 0 is_stmt 1 discriminator 2
	pushl	%edx
.LVL297:
	pushl	%eax
	pushl	$PADDING
	pushl	%ebx
	call	MD5_Update
.LVL298:
	.loc 1 180 0 discriminator 2
	addl	$12, %esp
	pushl	$8
	pushl	%esi
	pushl	%ebx
	call	MD5_Update
.LVL299:
	.loc 1 183 0 discriminator 2
	movl	%edi, %eax
	movl	$16, %ecx
	movl	%ebx, %edx
	call	Encode
.LVL300:
	.loc 1 184 0 discriminator 2
	addl	$16, %esp
	movl	-28(%ebp), %eax
	xorl	%gs:20, %eax
	je	.L25
	.loc 1 184 0 is_stmt 0
	call	__stack_chk_fail
.LVL301:
.L25:
	leal	-12(%ebp), %esp
	popl	%ebx
	.cfi_restore 3
	popl	%esi
	.cfi_restore 6
	popl	%edi
	.cfi_restore 7
	popl	%ebp
	.cfi_restore 5
	.cfi_def_cfa 4, 4
	ret
	.cfi_endproc
.LFE2:
	.size	MD5_Final, .-MD5_Final
	.section	.text.unlikely.MD5_Final
.LCOLDE4:
	.section	.text.MD5_Final
.LHOTE4:
	.section	.rodata.PADDING,"a",@progbits
	.align 32
	.type	PADDING, @object
	.size	PADDING, 64
PADDING:
	.byte	-128
	.byte	0
	.byte	0
	.byte	0
	.byte	0
	.byte	0
	.byte	0
	.byte	0
	.byte	0
	.byte	0
	.byte	0
	.byte	0
	.byte	0
	.byte	0
	.byte	0
	.byte	0
	.byte	0
	.byte	0
	.byte	0
	.byte	0
	.byte	0
	.byte	0
	.byte	0
	.byte	0
	.byte	0
	.byte	0
	.byte	0
	.byte	0
	.byte	0
	.byte	0
	.byte	0
	.byte	0
	.byte	0
	.byte	0
	.byte	0
	.byte	0
	.byte	0
	.byte	0
	.byte	0
	.byte	0
	.byte	0
	.byte	0
	.byte	0
	.byte	0
	.byte	0
	.byte	0
	.byte	0
	.byte	0
	.byte	0
	.byte	0
	.byte	0
	.byte	0
	.byte	0
	.byte	0
	.byte	0
	.byte	0
	.byte	0
	.byte	0
	.byte	0
	.byte	0
	.byte	0
	.byte	0
	.byte	0
	.byte	0
	.text
.Letext0:
	.section	.text.unlikely.Encode
.Letext_cold0:
	.file 2 "/home/stone/Documents/Ali_IOT/build/compiler/gcc-arm-none-eabi/Linux64/arm-none-eabi/include/machine/_default_types.h"
	.file 3 "/home/stone/Documents/Ali_IOT/build/compiler/gcc-arm-none-eabi/Linux64/arm-none-eabi/include/sys/_stdint.h"
	.file 4 "utility/digest_algorithm/md5.h"
	.section	.note.GNU-stack,"",@progbits
