	.file	"md_wrap.c"
	.text
.Ltext0:
	.section	.text.unlikely.sha224_process_wrap,"ax",@progbits
.LCOLDB0:
	.section	.text.sha224_process_wrap,"ax",@progbits
.LHOTB0:
	.section	.text.unlikely.sha224_process_wrap
.Ltext_cold0:
	.section	.text.sha224_process_wrap
	.type	sha224_process_wrap, @function
sha224_process_wrap:
.LFB21:
	.file 1 "security/mbedtls/src/md_wrap.c"
	.loc 1 600 0
	.cfi_startproc
.LVL0:
	pushl	%ebp
	.cfi_def_cfa_offset 8
	.cfi_offset 5, -8
	movl	%esp, %ebp
	.cfi_def_cfa_register 5
	.loc 1 603 0
	popl	%ebp
	.cfi_restore 5
	.cfi_def_cfa 4, 4
	ret
	.cfi_endproc
.LFE21:
	.size	sha224_process_wrap, .-sha224_process_wrap
	.section	.text.unlikely.sha224_process_wrap
.LCOLDE0:
	.section	.text.sha224_process_wrap
.LHOTE0:
	.section	.text.unlikely.md5_clone_wrap,"ax",@progbits
.LCOLDB1:
	.section	.text.md5_clone_wrap,"ax",@progbits
.LHOTB1:
	.type	md5_clone_wrap, @function
md5_clone_wrap:
.LFB5:
	.loc 1 283 0
	.cfi_startproc
.LVL1:
	pushl	%ebp
	.cfi_def_cfa_offset 8
	.cfi_offset 5, -8
	movl	%esp, %ebp
	.cfi_def_cfa_register 5
	.loc 1 286 0
	popl	%ebp
	.cfi_restore 5
	.cfi_def_cfa 4, 4
	.loc 1 284 0
	jmp	mbedtls_md5_clone_alt
.LVL2:
	.cfi_endproc
.LFE5:
	.size	md5_clone_wrap, .-md5_clone_wrap
	.section	.text.unlikely.md5_clone_wrap
.LCOLDE1:
	.section	.text.md5_clone_wrap
.LHOTE1:
	.section	.text.unlikely.md5_ctx_free,"ax",@progbits
.LCOLDB2:
	.section	.text.md5_ctx_free,"ax",@progbits
.LHOTB2:
	.type	md5_ctx_free, @function
md5_ctx_free:
.LFB4:
	.loc 1 277 0
	.cfi_startproc
.LVL3:
	pushl	%ebp
	.cfi_def_cfa_offset 8
	.cfi_offset 5, -8
	movl	%esp, %ebp
	.cfi_def_cfa_register 5
	pushl	%ebx
	subl	$16, %esp
	.cfi_offset 3, -12
	.loc 1 277 0
	movl	8(%ebp), %ebx
	.loc 1 278 0
	pushl	%ebx
	call	mbedtls_md5_free_alt
.LVL4:
	.loc 1 279 0
	movl	%ebx, 8(%ebp)
	addl	$16, %esp
	.loc 1 280 0
	movl	-4(%ebp), %ebx
	leave
	.cfi_restore 5
	.cfi_restore 3
	.cfi_def_cfa 4, 4
	.loc 1 279 0
	jmp	mbedtls_free
.LVL5:
	.cfi_endproc
.LFE4:
	.size	md5_ctx_free, .-md5_ctx_free
	.section	.text.unlikely.md5_ctx_free
.LCOLDE2:
	.section	.text.md5_ctx_free
.LHOTE2:
	.section	.text.unlikely.md5_ctx_alloc,"ax",@progbits
.LCOLDB3:
	.section	.text.md5_ctx_alloc,"ax",@progbits
.LHOTB3:
	.type	md5_ctx_alloc, @function
md5_ctx_alloc:
.LFB3:
	.loc 1 266 0
	.cfi_startproc
	pushl	%ebp
	.cfi_def_cfa_offset 8
	.cfi_offset 5, -8
	movl	%esp, %ebp
	.cfi_def_cfa_register 5
	subl	$32, %esp
	.loc 1 267 0
	pushl	$8
	pushl	$1
	call	mbedtls_calloc
.LVL6:
	.loc 1 269 0
	addl	$16, %esp
	testl	%eax, %eax
	je	.L8
	.loc 1 270 0
	subl	$12, %esp
	movl	%eax, -12(%ebp)
	pushl	%eax
	call	mbedtls_md5_init_alt
.LVL7:
	movl	-12(%ebp), %eax
	addl	$16, %esp
.LVL8:
.L8:
	.loc 1 274 0
	leave
	.cfi_restore 5
	.cfi_def_cfa 4, 4
	ret
	.cfi_endproc
.LFE3:
	.size	md5_ctx_alloc, .-md5_ctx_alloc
	.section	.text.unlikely.md5_ctx_alloc
.LCOLDE3:
	.section	.text.md5_ctx_alloc
.LHOTE3:
	.section	.text.unlikely.md5_finish_wrap,"ax",@progbits
.LCOLDB4:
	.section	.text.md5_finish_wrap,"ax",@progbits
.LHOTB4:
	.type	md5_finish_wrap, @function
md5_finish_wrap:
.LFB2:
	.loc 1 261 0
	.cfi_startproc
.LVL9:
	pushl	%ebp
	.cfi_def_cfa_offset 8
	.cfi_offset 5, -8
	movl	%esp, %ebp
	.cfi_def_cfa_register 5
	.loc 1 263 0
	popl	%ebp
	.cfi_restore 5
	.cfi_def_cfa 4, 4
	.loc 1 262 0
	jmp	mbedtls_md5_finish_alt
.LVL10:
	.cfi_endproc
.LFE2:
	.size	md5_finish_wrap, .-md5_finish_wrap
	.section	.text.unlikely.md5_finish_wrap
.LCOLDE4:
	.section	.text.md5_finish_wrap
.LHOTE4:
	.section	.text.unlikely.md5_update_wrap,"ax",@progbits
.LCOLDB5:
	.section	.text.md5_update_wrap,"ax",@progbits
.LHOTB5:
	.type	md5_update_wrap, @function
md5_update_wrap:
.LFB1:
	.loc 1 256 0
	.cfi_startproc
.LVL11:
	pushl	%ebp
	.cfi_def_cfa_offset 8
	.cfi_offset 5, -8
	movl	%esp, %ebp
	.cfi_def_cfa_register 5
	.loc 1 258 0
	popl	%ebp
	.cfi_restore 5
	.cfi_def_cfa 4, 4
	.loc 1 257 0
	jmp	mbedtls_md5_update_alt
.LVL12:
	.cfi_endproc
.LFE1:
	.size	md5_update_wrap, .-md5_update_wrap
	.section	.text.unlikely.md5_update_wrap
.LCOLDE5:
	.section	.text.md5_update_wrap
.LHOTE5:
	.section	.text.unlikely.md5_starts_wrap,"ax",@progbits
.LCOLDB6:
	.section	.text.md5_starts_wrap,"ax",@progbits
.LHOTB6:
	.type	md5_starts_wrap, @function
md5_starts_wrap:
.LFB0:
	.loc 1 250 0
	.cfi_startproc
.LVL13:
	pushl	%ebp
	.cfi_def_cfa_offset 8
	.cfi_offset 5, -8
	movl	%esp, %ebp
	.cfi_def_cfa_register 5
	.loc 1 252 0
	popl	%ebp
	.cfi_restore 5
	.cfi_def_cfa 4, 4
	.loc 1 251 0
	jmp	mbedtls_md5_starts_alt
.LVL14:
	.cfi_endproc
.LFE0:
	.size	md5_starts_wrap, .-md5_starts_wrap
	.section	.text.unlikely.md5_starts_wrap
.LCOLDE6:
	.section	.text.md5_starts_wrap
.LHOTE6:
	.section	.text.unlikely.sha1_clone_wrap,"ax",@progbits
.LCOLDB7:
	.section	.text.sha1_clone_wrap,"ax",@progbits
.LHOTB7:
	.type	sha1_clone_wrap, @function
sha1_clone_wrap:
.LFB11:
	.loc 1 456 0
	.cfi_startproc
.LVL15:
	pushl	%ebp
	.cfi_def_cfa_offset 8
	.cfi_offset 5, -8
	movl	%esp, %ebp
	.cfi_def_cfa_register 5
	.loc 1 459 0
	popl	%ebp
	.cfi_restore 5
	.cfi_def_cfa 4, 4
	.loc 1 457 0
	jmp	mbedtls_sha1_clone_alt
.LVL16:
	.cfi_endproc
.LFE11:
	.size	sha1_clone_wrap, .-sha1_clone_wrap
	.section	.text.unlikely.sha1_clone_wrap
.LCOLDE7:
	.section	.text.sha1_clone_wrap
.LHOTE7:
	.section	.text.unlikely.sha1_ctx_free,"ax",@progbits
.LCOLDB8:
	.section	.text.sha1_ctx_free,"ax",@progbits
.LHOTB8:
	.type	sha1_ctx_free, @function
sha1_ctx_free:
.LFB12:
	.loc 1 462 0
	.cfi_startproc
.LVL17:
	pushl	%ebp
	.cfi_def_cfa_offset 8
	.cfi_offset 5, -8
	movl	%esp, %ebp
	.cfi_def_cfa_register 5
	pushl	%ebx
	subl	$16, %esp
	.cfi_offset 3, -12
	.loc 1 462 0
	movl	8(%ebp), %ebx
	.loc 1 463 0
	pushl	%ebx
	call	mbedtls_sha1_free_alt
.LVL18:
	.loc 1 464 0
	movl	%ebx, 8(%ebp)
	addl	$16, %esp
	.loc 1 465 0
	movl	-4(%ebp), %ebx
	leave
	.cfi_restore 5
	.cfi_restore 3
	.cfi_def_cfa 4, 4
	.loc 1 464 0
	jmp	mbedtls_free
.LVL19:
	.cfi_endproc
.LFE12:
	.size	sha1_ctx_free, .-sha1_ctx_free
	.section	.text.unlikely.sha1_ctx_free
.LCOLDE8:
	.section	.text.sha1_ctx_free
.LHOTE8:
	.section	.text.unlikely.sha1_ctx_alloc,"ax",@progbits
.LCOLDB9:
	.section	.text.sha1_ctx_alloc,"ax",@progbits
.LHOTB9:
	.type	sha1_ctx_alloc, @function
sha1_ctx_alloc:
.LFB10:
	.loc 1 445 0
	.cfi_startproc
	pushl	%ebp
	.cfi_def_cfa_offset 8
	.cfi_offset 5, -8
	movl	%esp, %ebp
	.cfi_def_cfa_register 5
	subl	$32, %esp
	.loc 1 446 0
	pushl	$8
	pushl	$1
	call	mbedtls_calloc
.LVL20:
	.loc 1 448 0
	addl	$16, %esp
	testl	%eax, %eax
	je	.L25
	.loc 1 449 0
	subl	$12, %esp
	movl	%eax, -12(%ebp)
	pushl	%eax
	call	mbedtls_sha1_init_alt
.LVL21:
	movl	-12(%ebp), %eax
	addl	$16, %esp
.LVL22:
.L25:
	.loc 1 453 0
	leave
	.cfi_restore 5
	.cfi_def_cfa 4, 4
	ret
	.cfi_endproc
.LFE10:
	.size	sha1_ctx_alloc, .-sha1_ctx_alloc
	.section	.text.unlikely.sha1_ctx_alloc
.LCOLDE9:
	.section	.text.sha1_ctx_alloc
.LHOTE9:
	.section	.text.unlikely.sha1_finish_wrap,"ax",@progbits
.LCOLDB10:
	.section	.text.sha1_finish_wrap,"ax",@progbits
.LHOTB10:
	.type	sha1_finish_wrap, @function
sha1_finish_wrap:
.LFB9:
	.loc 1 440 0
	.cfi_startproc
.LVL23:
	pushl	%ebp
	.cfi_def_cfa_offset 8
	.cfi_offset 5, -8
	movl	%esp, %ebp
	.cfi_def_cfa_register 5
	.loc 1 442 0
	popl	%ebp
	.cfi_restore 5
	.cfi_def_cfa 4, 4
	.loc 1 441 0
	jmp	mbedtls_sha1_finish_alt
.LVL24:
	.cfi_endproc
.LFE9:
	.size	sha1_finish_wrap, .-sha1_finish_wrap
	.section	.text.unlikely.sha1_finish_wrap
.LCOLDE10:
	.section	.text.sha1_finish_wrap
.LHOTE10:
	.section	.text.unlikely.sha1_update_wrap,"ax",@progbits
.LCOLDB11:
	.section	.text.sha1_update_wrap,"ax",@progbits
.LHOTB11:
	.type	sha1_update_wrap, @function
sha1_update_wrap:
.LFB8:
	.loc 1 435 0
	.cfi_startproc
.LVL25:
	pushl	%ebp
	.cfi_def_cfa_offset 8
	.cfi_offset 5, -8
	movl	%esp, %ebp
	.cfi_def_cfa_register 5
	.loc 1 437 0
	popl	%ebp
	.cfi_restore 5
	.cfi_def_cfa 4, 4
	.loc 1 436 0
	jmp	mbedtls_sha1_update_alt
.LVL26:
	.cfi_endproc
.LFE8:
	.size	sha1_update_wrap, .-sha1_update_wrap
	.section	.text.unlikely.sha1_update_wrap
.LCOLDE11:
	.section	.text.sha1_update_wrap
.LHOTE11:
	.section	.text.unlikely.sha1_starts_wrap,"ax",@progbits
.LCOLDB12:
	.section	.text.sha1_starts_wrap,"ax",@progbits
.LHOTB12:
	.type	sha1_starts_wrap, @function
sha1_starts_wrap:
.LFB7:
	.loc 1 429 0
	.cfi_startproc
.LVL27:
	pushl	%ebp
	.cfi_def_cfa_offset 8
	.cfi_offset 5, -8
	movl	%esp, %ebp
	.cfi_def_cfa_register 5
	.loc 1 431 0
	popl	%ebp
	.cfi_restore 5
	.cfi_def_cfa 4, 4
	.loc 1 430 0
	jmp	mbedtls_sha1_starts_alt
.LVL28:
	.cfi_endproc
.LFE7:
	.size	sha1_starts_wrap, .-sha1_starts_wrap
	.section	.text.unlikely.sha1_starts_wrap
.LCOLDE12:
	.section	.text.sha1_starts_wrap
.LHOTE12:
	.section	.text.unlikely.sha224_clone_wrap,"ax",@progbits
.LCOLDB13:
	.section	.text.sha224_clone_wrap,"ax",@progbits
.LHOTB13:
	.type	sha224_clone_wrap, @function
sha224_clone_wrap:
.LFB20:
	.loc 1 594 0
	.cfi_startproc
.LVL29:
	pushl	%ebp
	.cfi_def_cfa_offset 8
	.cfi_offset 5, -8
	movl	%esp, %ebp
	.cfi_def_cfa_register 5
	.loc 1 597 0
	popl	%ebp
	.cfi_restore 5
	.cfi_def_cfa 4, 4
	.loc 1 595 0
	jmp	mbedtls_sha256_clone_alt
.LVL30:
	.cfi_endproc
.LFE20:
	.size	sha224_clone_wrap, .-sha224_clone_wrap
	.section	.text.unlikely.sha224_clone_wrap
.LCOLDE13:
	.section	.text.sha224_clone_wrap
.LHOTE13:
	.section	.text.unlikely.sha224_ctx_free,"ax",@progbits
.LCOLDB14:
	.section	.text.sha224_ctx_free,"ax",@progbits
.LHOTB14:
	.type	sha224_ctx_free, @function
sha224_ctx_free:
.LFB19:
	.loc 1 588 0
	.cfi_startproc
.LVL31:
	pushl	%ebp
	.cfi_def_cfa_offset 8
	.cfi_offset 5, -8
	movl	%esp, %ebp
	.cfi_def_cfa_register 5
	pushl	%ebx
	subl	$16, %esp
	.cfi_offset 3, -12
	.loc 1 588 0
	movl	8(%ebp), %ebx
	.loc 1 589 0
	pushl	%ebx
	call	mbedtls_sha256_free_alt
.LVL32:
	.loc 1 590 0
	movl	%ebx, 8(%ebp)
	addl	$16, %esp
	.loc 1 591 0
	movl	-4(%ebp), %ebx
	leave
	.cfi_restore 5
	.cfi_restore 3
	.cfi_def_cfa 4, 4
	.loc 1 590 0
	jmp	mbedtls_free
.LVL33:
	.cfi_endproc
.LFE19:
	.size	sha224_ctx_free, .-sha224_ctx_free
	.section	.text.unlikely.sha224_ctx_free
.LCOLDE14:
	.section	.text.sha224_ctx_free
.LHOTE14:
	.section	.text.unlikely.sha224_ctx_alloc,"ax",@progbits
.LCOLDB15:
	.section	.text.sha224_ctx_alloc,"ax",@progbits
.LHOTB15:
	.type	sha224_ctx_alloc, @function
sha224_ctx_alloc:
.LFB18:
	.loc 1 577 0
	.cfi_startproc
	pushl	%ebp
	.cfi_def_cfa_offset 8
	.cfi_offset 5, -8
	movl	%esp, %ebp
	.cfi_def_cfa_register 5
	subl	$32, %esp
	.loc 1 578 0
	pushl	$8
	pushl	$1
	call	mbedtls_calloc
.LVL34:
	.loc 1 580 0
	addl	$16, %esp
	testl	%eax, %eax
	je	.L41
	.loc 1 581 0
	subl	$12, %esp
	movl	%eax, -12(%ebp)
	pushl	%eax
	call	mbedtls_sha256_init_alt
.LVL35:
	movl	-12(%ebp), %eax
	addl	$16, %esp
.LVL36:
.L41:
	.loc 1 585 0
	leave
	.cfi_restore 5
	.cfi_def_cfa 4, 4
	ret
	.cfi_endproc
.LFE18:
	.size	sha224_ctx_alloc, .-sha224_ctx_alloc
	.section	.text.unlikely.sha224_ctx_alloc
.LCOLDE15:
	.section	.text.sha224_ctx_alloc
.LHOTE15:
	.section	.text.unlikely.sha224_wrap,"ax",@progbits
.LCOLDB16:
	.section	.text.sha224_wrap,"ax",@progbits
.LHOTB16:
	.type	sha224_wrap, @function
sha224_wrap:
.LFB17:
	.loc 1 572 0
	.cfi_startproc
.LVL37:
	pushl	%ebp
	.cfi_def_cfa_offset 8
	.cfi_offset 5, -8
	movl	%esp, %ebp
	.cfi_def_cfa_register 5
	subl	$8, %esp
	.loc 1 573 0
	pushl	$1
	pushl	16(%ebp)
	pushl	12(%ebp)
	pushl	8(%ebp)
	call	mbedtls_sha256_alt
.LVL38:
	.loc 1 574 0
	addl	$16, %esp
	leave
	.cfi_restore 5
	.cfi_def_cfa 4, 4
	ret
	.cfi_endproc
.LFE17:
	.size	sha224_wrap, .-sha224_wrap
	.section	.text.unlikely.sha224_wrap
.LCOLDE16:
	.section	.text.sha224_wrap
.LHOTE16:
	.section	.text.unlikely.sha256_wrap,"ax",@progbits
.LCOLDB17:
	.section	.text.sha256_wrap,"ax",@progbits
.LHOTB17:
	.type	sha256_wrap, @function
sha256_wrap:
.LFB23:
	.loc 1 642 0
	.cfi_startproc
.LVL39:
	pushl	%ebp
	.cfi_def_cfa_offset 8
	.cfi_offset 5, -8
	movl	%esp, %ebp
	.cfi_def_cfa_register 5
	subl	$8, %esp
	.loc 1 643 0
	pushl	$0
	pushl	16(%ebp)
	pushl	12(%ebp)
	pushl	8(%ebp)
	call	mbedtls_sha256_alt
.LVL40:
	.loc 1 644 0
	addl	$16, %esp
	leave
	.cfi_restore 5
	.cfi_def_cfa 4, 4
	ret
	.cfi_endproc
.LFE23:
	.size	sha256_wrap, .-sha256_wrap
	.section	.text.unlikely.sha256_wrap
.LCOLDE17:
	.section	.text.sha256_wrap
.LHOTE17:
	.section	.text.unlikely.sha224_finish_wrap,"ax",@progbits
.LCOLDB18:
	.section	.text.sha224_finish_wrap,"ax",@progbits
.LHOTB18:
	.type	sha224_finish_wrap, @function
sha224_finish_wrap:
.LFB16:
	.loc 1 566 0
	.cfi_startproc
.LVL41:
	pushl	%ebp
	.cfi_def_cfa_offset 8
	.cfi_offset 5, -8
	movl	%esp, %ebp
	.cfi_def_cfa_register 5
	.loc 1 568 0
	popl	%ebp
	.cfi_restore 5
	.cfi_def_cfa 4, 4
	.loc 1 567 0
	jmp	mbedtls_sha256_finish_alt
.LVL42:
	.cfi_endproc
.LFE16:
	.size	sha224_finish_wrap, .-sha224_finish_wrap
	.section	.text.unlikely.sha224_finish_wrap
.LCOLDE18:
	.section	.text.sha224_finish_wrap
.LHOTE18:
	.section	.text.unlikely.sha224_update_wrap,"ax",@progbits
.LCOLDB19:
	.section	.text.sha224_update_wrap,"ax",@progbits
.LHOTB19:
	.type	sha224_update_wrap, @function
sha224_update_wrap:
.LFB15:
	.loc 1 561 0
	.cfi_startproc
.LVL43:
	pushl	%ebp
	.cfi_def_cfa_offset 8
	.cfi_offset 5, -8
	movl	%esp, %ebp
	.cfi_def_cfa_register 5
	.loc 1 563 0
	popl	%ebp
	.cfi_restore 5
	.cfi_def_cfa 4, 4
	.loc 1 562 0
	jmp	mbedtls_sha256_update_alt
.LVL44:
	.cfi_endproc
.LFE15:
	.size	sha224_update_wrap, .-sha224_update_wrap
	.section	.text.unlikely.sha224_update_wrap
.LCOLDE19:
	.section	.text.sha224_update_wrap
.LHOTE19:
	.section	.text.unlikely.sha224_starts_wrap,"ax",@progbits
.LCOLDB20:
	.section	.text.sha224_starts_wrap,"ax",@progbits
.LHOTB20:
	.type	sha224_starts_wrap, @function
sha224_starts_wrap:
.LFB14:
	.loc 1 555 0
	.cfi_startproc
.LVL45:
	pushl	%ebp
	.cfi_def_cfa_offset 8
	.cfi_offset 5, -8
	movl	%esp, %ebp
	.cfi_def_cfa_register 5
	subl	$16, %esp
	.loc 1 556 0
	pushl	$1
	pushl	8(%ebp)
	call	mbedtls_sha256_starts_alt
.LVL46:
	.loc 1 557 0
	addl	$16, %esp
	leave
	.cfi_restore 5
	.cfi_def_cfa 4, 4
	ret
	.cfi_endproc
.LFE14:
	.size	sha224_starts_wrap, .-sha224_starts_wrap
	.section	.text.unlikely.sha224_starts_wrap
.LCOLDE20:
	.section	.text.sha224_starts_wrap
.LHOTE20:
	.section	.text.unlikely.sha256_starts_wrap,"ax",@progbits
.LCOLDB21:
	.section	.text.sha256_starts_wrap,"ax",@progbits
.LHOTB21:
	.type	sha256_starts_wrap, @function
sha256_starts_wrap:
.LFB22:
	.loc 1 636 0
	.cfi_startproc
.LVL47:
	pushl	%ebp
	.cfi_def_cfa_offset 8
	.cfi_offset 5, -8
	movl	%esp, %ebp
	.cfi_def_cfa_register 5
	subl	$16, %esp
	.loc 1 637 0
	pushl	$0
	pushl	8(%ebp)
	call	mbedtls_sha256_starts_alt
.LVL48:
	.loc 1 638 0
	addl	$16, %esp
	leave
	.cfi_restore 5
	.cfi_def_cfa 4, 4
	ret
	.cfi_endproc
.LFE22:
	.size	sha256_starts_wrap, .-sha256_starts_wrap
	.section	.text.unlikely.sha256_starts_wrap
.LCOLDE21:
	.section	.text.sha256_starts_wrap
.LHOTE21:
	.section	.text.unlikely.sha1_process_wrap,"ax",@progbits
.LCOLDB22:
	.section	.text.sha1_process_wrap,"ax",@progbits
.LHOTB22:
	.type	sha1_process_wrap, @function
sha1_process_wrap:
.LFB25:
	.cfi_startproc
	pushl	%ebp
	.cfi_def_cfa_offset 8
	.cfi_offset 5, -8
	movl	%esp, %ebp
	.cfi_def_cfa_register 5
	popl	%ebp
	.cfi_restore 5
	.cfi_def_cfa 4, 4
	ret
	.cfi_endproc
.LFE25:
	.size	sha1_process_wrap, .-sha1_process_wrap
	.section	.text.unlikely.sha1_process_wrap
.LCOLDE22:
	.section	.text.sha1_process_wrap
.LHOTE22:
	.section	.text.unlikely.md5_process_wrap,"ax",@progbits
.LCOLDB23:
	.section	.text.md5_process_wrap,"ax",@progbits
.LHOTB23:
	.type	md5_process_wrap, @function
md5_process_wrap:
.LFB27:
	.cfi_startproc
	pushl	%ebp
	.cfi_def_cfa_offset 8
	.cfi_offset 5, -8
	movl	%esp, %ebp
	.cfi_def_cfa_register 5
	popl	%ebp
	.cfi_restore 5
	.cfi_def_cfa 4, 4
	ret
	.cfi_endproc
.LFE27:
	.size	md5_process_wrap, .-md5_process_wrap
	.section	.text.unlikely.md5_process_wrap
.LCOLDE23:
	.section	.text.md5_process_wrap
.LHOTE23:
	.globl	mbedtls_sha256_info
	.section	.rodata.str1.1,"aMS",@progbits,1
.LC24:
	.string	"SHA256"
	.section	.rodata.mbedtls_sha256_info,"a",@progbits
	.align 32
	.type	mbedtls_sha256_info, @object
	.size	mbedtls_sha256_info, 48
mbedtls_sha256_info:
	.long	6
	.long	.LC24
	.long	32
	.long	64
	.long	sha256_starts_wrap
	.long	sha224_update_wrap
	.long	sha224_finish_wrap
	.long	sha256_wrap
	.long	sha224_ctx_alloc
	.long	sha224_ctx_free
	.long	sha224_clone_wrap
	.long	sha224_process_wrap
	.globl	mbedtls_sha224_info
	.section	.rodata.str1.1
.LC25:
	.string	"SHA224"
	.section	.rodata.mbedtls_sha224_info,"a",@progbits
	.align 32
	.type	mbedtls_sha224_info, @object
	.size	mbedtls_sha224_info, 48
mbedtls_sha224_info:
	.long	5
	.long	.LC25
	.long	28
	.long	64
	.long	sha224_starts_wrap
	.long	sha224_update_wrap
	.long	sha224_finish_wrap
	.long	sha224_wrap
	.long	sha224_ctx_alloc
	.long	sha224_ctx_free
	.long	sha224_clone_wrap
	.long	sha224_process_wrap
	.globl	mbedtls_sha1_info
	.section	.rodata.str1.1
.LC26:
	.string	"SHA1"
	.section	.rodata.mbedtls_sha1_info,"a",@progbits
	.align 32
	.type	mbedtls_sha1_info, @object
	.size	mbedtls_sha1_info, 48
mbedtls_sha1_info:
	.long	4
	.long	.LC26
	.long	20
	.long	64
	.long	sha1_starts_wrap
	.long	sha1_update_wrap
	.long	sha1_finish_wrap
	.long	mbedtls_sha1_alt
	.long	sha1_ctx_alloc
	.long	sha1_ctx_free
	.long	sha1_clone_wrap
	.long	sha1_process_wrap
	.globl	mbedtls_md5_info
	.section	.rodata.str1.1
.LC27:
	.string	"MD5"
	.section	.rodata.mbedtls_md5_info,"a",@progbits
	.align 32
	.type	mbedtls_md5_info, @object
	.size	mbedtls_md5_info, 48
mbedtls_md5_info:
	.long	3
	.long	.LC27
	.long	16
	.long	64
	.long	md5_starts_wrap
	.long	md5_update_wrap
	.long	md5_finish_wrap
	.long	mbedtls_md5_alt
	.long	md5_ctx_alloc
	.long	md5_ctx_free
	.long	md5_clone_wrap
	.long	md5_process_wrap
	.text
.Letext0:
	.section	.text.unlikely.sha224_process_wrap
.Letext_cold0:
	.file 2 "/home/stone/Documents/Ali_IOT/build/compiler/gcc-arm-none-eabi/Linux64/lib/gcc/arm-none-eabi/5.4.1/include/stddef.h"
	.file 3 "./security/mbedtls/include/mbedtls/md.h"
	.file 4 "./security/mbedtls/include/mbedtls/md_internal.h"
	.file 5 "./security/mbedtls/include/mbedtls/md5_alt.h"
	.file 6 "./security/mbedtls/include/mbedtls/sha1_alt.h"
	.file 7 "./security/mbedtls/include/mbedtls/sha256_alt.h"
	.file 8 "./security/mbedtls/include/mbedtls/platform_alt.h"
	.section	.note.GNU-stack,"",@progbits
