	.file	"mem_stats.c"
	.text
.Ltext0:
	.section	.text.unlikely.LITE_track_malloc_callstack,"ax",@progbits
.LCOLDB0:
	.section	.text.LITE_track_malloc_callstack,"ax",@progbits
.LHOTB0:
	.section	.text.unlikely.LITE_track_malloc_callstack
.Ltext_cold0:
	.section	.text.LITE_track_malloc_callstack
	.globl	LITE_track_malloc_callstack
	.type	LITE_track_malloc_callstack, @function
LITE_track_malloc_callstack:
.LFB18:
	.file 1 "framework/protocol/linkkit/iotkit/base/utils/LITE-utils/src/mem_stats.c"
	.loc 1 94 0
	.cfi_startproc
.LVL0:
	pushl	%ebp
	.cfi_def_cfa_offset 8
	.cfi_offset 5, -8
	movl	%esp, %ebp
	.cfi_def_cfa_register 5
	.loc 1 96 0
	popl	%ebp
	.cfi_restore 5
	.cfi_def_cfa 4, 4
	ret
	.cfi_endproc
.LFE18:
	.size	LITE_track_malloc_callstack, .-LITE_track_malloc_callstack
	.section	.text.unlikely.LITE_track_malloc_callstack
.LCOLDE0:
	.section	.text.LITE_track_malloc_callstack
.LHOTE0:
	.section	.text.unlikely.LITE_realloc_internal,"ax",@progbits
.LCOLDB1:
	.section	.text.LITE_realloc_internal,"ax",@progbits
.LHOTB1:
	.globl	LITE_realloc_internal
	.type	LITE_realloc_internal, @function
LITE_realloc_internal:
.LFB19:
	.loc 1 101 0
	.cfi_startproc
.LVL1:
	pushl	%ebp
	.cfi_def_cfa_offset 8
	.cfi_offset 5, -8
	movl	%esp, %ebp
	.cfi_def_cfa_register 5
	subl	$16, %esp
	.loc 1 140 0
	pushl	20(%ebp)
	pushl	16(%ebp)
	call	realloc
.LVL2:
	.loc 1 142 0
	leave
	.cfi_restore 5
	.cfi_def_cfa 4, 4
	ret
	.cfi_endproc
.LFE19:
	.size	LITE_realloc_internal, .-LITE_realloc_internal
	.section	.text.unlikely.LITE_realloc_internal
.LCOLDE1:
	.section	.text.LITE_realloc_internal
.LHOTE1:
	.section	.text.unlikely.LITE_malloc_internal,"ax",@progbits
.LCOLDB2:
	.section	.text.LITE_malloc_internal,"ax",@progbits
.LHOTB2:
	.globl	LITE_malloc_internal
	.type	LITE_malloc_internal, @function
LITE_malloc_internal:
.LFB20:
	.loc 1 297 0
	.cfi_startproc
.LVL3:
	pushl	%ebp
	.cfi_def_cfa_offset 8
	.cfi_offset 5, -8
	movl	%esp, %ebp
	.cfi_def_cfa_register 5
	pushl	%edi
	subl	$16, %esp
	.cfi_offset 7, -12
	.loc 1 382 0
	pushl	16(%ebp)
	call	HAL_Malloc
.LVL4:
	.loc 1 383 0
	addl	$16, %esp
	testl	%eax, %eax
	.loc 1 382 0
	movl	%eax, %edx
.LVL5:
	.loc 1 383 0
	je	.L6
	.loc 1 386 0
	movl	16(%ebp), %ecx
	xorl	%eax, %eax
.LVL6:
	movl	%edx, %edi
	rep stosb
.L6:
	.loc 1 389 0
	movl	%edx, %eax
	movl	-4(%ebp), %edi
	leave
	.cfi_restore 5
	.cfi_restore 7
	.cfi_def_cfa 4, 4
	ret
	.cfi_endproc
.LFE20:
	.size	LITE_malloc_internal, .-LITE_malloc_internal
	.section	.text.unlikely.LITE_malloc_internal
.LCOLDE2:
	.section	.text.LITE_malloc_internal
.LHOTE2:
	.section	.text.unlikely.LITE_free_internal,"ax",@progbits
.LCOLDB3:
	.section	.text.LITE_free_internal,"ax",@progbits
.LHOTB3:
	.globl	LITE_free_internal
	.type	LITE_free_internal, @function
LITE_free_internal:
.LFB21:
	.loc 1 392 0
	.cfi_startproc
.LVL7:
	pushl	%ebp
	.cfi_def_cfa_offset 8
	.cfi_offset 5, -8
	movl	%esp, %ebp
	.cfi_def_cfa_register 5
	.loc 1 438 0
	popl	%ebp
	.cfi_restore 5
	.cfi_def_cfa 4, 4
	.loc 1 437 0
	jmp	HAL_Free
.LVL8:
	.cfi_endproc
.LFE21:
	.size	LITE_free_internal, .-LITE_free_internal
	.section	.text.unlikely.LITE_free_internal
.LCOLDE3:
	.section	.text.LITE_free_internal
.LHOTE3:
	.section	.text.unlikely.LITE_malloc_routine,"ax",@progbits
.LCOLDB4:
	.section	.text.LITE_malloc_routine,"ax",@progbits
.LHOTB4:
	.globl	LITE_malloc_routine
	.type	LITE_malloc_routine, @function
LITE_malloc_routine:
.LFB22:
	.loc 1 441 0
	.cfi_startproc
.LVL9:
	pushl	%ebp
	.cfi_def_cfa_offset 8
	.cfi_offset 5, -8
	movl	%esp, %ebp
	.cfi_def_cfa_register 5
	subl	$20, %esp
	.loc 1 456 0
	pushl	$0
	pushl	$0
	pushl	8(%ebp)
	pushl	$456
	pushl	$__func__.3620
	call	LITE_malloc_internal
.LVL10:
	.loc 1 457 0
	leave
	.cfi_restore 5
	.cfi_def_cfa 4, 4
	ret
	.cfi_endproc
.LFE22:
	.size	LITE_malloc_routine, .-LITE_malloc_routine
	.section	.text.unlikely.LITE_malloc_routine
.LCOLDE4:
	.section	.text.LITE_malloc_routine
.LHOTE4:
	.section	.text.unlikely.LITE_calloc_routine,"ax",@progbits
.LCOLDB5:
	.section	.text.LITE_calloc_routine,"ax",@progbits
.LHOTB5:
	.globl	LITE_calloc_routine
	.type	LITE_calloc_routine, @function
LITE_calloc_routine:
.LFB23:
	.loc 1 460 0
	.cfi_startproc
.LVL11:
	pushl	%ebp
	.cfi_def_cfa_offset 8
	.cfi_offset 5, -8
	movl	%esp, %ebp
	.cfi_def_cfa_register 5
	subl	$20, %esp
	.loc 1 475 0
	movl	12(%ebp), %eax
	pushl	$0
	imull	8(%ebp), %eax
	pushl	$0
	pushl	%eax
	pushl	$475
	pushl	$__func__.3627
	call	LITE_malloc_internal
.LVL12:
	.loc 1 476 0
	leave
	.cfi_restore 5
	.cfi_def_cfa 4, 4
	ret
	.cfi_endproc
.LFE23:
	.size	LITE_calloc_routine, .-LITE_calloc_routine
	.section	.text.unlikely.LITE_calloc_routine
.LCOLDE5:
	.section	.text.LITE_calloc_routine
.LHOTE5:
	.section	.rodata.str1.1,"aMS",@progbits,1
.LC6:
	.string	"ptr"
.LC7:
	.string	"%s == NULL! LITE_free(%s) aborted."
	.section	.text.unlikely.LITE_free_routine,"ax",@progbits
.LCOLDB8:
	.section	.text.LITE_free_routine,"ax",@progbits
.LHOTB8:
	.globl	LITE_free_routine
	.type	LITE_free_routine, @function
LITE_free_routine:
.LFB24:
	.loc 1 479 0
	.cfi_startproc
.LVL13:
	pushl	%ebp
	.cfi_def_cfa_offset 8
	.cfi_offset 5, -8
	movl	%esp, %ebp
	.cfi_def_cfa_register 5
	subl	$8, %esp
	.loc 1 479 0
	movl	8(%ebp), %eax
	.loc 1 480 0
	testl	%eax, %eax
	jne	.L19
	.loc 1 480 0 is_stmt 0 discriminator 1
	pushl	%eax
	pushl	%eax
	pushl	$.LC6
	pushl	$.LC6
	pushl	$.LC7
	pushl	$2
	pushl	$480
	pushl	$__FUNCTION__.3631
	call	LITE_syslog
.LVL14:
	addl	$32, %esp
	.loc 1 481 0 is_stmt 1 discriminator 1
	leave
	.cfi_remember_state
	.cfi_restore 5
	.cfi_def_cfa 4, 4
	ret
.L19:
	.cfi_restore_state
.LVL15:
.LBB4:
.LBB5:
	.loc 1 437 0
	movl	%eax, 8(%ebp)
.LVL16:
.LBE5:
.LBE4:
	.loc 1 481 0
	leave
	.cfi_restore 5
	.cfi_def_cfa 4, 4
.LBB7:
.LBB6:
	.loc 1 437 0
	jmp	HAL_Free
.LVL17:
.LBE6:
.LBE7:
	.cfi_endproc
.LFE24:
	.size	LITE_free_routine, .-LITE_free_routine
	.section	.text.unlikely.LITE_free_routine
.LCOLDE8:
	.section	.text.LITE_free_routine
.LHOTE8:
	.section	.rodata.str1.1
.LC9:
	.string	"WITH_MEM_STATS = %d"
	.section	.text.unlikely.LITE_dump_malloc_free_stats,"ax",@progbits
.LCOLDB10:
	.section	.text.LITE_dump_malloc_free_stats,"ax",@progbits
.LHOTB10:
	.globl	LITE_dump_malloc_free_stats
	.type	LITE_dump_malloc_free_stats, @function
LITE_dump_malloc_free_stats:
.LFB25:
	.loc 1 484 0
	.cfi_startproc
.LVL18:
	pushl	%ebp
	.cfi_def_cfa_offset 8
	.cfi_offset 5, -8
	movl	%esp, %ebp
	.cfi_def_cfa_register 5
	subl	$20, %esp
	.loc 1 594 0
	pushl	$0
	pushl	$.LC9
	pushl	$2
	pushl	$594
	pushl	$__FUNCTION__.3636
	call	LITE_syslog
.LVL19:
	.loc 1 597 0
	addl	$32, %esp
	.loc 1 598 0
	leave
	.cfi_restore 5
	.cfi_def_cfa 4, 4
	ret
	.cfi_endproc
.LFE25:
	.size	LITE_dump_malloc_free_stats, .-LITE_dump_malloc_free_stats
	.section	.text.unlikely.LITE_dump_malloc_free_stats
.LCOLDE10:
	.section	.text.LITE_dump_malloc_free_stats
.LHOTE10:
	.section	.rodata.__FUNCTION__.3636,"a",@progbits
	.align 4
	.type	__FUNCTION__.3636, @object
	.size	__FUNCTION__.3636, 28
__FUNCTION__.3636:
	.string	"LITE_dump_malloc_free_stats"
	.section	.rodata.__FUNCTION__.3631,"a",@progbits
	.align 4
	.type	__FUNCTION__.3631, @object
	.size	__FUNCTION__.3631, 18
__FUNCTION__.3631:
	.string	"LITE_free_routine"
	.section	.rodata.__func__.3627,"a",@progbits
	.align 4
	.type	__func__.3627, @object
	.size	__func__.3627, 20
__func__.3627:
	.string	"LITE_calloc_routine"
	.section	.rodata.__func__.3620,"a",@progbits
	.align 4
	.type	__func__.3620, @object
	.size	__func__.3620, 20
__func__.3620:
	.string	"LITE_malloc_routine"
	.globl	mem_recs
	.section	.data.mem_recs,"aw",@progbits
	.align 4
	.type	mem_recs, @object
	.size	mem_recs, 8
mem_recs:
	.long	mem_recs
	.long	mem_recs
	.text
.Letext0:
	.section	.text.unlikely.LITE_track_malloc_callstack
.Letext_cold0:
	.file 2 "framework/protocol/linkkit/iotkit/base/utils/LITE-utils/src/lite-list.h"
	.file 3 "/home/stone/Documents/Ali_IOT/build/compiler/gcc-arm-none-eabi/Linux64/arm-none-eabi/include/stdlib.h"
	.file 4 "./framework/protocol/linkkit/iotkit/sdk-encap/iot_import.h"
	.file 5 "./framework/protocol/linkkit/iotkit/base/log/LITE-log/lite-log.h"
	.file 6 "/home/stone/Documents/Ali_IOT/build/compiler/gcc-arm-none-eabi/Linux64/lib/gcc/arm-none-eabi/5.4.1/include/stddef.h"
	.section	.note.GNU-stack,"",@progbits
