	.file	"memp.c"
	.text
.Ltext0:
	.section	.text.unlikely.do_memp_malloc_pool.isra.0,"ax",@progbits
.LCOLDB0:
	.section	.text.do_memp_malloc_pool.isra.0,"ax",@progbits
.LHOTB0:
	.section	.text.unlikely.do_memp_malloc_pool.isra.0
.Ltext_cold0:
	.section	.text.do_memp_malloc_pool.isra.0
	.type	do_memp_malloc_pool.isra.0, @function
do_memp_malloc_pool.isra.0:
.LFB31:
	.file 1 "kernel/protocols/net/core/memp.c"
	.loc 1 289 0
	.cfi_startproc
.LVL0:
	pushl	%ebp
	.cfi_def_cfa_offset 8
	.cfi_offset 5, -8
	.loc 1 298 0
	movzwl	%ax, %eax
	addl	$3, %eax
	.loc 1 289 0
	movl	%esp, %ebp
	.cfi_def_cfa_register 5
	pushl	%ebx
	.loc 1 298 0
	andl	$-4, %eax
	.loc 1 289 0
	subl	$16, %esp
	.cfi_offset 3, -12
	.loc 1 298 0
	pushl	%eax
	call	mem_malloc
.LVL1:
	movl	%eax, %ebx
.LVL2:
	.loc 1 299 0
	call	sys_arch_protect
.LVL3:
	.loc 1 311 0
	addl	$16, %esp
	testl	%ebx, %ebx
	je	.L2
	.loc 1 333 0
	subl	$12, %esp
	pushl	%eax
	call	sys_arch_unprotect
.LVL4:
	addl	$16, %esp
	movl	%ebx, %eax
	jmp	.L3
.LVL5:
.L2:
	.loc 1 343 0
	subl	$12, %esp
	pushl	%eax
	call	sys_arch_unprotect
.LVL6:
	addl	$16, %esp
	.loc 1 344 0
	xorl	%eax, %eax
.L3:
	.loc 1 345 0
	movl	-4(%ebp), %ebx
.LVL7:
	leave
	.cfi_restore 5
	.cfi_restore 3
	.cfi_def_cfa 4, 4
	ret
	.cfi_endproc
.LFE31:
	.size	do_memp_malloc_pool.isra.0, .-do_memp_malloc_pool.isra.0
	.section	.text.unlikely.do_memp_malloc_pool.isra.0
.LCOLDE0:
	.section	.text.do_memp_malloc_pool.isra.0
.LHOTE0:
	.section	.text.unlikely.memp_init_pool,"ax",@progbits
.LCOLDB1:
	.section	.text.memp_init_pool,"ax",@progbits
.LHOTB1:
	.globl	memp_init_pool
	.type	memp_init_pool, @function
memp_init_pool:
.LFB23:
	.loc 1 228 0
	.cfi_startproc
.LVL8:
	pushl	%ebp
	.cfi_def_cfa_offset 8
	.cfi_offset 5, -8
	movl	%esp, %ebp
	.cfi_def_cfa_register 5
	.loc 1 259 0
	popl	%ebp
	.cfi_restore 5
	.cfi_def_cfa 4, 4
	ret
	.cfi_endproc
.LFE23:
	.size	memp_init_pool, .-memp_init_pool
	.section	.text.unlikely.memp_init_pool
.LCOLDE1:
	.section	.text.memp_init_pool
.LHOTE1:
	.section	.text.unlikely.memp_init,"ax",@progbits
.LCOLDB2:
	.section	.text.memp_init,"ax",@progbits
.LHOTB2:
	.globl	memp_init
	.type	memp_init, @function
memp_init:
.LFB24:
	.loc 1 269 0
	.cfi_startproc
.LVL9:
	pushl	%ebp
	.cfi_def_cfa_offset 8
	.cfi_offset 5, -8
	movl	%esp, %ebp
	.cfi_def_cfa_register 5
	.loc 1 285 0
	popl	%ebp
	.cfi_restore 5
	.cfi_def_cfa 4, 4
	ret
	.cfi_endproc
.LFE24:
	.size	memp_init, .-memp_init
	.section	.text.unlikely.memp_init
.LCOLDE2:
	.section	.text.memp_init
.LHOTE2:
	.section	.text.unlikely.memp_malloc_pool,"ax",@progbits
.LCOLDB3:
	.section	.text.memp_malloc_pool,"ax",@progbits
.LHOTB3:
	.globl	memp_malloc_pool
	.type	memp_malloc_pool, @function
memp_malloc_pool:
.LFB26:
	.loc 1 360 0
	.cfi_startproc
.LVL10:
	pushl	%ebp
	.cfi_def_cfa_offset 8
	.cfi_offset 5, -8
	movl	%esp, %ebp
	.cfi_def_cfa_register 5
	.loc 1 360 0
	movl	8(%ebp), %eax
	.loc 1 362 0
	testl	%eax, %eax
	je	.L11
	.loc 1 371 0
	popl	%ebp
	.cfi_remember_state
	.cfi_restore 5
	.cfi_def_cfa 4, 4
	.loc 1 367 0
	movw	4(%eax), %ax
	jmp	do_memp_malloc_pool.isra.0
.LVL11:
.L11:
	.cfi_restore_state
	.loc 1 371 0
	xorl	%eax, %eax
.LVL12:
	popl	%ebp
	.cfi_restore 5
	.cfi_def_cfa 4, 4
	ret
	.cfi_endproc
.LFE26:
	.size	memp_malloc_pool, .-memp_malloc_pool
	.section	.text.unlikely.memp_malloc_pool
.LCOLDE3:
	.section	.text.memp_malloc_pool
.LHOTE3:
	.section	.rodata.str1.1,"aMS",@progbits,1
.LC4:
	.string	"memp_malloc: type < MEMP_MAX"
	.section	.text.unlikely.memp_malloc,"ax",@progbits
.LCOLDB5:
	.section	.text.memp_malloc,"ax",@progbits
.LHOTB5:
	.globl	memp_malloc
	.type	memp_malloc, @function
memp_malloc:
.LFB27:
	.loc 1 386 0
	.cfi_startproc
.LVL13:
	pushl	%ebp
	.cfi_def_cfa_offset 8
	.cfi_offset 5, -8
	movl	%esp, %ebp
	.cfi_def_cfa_register 5
	subl	$8, %esp
	.loc 1 386 0
	movl	8(%ebp), %eax
	.loc 1 388 0
	cmpl	$13, %eax
	ja	.L17
	movl	memp_pools(,%eax,4), %eax
	.loc 1 395 0
	movw	4(%eax), %ax
	.loc 1 401 0
	leave
	.cfi_remember_state
	.cfi_restore 5
	.cfi_def_cfa 4, 4
	.loc 1 395 0
	jmp	do_memp_malloc_pool.isra.0
.LVL14:
.L17:
	.cfi_restore_state
	.loc 1 388 0 discriminator 1
	subl	$12, %esp
	pushl	$.LC4
	call	bk_printf
.LVL15:
	.loc 1 388 0 discriminator 1
	addl	$16, %esp
	.loc 1 401 0 discriminator 1
	xorl	%eax, %eax
	leave
	.cfi_restore 5
	.cfi_def_cfa 4, 4
	ret
	.cfi_endproc
.LFE27:
	.size	memp_malloc, .-memp_malloc
	.section	.text.unlikely.memp_malloc
.LCOLDE5:
	.section	.text.memp_malloc
.LHOTE5:
	.section	.text.unlikely.memp_free_pool,"ax",@progbits
.LCOLDB6:
	.section	.text.memp_free_pool,"ax",@progbits
.LHOTB6:
	.globl	memp_free_pool
	.type	memp_free_pool, @function
memp_free_pool:
.LFB29:
	.loc 1 450 0
	.cfi_startproc
.LVL16:
	pushl	%ebp
	.cfi_def_cfa_offset 8
	.cfi_offset 5, -8
	movl	%esp, %ebp
	.cfi_def_cfa_register 5
	pushl	%ebx
	pushl	%eax
	.cfi_offset 3, -12
	.loc 1 452 0
	cmpl	$0, 8(%ebp)
	.loc 1 450 0
	movl	12(%ebp), %ebx
	.loc 1 452 0
	je	.L19
	testl	%ebx, %ebx
	je	.L19
.LVL17:
.LBB6:
.LBB7:
	.loc 1 415 0
	call	sys_arch_protect
.LVL18:
	.loc 1 428 0
	subl	$12, %esp
	pushl	%eax
	call	sys_arch_unprotect
.LVL19:
	.loc 1 429 0
	movl	%ebx, 8(%ebp)
.LVL20:
	addl	$16, %esp
.LBE7:
.LBE6:
	.loc 1 457 0
	movl	-4(%ebp), %ebx
.LVL21:
	leave
	.cfi_remember_state
	.cfi_restore 5
	.cfi_restore 3
	.cfi_def_cfa 4, 4
.LBB9:
.LBB8:
	.loc 1 429 0
	jmp	mem_free
.LVL22:
.L19:
	.cfi_restore_state
.LBE8:
.LBE9:
	.loc 1 457 0
	movl	-4(%ebp), %ebx
	leave
	.cfi_restore 5
	.cfi_restore 3
	.cfi_def_cfa 4, 4
	ret
	.cfi_endproc
.LFE29:
	.size	memp_free_pool, .-memp_free_pool
	.section	.text.unlikely.memp_free_pool
.LCOLDE6:
	.section	.text.memp_free_pool
.LHOTE6:
	.section	.rodata.str1.1
.LC7:
	.string	"memp_free: type < MEMP_MAX"
	.section	.text.unlikely.memp_free,"ax",@progbits
.LCOLDB8:
	.section	.text.memp_free,"ax",@progbits
.LHOTB8:
	.globl	memp_free
	.type	memp_free, @function
memp_free:
.LFB30:
	.loc 1 467 0
	.cfi_startproc
.LVL23:
	pushl	%ebp
	.cfi_def_cfa_offset 8
	.cfi_offset 5, -8
	movl	%esp, %ebp
	.cfi_def_cfa_register 5
	pushl	%ebx
	pushl	%eax
	.cfi_offset 3, -12
	.loc 1 472 0
	cmpl	$13, 8(%ebp)
	.loc 1 467 0
	movl	12(%ebp), %ebx
	.loc 1 472 0
	jbe	.L23
	.loc 1 472 0 is_stmt 0 discriminator 1
	movl	$.LC7, 8(%ebp)
.LVL24:
	.loc 1 489 0 is_stmt 1 discriminator 1
	movl	-4(%ebp), %ebx
	leave
	.cfi_remember_state
	.cfi_restore 5
	.cfi_restore 3
	.cfi_def_cfa 4, 4
	.loc 1 472 0 discriminator 1
	jmp	bk_printf
.LVL25:
.L23:
	.cfi_restore_state
.LBB12:
.LBB13:
	.loc 1 415 0
	call	sys_arch_protect
.LVL26:
	.loc 1 428 0
	subl	$12, %esp
	pushl	%eax
	call	sys_arch_unprotect
.LVL27:
	.loc 1 429 0
	movl	%ebx, 8(%ebp)
.LVL28:
	addl	$16, %esp
.LBE13:
.LBE12:
	.loc 1 489 0
	movl	-4(%ebp), %ebx
.LVL29:
	leave
	.cfi_restore 5
	.cfi_restore 3
	.cfi_def_cfa 4, 4
.LBB15:
.LBB14:
	.loc 1 429 0
	jmp	mem_free
.LVL30:
.LBE14:
.LBE15:
	.cfi_endproc
.LFE30:
	.size	memp_free, .-memp_free
	.section	.text.unlikely.memp_free
.LCOLDE8:
	.section	.text.memp_free
.LHOTE8:
	.globl	memp_pools
	.section	.rodata.memp_pools,"a",@progbits
	.align 32
	.type	memp_pools, @object
	.size	memp_pools, 56
memp_pools:
	.long	memp_RAW_PCB
	.long	memp_UDP_PCB
	.long	memp_TCP_PCB
	.long	memp_TCP_PCB_LISTEN
	.long	memp_TCP_SEG
	.long	memp_NETBUF
	.long	memp_NETCONN
	.long	memp_TCPIP_MSG_API
	.long	memp_TCPIP_MSG_INPKT
	.long	memp_IGMP_GROUP
	.long	memp_SYS_TIMEOUT
	.long	memp_NETDB
	.long	memp_PBUF
	.long	memp_PBUF_POOL
	.globl	memp_PBUF_POOL
	.section	.rodata.str1.1
.LC9:
	.string	"PBUF_POOL"
	.section	.rodata.memp_PBUF_POOL,"a",@progbits
	.align 4
	.type	memp_PBUF_POOL, @object
	.size	memp_PBUF_POOL, 8
memp_PBUF_POOL:
	.long	.LC9
	.value	1596
	.zero	2
	.globl	memp_PBUF
	.section	.rodata.str1.1
.LC10:
	.string	"PBUF_REF/ROM"
	.section	.rodata.memp_PBUF,"a",@progbits
	.align 4
	.type	memp_PBUF, @object
	.size	memp_PBUF, 8
memp_PBUF:
	.long	.LC10
	.value	16
	.zero	2
	.globl	memp_NETDB
	.section	.rodata.str1.1
.LC11:
	.string	"NETDB"
	.section	.rodata.memp_NETDB,"a",@progbits
	.align 4
	.type	memp_NETDB, @object
	.size	memp_NETDB, 8
memp_NETDB:
	.long	.LC11
	.value	308
	.zero	2
	.globl	memp_SYS_TIMEOUT
	.section	.rodata.str1.1
.LC12:
	.string	"SYS_TIMEOUT"
	.section	.rodata.memp_SYS_TIMEOUT,"a",@progbits
	.align 4
	.type	memp_SYS_TIMEOUT, @object
	.size	memp_SYS_TIMEOUT, 8
memp_SYS_TIMEOUT:
	.long	.LC12
	.value	16
	.zero	2
	.globl	memp_IGMP_GROUP
	.section	.rodata.str1.1
.LC13:
	.string	"IGMP_GROUP"
	.section	.rodata.memp_IGMP_GROUP,"a",@progbits
	.align 4
	.type	memp_IGMP_GROUP, @object
	.size	memp_IGMP_GROUP, 8
memp_IGMP_GROUP:
	.long	.LC13
	.value	16
	.zero	2
	.globl	memp_TCPIP_MSG_INPKT
	.section	.rodata.str1.1
.LC14:
	.string	"TCPIP_MSG_INPKT"
	.section	.rodata.memp_TCPIP_MSG_INPKT,"a",@progbits
	.align 4
	.type	memp_TCPIP_MSG_INPKT, @object
	.size	memp_TCPIP_MSG_INPKT, 8
memp_TCPIP_MSG_INPKT:
	.long	.LC14
	.value	16
	.zero	2
	.globl	memp_TCPIP_MSG_API
	.section	.rodata.str1.1
.LC15:
	.string	"TCPIP_MSG_API"
	.section	.rodata.memp_TCPIP_MSG_API,"a",@progbits
	.align 4
	.type	memp_TCPIP_MSG_API, @object
	.size	memp_TCPIP_MSG_API, 8
memp_TCPIP_MSG_API:
	.long	.LC15
	.value	16
	.zero	2
	.globl	memp_NETCONN
	.section	.rodata.str1.1
.LC16:
	.string	"NETCONN"
	.section	.rodata.memp_NETCONN,"a",@progbits
	.align 4
	.type	memp_NETCONN, @object
	.size	memp_NETCONN, 8
memp_NETCONN:
	.long	.LC16
	.value	56
	.zero	2
	.globl	memp_NETBUF
	.section	.rodata.str1.1
.LC17:
	.string	"NETBUF"
	.section	.rodata.memp_NETBUF,"a",@progbits
	.align 4
	.type	memp_NETBUF, @object
	.size	memp_NETBUF, 8
memp_NETBUF:
	.long	.LC17
	.value	16
	.zero	2
	.globl	memp_TCP_SEG
	.section	.rodata.str1.1
.LC18:
	.string	"TCP_SEG"
	.section	.rodata.memp_TCP_SEG,"a",@progbits
	.align 4
	.type	memp_TCP_SEG, @object
	.size	memp_TCP_SEG, 8
memp_TCP_SEG:
	.long	.LC18
	.value	20
	.zero	2
	.globl	memp_TCP_PCB_LISTEN
	.section	.rodata.str1.1
.LC19:
	.string	"TCP_PCB_LISTEN"
	.section	.rodata.memp_TCP_PCB_LISTEN,"a",@progbits
	.align 4
	.type	memp_TCP_PCB_LISTEN, @object
	.size	memp_TCP_PCB_LISTEN, 8
memp_TCP_PCB_LISTEN:
	.long	.LC19
	.value	36
	.zero	2
	.globl	memp_TCP_PCB
	.section	.rodata.str1.1
.LC20:
	.string	"TCP_PCB"
	.section	.rodata.memp_TCP_PCB,"a",@progbits
	.align 4
	.type	memp_TCP_PCB, @object
	.size	memp_TCP_PCB, 8
memp_TCP_PCB:
	.long	.LC20
	.value	164
	.zero	2
	.globl	memp_UDP_PCB
	.section	.rodata.str1.1
.LC21:
	.string	"UDP_PCB"
	.section	.rodata.memp_UDP_PCB,"a",@progbits
	.align 4
	.type	memp_UDP_PCB, @object
	.size	memp_UDP_PCB, 8
memp_UDP_PCB:
	.long	.LC21
	.value	40
	.zero	2
	.globl	memp_RAW_PCB
	.section	.rodata.str1.1
.LC22:
	.string	"RAW_PCB"
	.section	.rodata.memp_RAW_PCB,"a",@progbits
	.align 4
	.type	memp_RAW_PCB, @object
	.size	memp_RAW_PCB, 8
memp_RAW_PCB:
	.long	.LC22
	.value	28
	.zero	2
	.text
.Letext0:
	.section	.text.unlikely.do_memp_malloc_pool.isra.0
.Letext_cold0:
	.file 2 "././platform/mcu/moc108/include/lwip-2.0.2/arch/cc.h"
	.file 3 "./kernel/protocols/net/include/lwip/memp.h"
	.file 4 "./kernel/protocols/net/include/lwip/priv/memp_priv.h"
	.file 5 "./kernel/protocols/net/port/include/arch/sys_arch.h"
	.file 6 "./include/aos/log.h"
	.file 7 "./kernel/protocols/net/include/lwip/priv/memp_std.h"
	.file 8 "./kernel/protocols/net/include/lwip/mem.h"
	.file 9 "./kernel/protocols/net/include/lwip/sys.h"
	.file 10 "././platform/mcu/moc108/include/driver/uart_pub.h"
	.file 11 "./kernel/protocols/net/include/lwip/netif.h"
	.section	.note.GNU-stack,"",@progbits
