	.file	"memq.c"
	.text
.Ltext0:
	.section	.text.unlikely.memq_init,"ax",@progbits
.LCOLDB0:
	.section	.text.memq_init,"ax",@progbits
.LHOTB0:
	.section	.text.unlikely.memq_init
.Ltext_cold0:
	.section	.text.memq_init
	.globl	memq_init
	.type	memq_init, @function
memq_init:
.LFB0:
	.file 1 "src/memq.c"
	.loc 1 74 0
	.cfi_startproc
.LVL0:
	pushl	%ebp
	.cfi_def_cfa_offset 8
	.cfi_offset 5, -8
	movl	%esp, %ebp
	.cfi_def_cfa_register 5
	.loc 1 74 0
	movl	8(%ebp), %eax
	.loc 1 75 0
	movl	16(%ebp), %edx
	movl	%eax, (%edx)
	movl	12(%ebp), %edx
	movl	%eax, (%edx)
	.loc 1 77 0
	popl	%ebp
	.cfi_restore 5
	.cfi_def_cfa 4, 4
	ret
	.cfi_endproc
.LFE0:
	.size	memq_init, .-memq_init
	.section	.text.unlikely.memq_init
.LCOLDE0:
	.section	.text.memq_init
.LHOTE0:
	.section	.text.unlikely.memq_enqueue,"ax",@progbits
.LCOLDB1:
	.section	.text.memq_enqueue,"ax",@progbits
.LHOTB1:
	.globl	memq_enqueue
	.type	memq_enqueue, @function
memq_enqueue:
.LFB1:
	.loc 1 79 0
	.cfi_startproc
.LVL1:
	pushl	%ebp
	.cfi_def_cfa_offset 8
	.cfi_offset 5, -8
	movl	%esp, %ebp
	.cfi_def_cfa_register 5
	pushl	%ebx
	.cfi_offset 3, -12
	.loc 1 79 0
	movl	16(%ebp), %edx
	movl	8(%ebp), %eax
	.loc 1 81 0
	movl	12(%ebp), %ebx
	.loc 1 80 0
	movl	(%edx), %ecx
	movl	%eax, (%ecx)
	.loc 1 81 0
	movl	(%edx), %ecx
	movl	%ebx, 4(%ecx)
	.loc 1 82 0
	movl	%eax, (%edx)
	.loc 1 84 0
	popl	%ebx
	.cfi_restore 3
	popl	%ebp
	.cfi_restore 5
	.cfi_def_cfa 4, 4
	ret
	.cfi_endproc
.LFE1:
	.size	memq_enqueue, .-memq_enqueue
	.section	.text.unlikely.memq_enqueue
.LCOLDE1:
	.section	.text.memq_enqueue
.LHOTE1:
	.section	.text.unlikely.memq_peek,"ax",@progbits
.LCOLDB2:
	.section	.text.memq_peek,"ax",@progbits
.LHOTB2:
	.globl	memq_peek
	.type	memq_peek, @function
memq_peek:
.LFB2:
	.loc 1 86 0
	.cfi_startproc
.LVL2:
	pushl	%ebp
	.cfi_def_cfa_offset 8
	.cfi_offset 5, -8
	.loc 1 89 0
	xorl	%eax, %eax
	.loc 1 86 0
	movl	%esp, %ebp
	.cfi_def_cfa_register 5
	.loc 1 86 0
	movl	8(%ebp), %edx
	.loc 1 87 0
	cmpl	12(%ebp), %edx
	.loc 1 86 0
	movl	16(%ebp), %ecx
	.loc 1 87 0
	je	.L6
	.loc 1 92 0
	testl	%ecx, %ecx
	movl	%edx, %eax
	je	.L6
	.loc 1 93 0
	movl	4(%edx), %eax
	movl	%eax, (%ecx)
	movl	%edx, %eax
.LVL3:
.L6:
	.loc 1 96 0
	popl	%ebp
	.cfi_restore 5
	.cfi_def_cfa 4, 4
	ret
	.cfi_endproc
.LFE2:
	.size	memq_peek, .-memq_peek
	.section	.text.unlikely.memq_peek
.LCOLDE2:
	.section	.text.memq_peek
.LHOTE2:
	.section	.text.unlikely.memq_dequeue,"ax",@progbits
.LCOLDB3:
	.section	.text.memq_dequeue,"ax",@progbits
.LHOTB3:
	.globl	memq_dequeue
	.type	memq_dequeue, @function
memq_dequeue:
.LFB3:
	.loc 1 98 0
	.cfi_startproc
.LVL4:
	pushl	%ebp
	.cfi_def_cfa_offset 8
	.cfi_offset 5, -8
	movl	%esp, %ebp
	.cfi_def_cfa_register 5
	pushl	%ebx
	.cfi_offset 3, -12
	.loc 1 98 0
	movl	12(%ebp), %edx
	movl	16(%ebp), %ecx
	.loc 1 100 0
	movl	(%edx), %eax
.LVL5:
.LBB4:
.LBB5:
	.loc 1 87 0
	cmpl	8(%ebp), %eax
	je	.L15
	.loc 1 92 0
	testl	%ecx, %ecx
	je	.L13
	.loc 1 93 0
	movl	4(%eax), %ebx
	movl	%ebx, (%ecx)
.LVL6:
	jmp	.L14
.LVL7:
.L13:
.LBE5:
.LBE4:
	.loc 1 101 0
	testl	%eax, %eax
	je	.L12
.L14:
	.loc 1 104 0
	movl	(%eax), %ecx
	movl	%ecx, (%edx)
	.loc 1 105 0
	jmp	.L12
.LVL8:
.L15:
.LBB7:
.LBB6:
	.loc 1 89 0
	xorl	%eax, %eax
.LVL9:
.L12:
.LBE6:
.LBE7:
	.loc 1 106 0
	popl	%ebx
	.cfi_restore 3
	popl	%ebp
	.cfi_restore 5
	.cfi_def_cfa 4, 4
	ret
	.cfi_endproc
.LFE3:
	.size	memq_dequeue, .-memq_dequeue
	.section	.text.unlikely.memq_dequeue
.LCOLDE3:
	.section	.text.memq_dequeue
.LHOTE3:
	.text
.Letext0:
	.section	.text.unlikely.memq_init
.Letext_cold0:
	.section	.note.GNU-stack,"",@progbits
