	.file	"mesh_wifi_hal.c"
	.text
.Ltext0:
	.section	.text.unlikely.beken_wifi_mesh_register,"ax",@progbits
.LCOLDB0:
	.section	.text.beken_wifi_mesh_register,"ax",@progbits
.LHOTB0:
	.section	.text.unlikely.beken_wifi_mesh_register
.Ltext_cold0:
	.section	.text.beken_wifi_mesh_register
	.globl	beken_wifi_mesh_register
	.type	beken_wifi_mesh_register, @function
beken_wifi_mesh_register:
.LFB0:
	.file 1 "platform/mcu/moc108/hal/mesh_wifi_hal.c"
	.loc 1 444 0
	.cfi_startproc
	pushl	%ebp
	.cfi_def_cfa_offset 8
	.cfi_offset 5, -8
	movl	%esp, %ebp
	.cfi_def_cfa_register 5
	.loc 1 448 0
	popl	%ebp
	.cfi_restore 5
	.cfi_def_cfa 4, 4
	ret
	.cfi_endproc
.LFE0:
	.size	beken_wifi_mesh_register, .-beken_wifi_mesh_register
	.section	.text.unlikely.beken_wifi_mesh_register
.LCOLDE0:
	.section	.text.beken_wifi_mesh_register
.LHOTE0:
	.text
.Letext0:
	.section	.text.unlikely.beken_wifi_mesh_register
.Letext_cold0:
	.section	.note.GNU-stack,"",@progbits
