	.file	"mico_rhino.c"
	.text
.Ltext0:
	.section	.text.unlikely.timmer_wrapper,"ax",@progbits
.LCOLDB0:
	.section	.text.timmer_wrapper,"ax",@progbits
.LHOTB0:
	.section	.text.unlikely.timmer_wrapper
.Ltext_cold0:
	.section	.text.timmer_wrapper
	.type	timmer_wrapper, @function
timmer_wrapper:
.LFB40:
	.file 1 "kernel/vcall/mico/mico_rhino.c"
	.loc 1 362 0
	.cfi_startproc
.LVL0:
	pushl	%ebp
	.cfi_def_cfa_offset 8
	.cfi_offset 5, -8
	movl	%esp, %ebp
	.cfi_def_cfa_register 5
	.loc 1 362 0
	movl	12(%ebp), %edx
.LVL1:
	.loc 1 367 0
	movl	4(%edx), %eax
	testl	%eax, %eax
	je	.L1
	.loc 1 368 0
	movl	8(%edx), %edx
	movl	%edx, 8(%ebp)
.LVL2:
	.loc 1 370 0
	popl	%ebp
	.cfi_remember_state
	.cfi_restore 5
	.cfi_def_cfa 4, 4
	.loc 1 368 0
	jmp	*%eax
.LVL3:
.L1:
	.cfi_restore_state
	.loc 1 370 0
	popl	%ebp
	.cfi_restore 5
	.cfi_def_cfa 4, 4
	ret
	.cfi_endproc
.LFE40:
	.size	timmer_wrapper, .-timmer_wrapper
	.section	.text.unlikely.timmer_wrapper
.LCOLDE0:
	.section	.text.timmer_wrapper
.LHOTE0:
	.section	.text.unlikely.mico_rtos_create_thread,"ax",@progbits
.LCOLDB1:
	.section	.text.mico_rtos_create_thread,"ax",@progbits
.LHOTB1:
	.globl	mico_rtos_create_thread
	.type	mico_rtos_create_thread, @function
mico_rtos_create_thread:
.LFB15:
	.loc 1 19 0
	.cfi_startproc
.LVL4:
	pushl	%ebp
	.cfi_def_cfa_offset 8
	.cfi_offset 5, -8
	movl	%esp, %ebp
	.cfi_def_cfa_register 5
	pushl	%edi
	pushl	%esi
	pushl	%ebx
	subl	$28, %esp
	.cfi_offset 7, -12
	.cfi_offset 6, -16
	.cfi_offset 3, -20
	.loc 1 19 0
	movl	8(%ebp), %esi
	movl	16(%ebp), %edx
	movl	%gs:20, %ebx
	movl	%ebx, -28(%ebp)
	xorl	%ebx, %ebx
	movl	20(%ebp), %edi
	movl	24(%ebp), %eax
	.loc 1 23 0
	testl	%esi, %esi
	.loc 1 19 0
	movl	28(%ebp), %ecx
	movzbl	12(%ebp), %ebx
	.loc 1 23 0
	jne	.L6
	.loc 1 24 0
	subl	$12, %esp
	shrl	$2, %eax
	pushl	$1
	pushl	%edi
	pushl	%eax
	leal	-32(%ebp), %eax
	pushl	$0
	pushl	$0
	pushl	%ebx
	pushl	%ecx
	pushl	%edx
	pushl	%eax
	jmp	.L10
.L6:
	.loc 1 26 0
	subl	$12, %esp
	shrl	$2, %eax
	pushl	$1
	pushl	%edi
	pushl	%eax
	pushl	$0
	pushl	$0
	pushl	%ebx
	pushl	%ecx
	pushl	%edx
	pushl	%esi
.L10:
	call	krhino_task_dyn_create
.LVL5:
	addl	$48, %esp
	testl	%eax, %eax
	setne	%al
.LVL6:
	movzbl	%al, %eax
	negl	%eax
	.loc 1 34 0
	movl	-28(%ebp), %edx
	xorl	%gs:20, %edx
	je	.L8
	call	__stack_chk_fail
.LVL7:
.L8:
	leal	-12(%ebp), %esp
	popl	%ebx
	.cfi_restore 3
	popl	%esi
	.cfi_restore 6
	popl	%edi
	.cfi_restore 7
	popl	%ebp
	.cfi_restore 5
	.cfi_def_cfa 4, 4
	ret
	.cfi_endproc
.LFE15:
	.size	mico_rtos_create_thread, .-mico_rtos_create_thread
	.section	.text.unlikely.mico_rtos_create_thread
.LCOLDE1:
	.section	.text.mico_rtos_create_thread
.LHOTE1:
	.section	.text.unlikely.mico_rtos_delete_thread,"ax",@progbits
.LCOLDB2:
	.section	.text.mico_rtos_delete_thread,"ax",@progbits
.LHOTB2:
	.globl	mico_rtos_delete_thread
	.type	mico_rtos_delete_thread, @function
mico_rtos_delete_thread:
.LFB16:
	.loc 1 37 0
	.cfi_startproc
.LVL8:
	pushl	%ebp
	.cfi_def_cfa_offset 8
	.cfi_offset 5, -8
	movl	%esp, %ebp
	.cfi_def_cfa_register 5
	subl	$8, %esp
	.loc 1 37 0
	movl	8(%ebp), %eax
	.loc 1 40 0
	testl	%eax, %eax
	jne	.L12
	.loc 1 41 0
	subl	$12, %esp
	pushl	$0
	jmp	.L15
.L12:
	.loc 1 43 0
	subl	$12, %esp
	pushl	(%eax)
.L15:
	call	krhino_task_dyn_del
.LVL9:
	addl	$16, %esp
	testl	%eax, %eax
	setne	%al
.LVL10:
	.loc 1 51 0
	leave
	.cfi_restore 5
	.cfi_def_cfa 4, 4
	movzbl	%al, %eax
	negl	%eax
	ret
	.cfi_endproc
.LFE16:
	.size	mico_rtos_delete_thread, .-mico_rtos_delete_thread
	.section	.text.unlikely.mico_rtos_delete_thread
.LCOLDE2:
	.section	.text.mico_rtos_delete_thread
.LHOTE2:
	.section	.text.unlikely.mico_rtos_suspend_thread,"ax",@progbits
.LCOLDB3:
	.section	.text.mico_rtos_suspend_thread,"ax",@progbits
.LHOTB3:
	.globl	mico_rtos_suspend_thread
	.type	mico_rtos_suspend_thread, @function
mico_rtos_suspend_thread:
.LFB17:
	.loc 1 54 0
	.cfi_startproc
.LVL11:
	pushl	%ebp
	.cfi_def_cfa_offset 8
	.cfi_offset 5, -8
	movl	%esp, %ebp
	.cfi_def_cfa_register 5
	subl	$8, %esp
	.loc 1 54 0
	movl	8(%ebp), %eax
	.loc 1 55 0
	testl	%eax, %eax
	jne	.L17
	.loc 1 56 0
	call	krhino_cur_task_get
.LVL12:
	jmp	.L19
.L17:
	.loc 1 59 0
	movl	(%eax), %eax
.L19:
	movl	%eax, 8(%ebp)
	.loc 1 61 0
	leave
	.cfi_restore 5
	.cfi_def_cfa 4, 4
	.loc 1 59 0
	jmp	krhino_task_suspend
.LVL13:
	.cfi_endproc
.LFE17:
	.size	mico_rtos_suspend_thread, .-mico_rtos_suspend_thread
	.section	.text.unlikely.mico_rtos_suspend_thread
.LCOLDE3:
	.section	.text.mico_rtos_suspend_thread
.LHOTE3:
	.section	.text.unlikely.mico_rtos_suspend_all_thread,"ax",@progbits
.LCOLDB4:
	.section	.text.mico_rtos_suspend_all_thread,"ax",@progbits
.LHOTB4:
	.globl	mico_rtos_suspend_all_thread
	.type	mico_rtos_suspend_all_thread, @function
mico_rtos_suspend_all_thread:
.LFB18:
	.loc 1 64 0
	.cfi_startproc
	pushl	%ebp
	.cfi_def_cfa_offset 8
	.cfi_offset 5, -8
	movl	%esp, %ebp
	.cfi_def_cfa_register 5
	.loc 1 66 0
	popl	%ebp
	.cfi_restore 5
	.cfi_def_cfa 4, 4
	.loc 1 65 0
	jmp	krhino_sched_disable
.LVL14:
	.cfi_endproc
.LFE18:
	.size	mico_rtos_suspend_all_thread, .-mico_rtos_suspend_all_thread
	.section	.text.unlikely.mico_rtos_suspend_all_thread
.LCOLDE4:
	.section	.text.mico_rtos_suspend_all_thread
.LHOTE4:
	.section	.text.unlikely.mico_rtos_resume_all_thread,"ax",@progbits
.LCOLDB5:
	.section	.text.mico_rtos_resume_all_thread,"ax",@progbits
.LHOTB5:
	.globl	mico_rtos_resume_all_thread
	.type	mico_rtos_resume_all_thread, @function
mico_rtos_resume_all_thread:
.LFB19:
	.loc 1 69 0
	.cfi_startproc
	pushl	%ebp
	.cfi_def_cfa_offset 8
	.cfi_offset 5, -8
	movl	%esp, %ebp
	.cfi_def_cfa_register 5
	subl	$8, %esp
	.loc 1 72 0
	call	krhino_sched_enable
.LVL15:
	testl	%eax, %eax
	.loc 1 79 0
	leave
	.cfi_restore 5
	.cfi_def_cfa 4, 4
	setne	%al
.LVL16:
	movzbl	%al, %eax
	negl	%eax
	ret
	.cfi_endproc
.LFE19:
	.size	mico_rtos_resume_all_thread, .-mico_rtos_resume_all_thread
	.section	.text.unlikely.mico_rtos_resume_all_thread
.LCOLDE5:
	.section	.text.mico_rtos_resume_all_thread
.LHOTE5:
	.section	.text.unlikely.mico_rtos_thread_join,"ax",@progbits
.LCOLDB6:
	.section	.text.mico_rtos_thread_join,"ax",@progbits
.LHOTB6:
	.globl	mico_rtos_thread_join
	.type	mico_rtos_thread_join, @function
mico_rtos_thread_join:
.LFB20:
	.loc 1 82 0
	.cfi_startproc
.LVL17:
	pushl	%ebp
	.cfi_def_cfa_offset 8
	.cfi_offset 5, -8
	.loc 1 84 0
	xorl	%eax, %eax
	.loc 1 82 0
	movl	%esp, %ebp
	.cfi_def_cfa_register 5
	.loc 1 84 0
	popl	%ebp
	.cfi_restore 5
	.cfi_def_cfa 4, 4
	ret
	.cfi_endproc
.LFE20:
	.size	mico_rtos_thread_join, .-mico_rtos_thread_join
	.section	.text.unlikely.mico_rtos_thread_join
.LCOLDE6:
	.section	.text.mico_rtos_thread_join
.LHOTE6:
	.section	.text.unlikely.mico_rtos_thread_force_awake,"ax",@progbits
.LCOLDB7:
	.section	.text.mico_rtos_thread_force_awake,"ax",@progbits
.LHOTB7:
	.globl	mico_rtos_thread_force_awake
	.type	mico_rtos_thread_force_awake, @function
mico_rtos_thread_force_awake:
.LFB21:
	.loc 1 88 0
	.cfi_startproc
.LVL18:
	pushl	%ebp
	.cfi_def_cfa_offset 8
	.cfi_offset 5, -8
	movl	%esp, %ebp
	.cfi_def_cfa_register 5
	subl	$20, %esp
	.loc 1 91 0
	movl	8(%ebp), %eax
	pushl	(%eax)
	call	krhino_task_wait_abort
.LVL19:
	addl	$16, %esp
	testl	%eax, %eax
	setne	%al
.LVL20:
	.loc 1 98 0
	leave
	.cfi_restore 5
	.cfi_def_cfa 4, 4
	movzbl	%al, %eax
	negl	%eax
	ret
	.cfi_endproc
.LFE21:
	.size	mico_rtos_thread_force_awake, .-mico_rtos_thread_force_awake
	.section	.text.unlikely.mico_rtos_thread_force_awake
.LCOLDE7:
	.section	.text.mico_rtos_thread_force_awake
.LHOTE7:
	.section	.text.unlikely.mico_rtos_is_current_thread,"ax",@progbits
.LCOLDB8:
	.section	.text.mico_rtos_is_current_thread,"ax",@progbits
.LHOTB8:
	.globl	mico_rtos_is_current_thread
	.type	mico_rtos_is_current_thread, @function
mico_rtos_is_current_thread:
.LFB22:
	.loc 1 102 0
	.cfi_startproc
.LVL21:
	pushl	%ebp
	.cfi_def_cfa_offset 8
	.cfi_offset 5, -8
	movl	%esp, %ebp
	.cfi_def_cfa_register 5
	pushl	%ebx
	pushl	%eax
	.cfi_offset 3, -12
	.loc 1 105 0
	movl	8(%ebp), %eax
	movl	(%eax), %ebx
.LVL22:
	.loc 1 107 0
	call	krhino_cur_task_get
.LVL23:
	.loc 1 112 0
	popl	%edx
	cmpl	%eax, %ebx
	sete	%al
	popl	%ebx
	.cfi_restore 3
.LVL24:
	popl	%ebp
	.cfi_restore 5
	.cfi_def_cfa 4, 4
	ret
	.cfi_endproc
.LFE22:
	.size	mico_rtos_is_current_thread, .-mico_rtos_is_current_thread
	.section	.text.unlikely.mico_rtos_is_current_thread
.LCOLDE8:
	.section	.text.mico_rtos_is_current_thread
.LHOTE8:
	.section	.text.unlikely.mico_rtos_delay_milliseconds,"ax",@progbits
.LCOLDB9:
	.section	.text.mico_rtos_delay_milliseconds,"ax",@progbits
.LHOTB9:
	.globl	mico_rtos_delay_milliseconds
	.type	mico_rtos_delay_milliseconds, @function
mico_rtos_delay_milliseconds:
.LFB23:
	.loc 1 115 0
	.cfi_startproc
.LVL25:
	pushl	%ebp
	.cfi_def_cfa_offset 8
	.cfi_offset 5, -8
	.loc 1 118 0
	xorl	%edx, %edx
	.loc 1 115 0
	movl	%esp, %ebp
	.cfi_def_cfa_register 5
	subl	$16, %esp
	.loc 1 118 0
	movl	8(%ebp), %eax
	pushl	%edx
	pushl	%eax
	call	krhino_ms_to_ticks
.LVL26:
	.loc 1 119 0
	popl	%edx
	.loc 1 120 0
	testl	%eax, %eax
	movl	$1, %edx
	.loc 1 119 0
	popl	%ecx
	.loc 1 120 0
	cmove	%edx, %eax
.LVL27:
	.loc 1 123 0
	xorl	%edx, %edx
	pushl	%edx
	pushl	%eax
	call	krhino_task_sleep
.LVL28:
	.loc 1 126 0
	xorl	%eax, %eax
	leave
	.cfi_restore 5
	.cfi_def_cfa 4, 4
	ret
	.cfi_endproc
.LFE23:
	.size	mico_rtos_delay_milliseconds, .-mico_rtos_delay_milliseconds
	.section	.text.unlikely.mico_rtos_delay_milliseconds
.LCOLDE9:
	.section	.text.mico_rtos_delay_milliseconds
.LHOTE9:
	.section	.text.unlikely.mico_rtos_print_thread_status,"ax",@progbits
.LCOLDB10:
	.section	.text.mico_rtos_print_thread_status,"ax",@progbits
.LHOTB10:
	.globl	mico_rtos_print_thread_status
	.type	mico_rtos_print_thread_status, @function
mico_rtos_print_thread_status:
.LFB24:
	.loc 1 129 0
	.cfi_startproc
.LVL29:
	pushl	%ebp
	.cfi_def_cfa_offset 8
	.cfi_offset 5, -8
	movl	%esp, %ebp
	.cfi_def_cfa_register 5
	.loc 1 129 0
	movl	8(%ebp), %eax
	.loc 1 130 0
	movb	$110, (%eax)
	.loc 1 131 0
	movb	$0, 1(%eax)
	.loc 1 136 0
	xorl	%eax, %eax
	popl	%ebp
	.cfi_restore 5
	.cfi_def_cfa 4, 4
	ret
	.cfi_endproc
.LFE24:
	.size	mico_rtos_print_thread_status, .-mico_rtos_print_thread_status
	.section	.text.unlikely.mico_rtos_print_thread_status
.LCOLDE10:
	.section	.text.mico_rtos_print_thread_status
.LHOTE10:
	.section	.rodata.str1.1,"aMS",@progbits,1
.LC11:
	.string	"sema"
	.section	.text.unlikely.mico_rtos_init_semaphore,"ax",@progbits
.LCOLDB12:
	.section	.text.mico_rtos_init_semaphore,"ax",@progbits
.LHOTB12:
	.globl	mico_rtos_init_semaphore
	.type	mico_rtos_init_semaphore, @function
mico_rtos_init_semaphore:
.LFB25:
	.loc 1 139 0
	.cfi_startproc
.LVL30:
	pushl	%ebp
	.cfi_def_cfa_offset 8
	.cfi_offset 5, -8
	movl	%esp, %ebp
	.cfi_def_cfa_register 5
	subl	$12, %esp
	.loc 1 142 0
	pushl	$0
	pushl	$.LC11
	pushl	8(%ebp)
	call	krhino_sem_dyn_create
.LVL31:
	addl	$16, %esp
	testl	%eax, %eax
	setne	%al
.LVL32:
	.loc 1 149 0
	leave
	.cfi_restore 5
	.cfi_def_cfa 4, 4
	movzbl	%al, %eax
	negl	%eax
	ret
	.cfi_endproc
.LFE25:
	.size	mico_rtos_init_semaphore, .-mico_rtos_init_semaphore
	.section	.text.unlikely.mico_rtos_init_semaphore
.LCOLDE12:
	.section	.text.mico_rtos_init_semaphore
.LHOTE12:
	.section	.text.unlikely.mico_rtos_set_semaphore,"ax",@progbits
.LCOLDB13:
	.section	.text.mico_rtos_set_semaphore,"ax",@progbits
.LHOTB13:
	.globl	mico_rtos_set_semaphore
	.type	mico_rtos_set_semaphore, @function
mico_rtos_set_semaphore:
.LFB26:
	.loc 1 152 0
	.cfi_startproc
.LVL33:
	pushl	%ebp
	.cfi_def_cfa_offset 8
	.cfi_offset 5, -8
	movl	%esp, %ebp
	.cfi_def_cfa_register 5
	subl	$20, %esp
	.loc 1 155 0
	movl	8(%ebp), %eax
	pushl	(%eax)
	call	krhino_sem_give
.LVL34:
	addl	$16, %esp
	testl	%eax, %eax
	setne	%al
.LVL35:
	.loc 1 162 0
	leave
	.cfi_restore 5
	.cfi_def_cfa 4, 4
	movzbl	%al, %eax
	negl	%eax
	ret
	.cfi_endproc
.LFE26:
	.size	mico_rtos_set_semaphore, .-mico_rtos_set_semaphore
	.section	.text.unlikely.mico_rtos_set_semaphore
.LCOLDE13:
	.section	.text.mico_rtos_set_semaphore
.LHOTE13:
	.section	.text.unlikely.mico_rtos_get_semaphore,"ax",@progbits
.LCOLDB14:
	.section	.text.mico_rtos_get_semaphore,"ax",@progbits
.LHOTB14:
	.globl	mico_rtos_get_semaphore
	.type	mico_rtos_get_semaphore, @function
mico_rtos_get_semaphore:
.LFB27:
	.loc 1 165 0
	.cfi_startproc
.LVL36:
	pushl	%ebp
	.cfi_def_cfa_offset 8
	.cfi_offset 5, -8
	movl	%esp, %ebp
	.cfi_def_cfa_register 5
	pushl	%ebx
	.cfi_offset 3, -12
	pushl	%ebx
	.loc 1 165 0
	movl	12(%ebp), %eax
	movl	8(%ebp), %ebx
	.loc 1 169 0
	cmpl	$-1, %eax
	jne	.L40
	.loc 1 170 0
	pushl	%ecx
	pushl	$-1
	pushl	$-1
	jmp	.L43
.L40:
	.loc 1 173 0
	pushl	%edx
	pushl	%edx
	xorl	%edx, %edx
	pushl	%edx
	pushl	%eax
	call	krhino_ms_to_ticks
.LVL37:
	.loc 1 174 0
	addl	$12, %esp
	pushl	%edx
	pushl	%eax
.LVL38:
.L43:
	pushl	(%ebx)
	call	krhino_sem_take
.LVL39:
	addl	$16, %esp
	testl	%eax, %eax
	.loc 1 182 0
	movl	-4(%ebp), %ebx
	setne	%al
.LVL40:
	leave
	.cfi_restore 5
	.cfi_restore 3
	.cfi_def_cfa 4, 4
	movzbl	%al, %eax
	negl	%eax
	ret
	.cfi_endproc
.LFE27:
	.size	mico_rtos_get_semaphore, .-mico_rtos_get_semaphore
	.section	.text.unlikely.mico_rtos_get_semaphore
.LCOLDE14:
	.section	.text.mico_rtos_get_semaphore
.LHOTE14:
	.section	.text.unlikely.mico_rtos_deinit_semaphore,"ax",@progbits
.LCOLDB15:
	.section	.text.mico_rtos_deinit_semaphore,"ax",@progbits
.LHOTB15:
	.globl	mico_rtos_deinit_semaphore
	.type	mico_rtos_deinit_semaphore, @function
mico_rtos_deinit_semaphore:
.LFB28:
	.loc 1 185 0
	.cfi_startproc
.LVL41:
	pushl	%ebp
	.cfi_def_cfa_offset 8
	.cfi_offset 5, -8
	movl	%esp, %ebp
	.cfi_def_cfa_register 5
	subl	$20, %esp
	.loc 1 188 0
	movl	8(%ebp), %eax
	pushl	(%eax)
	call	krhino_sem_dyn_del
.LVL42:
	addl	$16, %esp
	testl	%eax, %eax
	setne	%al
.LVL43:
	.loc 1 195 0
	leave
	.cfi_restore 5
	.cfi_def_cfa 4, 4
	movzbl	%al, %eax
	negl	%eax
	ret
	.cfi_endproc
.LFE28:
	.size	mico_rtos_deinit_semaphore, .-mico_rtos_deinit_semaphore
	.section	.text.unlikely.mico_rtos_deinit_semaphore
.LCOLDE15:
	.section	.text.mico_rtos_deinit_semaphore
.LHOTE15:
	.section	.rodata.str1.1
.LC16:
	.string	"mutex"
	.section	.text.unlikely.mico_rtos_init_mutex,"ax",@progbits
.LCOLDB17:
	.section	.text.mico_rtos_init_mutex,"ax",@progbits
.LHOTB17:
	.globl	mico_rtos_init_mutex
	.type	mico_rtos_init_mutex, @function
mico_rtos_init_mutex:
.LFB29:
	.loc 1 198 0
	.cfi_startproc
.LVL44:
	pushl	%ebp
	.cfi_def_cfa_offset 8
	.cfi_offset 5, -8
	movl	%esp, %ebp
	.cfi_def_cfa_register 5
	subl	$16, %esp
	.loc 1 201 0
	pushl	$.LC16
	pushl	8(%ebp)
	call	krhino_mutex_dyn_create
.LVL45:
	addl	$16, %esp
	testl	%eax, %eax
	setne	%al
.LVL46:
	.loc 1 208 0
	leave
	.cfi_restore 5
	.cfi_def_cfa 4, 4
	movzbl	%al, %eax
	negl	%eax
	ret
	.cfi_endproc
.LFE29:
	.size	mico_rtos_init_mutex, .-mico_rtos_init_mutex
	.section	.text.unlikely.mico_rtos_init_mutex
.LCOLDE17:
	.section	.text.mico_rtos_init_mutex
.LHOTE17:
	.section	.text.unlikely.mico_rtos_lock_mutex,"ax",@progbits
.LCOLDB18:
	.section	.text.mico_rtos_lock_mutex,"ax",@progbits
.LHOTB18:
	.globl	mico_rtos_lock_mutex
	.type	mico_rtos_lock_mutex, @function
mico_rtos_lock_mutex:
.LFB30:
	.loc 1 211 0
	.cfi_startproc
.LVL47:
	pushl	%ebp
	.cfi_def_cfa_offset 8
	.cfi_offset 5, -8
	movl	%esp, %ebp
	.cfi_def_cfa_register 5
	subl	$12, %esp
	.loc 1 214 0
	movl	8(%ebp), %eax
	pushl	$-1
	pushl	$-1
	pushl	(%eax)
	call	krhino_mutex_lock
.LVL48:
	addl	$16, %esp
	testl	%eax, %eax
	setne	%al
.LVL49:
	.loc 1 221 0
	leave
	.cfi_restore 5
	.cfi_def_cfa 4, 4
	movzbl	%al, %eax
	negl	%eax
	ret
	.cfi_endproc
.LFE30:
	.size	mico_rtos_lock_mutex, .-mico_rtos_lock_mutex
	.section	.text.unlikely.mico_rtos_lock_mutex
.LCOLDE18:
	.section	.text.mico_rtos_lock_mutex
.LHOTE18:
	.section	.text.unlikely.mico_rtos_unlock_mutex,"ax",@progbits
.LCOLDB19:
	.section	.text.mico_rtos_unlock_mutex,"ax",@progbits
.LHOTB19:
	.globl	mico_rtos_unlock_mutex
	.type	mico_rtos_unlock_mutex, @function
mico_rtos_unlock_mutex:
.LFB31:
	.loc 1 224 0
	.cfi_startproc
.LVL50:
	pushl	%ebp
	.cfi_def_cfa_offset 8
	.cfi_offset 5, -8
	movl	%esp, %ebp
	.cfi_def_cfa_register 5
	subl	$20, %esp
	.loc 1 227 0
	movl	8(%ebp), %eax
	pushl	(%eax)
	call	krhino_mutex_unlock
.LVL51:
	addl	$16, %esp
	testl	%eax, %eax
	setne	%al
.LVL52:
	.loc 1 234 0
	leave
	.cfi_restore 5
	.cfi_def_cfa 4, 4
	movzbl	%al, %eax
	negl	%eax
	ret
	.cfi_endproc
.LFE31:
	.size	mico_rtos_unlock_mutex, .-mico_rtos_unlock_mutex
	.section	.text.unlikely.mico_rtos_unlock_mutex
.LCOLDE19:
	.section	.text.mico_rtos_unlock_mutex
.LHOTE19:
	.section	.text.unlikely.mico_rtos_deinit_mutex,"ax",@progbits
.LCOLDB20:
	.section	.text.mico_rtos_deinit_mutex,"ax",@progbits
.LHOTB20:
	.globl	mico_rtos_deinit_mutex
	.type	mico_rtos_deinit_mutex, @function
mico_rtos_deinit_mutex:
.LFB32:
	.loc 1 237 0
	.cfi_startproc
.LVL53:
	pushl	%ebp
	.cfi_def_cfa_offset 8
	.cfi_offset 5, -8
	movl	%esp, %ebp
	.cfi_def_cfa_register 5
	subl	$20, %esp
	.loc 1 240 0
	movl	8(%ebp), %eax
	pushl	(%eax)
	call	krhino_mutex_dyn_del
.LVL54:
	addl	$16, %esp
	testl	%eax, %eax
	setne	%al
.LVL55:
	.loc 1 247 0
	leave
	.cfi_restore 5
	.cfi_def_cfa 4, 4
	movzbl	%al, %eax
	negl	%eax
	ret
	.cfi_endproc
.LFE32:
	.size	mico_rtos_deinit_mutex, .-mico_rtos_deinit_mutex
	.section	.text.unlikely.mico_rtos_deinit_mutex
.LCOLDE20:
	.section	.text.mico_rtos_deinit_mutex
.LHOTE20:
	.section	.rodata.str1.1
.LC21:
	.string	"default_queue"
	.section	.text.unlikely.mico_rtos_init_queue,"ax",@progbits
.LCOLDB22:
	.section	.text.mico_rtos_init_queue,"ax",@progbits
.LHOTB22:
	.globl	mico_rtos_init_queue
	.type	mico_rtos_init_queue, @function
mico_rtos_init_queue:
.LFB33:
	.loc 1 250 0
	.cfi_startproc
.LVL56:
	pushl	%ebp
	.cfi_def_cfa_offset 8
	.cfi_offset 5, -8
	.loc 1 254 0
	movl	$.LC21, %edx
	.loc 1 250 0
	movl	%esp, %ebp
	.cfi_def_cfa_register 5
	subl	$8, %esp
	.loc 1 250 0
	movl	12(%ebp), %ecx
	movl	16(%ebp), %eax
	.loc 1 254 0
	testl	%ecx, %ecx
	cmove	%edx, %ecx
.LVL57:
	.loc 1 257 0
	cmpl	$127, %eax
	movl	$1, %edx
	jbe	.L56
	.loc 1 257 0 is_stmt 0 discriminator 1
	cmpl	$16383, %eax
	movl	$2, %edx
	jbe	.L56
	.loc 1 257 0 discriminator 3
	cmpl	$4194304, %eax
	sbbl	%edx, %edx
	andl	$-2, %edx
	addl	$5, %edx
.L56:
	.loc 1 257 0 discriminator 12
	pushl	%eax
	addl	%edx, %eax
	imull	20(%ebp), %eax
	pushl	%eax
	pushl	%ecx
	pushl	8(%ebp)
	call	krhino_buf_queue_dyn_create
.LVL58:
	addl	$16, %esp
	testl	%eax, %eax
	setne	%al
.LVL59:
	.loc 1 264 0 is_stmt 1 discriminator 12
	leave
	.cfi_restore 5
	.cfi_def_cfa 4, 4
	movzbl	%al, %eax
	negl	%eax
	ret
	.cfi_endproc
.LFE33:
	.size	mico_rtos_init_queue, .-mico_rtos_init_queue
	.section	.text.unlikely.mico_rtos_init_queue
.LCOLDE22:
	.section	.text.mico_rtos_init_queue
.LHOTE22:
	.section	.text.unlikely.mico_rtos_push_to_queue,"ax",@progbits
.LCOLDB23:
	.section	.text.mico_rtos_push_to_queue,"ax",@progbits
.LHOTB23:
	.globl	mico_rtos_push_to_queue
	.type	mico_rtos_push_to_queue, @function
mico_rtos_push_to_queue:
.LFB34:
	.loc 1 268 0
	.cfi_startproc
.LVL60:
	pushl	%ebp
	.cfi_def_cfa_offset 8
	.cfi_offset 5, -8
	movl	%esp, %ebp
	.cfi_def_cfa_register 5
	subl	$12, %esp
	.loc 1 270 0
	movl	8(%ebp), %eax
	movl	(%eax), %eax
.LVL61:
	.loc 1 274 0
	pushl	52(%eax)
	pushl	12(%ebp)
	pushl	%eax
	call	krhino_buf_queue_send
.LVL62:
	addl	$16, %esp
	testl	%eax, %eax
	setne	%al
.LVL63:
	.loc 1 281 0
	leave
	.cfi_restore 5
	.cfi_def_cfa 4, 4
	movzbl	%al, %eax
	negl	%eax
	ret
	.cfi_endproc
.LFE34:
	.size	mico_rtos_push_to_queue, .-mico_rtos_push_to_queue
	.section	.text.unlikely.mico_rtos_push_to_queue
.LCOLDE23:
	.section	.text.mico_rtos_push_to_queue
.LHOTE23:
	.section	.text.unlikely.timed_event_handler,"ax",@progbits
.LCOLDB24:
	.section	.text.timed_event_handler,"ax",@progbits
.LHOTB24:
	.type	timed_event_handler, @function
timed_event_handler:
.LFB53:
	.loc 1 552 0
	.cfi_startproc
.LVL64:
	pushl	%ebp
	.cfi_def_cfa_offset 8
	.cfi_offset 5, -8
	movl	%esp, %ebp
	.cfi_def_cfa_register 5
	subl	$28, %esp
	.loc 1 552 0
	movl	8(%ebp), %eax
	movl	%gs:20, %ecx
	movl	%ecx, -12(%ebp)
	xorl	%ecx, %ecx
.LVL65:
	.loc 1 556 0
	movl	(%eax), %edx
	movl	%edx, -20(%ebp)
	.loc 1 557 0
	movl	4(%eax), %edx
	.loc 1 559 0
	pushl	$0
	.loc 1 557 0
	movl	%edx, -16(%ebp)
	.loc 1 559 0
	leal	-20(%ebp), %edx
	pushl	%edx
	movl	20(%eax), %eax
.LVL66:
	addl	$4, %eax
	pushl	%eax
	call	mico_rtos_push_to_queue
.LVL67:
	.loc 1 560 0
	addl	$16, %esp
	movl	-12(%ebp), %eax
	xorl	%gs:20, %eax
	je	.L64
	call	__stack_chk_fail
.LVL68:
.L64:
	leave
	.cfi_restore 5
	.cfi_def_cfa 4, 4
	ret
	.cfi_endproc
.LFE53:
	.size	timed_event_handler, .-timed_event_handler
	.section	.text.unlikely.timed_event_handler
.LCOLDE24:
	.section	.text.timed_event_handler
.LHOTE24:
	.section	.text.unlikely.mico_rtos_pop_from_queue,"ax",@progbits
.LCOLDB25:
	.section	.text.mico_rtos_pop_from_queue,"ax",@progbits
.LHOTB25:
	.globl	mico_rtos_pop_from_queue
	.type	mico_rtos_pop_from_queue, @function
mico_rtos_pop_from_queue:
.LFB35:
	.loc 1 284 0
	.cfi_startproc
.LVL69:
	pushl	%ebp
	.cfi_def_cfa_offset 8
	.cfi_offset 5, -8
	.loc 1 288 0
	xorl	%edx, %edx
	.loc 1 284 0
	movl	%esp, %ebp
	.cfi_def_cfa_register 5
	pushl	%esi
	pushl	%ebx
	subl	$24, %esp
	.cfi_offset 6, -12
	.cfi_offset 3, -16
	.loc 1 284 0
	movl	8(%ebp), %ebx
	movl	12(%ebp), %esi
	movl	%gs:20, %eax
	movl	%eax, -12(%ebp)
	xorl	%eax, %eax
	.loc 1 288 0
	movl	16(%ebp), %eax
	pushl	%edx
	pushl	%eax
	call	krhino_ms_to_ticks
.LVL70:
	leal	-16(%ebp), %ecx
	movl	%ecx, (%esp)
	pushl	%esi
	pushl	%edx
	pushl	%eax
	pushl	(%ebx)
	call	krhino_buf_queue_recv
.LVL71:
	addl	$32, %esp
	testl	%eax, %eax
	setne	%al
.LVL72:
	movzbl	%al, %eax
	negl	%eax
	.loc 1 295 0
	movl	-12(%ebp), %edx
	xorl	%gs:20, %edx
	je	.L67
	call	__stack_chk_fail
.LVL73:
.L67:
	leal	-8(%ebp), %esp
	popl	%ebx
	.cfi_restore 3
	popl	%esi
	.cfi_restore 6
	popl	%ebp
	.cfi_restore 5
	.cfi_def_cfa 4, 4
	ret
	.cfi_endproc
.LFE35:
	.size	mico_rtos_pop_from_queue, .-mico_rtos_pop_from_queue
	.section	.text.unlikely.mico_rtos_pop_from_queue
.LCOLDE25:
	.section	.text.mico_rtos_pop_from_queue
.LHOTE25:
	.section	.text.unlikely.worker_thread_main,"ax",@progbits
.LCOLDB26:
	.section	.text.worker_thread_main,"ax",@progbits
.LHOTB26:
	.type	worker_thread_main, @function
worker_thread_main:
.LFB49:
	.loc 1 491 0
	.cfi_startproc
.LVL74:
	pushl	%ebp
	.cfi_def_cfa_offset 8
	.cfi_offset 5, -8
	movl	%esp, %ebp
	.cfi_def_cfa_register 5
	pushl	%esi
	pushl	%ebx
	.cfi_offset 6, -12
	.cfi_offset 3, -16
.LBB2:
	.loc 1 498 0
	leal	-20(%ebp), %esi
.LBE2:
	.loc 1 491 0
	subl	$16, %esp
	.loc 1 491 0
	movl	%gs:20, %eax
	movl	%eax, -12(%ebp)
	xorl	%eax, %eax
.LVL75:
.LBB3:
	.loc 1 498 0
	movl	8(%ebp), %eax
	leal	4(%eax), %ebx
.L71:
	pushl	%eax
	pushl	$-1
	pushl	%esi
	pushl	%ebx
	call	mico_rtos_pop_from_queue
.LVL76:
	addl	$16, %esp
	testl	%eax, %eax
	jne	.L71
	.loc 1 500 0
	subl	$12, %esp
	pushl	-16(%ebp)
	call	*-20(%ebp)
.LVL77:
	addl	$16, %esp
.LBE3:
	.loc 1 502 0
	jmp	.L71
	.cfi_endproc
.LFE49:
	.size	worker_thread_main, .-worker_thread_main
	.section	.text.unlikely.worker_thread_main
.LCOLDE26:
	.section	.text.worker_thread_main
.LHOTE26:
	.section	.text.unlikely.mico_rtos_deinit_queue,"ax",@progbits
.LCOLDB27:
	.section	.text.mico_rtos_deinit_queue,"ax",@progbits
.LHOTB27:
	.globl	mico_rtos_deinit_queue
	.type	mico_rtos_deinit_queue, @function
mico_rtos_deinit_queue:
.LFB36:
	.loc 1 298 0
	.cfi_startproc
.LVL78:
	pushl	%ebp
	.cfi_def_cfa_offset 8
	.cfi_offset 5, -8
	movl	%esp, %ebp
	.cfi_def_cfa_register 5
	subl	$20, %esp
	.loc 1 301 0
	movl	8(%ebp), %eax
	pushl	(%eax)
	call	krhino_buf_queue_dyn_del
.LVL79:
	addl	$16, %esp
	testl	%eax, %eax
	setne	%al
.LVL80:
	.loc 1 308 0
	leave
	.cfi_restore 5
	.cfi_def_cfa 4, 4
	movzbl	%al, %eax
	negl	%eax
	ret
	.cfi_endproc
.LFE36:
	.size	mico_rtos_deinit_queue, .-mico_rtos_deinit_queue
	.section	.text.unlikely.mico_rtos_deinit_queue
.LCOLDE27:
	.section	.text.mico_rtos_deinit_queue
.LHOTE27:
	.section	.text.unlikely.mico_rtos_is_queue_empty,"ax",@progbits
.LCOLDB28:
	.section	.text.mico_rtos_is_queue_empty,"ax",@progbits
.LHOTB28:
	.globl	mico_rtos_is_queue_empty
	.type	mico_rtos_is_queue_empty, @function
mico_rtos_is_queue_empty:
.LFB37:
	.loc 1 312 0
	.cfi_startproc
.LVL81:
	pushl	%ebp
	.cfi_def_cfa_offset 8
	.cfi_offset 5, -8
	movl	%esp, %ebp
	.cfi_def_cfa_register 5
	pushl	%ebx
	pushl	%eax
	.cfi_offset 3, -12
	.loc 1 316 0
	movl	8(%ebp), %eax
	movl	(%eax), %ebx
.LVL82:
	.loc 1 318 0
	call	cpu_intrpt_save
.LVL83:
	.loc 1 320 0
	cmpl	$0, 56(%ebx)
	sete	%bl
.LVL84:
	.loc 1 327 0
	subl	$12, %esp
	pushl	%eax
	call	cpu_intrpt_restore
.LVL85:
	.loc 1 330 0
	movb	%bl, %al
	movl	-4(%ebp), %ebx
.LVL86:
	leave
	.cfi_restore 5
	.cfi_restore 3
	.cfi_def_cfa 4, 4
	ret
	.cfi_endproc
.LFE37:
	.size	mico_rtos_is_queue_empty, .-mico_rtos_is_queue_empty
	.section	.text.unlikely.mico_rtos_is_queue_empty
.LCOLDE28:
	.section	.text.mico_rtos_is_queue_empty
.LHOTE28:
	.section	.text.unlikely.mico_rtos_is_queue_full,"ax",@progbits
.LCOLDB29:
	.section	.text.mico_rtos_is_queue_full,"ax",@progbits
.LHOTB29:
	.globl	mico_rtos_is_queue_full
	.type	mico_rtos_is_queue_full, @function
mico_rtos_is_queue_full:
.LFB38:
	.loc 1 333 0
	.cfi_startproc
.LVL87:
	pushl	%ebp
	.cfi_def_cfa_offset 8
	.cfi_offset 5, -8
	movl	%esp, %ebp
	.cfi_def_cfa_register 5
	pushl	%edi
	pushl	%esi
	pushl	%ebx
	.cfi_offset 7, -12
	.cfi_offset 6, -16
	.cfi_offset 3, -20
	.loc 1 342 0
	movl	$1, %edi
	.loc 1 333 0
	subl	$12, %esp
	.loc 1 337 0
	movl	8(%ebp), %eax
	movl	(%eax), %ebx
.LVL88:
	.loc 1 340 0
	call	cpu_intrpt_save
.LVL89:
	movl	%eax, %esi
.LVL90:
	.loc 1 342 0
	movl	52(%ebx), %ecx
	movl	28(%ebx), %eax
.LVL91:
	subl	24(%ebx), %eax
	cmpl	$127, %ecx
	jbe	.L79
	.loc 1 342 0 is_stmt 0 discriminator 1
	cmpl	$16383, %ecx
	movl	$2, %edi
	jbe	.L79
	.loc 1 342 0 discriminator 3
	cmpl	$4194304, %ecx
	sbbl	%edi, %edi
	andl	$-2, %edi
	addl	$5, %edi
.L79:
.LVL92:
	.loc 1 344 0 is_stmt 1 discriminator 12
	addl	%edi, %ecx
.LVL93:
	xorl	%edx, %edx
	divl	%ecx
.LVL94:
	cmpl	56(%ebx), %eax
	sete	%bl
.LVL95:
	.loc 1 351 0 discriminator 12
	subl	$12, %esp
	pushl	%esi
	call	cpu_intrpt_restore
.LVL96:
	.loc 1 354 0 discriminator 12
	leal	-12(%ebp), %esp
	movb	%bl, %al
	popl	%ebx
	.cfi_restore 3
.LVL97:
	popl	%esi
	.cfi_restore 6
.LVL98:
	popl	%edi
	.cfi_restore 7
	popl	%ebp
	.cfi_restore 5
	.cfi_def_cfa 4, 4
	ret
	.cfi_endproc
.LFE38:
	.size	mico_rtos_is_queue_full, .-mico_rtos_is_queue_full
	.section	.text.unlikely.mico_rtos_is_queue_full
.LCOLDE29:
	.section	.text.mico_rtos_is_queue_full
.LHOTE29:
	.section	.text.unlikely.mico_rtos_get_time,"ax",@progbits
.LCOLDB30:
	.section	.text.mico_rtos_get_time,"ax",@progbits
.LHOTB30:
	.globl	mico_rtos_get_time
	.type	mico_rtos_get_time, @function
mico_rtos_get_time:
.LFB39:
	.loc 1 357 0
	.cfi_startproc
	pushl	%ebp
	.cfi_def_cfa_offset 8
	.cfi_offset 5, -8
	movl	%esp, %ebp
	.cfi_def_cfa_register 5
	subl	$8, %esp
	.loc 1 358 0
	call	krhino_sys_tick_get
.LVL99:
	pushl	%ecx
	pushl	%ecx
	pushl	%edx
	pushl	%eax
	call	krhino_ticks_to_ms
.LVL100:
	.loc 1 359 0
	leave
	.cfi_restore 5
	.cfi_def_cfa 4, 4
	ret
	.cfi_endproc
.LFE39:
	.size	mico_rtos_get_time, .-mico_rtos_get_time
	.section	.text.unlikely.mico_rtos_get_time
.LCOLDE30:
	.section	.text.mico_rtos_get_time
.LHOTE30:
	.section	.rodata.str1.1
.LC31:
	.string	"timer"
	.section	.text.unlikely.mico_init_timer,"ax",@progbits
.LCOLDB32:
	.section	.text.mico_init_timer,"ax",@progbits
.LHOTB32:
	.globl	mico_init_timer
	.type	mico_init_timer, @function
mico_init_timer:
.LFB41:
	.loc 1 373 0
	.cfi_startproc
.LVL101:
	pushl	%ebp
	.cfi_def_cfa_offset 8
	.cfi_offset 5, -8
	movl	%esp, %ebp
	.cfi_def_cfa_register 5
	pushl	%edi
	pushl	%esi
	pushl	%ebx
	.cfi_offset 7, -12
	.cfi_offset 6, -16
	.cfi_offset 3, -20
	.loc 1 379 0
	xorl	%edi, %edi
	.loc 1 373 0
	subl	$36, %esp
	.loc 1 373 0
	movl	8(%ebp), %ebx
	.loc 1 376 0
	movl	16(%ebp), %eax
	.loc 1 379 0
	movl	12(%ebp), %esi
	.loc 1 376 0
	movl	%eax, 4(%ebx)
	.loc 1 377 0
	movl	20(%ebp), %eax
	movl	%eax, 8(%ebx)
	.loc 1 379 0
	pushl	%edi
	pushl	%esi
	call	krhino_ms_to_ticks
.LVL102:
	movl	%eax, -32(%ebp)
	movl	%edx, -28(%ebp)
	popl	%eax
	popl	%edx
	pushl	%edi
	pushl	%esi
	call	krhino_ms_to_ticks
.LVL103:
	movl	$0, (%esp)
	pushl	%ebx
	pushl	-28(%ebp)
	pushl	-32(%ebp)
	pushl	%edx
	pushl	%eax
	pushl	$timmer_wrapper
	pushl	$.LC31
	pushl	%ebx
	call	krhino_timer_dyn_create
.LVL104:
	addl	$48, %esp
	testl	%eax, %eax
	setne	%al
.LVL105:
	.loc 1 387 0
	leal	-12(%ebp), %esp
	movzbl	%al, %eax
	popl	%ebx
	.cfi_restore 3
	negl	%eax
	popl	%esi
	.cfi_restore 6
	popl	%edi
	.cfi_restore 7
	popl	%ebp
	.cfi_restore 5
	.cfi_def_cfa 4, 4
	ret
	.cfi_endproc
.LFE41:
	.size	mico_init_timer, .-mico_init_timer
	.section	.text.unlikely.mico_init_timer
.LCOLDE32:
	.section	.text.mico_init_timer
.LHOTE32:
	.section	.text.unlikely.mico_rtos_init_oneshot_timer,"ax",@progbits
.LCOLDB33:
	.section	.text.mico_rtos_init_oneshot_timer,"ax",@progbits
.LHOTB33:
	.globl	mico_rtos_init_oneshot_timer
	.type	mico_rtos_init_oneshot_timer, @function
mico_rtos_init_oneshot_timer:
.LFB42:
	.loc 1 390 0
	.cfi_startproc
.LVL106:
	pushl	%ebp
	.cfi_def_cfa_offset 8
	.cfi_offset 5, -8
	.loc 1 396 0
	xorl	%edx, %edx
	.loc 1 390 0
	movl	%esp, %ebp
	.cfi_def_cfa_register 5
	pushl	%ebx
	subl	$12, %esp
	.cfi_offset 3, -12
	.loc 1 390 0
	movl	8(%ebp), %ebx
	.loc 1 393 0
	movl	16(%ebp), %eax
	movl	%eax, 4(%ebx)
	.loc 1 394 0
	movl	20(%ebp), %eax
	movl	%eax, 8(%ebx)
	.loc 1 396 0
	movl	12(%ebp), %eax
	pushl	%edx
	pushl	%eax
	call	krhino_ms_to_ticks
.LVL107:
	movl	$0, (%esp)
	pushl	%ebx
	pushl	$0
	pushl	$0
	pushl	%edx
	pushl	%eax
	pushl	$timmer_wrapper
	pushl	$.LC31
	pushl	%ebx
	call	krhino_timer_dyn_create
.LVL108:
	addl	$48, %esp
	testl	%eax, %eax
	.loc 1 404 0
	movl	-4(%ebp), %ebx
	setne	%al
.LVL109:
	leave
	.cfi_restore 5
	.cfi_restore 3
	.cfi_def_cfa 4, 4
	movzbl	%al, %eax
	negl	%eax
	ret
	.cfi_endproc
.LFE42:
	.size	mico_rtos_init_oneshot_timer, .-mico_rtos_init_oneshot_timer
	.section	.text.unlikely.mico_rtos_init_oneshot_timer
.LCOLDE33:
	.section	.text.mico_rtos_init_oneshot_timer
.LHOTE33:
	.section	.text.unlikely.mico_start_timer,"ax",@progbits
.LCOLDB34:
	.section	.text.mico_start_timer,"ax",@progbits
.LHOTB34:
	.globl	mico_start_timer
	.type	mico_start_timer, @function
mico_start_timer:
.LFB43:
	.loc 1 408 0
	.cfi_startproc
.LVL110:
	pushl	%ebp
	.cfi_def_cfa_offset 8
	.cfi_offset 5, -8
	movl	%esp, %ebp
	.cfi_def_cfa_register 5
	subl	$20, %esp
	.loc 1 411 0
	movl	8(%ebp), %eax
	pushl	(%eax)
	call	krhino_timer_start
.LVL111:
	addl	$16, %esp
	testl	%eax, %eax
	setne	%al
.LVL112:
	.loc 1 418 0
	leave
	.cfi_restore 5
	.cfi_def_cfa 4, 4
	movzbl	%al, %eax
	negl	%eax
	ret
	.cfi_endproc
.LFE43:
	.size	mico_start_timer, .-mico_start_timer
	.section	.text.unlikely.mico_start_timer
.LCOLDE34:
	.section	.text.mico_start_timer
.LHOTE34:
	.section	.text.unlikely.mico_stop_timer,"ax",@progbits
.LCOLDB35:
	.section	.text.mico_stop_timer,"ax",@progbits
.LHOTB35:
	.globl	mico_stop_timer
	.type	mico_stop_timer, @function
mico_stop_timer:
.LFB44:
	.loc 1 421 0
	.cfi_startproc
.LVL113:
	pushl	%ebp
	.cfi_def_cfa_offset 8
	.cfi_offset 5, -8
	movl	%esp, %ebp
	.cfi_def_cfa_register 5
	subl	$20, %esp
	.loc 1 424 0
	movl	8(%ebp), %eax
	pushl	(%eax)
	call	krhino_timer_stop
.LVL114:
	addl	$16, %esp
	testl	%eax, %eax
	setne	%al
.LVL115:
	.loc 1 432 0
	leave
	.cfi_restore 5
	.cfi_def_cfa 4, 4
	movzbl	%al, %eax
	negl	%eax
	ret
	.cfi_endproc
.LFE44:
	.size	mico_stop_timer, .-mico_stop_timer
	.section	.text.unlikely.mico_stop_timer
.LCOLDE35:
	.section	.text.mico_stop_timer
.LHOTE35:
	.section	.text.unlikely.mico_reload_timer,"ax",@progbits
.LCOLDB36:
	.section	.text.mico_reload_timer,"ax",@progbits
.LHOTB36:
	.globl	mico_reload_timer
	.type	mico_reload_timer, @function
mico_reload_timer:
.LFB45:
	.loc 1 436 0
	.cfi_startproc
.LVL116:
	pushl	%ebp
	.cfi_def_cfa_offset 8
	.cfi_offset 5, -8
	movl	%esp, %ebp
	.cfi_def_cfa_register 5
	pushl	%ebx
	subl	$16, %esp
	.cfi_offset 3, -12
	.loc 1 436 0
	movl	8(%ebp), %ebx
	.loc 1 440 0
	pushl	(%ebx)
	call	krhino_timer_stop
.LVL117:
	.loc 1 442 0
	popl	%eax
	pushl	(%ebx)
	call	krhino_timer_start
.LVL118:
	addl	$16, %esp
	testl	%eax, %eax
	.loc 1 449 0
	movl	-4(%ebp), %ebx
	setne	%al
.LVL119:
	leave
	.cfi_restore 5
	.cfi_restore 3
	.cfi_def_cfa 4, 4
	movzbl	%al, %eax
	negl	%eax
	ret
	.cfi_endproc
.LFE45:
	.size	mico_reload_timer, .-mico_reload_timer
	.section	.text.unlikely.mico_reload_timer
.LCOLDE36:
	.section	.text.mico_reload_timer
.LHOTE36:
	.section	.text.unlikely.mico_deinit_timer,"ax",@progbits
.LCOLDB37:
	.section	.text.mico_deinit_timer,"ax",@progbits
.LHOTB37:
	.globl	mico_deinit_timer
	.type	mico_deinit_timer, @function
mico_deinit_timer:
.LFB46:
	.loc 1 452 0
	.cfi_startproc
.LVL120:
	pushl	%ebp
	.cfi_def_cfa_offset 8
	.cfi_offset 5, -8
	movl	%esp, %ebp
	.cfi_def_cfa_register 5
	pushl	%ebx
	subl	$16, %esp
	.cfi_offset 3, -12
	.loc 1 452 0
	movl	8(%ebp), %ebx
	.loc 1 456 0
	pushl	(%ebx)
	call	krhino_timer_stop
.LVL121:
	.loc 1 457 0
	popl	%eax
	pushl	(%ebx)
	call	krhino_timer_dyn_del
.LVL122:
	addl	$16, %esp
	testl	%eax, %eax
	.loc 1 464 0
	movl	-4(%ebp), %ebx
	setne	%al
.LVL123:
	leave
	.cfi_restore 5
	.cfi_restore 3
	.cfi_def_cfa 4, 4
	movzbl	%al, %eax
	negl	%eax
	ret
	.cfi_endproc
.LFE46:
	.size	mico_deinit_timer, .-mico_deinit_timer
	.section	.text.unlikely.mico_deinit_timer
.LCOLDE37:
	.section	.text.mico_deinit_timer
.LHOTE37:
	.section	.text.unlikely.mico_is_timer_running,"ax",@progbits
.LCOLDB38:
	.section	.text.mico_is_timer_running,"ax",@progbits
.LHOTB38:
	.globl	mico_is_timer_running
	.type	mico_is_timer_running, @function
mico_is_timer_running:
.LFB47:
	.loc 1 467 0
	.cfi_startproc
.LVL124:
	pushl	%ebp
	.cfi_def_cfa_offset 8
	.cfi_offset 5, -8
	movl	%esp, %ebp
	.cfi_def_cfa_register 5
.LVL125:
	.loc 1 472 0
	movl	8(%ebp), %eax
	.loc 1 478 0
	popl	%ebp
	.cfi_restore 5
	.cfi_def_cfa 4, 4
	.loc 1 472 0
	movl	(%eax), %eax
	cmpb	$1, 64(%eax)
	sete	%al
	.loc 1 478 0
	ret
	.cfi_endproc
.LFE47:
	.size	mico_is_timer_running, .-mico_is_timer_running
	.section	.text.unlikely.mico_is_timer_running
.LCOLDE38:
	.section	.text.mico_is_timer_running
.LHOTE38:
	.section	.text.unlikely.mico_rtos_is_timer_init,"ax",@progbits
.LCOLDB39:
	.section	.text.mico_rtos_is_timer_init,"ax",@progbits
.LHOTB39:
	.globl	mico_rtos_is_timer_init
	.type	mico_rtos_is_timer_init, @function
mico_rtos_is_timer_init:
.LFB48:
	.loc 1 481 0
	.cfi_startproc
.LVL126:
	pushl	%ebp
	.cfi_def_cfa_offset 8
	.cfi_offset 5, -8
	xorl	%eax, %eax
	movl	%esp, %ebp
	.cfi_def_cfa_register 5
	.loc 1 481 0
	movl	8(%ebp), %edx
	.loc 1 482 0
	testl	%edx, %edx
	je	.L101
	.loc 1 484 0
	cmpl	$0, (%edx)
	setne	%al
.L101:
	.loc 1 488 0
	popl	%ebp
	.cfi_restore 5
	.cfi_def_cfa 4, 4
	ret
	.cfi_endproc
.LFE48:
	.size	mico_rtos_is_timer_init, .-mico_rtos_is_timer_init
	.section	.text.unlikely.mico_rtos_is_timer_init
.LCOLDE39:
	.section	.text.mico_rtos_is_timer_init
.LHOTE39:
	.section	.rodata.str1.1
.LC40:
	.string	"worker queue"
.LC41:
	.string	"worker thread"
	.section	.text.unlikely.mico_rtos_create_worker_thread,"ax",@progbits
.LCOLDB42:
	.section	.text.mico_rtos_create_worker_thread,"ax",@progbits
.LHOTB42:
	.globl	mico_rtos_create_worker_thread
	.type	mico_rtos_create_worker_thread, @function
mico_rtos_create_worker_thread:
.LFB50:
	.loc 1 506 0
	.cfi_startproc
.LVL127:
	pushl	%ebp
	.cfi_def_cfa_offset 8
	.cfi_offset 5, -8
	.loc 1 507 0
	xorl	%eax, %eax
	movl	$2, %ecx
	.loc 1 506 0
	movl	%esp, %ebp
	.cfi_def_cfa_register 5
	pushl	%edi
	pushl	%esi
	pushl	%ebx
	subl	$12, %esp
	.cfi_offset 7, -12
	.cfi_offset 6, -16
	.cfi_offset 3, -20
	.loc 1 506 0
	movl	8(%ebp), %ebx
	movl	12(%ebp), %esi
	.loc 1 507 0
	movl	%ebx, %edi
	rep stosl
	.loc 1 509 0
	leal	4(%ebx), %edi
	pushl	20(%ebp)
	pushl	$8
	pushl	$.LC40
	pushl	%edi
	call	mico_rtos_init_queue
.LVL128:
	movl	%eax, %edx
	addl	$16, %esp
	.loc 1 511 0
	orl	$-1, %eax
	.loc 1 509 0
	testl	%edx, %edx
	jne	.L106
	.loc 1 514 0
	pushl	%eax
	pushl	%eax
	movl	%esi, %eax
	movzbl	%al, %esi
	pushl	%ebx
	pushl	16(%ebp)
	pushl	$worker_thread_main
	pushl	$.LC41
	pushl	%esi
	pushl	%ebx
	call	mico_rtos_create_thread
.LVL129:
	addl	$32, %esp
	testl	%eax, %eax
	je	.L106
	.loc 1 516 0
	subl	$12, %esp
	pushl	%edi
	call	mico_rtos_deinit_queue
.LVL130:
	.loc 1 517 0
	addl	$16, %esp
	orl	$-1, %eax
.L106:
	.loc 1 521 0
	leal	-12(%ebp), %esp
	popl	%ebx
	.cfi_restore 3
	popl	%esi
	.cfi_restore 6
	popl	%edi
	.cfi_restore 7
	popl	%ebp
	.cfi_restore 5
	.cfi_def_cfa 4, 4
	ret
	.cfi_endproc
.LFE50:
	.size	mico_rtos_create_worker_thread, .-mico_rtos_create_worker_thread
	.section	.text.unlikely.mico_rtos_create_worker_thread
.LCOLDE42:
	.section	.text.mico_rtos_create_worker_thread
.LHOTE42:
	.section	.text.unlikely.mico_rtos_delete_worker_thread,"ax",@progbits
.LCOLDB43:
	.section	.text.mico_rtos_delete_worker_thread,"ax",@progbits
.LHOTB43:
	.globl	mico_rtos_delete_worker_thread
	.type	mico_rtos_delete_worker_thread, @function
mico_rtos_delete_worker_thread:
.LFB51:
	.loc 1 524 0
	.cfi_startproc
.LVL131:
	pushl	%ebp
	.cfi_def_cfa_offset 8
	.cfi_offset 5, -8
	movl	%esp, %ebp
	.cfi_def_cfa_register 5
	pushl	%ebx
	subl	$16, %esp
	.cfi_offset 3, -12
	.loc 1 524 0
	movl	8(%ebp), %ebx
	.loc 1 525 0
	pushl	%ebx
	call	mico_rtos_delete_thread
.LVL132:
	addl	$16, %esp
	orl	$-1, %edx
	testl	%eax, %eax
	jne	.L113
	.loc 1 530 0
	subl	$12, %esp
	addl	$4, %ebx
	pushl	%ebx
	call	mico_rtos_deinit_queue
.LVL133:
	xorl	%edx, %edx
	addl	$16, %esp
	testl	%eax, %eax
	setne	%dl
	negl	%edx
.L113:
	.loc 1 536 0
	movl	%edx, %eax
	movl	-4(%ebp), %ebx
	leave
	.cfi_restore 5
	.cfi_restore 3
	.cfi_def_cfa 4, 4
	ret
	.cfi_endproc
.LFE51:
	.size	mico_rtos_delete_worker_thread, .-mico_rtos_delete_worker_thread
	.section	.text.unlikely.mico_rtos_delete_worker_thread
.LCOLDE43:
	.section	.text.mico_rtos_delete_worker_thread
.LHOTE43:
	.section	.text.unlikely.mico_rtos_send_asynchronous_event,"ax",@progbits
.LCOLDB44:
	.section	.text.mico_rtos_send_asynchronous_event,"ax",@progbits
.LHOTB44:
	.globl	mico_rtos_send_asynchronous_event
	.type	mico_rtos_send_asynchronous_event, @function
mico_rtos_send_asynchronous_event:
.LFB52:
	.loc 1 539 0
	.cfi_startproc
.LVL134:
	pushl	%ebp
	.cfi_def_cfa_offset 8
	.cfi_offset 5, -8
	movl	%esp, %ebp
	.cfi_def_cfa_register 5
	pushl	%ebx
	subl	$20, %esp
	.cfi_offset 3, -12
	.loc 1 539 0
	movl	8(%ebp), %edx
	movl	12(%ebp), %ebx
	movl	%gs:20, %eax
	movl	%eax, -12(%ebp)
	xorl	%eax, %eax
	movl	16(%ebp), %ecx
	movl	$-6718, %eax
	.loc 1 542 0
	cmpl	$0, (%edx)
	je	.L118
	.loc 1 548 0
	pushl	%eax
	leal	-20(%ebp), %eax
	addl	$4, %edx
	pushl	$0
	.loc 1 545 0
	movl	%ebx, -20(%ebp)
	.loc 1 548 0
	pushl	%eax
	pushl	%edx
	.loc 1 546 0
	movl	%ecx, -16(%ebp)
	.loc 1 548 0
	call	mico_rtos_push_to_queue
.LVL135:
	addl	$16, %esp
.L118:
	.loc 1 549 0
	movl	-12(%ebp), %ecx
	xorl	%gs:20, %ecx
	je	.L119
	call	__stack_chk_fail
.LVL136:
.L119:
	movl	-4(%ebp), %ebx
	leave
	.cfi_restore 5
	.cfi_restore 3
	.cfi_def_cfa 4, 4
	ret
	.cfi_endproc
.LFE52:
	.size	mico_rtos_send_asynchronous_event, .-mico_rtos_send_asynchronous_event
	.section	.text.unlikely.mico_rtos_send_asynchronous_event
.LCOLDE44:
	.section	.text.mico_rtos_send_asynchronous_event
.LHOTE44:
	.section	.text.unlikely.mico_rtos_register_timed_event,"ax",@progbits
.LCOLDB45:
	.section	.text.mico_rtos_register_timed_event,"ax",@progbits
.LHOTB45:
	.globl	mico_rtos_register_timed_event
	.type	mico_rtos_register_timed_event, @function
mico_rtos_register_timed_event:
.LFB54:
	.loc 1 563 0
	.cfi_startproc
.LVL137:
	pushl	%ebp
	.cfi_def_cfa_offset 8
	.cfi_offset 5, -8
	.loc 1 565 0
	movl	$-6718, %eax
	.loc 1 563 0
	movl	%esp, %ebp
	.cfi_def_cfa_register 5
	pushl	%edi
	pushl	%esi
	pushl	%ebx
	subl	$12, %esp
	.cfi_offset 7, -12
	.cfi_offset 6, -16
	.cfi_offset 3, -20
	.loc 1 563 0
	movl	12(%ebp), %esi
	movl	8(%ebp), %ebx
	.loc 1 564 0
	cmpl	$0, (%esi)
	je	.L124
	.loc 1 567 0
	leal	8(%ebx), %edi
	pushl	%ebx
	pushl	$timed_event_handler
	pushl	20(%ebp)
	pushl	%edi
	call	mico_init_timer
.LVL138:
	movl	%eax, %edx
	addl	$16, %esp
	.loc 1 569 0
	orl	$-1, %eax
	.loc 1 567 0
	testl	%edx, %edx
	jne	.L124
	.loc 1 572 0
	movl	16(%ebp), %eax
	.loc 1 576 0
	subl	$12, %esp
	.loc 1 573 0
	movl	%esi, 20(%ebx)
	.loc 1 572 0
	movl	%eax, (%ebx)
	.loc 1 574 0
	movl	24(%ebp), %eax
	movl	%eax, 4(%ebx)
	.loc 1 576 0
	pushl	%edi
	call	mico_start_timer
.LVL139:
	addl	$16, %esp
	testl	%eax, %eax
	je	.L124
	.loc 1 578 0
	subl	$12, %esp
	pushl	%edi
	call	mico_deinit_timer
.LVL140:
	.loc 1 579 0
	addl	$16, %esp
	orl	$-1, %eax
.L124:
	.loc 1 583 0
	leal	-12(%ebp), %esp
	popl	%ebx
	.cfi_restore 3
	popl	%esi
	.cfi_restore 6
	popl	%edi
	.cfi_restore 7
	popl	%ebp
	.cfi_restore 5
	.cfi_def_cfa 4, 4
	ret
	.cfi_endproc
.LFE54:
	.size	mico_rtos_register_timed_event, .-mico_rtos_register_timed_event
	.section	.text.unlikely.mico_rtos_register_timed_event
.LCOLDE45:
	.section	.text.mico_rtos_register_timed_event
.LHOTE45:
	.section	.text.unlikely.mico_rtos_deregister_timed_event,"ax",@progbits
.LCOLDB46:
	.section	.text.mico_rtos_deregister_timed_event,"ax",@progbits
.LHOTB46:
	.globl	mico_rtos_deregister_timed_event
	.type	mico_rtos_deregister_timed_event, @function
mico_rtos_deregister_timed_event:
.LFB55:
	.loc 1 586 0
	.cfi_startproc
.LVL141:
	pushl	%ebp
	.cfi_def_cfa_offset 8
	.cfi_offset 5, -8
	movl	%esp, %ebp
	.cfi_def_cfa_register 5
	subl	$20, %esp
	.loc 1 587 0
	movl	8(%ebp), %eax
	addl	$8, %eax
	pushl	%eax
	call	mico_deinit_timer
.LVL142:
	addl	$16, %esp
	testl	%eax, %eax
	setne	%al
	.loc 1 594 0
	leave
	.cfi_restore 5
	.cfi_def_cfa 4, 4
	movzbl	%al, %eax
	negl	%eax
	ret
	.cfi_endproc
.LFE55:
	.size	mico_rtos_deregister_timed_event, .-mico_rtos_deregister_timed_event
	.section	.text.unlikely.mico_rtos_deregister_timed_event
.LCOLDE46:
	.section	.text.mico_rtos_deregister_timed_event
.LHOTE46:
	.text
.Letext0:
	.section	.text.unlikely.timmer_wrapper
.Letext_cold0:
	.file 2 "/home/stone/Documents/Ali_IOT/build/compiler/gcc-arm-none-eabi/Linux64/lib/gcc/arm-none-eabi/5.4.1/include/stddef.h"
	.file 3 "/home/stone/Documents/Ali_IOT/build/compiler/gcc-arm-none-eabi/Linux64/arm-none-eabi/include/machine/_default_types.h"
	.file 4 "/home/stone/Documents/Ali_IOT/build/compiler/gcc-arm-none-eabi/Linux64/arm-none-eabi/include/sys/_stdint.h"
	.file 5 "././platform/arch/arm/armv5/./gcc/k_types.h"
	.file 6 "./kernel/rhino/core/include/k_err.h"
	.file 7 "./kernel/rhino/core/include/k_sys.h"
	.file 8 "./kernel/rhino/core/include/k_list.h"
	.file 9 "./kernel/rhino/core/include/k_obj.h"
	.file 10 "./kernel/rhino/core/include/k_task.h"
	.file 11 "./kernel/rhino/core/include/k_mutex.h"
	.file 12 "./kernel/rhino/core/include/k_sem.h"
	.file 13 "./kernel/rhino/core/include/k_ringbuf.h"
	.file 14 "./kernel/rhino/core/include/k_buf_queue.h"
	.file 15 "./kernel/rhino/core/include/k_timer.h"
	.file 16 "./kernel/vcall/./mico/include/common.h"
	.file 17 "./kernel/vcall/./mico/include/mico_rtos.h"
	.file 18 "./kernel/rhino/core/include/k_sched.h"
	.file 19 "./kernel/rhino/core/include/k_time.h"
	.file 20 "././platform/arch/arm/armv5/./gcc/port.h"
	.section	.note.GNU-stack,"",@progbits
