	.file	"MQTTPacket.c"
	.text
.Ltext0:
	.section	.text.unlikely.bufchar,"ax",@progbits
.LCOLDB0:
	.section	.text.bufchar,"ax",@progbits
.LHOTB0:
	.section	.text.unlikely.bufchar
.Ltext_cold0:
	.section	.text.bufchar
	.globl	bufchar
	.type	bufchar, @function
bufchar:
.LFB3:
	.file 1 "framework/connectivity/mqtt/MQTTPacket/MQTTPacket.c"
	.loc 1 99 0
	.cfi_startproc
.LVL0:
	pushl	%ebp
	.cfi_def_cfa_offset 8
	.cfi_offset 5, -8
	.loc 1 102 0
	xorl	%ecx, %ecx
	.loc 1 99 0
	movl	%esp, %ebp
	.cfi_def_cfa_register 5
	pushl	%esi
	.cfi_offset 6, -12
	movl	bufptr, %esi
	movl	12(%ebp), %eax
	pushl	%ebx
	.cfi_offset 3, -16
	.loc 1 102 0
	xorl	%ebx, %ebx
.LVL1:
.L2:
	.loc 1 102 0 is_stmt 0 discriminator 1
	cmpl	%eax, %ecx
	jge	.L10
	.loc 1 103 0 is_stmt 1 discriminator 3
	movb	(%esi,%ecx), %dl
	movl	8(%ebp), %ebx
	.loc 1 102 0 discriminator 3
	incl	%ecx
.LVL2:
	.loc 1 103 0 discriminator 3
	movb	%dl, (%ebx)
	movb	$1, %bl
	jmp	.L2
.L10:
	testl	%eax, %eax
	movl	$0, %edx
	cmovns	%eax, %edx
	addl	%esi, %edx
	testb	%bl, %bl
	je	.L4
	movl	%edx, bufptr
.L4:
	.loc 1 105 0
	popl	%ebx
	.cfi_restore 3
	popl	%esi
	.cfi_restore 6
	popl	%ebp
	.cfi_restore 5
	.cfi_def_cfa 4, 4
	ret
	.cfi_endproc
.LFE3:
	.size	bufchar, .-bufchar
	.section	.text.unlikely.bufchar
.LCOLDE0:
	.section	.text.bufchar
.LHOTE0:
	.section	.text.unlikely.MQTTPacket_encode,"ax",@progbits
.LCOLDB1:
	.section	.text.MQTTPacket_encode,"ax",@progbits
.LHOTB1:
	.globl	MQTTPacket_encode
	.type	MQTTPacket_encode, @function
MQTTPacket_encode:
.LFB0:
	.loc 1 29 0
	.cfi_startproc
.LVL3:
	pushl	%ebp
	.cfi_def_cfa_offset 8
	.cfi_offset 5, -8
	.loc 1 30 0
	xorl	%ecx, %ecx
	.loc 1 29 0
	movl	%esp, %ebp
	.cfi_def_cfa_register 5
	pushl	%esi
	pushl	%ebx
	.cfi_offset 6, -12
	.cfi_offset 3, -16
	.loc 1 29 0
	movl	12(%ebp), %eax
.LBB2:
	.loc 1 34 0
	movl	$128, %ebx
.LVL4:
.L13:
	cltd
	idivl	%ebx
.LVL5:
	.loc 1 38 0
	movl	%edx, %esi
	orl	$-128, %esi
	testl	%eax, %eax
	cmovg	%esi, %edx
.LVL6:
	.loc 1 39 0
	movl	8(%ebp), %esi
	incl	%ecx
.LVL7:
.LBE2:
	.loc 1 40 0
	testl	%eax, %eax
.LBB3:
	.loc 1 39 0
	movb	%dl, -1(%esi,%ecx)
.LBE3:
	.loc 1 40 0
	jg	.L13
	.loc 1 42 0
	popl	%ebx
	.cfi_restore 3
	movl	%ecx, %eax
.LVL8:
	popl	%esi
	.cfi_restore 6
	popl	%ebp
	.cfi_restore 5
	.cfi_def_cfa 4, 4
	ret
	.cfi_endproc
.LFE0:
	.size	MQTTPacket_encode, .-MQTTPacket_encode
	.section	.text.unlikely.MQTTPacket_encode
.LCOLDE1:
	.section	.text.MQTTPacket_encode
.LHOTE1:
	.section	.text.unlikely.MQTTPacket_decode,"ax",@progbits
.LCOLDB2:
	.section	.text.MQTTPacket_decode,"ax",@progbits
.LHOTB2:
	.globl	MQTTPacket_decode
	.type	MQTTPacket_decode, @function
MQTTPacket_decode:
.LFB1:
	.loc 1 52 0
	.cfi_startproc
.LVL9:
	pushl	%ebp
	.cfi_def_cfa_offset 8
	.cfi_offset 5, -8
	movl	%esp, %ebp
	.cfi_def_cfa_register 5
	pushl	%edi
	pushl	%esi
	pushl	%ebx
.LBB4:
	.loc 1 68 0
	leal	-29(%ebp), %edx
	.cfi_offset 7, -12
	.cfi_offset 6, -16
	.cfi_offset 3, -20
.LBE4:
	.loc 1 55 0
	xorl	%ebx, %ebx
	.loc 1 54 0
	movl	$1, %esi
	.loc 1 52 0
	subl	$44, %esp
	.loc 1 52 0
	movl	8(%ebp), %eax
	movl	12(%ebp), %edi
	movl	%eax, -44(%ebp)
	.loc 1 58 0
	movl	$0, (%edi)
	.loc 1 52 0
	movl	%gs:20, %eax
	movl	%eax, -28(%ebp)
	xorl	%eax, %eax
.LVL10:
.L18:
.LBB5:
	.loc 1 63 0
	incl	%ebx
.LVL11:
	cmpl	$5, %ebx
	je	.L17
	.loc 1 68 0
	pushl	%eax
	pushl	%eax
	pushl	$1
	pushl	%edx
	movl	%edx, -48(%ebp)
	movl	-44(%ebp), %eax
	call	*%eax
.LVL12:
	.loc 1 69 0
	addl	$16, %esp
	decl	%eax
.LVL13:
	jne	.L17
	.loc 1 71 0
	movb	-29(%ebp), %cl
.LBE5:
	.loc 1 73 0
	movl	-48(%ebp), %edx
.LBB6:
	.loc 1 71 0
	movl	%ecx, %eax
	andl	$127, %eax
	imull	%esi, %eax
	.loc 1 72 0
	sall	$7, %esi
.LVL14:
	.loc 1 71 0
	addl	%eax, (%edi)
.LBE6:
	.loc 1 73 0
	testb	%cl, %cl
	js	.L18
.L17:
	.loc 1 76 0
	movl	-28(%ebp), %ecx
	xorl	%gs:20, %ecx
	movl	%ebx, %eax
	je	.L19
.LVL15:
	call	__stack_chk_fail
.LVL16:
.L19:
	leal	-12(%ebp), %esp
	popl	%ebx
	.cfi_restore 3
	popl	%esi
	.cfi_restore 6
.LVL17:
	popl	%edi
	.cfi_restore 7
	popl	%ebp
	.cfi_restore 5
	.cfi_def_cfa 4, 4
	ret
	.cfi_endproc
.LFE1:
	.size	MQTTPacket_decode, .-MQTTPacket_decode
	.section	.text.unlikely.MQTTPacket_decode
.LCOLDE2:
	.section	.text.MQTTPacket_decode
.LHOTE2:
	.section	.text.unlikely.MQTTPacket_len,"ax",@progbits
.LCOLDB3:
	.section	.text.MQTTPacket_len,"ax",@progbits
.LHOTB3:
	.globl	MQTTPacket_len
	.type	MQTTPacket_len, @function
MQTTPacket_len:
.LFB2:
	.loc 1 80 0
	.cfi_startproc
.LVL18:
	pushl	%ebp
	.cfi_def_cfa_offset 8
	.cfi_offset 5, -8
	movl	%esp, %ebp
	.cfi_def_cfa_register 5
	.loc 1 80 0
	movl	8(%ebp), %eax
	.loc 1 81 0
	leal	1(%eax), %edx
.LVL19:
	.loc 1 84 0
	cmpl	$127, %edx
	jg	.L26
	.loc 1 85 0
	addl	$2, %eax
.LVL20:
	jmp	.L27
.LVL21:
.L26:
	.loc 1 86 0
	cmpl	$16383, %edx
	jg	.L28
	.loc 1 87 0
	addl	$3, %eax
.LVL22:
	jmp	.L27
.LVL23:
.L28:
	.loc 1 89 0
	leal	4(%eax), %ecx
	addl	$5, %eax
	cmpl	$2097150, %edx
	cmovle	%ecx, %eax
.LVL24:
.L27:
	.loc 1 93 0
	popl	%ebp
	.cfi_restore 5
	.cfi_def_cfa 4, 4
	ret
	.cfi_endproc
.LFE2:
	.size	MQTTPacket_len, .-MQTTPacket_len
	.section	.text.unlikely.MQTTPacket_len
.LCOLDE3:
	.section	.text.MQTTPacket_len
.LHOTE3:
	.section	.text.unlikely.MQTTPacket_decodeBuf,"ax",@progbits
.LCOLDB4:
	.section	.text.MQTTPacket_decodeBuf,"ax",@progbits
.LHOTB4:
	.globl	MQTTPacket_decodeBuf
	.type	MQTTPacket_decodeBuf, @function
MQTTPacket_decodeBuf:
.LFB4:
	.loc 1 109 0
	.cfi_startproc
.LVL25:
	pushl	%ebp
	.cfi_def_cfa_offset 8
	.cfi_offset 5, -8
	movl	%esp, %ebp
	.cfi_def_cfa_register 5
	.loc 1 110 0
	movl	8(%ebp), %eax
	.loc 1 111 0
	movl	$bufchar, 8(%ebp)
.LVL26:
	.loc 1 112 0
	popl	%ebp
	.cfi_restore 5
	.cfi_def_cfa 4, 4
	.loc 1 110 0
	movl	%eax, bufptr
	.loc 1 111 0
	jmp	MQTTPacket_decode
.LVL27:
	.cfi_endproc
.LFE4:
	.size	MQTTPacket_decodeBuf, .-MQTTPacket_decodeBuf
	.section	.text.unlikely.MQTTPacket_decodeBuf
.LCOLDE4:
	.section	.text.MQTTPacket_decodeBuf
.LHOTE4:
	.section	.text.unlikely.readInt,"ax",@progbits
.LCOLDB5:
	.section	.text.readInt,"ax",@progbits
.LHOTB5:
	.globl	readInt
	.type	readInt, @function
readInt:
.LFB5:
	.loc 1 121 0
	.cfi_startproc
.LVL28:
	pushl	%ebp
	.cfi_def_cfa_offset 8
	.cfi_offset 5, -8
	movl	%esp, %ebp
	.cfi_def_cfa_register 5
	pushl	%ebx
	.cfi_offset 3, -12
	.loc 1 121 0
	movl	8(%ebp), %ebx
	.loc 1 122 0
	movl	(%ebx), %edx
.LVL29:
	.loc 1 123 0
	movzbl	(%edx), %eax
	movzbl	1(%edx), %ecx
	.loc 1 124 0
	addl	$2, %edx
.LVL30:
	movl	%edx, (%ebx)
.LVL31:
	.loc 1 126 0
	popl	%ebx
	.cfi_restore 3
	popl	%ebp
	.cfi_restore 5
	.cfi_def_cfa 4, 4
	.loc 1 123 0
	sall	$8, %eax
	addl	%ecx, %eax
.LVL32:
	.loc 1 126 0
	ret
	.cfi_endproc
.LFE5:
	.size	readInt, .-readInt
	.section	.text.unlikely.readInt
.LCOLDE5:
	.section	.text.readInt
.LHOTE5:
	.section	.text.unlikely.readChar,"ax",@progbits
.LCOLDB6:
	.section	.text.readChar,"ax",@progbits
.LHOTB6:
	.globl	readChar
	.type	readChar, @function
readChar:
.LFB6:
	.loc 1 135 0
	.cfi_startproc
.LVL33:
	pushl	%ebp
	.cfi_def_cfa_offset 8
	.cfi_offset 5, -8
	movl	%esp, %ebp
	.cfi_def_cfa_register 5
	.loc 1 135 0
	movl	8(%ebp), %ecx
	.loc 1 136 0
	movl	(%ecx), %edx
	movb	(%edx), %al
.LVL34:
	.loc 1 137 0
	incl	%edx
	movl	%edx, (%ecx)
	.loc 1 139 0
	popl	%ebp
	.cfi_restore 5
	.cfi_def_cfa 4, 4
	ret
	.cfi_endproc
.LFE6:
	.size	readChar, .-readChar
	.section	.text.unlikely.readChar
.LCOLDE6:
	.section	.text.readChar
.LHOTE6:
	.section	.text.unlikely.writeChar,"ax",@progbits
.LCOLDB7:
	.section	.text.writeChar,"ax",@progbits
.LHOTB7:
	.globl	writeChar
	.type	writeChar, @function
writeChar:
.LFB7:
	.loc 1 148 0
	.cfi_startproc
.LVL35:
	pushl	%ebp
	.cfi_def_cfa_offset 8
	.cfi_offset 5, -8
	movl	%esp, %ebp
	.cfi_def_cfa_register 5
	.loc 1 148 0
	movl	8(%ebp), %eax
	.loc 1 149 0
	movl	12(%ebp), %ecx
	movl	(%eax), %edx
	movb	%cl, (%edx)
	.loc 1 150 0
	incl	(%eax)
	.loc 1 151 0
	popl	%ebp
	.cfi_restore 5
	.cfi_def_cfa 4, 4
	ret
	.cfi_endproc
.LFE7:
	.size	writeChar, .-writeChar
	.section	.text.unlikely.writeChar
.LCOLDE7:
	.section	.text.writeChar
.LHOTE7:
	.section	.text.unlikely.writeInt,"ax",@progbits
.LCOLDB8:
	.section	.text.writeInt,"ax",@progbits
.LHOTB8:
	.globl	writeInt
	.type	writeInt, @function
writeInt:
.LFB8:
	.loc 1 160 0
	.cfi_startproc
.LVL36:
	pushl	%ebp
	.cfi_def_cfa_offset 8
	.cfi_offset 5, -8
	movl	%esp, %ebp
	.cfi_def_cfa_register 5
	pushl	%ebx
	.cfi_offset 3, -12
	.loc 1 161 0
	movl	$256, %ebx
	.loc 1 160 0
	movl	12(%ebp), %eax
	movl	8(%ebp), %ecx
	.loc 1 161 0
	cltd
	idivl	%ebx
	movl	(%ecx), %ebx
	movb	%al, (%ebx)
	.loc 1 162 0
	movl	(%ecx), %eax
	leal	1(%eax), %ebx
	movl	%ebx, (%ecx)
	.loc 1 163 0
	movb	%dl, 1(%eax)
	.loc 1 164 0
	incl	(%ecx)
	.loc 1 165 0
	popl	%ebx
	.cfi_restore 3
	popl	%ebp
	.cfi_restore 5
	.cfi_def_cfa 4, 4
	ret
	.cfi_endproc
.LFE8:
	.size	writeInt, .-writeInt
	.section	.text.unlikely.writeInt
.LCOLDE8:
	.section	.text.writeInt
.LHOTE8:
	.section	.text.unlikely.writeCString,"ax",@progbits
.LCOLDB9:
	.section	.text.writeCString,"ax",@progbits
.LHOTB9:
	.globl	writeCString
	.type	writeCString, @function
writeCString:
.LFB9:
	.loc 1 174 0
	.cfi_startproc
.LVL37:
	pushl	%ebp
	.cfi_def_cfa_offset 8
	.cfi_offset 5, -8
	.loc 1 175 0
	orl	$-1, %ecx
	.loc 1 174 0
	movl	%esp, %ebp
	.cfi_def_cfa_register 5
	pushl	%edi
	pushl	%esi
	pushl	%ebx
	pushl	%eax
	.cfi_offset 7, -12
	.cfi_offset 6, -16
	.cfi_offset 3, -20
	.loc 1 175 0
	xorl	%eax, %eax
	movl	12(%ebp), %edi
	.loc 1 174 0
	movl	8(%ebp), %edx
	.loc 1 175 0
	repnz scasb
.LVL38:
	.loc 1 176 0
	movl	%edx, -16(%ebp)
	.loc 1 175 0
	movl	%ecx, %esi
	notl	%esi
	leal	-1(%esi), %ebx
.LVL39:
	.loc 1 176 0
	pushl	%ebx
	pushl	%edx
	call	writeInt
.LVL40:
	.loc 1 177 0
	movl	-16(%ebp), %edx
	movl	12(%ebp), %esi
	movl	%ebx, %ecx
	movl	(%edx), %edi
	rep movsb
	.loc 1 178 0
	addl	%ebx, (%edx)
	.loc 1 179 0
	popl	%edx
	popl	%ecx
	leal	-12(%ebp), %esp
	popl	%ebx
	.cfi_restore 3
.LVL41:
	popl	%esi
	.cfi_restore 6
	popl	%edi
	.cfi_restore 7
	popl	%ebp
	.cfi_restore 5
	.cfi_def_cfa 4, 4
	ret
	.cfi_endproc
.LFE9:
	.size	writeCString, .-writeCString
	.section	.text.unlikely.writeCString
.LCOLDE9:
	.section	.text.writeCString
.LHOTE9:
	.section	.text.unlikely.getLenStringLen,"ax",@progbits
.LCOLDB10:
	.section	.text.getLenStringLen,"ax",@progbits
.LHOTB10:
	.globl	getLenStringLen
	.type	getLenStringLen, @function
getLenStringLen:
.LFB10:
	.loc 1 183 0
	.cfi_startproc
.LVL42:
	pushl	%ebp
	.cfi_def_cfa_offset 8
	.cfi_offset 5, -8
	movl	%esp, %ebp
	.cfi_def_cfa_register 5
	.loc 1 183 0
	movl	8(%ebp), %edx
.LVL43:
	.loc 1 186 0
	popl	%ebp
	.cfi_restore 5
	.cfi_def_cfa 4, 4
	.loc 1 185 0
	movzbl	(%edx), %eax
	movzbl	1(%edx), %edx
	sall	$8, %eax
	addl	%edx, %eax
.LVL44:
	.loc 1 186 0
	ret
	.cfi_endproc
.LFE10:
	.size	getLenStringLen, .-getLenStringLen
	.section	.text.unlikely.getLenStringLen
.LCOLDE10:
	.section	.text.getLenStringLen
.LHOTE10:
	.section	.text.unlikely.writeMQTTString,"ax",@progbits
.LCOLDB11:
	.section	.text.writeMQTTString,"ax",@progbits
.LHOTB11:
	.globl	writeMQTTString
	.type	writeMQTTString, @function
writeMQTTString:
.LFB11:
	.loc 1 190 0
	.cfi_startproc
.LVL45:
	pushl	%ebp
	.cfi_def_cfa_offset 8
	.cfi_offset 5, -8
	movl	%esp, %ebp
	.cfi_def_cfa_register 5
.LVL46:
	pushl	%edi
	pushl	%esi
	pushl	%ebx
	pushl	%ecx
	.cfi_offset 7, -12
	.cfi_offset 6, -16
	.cfi_offset 3, -20
	movl	16(%ebp), %eax
.LVL47:
	.loc 1 190 0
	movl	8(%ebp), %ebx
	.loc 1 191 0
	testl	%eax, %eax
	jle	.L46
	.loc 1 193 0
	pushl	%eax
	pushl	%ebx
	movl	%eax, -16(%ebp)
	call	writeInt
.LVL48:
	.loc 1 194 0
	movl	-16(%ebp), %eax
	movl	(%ebx), %edi
	movl	20(%ebp), %esi
	movl	%eax, %ecx
	rep movsb
	.loc 1 195 0
	addl	%eax, (%ebx)
	popl	%eax
	popl	%edx
	.loc 1 201 0
	leal	-12(%ebp), %esp
	popl	%ebx
	.cfi_remember_state
	.cfi_restore 3
	popl	%esi
	.cfi_restore 6
	popl	%edi
	.cfi_restore 7
	popl	%ebp
	.cfi_restore 5
	.cfi_def_cfa 4, 4
	ret
.LVL49:
.L46:
	.cfi_restore_state
	movl	12(%ebp), %eax
.LVL50:
	.loc 1 197 0
	testl	%eax, %eax
	je	.L48
	.loc 1 198 0
	movl	%ebx, 8(%ebp)
.LVL51:
	.loc 1 201 0
	leal	-12(%ebp), %esp
	popl	%ebx
	.cfi_remember_state
	.cfi_restore 3
	popl	%esi
	.cfi_restore 6
	popl	%edi
	.cfi_restore 7
	popl	%ebp
	.cfi_restore 5
	.cfi_def_cfa 4, 4
	.loc 1 198 0
	jmp	writeCString
.LVL52:
.L48:
	.cfi_restore_state
	.loc 1 200 0
	movl	%ebx, 8(%ebp)
.LVL53:
	movl	$0, 12(%ebp)
.LVL54:
	.loc 1 201 0
	leal	-12(%ebp), %esp
	popl	%ebx
	.cfi_restore 3
	popl	%esi
	.cfi_restore 6
	popl	%edi
	.cfi_restore 7
	popl	%ebp
	.cfi_restore 5
	.cfi_def_cfa 4, 4
	.loc 1 200 0
	jmp	writeInt
.LVL55:
	.cfi_endproc
.LFE11:
	.size	writeMQTTString, .-writeMQTTString
	.section	.text.unlikely.writeMQTTString
.LCOLDE11:
	.section	.text.writeMQTTString
.LHOTE11:
	.section	.text.unlikely.readMQTTLenString,"ax",@progbits
.LCOLDB12:
	.section	.text.readMQTTLenString,"ax",@progbits
.LHOTB12:
	.globl	readMQTTLenString
	.type	readMQTTLenString, @function
readMQTTLenString:
.LFB12:
	.loc 1 211 0
	.cfi_startproc
.LVL56:
	pushl	%ebp
	.cfi_def_cfa_offset 8
	.cfi_offset 5, -8
	movl	%esp, %ebp
	.cfi_def_cfa_register 5
	pushl	%edi
	pushl	%esi
	.cfi_offset 7, -12
	.cfi_offset 6, -16
	movl	16(%ebp), %edi
	pushl	%ebx
	.cfi_offset 3, -20
	.loc 1 211 0
	movl	12(%ebp), %ebx
	movl	8(%ebp), %esi
	.loc 1 215 0
	movl	%edi, %eax
	subl	(%ebx), %eax
	decl	%eax
	jg	.L52
.L54:
	.loc 1 212 0
	xorl	%eax, %eax
	jmp	.L53
.L52:
	.loc 1 217 0
	pushl	%ebx
	call	readInt
.LVL57:
	.loc 1 218 0
	movl	(%ebx), %edx
	addl	$4, %esp
	.loc 1 217 0
	movl	%eax, 4(%esi)
	.loc 1 218 0
	leal	(%edx,%eax), %ecx
	cmpl	%ecx, %edi
	jb	.L54
	.loc 1 220 0
	movl	%edx, 8(%esi)
	.loc 1 221 0
	addl	%eax, (%ebx)
.LVL58:
	.loc 1 222 0
	movl	$1, %eax
.LVL59:
.L53:
	.loc 1 225 0
	movl	$0, (%esi)
	.loc 1 227 0
	leal	-12(%ebp), %esp
	popl	%ebx
	.cfi_restore 3
	popl	%esi
	.cfi_restore 6
	popl	%edi
	.cfi_restore 7
	popl	%ebp
	.cfi_restore 5
	.cfi_def_cfa 4, 4
	ret
	.cfi_endproc
.LFE12:
	.size	readMQTTLenString, .-readMQTTLenString
	.section	.text.unlikely.readMQTTLenString
.LCOLDE12:
	.section	.text.readMQTTLenString
.LHOTE12:
	.section	.text.unlikely.MQTTstrlen,"ax",@progbits
.LCOLDB13:
	.section	.text.MQTTstrlen,"ax",@progbits
.LHOTB13:
	.globl	MQTTstrlen
	.type	MQTTstrlen, @function
MQTTstrlen:
.LFB13:
	.loc 1 236 0
	.cfi_startproc
	pushl	%ebp
	.cfi_def_cfa_offset 8
	.cfi_offset 5, -8
	movl	%esp, %ebp
	.cfi_def_cfa_register 5
	pushl	%edi
	.cfi_offset 7, -12
	movl	8(%ebp), %edi
.LVL60:
	.loc 1 239 0
	testl	%edi, %edi
	je	.L57
	.loc 1 240 0
	xorl	%eax, %eax
	orl	$-1, %ecx
	repnz scasb
.LVL61:
	movl	%ecx, %eax
	notl	%eax
	decl	%eax
.LVL62:
	jmp	.L58
.LVL63:
.L57:
	.loc 1 242 0
	movl	12(%ebp), %eax
.LVL64:
.L58:
	.loc 1 244 0
	popl	%edi
	.cfi_restore 7
	popl	%ebp
	.cfi_restore 5
	.cfi_def_cfa 4, 4
	ret
	.cfi_endproc
.LFE13:
	.size	MQTTstrlen, .-MQTTstrlen
	.section	.text.unlikely.MQTTstrlen
.LCOLDE13:
	.section	.text.MQTTstrlen
.LHOTE13:
	.section	.text.unlikely.MQTTPacket_equals,"ax",@progbits
.LCOLDB14:
	.section	.text.MQTTPacket_equals,"ax",@progbits
.LHOTB14:
	.globl	MQTTPacket_equals
	.type	MQTTPacket_equals, @function
MQTTPacket_equals:
.LFB14:
	.loc 1 254 0
	.cfi_startproc
.LVL65:
	pushl	%ebp
	.cfi_def_cfa_offset 8
	.cfi_offset 5, -8
	movl	%esp, %ebp
	.cfi_def_cfa_register 5
	pushl	%edi
	pushl	%ebx
	.cfi_offset 7, -12
	.cfi_offset 3, -16
	.loc 1 254 0
	movl	8(%ebp), %eax
	.loc 1 259 0
	movl	(%eax), %ebx
	testl	%ebx, %ebx
	je	.L61
.LVL66:
	.loc 1 262 0
	xorl	%eax, %eax
	orl	$-1, %ecx
	movl	%ebx, %edi
	repnz scasb
.LVL67:
	notl	%ecx
	leal	-1(%ecx), %edx
.LVL68:
	jmp	.L62
.LVL69:
.L61:
	.loc 1 266 0
	movl	8(%eax), %ebx
.LVL70:
	.loc 1 267 0
	movl	4(%eax), %edx
.LVL71:
.L62:
	.loc 1 269 0
	movl	12(%ebp), %edi
	xorl	%eax, %eax
	orl	$-1, %ecx
	repnz scasb
.LVL72:
	.loc 1 271 0
	xorl	%eax, %eax
	.loc 1 269 0
	notl	%ecx
	decl	%ecx
.LVL73:
	.loc 1 271 0
	cmpl	%ecx, %edx
	jne	.L63
	.loc 1 271 0 is_stmt 0 discriminator 1
	pushl	%eax
	pushl	%edx
	pushl	12(%ebp)
	pushl	%ebx
	call	strncmp
.LVL74:
	addl	$16, %esp
	testl	%eax, %eax
	sete	%al
	movzbl	%al, %eax
.L63:
	.loc 1 272 0 is_stmt 1 discriminator 6
	leal	-8(%ebp), %esp
	popl	%ebx
	.cfi_restore 3
.LVL75:
	popl	%edi
	.cfi_restore 7
	popl	%ebp
	.cfi_restore 5
	.cfi_def_cfa 4, 4
	ret
	.cfi_endproc
.LFE14:
	.size	MQTTPacket_equals, .-MQTTPacket_equals
	.section	.text.unlikely.MQTTPacket_equals
.LCOLDE14:
	.section	.text.MQTTPacket_equals
.LHOTE14:
	.section	.text.unlikely.MQTTPacket_read,"ax",@progbits
.LCOLDB15:
	.section	.text.MQTTPacket_read,"ax",@progbits
.LHOTB15:
	.globl	MQTTPacket_read
	.type	MQTTPacket_read, @function
MQTTPacket_read:
.LFB15:
	.loc 1 284 0
	.cfi_startproc
.LVL76:
	pushl	%ebp
	.cfi_def_cfa_offset 8
	.cfi_offset 5, -8
	movl	%esp, %ebp
	.cfi_def_cfa_register 5
	pushl	%esi
	pushl	%ebx
	subl	$24, %esp
	.cfi_offset 6, -12
	.cfi_offset 3, -16
	.loc 1 284 0
	movl	8(%ebp), %ebx
	movl	16(%ebp), %esi
	.loc 1 291 0
	pushl	$1
	.loc 1 288 0
	movl	$0, -16(%ebp)
	.loc 1 284 0
	movl	%gs:20, %eax
	movl	%eax, -12(%ebp)
	xorl	%eax, %eax
.LVL77:
	.loc 1 291 0
	pushl	%ebx
	call	*%esi
.LVL78:
	addl	$16, %esp
	decl	%eax
	je	.L67
.LVL79:
.L69:
	.loc 1 285 0
	orl	$-1, %eax
	jmp	.L68
.LVL80:
.L67:
	.loc 1 296 0
	pushl	%eax
	pushl	%eax
	leal	-16(%ebp), %eax
	pushl	%eax
	pushl	%esi
	call	MQTTPacket_decode
.LVL81:
	.loc 1 297 0
	popl	%eax
	leal	1(%ebx), %eax
	popl	%edx
	pushl	-16(%ebp)
	pushl	%eax
	call	MQTTPacket_encode
.LVL82:
	.loc 1 300 0
	movl	-16(%ebp), %edx
	.loc 1 297 0
	incl	%eax
.LVL83:
	.loc 1 300 0
	addl	$16, %esp
	leal	(%eax,%edx), %ecx
	cmpl	12(%ebp), %ecx
	jg	.L69
	.loc 1 302 0
	addl	%ebx, %eax
.LVL84:
	pushl	%ecx
	pushl	%ecx
	pushl	%edx
	pushl	%eax
	call	*%esi
.LVL85:
	addl	$16, %esp
	cmpl	-16(%ebp), %eax
	jne	.L69
	.loc 1 305 0
	xorl	%eax, %eax
.LVL86:
	movb	(%ebx), %al
.LVL87:
	.loc 1 306 0
	shrl	$4, %eax
.LVL88:
.L68:
	.loc 1 309 0
	movl	-12(%ebp), %ecx
	xorl	%gs:20, %ecx
	je	.L70
	call	__stack_chk_fail
.LVL89:
.L70:
	leal	-8(%ebp), %esp
	popl	%ebx
	.cfi_restore 3
	popl	%esi
	.cfi_restore 6
	popl	%ebp
	.cfi_restore 5
	.cfi_def_cfa 4, 4
	ret
	.cfi_endproc
.LFE15:
	.size	MQTTPacket_read, .-MQTTPacket_read
	.section	.text.unlikely.MQTTPacket_read
.LCOLDE15:
	.section	.text.MQTTPacket_read
.LHOTE15:
	.section	.text.unlikely.MQTTPacket_readnb,"ax",@progbits
.LCOLDB16:
	.section	.text.MQTTPacket_readnb,"ax",@progbits
.LHOTB16:
	.globl	MQTTPacket_readnb
	.type	MQTTPacket_readnb, @function
MQTTPacket_readnb:
.LFB17:
	.loc 1 353 0
	.cfi_startproc
.LVL90:
	pushl	%ebp
	.cfi_def_cfa_offset 8
	.cfi_offset 5, -8
	movl	%esp, %ebp
	.cfi_def_cfa_register 5
	pushl	%edi
	pushl	%esi
	pushl	%ebx
	subl	$28, %esp
	.cfi_offset 7, -12
	.cfi_offset 6, -16
	.cfi_offset 3, -20
	.loc 1 353 0
	movl	16(%ebp), %ebx
	movl	8(%ebp), %esi
	movl	%gs:20, %eax
	movl	%eax, -28(%ebp)
	xorl	%eax, %eax
.LVL91:
	.loc 1 357 0
	movb	20(%ebx), %al
	cmpb	$1, %al
	je	.L74
	cmpb	$2, %al
	je	.L75
	testb	%al, %al
	je	.L76
	.loc 1 359 0
	movb	$0, 20(%ebx)
.L76:
	.loc 1 363 0
	pushl	%edi
	pushl	$1
	pushl	%esi
	pushl	4(%ebx)
	call	*(%ebx)
.LVL92:
	addl	$16, %esp
	cmpl	$-1, %eax
	jne	.L77
.LVL93:
.L86:
	.loc 1 354 0
	orl	$-1, %eax
	jmp	.L78
.LVL94:
.L77:
	.loc 1 365 0
	testl	%eax, %eax
	jne	.L79
.LVL95:
.L87:
	.loc 1 366 0
	xorl	%eax, %eax
	jmp	.L80
.LVL96:
.L79:
	.loc 1 368 0
	incb	20(%ebx)
	.loc 1 367 0
	movl	$0, 16(%ebx)
.LVL97:
.L74:
.LBB10:
.LBB11:
	.loc 1 322 0
	cmpl	$0, 16(%ebx)
	jne	.L81
	.loc 1 323 0
	movl	$1, 8(%ebx)
	.loc 1 324 0
	movl	$0, 12(%ebx)
.L81:
.LBB12:
	.loc 1 330 0
	leal	-29(%ebp), %edi
.L85:
	.loc 1 328 0
	movl	16(%ebx), %eax
	incl	%eax
	cmpl	$4, %eax
	movl	%eax, 16(%ebx)
	jg	.L86
	.loc 1 330 0
	pushl	%ecx
	pushl	$1
	pushl	%edi
	pushl	4(%ebx)
	call	*(%ebx)
.LVL98:
	addl	$16, %esp
	cmpl	$-1, %eax
	je	.L86
	.loc 1 332 0
	testl	%eax, %eax
	je	.L87
	.loc 1 336 0
	movb	-29(%ebp), %dl
	movl	8(%ebx), %eax
.LVL99:
	movl	%edx, %ecx
	andl	$127, %ecx
	imull	%eax, %ecx
	.loc 1 337 0
	sall	$7, %eax
	.loc 1 336 0
	addl	%ecx, 12(%ebx)
.LBE12:
	.loc 1 338 0
	testb	%dl, %dl
.LBB13:
	.loc 1 337 0
	movl	%eax, 8(%ebx)
.LBE13:
	.loc 1 338 0
	js	.L85
.L83:
.LVL100:
	.loc 1 339 0
	movl	16(%ebx), %eax
.LBE11:
.LBE10:
	.loc 1 372 0
	cmpl	$-1, %eax
	je	.L86
	.loc 1 374 0
	testl	%eax, %eax
	je	.L87
	.loc 1 376 0
	leal	1(%esi), %eax
	pushl	%edx
	pushl	%edx
	pushl	12(%ebx)
	pushl	%eax
	call	MQTTPacket_encode
.LVL101:
	incl	%eax
	.loc 1 377 0
	addl	$16, %esp
	.loc 1 376 0
	movl	%eax, 16(%ebx)
	.loc 1 377 0
	addl	12(%ebx), %eax
	cmpl	12(%ebp), %eax
	jg	.L86
	.loc 1 379 0
	incb	20(%ebx)
.L75:
	.loc 1 383 0
	pushl	%eax
	pushl	12(%ebx)
	movl	16(%ebx), %eax
	addl	%esi, %eax
	pushl	%eax
	pushl	4(%ebx)
	call	*(%ebx)
.LVL102:
	addl	$16, %esp
	cmpl	$-1, %eax
	je	.L86
	.loc 1 385 0
	testl	%eax, %eax
	je	.L87
	.loc 1 387 0
	movl	12(%ebx), %edx
	.loc 1 388 0
	addl	%eax, 16(%ebx)
	.loc 1 387 0
	subl	%eax, %edx
	.loc 1 389 0
	testl	%edx, %edx
	.loc 1 387 0
	movl	%edx, 12(%ebx)
	.loc 1 389 0
	jne	.L87
	.loc 1 392 0
	xorl	%eax, %eax
.LVL103:
	movb	(%esi), %al
.LVL104:
	.loc 1 393 0
	shrl	$4, %eax
.LVL105:
.L78:
	.loc 1 398 0
	movb	$0, 20(%ebx)
.LVL106:
.L80:
	.loc 1 400 0
	movl	-28(%ebp), %edi
	xorl	%gs:20, %edi
	je	.L88
	call	__stack_chk_fail
.LVL107:
.L88:
	leal	-12(%ebp), %esp
	popl	%ebx
	.cfi_restore 3
	popl	%esi
	.cfi_restore 6
	popl	%edi
	.cfi_restore 7
	popl	%ebp
	.cfi_restore 5
	.cfi_def_cfa 4, 4
	ret
	.cfi_endproc
.LFE17:
	.size	MQTTPacket_readnb, .-MQTTPacket_readnb
	.section	.text.unlikely.MQTTPacket_readnb
.LCOLDE16:
	.section	.text.MQTTPacket_readnb
.LHOTE16:
	.section	.bss.bufptr,"aw",@nobits
	.align 4
	.type	bufptr, @object
	.size	bufptr, 4
bufptr:
	.zero	4
	.text
.Letext0:
	.section	.text.unlikely.bufchar
.Letext_cold0:
	.file 2 "framework/connectivity/mqtt/MQTTPacket/MQTTPacket.h"
	.file 3 "/home/stone/Documents/Ali_IOT/build/compiler/gcc-arm-none-eabi/Linux64/arm-none-eabi/include/string.h"
	.section	.note.GNU-stack,"",@progbits
