	.file	"mqtt_instance.c"
	.text
.Ltext0:
	.section	.text.unlikely.event_handle,"ax",@progbits
.LCOLDB0:
	.section	.text.event_handle,"ax",@progbits
.LHOTB0:
	.section	.text.unlikely.event_handle
.Ltext_cold0:
	.section	.text.event_handle
	.type	event_handle, @function
event_handle:
.LFB20:
	.file 1 "framework/connectivity/mqtt/mqtt_instance.c"
	.loc 1 59 0
	.cfi_startproc
.LVL0:
	pushl	%ebp
	.cfi_def_cfa_offset 8
	.cfi_offset 5, -8
	movl	%esp, %ebp
	.cfi_def_cfa_register 5
	pushl	%esi
	pushl	%ebx
	.cfi_offset 6, -12
	.cfi_offset 3, -16
	.loc 1 62 0
	movl	16(%ebp), %eax
	movl	(%eax), %eax
	cmpl	$1, %eax
	je	.L3
	cmpl	$2, %eax
	jne	.L1
	.loc 1 64 0
	movl	$1, %esi
	jmp	.L4
.L3:
	.loc 1 67 0
	xorl	%esi, %esi
.L4:
.LVL1:
	.loc 1 74 0
	movl	first_event, %ebx
.LVL2:
.L5:
	.loc 1 74 0 is_stmt 0 discriminator 1
	testl	%ebx, %ebx
	je	.L1
	.loc 1 75 0 is_stmt 1
	movl	(%ebx), %eax
	testl	%eax, %eax
	je	.L6
	.loc 1 76 0
	pushl	%edx
	pushl	%edx
	pushl	4(%ebx)
	pushl	%esi
	call	*%eax
.LVL3:
	addl	$16, %esp
.L6:
	.loc 1 74 0 discriminator 2
	movl	8(%ebx), %ebx
.LVL4:
	jmp	.L5
.LVL5:
.L1:
	.loc 1 78 0
	leal	-8(%ebp), %esp
	popl	%ebx
	.cfi_restore 3
	popl	%esi
	.cfi_restore 6
	popl	%ebp
	.cfi_restore 5
	.cfi_def_cfa 4, 4
	ret
	.cfi_endproc
.LFE20:
	.size	event_handle, .-event_handle
	.section	.text.unlikely.event_handle
.LCOLDE0:
	.section	.text.event_handle
.LHOTE0:
	.section	.text.unlikely.subscriber_cb,"ax",@progbits
.LCOLDB1:
	.section	.text.subscriber_cb,"ax",@progbits
.LHOTB1:
	.type	subscriber_cb, @function
subscriber_cb:
.LFB29:
	.loc 1 249 0
	.cfi_startproc
.LVL6:
	pushl	%ebp
	.cfi_def_cfa_offset 8
	.cfi_offset 5, -8
	movl	%esp, %ebp
	.cfi_def_cfa_register 5
	subl	$8, %esp
	.loc 1 249 0
	movl	8(%ebp), %edx
.LVL7:
	.loc 1 253 0
	testl	%edx, %edx
	je	.L14
	.loc 1 253 0 is_stmt 0 discriminator 1
	movl	4(%edx), %ecx
	testl	%ecx, %ecx
	je	.L14
	.loc 1 251 0 is_stmt 1
	movl	16(%ebp), %eax
	.loc 1 254 0
	subl	$12, %esp
	.loc 1 251 0
	movl	4(%eax), %eax
	.loc 1 254 0
	pushl	8(%edx)
.LVL8:
	movzwl	8(%eax), %edx
.LVL9:
	pushl	%edx
	pushl	16(%eax)
	movzwl	6(%eax), %edx
	pushl	%edx
	pushl	12(%eax)
	call	*%ecx
.LVL10:
	addl	$32, %esp
.L14:
	.loc 1 257 0
	leave
	.cfi_restore 5
	.cfi_def_cfa 4, 4
	ret
	.cfi_endproc
.LFE29:
	.size	subscriber_cb, .-subscriber_cb
	.section	.text.unlikely.subscriber_cb
.LCOLDE1:
	.section	.text.subscriber_cb
.LHOTE1:
	.section	.text.unlikely.mqtt_get_instance,"ax",@progbits
.LCOLDB2:
	.section	.text.mqtt_get_instance,"ax",@progbits
.LHOTB2:
	.globl	mqtt_get_instance
	.type	mqtt_get_instance, @function
mqtt_get_instance:
.LFB21:
	.loc 1 82 0
	.cfi_startproc
	pushl	%ebp
	.cfi_def_cfa_offset 8
	.cfi_offset 5, -8
	.loc 1 84 0
	movl	mqtt_client, %eax
	.loc 1 82 0
	movl	%esp, %ebp
	.cfi_def_cfa_register 5
	.loc 1 84 0
	popl	%ebp
	.cfi_restore 5
	.cfi_def_cfa 4, 4
	ret
	.cfi_endproc
.LFE21:
	.size	mqtt_get_instance, .-mqtt_get_instance
	.section	.text.unlikely.mqtt_get_instance
.LCOLDE2:
	.section	.text.mqtt_get_instance
.LHOTE2:
	.section	.text.unlikely.mqtt_remove_instance,"ax",@progbits
.LCOLDB3:
	.section	.text.mqtt_remove_instance,"ax",@progbits
.LHOTB3:
	.globl	mqtt_remove_instance
	.type	mqtt_remove_instance, @function
mqtt_remove_instance:
.LFB22:
	.loc 1 87 0
	.cfi_startproc
	pushl	%ebp
	.cfi_def_cfa_offset 8
	.cfi_offset 5, -8
	.loc 1 88 0
	movl	$0, mqtt_client
	.loc 1 87 0
	movl	%esp, %ebp
	.cfi_def_cfa_register 5
	.loc 1 89 0
	popl	%ebp
	.cfi_restore 5
	.cfi_def_cfa 4, 4
	ret
	.cfi_endproc
.LFE22:
	.size	mqtt_remove_instance, .-mqtt_remove_instance
	.section	.text.unlikely.mqtt_remove_instance
.LCOLDE3:
	.section	.text.mqtt_remove_instance
.LHOTE3:
	.section	.text.unlikely.mqtt_set_instance,"ax",@progbits
.LCOLDB4:
	.section	.text.mqtt_set_instance,"ax",@progbits
.LHOTB4:
	.globl	mqtt_set_instance
	.type	mqtt_set_instance, @function
mqtt_set_instance:
.LFB23:
	.loc 1 92 0
	.cfi_startproc
.LVL11:
	.loc 1 93 0
	cmpl	$0, mqtt_client
	.loc 1 92 0
	pushl	%ebp
	.cfi_def_cfa_offset 8
	.cfi_offset 5, -8
	movl	%esp, %ebp
	.cfi_def_cfa_register 5
	.loc 1 92 0
	movl	8(%ebp), %eax
	.loc 1 93 0
	jne	.L29
	testl	%eax, %eax
	je	.L29
	.loc 1 96 0
	movl	%eax, mqtt_client
	.loc 1 97 0
	xorl	%eax, %eax
	jmp	.L28
.LVL12:
.L29:
	.loc 1 94 0
	orl	$-1, %eax
.LVL13:
.L28:
	.loc 1 98 0
	popl	%ebp
	.cfi_restore 5
	.cfi_def_cfa 4, 4
	ret
	.cfi_endproc
.LFE23:
	.size	mqtt_set_instance, .-mqtt_set_instance
	.section	.text.unlikely.mqtt_set_instance
.LCOLDE4:
	.section	.text.mqtt_set_instance
.LHOTE4:
	.section	.text.unlikely.mqtt_deinit_instance,"ax",@progbits
.LCOLDB5:
	.section	.text.mqtt_deinit_instance,"ax",@progbits
.LHOTB5:
	.globl	mqtt_deinit_instance
	.type	mqtt_deinit_instance, @function
mqtt_deinit_instance:
.LFB25:
	.loc 1 163 0
	.cfi_startproc
	pushl	%ebp
	.cfi_def_cfa_offset 8
	.cfi_offset 5, -8
	movl	%esp, %ebp
	.cfi_def_cfa_register 5
	pushl	%ebx
	pushl	%eax
	.cfi_offset 3, -12
	.loc 1 166 0
	movl	mqtt_rbuf, %eax
	testl	%eax, %eax
	je	.L32
	.loc 1 167 0 discriminator 2
	subl	$12, %esp
	pushl	%eax
	call	LITE_free_internal
.LVL14:
	movl	$0, mqtt_rbuf
	addl	$16, %esp
.L32:
	.loc 1 171 0
	movl	mqtt_wbuf, %eax
	testl	%eax, %eax
	je	.L33
	.loc 1 172 0 discriminator 2
	subl	$12, %esp
	pushl	%eax
	call	LITE_free_internal
.LVL15:
	movl	$0, mqtt_wbuf
	addl	$16, %esp
.L33:
	.loc 1 176 0
	cmpl	$0, mqtt_client
	je	.L34
	.loc 1 177 0
	subl	$12, %esp
	pushl	$mqtt_client
	call	IOT_MQTT_Destroy
.LVL16:
	.loc 1 178 0
	movl	$0, mqtt_client
	addl	$16, %esp
.L34:
	.loc 1 182 0
	movl	first_event, %eax
.LVL17:
.L35:
	.loc 1 182 0 is_stmt 0 discriminator 1
	testl	%eax, %eax
	je	.L48
	.loc 1 183 0 is_stmt 1
	movl	8(%eax), %ebx
.LVL18:
.LBB4:
.LBB5:
	.loc 1 48 0
	movl	$first_event, %ecx
.LVL19:
.L36:
	.loc 1 49 0
	movl	(%ecx), %edx
	testl	%edx, %edx
	je	.L49
.LVL20:
	.loc 1 51 0
	cmpl	%edx, %eax
	jne	.L37
	.loc 1 52 0
	movl	8(%eax), %edx
.LVL21:
	movl	%edx, (%ecx)
.LVL22:
	jmp	.L36
.LVL23:
.L37:
	.loc 1 54 0
	leal	8(%edx), %ecx
.LVL24:
	jmp	.L36
.LVL25:
.L49:
.LBE5:
.LBE4:
	.loc 1 185 0 discriminator 2
	subl	$12, %esp
	pushl	%eax
	call	LITE_free_internal
.LVL26:
	addl	$16, %esp
	movl	%ebx, %eax
	jmp	.L35
.LVL27:
.L48:
	.loc 1 188 0
	movl	$0, first_event
	.loc 1 193 0
	movl	-4(%ebp), %ebx
	leave
	.cfi_restore 5
	.cfi_restore 3
	.cfi_def_cfa 4, 4
	ret
	.cfi_endproc
.LFE25:
	.size	mqtt_deinit_instance, .-mqtt_deinit_instance
	.section	.text.unlikely.mqtt_deinit_instance
.LCOLDE5:
	.section	.text.mqtt_deinit_instance
.LHOTE5:
	.section	.rodata.str1.1,"aMS",@progbits,1
.LC6:
	.string	"masterslave"
	.section	.text.unlikely.mqtt_init_instance,"ax",@progbits
.LCOLDB7:
	.section	.text.mqtt_init_instance,"ax",@progbits
.LHOTB7:
	.globl	mqtt_init_instance
	.type	mqtt_init_instance, @function
mqtt_init_instance:
.LFB24:
	.loc 1 107 0
	.cfi_startproc
.LVL28:
	pushl	%ebp
	.cfi_def_cfa_offset 8
	.cfi_offset 5, -8
	movl	%esp, %ebp
	.cfi_def_cfa_register 5
	pushl	%edi
	pushl	%esi
	pushl	%ebx
	subl	$108, %esp
	.cfi_offset 7, -12
	.cfi_offset 6, -16
	.cfi_offset 3, -20
	.loc 1 107 0
	movl	8(%ebp), %esi
	movl	12(%ebp), %edi
	movl	%gs:20, %eax
	movl	%eax, -28(%ebp)
	xorl	%eax, %eax
	.loc 1 108 0
	cmpl	$0, mqtt_client
	.loc 1 107 0
	movl	16(%ebp), %edx
	.loc 1 109 0
	movl	$1, %eax
	.loc 1 107 0
	movl	20(%ebp), %ebx
	.loc 1 108 0
	jne	.L51
	.loc 1 111 0
	subl	$12, %esp
	movl	%edx, -108(%ebp)
	pushl	$.LC6
	call	IOT_OpenLog
.LVL29:
	.loc 1 112 0
	movl	$5, (%esp)
	call	IOT_SetLogLevel
.LVL30:
	.loc 1 117 0
	movl	-108(%ebp), %edx
	leal	-92(%ebp), %eax
	pushl	%eax
	pushl	%edx
	pushl	%edi
	pushl	%esi
	call	IOT_SetupConnInfo
.LVL31:
	.loc 1 118 0
	addl	$32, %esp
	testl	%eax, %eax
	.loc 1 117 0
	movl	%eax, %esi
.LVL32:
	.loc 1 118 0
	jne	.L65
	.loc 1 121 0
	pushl	%edx
	pushl	%ebx
	pushl	$121
	pushl	$__func__.3878
	call	LITE_malloc_internal
.LVL33:
	.loc 1 122 0
	addl	$16, %esp
	testl	%eax, %eax
	.loc 1 121 0
	movl	%eax, mqtt_rbuf
	.loc 1 122 0
	je	.L65
	.loc 1 125 0
	pushl	%eax
	pushl	%ebx
	pushl	$125
	pushl	$__func__.3878
	call	LITE_malloc_internal
.LVL34:
	.loc 1 126 0
	addl	$16, %esp
	testl	%eax, %eax
	.loc 1 125 0
	movl	%eax, %edx
	movl	%eax, mqtt_wbuf
	.loc 1 126 0
	jne	.L54
.L55:
.LDL1:
	.loc 1 158 0
	call	mqtt_deinit_instance
.LVL35:
.L65:
	.loc 1 159 0
	orl	$-1, %eax
	jmp	.L51
.L54:
	.loc 1 130 0
	leal	-88(%ebp), %edi
	movl	%esi, %eax
	movl	$15, %ecx
	.loc 1 151 0
	subl	$12, %esp
	.loc 1 130 0
	rep stosl
	.loc 1 132 0
	movl	-92(%ebp), %eax
	movl	(%eax), %ecx
	.loc 1 139 0
	movl	$2000, -60(%ebp)
	.loc 1 141 0
	movl	$60000, -56(%ebp)
	.loc 1 143 0
	movl	%ebx, -40(%ebp)
	.loc 1 144 0
	movl	%edx, -52(%ebp)
	.loc 1 145 0
	movl	%ebx, -48(%ebp)
	.loc 1 132 0
	movw	%cx, -88(%ebp)
	.loc 1 133 0
	leal	2(%eax), %ecx
	.loc 1 147 0
	movl	$event_handle, -36(%ebp)
	.loc 1 133 0
	movl	%ecx, -84(%ebp)
	.loc 1 134 0
	leal	131(%eax), %ecx
	movl	%ecx, -80(%ebp)
	.loc 1 135 0
	leal	388(%eax), %ecx
	movl	%ecx, -76(%ebp)
	.loc 1 136 0
	leal	901(%eax), %ecx
	.loc 1 137 0
	movl	1160(%eax), %eax
	.loc 1 136 0
	movl	%ecx, -72(%ebp)
	.loc 1 137 0
	movl	%eax, -68(%ebp)
	.loc 1 142 0
	movl	mqtt_rbuf, %eax
	movl	%eax, -44(%ebp)
	.loc 1 151 0
	leal	-88(%ebp), %eax
	pushl	%eax
	call	IOT_MQTT_Construct
.LVL36:
	.loc 1 152 0
	addl	$16, %esp
	testl	%eax, %eax
	.loc 1 151 0
	movl	%eax, mqtt_client
	.loc 1 152 0
	je	.L55
	.loc 1 155 0
	xorl	%eax, %eax
.LVL37:
.L51:
	.loc 1 160 0
	movl	-28(%ebp), %edi
	xorl	%gs:20, %edi
	je	.L56
	call	__stack_chk_fail
.LVL38:
.L56:
	leal	-12(%ebp), %esp
	popl	%ebx
	.cfi_restore 3
	popl	%esi
	.cfi_restore 6
	popl	%edi
	.cfi_restore 7
	popl	%ebp
	.cfi_restore 5
	.cfi_def_cfa 4, 4
	ret
	.cfi_endproc
.LFE24:
	.size	mqtt_init_instance, .-mqtt_init_instance
	.section	.text.unlikely.mqtt_init_instance
.LCOLDE7:
	.section	.text.mqtt_init_instance
.LHOTE7:
	.section	.text.unlikely.mqtt_set_event_cb,"ax",@progbits
.LCOLDB8:
	.section	.text.mqtt_set_event_cb,"ax",@progbits
.LHOTB8:
	.globl	mqtt_set_event_cb
	.type	mqtt_set_event_cb, @function
mqtt_set_event_cb:
.LFB26:
	.loc 1 196 0
	.cfi_startproc
.LVL39:
	pushl	%ebp
	.cfi_def_cfa_offset 8
	.cfi_offset 5, -8
	movl	%esp, %ebp
	.cfi_def_cfa_register 5
	pushl	%edi
	pushl	%ebx
	.cfi_offset 7, -12
	.cfi_offset 3, -16
	.loc 1 196 0
	movl	8(%ebp), %ebx
	.loc 1 197 0
	testl	%ebx, %ebx
	jne	.L67
.L69:
	.loc 1 198 0
	orl	$-1, %eax
	jmp	.L68
.L67:
	.loc 1 200 0
	cmpl	$0, mqtt_client
	je	.L69
	.loc 1 203 0
	pushl	%eax
	pushl	$12
	pushl	$203
	pushl	$__func__.3899
	call	LITE_malloc_internal
.LVL40:
	.loc 1 204 0
	addl	$16, %esp
	testl	%eax, %eax
	.loc 1 203 0
	movl	%eax, %edx
.LVL41:
	.loc 1 204 0
	je	.L69
	.loc 1 206 0
	xorl	%eax, %eax
.LVL42:
	movl	$3, %ecx
	movl	%edx, %edi
	rep stosl
	.loc 1 209 0
	movl	12(%ebp), %eax
	.loc 1 208 0
	movl	%ebx, (%edx)
	.loc 1 209 0
	movl	%eax, 4(%edx)
.LVL43:
.LBB8:
.LBB9:
	.loc 1 39 0
	movl	first_event, %eax
	.loc 1 40 0
	movl	%edx, first_event
	.loc 1 39 0
	movl	%eax, 8(%edx)
.LBE9:
.LBE8:
	.loc 1 213 0
	xorl	%eax, %eax
.LVL44:
.L68:
	.loc 1 214 0
	leal	-8(%ebp), %esp
	popl	%ebx
	.cfi_restore 3
	popl	%edi
	.cfi_restore 7
	popl	%ebp
	.cfi_restore 5
	.cfi_def_cfa 4, 4
	ret
	.cfi_endproc
.LFE26:
	.size	mqtt_set_event_cb, .-mqtt_set_event_cb
	.section	.text.unlikely.mqtt_set_event_cb
.LCOLDE8:
	.section	.text.mqtt_set_event_cb
.LHOTE8:
	.section	.rodata.str1.1
.LC9:
	.string	"t->topic"
.LC10:
	.string	"%s == NULL! LITE_free(%s) aborted."
	.section	.text.unlikely.mqtt_subscribe,"ax",@progbits
.LCOLDB11:
	.section	.text.mqtt_subscribe,"ax",@progbits
.LHOTB11:
	.globl	mqtt_subscribe
	.type	mqtt_subscribe, @function
mqtt_subscribe:
.LFB30:
	.loc 1 260 0
	.cfi_startproc
.LVL45:
	pushl	%ebp
	.cfi_def_cfa_offset 8
	.cfi_offset 5, -8
	movl	%esp, %ebp
	.cfi_def_cfa_register 5
	pushl	%edi
	pushl	%esi
	pushl	%ebx
	subl	$28, %esp
	.cfi_offset 7, -12
	.cfi_offset 6, -16
	.cfi_offset 3, -20
	.loc 1 260 0
	movl	8(%ebp), %esi
	.loc 1 261 0
	testl	%esi, %esi
	je	.L87
	cmpl	$0, 12(%ebp)
	sete	-25(%ebp)
	je	.L87
	.loc 1 264 0
	cmpl	$0, mqtt_client
	je	.L87
	.loc 1 267 0
	pushl	%eax
	pushl	$16
	pushl	$267
	pushl	$__func__.3941
	call	LITE_malloc_internal
.LVL46:
	.loc 1 268 0
	addl	$16, %esp
	testl	%eax, %eax
	.loc 1 267 0
	movl	%eax, %ebx
.LVL47:
	.loc 1 268 0
	je	.L87
	.loc 1 270 0
	xorl	%eax, %eax
.LVL48:
	movl	$4, %ecx
	movl	%ebx, %edi
	rep stosl
	.loc 1 272 0
	movb	-25(%ebp), %al
	movl	%esi, %edi
	orl	$-1, %ecx
	repnz scasb
.LVL49:
	notl	%ecx
	pushl	%edi
	pushl	%ecx
	pushl	$272
	pushl	$__func__.3941
	call	LITE_malloc_internal
.LVL50:
	.loc 1 273 0
	addl	$16, %esp
	testl	%eax, %eax
	.loc 1 272 0
	movl	%eax, (%ebx)
	.loc 1 273 0
	jne	.L79
.L88:
	.loc 1 274 0 discriminator 2
	subl	$12, %esp
	pushl	%ebx
	call	LITE_free_internal
.LVL51:
	addl	$16, %esp
.LVL52:
.L87:
	.loc 1 275 0 discriminator 2
	orl	$-1, %eax
	jmp	.L77
.LVL53:
.L79:
	.loc 1 277 0
	pushl	%edx
	pushl	%edx
	pushl	%esi
	pushl	%eax
	call	strcpy
.LVL54:
	.loc 1 279 0
	movl	12(%ebp), %eax
	movl	%eax, 4(%ebx)
	.loc 1 280 0
	movl	16(%ebp), %eax
	movl	%eax, 8(%ebx)
	.loc 1 282 0
	movl	%ebx, (%esp)
	pushl	$subscriber_cb
	pushl	$1
	pushl	(%ebx)
	pushl	mqtt_client
	call	IOT_MQTT_Subscribe
.LVL55:
	.loc 1 283 0
	addl	$32, %esp
	testl	%eax, %eax
	jns	.L80
	.loc 1 284 0
	movl	(%ebx), %eax
.LVL56:
	testl	%eax, %eax
	jne	.L81
	.loc 1 284 0 is_stmt 0 discriminator 1
	pushl	%eax
	pushl	%eax
	pushl	$.LC9
	pushl	$.LC9
	pushl	$.LC10
	pushl	$2
	pushl	$284
	pushl	$__FUNCTION__.3942
	call	LITE_syslog
.LVL57:
	addl	$32, %esp
	jmp	.L88
.L81:
	.loc 1 284 0 discriminator 2
	subl	$12, %esp
	pushl	%eax
	call	LITE_free_internal
.LVL58:
	movl	$0, (%ebx)
	addl	$16, %esp
	jmp	.L88
.LVL59:
.L80:
.LBB12:
.LBB13:
	.loc 1 229 0 is_stmt 1
	movl	first_topic, %eax
.LVL60:
	.loc 1 230 0
	movl	%ebx, first_topic
	.loc 1 229 0
	movl	%eax, 12(%ebx)
.LBE13:
.LBE12:
	.loc 1 291 0
	xorl	%eax, %eax
.LVL61:
.L77:
	.loc 1 292 0
	leal	-12(%ebp), %esp
	popl	%ebx
	.cfi_restore 3
	popl	%esi
	.cfi_restore 6
	popl	%edi
	.cfi_restore 7
	popl	%ebp
	.cfi_restore 5
	.cfi_def_cfa 4, 4
	ret
	.cfi_endproc
.LFE30:
	.size	mqtt_subscribe, .-mqtt_subscribe
	.section	.text.unlikely.mqtt_subscribe
.LCOLDE11:
	.section	.text.mqtt_subscribe
.LHOTE11:
	.section	.text.unlikely.mqtt_unsubscribe,"ax",@progbits
.LCOLDB12:
	.section	.text.mqtt_unsubscribe,"ax",@progbits
.LHOTB12:
	.globl	mqtt_unsubscribe
	.type	mqtt_unsubscribe, @function
mqtt_unsubscribe:
.LFB31:
	.loc 1 295 0
	.cfi_startproc
.LVL62:
	pushl	%ebp
	.cfi_def_cfa_offset 8
	.cfi_offset 5, -8
	movl	%esp, %ebp
	.cfi_def_cfa_register 5
	pushl	%edi
	pushl	%esi
	pushl	%ebx
	subl	$12, %esp
	.cfi_offset 7, -12
	.cfi_offset 6, -16
	.cfi_offset 3, -20
	.loc 1 298 0
	cmpl	$0, mqtt_client
	.loc 1 295 0
	movl	8(%ebp), %esi
	.loc 1 301 0
	movl	first_topic, %ebx
	.loc 1 298 0
	je	.L103
.L91:
.LVL63:
	.loc 1 301 0 discriminator 1
	testl	%ebx, %ebx
	je	.L104
	.loc 1 302 0
	movl	12(%ebx), %edi
.LVL64:
	.loc 1 304 0
	pushl	%ecx
	pushl	%ecx
	pushl	%esi
	pushl	(%ebx)
	call	strcmp
.LVL65:
	addl	$16, %esp
	testl	%eax, %eax
	jne	.L92
	.loc 1 305 0
	pushl	%edx
	pushl	%edx
	pushl	%esi
	pushl	mqtt_client
	call	IOT_MQTT_Unsubscribe
.LVL66:
	addl	$16, %esp
.LBB16:
.LBB17:
	.loc 1 238 0
	movl	$first_topic, %edx
.LVL67:
.L93:
	.loc 1 239 0
	movl	(%edx), %eax
	testl	%eax, %eax
	je	.L105
.LVL68:
	.loc 1 241 0
	cmpl	%eax, %ebx
	jne	.L94
	.loc 1 242 0
	movl	12(%ebx), %eax
.LVL69:
	movl	%eax, (%edx)
.LVL70:
	jmp	.L93
.LVL71:
.L94:
	.loc 1 244 0
	leal	12(%eax), %edx
.LVL72:
	jmp	.L93
.LVL73:
.L105:
.LBE17:
.LBE16:
	.loc 1 307 0
	movl	(%ebx), %eax
	testl	%eax, %eax
	jne	.L97
	.loc 1 307 0 is_stmt 0 discriminator 1
	pushl	%eax
	pushl	%eax
	pushl	$.LC9
	pushl	$.LC9
	pushl	$.LC10
	pushl	$2
	pushl	$307
	pushl	$__FUNCTION__.3952
	call	LITE_syslog
.LVL74:
	addl	$32, %esp
	jmp	.L98
.L97:
	.loc 1 307 0 discriminator 2
	subl	$12, %esp
	pushl	%eax
	call	LITE_free_internal
.LVL75:
	movl	$0, (%ebx)
	addl	$16, %esp
.L98:
	.loc 1 308 0 is_stmt 1
	subl	$12, %esp
	pushl	%ebx
	call	LITE_free_internal
.LVL76:
	addl	$16, %esp
.LVL77:
.L92:
.LBB19:
.LBB18:
	.loc 1 238 0 discriminator 1
	movl	%edi, %ebx
	jmp	.L91
.LVL78:
.L104:
.LBE18:
.LBE19:
	.loc 1 313 0
	xorl	%eax, %eax
	jmp	.L90
.LVL79:
.L103:
	orl	$-1, %eax
.L90:
	.loc 1 314 0
	leal	-12(%ebp), %esp
	popl	%ebx
	.cfi_restore 3
	popl	%esi
	.cfi_restore 6
	popl	%edi
	.cfi_restore 7
	popl	%ebp
	.cfi_restore 5
	.cfi_def_cfa 4, 4
	ret
	.cfi_endproc
.LFE31:
	.size	mqtt_unsubscribe, .-mqtt_unsubscribe
	.section	.text.unlikely.mqtt_unsubscribe
.LCOLDE12:
	.section	.text.mqtt_unsubscribe
.LHOTE12:
	.section	.rodata.str1.1
.LC13:
	.string	"\033[1;31;40m%s.%d: "
.LC14:
	.string	"IOT_MQTT_Publish failed"
.LC15:
	.string	"\033[0m"
	.section	.text.unlikely.mqtt_publish,"ax",@progbits
.LCOLDB16:
	.section	.text.mqtt_publish,"ax",@progbits
.LHOTB16:
	.globl	mqtt_publish
	.type	mqtt_publish, @function
mqtt_publish:
.LFB32:
	.loc 1 317 0
	.cfi_startproc
.LVL80:
	pushl	%ebp
	.cfi_def_cfa_offset 8
	.cfi_offset 5, -8
	.loc 1 321 0
	orl	$-1, %edx
	.loc 1 317 0
	movl	%esp, %ebp
	.cfi_def_cfa_register 5
	pushl	%edi
	pushl	%esi
	pushl	%ebx
	subl	$60, %esp
	.cfi_offset 7, -12
	.cfi_offset 6, -16
	.cfi_offset 3, -20
	.loc 1 317 0
	movl	8(%ebp), %eax
	.loc 1 320 0
	movl	mqtt_client, %ebx
	.loc 1 317 0
	movl	16(%ebp), %esi
	movl	%eax, -60(%ebp)
	movl	%gs:20, %eax
	movl	%eax, -28(%ebp)
	xorl	%eax, %eax
	.loc 1 320 0
	testl	%ebx, %ebx
	je	.L107
	.loc 1 322 0
	leal	-48(%ebp), %edx
	movl	$5, %ecx
	movl	%edx, %edi
	rep stosl
	.loc 1 324 0
	movl	12(%ebp), %eax
	.loc 1 327 0
	movl	%esi, -32(%ebp)
	.loc 1 324 0
	movb	%al, -46(%ebp)
	.loc 1 328 0
	movl	20(%ebp), %eax
	.loc 1 330 0
	pushl	%ecx
	pushl	%edx
	pushl	-60(%ebp)
	pushl	%ebx
	.loc 1 328 0
	movw	%ax, -40(%ebp)
	.loc 1 330 0
	call	IOT_MQTT_Publish
.LVL81:
	addl	$16, %esp
	.loc 1 335 0
	xorl	%edx, %edx
	.loc 1 330 0
	testl	%eax, %eax
	jns	.L107
	.loc 1 331 0
	pushl	%eax
	pushl	$331
	pushl	$__func__.3965
	pushl	$.LC13
	call	printf
.LVL82:
	movl	$.LC14, (%esp)
	call	puts
.LVL83:
	movl	$.LC15, (%esp)
	call	printf
.LVL84:
	.loc 1 332 0
	addl	$16, %esp
	orl	$-1, %edx
.L107:
	.loc 1 336 0
	movl	-28(%ebp), %ecx
	xorl	%gs:20, %ecx
	movl	%edx, %eax
	je	.L108
	call	__stack_chk_fail
.LVL85:
.L108:
	leal	-12(%ebp), %esp
	popl	%ebx
	.cfi_restore 3
	popl	%esi
	.cfi_restore 6
	popl	%edi
	.cfi_restore 7
	popl	%ebp
	.cfi_restore 5
	.cfi_def_cfa 4, 4
	ret
	.cfi_endproc
.LFE32:
	.size	mqtt_publish, .-mqtt_publish
	.section	.text.unlikely.mqtt_publish
.LCOLDE16:
	.section	.text.mqtt_publish
.LHOTE16:
	.section	.rodata.__func__.3965,"a",@progbits
	.align 4
	.type	__func__.3965, @object
	.size	__func__.3965, 13
__func__.3965:
	.string	"mqtt_publish"
	.section	.rodata.__FUNCTION__.3952,"a",@progbits
	.align 4
	.type	__FUNCTION__.3952, @object
	.size	__FUNCTION__.3952, 17
__FUNCTION__.3952:
	.string	"mqtt_unsubscribe"
	.section	.rodata.__FUNCTION__.3942,"a",@progbits
	.align 4
	.type	__FUNCTION__.3942, @object
	.size	__FUNCTION__.3942, 15
__FUNCTION__.3942:
	.string	"mqtt_subscribe"
	.section	.rodata.__func__.3941,"a",@progbits
	.align 4
	.type	__func__.3941, @object
	.size	__func__.3941, 15
__func__.3941:
	.string	"mqtt_subscribe"
	.section	.rodata.__func__.3899,"a",@progbits
	.align 4
	.type	__func__.3899, @object
	.size	__func__.3899, 18
__func__.3899:
	.string	"mqtt_set_event_cb"
	.section	.rodata.__func__.3878,"a",@progbits
	.align 4
	.type	__func__.3878, @object
	.size	__func__.3878, 19
__func__.3878:
	.string	"mqtt_init_instance"
	.section	.bss.first_topic,"aw",@nobits
	.align 4
	.type	first_topic, @object
	.size	first_topic, 4
first_topic:
	.zero	4
	.section	.bss.first_event,"aw",@nobits
	.align 4
	.type	first_event, @object
	.size	first_event, 4
first_event:
	.zero	4
	.section	.bss.mqtt_wbuf,"aw",@nobits
	.align 4
	.type	mqtt_wbuf, @object
	.size	mqtt_wbuf, 4
mqtt_wbuf:
	.zero	4
	.section	.bss.mqtt_rbuf,"aw",@nobits
	.align 4
	.type	mqtt_rbuf, @object
	.size	mqtt_rbuf, 4
mqtt_rbuf:
	.zero	4
	.section	.bss.mqtt_client,"aw",@nobits
	.align 4
	.type	mqtt_client, @object
	.size	mqtt_client, 4
mqtt_client:
	.zero	4
	.text
.Letext0:
	.section	.text.unlikely.event_handle
.Letext_cold0:
	.file 2 "/home/stone/Documents/Ali_IOT/build/compiler/gcc-arm-none-eabi/Linux64/arm-none-eabi/include/machine/_default_types.h"
	.file 3 "/home/stone/Documents/Ali_IOT/build/compiler/gcc-arm-none-eabi/Linux64/arm-none-eabi/include/sys/_stdint.h"
	.file 4 "./framework/protocol/linkkit/iotkit/base/log/LITE-log/lite-log.h"
	.file 5 "./framework/protocol/linkkit/iotkit/base/utils/iot_export.h"
	.file 6 "./framework/protocol/linkkit/iotkit/base/utils/exports/iot_export_errno.h"
	.file 7 "framework/connectivity/mqtt/iot_export_mqtt.h"
	.file 8 "framework/connectivity/mqtt/mqtt_instance.h"
	.file 9 "./framework/protocol/linkkit/iotkit/base/utils/LITE-utils/src/lite-utils.h"
	.file 10 "/home/stone/Documents/Ali_IOT/build/compiler/gcc-arm-none-eabi/Linux64/arm-none-eabi/include/string.h"
	.file 11 "/home/stone/Documents/Ali_IOT/build/compiler/gcc-arm-none-eabi/Linux64/arm-none-eabi/include/stdio.h"
	.file 12 "<built-in>"
	.section	.note.GNU-stack,"",@progbits
