	.file	"MQTTUnsubscribeClient.c"
	.text
.Ltext0:
	.section	.text.unlikely.MQTTSerialize_unsubscribeLength,"ax",@progbits
.LCOLDB0:
	.section	.text.MQTTSerialize_unsubscribeLength,"ax",@progbits
.LHOTB0:
	.section	.text.unlikely.MQTTSerialize_unsubscribeLength
.Ltext_cold0:
	.section	.text.MQTTSerialize_unsubscribeLength
	.globl	MQTTSerialize_unsubscribeLength
	.type	MQTTSerialize_unsubscribeLength, @function
MQTTSerialize_unsubscribeLength:
.LFB0:
	.file 1 "framework/connectivity/mqtt/MQTTPacket/MQTTUnsubscribeClient.c"
	.loc 1 28 0
	.cfi_startproc
.LVL0:
	pushl	%ebp
	.cfi_def_cfa_offset 8
	.cfi_offset 5, -8
	.loc 1 32 0
	xorl	%edx, %edx
	.loc 1 28 0
	movl	%esp, %ebp
	.cfi_def_cfa_register 5
	pushl	%edi
	pushl	%esi
	pushl	%ebx
	.cfi_offset 7, -12
	.cfi_offset 6, -16
	.cfi_offset 3, -20
	.loc 1 30 0
	movl	$2, %ebx
	.loc 1 28 0
	subl	$28, %esp
	movl	12(%ebp), %eax
	movl	%eax, -28(%ebp)
.LVL1:
.L2:
	.loc 1 32 0 discriminator 1
	cmpl	8(%ebp), %edx
	jge	.L6
	.loc 1 33 0 discriminator 3
	subl	$16, %esp
	movl	%edx, -32(%ebp)
	movl	-28(%ebp), %esi
	movl	%esp, %edi
	movl	$3, %ecx
	rep movsl
	call	MQTTstrlen
.LVL2:
	.loc 1 32 0 discriminator 3
	movl	-32(%ebp), %edx
	.loc 1 33 0 discriminator 3
	leal	2(%ebx,%eax), %ebx
.LVL3:
	addl	$12, -28(%ebp)
	addl	$16, %esp
	.loc 1 32 0 discriminator 3
	incl	%edx
.LVL4:
	jmp	.L2
.L6:
	.loc 1 35 0
	leal	-12(%ebp), %esp
	movl	%ebx, %eax
	popl	%ebx
	.cfi_restore 3
.LVL5:
	popl	%esi
	.cfi_restore 6
	popl	%edi
	.cfi_restore 7
	popl	%ebp
	.cfi_restore 5
	.cfi_def_cfa 4, 4
	ret
	.cfi_endproc
.LFE0:
	.size	MQTTSerialize_unsubscribeLength, .-MQTTSerialize_unsubscribeLength
	.section	.text.unlikely.MQTTSerialize_unsubscribeLength
.LCOLDE0:
	.section	.text.MQTTSerialize_unsubscribeLength
.LHOTE0:
	.section	.text.unlikely.MQTTSerialize_unsubscribe,"ax",@progbits
.LCOLDB1:
	.section	.text.MQTTSerialize_unsubscribe,"ax",@progbits
.LHOTB1:
	.globl	MQTTSerialize_unsubscribe
	.type	MQTTSerialize_unsubscribe, @function
MQTTSerialize_unsubscribe:
.LFB1:
	.loc 1 50 0
	.cfi_startproc
.LVL6:
	pushl	%ebp
	.cfi_def_cfa_offset 8
	.cfi_offset 5, -8
	movl	%esp, %ebp
	.cfi_def_cfa_register 5
	pushl	%edi
	pushl	%esi
	pushl	%ebx
	subl	$52, %esp
	.cfi_offset 7, -12
	.cfi_offset 6, -16
	.cfi_offset 3, -20
	.loc 1 50 0
	movl	8(%ebp), %eax
	movl	28(%ebp), %esi
	movl	16(%ebp), %ebx
	movl	%eax, -44(%ebp)
	movl	20(%ebp), %eax
	.loc 1 57 0
	pushl	%esi
	pushl	24(%ebp)
	.loc 1 50 0
	movl	%eax, -48(%ebp)
	movl	%gs:20, %eax
	movl	%eax, -28(%ebp)
	xorl	%eax, %eax
	.loc 1 51 0
	movl	-44(%ebp), %eax
	movl	%eax, -32(%ebp)
.LVL7:
	.loc 1 57 0
	call	MQTTSerialize_unsubscribeLength
.LVL8:
	movl	%eax, (%esp)
	movl	%eax, %edi
.LVL9:
	call	MQTTPacket_len
.LVL10:
	addl	$16, %esp
	cmpl	12(%ebp), %eax
	movl	$-2, %edx
	jg	.L8
	.loc 1 65 0
	andl	$1, %ebx
	.loc 1 67 0
	pushl	%edx
	pushl	%edx
	.loc 1 65 0
	leal	0(,%ebx,8), %eax
	.loc 1 67 0
	leal	-32(%ebp), %ebx
	.loc 1 65 0
	orb	$-96, %al
	.loc 1 66 0
	orl	$2, %eax
	.loc 1 67 0
	movsbl	%al, %eax
	pushl	%eax
	pushl	%ebx
	call	writeChar
.LVL11:
	.loc 1 69 0
	popl	%ecx
	popl	%eax
	pushl	%edi
	pushl	-32(%ebp)
	call	MQTTPacket_encode
.LVL12:
	addl	%eax, -32(%ebp)
	.loc 1 71 0
	popl	%eax
	movzwl	-48(%ebp), %eax
	popl	%edx
	pushl	%eax
	pushl	%ebx
	call	writeInt
.LVL13:
	movl	%esi, %edx
	.loc 1 73 0
	addl	$16, %esp
	xorl	%eax, %eax
.LVL14:
.L9:
	.loc 1 73 0 is_stmt 0 discriminator 1
	cmpl	24(%ebp), %eax
	jge	.L15
	.loc 1 74 0 is_stmt 1 discriminator 3
	subl	$12, %esp
	movl	%eax, -52(%ebp)
	movl	%edx, %esi
	movl	%esp, %edi
	movl	%edx, -48(%ebp)
	movl	$3, %ecx
	rep movsl
	pushl	%ebx
	call	writeMQTTString
.LVL15:
	.loc 1 73 0 discriminator 3
	movl	-52(%ebp), %eax
	movl	-48(%ebp), %edx
	addl	$16, %esp
	incl	%eax
.LVL16:
	addl	$12, %edx
	jmp	.L9
.L15:
	.loc 1 76 0
	movl	-32(%ebp), %edx
	subl	-44(%ebp), %edx
.LVL17:
.L8:
	.loc 1 79 0
	movl	-28(%ebp), %ecx
	xorl	%gs:20, %ecx
	movl	%edx, %eax
	je	.L11
	call	__stack_chk_fail
.LVL18:
.L11:
	leal	-12(%ebp), %esp
	popl	%ebx
	.cfi_restore 3
	popl	%esi
	.cfi_restore 6
	popl	%edi
	.cfi_restore 7
	popl	%ebp
	.cfi_restore 5
	.cfi_def_cfa 4, 4
	ret
	.cfi_endproc
.LFE1:
	.size	MQTTSerialize_unsubscribe, .-MQTTSerialize_unsubscribe
	.section	.text.unlikely.MQTTSerialize_unsubscribe
.LCOLDE1:
	.section	.text.MQTTSerialize_unsubscribe
.LHOTE1:
	.section	.text.unlikely.MQTTDeserialize_unsuback,"ax",@progbits
.LCOLDB2:
	.section	.text.MQTTDeserialize_unsuback,"ax",@progbits
.LHOTB2:
	.globl	MQTTDeserialize_unsuback
	.type	MQTTDeserialize_unsuback, @function
MQTTDeserialize_unsuback:
.LFB2:
	.loc 1 90 0
	.cfi_startproc
.LVL19:
	pushl	%ebp
	.cfi_def_cfa_offset 8
	.cfi_offset 5, -8
	movl	%esp, %ebp
	.cfi_def_cfa_register 5
	subl	$36, %esp
	.loc 1 90 0
	movl	%gs:20, %eax
	movl	%eax, -12(%ebp)
	xorl	%eax, %eax
	.loc 1 95 0
	leal	-13(%ebp), %eax
	pushl	16(%ebp)
	pushl	12(%ebp)
	pushl	8(%ebp)
	.loc 1 91 0
	movb	$0, -14(%ebp)
	.loc 1 95 0
	pushl	%eax
	leal	-14(%ebp), %eax
	.loc 1 92 0
	movb	$0, -13(%ebp)
.LVL20:
	.loc 1 95 0
	pushl	%eax
	call	MQTTDeserialize_ack
.LVL21:
	.loc 1 96 0
	addl	$32, %esp
	.loc 1 97 0
	cmpb	$11, -14(%ebp)
	movl	$1, %edx
	cmove	%edx, %eax
.LVL22:
	.loc 1 99 0
	movl	-12(%ebp), %ecx
	xorl	%gs:20, %ecx
	je	.L18
	call	__stack_chk_fail
.LVL23:
.L18:
	leave
	.cfi_restore 5
	.cfi_def_cfa 4, 4
	ret
	.cfi_endproc
.LFE2:
	.size	MQTTDeserialize_unsuback, .-MQTTDeserialize_unsuback
	.section	.text.unlikely.MQTTDeserialize_unsuback
.LCOLDE2:
	.section	.text.MQTTDeserialize_unsuback
.LHOTE2:
	.text
.Letext0:
	.section	.text.unlikely.MQTTSerialize_unsubscribeLength
.Letext_cold0:
	.file 2 "framework/connectivity/mqtt/MQTTPacket/MQTTPacket.h"
	.section	.note.GNU-stack,"",@progbits
