	.file	"MQTTConnectClient.c"
	.text
.Ltext0:
	.section	.text.unlikely.MQTTSerialize_connectLength,"ax",@progbits
.LCOLDB0:
	.section	.text.MQTTSerialize_connectLength,"ax",@progbits
.LHOTB0:
	.section	.text.unlikely.MQTTSerialize_connectLength
.Ltext_cold0:
	.section	.text.MQTTSerialize_connectLength
	.globl	MQTTSerialize_connectLength
	.type	MQTTSerialize_connectLength, @function
MQTTSerialize_connectLength:
.LFB0:
	.file 1 "framework/connectivity/mqtt/MQTTPacket/MQTTConnectClient.c"
	.loc 1 27 0
	.cfi_startproc
.LVL0:
	pushl	%ebp
	.cfi_def_cfa_offset 8
	.cfi_offset 5, -8
	movl	$12, %edx
	movl	%esp, %ebp
	.cfi_def_cfa_register 5
	pushl	%edi
	pushl	%esi
	pushl	%ebx
	subl	$28, %esp
	.cfi_offset 7, -12
	.cfi_offset 6, -16
	.cfi_offset 3, -20
	.loc 1 27 0
	movl	8(%ebp), %ebx
	.loc 1 31 0
	movb	8(%ebx), %al
	cmpb	$3, %al
	je	.L2
	.loc 1 34 0
	cmpb	$4, %al
	movl	$0, %edx
	movl	$10, %eax
	cmove	%eax, %edx
.L2:
	.loc 1 36 0
	subl	$16, %esp
	movl	%edx, -28(%ebp)
.LVL1:
	leal	12(%ebx), %esi
	movl	%esp, %edi
	movl	$3, %ecx
	rep movsl
	call	MQTTstrlen
.LVL2:
	.loc 1 37 0
	addl	$16, %esp
	cmpb	$0, 27(%ebx)
	.loc 1 36 0
	movl	-28(%ebp), %edx
	leal	2(%edx,%eax), %edx
.LVL3:
	.loc 1 37 0
	je	.L3
	.loc 1 38 0
	subl	$16, %esp
	movl	%edx, -32(%ebp)
	leal	36(%ebx), %esi
	movl	%esp, %edi
	movl	$3, %ecx
	rep movsl
	call	MQTTstrlen
.LVL4:
	movl	%esp, %edi
	movl	%eax, -28(%ebp)
	leal	48(%ebx), %esi
	movl	$3, %ecx
	rep movsl
	call	MQTTstrlen
.LVL5:
	movl	-28(%ebp), %ecx
	movl	-32(%ebp), %edx
	addl	$16, %esp
	leal	4(%ecx,%eax), %eax
	addl	%eax, %edx
.LVL6:
.L3:
	.loc 1 39 0
	cmpl	$0, 64(%ebx)
	jne	.L4
	.loc 1 39 0 is_stmt 0 discriminator 1
	cmpl	$0, 72(%ebx)
	je	.L5
.L4:
	.loc 1 40 0 is_stmt 1
	subl	$16, %esp
	movl	%edx, -28(%ebp)
	leal	64(%ebx), %esi
	movl	%esp, %edi
	movl	$3, %ecx
	rep movsl
	call	MQTTstrlen
.LVL7:
	movl	-28(%ebp), %edx
	addl	$16, %esp
	leal	2(%edx,%eax), %edx
.LVL8:
.L5:
	.loc 1 41 0
	cmpl	$0, 76(%ebx)
	jne	.L6
	.loc 1 41 0 is_stmt 0 discriminator 1
	cmpl	$0, 84(%ebx)
	je	.L7
.L6:
	.loc 1 42 0 is_stmt 1
	subl	$16, %esp
	movl	%edx, -28(%ebp)
	leal	76(%ebx), %esi
	movl	%esp, %edi
	movl	$3, %ecx
	rep movsl
	call	MQTTstrlen
.LVL9:
	movl	-28(%ebp), %edx
	addl	$16, %esp
	leal	2(%edx,%eax), %edx
.LVL10:
.L7:
	.loc 1 45 0
	leal	-12(%ebp), %esp
	movl	%edx, %eax
	popl	%ebx
	.cfi_restore 3
	popl	%esi
	.cfi_restore 6
	popl	%edi
	.cfi_restore 7
	popl	%ebp
	.cfi_restore 5
	.cfi_def_cfa 4, 4
	ret
	.cfi_endproc
.LFE0:
	.size	MQTTSerialize_connectLength, .-MQTTSerialize_connectLength
	.section	.text.unlikely.MQTTSerialize_connectLength
.LCOLDE0:
	.section	.text.MQTTSerialize_connectLength
.LHOTE0:
	.section	.rodata.str1.1,"aMS",@progbits,1
.LC1:
	.string	"MQTT"
.LC2:
	.string	"MQIsdp"
	.section	.text.unlikely.MQTTSerialize_connect,"ax",@progbits
.LCOLDB3:
	.section	.text.MQTTSerialize_connect,"ax",@progbits
.LHOTB3:
	.globl	MQTTSerialize_connect
	.type	MQTTSerialize_connect, @function
MQTTSerialize_connect:
.LFB1:
	.loc 1 56 0
	.cfi_startproc
.LVL11:
	pushl	%ebp
	.cfi_def_cfa_offset 8
	.cfi_offset 5, -8
	movl	%esp, %ebp
	.cfi_def_cfa_register 5
	pushl	%edi
	pushl	%esi
	pushl	%ebx
	subl	$56, %esp
	.cfi_offset 7, -12
	.cfi_offset 6, -16
	.cfi_offset 3, -20
	.loc 1 56 0
	movl	8(%ebp), %eax
	movl	16(%ebp), %ebx
	movl	%eax, -44(%ebp)
	.loc 1 63 0
	pushl	%ebx
	.loc 1 56 0
	movl	%gs:20, %eax
	movl	%eax, -28(%ebp)
	xorl	%eax, %eax
	.loc 1 57 0
	movl	-44(%ebp), %eax
	movl	%eax, -32(%ebp)
.LVL12:
	.loc 1 63 0
	call	MQTTSerialize_connectLength
.LVL13:
	movl	%eax, (%esp)
	movl	%eax, %esi
.LVL14:
	call	MQTTPacket_len
.LVL15:
	addl	$16, %esp
	cmpl	12(%ebp), %eax
	movl	$-2, %edx
	jg	.L14
	.loc 1 71 0
	pushl	%eax
	pushl	%eax
	leal	-32(%ebp), %eax
	pushl	$16
	pushl	%eax
	call	writeChar
.LVL16:
	.loc 1 73 0
	popl	%eax
	popl	%edx
	pushl	%esi
	pushl	-32(%ebp)
	call	MQTTPacket_encode
.LVL17:
	.loc 1 75 0
	addl	$16, %esp
	.loc 1 73 0
	addl	%eax, -32(%ebp)
	.loc 1 75 0
	cmpb	$4, 8(%ebx)
	jne	.L15
	.loc 1 77 0
	leal	-32(%ebp), %eax
	pushl	%ecx
	pushl	%ecx
	pushl	$.LC1
	pushl	%eax
	call	writeCString
.LVL18:
	.loc 1 78 0
	popl	%esi
.LVL19:
	popl	%edi
	pushl	$4
	jmp	.L38
.LVL20:
.L15:
	.loc 1 82 0
	leal	-32(%ebp), %eax
	pushl	%edi
	pushl	%edi
	pushl	$.LC2
	pushl	%eax
	call	writeCString
.LVL21:
	.loc 1 83 0
	popl	%eax
	popl	%edx
	pushl	$3
.LVL22:
.L38:
	leal	-32(%ebp), %eax
	pushl	%eax
	call	writeChar
.LVL23:
	.loc 1 87 0
	movzbl	26(%ebx), %eax
	.loc 1 88 0
	xorl	%edx, %edx
	.loc 1 83 0
	addl	$16, %esp
	.loc 1 87 0
	andl	$1, %eax
	addl	%eax, %eax
	.loc 1 88 0
	cmpb	$0, 27(%ebx)
	setne	%dl
	sall	$2, %edx
	.loc 1 89 0
	orl	%edx, %eax
.LVL24:
	testl	%edx, %edx
	je	.L17
	.loc 1 91 0
	movzbl	61(%ebx), %edx
	.loc 1 92 0
	movzbl	60(%ebx), %ecx
	.loc 1 91 0
	andl	$3, %edx
	.loc 1 92 0
	andl	$1, %ecx
	.loc 1 91 0
	sall	$3, %edx
	.loc 1 92 0
	sall	$5, %ecx
.LVL25:
	orl	%edx, %eax
.LVL26:
	orl	%ecx, %eax
.L17:
	.loc 1 95 0
	cmpl	$0, 64(%ebx)
	jne	.L18
	.loc 1 95 0 is_stmt 0 discriminator 1
	cmpl	$0, 72(%ebx)
	je	.L19
.L18:
	.loc 1 96 0 is_stmt 1
	orb	$-128, %al
.L19:
	.loc 1 97 0
	cmpl	$0, 76(%ebx)
	jne	.L20
	.loc 1 97 0 is_stmt 0 discriminator 1
	cmpl	$0, 84(%ebx)
	je	.L21
.L20:
.LVL27:
	.loc 1 98 0 is_stmt 1
	orl	$64, %eax
.LVL28:
.L21:
.LVL29:
	.loc 1 100 0
	movl	%eax, -48(%ebp)
	pushl	%edx
	pushl	%edx
	movsbl	%al, %edx
	leal	-32(%ebp), %eax
.LVL30:
	pushl	%edx
	pushl	%eax
	call	writeChar
.LVL31:
	.loc 1 101 0
	movzwl	24(%ebx), %edx
	leal	-32(%ebp), %eax
	popl	%ecx
	popl	%esi
	.loc 1 102 0
	leal	12(%ebx), %esi
	.loc 1 101 0
	pushl	%edx
	pushl	%eax
	call	writeInt
.LVL32:
	.loc 1 102 0
	subl	$12, %esp
	movl	$3, %ecx
	leal	-32(%ebp), %eax
	movl	%esp, %edi
	rep movsl
	pushl	%eax
	call	writeMQTTString
.LVL33:
	.loc 1 103 0
	addl	$32, %esp
	cmpb	$0, 27(%ebx)
	movl	-48(%ebp), %eax
	je	.L22
	.loc 1 105 0
	subl	$12, %esp
	leal	36(%ebx), %esi
	movl	$3, %ecx
	movl	%esp, %edi
	leal	-32(%ebp), %eax
	rep movsl
	pushl	%eax
	.loc 1 106 0
	leal	48(%ebx), %esi
	.loc 1 105 0
	call	writeMQTTString
.LVL34:
	.loc 1 106 0
	subl	$12, %esp
	movl	$3, %ecx
	leal	-32(%ebp), %eax
	movl	%esp, %edi
	rep movsl
	pushl	%eax
	call	writeMQTTString
.LVL35:
	movl	-48(%ebp), %eax
	addl	$32, %esp
.L22:
	.loc 1 108 0
	testb	%al, %al
	movb	%al, -48(%ebp)
	jns	.L23
	.loc 1 109 0
	subl	$12, %esp
	leal	64(%ebx), %esi
	movl	$3, %ecx
	movl	%esp, %edi
	leal	-32(%ebp), %eax
	rep movsl
	pushl	%eax
	call	writeMQTTString
.LVL36:
	addl	$16, %esp
.L23:
	.loc 1 110 0
	testb	$64, -48(%ebp)
	je	.L24
	.loc 1 111 0
	subl	$12, %esp
	leal	76(%ebx), %esi
	movl	$3, %ecx
	movl	%esp, %edi
	leal	-32(%ebp), %eax
	rep movsl
	pushl	%eax
	call	writeMQTTString
.LVL37:
	addl	$16, %esp
.L24:
	.loc 1 113 0
	movl	-32(%ebp), %edx
	subl	-44(%ebp), %edx
.LVL38:
.L14:
	.loc 1 117 0
	movl	-28(%ebp), %edi
	xorl	%gs:20, %edi
	movl	%edx, %eax
	je	.L25
	call	__stack_chk_fail
.LVL39:
.L25:
	leal	-12(%ebp), %esp
	popl	%ebx
	.cfi_restore 3
	popl	%esi
	.cfi_restore 6
	popl	%edi
	.cfi_restore 7
	popl	%ebp
	.cfi_restore 5
	.cfi_def_cfa 4, 4
	ret
	.cfi_endproc
.LFE1:
	.size	MQTTSerialize_connect, .-MQTTSerialize_connect
	.section	.text.unlikely.MQTTSerialize_connect
.LCOLDE3:
	.section	.text.MQTTSerialize_connect
.LHOTE3:
	.section	.text.unlikely.MQTTDeserialize_connack,"ax",@progbits
.LCOLDB4:
	.section	.text.MQTTDeserialize_connack,"ax",@progbits
.LHOTB4:
	.globl	MQTTDeserialize_connack
	.type	MQTTDeserialize_connack, @function
MQTTDeserialize_connack:
.LFB2:
	.loc 1 129 0
	.cfi_startproc
.LVL40:
	pushl	%ebp
	.cfi_def_cfa_offset 8
	.cfi_offset 5, -8
	movl	%esp, %ebp
	.cfi_def_cfa_register 5
	pushl	%edi
	pushl	%esi
	pushl	%ebx
	.cfi_offset 7, -12
	.cfi_offset 6, -16
	.cfi_offset 3, -20
	.loc 1 137 0
	leal	-36(%ebp), %ebx
	.loc 1 129 0
	subl	$40, %esp
	.loc 1 129 0
	movl	8(%ebp), %edi
	movl	12(%ebp), %esi
	movl	%gs:20, %eax
	movl	%eax, -28(%ebp)
	xorl	%eax, %eax
.LVL41:
	.loc 1 131 0
	movl	16(%ebp), %eax
	.loc 1 137 0
	pushl	%ebx
	.loc 1 131 0
	movl	%eax, -36(%ebp)
.LVL42:
	.loc 1 137 0
	call	readChar
.LVL43:
	.loc 1 138 0
	andl	$-16, %eax
.LVL44:
	addl	$16, %esp
	movb	%al, %dl
	.loc 1 133 0
	xorl	%eax, %eax
	.loc 1 138 0
	cmpb	$32, %dl
	jne	.L40
	.loc 1 141 0
	pushl	%eax
	pushl	%eax
	leal	-32(%ebp), %eax
	pushl	%eax
	pushl	-36(%ebp)
	call	MQTTPacket_decodeBuf
.LVL45:
	.loc 1 143 0
	addl	$16, %esp
	.loc 1 141 0
	addl	%eax, -36(%ebp)
.LVL46:
	.loc 1 143 0
	cmpl	$1, -32(%ebp)
	jle	.L40
	.loc 1 146 0
	subl	$12, %esp
	pushl	%ebx
	call	readChar
.LVL47:
	shrl	$7, %eax
.LVL48:
	.loc 1 147 0
	andl	$1, %eax
.LVL49:
	movb	%al, (%edi)
	.loc 1 148 0
	movl	%ebx, (%esp)
	call	readChar
.LVL50:
	addl	$16, %esp
	movb	%al, (%esi)
.LVL51:
	.loc 1 150 0
	movl	$1, %eax
.LVL52:
.L40:
	.loc 1 153 0
	movl	-28(%ebp), %ecx
	xorl	%gs:20, %ecx
	je	.L41
	call	__stack_chk_fail
.LVL53:
.L41:
	leal	-12(%ebp), %esp
	popl	%ebx
	.cfi_restore 3
	popl	%esi
	.cfi_restore 6
	popl	%edi
	.cfi_restore 7
	popl	%ebp
	.cfi_restore 5
	.cfi_def_cfa 4, 4
	ret
	.cfi_endproc
.LFE2:
	.size	MQTTDeserialize_connack, .-MQTTDeserialize_connack
	.section	.text.unlikely.MQTTDeserialize_connack
.LCOLDE4:
	.section	.text.MQTTDeserialize_connack
.LHOTE4:
	.section	.text.unlikely.MQTTSerialize_zero,"ax",@progbits
.LCOLDB5:
	.section	.text.MQTTSerialize_zero,"ax",@progbits
.LHOTB5:
	.globl	MQTTSerialize_zero
	.type	MQTTSerialize_zero, @function
MQTTSerialize_zero:
.LFB3:
	.loc 1 164 0
	.cfi_startproc
.LVL54:
	pushl	%ebp
	.cfi_def_cfa_offset 8
	.cfi_offset 5, -8
	movl	$-2, %edx
	movl	%esp, %ebp
	.cfi_def_cfa_register 5
	pushl	%ebx
	subl	$20, %esp
	.cfi_offset 3, -12
	.loc 1 164 0
	movl	8(%ebp), %ebx
	movl	16(%ebp), %eax
	movl	%gs:20, %ecx
	movl	%ecx, -12(%ebp)
	xorl	%ecx, %ecx
.LVL55:
	.loc 1 169 0
	cmpl	$1, 12(%ebp)
	.loc 1 167 0
	movl	%ebx, -16(%ebp)
	.loc 1 169 0
	jle	.L45
	.loc 1 175 0
	andl	$15, %eax
	.loc 1 176 0
	pushl	%edx
	pushl	%edx
	.loc 1 175 0
	sall	$4, %eax
	.loc 1 176 0
	movsbl	%al, %eax
	pushl	%eax
	leal	-16(%ebp), %eax
	pushl	%eax
	call	writeChar
.LVL56:
	.loc 1 178 0
	popl	%ecx
	popl	%eax
	pushl	$0
	pushl	-16(%ebp)
	call	MQTTPacket_encode
.LVL57:
	.loc 1 179 0
	addl	-16(%ebp), %eax
.LVL58:
	addl	$16, %esp
	movl	%eax, %edx
	subl	%ebx, %edx
.LVL59:
.L45:
	.loc 1 182 0
	movl	-12(%ebp), %ecx
	xorl	%gs:20, %ecx
	movl	%edx, %eax
	je	.L46
	call	__stack_chk_fail
.LVL60:
.L46:
	movl	-4(%ebp), %ebx
	leave
	.cfi_restore 5
	.cfi_restore 3
	.cfi_def_cfa 4, 4
	ret
	.cfi_endproc
.LFE3:
	.size	MQTTSerialize_zero, .-MQTTSerialize_zero
	.section	.text.unlikely.MQTTSerialize_zero
.LCOLDE5:
	.section	.text.MQTTSerialize_zero
.LHOTE5:
	.section	.text.unlikely.MQTTSerialize_disconnect,"ax",@progbits
.LCOLDB6:
	.section	.text.MQTTSerialize_disconnect,"ax",@progbits
.LHOTB6:
	.globl	MQTTSerialize_disconnect
	.type	MQTTSerialize_disconnect, @function
MQTTSerialize_disconnect:
.LFB4:
	.loc 1 192 0
	.cfi_startproc
.LVL61:
	pushl	%ebp
	.cfi_def_cfa_offset 8
	.cfi_offset 5, -8
	movl	%esp, %ebp
	.cfi_def_cfa_register 5
	subl	$12, %esp
	.loc 1 193 0
	pushl	$14
	pushl	12(%ebp)
	pushl	8(%ebp)
	call	MQTTSerialize_zero
.LVL62:
	.loc 1 194 0
	leave
	.cfi_restore 5
	.cfi_def_cfa 4, 4
	ret
	.cfi_endproc
.LFE4:
	.size	MQTTSerialize_disconnect, .-MQTTSerialize_disconnect
	.section	.text.unlikely.MQTTSerialize_disconnect
.LCOLDE6:
	.section	.text.MQTTSerialize_disconnect
.LHOTE6:
	.section	.text.unlikely.MQTTSerialize_pingreq,"ax",@progbits
.LCOLDB7:
	.section	.text.MQTTSerialize_pingreq,"ax",@progbits
.LHOTB7:
	.globl	MQTTSerialize_pingreq
	.type	MQTTSerialize_pingreq, @function
MQTTSerialize_pingreq:
.LFB5:
	.loc 1 204 0
	.cfi_startproc
.LVL63:
	pushl	%ebp
	.cfi_def_cfa_offset 8
	.cfi_offset 5, -8
	movl	%esp, %ebp
	.cfi_def_cfa_register 5
	subl	$12, %esp
	.loc 1 205 0
	pushl	$12
	pushl	12(%ebp)
	pushl	8(%ebp)
	call	MQTTSerialize_zero
.LVL64:
	.loc 1 206 0
	leave
	.cfi_restore 5
	.cfi_def_cfa 4, 4
	ret
	.cfi_endproc
.LFE5:
	.size	MQTTSerialize_pingreq, .-MQTTSerialize_pingreq
	.section	.text.unlikely.MQTTSerialize_pingreq
.LCOLDE7:
	.section	.text.MQTTSerialize_pingreq
.LHOTE7:
	.text
.Letext0:
	.section	.text.unlikely.MQTTSerialize_connectLength
.Letext_cold0:
	.file 2 "framework/connectivity/mqtt/MQTTPacket/MQTTPacket.h"
	.file 3 "framework/connectivity/mqtt/MQTTPacket/MQTTConnect.h"
	.section	.note.GNU-stack,"",@progbits
