	.file	"mqtt_client.c"
	.text
.Ltext0:
	.section	.text.unlikely.iotx_mc_set_client_state,"ax",@progbits
.LCOLDB1:
	.section	.text.iotx_mc_set_client_state,"ax",@progbits
.LHOTB1:
	.section	.text.unlikely.iotx_mc_set_client_state
.Ltext_cold0:
	.section	.text.iotx_mc_set_client_state
	.type	iotx_mc_set_client_state, @function
iotx_mc_set_client_state:
.LFB66:
	.file 1 "framework/connectivity/mqtt/mqtt_client.c"
	.loc 1 1505 0
	.cfi_startproc
.LVL0:
	pushl	%ebp
	.cfi_def_cfa_offset 8
	.cfi_offset 5, -8
	movl	%esp, %ebp
	.cfi_def_cfa_register 5
	pushl	%esi
	pushl	%ebx
	.cfi_offset 6, -12
	.cfi_offset 3, -16
	.loc 1 1505 0
	movl	%edx, %esi
	movl	%eax, %ebx
	.loc 1 1507 0
	subl	$12, %esp
	pushl	(%eax)
	call	HAL_MutexLock
.LVL1:
	.loc 1 1509 0
	popl	%eax
	pushl	(%ebx)
	.loc 1 1508 0
	movl	%esi, 404(%ebx)
	.loc 1 1509 0
	call	HAL_MutexUnlock
.LVL2:
	.loc 1 1510 0
	addl	$16, %esp
	leal	-8(%ebp), %esp
	popl	%ebx
	.cfi_restore 3
.LVL3:
	popl	%esi
	.cfi_restore 6
.LVL4:
	popl	%ebp
	.cfi_restore 5
	.cfi_def_cfa 4, 4
	ret
	.cfi_endproc
.LFE66:
	.size	iotx_mc_set_client_state, .-iotx_mc_set_client_state
	.section	.text.unlikely.iotx_mc_set_client_state
.LCOLDE1:
	.section	.text.iotx_mc_set_client_state
.LHOTE1:
	.section	.text.unlikely.iotx_mc_get_client_state,"ax",@progbits
.LCOLDB2:
	.section	.text.iotx_mc_get_client_state,"ax",@progbits
.LHOTB2:
	.type	iotx_mc_get_client_state, @function
iotx_mc_get_client_state:
.LFB65:
	.loc 1 1491 0
	.cfi_startproc
.LVL5:
	pushl	%ebp
	.cfi_def_cfa_offset 8
	.cfi_offset 5, -8
	movl	%esp, %ebp
	.cfi_def_cfa_register 5
	pushl	%esi
	pushl	%ebx
	.cfi_offset 6, -12
	.cfi_offset 3, -16
	.loc 1 1491 0
	movl	%eax, %ebx
	.loc 1 1495 0
	subl	$12, %esp
	pushl	(%eax)
	call	HAL_MutexLock
.LVL6:
	.loc 1 1497 0
	popl	%eax
	pushl	(%ebx)
	.loc 1 1496 0
	movl	404(%ebx), %esi
.LVL7:
	.loc 1 1497 0
	call	HAL_MutexUnlock
.LVL8:
	.loc 1 1500 0
	leal	-8(%ebp), %esp
	movl	%esi, %eax
	popl	%ebx
	.cfi_restore 3
.LVL9:
	popl	%esi
	.cfi_restore 6
.LVL10:
	popl	%ebp
	.cfi_restore 5
	.cfi_def_cfa 4, 4
	ret
	.cfi_endproc
.LFE65:
	.size	iotx_mc_get_client_state, .-iotx_mc_get_client_state
	.section	.text.unlikely.iotx_mc_get_client_state
.LCOLDE2:
	.section	.text.iotx_mc_get_client_state
.LHOTE2:
	.section	.text.unlikely.iotx_mc_check_state_normal,"ax",@progbits
.LCOLDB3:
	.section	.text.iotx_mc_check_state_normal,"ax",@progbits
.LHOTB3:
	.type	iotx_mc_check_state_normal, @function
iotx_mc_check_state_normal:
.LFB60:
	.loc 1 1321 0
	.cfi_startproc
.LVL11:
	.loc 1 1322 0
	testl	%eax, %eax
	je	.L7
	.loc 1 1321 0
	pushl	%ebp
	.cfi_def_cfa_offset 8
	.cfi_offset 5, -8
	movl	%esp, %ebp
	.cfi_def_cfa_register 5
	subl	$8, %esp
	.loc 1 1326 0
	call	iotx_mc_get_client_state
.LVL12:
	.loc 1 1323 0
	cmpl	$2, %eax
	.loc 1 1331 0
	leave
	.cfi_restore 5
	.cfi_def_cfa 4, 4
	.loc 1 1323 0
	sete	%al
	movzbl	%al, %eax
	.loc 1 1331 0
	ret
.LVL13:
.L7:
	.loc 1 1323 0
	xorl	%eax, %eax
.LVL14:
	ret
	.cfi_endproc
.LFE60:
	.size	iotx_mc_check_state_normal, .-iotx_mc_check_state_normal
	.section	.text.unlikely.iotx_mc_check_state_normal
.LCOLDE3:
	.section	.text.iotx_mc_check_state_normal
.LHOTE3:
	.section	.text.unlikely.iotx_mc_get_next_packetid,"ax",@progbits
.LCOLDB4:
	.section	.text.iotx_mc_get_next_packetid,"ax",@progbits
.LHOTB4:
	.type	iotx_mc_get_next_packetid, @function
iotx_mc_get_next_packetid:
.LFB47:
	.loc 1 657 0
	.cfi_startproc
.LVL15:
	.loc 1 660 0
	testl	%eax, %eax
	je	.L14
	.loc 1 657 0
	pushl	%ebp
	.cfi_def_cfa_offset 8
	.cfi_offset 5, -8
	movl	%esp, %ebp
	.cfi_def_cfa_register 5
	pushl	%esi
	pushl	%ebx
	.cfi_offset 6, -12
	.cfi_offset 3, -16
	movl	%eax, %esi
	.loc 1 664 0
	subl	$12, %esp
	pushl	(%eax)
	call	HAL_MutexLock
.LVL16:
	.loc 1 665 0
	movl	4(%esi), %eax
	popl	%edx
	leal	1(%eax), %edx
	cmpl	$65535, %eax
	movl	$1, %eax
	cmovne	%edx, %eax
	movl	%eax, 4(%esi)
	.loc 1 667 0
	pushl	(%esi)
	.loc 1 665 0
	movl	%eax, %ebx
.LVL17:
	.loc 1 667 0
	call	HAL_MutexUnlock
.LVL18:
	.loc 1 669 0
	addl	$16, %esp
	.loc 1 670 0
	leal	-8(%ebp), %esp
	.loc 1 669 0
	movl	%ebx, %eax
	.loc 1 670 0
	popl	%ebx
	.cfi_restore 3
.LVL19:
	popl	%esi
	.cfi_restore 6
.LVL20:
	popl	%ebp
	.cfi_restore 5
	.cfi_def_cfa 4, 4
	ret
.LVL21:
.L14:
	.loc 1 661 0
	orl	$-1, %eax
.LVL22:
	ret
	.cfi_endproc
.LFE47:
	.size	iotx_mc_get_next_packetid, .-iotx_mc_get_next_packetid
	.section	.text.unlikely.iotx_mc_get_next_packetid
.LCOLDE4:
	.section	.text.iotx_mc_get_next_packetid
.LHOTE4:
	.section	.text.unlikely.iotx_mc_send_packet,"ax",@progbits
.LCOLDB5:
	.section	.text.iotx_mc_send_packet,"ax",@progbits
.LHOTB5:
	.type	iotx_mc_send_packet, @function
iotx_mc_send_packet:
.LFB48:
	.loc 1 675 0
	.cfi_startproc
.LVL23:
	pushl	%ebp
	.cfi_def_cfa_offset 8
	.cfi_offset 5, -8
	movl	%esp, %ebp
	.cfi_def_cfa_register 5
	pushl	%edi
	pushl	%esi
	pushl	%ebx
	.cfi_offset 7, -12
	.cfi_offset 6, -16
	.cfi_offset 3, -20
	movl	%ecx, %edi
	subl	$28, %esp
	.loc 1 679 0
	testl	%edx, %edx
	sete	%bl
	cmpl	$0, 8(%ebp)
	movb	%bl, %cl
.LVL24:
	sete	%bl
	orb	%bl, %cl
	jne	.L25
	testl	%eax, %eax
	je	.L25
	movl	%edx, -28(%ebp)
	movl	%eax, %ebx
	xorl	%esi, %esi
.LVL25:
.L20:
	.loc 1 683 0
	cmpl	%edi, %esi
	jge	.L22
	.loc 1 683 0 is_stmt 0 discriminator 1
	subl	$12, %esp
	pushl	8(%ebp)
	call	utils_time_is_expired
.LVL26:
	addl	$16, %esp
	testl	%eax, %eax
	jne	.L24
	.loc 1 684 0 is_stmt 1
	movl	392(%ebx), %eax
	subl	$12, %esp
	movl	20(%eax), %edx
	pushl	8(%ebp)
	movl	%edx, -32(%ebp)
	call	iotx_time_left
.LVL27:
	pushl	%eax
	movl	-28(%ebp), %eax
	pushl	%edi
	movl	-32(%ebp), %edx
	addl	%esi, %eax
	pushl	%eax
	pushl	392(%ebx)
	call	*%edx
.LVL28:
	.loc 1 685 0
	addl	$32, %esp
	testl	%eax, %eax
	js	.L24
	.loc 1 688 0
	addl	%eax, %esi
.LVL29:
	jmp	.L20
.LVL30:
.L22:
	.loc 1 692 0
	movl	$0, %eax
	.loc 1 691 0
	je	.L19
.L24:
.LVL31:
	.loc 1 694 0
	movl	$-14, %eax
	jmp	.L19
.LVL32:
.L25:
	.loc 1 680 0
	orl	$-1, %eax
.LVL33:
.L19:
	.loc 1 697 0
	leal	-12(%ebp), %esp
	popl	%ebx
	.cfi_restore 3
	popl	%esi
	.cfi_restore 6
	popl	%edi
	.cfi_restore 7
.LVL34:
	popl	%ebp
	.cfi_restore 5
	.cfi_def_cfa 4, 4
	ret
	.cfi_endproc
.LFE48:
	.size	iotx_mc_send_packet, .-iotx_mc_send_packet
	.section	.text.unlikely.iotx_mc_send_packet
.LCOLDE5:
	.section	.text.iotx_mc_send_packet
.LHOTE5:
	.section	.rodata.str1.1,"aMS",@progbits,1
.LC6:
	.string	"number of subInfo more than max!,size = %d"
.LC7:
	.string	"run iotx_memory_malloc is error!"
.LC8:
	.string	"run list_node_new is error!"
	.section	.text.unlikely.iotx_mc_push_subInfo_to,"ax",@progbits
.LCOLDB9:
	.section	.text.iotx_mc_push_subInfo_to,"ax",@progbits
.LHOTB9:
	.type	iotx_mc_push_subInfo_to, @function
iotx_mc_push_subInfo_to:
.LFB45:
	.loc 1 563 0
	.cfi_startproc
.LVL35:
	pushl	%ebp
	.cfi_def_cfa_offset 8
	.cfi_offset 5, -8
	movl	%esp, %ebp
	.cfi_def_cfa_register 5
	pushl	%edi
	pushl	%esi
	pushl	%ebx
	.cfi_offset 7, -12
	.cfi_offset 6, -16
	.cfi_offset 3, -20
	movl	%edx, %edi
	subl	$28, %esp
	.loc 1 564 0
	cmpl	$0, 12(%ebp)
	sete	%bl
	cmpl	$0, 16(%ebp)
	movb	%bl, %dl
.LVL36:
	sete	%bl
	orb	%bl, %dl
	jne	.L33
	testl	%eax, %eax
	je	.L33
	.loc 1 568 0
	subl	$12, %esp
	pushl	516(%eax)
	movl	%eax, %ebx
	movl	%ecx, %esi
	movl	%edi, -28(%ebp)
	call	HAL_MutexLock
.LVL37:
	.loc 1 570 0
	movl	508(%ebx), %eax
	addl	$16, %esp
	cmpl	$29, 8(%eax)
	jbe	.L30
	.loc 1 571 0
	subl	$12, %esp
	pushl	516(%ebx)
	call	HAL_MutexUnlock
.LVL38:
	.loc 1 572 0
	popl	%eax
	movl	508(%ebx), %eax
	pushl	8(%eax)
	pushl	$.LC6
	pushl	$2
	pushl	$572
	pushl	$__FUNCTION__.5444
	call	LITE_syslog
.LVL39:
	jmp	.L35
.L30:
	.loc 1 576 0
	movl	-28(%ebp), %eax
.LVL40:
	pushl	%edi
	addl	$36, %eax
	pushl	%eax
	pushl	$577
	pushl	$__func__.5446
	call	LITE_malloc_internal
.LVL41:
	.loc 1 578 0
	addl	$16, %esp
	testl	%eax, %eax
	.loc 1 576 0
	movl	%eax, %edx
.LVL42:
	.loc 1 578 0
	jne	.L31
	.loc 1 579 0
	subl	$12, %esp
	pushl	516(%ebx)
	call	HAL_MutexUnlock
.LVL43:
	.loc 1 580 0
	pushl	$.LC7
	pushl	$2
	pushl	$580
	jmp	.L36
.LVL44:
.L31:
	.loc 1 585 0
	movw	%si, 4(%eax)
	.loc 1 584 0
	movl	$0, 12(%eax)
	.loc 1 587 0
	subl	$12, %esp
	.loc 1 586 0
	movl	-28(%ebp), %eax
.LVL45:
	.loc 1 587 0
	movl	%edx, -32(%ebp)
	.loc 1 586 0
	movw	%ax, 28(%edx)
	.loc 1 587 0
	leal	8(%edx), %eax
	pushl	%eax
	call	iotx_time_start
.LVL46:
	.loc 1 588 0
	movl	-32(%ebp), %edx
	movl	8(%ebp), %eax
	.loc 1 589 0
	movl	$3, %ecx
	movl	12(%ebp), %esi
	.loc 1 588 0
	movl	%eax, (%edx)
	.loc 1 589 0
	leal	16(%edx), %edi
	.loc 1 590 0
	leal	36(%edx), %eax
	.loc 1 589 0
	rep movsl
	.loc 1 590 0
	movl	%eax, 32(%edx)
	.loc 1 592 0
	movl	24(%ebx), %esi
	movl	%eax, %edi
	movl	-28(%ebp), %ecx
	rep movsb
	.loc 1 594 0
	movl	%edx, (%esp)
	call	list_node_new
.LVL47:
	movl	16(%ebp), %edi
	.loc 1 595 0
	addl	$16, %esp
	testl	%eax, %eax
	.loc 1 594 0
	movl	%eax, (%edi)
	.loc 1 595 0
	jne	.L32
	.loc 1 596 0
	subl	$12, %esp
	pushl	516(%ebx)
	call	HAL_MutexUnlock
.LVL48:
	.loc 1 597 0
	pushl	$.LC8
	pushl	$2
	pushl	$597
.LVL49:
.L36:
	pushl	$__FUNCTION__.5444
	call	LITE_syslog
.LVL50:
.L35:
	.loc 1 598 0
	addl	$32, %esp
	jmp	.L33
.LVL51:
.L32:
	.loc 1 601 0
	pushl	%edx
	pushl	%edx
	pushl	%eax
	pushl	508(%ebx)
	call	list_rpush
.LVL52:
	.loc 1 603 0
	popl	%ecx
	pushl	516(%ebx)
	call	HAL_MutexUnlock
.LVL53:
	.loc 1 605 0
	addl	$16, %esp
	xorl	%eax, %eax
	jmp	.L29
.LVL54:
.L33:
	.loc 1 565 0
	orl	$-1, %eax
.L29:
	.loc 1 606 0
	leal	-12(%ebp), %esp
	popl	%ebx
	.cfi_restore 3
	popl	%esi
	.cfi_restore 6
	popl	%edi
	.cfi_restore 7
	popl	%ebp
	.cfi_restore 5
	.cfi_def_cfa 4, 4
	ret
	.cfi_endproc
.LFE45:
	.size	iotx_mc_push_subInfo_to, .-iotx_mc_push_subInfo_to
	.section	.text.unlikely.iotx_mc_push_subInfo_to
.LCOLDE9:
	.section	.text.iotx_mc_push_subInfo_to
.LHOTE9:
	.section	.rodata.str1.1
.LC10:
	.string	"mqtt read error, rc=%d"
.LC11:
	.string	"decodePacket error,rc = %d"
.LC12:
	.string	"mqtt read buffer is too short, mqttReadBufLen : %u, remainDataLen : %d"
.LC13:
	.string	"mqtt read error"
.LC14:
	.string	"allocate remain buffer failed"
.LC15:
	.string	"mqtt read buffer is too short"
	.section	.text.unlikely.iotx_mc_read_packet,"ax",@progbits
.LCOLDB16:
	.section	.text.iotx_mc_read_packet,"ax",@progbits
.LHOTB16:
	.type	iotx_mc_read_packet, @function
iotx_mc_read_packet:
.LFB50:
	.loc 1 735 0
	.cfi_startproc
.LVL55:
	pushl	%ebp
	.cfi_def_cfa_offset 8
	.cfi_offset 5, -8
	movl	%esp, %ebp
	.cfi_def_cfa_register 5
	pushl	%edi
	pushl	%esi
	pushl	%ebx
	.cfi_offset 7, -12
	.cfi_offset 6, -16
	.cfi_offset 3, -20
	movl	%eax, %edi
	subl	$60, %esp
	.loc 1 735 0
	movl	%edx, -44(%ebp)
	movl	%ecx, -52(%ebp)
	movl	%gs:20, %eax
	movl	%eax, -28(%ebp)
	xorl	%eax, %eax
.LVL56:
	.loc 1 741 0
	testl	%edx, %edx
	sete	%dl
.LVL57:
	testl	%ecx, %ecx
	sete	%al
	orb	%al, %dl
	jne	.L54
	testl	%edi, %edi
	je	.L54
	.loc 1 746 0
	movl	392(%edi), %eax
	subl	$12, %esp
	movl	16(%eax), %ebx
	pushl	-44(%ebp)
	call	iotx_time_left
.LVL58:
	addl	$16, %esp
	testl	%eax, %eax
	movl	$1, %edx
	je	.L39
	.loc 1 746 0 is_stmt 0 discriminator 1
	subl	$12, %esp
	pushl	-44(%ebp)
	call	iotx_time_left
.LVL59:
	addl	$16, %esp
	movl	%eax, %edx
.L39:
	.loc 1 746 0 discriminator 4
	pushl	%edx
	pushl	$1
	pushl	28(%edi)
	pushl	392(%edi)
	call	*%ebx
.LVL60:
	.loc 1 747 0 is_stmt 1 discriminator 4
	addl	$16, %esp
	testl	%eax, %eax
	.loc 1 746 0 discriminator 4
	movl	%eax, %ebx
.LVL61:
	.loc 1 747 0 discriminator 4
	jne	.L40
	.loc 1 748 0
	movl	-52(%ebp), %eax
.LVL62:
	movl	$0, (%eax)
	.loc 1 749 0
	jmp	.L38
.LVL63:
.L40:
	.loc 1 750 0
	cmpl	$1, %eax
	je	.L41
	.loc 1 751 0
	subl	$12, %esp
	pushl	%eax
	pushl	$.LC10
	pushl	$5
	pushl	$751
	pushl	$__FUNCTION__.5495
	call	LITE_syslog
.LVL64:
	.loc 1 752 0
	addl	$32, %esp
	jmp	.L54
.LVL65:
.L41:
	.loc 1 758 0
	subl	$12, %esp
	pushl	-44(%ebp)
	movl	$1, %esi
	call	iotx_time_left
.LVL66:
	addl	$16, %esp
	testl	%eax, %eax
.LBB7:
.LBB8:
.LBB9:
	.loc 1 720 0
	leal	-36(%ebp), %ecx
	cmovne	%eax, %ebx
.LVL67:
.LBE9:
.LBE8:
.LBE7:
	.loc 1 758 0
	movl	$0, -48(%ebp)
	movl	%ebx, -56(%ebp)
	xorl	%ebx, %ebx
.LVL68:
.L43:
.LBB15:
.LBB13:
.LBB10:
	.loc 1 716 0
	incl	%ebx
.LVL69:
	cmpl	$5, %ebx
	je	.L56
	.loc 1 720 0
	movl	392(%edi), %eax
	pushl	-56(%ebp)
	pushl	$1
	pushl	%ecx
	movl	%ecx, -60(%ebp)
	pushl	%eax
	call	*16(%eax)
.LVL70:
	.loc 1 721 0
	addl	$16, %esp
	decl	%eax
.LVL71:
	jne	.L57
	.loc 1 725 0
	movb	-36(%ebp), %dl
.LBE10:
	.loc 1 727 0
	movl	-60(%ebp), %ecx
.LBB11:
	.loc 1 725 0
	movl	%edx, %eax
	andl	$127, %eax
	imull	%esi, %eax
.LVL72:
	.loc 1 726 0
	sall	$7, %esi
.LVL73:
	.loc 1 725 0
	addl	%eax, -48(%ebp)
.LVL74:
.LBE11:
	.loc 1 727 0
	testb	%dl, %dl
	js	.L43
.LVL75:
.LBE13:
.LBE15:
	.loc 1 758 0
	testl	%ebx, %ebx
	jns	.L44
	jmp	.L67
.LVL76:
.L56:
.LBB16:
.LBB14:
.LBB12:
	.loc 1 717 0
	orl	$-1, %ebx
.LVL77:
	jmp	.L67
.LVL78:
.L57:
	.loc 1 722 0
	movl	$-14, %ebx
.LVL79:
.L67:
.LBE12:
.LBE14:
.LBE16:
	.loc 1 759 0
	subl	$12, %esp
	pushl	%ebx
	pushl	$.LC11
	pushl	$2
	pushl	$759
	pushl	$__FUNCTION__.5495
	call	LITE_syslog
.LVL80:
	.loc 1 760 0
	addl	$32, %esp
	jmp	.L38
.LVL81:
.L44:
	.loc 1 763 0
	movl	28(%edi), %eax
	pushl	%esi
	pushl	%esi
	pushl	-48(%ebp)
	incl	%eax
	pushl	%eax
	call	MQTTPacket_encode
.LVL82:
	.loc 1 767 0
	addl	$16, %esp
	cmpl	$0, -48(%ebp)
	jle	.L45
	.loc 1 767 0 is_stmt 0 discriminator 1
	movl	-48(%ebp), %ecx
	.loc 1 763 0 is_stmt 1 discriminator 1
	leal	1(%eax), %esi
.LVL83:
	.loc 1 767 0 discriminator 1
	movl	16(%edi), %eax
	leal	(%esi,%ecx), %edx
	cmpl	%eax, %edx
	jbe	.L46
.LBB17:
	.loc 1 768 0
	pushl	%ebx
	pushl	%ebx
	pushl	%ecx
	pushl	%eax
	pushl	$.LC12
	pushl	$2
	pushl	$768
	pushl	$__FUNCTION__.5495
	call	LITE_syslog
.LVL84:
	.loc 1 770 0
	movl	392(%edi), %eax
	.loc 1 769 0
	movl	16(%edi), %ebx
	.loc 1 771 0
	addl	$20, %esp
	.loc 1 770 0
	movl	16(%eax), %eax
	.loc 1 771 0
	pushl	-44(%ebp)
	.loc 1 769 0
	subl	%esi, %ebx
.LVL85:
	.loc 1 770 0
	movl	%eax, -52(%ebp)
.LVL86:
	.loc 1 771 0
	call	iotx_time_left
.LVL87:
	.loc 1 770 0
	addl	$16, %esp
	testl	%eax, %eax
	movl	$1, %edx
	je	.L47
	.loc 1 770 0 is_stmt 0 discriminator 1
	subl	$12, %esp
	pushl	-44(%ebp)
	call	iotx_time_left
.LVL88:
	addl	$16, %esp
	movl	%eax, %edx
.L47:
	.loc 1 770 0 discriminator 4
	addl	28(%edi), %esi
.LVL89:
	pushl	%edx
	pushl	%ebx
	movl	-52(%ebp), %eax
	pushl	%esi
	pushl	392(%edi)
	call	*%eax
.LVL90:
	addl	$16, %esp
	cmpl	%eax, %ebx
	je	.L48
	.loc 1 772 0 is_stmt 1
	pushl	$.LC13
	pushl	$2
	pushl	$772
	jmp	.L69
.L48:
	.loc 1 777 0
	movl	-48(%ebp), %esi
	.loc 1 778 0
	pushl	%ecx
	.loc 1 777 0
	subl	%ebx, %esi
.LVL91:
	.loc 1 778 0
	leal	1(%esi), %eax
	pushl	%eax
	pushl	$778
	pushl	$__func__.5499
	call	LITE_malloc_internal
.LVL92:
	.loc 1 779 0
	addl	$16, %esp
	testl	%eax, %eax
	.loc 1 778 0
	movl	%eax, %ebx
.LVL93:
	.loc 1 779 0
	jne	.L49
	.loc 1 780 0
	pushl	$.LC14
	pushl	$2
	pushl	$780
	jmp	.L69
.L49:
	.loc 1 784 0
	movl	392(%edi), %eax
.LVL94:
	.loc 1 785 0
	subl	$12, %esp
	.loc 1 784 0
	movl	16(%eax), %eax
	.loc 1 785 0
	pushl	-44(%ebp)
	.loc 1 784 0
	movl	%eax, -48(%ebp)
.LVL95:
	.loc 1 785 0
	call	iotx_time_left
.LVL96:
	.loc 1 784 0
	addl	$16, %esp
	testl	%eax, %eax
	movl	$1, %edx
	je	.L50
	.loc 1 784 0 is_stmt 0 discriminator 1
	subl	$12, %esp
	pushl	-44(%ebp)
	call	iotx_time_left
.LVL97:
	addl	$16, %esp
	movl	%eax, %edx
.L50:
	.loc 1 784 0 discriminator 4
	pushl	%edx
	pushl	%esi
	pushl	%ebx
	pushl	392(%edi)
	movl	-48(%ebp), %eax
	call	*%eax
.LVL98:
	addl	$16, %esp
	cmpl	%eax, %esi
	je	.L51
	.loc 1 786 0 is_stmt 1
	pushl	$.LC13
	pushl	$2
	pushl	$786
	pushl	$__FUNCTION__.5495
	call	LITE_syslog
.LVL99:
	.loc 1 787 0
	movl	%ebx, (%esp)
	call	LITE_free_internal
.LVL100:
	jmp	.L70
.LVL101:
.L51:
	.loc 1 792 0 discriminator 2
	subl	$12, %esp
	pushl	%ebx
	.loc 1 804 0 discriminator 2
	xorl	%ebx, %ebx
.LVL102:
	.loc 1 792 0 discriminator 2
	call	LITE_free_internal
.LVL103:
	.loc 1 795 0 discriminator 2
	movl	524(%edi), %eax
	.loc 1 795 0 discriminator 2
	addl	$16, %esp
	testl	%eax, %eax
	je	.L38
.LBB18:
	.loc 1 801 0
	pushl	%edx
	leal	-36(%ebp), %edx
	.loc 1 798 0
	movl	$13, -36(%ebp)
	.loc 1 799 0
	movl	$.LC15, -32(%ebp)
	.loc 1 801 0
	pushl	%edx
	pushl	%edi
	pushl	528(%edi)
	call	*%eax
.LVL104:
	addl	$16, %esp
	jmp	.L38
.LVL105:
.L46:
.LBE18:
.LBE17:
	.loc 1 810 0
	movl	392(%edi), %eax
	.loc 1 811 0
	subl	$12, %esp
	.loc 1 810 0
	movl	16(%eax), %ebx
	.loc 1 811 0
	pushl	-44(%ebp)
	call	iotx_time_left
.LVL106:
	.loc 1 810 0
	addl	$16, %esp
	testl	%eax, %eax
	movl	$1, %edx
	je	.L52
	.loc 1 810 0 is_stmt 0 discriminator 1
	subl	$12, %esp
	pushl	-44(%ebp)
	call	iotx_time_left
.LVL107:
	addl	$16, %esp
	movl	%eax, %edx
.L52:
	.loc 1 810 0 discriminator 4
	addl	28(%edi), %esi
.LVL108:
	pushl	%edx
	pushl	-48(%ebp)
	pushl	%esi
	pushl	392(%edi)
	call	*%ebx
.LVL109:
	.loc 1 809 0 is_stmt 1 discriminator 4
	addl	$16, %esp
	cmpl	-48(%ebp), %eax
	je	.L45
	.loc 1 812 0
	pushl	$.LC13
	pushl	$2
	pushl	$812
.LVL110:
.L69:
	pushl	$__FUNCTION__.5495
	call	LITE_syslog
.LVL111:
.L70:
	.loc 1 813 0
	addl	$16, %esp
	jmp	.L54
.LVL112:
.L45:
	.loc 1 816 0
	movl	28(%edi), %edx
	xorl	%eax, %eax
.LVL113:
	.loc 1 817 0
	movl	-52(%ebp), %ecx
	.loc 1 818 0
	xorl	%ebx, %ebx
	.loc 1 816 0
	movb	(%edx), %al
.LVL114:
	.loc 1 817 0
	shrl	$4, %eax
.LVL115:
	movl	%eax, (%ecx)
	.loc 1 818 0
	jmp	.L38
.LVL116:
.L54:
	.loc 1 742 0
	orl	$-1, %ebx
.L38:
	.loc 1 819 0
	movl	-28(%ebp), %ecx
	xorl	%gs:20, %ecx
	movl	%ebx, %eax
	je	.L53
	call	__stack_chk_fail
.LVL117:
.L53:
	leal	-12(%ebp), %esp
	popl	%ebx
	.cfi_restore 3
	popl	%esi
	.cfi_restore 6
	popl	%edi
	.cfi_restore 7
.LVL118:
	popl	%ebp
	.cfi_restore 5
	.cfi_def_cfa 4, 4
.LVL119:
	ret
	.cfi_endproc
.LFE50:
	.size	iotx_mc_read_packet, .-iotx_mc_read_packet
	.section	.text.unlikely.iotx_mc_read_packet
.LCOLDE16:
	.section	.text.iotx_mc_read_packet
.LHOTE16:
	.section	.text.unlikely.MQTTDisconnect,"ax",@progbits
.LCOLDB17:
	.section	.text.MQTTDisconnect,"ax",@progbits
.LHOTB17:
	.type	MQTTDisconnect, @function
MQTTDisconnect:
.LFB42:
	.loc 1 437 0
	.cfi_startproc
.LVL120:
	pushl	%ebp
	.cfi_def_cfa_offset 8
	.cfi_offset 5, -8
	movl	%esp, %ebp
	.cfi_def_cfa_register 5
	pushl	%edi
	pushl	%esi
	pushl	%ebx
	.cfi_offset 7, -12
	.cfi_offset 6, -16
	.cfi_offset 3, -20
	movl	%eax, %ebx
	subl	$44, %esp
	.loc 1 437 0
	movl	%gs:20, %eax
	movl	%eax, -28(%ebp)
	xorl	%eax, %eax
.LVL121:
	orl	$-1, %eax
	.loc 1 441 0
	testl	%ebx, %ebx
	je	.L72
	.loc 1 445 0
	subl	$12, %esp
	pushl	520(%ebx)
	.loc 1 448 0
	leal	-32(%ebp), %edi
	.loc 1 445 0
	call	HAL_MutexLock
.LVL122:
	.loc 1 446 0
	popl	%eax
	popl	%edx
	pushl	12(%ebx)
	pushl	24(%ebx)
	call	MQTTSerialize_disconnect
.LVL123:
	.loc 1 448 0
	movl	%edi, (%esp)
	.loc 1 446 0
	movl	%eax, -44(%ebp)
.LVL124:
	.loc 1 448 0
	call	iotx_time_init
.LVL125:
	.loc 1 449 0
	popl	%ecx
	popl	%esi
	pushl	8(%ebx)
	pushl	%edi
	.loc 1 438 0
	orl	$-1, %esi
	.loc 1 449 0
	call	utils_time_countdown_ms
.LVL126:
	.loc 1 451 0
	movl	-44(%ebp), %eax
	addl	$16, %esp
	testl	%eax, %eax
	jle	.L73
	.loc 1 452 0
	subl	$12, %esp
	movl	24(%ebx), %edx
	movl	%eax, %ecx
	pushl	%edi
	movl	%ebx, %eax
	call	iotx_mc_send_packet
.LVL127:
	addl	$16, %esp
	movl	%eax, %esi
.LVL128:
.L73:
	.loc 1 455 0
	subl	$12, %esp
	pushl	520(%ebx)
	call	HAL_MutexUnlock
.LVL129:
	.loc 1 457 0
	addl	$16, %esp
	movl	%esi, %eax
.LVL130:
.L72:
	.loc 1 458 0
	movl	-28(%ebp), %ecx
	xorl	%gs:20, %ecx
	je	.L74
	call	__stack_chk_fail
.LVL131:
.L74:
	leal	-12(%ebp), %esp
	popl	%ebx
	.cfi_restore 3
.LVL132:
	popl	%esi
	.cfi_restore 6
	popl	%edi
	.cfi_restore 7
	popl	%ebp
	.cfi_restore 5
	.cfi_def_cfa 4, 4
	ret
	.cfi_endproc
.LFE42:
	.size	MQTTDisconnect, .-MQTTDisconnect
	.section	.text.unlikely.MQTTDisconnect
.LCOLDE17:
	.section	.text.MQTTDisconnect
.LHOTE17:
	.section	.rodata.str1.1
.LC18:
	.string	"iterm is NULL"
.LC19:
	.string	"the character # and + is error"
.LC20:
	.string	"has character # and + is error"
	.section	.text.unlikely.iotx_mc_check_rule,"ax",@progbits
.LCOLDB21:
	.section	.text.iotx_mc_check_rule,"ax",@progbits
.LHOTB21:
	.type	iotx_mc_check_rule, @function
iotx_mc_check_rule:
.LFB34:
	.loc 1 65 0
	.cfi_startproc
.LVL133:
	pushl	%ebp
	.cfi_def_cfa_offset 8
	.cfi_offset 5, -8
	movl	%esp, %ebp
	.cfi_def_cfa_register 5
	pushl	%edi
	pushl	%esi
	pushl	%ebx
	subl	$28, %esp
	.cfi_offset 7, -12
	.cfi_offset 6, -16
	.cfi_offset 3, -20
	.loc 1 69 0
	testl	%eax, %eax
	.loc 1 65 0
	movl	%edx, -28(%ebp)
	.loc 1 69 0
	jne	.L80
	.loc 1 70 0
	pushl	$.LC18
	pushl	$2
	pushl	$70
	jmp	.L94
.L80:
	movl	%eax, %ebx
	.loc 1 74 0
	orl	$-1, %ecx
	xorl	%eax, %eax
.LVL134:
	movl	%ebx, %edi
	repnz scasb
.LVL135:
	.loc 1 76 0
	xorl	%eax, %eax
	.loc 1 74 0
	movl	%ecx, %edx
.LVL136:
	notl	%edx
	movl	%edx, %ecx
	decl	%ecx
.LVL137:
	.loc 1 76 0
	jmp	.L82
.LVL138:
.L84:
	.loc 1 91 0
	movzbl	(%ebx,%eax), %edi
	leal	-32(%edi), %esi
	movl	%esi, %edx
	cmpb	$94, %dl
	ja	.L86
	.loc 1 76 0 discriminator 2
	incl	%eax
.LVL139:
.L82:
	.loc 1 76 0 is_stmt 0 discriminator 1
	cmpl	%ecx, %eax
	jge	.L95
	.loc 1 79 0 is_stmt 1
	movzbl	(%ebx,%eax), %esi
	andl	$-9, %esi
	.loc 1 77 0
	cmpl	$1, -28(%ebp)
	.loc 1 79 0
	movl	%esi, %edx
	.loc 1 77 0
	jne	.L83
	.loc 1 79 0
	cmpb	$35, %dl
	jne	.L84
	cmpl	$1, %ecx
	je	.L84
	.loc 1 80 0
	pushl	$.LC19
	pushl	$2
	pushl	$80
.LVL140:
.L94:
	.loc 1 86 0
	pushl	$__FUNCTION__.5338
	call	LITE_syslog
.LVL141:
	.loc 1 87 0
	addl	$16, %esp
	jmp	.L86
.LVL142:
.L83:
	.loc 1 85 0
	cmpb	$35, %dl
	jne	.L84
	.loc 1 86 0
	pushl	$.LC20
	pushl	$2
	pushl	$86
	jmp	.L94
.L95:
	.loc 1 95 0
	xorl	%eax, %eax
.LVL143:
	jmp	.L81
.LVL144:
.L86:
	.loc 1 92 0
	orl	$-1, %eax
.L81:
	.loc 1 96 0
	leal	-12(%ebp), %esp
	popl	%ebx
	.cfi_restore 3
	popl	%esi
	.cfi_restore 6
	popl	%edi
	.cfi_restore 7
	popl	%ebp
	.cfi_restore 5
	.cfi_def_cfa 4, 4
.LVL145:
	ret
	.cfi_endproc
.LFE34:
	.size	iotx_mc_check_rule, .-iotx_mc_check_rule
	.section	.text.unlikely.iotx_mc_check_rule
.LCOLDE21:
	.section	.text.iotx_mc_check_rule
.LHOTE21:
	.section	.rodata.str1.1
.LC22:
	.string	"rc = MQTTDisconnect() = %d"
.LC23:
	.string	"mqtt disconnect!"
.LC24:
	.string	"mqtt release!"
	.section	.text.unlikely.iotx_mc_release,"ax",@progbits
.LCOLDB25:
	.section	.text.iotx_mc_release,"ax",@progbits
.LHOTB25:
	.type	iotx_mc_release, @function
iotx_mc_release:
.LFB82:
	.loc 1 2199 0
	.cfi_startproc
.LVL146:
	.loc 1 2201 0
	testl	%eax, %eax
	je	.L101
	.loc 1 2199 0
	pushl	%ebp
	.cfi_def_cfa_offset 8
	.cfi_offset 5, -8
	movl	%esp, %ebp
	.cfi_def_cfa_register 5
	pushl	%ebx
	.cfi_offset 3, -12
	movl	%eax, %ebx
	subl	$16, %esp
	.loc 1 2206 0
	pushl	$100
	call	HAL_SleepMs
.LVL147:
.LBB21:
.LBB22:
	.loc 1 2163 0
	call	get_iotx_fd
.LVL148:
	.loc 1 2164 0
	addl	$16, %esp
	testl	%eax, %eax
	js	.L98
	.loc 1 2165 0
	pushl	%edx
	pushl	%ebx
	pushl	$cb_recv
	pushl	%eax
	call	aos_cancel_poll_read_fd
.LVL149:
	addl	$16, %esp
.L98:
	.loc 1 2168 0
	movl	%ebx, %eax
	call	iotx_mc_check_state_normal
.LVL150:
	testl	%eax, %eax
	je	.L99
	.loc 1 2169 0
	movl	%ebx, %eax
	call	MQTTDisconnect
.LVL151:
	.loc 1 2170 0
	subl	$12, %esp
	pushl	%eax
	pushl	$.LC22
	pushl	$5
	pushl	$2170
	pushl	$__FUNCTION__.5759
	call	LITE_syslog
.LVL152:
	addl	$32, %esp
.L99:
	.loc 1 2174 0
	movl	392(%ebx), %eax
	subl	$12, %esp
	pushl	%eax
	call	*24(%eax)
.LVL153:
	.loc 1 2176 0
	movl	$1, %edx
	movl	%ebx, %eax
	call	iotx_mc_set_client_state
.LVL154:
	.loc 1 2178 0
	pushl	$.LC23
	pushl	$4
	pushl	$2178
	pushl	$__FUNCTION__.5759
	call	LITE_syslog
.LVL155:
.LBE22:
.LBE21:
	.loc 1 2209 0
	xorl	%edx, %edx
	addl	$32, %esp
	movl	%ebx, %eax
	call	iotx_mc_set_client_state
.LVL156:
	.loc 1 2210 0
	subl	$12, %esp
	pushl	$100
	call	HAL_SleepMs
.LVL157:
	.loc 1 2212 0
	popl	%eax
	pushl	(%ebx)
	call	HAL_MutexDestroy
.LVL158:
	.loc 1 2213 0
	popl	%edx
	pushl	516(%ebx)
	call	HAL_MutexDestroy
.LVL159:
	.loc 1 2214 0
	popl	%ecx
	pushl	512(%ebx)
	call	HAL_MutexDestroy
.LVL160:
	.loc 1 2215 0
	popl	%eax
	pushl	520(%ebx)
	call	HAL_MutexDestroy
.LVL161:
	.loc 1 2217 0
	popl	%eax
	pushl	504(%ebx)
	call	list_destroy
.LVL162:
	.loc 1 2218 0
	popl	%eax
	pushl	508(%ebx)
	call	list_destroy
.LVL163:
	.loc 1 2220 0
	movl	392(%ebx), %eax
	.loc 1 2220 0
	addl	$16, %esp
	testl	%eax, %eax
	je	.L100
	.loc 1 2221 0 discriminator 2
	subl	$12, %esp
	pushl	%eax
	call	LITE_free_internal
.LVL164:
	movl	$0, 392(%ebx)
	addl	$16, %esp
.L100:
	.loc 1 2224 0
	pushl	$.LC24
	pushl	$4
	pushl	$2224
	pushl	$__FUNCTION__.5767
	call	LITE_syslog
.LVL165:
	.loc 1 2225 0
	addl	$16, %esp
	xorl	%eax, %eax
	.loc 1 2226 0
	movl	-4(%ebp), %ebx
.LVL166:
	leave
	.cfi_restore 5
	.cfi_restore 3
	.cfi_def_cfa 4, 4
	ret
.LVL167:
.L101:
	.loc 1 2202 0
	movl	$-2, %eax
.LVL168:
	ret
	.cfi_endproc
.LFE82:
	.size	iotx_mc_release, .-iotx_mc_release
	.section	.text.unlikely.iotx_mc_release
.LCOLDE25:
	.section	.text.iotx_mc_release
.LHOTE25:
	.section	.rodata.str1.1
.LC26:
	.string	"node's value is invalid!"
	.section	.text.unlikely.iotx_mc_mask_subInfo_from,"ax",@progbits
.LCOLDB27:
	.section	.text.iotx_mc_mask_subInfo_from,"ax",@progbits
.LHOTB27:
	.type	iotx_mc_mask_subInfo_from, @function
iotx_mc_mask_subInfo_from:
.LFB46:
	.loc 1 613 0
	.cfi_startproc
.LVL169:
	.loc 1 614 0
	testl	%eax, %eax
	je	.L117
	testl	%ecx, %ecx
	je	.L117
	.loc 1 613 0
	pushl	%ebp
	.cfi_def_cfa_offset 8
	.cfi_offset 5, -8
	movl	%esp, %ebp
	.cfi_def_cfa_register 5
	pushl	%edi
	pushl	%esi
	pushl	%ebx
	.cfi_offset 7, -12
	.cfi_offset 6, -16
	.cfi_offset 3, -20
	movl	%eax, %ebx
	subl	$40, %esp
	.loc 1 618 0
	pushl	516(%eax)
	movl	%ecx, -32(%ebp)
	movl	%edx, -28(%ebp)
	call	HAL_MutexLock
.LVL170:
	.loc 1 619 0
	movl	508(%ebx), %eax
	addl	$16, %esp
	cmpl	$0, 8(%eax)
	je	.L112
.LVL171:
.LBB23:
	.loc 1 624 0
	pushl	%edx
	pushl	%edx
	pushl	$1
	pushl	%eax
	call	list_iterator_new
.LVL172:
	addl	$16, %esp
	testl	%eax, %eax
	movl	%eax, %edx
.LVL173:
	je	.L112
.LVL174:
.L118:
	.loc 1 630 0
	subl	$12, %esp
	movl	%edx, -36(%ebp)
	pushl	%edx
	call	list_iterator_next
.LVL175:
	.loc 1 631 0
	addl	$16, %esp
	testl	%eax, %eax
	movl	-36(%ebp), %edx
	je	.L114
	.loc 1 635 0
	movl	8(%eax), %eax
.LVL176:
	.loc 1 636 0
	testl	%eax, %eax
	jne	.L115
	.loc 1 637 0
	pushl	$.LC26
	pushl	$2
	pushl	$637
	pushl	$__FUNCTION__.5456
	call	LITE_syslog
.LVL177:
	.loc 1 638 0
	addl	$16, %esp
	movl	-36(%ebp), %edx
	jmp	.L118
.LVL178:
.L115:
	.loc 1 641 0
	movzwl	4(%eax), %ecx
	cmpl	-28(%ebp), %ecx
	jne	.L118
	.loc 1 642 0
	leal	16(%eax), %esi
	movl	$3, %ecx
	movl	-32(%ebp), %edi
	rep movsl
	.loc 1 643 0
	movl	$1, 12(%eax)
	jmp	.L118
.LVL179:
.L114:
	.loc 1 647 0
	subl	$12, %esp
	pushl	%edx
	call	list_iterator_destroy
.LVL180:
	addl	$16, %esp
.L112:
.LBE23:
	.loc 1 649 0
	subl	$12, %esp
	pushl	516(%ebx)
	call	HAL_MutexUnlock
.LVL181:
	.loc 1 651 0
	addl	$16, %esp
	.loc 1 652 0
	leal	-12(%ebp), %esp
	.loc 1 651 0
	xorl	%eax, %eax
	.loc 1 652 0
	popl	%ebx
	.cfi_restore 3
.LVL182:
	popl	%esi
	.cfi_restore 6
	popl	%edi
	.cfi_restore 7
	popl	%ebp
	.cfi_restore 5
	.cfi_def_cfa 4, 4
.LVL183:
	ret
.LVL184:
.L117:
	.loc 1 615 0
	orl	$-1, %eax
.LVL185:
	ret
	.cfi_endproc
.LFE46:
	.size	iotx_mc_mask_subInfo_from, .-iotx_mc_mask_subInfo_from
	.section	.text.unlikely.iotx_mc_mask_subInfo_from
.LCOLDE27:
	.section	.text.iotx_mc_mask_subInfo_from
.LHOTE27:
	.section	.rodata.str1.1
.LC28:
	.string	"len of topicName exceeds 64"
.LC29:
	.string	"/"
.LC30:
	.string	"run iotx_check_rule error"
.LC31:
	.string	"the character # is error"
	.section	.text.unlikely.iotx_mc_check_topic,"ax",@progbits
.LCOLDB32:
	.section	.text.iotx_mc_check_topic,"ax",@progbits
.LHOTB32:
	.type	iotx_mc_check_topic, @function
iotx_mc_check_topic:
.LFB35:
	.loc 1 102 0
	.cfi_startproc
.LVL186:
	pushl	%ebp
	.cfi_def_cfa_offset 8
	.cfi_offset 5, -8
	movl	%esp, %ebp
	.cfi_def_cfa_register 5
	pushl	%edi
	pushl	%esi
	pushl	%ebx
	.cfi_offset 7, -12
	.cfi_offset 6, -16
	.cfi_offset 3, -20
	movl	%eax, %esi
	.loc 1 108 0
	orl	$-1, %ebx
	.loc 1 102 0
	subl	$172, %esp
	.loc 1 102 0
	movl	%edx, -172(%ebp)
	movl	%gs:20, %eax
	movl	%eax, -28(%ebp)
	xorl	%eax, %eax
.LVL187:
	.loc 1 107 0
	testl	%esi, %esi
	je	.L122
	.loc 1 107 0 discriminator 1
	cmpb	$47, (%esi)
	jne	.L122
	.loc 1 111 0
	orl	$-1, %ecx
	movl	%esi, %edi
	repnz scasb
.LVL188:
	notl	%ecx
	decl	%ecx
	cmpl	$128, %ecx
	jbe	.L123
	.loc 1 112 0
	pushl	$.LC28
	pushl	$2
	pushl	$112
	pushl	$__FUNCTION__.5350
	call	LITE_syslog
.LVL189:
	.loc 1 113 0
	addl	$16, %esp
	jmp	.L122
.LVL190:
.L123:
	.loc 1 116 0
	leal	-156(%ebp), %ebx
	xorl	%eax, %eax
	movl	$32, %ecx
.LVL191:
	movl	%ebx, %edi
	rep stosl
	.loc 1 117 0
	pushl	%edx
	pushl	$127
	xorl	%edi, %edi
	pushl	%esi
	pushl	%ebx
	call	strncpy
.LVL192:
	.loc 1 119 0
	popl	%ecx
	popl	%esi
	pushl	$.LC29
	pushl	%ebx
	call	strtok
.LVL193:
	.loc 1 121 0
	movl	-172(%ebp), %edx
	call	iotx_mc_check_rule
.LVL194:
	addl	$16, %esp
	testl	%eax, %eax
	movl	%eax, %ebx
	je	.L125
	.loc 1 122 0
	pushl	$.LC30
	pushl	$2
	pushl	$122
	jmp	.L135
.LVL195:
.L127:
	.loc 1 145 0
	xorl	%eax, %eax
	cmpb	$35, (%esi)
	sete	%al
	movl	%eax, %edi
.LVL196:
.L125:
	.loc 1 127 0
	pushl	%eax
	pushl	%eax
	pushl	$.LC29
	pushl	$0
	call	strtok
.LVL197:
	.loc 1 129 0
	addl	$16, %esp
	testl	%eax, %eax
	.loc 1 127 0
	movl	%eax, %esi
.LVL198:
	.loc 1 129 0
	je	.L122
	.loc 1 134 0
	decl	%edi
.LVL199:
	jne	.L126
	.loc 1 135 0
	pushl	$.LC31
	pushl	$2
	pushl	$135
.LVL200:
.L135:
	pushl	$__FUNCTION__.5350
	.loc 1 136 0
	orl	$-1, %ebx
	.loc 1 135 0
	call	LITE_syslog
.LVL201:
	.loc 1 136 0
	addl	$16, %esp
	jmp	.L122
.LVL202:
.L126:
	.loc 1 139 0
	movl	-172(%ebp), %edx
	call	iotx_mc_check_rule
.LVL203:
	testl	%eax, %eax
	je	.L127
	.loc 1 140 0
	pushl	$.LC30
	pushl	$2
	pushl	$140
	jmp	.L135
.LVL204:
.L122:
	.loc 1 150 0
	movl	-28(%ebp), %edx
	xorl	%gs:20, %edx
	movl	%ebx, %eax
	je	.L128
	call	__stack_chk_fail
.LVL205:
.L128:
	leal	-12(%ebp), %esp
	popl	%ebx
	.cfi_restore 3
	popl	%esi
	.cfi_restore 6
	popl	%edi
	.cfi_restore 7
	popl	%ebp
	.cfi_restore 5
	.cfi_def_cfa 4, 4
.LVL206:
	ret
	.cfi_endproc
.LFE35:
	.size	iotx_mc_check_topic, .-iotx_mc_check_topic
	.section	.text.unlikely.iotx_mc_check_topic
.LCOLDE32:
	.section	.text.iotx_mc_check_topic
.LHOTE32:
	.section	.text.unlikely.iotx_mc_check_handle_is_identical,"ax",@progbits
.LCOLDB33:
	.section	.text.iotx_mc_check_handle_is_identical,"ax",@progbits
.LHOTB33:
	.type	iotx_mc_check_handle_is_identical, @function
iotx_mc_check_handle_is_identical:
.LFB61:
	.loc 1 1337 0
	.cfi_startproc
.LVL207:
	pushl	%ebp
	.cfi_def_cfa_offset 8
	.cfi_offset 5, -8
	movl	%esp, %ebp
	.cfi_def_cfa_register 5
	pushl	%edi
	pushl	%esi
	pushl	%ebx
	subl	$28, %esp
	.cfi_offset 7, -12
	.cfi_offset 6, -16
	.cfi_offset 3, -20
	.loc 1 1338 0
	testl	%eax, %eax
	je	.L138
	testl	%edx, %edx
	movl	%eax, %esi
	sete	%al
.LVL208:
	je	.L138
	.loc 1 1342 0
	movl	(%esi), %ebx
	movl	%ebx, -28(%ebp)
	movl	-28(%ebp), %edi
	orl	$-1, %ebx
	movl	%ebx, %ecx
	repnz scasb
	notl	%ecx
	leal	-1(%ecx), %edi
	.loc 1 1344 0
	movl	%ebx, %ecx
	.loc 1 1339 0
	movl	$1, %ebx
	.loc 1 1342 0
	movl	%edi, -32(%ebp)
.LVL209:
	.loc 1 1344 0
	movl	(%edx), %edi
.LVL210:
	movl	%edi, -36(%ebp)
	repnz scasb
	movl	%ecx, %eax
	notl	%eax
	leal	-1(%eax), %ecx
	cmpl	%ecx, -32(%ebp)
	jne	.L137
	.loc 1 1348 0
	pushl	%eax
	pushl	-32(%ebp)
	movl	%edx, %edi
	pushl	-36(%ebp)
	pushl	-28(%ebp)
	call	strncmp
.LVL211:
	addl	$16, %esp
	testl	%eax, %eax
	jne	.L137
.LVL212:
.LBB26:
.LBB27:
	.loc 1 1352 0
	movl	4(%edi), %eax
	cmpl	%eax, 4(%esi)
	jne	.L137
.LBE27:
.LBE26:
	.loc 1 1339 0
	xorl	%ebx, %ebx
	movl	8(%edi), %eax
	cmpl	%eax, 8(%esi)
	setne	%bl
	jmp	.L137
.LVL213:
.L138:
	movl	$1, %ebx
.LVL214:
.L137:
	.loc 1 1362 0
	leal	-12(%ebp), %esp
	movl	%ebx, %eax
	popl	%ebx
	.cfi_restore 3
	popl	%esi
	.cfi_restore 6
	popl	%edi
	.cfi_restore 7
	popl	%ebp
	.cfi_restore 5
	.cfi_def_cfa 4, 4
	ret
	.cfi_endproc
.LFE61:
	.size	iotx_mc_check_handle_is_identical, .-iotx_mc_check_handle_is_identical
	.section	.text.unlikely.iotx_mc_check_handle_is_identical
.LCOLDE33:
	.section	.text.iotx_mc_check_handle_is_identical
.LHOTE33:
	.section	.rodata.str1.1
.LC34:
	.string	"Serialize connect packet failed,len = %d"
.LC35:
	.string	"send connect packet failed"
	.section	.text.unlikely.MQTTConnect,"ax",@progbits
.LCOLDB36:
	.section	.text.MQTTConnect,"ax",@progbits
.LHOTB36:
	.globl	MQTTConnect
	.type	MQTTConnect, @function
MQTTConnect:
.LFB37:
	.loc 1 191 0
	.cfi_startproc
.LVL215:
	pushl	%ebp
	.cfi_def_cfa_offset 8
	.cfi_offset 5, -8
	movl	%esp, %ebp
	.cfi_def_cfa_register 5
	pushl	%edi
	pushl	%esi
	pushl	%ebx
	subl	$44, %esp
	.cfi_offset 7, -12
	.cfi_offset 6, -16
	.cfi_offset 3, -20
	.loc 1 191 0
	movl	8(%ebp), %ebx
	movl	%gs:20, %eax
	movl	%eax, -28(%ebp)
	xorl	%eax, %eax
.LVL216:
	.loc 1 197 0
	orl	$-1, %eax
	.loc 1 196 0
	testl	%ebx, %ebx
	je	.L144
.LVL217:
	.loc 1 201 0
	subl	$12, %esp
	pushl	520(%ebx)
	call	HAL_MutexLock
.LVL218:
	.loc 1 200 0
	leal	416(%ebx), %eax
.LVL219:
	.loc 1 202 0
	addl	$12, %esp
	pushl	%eax
	pushl	12(%ebx)
	pushl	24(%ebx)
	call	MQTTSerialize_connect
.LVL220:
	addl	$16, %esp
	testl	%eax, %eax
	movl	%eax, %esi
.LVL221:
	jg	.L145
	.loc 1 203 0
	subl	$12, %esp
	pushl	520(%ebx)
	call	HAL_MutexUnlock
.LVL222:
	.loc 1 204 0
	movl	%esi, (%esp)
	pushl	$.LC34
	pushl	$2
	pushl	$204
	pushl	$__FUNCTION__.5366
	call	LITE_syslog
.LVL223:
	.loc 1 205 0
	addl	$32, %esp
	movl	$-30, %eax
	jmp	.L144
.LVL224:
.L145:
	.loc 1 209 0
	leal	-32(%ebp), %edi
	subl	$12, %esp
	pushl	%edi
	call	iotx_time_init
.LVL225:
	.loc 1 210 0
	popl	%eax
	popl	%edx
	pushl	8(%ebx)
	pushl	%edi
	call	utils_time_countdown_ms
.LVL226:
	.loc 1 211 0
	movl	24(%ebx), %edx
	movl	%esi, %ecx
	movl	%ebx, %eax
	movl	%edi, (%esp)
	call	iotx_mc_send_packet
.LVL227:
	addl	$16, %esp
	testl	%eax, %eax
	je	.L146
	.loc 1 212 0
	subl	$12, %esp
	pushl	520(%ebx)
	call	HAL_MutexUnlock
.LVL228:
	.loc 1 213 0
	pushl	$.LC35
	pushl	$2
	pushl	$213
	pushl	$__FUNCTION__.5366
	call	LITE_syslog
.LVL229:
	.loc 1 214 0
	addl	$32, %esp
	movl	$-14, %eax
	jmp	.L144
.L146:
	.loc 1 216 0
	subl	$12, %esp
	pushl	520(%ebx)
	movl	%eax, -44(%ebp)
	call	HAL_MutexUnlock
.LVL230:
	.loc 1 218 0
	movl	-44(%ebp), %eax
	addl	$16, %esp
.LVL231:
.L144:
	.loc 1 219 0
	movl	-28(%ebp), %ecx
	xorl	%gs:20, %ecx
	je	.L147
	call	__stack_chk_fail
.LVL232:
.L147:
	leal	-12(%ebp), %esp
	popl	%ebx
	.cfi_restore 3
	popl	%esi
	.cfi_restore 6
	popl	%edi
	.cfi_restore 7
	popl	%ebp
	.cfi_restore 5
	.cfi_def_cfa 4, 4
	ret
	.cfi_endproc
.LFE37:
	.size	MQTTConnect, .-MQTTConnect
	.section	.text.unlikely.MQTTConnect
.LCOLDE36:
	.section	.text.MQTTConnect
.LHOTE36:
	.section	.rodata.str1.1
.LC37:
	.string	"TCP or TLS Connection failed"
.LC38:
	.string	"certificate is expired!"
.LC39:
	.string	"readPacket error,result = %d"
.LC40:
	.string	"wait connack timeout"
.LC41:
	.string	"connect ack is error"
.LC42:
	.string	"recvConnackProc error,result = %d"
.LC43:
	.string	"wait connect ACK timeout, or receive a ACK indicating error!"
.LC44:
	.string	"mqtt connect success!"
	.section	.text.unlikely.iotx_mc_connect,"ax",@progbits
.LCOLDB45:
	.section	.text.iotx_mc_connect,"ax",@progbits
.LHOTB45:
	.type	iotx_mc_connect, @function
iotx_mc_connect:
.LFB77:
	.loc 1 2026 0
	.cfi_startproc
.LVL233:
	pushl	%ebp
	.cfi_def_cfa_offset 8
	.cfi_offset 5, -8
	movl	%esp, %ebp
	.cfi_def_cfa_register 5
	pushl	%edi
	pushl	%esi
	pushl	%ebx
	.cfi_offset 7, -12
	.cfi_offset 6, -16
	.cfi_offset 3, -20
	movl	%eax, %esi
	.loc 1 2030 0
	movl	$-2, %ebx
	.loc 1 2026 0
	subl	$28, %esp
	.loc 1 2026 0
	movl	%gs:20, %eax
	movl	%eax, -28(%ebp)
	xorl	%eax, %eax
.LVL234:
	.loc 1 2029 0
	testl	%esi, %esi
	je	.L151
	.loc 1 2034 0
	movl	392(%esi), %eax
	subl	$12, %esp
	pushl	%eax
	call	*28(%eax)
.LVL235:
	.loc 1 2035 0
	addl	$16, %esp
	testl	%eax, %eax
	.loc 1 2034 0
	movl	%eax, %edi
.LVL236:
	.loc 1 2035 0
	je	.L152
	.loc 1 2036 0
	movl	392(%esi), %eax
.LVL237:
	subl	$12, %esp
	.loc 1 2043 0
	movl	$-28, %ebx
	.loc 1 2036 0
	pushl	%eax
	call	*24(%eax)
.LVL238:
	.loc 1 2037 0
	pushl	$.LC37
	pushl	$2
	pushl	$2037
	pushl	$__FUNCTION__.5742
	call	LITE_syslog
.LVL239:
	.loc 1 2039 0
	addl	$32, %esp
	cmpl	$-1015, %edi
	jne	.L151
	.loc 1 2040 0
	pushl	$.LC38
	pushl	$2
	.loc 1 2041 0
	movl	$-309, %ebx
	.loc 1 2040 0
	pushl	$2040
	pushl	$__FUNCTION__.5742
	call	LITE_syslog
.LVL240:
	.loc 1 2041 0
	addl	$16, %esp
	jmp	.L151
.LVL241:
.L152:
.LBB34:
.LBB35:
	.loc 1 2053 0
	subl	$12, %esp
	pushl	%esi
	call	MQTTConnect
.LVL242:
	.loc 1 2054 0
	addl	$16, %esp
	testl	%eax, %eax
	.loc 1 2053 0
	movl	%eax, %ebx
.LVL243:
	.loc 1 2054 0
	je	.L153
	.loc 1 2055 0
	movl	392(%esi), %eax
.LVL244:
	subl	$12, %esp
	pushl	%eax
	call	*24(%eax)
.LVL245:
	.loc 1 2056 0
	pushl	$.LC35
	pushl	$2
	pushl	$2056
	jmp	.L180
.LVL246:
.L153:
.LBB36:
.LBB37:
	.loc 1 1197 0
	leal	-32(%ebp), %edi
.LVL247:
	subl	$12, %esp
	.loc 1 1189 0
	movl	$0, -36(%ebp)
.LVL248:
	.loc 1 1198 0
	movb	$11, %bl
	.loc 1 1197 0
	pushl	%edi
	call	iotx_time_init
.LVL249:
	.loc 1 1198 0
	popl	%edx
	popl	%ecx
	pushl	8(%esi)
	pushl	%edi
	call	utils_time_countdown_ms
.LVL250:
	addl	$16, %esp
.LVL251:
.L157:
	.loc 1 1202 0
	leal	-36(%ebp), %ecx
	movl	%edi, %edx
	movl	%esi, %eax
	call	iotx_mc_read_packet
.LVL252:
	.loc 1 1203 0
	testl	%eax, %eax
	je	.L154
	.loc 1 1204 0
	subl	$12, %esp
	pushl	%eax
	pushl	$.LC39
	pushl	$2
	pushl	$1204
	pushl	$__FUNCTION__.5595
	call	LITE_syslog
.LVL253:
	addl	$32, %esp
	jmp	.L177
.LVL254:
.L154:
	.loc 1 1208 0
	decb	%bl
.LVL255:
	jne	.L156
	.loc 1 1209 0
	pushl	$.LC40
	pushl	$2
	pushl	$1209
	pushl	$__FUNCTION__.5595
	call	LITE_syslog
.LVL256:
	addl	$16, %esp
	jmp	.L177
.LVL257:
.L156:
	.loc 1 1213 0
	cmpl	$2, -36(%ebp)
	jne	.L157
.LVL258:
.LBB38:
.LBB39:
	.loc 1 923 0
	leal	-38(%ebp), %eax
.LVL259:
	pushl	16(%esi)
	pushl	28(%esi)
	.loc 1 916 0
	movb	$-1, -38(%ebp)
	.loc 1 917 0
	movb	$0, -37(%ebp)
	.loc 1 923 0
	pushl	%eax
	leal	-37(%ebp), %eax
	pushl	%eax
	call	MQTTDeserialize_connack
.LVL260:
	addl	$16, %esp
	decl	%eax
	je	.L158
	.loc 1 925 0
	pushl	$.LC41
	pushl	$2
	.loc 1 926 0
	movl	$-29, %ebx
.LVL261:
	.loc 1 925 0
	pushl	$925
	pushl	$__FUNCTION__.5537
	call	LITE_syslog
.LVL262:
	addl	$16, %esp
	jmp	.L178
.LVL263:
.L158:
	.loc 1 929 0
	cmpb	$5, -38(%ebp)
	ja	.L160
	movzbl	-38(%ebp), %eax
	jmp	*.L161(,%eax,4)
	.section	.rodata.iotx_mc_connect,"a",@progbits
	.align 4
	.align 4
.L161:
	.long	.L171
	.long	.L162
	.long	.L163
	.long	.L164
	.long	.L165
	.long	.L166
	.section	.text.iotx_mc_connect
.L162:
	.loc 1 934 0
	movl	$-38, %ebx
.LVL264:
	jmp	.L178
.LVL265:
.L163:
	.loc 1 937 0
	movl	$-37, %ebx
.LVL266:
	jmp	.L178
.LVL267:
.L164:
	.loc 1 940 0
	movl	$-36, %ebx
.LVL268:
	jmp	.L178
.LVL269:
.L165:
	.loc 1 943 0
	movl	$-35, %ebx
.LVL270:
	jmp	.L178
.LVL271:
.L166:
	.loc 1 946 0
	movl	$-34, %ebx
.LVL272:
	jmp	.L178
.LVL273:
.L160:
	.loc 1 949 0
	movl	$-39, %ebx
.LVL274:
	jmp	.L178
.LVL275:
.L171:
	.loc 1 931 0
	xorl	%ebx, %ebx
.LVL276:
	jmp	.L167
.LVL277:
.L178:
.LBE39:
.LBE38:
	.loc 1 1217 0
	subl	$12, %esp
	pushl	%ebx
	pushl	$.LC42
	pushl	$2
	pushl	$1217
	pushl	$__FUNCTION__.5595
	call	LITE_syslog
.LVL278:
	addl	$32, %esp
.LVL279:
.LBE37:
.LBE36:
	.loc 1 2060 0
	testl	%ebx, %ebx
	je	.L167
.L177:
	.loc 1 2061 0
	movl	%esi, %eax
	.loc 1 2064 0
	movl	$-33, %ebx
	.loc 1 2061 0
	call	MQTTDisconnect
.LVL280:
	.loc 1 2062 0
	movl	392(%esi), %eax
	subl	$12, %esp
	pushl	%eax
	call	*24(%eax)
.LVL281:
	.loc 1 2063 0
	pushl	$.LC43
	pushl	$2
	pushl	$2063
	pushl	$__FUNCTION__.5742
	call	LITE_syslog
.LVL282:
	addl	$32, %esp
	jmp	.L151
.L167:
	.loc 1 2067 0
	movl	$2, %edx
	movl	%esi, %eax
	call	iotx_mc_set_client_state
.LVL283:
	.loc 1 2069 0
	pushl	%eax
	pushl	%eax
	movzwl	440(%esi), %eax
	imull	$1000, %eax, %eax
	pushl	%eax
	leal	396(%esi), %eax
	pushl	%eax
	call	utils_time_countdown_ms
.LVL284:
	.loc 1 2071 0
	call	get_iotx_fd
.LVL285:
	addl	$12, %esp
	pushl	%esi
	pushl	$cb_recv
	pushl	%eax
	call	aos_poll_read_fd
.LVL286:
	.loc 1 2072 0
	movzwl	440(%esi), %eax
	addl	$12, %esp
	pushl	%esi
	pushl	$cb_recv_timeout
	imull	$1000, %eax, %eax
	pushl	%eax
	call	aos_post_delayed_action
.LVL287:
	.loc 1 2073 0
	addl	$12, %esp
	pushl	$0
	pushl	$8
	pushl	$1
	call	aos_post_event
.LVL288:
	.loc 1 2074 0
	pushl	$.LC44
	pushl	$4
	pushl	$2074
.L180:
	pushl	$__FUNCTION__.5742
	call	LITE_syslog
.LVL289:
	addl	$32, %esp
.LVL290:
.L151:
.LBE35:
.LBE34:
	.loc 1 2076 0
	movl	-28(%ebp), %edx
	xorl	%gs:20, %edx
	movl	%ebx, %eax
	je	.L168
	call	__stack_chk_fail
.LVL291:
.L168:
	leal	-12(%ebp), %esp
	popl	%ebx
	.cfi_restore 3
	popl	%esi
	.cfi_restore 6
.LVL292:
	popl	%edi
	.cfi_restore 7
	popl	%ebp
	.cfi_restore 5
	.cfi_def_cfa 4, 4
	ret
	.cfi_endproc
.LFE77:
	.size	iotx_mc_connect, .-iotx_mc_connect
	.section	.text.unlikely.iotx_mc_connect
.LCOLDE45:
	.section	.text.iotx_mc_connect
.LHOTE45:
	.section	.rodata.str1.1
.LC46:
	.string	"keepalive_probes more than %u, disconnected\n"
.LC47:
	.string	"Serialize ping request is error"
.LC48:
	.string	"ping outstanding is error,result = %d"
.LC49:
	.string	"send MQTT ping..."
.LC50:
	.string	"start reconnect"
.LC51:
	.string	"redo authentication error!"
.LC52:
	.string	"reconnect params: MQTTVersion=%d, clientID=%s, keepAliveInterval=%d, username=%s"
.LC53:
	.string	"run iotx_mqtt_connect() error!"
.LC54:
	.string	"mqtt reconnect failed rc = %d"
.LC55:
	.string	"network is disconnected!"
.LC56:
	.string	"network is reconnected!"
.LC57:
	.string	"reconnect network fail, rc = %d"
	.section	.text.unlikely.cb_recv_timeout,"ax",@progbits
.LCOLDB58:
	.section	.text.cb_recv_timeout,"ax",@progbits
.LHOTB58:
	.type	cb_recv_timeout, @function
cb_recv_timeout:
.LFB75:
	.loc 1 1995 0
	.cfi_startproc
.LVL293:
	pushl	%ebp
	.cfi_def_cfa_offset 8
	.cfi_offset 5, -8
	movl	%esp, %ebp
	.cfi_def_cfa_register 5
	pushl	%edi
	pushl	%esi
	pushl	%ebx
	subl	$44, %esp
	.cfi_offset 7, -12
	.cfi_offset 6, -16
	.cfi_offset 3, -20
	.loc 1 1995 0
	movl	8(%ebp), %ebx
	movl	%gs:20, %eax
	movl	%eax, -28(%ebp)
	xorl	%eax, %eax
.LVL294:
	.loc 1 1997 0
	cmpb	$3, 20(%ebx)
	jbe	.L182
	.loc 1 1998 0
	movl	$3, %edx
	movl	%ebx, %eax
	call	iotx_mc_set_client_state
.LVL295:
	.loc 1 2000 0
	subl	$12, %esp
	.loc 1 1999 0
	movb	$0, 20(%ebx)
	.loc 1 2000 0
	pushl	$3
	pushl	$.LC46
	pushl	$2
	pushl	$2001
	pushl	$__FUNCTION__.5731
	call	LITE_syslog
.LVL296:
	addl	$32, %esp
.L182:
.LVL297:
.LBB56:
.LBB57:
.LBB58:
.LBB59:
	.loc 1 2254 0
	movl	%ebx, %eax
	call	iotx_mc_check_state_normal
.LVL298:
	testl	%eax, %eax
	je	.L184
	.loc 1 2259 0
	leal	396(%ebx), %esi
	subl	$12, %esp
	pushl	%esi
	call	utils_time_is_expired
.LVL299:
	addl	$16, %esp
	testl	%eax, %eax
	je	.L184
	.loc 1 2264 0
	pushl	%eax
	pushl	%eax
	movzwl	440(%ebx), %eax
	imull	$1000, %eax, %eax
	pushl	%eax
	pushl	%esi
.LBB60:
.LBB61:
	.loc 1 165 0
	leal	-36(%ebp), %esi
.LBE61:
.LBE60:
	.loc 1 2264 0
	call	utils_time_countdown_ms
.LVL300:
.LBB64:
.LBB62:
	.loc 1 165 0
	movl	%esi, (%esp)
	call	iotx_time_init
.LVL301:
	.loc 1 166 0
	popl	%eax
	popl	%edx
	pushl	$1000
	pushl	%esi
	call	utils_time_countdown_ms
.LVL302:
	.loc 1 168 0
	popl	%ecx
	pushl	520(%ebx)
	call	HAL_MutexLock
.LVL303:
	.loc 1 169 0
	popl	%edi
	popl	%eax
	pushl	12(%ebx)
	pushl	24(%ebx)
	call	MQTTSerialize_pingreq
.LVL304:
	.loc 1 170 0
	addl	$16, %esp
	testl	%eax, %eax
	jg	.L186
	.loc 1 171 0
	subl	$12, %esp
	pushl	520(%ebx)
	.loc 1 173 0
	movl	$-31, %esi
	.loc 1 171 0
	call	HAL_MutexUnlock
.LVL305:
	.loc 1 172 0
	pushl	$.LC47
	pushl	$2
	pushl	$172
	pushl	$__FUNCTION__.5359
	call	LITE_syslog
.LVL306:
	addl	$32, %esp
	jmp	.L190
.LVL307:
.L186:
	.loc 1 176 0
	subl	$12, %esp
	movl	24(%ebx), %edx
	movl	%eax, %ecx
	pushl	%esi
	movl	%ebx, %eax
.LVL308:
	call	iotx_mc_send_packet
.LVL309:
	.loc 1 177 0
	addl	$16, %esp
	testl	%eax, %eax
	.loc 1 176 0
	movl	%eax, %esi
.LVL310:
	.loc 1 177 0
	je	.L188
	.loc 1 178 0
	subl	$12, %esp
	pushl	520(%ebx)
	call	HAL_MutexUnlock
.LVL311:
	.loc 1 180 0
	movl	%esi, (%esp)
	pushl	$.LC48
	.loc 1 181 0
	movl	$-14, %esi
.LVL312:
	.loc 1 180 0
	pushl	$2
.LVL313:
	pushl	$180
.LVL314:
	pushl	$__FUNCTION__.5359
.LVL315:
	call	LITE_syslog
.LVL316:
	addl	$32, %esp
.LBE62:
.LBE64:
	.loc 1 2269 0
	movl	$3, %edx
	movl	%ebx, %eax
	call	iotx_mc_set_client_state
.LVL317:
	jmp	.L190
.LVL318:
.L188:
.LBB65:
.LBB63:
	.loc 1 183 0
	subl	$12, %esp
	pushl	520(%ebx)
	call	HAL_MutexUnlock
.LVL319:
	addl	$16, %esp
.LVL320:
.LBE63:
.LBE65:
	.loc 1 2275 0
	pushl	$.LC49
	pushl	$4
	pushl	$2275
	pushl	$__FUNCTION__.5777
	call	LITE_syslog
.LVL321:
	.loc 1 2277 0
	popl	%edi
	pushl	(%ebx)
	call	HAL_MutexLock
.LVL322:
	.loc 1 2279 0
	incb	20(%ebx)
	.loc 1 2278 0
	movl	$1, 400(%ebx)
	.loc 1 2280 0
	popl	%eax
	pushl	(%ebx)
	call	HAL_MutexUnlock
.LVL323:
	addl	$16, %esp
	jmp	.L184
.L190:
	.loc 1 2271 0
	subl	$12, %esp
	pushl	%esi
	pushl	$.LC48
	pushl	$2
	pushl	$2271
	pushl	$__FUNCTION__.5777
	call	LITE_syslog
.LVL324:
	addl	$32, %esp
.L184:
.LVL325:
.LBE59:
.LBE58:
	.loc 1 1855 0
	movl	%ebx, %eax
	call	iotx_mc_get_client_state
.LVL326:
	.loc 1 1858 0
	cmpl	$4, %eax
	jne	.L191
	.loc 1 1860 0
	subl	$12, %esp
	pushl	(%ebx)
.LBB66:
.LBB67:
	.loc 1 2115 0
	leal	408(%ebx), %edi
.LBE67:
.LBE66:
	.loc 1 1860 0
	call	HAL_MutexLock
.LVL327:
	.loc 1 1861 0
	movl	$0, 400(%ebx)
	.loc 1 1862 0
	popl	%esi
	pushl	(%ebx)
	call	HAL_MutexUnlock
.LVL328:
.LBB73:
.LBB70:
	.loc 1 2115 0
	movl	%edi, (%esp)
	call	utils_time_is_expired
.LVL329:
	addl	$16, %esp
	testl	%eax, %eax
	je	.L202
	.loc 1 2120 0
	pushl	$.LC50
	pushl	$4
	pushl	$2120
	pushl	$__FUNCTION__.5753
	call	LITE_syslog
.LVL330:
	.loc 1 2122 0
	movl	532(%ebx), %eax
	.loc 1 2122 0
	addl	$16, %esp
	testl	%eax, %eax
	je	.L193
	.loc 1 2122 0
	call	*%eax
.LVL331:
	testl	%eax, %eax
	je	.L193
	.loc 1 2123 0
	pushl	$.LC51
	pushl	$2
	pushl	$2123
	pushl	$__FUNCTION__.5753
	call	LITE_syslog
.LVL332:
	addl	$16, %esp
	jmp	.L202
.L193:
	.loc 1 2127 0
	movl	392(%ebx), %eax
	subl	$12, %esp
	pushl	%eax
	call	*24(%eax)
.LVL333:
.LBB68:
.LBB69:
	.loc 1 2084 0
	movzwl	440(%ebx), %eax
	pushl	480(%ebx)
	pushl	%eax
	pushl	428(%ebx)
	movzbl	424(%ebx), %eax
	pushl	%eax
	pushl	$.LC52
	pushl	$4
	pushl	$2088
	pushl	$__FUNCTION__.5747
	call	LITE_syslog
.LVL334:
	.loc 1 2093 0
	movl	392(%ebx), %eax
	addl	$36, %esp
	pushl	%eax
	call	*24(%eax)
.LVL335:
	.loc 1 2095 0
	movl	%ebx, %eax
	call	iotx_mc_connect
.LVL336:
	.loc 1 2097 0
	addl	$16, %esp
	testl	%eax, %eax
	.loc 1 2095 0
	movl	%eax, %esi
.LVL337:
	.loc 1 2097 0
	je	.L194
	.loc 1 2098 0
	pushl	$.LC53
	pushl	$2
	pushl	$2098
	pushl	$__FUNCTION__.5747
	call	LITE_syslog
.LVL338:
.LBE69:
.LBE68:
	.loc 1 2136 0
	movl	412(%ebx), %eax
	addl	$16, %esp
	cmpl	$59999, %eax
	ja	.L195
	.loc 1 2137 0
	addl	%eax, %eax
	movl	%eax, 412(%ebx)
	jmp	.L196
.L195:
	.loc 1 2139 0
	movl	$60000, 412(%ebx)
.L196:
	.loc 1 2143 0
	movl	412(%ebx), %edx
.LVL339:
	.loc 1 2144 0
	subl	$12, %esp
	pushl	%edx
	movl	%edx, -44(%ebp)
	call	HAL_Random
.LVL340:
	movl	-44(%ebp), %edx
	addl	%edx, %eax
.LVL341:
	.loc 1 2148 0
	cmpl	$60000, %eax
	popl	%edx
	movl	$60000, %edx
	popl	%ecx
	cmova	%edx, %eax
.LVL342:
	pushl	%eax
	pushl	%edi
	call	utils_time_countdown_ms
.LVL343:
	.loc 1 2150 0
	movl	%esi, (%esp)
	pushl	$.LC54
	pushl	$2
	pushl	$2150
	pushl	$__FUNCTION__.5753
	call	LITE_syslog
.LVL344:
	addl	$32, %esp
	jmp	.L192
.LVL345:
.L191:
.LBE70:
.LBE73:
	.loc 1 1876 0
	cmpl	$3, %eax
	jne	.L197
	.loc 1 1877 0
	pushl	$.LC55
	pushl	$2
	pushl	$1877
	pushl	$__FUNCTION__.5705
	call	LITE_syslog
.LVL346:
.LBB74:
.LBB75:
	.loc 1 2185 0
	movl	524(%ebx), %eax
	.loc 1 2185 0
	addl	$16, %esp
	testl	%eax, %eax
	je	.L198
.LBB76:
	.loc 1 2190 0
	leal	-36(%ebp), %edx
	pushl	%ecx
	.loc 1 2187 0
	movl	$1, -36(%ebp)
	.loc 1 2188 0
	movl	$0, -32(%ebp)
	.loc 1 2190 0
	pushl	%edx
	pushl	%ebx
	pushl	528(%ebx)
	call	*%eax
.LVL347:
	addl	$16, %esp
.L198:
.LVL348:
.LBE76:
.LBE75:
.LBE74:
	.loc 1 1881 0
	leal	408(%ebx), %eax
	.loc 1 1880 0
	movl	$1000, 412(%ebx)
	.loc 1 1881 0
	pushl	%edx
	pushl	%edx
	pushl	$1000
	pushl	%eax
	call	utils_time_countdown_ms
.LVL349:
	.loc 1 1884 0
	call	get_iotx_fd
.LVL350:
	addl	$12, %esp
	pushl	%ebx
	pushl	$cb_recv
	pushl	%eax
	call	aos_cancel_poll_read_fd
.LVL351:
	.loc 1 1885 0
	movl	392(%ebx), %eax
	movl	%eax, (%esp)
	call	*24(%eax)
.LVL352:
	.loc 1 1886 0
	movl	$4, %edx
	movl	%ebx, %eax
	call	iotx_mc_set_client_state
.LVL353:
	addl	$16, %esp
.LVL354:
.L197:
.LBE57:
.LBE56:
	.loc 1 2005 0
	pushl	%eax
	movzwl	440(%ebx), %eax
	pushl	%ebx
	pushl	$cb_recv_timeout
	imull	$1000, %eax, %eax
	pushl	%eax
	call	aos_post_delayed_action
.LVL355:
	.loc 1 2006 0
	movl	-28(%ebp), %eax
	xorl	%gs:20, %eax
	je	.L201
	call	__stack_chk_fail
.LVL356:
.L194:
.LBB83:
.LBB82:
.LBB77:
.LBB71:
	.loc 1 2131 0
	movl	%ebx, %eax
	movl	$2, %edx
	call	iotx_mc_set_client_state
.LVL357:
.LBE71:
.LBE77:
	.loc 1 1867 0
	pushl	$.LC56
	pushl	$4
	pushl	$1867
	pushl	$__FUNCTION__.5705
	call	LITE_syslog
.LVL358:
.LBB78:
.LBB79:
	.loc 1 2233 0
	movl	524(%ebx), %eax
	.loc 1 2233 0
	addl	$16, %esp
	testl	%eax, %eax
	je	.L200
.LBB80:
	.loc 1 2238 0
	leal	-36(%ebp), %edx
	pushl	%esi
	.loc 1 2235 0
	movl	$2, -36(%ebp)
	.loc 1 2236 0
	movl	$0, -32(%ebp)
	.loc 1 2238 0
	pushl	%edx
	pushl	%ebx
	pushl	528(%ebx)
	call	*%eax
.LVL359:
	addl	$16, %esp
.L200:
.LVL360:
.LBE80:
.LBE79:
.LBE78:
	.loc 1 1869 0
	movl	$1000, 412(%ebx)
	jmp	.L197
.LVL361:
.L202:
.LBB81:
.LBB72:
	.loc 1 2117 0
	orl	$-1, %esi
.LVL362:
.L192:
.LBE72:
.LBE81:
	.loc 1 1865 0
	subl	$12, %esp
	pushl	%esi
	pushl	$.LC57
	pushl	$5
	pushl	$1865
	pushl	$__FUNCTION__.5705
	call	LITE_syslog
.LVL363:
	addl	$32, %esp
	jmp	.L197
.LVL364:
.L201:
.LBE82:
.LBE83:
	.loc 1 2006 0
	leal	-12(%ebp), %esp
	popl	%ebx
	.cfi_restore 3
.LVL365:
	popl	%esi
	.cfi_restore 6
	popl	%edi
	.cfi_restore 7
	popl	%ebp
	.cfi_restore 5
	.cfi_def_cfa 4, 4
	ret
	.cfi_endproc
.LFE75:
	.size	cb_recv_timeout, .-cb_recv_timeout
	.section	.text.unlikely.cb_recv_timeout
.LCOLDE58:
	.section	.text.cb_recv_timeout
.LHOTE58:
	.section	.rodata.str1.1
.LC59:
	.string	"MQTTPublish parms null"
.LC60:
	.string	"MQTTSerialize_publish is error, len=%d, buf_size=%u, payloadlen=%u"
.LC61:
	.string	"the param of len is error!"
.LC62:
	.string	"more than %u elements in republish list. List overflow!"
.LC63:
	.string	"push publish into to pubInfolist failed!"
	.section	.text.unlikely.MQTTPublish,"ax",@progbits
.LCOLDB64:
	.section	.text.MQTTPublish,"ax",@progbits
.LHOTB64:
	.globl	MQTTPublish
	.type	MQTTPublish, @function
MQTTPublish:
.LFB38:
	.loc 1 225 0
	.cfi_startproc
.LVL366:
	pushl	%ebp
	.cfi_def_cfa_offset 8
	.cfi_offset 5, -8
	movl	%esp, %ebp
	.cfi_def_cfa_register 5
	pushl	%edi
	pushl	%esi
	pushl	%ebx
	subl	$60, %esp
	.cfi_offset 7, -12
	.cfi_offset 6, -16
	.cfi_offset 3, -20
	.loc 1 225 0
	movl	16(%ebp), %edi
	movl	12(%ebp), %eax
	movl	8(%ebp), %ebx
	.loc 1 228 0
	movl	$0, -40(%ebp)
	movl	$0, -36(%ebp)
	movl	$0, -32(%ebp)
	.loc 1 225 0
	movl	%edi, -60(%ebp)
	movl	%gs:20, %edi
	movl	%edi, -28(%ebp)
	xorl	%edi, %edi
.LVL367:
	.loc 1 231 0
	testl	%eax, %eax
	sete	%cl
	cmpl	$0, -60(%ebp)
	sete	%dl
	orb	%dl, %cl
	jne	.L232
	testl	%ebx, %ebx
	jne	.L218
.L232:
	.loc 1 232 0
	pushl	$.LC59
	pushl	$2
	pushl	$232
	pushl	$__FUNCTION__.5376
	call	LITE_syslog
.LVL368:
	.loc 1 233 0
	addl	$16, %esp
	orl	$-1, %eax
	jmp	.L220
.L218:
	.loc 1 237 0
	leal	-44(%ebp), %esi
	subl	$12, %esp
	.loc 1 236 0
	movl	%eax, -40(%ebp)
	.loc 1 237 0
	pushl	%esi
	call	iotx_time_init
.LVL369:
	.loc 1 238 0
	popl	%eax
	popl	%edx
	pushl	8(%ebx)
	pushl	%esi
	.loc 1 241 0
	leal	-40(%ebp), %esi
	.loc 1 238 0
	call	utils_time_countdown_ms
.LVL370:
	.loc 1 240 0
	popl	%ecx
	pushl	520(%ebx)
	call	HAL_MutexLock
.LVL371:
	.loc 1 241 0
	movl	-60(%ebp), %eax
	addl	$12, %esp
	movl	$3, %ecx
	movzwl	8(%eax), %eax
	pushl	%eax
	movl	-60(%ebp), %eax
	pushl	16(%eax)
	subl	$12, %esp
	movl	%esp, %edi
	rep movsl
	movl	-60(%ebp), %eax
	movzwl	(%eax), %eax
	pushl	%eax
	movl	-60(%ebp), %eax
	movzbl	4(%eax), %eax
	pushl	%eax
	movl	-60(%ebp), %eax
	movzbl	2(%eax), %eax
	pushl	%eax
	pushl	$0
	pushl	12(%ebx)
	pushl	24(%ebx)
	call	MQTTSerialize_publish
.LVL372:
	.loc 1 250 0
	addl	$48, %esp
	testl	%eax, %eax
	.loc 1 241 0
	movl	%eax, -64(%ebp)
.LVL373:
	.loc 1 250 0
	jg	.L221
	.loc 1 251 0
	subl	$12, %esp
	pushl	520(%ebx)
	call	HAL_MutexUnlock
.LVL374:
	.loc 1 252 0
	movl	-60(%ebp), %eax
	addl	$12, %esp
	movzwl	8(%eax), %eax
	pushl	%eax
	pushl	12(%ebx)
	pushl	-64(%ebp)
	pushl	$.LC60
	pushl	$2
	pushl	$255
	pushl	$__FUNCTION__.5376
	call	LITE_syslog
.LVL375:
	.loc 1 256 0
	addl	$32, %esp
	movl	$-21, %eax
	jmp	.L220
.LVL376:
.L221:
	.loc 1 261 0
	movl	-60(%ebp), %eax
.LVL377:
	cmpb	$0, 2(%eax)
	je	.L231
	.loc 1 263 0
	movl	(%eax), %esi
.LVL378:
.LBB86:
.LBB87:
	.loc 1 515 0
	movl	-64(%ebp), %eax
	cmpl	%eax, 12(%ebx)
	jnb	.L223
	.loc 1 516 0
	pushl	$.LC61
	pushl	$2
	pushl	$516
	pushl	$__FUNCTION__.5433
	call	LITE_syslog
.LVL379:
	addl	$16, %esp
	jmp	.L224
.LVL380:
.L223:
	.loc 1 520 0
	subl	$12, %esp
	pushl	512(%ebx)
	call	HAL_MutexLock
.LVL381:
	.loc 1 522 0
	movl	504(%ebx), %eax
	addl	$16, %esp
	cmpl	$19, 8(%eax)
	jbe	.L225
	.loc 1 523 0
	subl	$12, %esp
	pushl	512(%ebx)
	call	HAL_MutexUnlock
.LVL382:
	.loc 1 524 0
	popl	%eax
	movl	504(%ebx), %eax
	pushl	8(%eax)
	pushl	$.LC62
	pushl	$2
	pushl	$524
	pushl	$__FUNCTION__.5433
	call	LITE_syslog
.LVL383:
	jmp	.L236
.L225:
	.loc 1 528 0
	pushl	%eax
	movl	-64(%ebp), %eax
	addl	$20, %eax
	pushl	%eax
	pushl	$528
	pushl	$__func__.5435
	call	LITE_malloc_internal
.LVL384:
	.loc 1 529 0
	addl	$16, %esp
	testl	%eax, %eax
	.loc 1 528 0
	movl	%eax, %edx
.LVL385:
	.loc 1 529 0
	jne	.L226
	.loc 1 530 0
	subl	$12, %esp
	pushl	512(%ebx)
	call	HAL_MutexUnlock
.LVL386:
	.loc 1 531 0
	pushl	$.LC7
	pushl	$2
	pushl	$531
	jmp	.L235
.LVL387:
.L226:
	.loc 1 536 0
	movw	%si, 8(%eax)
	.loc 1 535 0
	movl	$0, 4(%eax)
	.loc 1 538 0
	subl	$12, %esp
	.loc 1 537 0
	movl	-64(%ebp), %eax
.LVL388:
	.loc 1 538 0
	movl	%edx, -68(%ebp)
	.loc 1 537 0
	movl	%eax, 12(%edx)
	.loc 1 538 0
	pushl	%edx
	call	iotx_time_start
.LVL389:
	.loc 1 539 0
	movl	-68(%ebp), %edx
	.loc 1 541 0
	movl	24(%ebx), %esi
.LVL390:
	movl	-64(%ebp), %ecx
	.loc 1 539 0
	leal	20(%edx), %eax
	movl	%eax, 16(%edx)
	.loc 1 541 0
	movl	%eax, %edi
	rep movsb
	.loc 1 543 0
	movl	%edx, (%esp)
	call	list_node_new
.LVL391:
	.loc 1 544 0
	addl	$16, %esp
	testl	%eax, %eax
	.loc 1 543 0
	movl	%eax, %esi
.LVL392:
	.loc 1 544 0
	jne	.L227
	.loc 1 545 0
	subl	$12, %esp
	pushl	512(%ebx)
	call	HAL_MutexUnlock
.LVL393:
	.loc 1 546 0
	pushl	$.LC8
	pushl	$2
	pushl	$546
.LVL394:
.L235:
	pushl	$__FUNCTION__.5433
	call	LITE_syslog
.LVL395:
.L236:
	addl	$32, %esp
	jmp	.L224
.LVL396:
.L227:
	.loc 1 550 0
	pushl	%edi
	pushl	%edi
	pushl	%eax
	pushl	504(%ebx)
	call	list_rpush
.LVL397:
	.loc 1 552 0
	popl	%eax
	pushl	512(%ebx)
	call	HAL_MutexUnlock
.LVL398:
	addl	$16, %esp
	jmp	.L222
.LVL399:
.L231:
.LBE87:
.LBE86:
	.loc 1 226 0
	xorl	%esi, %esi
.LVL400:
.L222:
	.loc 1 271 0
	leal	-44(%ebp), %eax
	subl	$12, %esp
	movl	24(%ebx), %edx
	movl	-64(%ebp), %ecx
	pushl	%eax
	movl	%ebx, %eax
	call	iotx_mc_send_packet
.LVL401:
	addl	$16, %esp
	testl	%eax, %eax
	je	.L228
	.loc 1 272 0
	movl	-60(%ebp), %eax
	cmpb	$0, 2(%eax)
	je	.L229
	.loc 1 274 0
	subl	$12, %esp
	pushl	512(%ebx)
	call	HAL_MutexLock
.LVL402:
	.loc 1 275 0
	popl	%edx
	popl	%ecx
	pushl	%esi
	pushl	504(%ebx)
	call	list_remove
.LVL403:
	.loc 1 276 0
	popl	%esi
.LVL404:
	pushl	512(%ebx)
	call	HAL_MutexUnlock
.LVL405:
	addl	$16, %esp
.L229:
	.loc 1 279 0
	subl	$12, %esp
	pushl	520(%ebx)
	call	HAL_MutexUnlock
.LVL406:
	.loc 1 280 0
	addl	$16, %esp
	movl	$-14, %eax
	jmp	.L220
.LVL407:
.L228:
	.loc 1 283 0
	subl	$12, %esp
	pushl	520(%ebx)
	movl	%eax, -60(%ebp)
	call	HAL_MutexUnlock
.LVL408:
	.loc 1 284 0
	movl	-60(%ebp), %eax
	addl	$16, %esp
.LVL409:
.L220:
	.loc 1 285 0
	movl	-28(%ebp), %ecx
	xorl	%gs:20, %ecx
	je	.L230
	call	__stack_chk_fail
.LVL410:
.L224:
	.loc 1 264 0
	pushl	$.LC63
	pushl	$2
	pushl	$264
	pushl	$__FUNCTION__.5376
	call	LITE_syslog
.LVL411:
	.loc 1 265 0
	popl	%eax
	pushl	520(%ebx)
	call	HAL_MutexUnlock
.LVL412:
	.loc 1 266 0
	addl	$16, %esp
	movl	$-42, %eax
	jmp	.L220
.LVL413:
.L230:
	.loc 1 285 0
	leal	-12(%ebp), %esp
	popl	%ebx
	.cfi_restore 3
	popl	%esi
	.cfi_restore 6
	popl	%edi
	.cfi_restore 7
	popl	%ebp
	.cfi_restore 5
	.cfi_def_cfa 4, 4
	ret
	.cfi_endproc
.LFE38:
	.size	MQTTPublish, .-MQTTPublish
	.section	.text.unlikely.MQTTPublish
.LCOLDE64:
	.section	.text.MQTTPublish
.LHOTE64:
	.section	.rodata.str1.1
.LC65:
	.string	"phandler"
.LC66:
	.string	"Invalid argument, %s = %p"
.LC67:
	.string	"*phandler"
.LC68:
	.string	"%s == NULL! LITE_free(%s) aborted."
	.section	.text.unlikely.IOT_MQTT_Destroy,"ax",@progbits
.LCOLDB69:
	.section	.text.IOT_MQTT_Destroy,"ax",@progbits
.LHOTB69:
	.globl	IOT_MQTT_Destroy
	.type	IOT_MQTT_Destroy, @function
IOT_MQTT_Destroy:
.LFB87:
	.loc 1 2428 0
	.cfi_startproc
.LVL414:
	pushl	%ebp
	.cfi_def_cfa_offset 8
	.cfi_offset 5, -8
	movl	%esp, %ebp
	.cfi_def_cfa_register 5
	pushl	%ebx
	pushl	%eax
	.cfi_offset 3, -12
	.loc 1 2428 0
	movl	8(%ebp), %ebx
	.loc 1 2429 0
	testl	%ebx, %ebx
	jne	.L238
	.loc 1 2429 0 discriminator 1
	pushl	%ebx
	pushl	%ebx
	pushl	$0
	pushl	$.LC65
	pushl	$.LC66
	pushl	$2
	pushl	$2429
	jmp	.L244
.L238:
	.loc 1 2430 0
	movl	(%ebx), %eax
	.loc 1 2430 0
	testl	%eax, %eax
	jne	.L240
	.loc 1 2430 0 discriminator 1
	pushl	%ecx
	pushl	%ecx
	pushl	$0
	pushl	$.LC67
	pushl	$.LC66
	pushl	$2
	pushl	$2430
.L244:
	pushl	$__FUNCTION__.5803
	call	LITE_syslog
.LVL415:
	addl	$32, %esp
	movl	$-2, %eax
	jmp	.L239
.L240:
	.loc 1 2432 0
	pushl	%edx
	pushl	%eax
	movzwl	440(%eax), %eax
	pushl	$cb_recv_timeout
	imull	$1000, %eax, %eax
	pushl	%eax
	call	aos_cancel_delayed_action
.LVL416:
	.loc 1 2434 0
	movl	(%ebx), %eax
	call	iotx_mc_release
.LVL417:
	.loc 1 2435 0
	movl	(%ebx), %eax
	addl	$16, %esp
	testl	%eax, %eax
	jne	.L241
	.loc 1 2435 0 is_stmt 0 discriminator 1
	pushl	%eax
	pushl	%eax
	pushl	$.LC67
	pushl	$.LC67
	pushl	$.LC68
	pushl	$2
	pushl	$2435
	pushl	$__FUNCTION__.5803
	call	LITE_syslog
.LVL418:
	addl	$32, %esp
	jmp	.L242
.L241:
	.loc 1 2435 0 discriminator 2
	subl	$12, %esp
	pushl	%eax
	call	LITE_free_internal
.LVL419:
	addl	$16, %esp
.L242:
	.loc 1 2436 0 is_stmt 1
	movl	$0, (%ebx)
	.loc 1 2438 0
	xorl	%eax, %eax
.L239:
	.loc 1 2439 0
	movl	-4(%ebp), %ebx
	leave
	.cfi_restore 5
	.cfi_restore 3
	.cfi_def_cfa 4, 4
	ret
	.cfi_endproc
.LFE87:
	.size	IOT_MQTT_Destroy, .-IOT_MQTT_Destroy
	.section	.text.unlikely.IOT_MQTT_Destroy
.LCOLDE69:
	.section	.text.IOT_MQTT_Destroy
.LHOTE69:
	.section	.rodata.str1.1
.LC70:
	.string	"handle"
.LC71:
	.string	"Invalid argument, timeout_ms = %d"
.LC72:
	.string	"state = %d"
.LC73:
	.string	"CONNACK"
.LC74:
	.string	"PUBACK"
.LC75:
	.string	"recvPubackProc error,result = %d"
.LC76:
	.string	"SUBACK"
.LC77:
	.string	"Sub ack packet error"
.LC78:
	.string	"MQTT SUBSCRIBE failed, ack code is 0x80"
.LC79:
	.string	"There is a identical topic and related handle in list!"
.LC80:
	.string	"NOT more @sub_handle space!"
.LC81:
	.string	"recvSubAckProc error,result = %d"
.LC82:
	.string	"PUBLISH"
.LC83:
	.string	"delivering msg ..."
.LC84:
	.string	"topic be matched"
.LC85:
	.string	"NO matching any topic, call default handle function"
.LC86:
	.string	"Invalid QOS, QOSvalue = %d"
.LC87:
	.string	"recvPublishProc error,result = %d"
.LC88:
	.string	"recvUnsubAckProc error,result = %d"
.LC89:
	.string	"receive ping response!"
.LC90:
	.string	"INVALID TYPE"
.LC91:
	.string	"new list failed"
	.section	.text.unlikely.IOT_MQTT_Yield,"ax",@progbits
.LCOLDB92:
	.section	.text.IOT_MQTT_Yield,"ax",@progbits
.LHOTB92:
	.globl	IOT_MQTT_Yield
	.type	IOT_MQTT_Yield, @function
IOT_MQTT_Yield:
.LFB88:
	.loc 1 2442 0
	.cfi_startproc
.LVL420:
	pushl	%ebp
	.cfi_def_cfa_offset 8
	.cfi_offset 5, -8
	movl	%esp, %ebp
	.cfi_def_cfa_register 5
	pushl	%edi
	pushl	%esi
	pushl	%ebx
	subl	$108, %esp
	.cfi_offset 7, -12
	.cfi_offset 6, -16
	.cfi_offset 3, -20
	.loc 1 2442 0
	movl	8(%ebp), %esi
	movl	12(%ebp), %ebx
	movl	%gs:20, %eax
	movl	%eax, -28(%ebp)
	xorl	%eax, %eax
.LVL421:
	.loc 1 2447 0
	testl	%esi, %esi
	jne	.L246
.LVL422:
.LBB130:
.LBB131:
	.loc 1 2447 0
	pushl	%ecx
	pushl	%ecx
	movl	$-2, %ebx
.LVL423:
	pushl	$0
	pushl	$.LC70
	pushl	$.LC66
	pushl	$2
	pushl	$2447
	pushl	$__FUNCTION__.5812
	call	LITE_syslog
.LVL424:
	addl	$32, %esp
	jmp	.L247
.L246:
.LBE131:
.LBE130:
	.loc 1 2448 0
	testl	%ebx, %ebx
	jns	.L248
	.loc 1 2449 0
	subl	$12, %esp
	pushl	%ebx
	pushl	$.LC71
	pushl	$2
	pushl	$2449
	pushl	$__FUNCTION__.5812
	call	LITE_syslog
.LVL425:
	.loc 1 2450 0
	addl	$32, %esp
	jmp	.L410
.L248:
	.loc 1 2453 0
	movl	$10, %eax
	.loc 1 2456 0
	leal	-84(%ebp), %edi
	.loc 1 2453 0
	cmove	%eax, %ebx
	.loc 1 2456 0
	subl	$12, %esp
	pushl	%edi
	call	iotx_time_init
.LVL426:
	.loc 1 2457 0
	popl	%eax
	popl	%edx
	pushl	%ebx
	pushl	%edi
	call	utils_time_countdown_ms
.LVL427:
.LBB132:
.LBB133:
	.loc 1 1234 0
	movl	%esi, %eax
	call	iotx_mc_get_client_state
.LVL428:
	.loc 1 1235 0
	addl	$16, %esp
	cmpl	$2, %eax
	je	.L250
	.loc 1 1236 0
	subl	$12, %esp
	.loc 1 1237 0
	movl	$-27, %ebx
	.loc 1 1236 0
	pushl	%eax
	pushl	$.LC72
	pushl	$5
	pushl	$1236
	pushl	$__FUNCTION__.5605
	call	LITE_syslog
.LVL429:
	addl	$32, %esp
	jmp	.L247
.LVL430:
.L250:
	.loc 1 1240 0
	cmpb	$3, 20(%esi)
	jbe	.L252
	.loc 1 1241 0
	movl	$3, %edx
	movl	%esi, %eax
.LVL431:
	call	iotx_mc_set_client_state
.LVL432:
	.loc 1 1243 0
	subl	$12, %esp
	.loc 1 1242 0
	movb	$0, 20(%esi)
	.loc 1 1243 0
	pushl	$3
	pushl	$.LC46
	pushl	$5
	pushl	$1243
	pushl	$__FUNCTION__.5605
	call	LITE_syslog
.LVL433:
	addl	$32, %esp
.L252:
	.loc 1 1247 0
	leal	-80(%ebp), %ecx
	movl	%edi, %edx
	movl	%esi, %eax
	call	iotx_mc_read_packet
.LVL434:
	.loc 1 1248 0
	testl	%eax, %eax
	.loc 1 1247 0
	movl	%eax, %ebx
.LVL435:
	.loc 1 1248 0
	je	.L253
	.loc 1 1249 0
	movl	$3, %edx
	movl	%esi, %eax
.LVL436:
	call	iotx_mc_set_client_state
.LVL437:
	.loc 1 1250 0
	subl	$12, %esp
	pushl	%ebx
	pushl	$.LC39
	.loc 1 1251 0
	movl	$-14, %ebx
.LVL438:
	.loc 1 1250 0
	pushl	$5
.LVL439:
	pushl	$1250
.LVL440:
	pushl	$__FUNCTION__.5605
.LVL441:
	call	LITE_syslog
.LVL442:
	addl	$32, %esp
	jmp	.L247
.LVL443:
.L253:
	.loc 1 1256 0
	xorl	%ebx, %ebx
	.loc 1 1254 0
	cmpl	$0, -80(%ebp)
	je	.L347
	.loc 1 1260 0
	subl	$12, %esp
	pushl	(%esi)
	call	HAL_MutexLock
.LVL444:
	.loc 1 1261 0
	movl	$0, 400(%esi)
	.loc 1 1262 0
	movb	$0, 20(%esi)
	.loc 1 1263 0
	popl	%eax
	pushl	(%esi)
	call	HAL_MutexUnlock
.LVL445:
	.loc 1 1265 0
	movl	-80(%ebp), %eax
	addl	$16, %esp
	subl	$2, %eax
	cmpl	$11, %eax
	ja	.L254
	jmp	*.L256(,%eax,4)
	.section	.rodata.IOT_MQTT_Yield,"a",@progbits
	.align 4
	.align 4
.L256:
	.long	.L255
	.long	.L257
	.long	.L258
	.long	.L254
	.long	.L254
	.long	.L254
	.long	.L254
	.long	.L259
	.long	.L254
	.long	.L260
	.long	.L254
	.long	.L261
	.section	.text.IOT_MQTT_Yield
.L255:
	.loc 1 1267 0
	pushl	$.LC73
	pushl	$5
	pushl	$1267
	jmp	.L405
.L258:
	.loc 1 1271 0
	pushl	$.LC74
	pushl	$5
	pushl	$1271
	pushl	$__FUNCTION__.5605
	call	LITE_syslog
.LVL446:
.LBB134:
.LBB135:
	.loc 1 968 0
	leal	-60(%ebp), %eax
	.loc 1 961 0
	movb	$0, -72(%ebp)
	.loc 1 962 0
	movb	$0, -68(%ebp)
	.loc 1 968 0
	popl	%edi
.LVL447:
	pushl	16(%esi)
	pushl	28(%esi)
	pushl	%eax
	leal	-72(%ebp), %eax
	pushl	%eax
	leal	-68(%ebp), %eax
	pushl	%eax
	call	MQTTDeserialize_ack
.LVL448:
	addl	$32, %esp
	decl	%eax
	jne	.L335
.LBB136:
.LBB137:
	.loc 1 468 0
	subl	$12, %esp
	pushl	512(%esi)
.LBE137:
.LBE136:
	.loc 1 972 0
	movl	-60(%ebp), %edi
.LVL449:
.LBB142:
.LBB139:
	.loc 1 468 0
	call	HAL_MutexLock
.LVL450:
	.loc 1 469 0
	movl	504(%esi), %eax
	addl	$16, %esp
	cmpl	$0, 8(%eax)
	je	.L263
.LVL451:
.LBB138:
	.loc 1 474 0
	pushl	%ebx
	pushl	%ebx
	pushl	$1
	pushl	%eax
	call	list_iterator_new
.LVL452:
	addl	$16, %esp
	testl	%eax, %eax
	movl	%eax, %ebx
.LVL453:
	je	.L263
.LVL454:
.L381:
	.loc 1 481 0
	subl	$12, %esp
	pushl	%ebx
	call	list_iterator_next
.LVL455:
	.loc 1 483 0
	addl	$16, %esp
	testl	%eax, %eax
	je	.L266
	.loc 1 487 0
	movl	8(%eax), %eax
.LVL456:
	.loc 1 488 0
	testl	%eax, %eax
	jne	.L267
	.loc 1 489 0
	pushl	$.LC26
	pushl	$2
	pushl	$489
	pushl	$__FUNCTION__.5424
	call	LITE_syslog
.LVL457:
	addl	$16, %esp
	jmp	.L381
.LVL458:
.L267:
	.loc 1 493 0
	cmpw	8(%eax), %di
	jne	.L381
	.loc 1 494 0
	movl	$1, 4(%eax)
	jmp	.L381
.LVL459:
.L266:
	.loc 1 498 0
	subl	$12, %esp
	pushl	%ebx
	call	list_iterator_destroy
.LVL460:
	addl	$16, %esp
.LVL461:
.L263:
.LBE138:
	.loc 1 500 0
	subl	$12, %esp
	pushl	512(%esi)
.LBE139:
.LBE142:
	.loc 1 982 0
	xorl	%ebx, %ebx
.LBB143:
.LBB140:
	.loc 1 500 0
	call	HAL_MutexUnlock
.LVL462:
.LBE140:
.LBE143:
	.loc 1 975 0
	movl	524(%esi), %eax
.LBB144:
.LBB141:
	.loc 1 500 0
	addl	$16, %esp
.LVL463:
.LBE141:
.LBE144:
	.loc 1 975 0
	testl	%eax, %eax
	je	.L347
.LBB145:
	.loc 1 978 0
	movzwl	-60(%ebp), %edx
	.loc 1 977 0
	movl	$9, -48(%ebp)
	.loc 1 979 0
	pushl	%ecx
	.loc 1 978 0
	movl	%edx, -44(%ebp)
	.loc 1 979 0
	leal	-48(%ebp), %edx
	jmp	.L406
.L335:
.LBE145:
.LBE135:
.LBE134:
	.loc 1 1274 0
	subl	$12, %esp
.LBB147:
.LBB146:
	.loc 1 969 0
	movl	$-19, %ebx
.LVL464:
.LBE146:
.LBE147:
	.loc 1 1274 0
	pushl	$-19
	pushl	$.LC75
	pushl	$2
	pushl	$1274
	jmp	.L412
.LVL465:
.L259:
	.loc 1 1280 0
	pushl	$.LC76
	pushl	$5
	pushl	$1280
	pushl	$__FUNCTION__.5605
	call	LITE_syslog
.LVL466:
.LBB148:
.LBB149:
	.loc 1 997 0
	popl	%eax
	leal	-68(%ebp), %eax
	.loc 1 990 0
	movl	$0, -72(%ebp)
	movl	$-1, -68(%ebp)
.LVL467:
	.loc 1 997 0
	popl	%edx
	pushl	16(%esi)
	pushl	28(%esi)
	pushl	%eax
	leal	-72(%ebp), %eax
	pushl	%eax
	leal	-76(%ebp), %eax
	pushl	$1
	pushl	%eax
	call	MQTTDeserialize_suback
.LVL468:
	addl	$32, %esp
	decl	%eax
	je	.L269
	.loc 1 998 0
	pushl	$.LC77
	pushl	$2
	.loc 1 999 0
	movl	$-25, %ebx
	.loc 1 998 0
	pushl	$998
	pushl	$__FUNCTION__.5562
	call	LITE_syslog
.LVL469:
	addl	$16, %esp
	jmp	.L394
.L269:
	.loc 1 1003 0
	leal	-48(%ebp), %edi
.LVL470:
	xorl	%eax, %eax
	movl	$3, %ecx
	.loc 1 1004 0
	movzwl	-76(%ebp), %edx
	.loc 1 1003 0
	rep stosl
	.loc 1 1004 0
	leal	-48(%ebp), %ecx
	movl	%esi, %eax
	call	iotx_mc_mask_subInfo_from
.LVL471:
	.loc 1 1007 0
	cmpb	$-128, -68(%ebp)
	jne	.L271
	.loc 1 1008 0
	pushl	$.LC78
	pushl	$2
	.loc 1 1016 0
	movl	$-24, %ebx
	.loc 1 1008 0
	pushl	$1008
	pushl	$__FUNCTION__.5562
	call	LITE_syslog
.LVL472:
	.loc 1 1009 0
	movl	524(%esi), %eax
	.loc 1 1009 0
	addl	$16, %esp
	testl	%eax, %eax
	je	.L394
.LBB150:
	.loc 1 1013 0
	movzwl	-76(%ebp), %edx
	.loc 1 1014 0
	pushl	%edi
	.loc 1 1012 0
	movl	$5, -60(%ebp)
	.loc 1 1013 0
	movl	%edx, -56(%ebp)
	.loc 1 1014 0
	leal	-60(%ebp), %edx
	pushl	%edx
	pushl	%esi
	pushl	528(%esi)
	call	*%eax
.LVL473:
	addl	$16, %esp
	jmp	.L394
.L271:
.LBE150:
	.loc 1 1019 0
	cmpl	$0, -44(%ebp)
	je	.L339
	.loc 1 1019 0
	cmpl	$0, -48(%ebp)
	je	.L339
	.loc 1 1023 0
	subl	$12, %esp
	pushl	(%esi)
	.loc 1 991 0
	orl	$-1, %ebx
	.loc 1 1025 0
	xorl	%edi, %edi
	.loc 1 1023 0
	call	HAL_MutexLock
.LVL474:
	.loc 1 1028 0
	leal	-48(%ebp), %eax
	leal	32(%esi), %ecx
	addl	$16, %esp
	movl	%eax, -92(%ebp)
.LVL475:
.L275:
	.loc 1 1027 0
	cmpl	$0, (%ecx)
	je	.L272
	.loc 1 1028 0
	movl	-92(%ebp), %edx
	movl	%ecx, %eax
	movl	%ecx, -96(%ebp)
	call	iotx_mc_check_handle_is_identical
.LVL476:
	testl	%eax, %eax
	movl	-96(%ebp), %ecx
	jne	.L273
.LVL477:
	.loc 1 1031 0
	pushl	$.LC79
	pushl	$2
	pushl	$1031
	pushl	$__FUNCTION__.5562
	call	LITE_syslog
.LVL478:
	addl	$16, %esp
	jmp	.L274
.LVL479:
.L272:
	.loc 1 1035 0
	cmpl	$-1, %ebx
	cmove	%edi, %ebx
.LVL480:
.L273:
	.loc 1 1025 0
	incl	%edi
.LVL481:
	addl	$12, %ecx
	cmpl	$30, %edi
	jne	.L275
	jmp	.L417
.L398:
	.loc 1 1047 0
	imull	$12, %ebx, %ebx
.LVL482:
	movl	-48(%ebp), %eax
	addl	%esi, %ebx
	movl	%eax, 32(%ebx)
	.loc 1 1048 0
	movl	-44(%ebp), %eax
	movl	%eax, 36(%ebx)
	.loc 1 1049 0
	movl	-40(%ebp), %eax
	movl	%eax, 40(%ebx)
.LVL483:
.L274:
	.loc 1 1053 0
	subl	$12, %esp
	pushl	(%esi)
	.loc 1 1063 0
	xorl	%ebx, %ebx
	.loc 1 1053 0
	call	HAL_MutexUnlock
.LVL484:
	.loc 1 1056 0
	movl	524(%esi), %eax
	.loc 1 1056 0
	addl	$16, %esp
	testl	%eax, %eax
	je	.L347
.LBB151:
	.loc 1 1059 0
	movzwl	-76(%ebp), %edx
	.loc 1 1058 0
	movl	$3, -60(%ebp)
	.loc 1 1059 0
	movl	%edx, -56(%ebp)
	.loc 1 1060 0
	pushl	%edx
	leal	-60(%ebp), %edx
.LVL485:
.L406:
	pushl	%edx
	pushl	%esi
	pushl	528(%esi)
	call	*%eax
.LVL486:
	addl	$16, %esp
	jmp	.L347
.LVL487:
.L339:
.LBE151:
	.loc 1 1020 0
	movl	$-43, %ebx
.LVL488:
.L394:
.LBE149:
.LBE148:
	.loc 1 1283 0
	subl	$12, %esp
	pushl	%ebx
	pushl	$.LC81
	pushl	$2
	pushl	$1283
	jmp	.L402
.LVL489:
.L257:
	.loc 1 1288 0
	pushl	$.LC82
	pushl	$5
.LBB153:
.LBB154:
	.loc 1 1080 0
	leal	-48(%ebp), %ebx
.LBE154:
.LBE153:
	.loc 1 1288 0
	pushl	$1288
	pushl	$__FUNCTION__.5605
.LBB173:
.LBB171:
	.loc 1 1080 0
	movl	%ebx, %edi
.LVL490:
.LBE171:
.LBE173:
	.loc 1 1288 0
	call	LITE_syslog
.LVL491:
.LBB174:
.LBB172:
	.loc 1 1081 0
	leal	-60(%ebp), %edx
	.loc 1 1080 0
	xorl	%eax, %eax
	movl	$5, %ecx
	rep stosl
	.loc 1 1081 0
	movl	%edx, %edi
	movl	$3, %ecx
	.loc 1 1073 0
	movl	$0, -76(%ebp)
	.loc 1 1074 0
	movl	$0, -72(%ebp)
	.loc 1 1081 0
	rep stosl
	.loc 1 1083 0
	leal	-72(%ebp), %eax
	popl	%edi
	pushl	16(%esi)
	pushl	28(%esi)
	pushl	%eax
	leal	-32(%ebp), %eax
	pushl	%eax
	leal	-44(%ebp), %eax
	pushl	%edx
	pushl	%ebx
	pushl	%eax
	leal	-76(%ebp), %eax
	pushl	%eax
	leal	-45(%ebp), %eax
	pushl	%eax
	call	MQTTDeserialize_publish
.LVL492:
	addl	$48, %esp
	decl	%eax
	jne	.L342
	.loc 1 1094 0
	movl	-76(%ebp), %eax
	movb	%al, -46(%ebp)
	.loc 1 1095 0
	movl	-72(%ebp), %eax
	movw	%ax, -40(%ebp)
	.loc 1 1098 0
	movl	540(%esi), %eax
	testl	%eax, %eax
	je	.L278
	.loc 1 1099 0
	subl	$12, %esp
	pushl	%ebx
	call	*%eax
.LVL493:
	addl	$16, %esp
.L278:
	.loc 1 1122 0
	pushl	$.LC83
	pushl	$5
	leal	32(%esi), %edi
	pushl	$1122
	pushl	$__FUNCTION__.5577
	.loc 1 1119 0
	movl	$0, -36(%ebp)
	.loc 1 1120 0
	movw	$0, -42(%ebp)
	.loc 1 1122 0
	call	LITE_syslog
.LVL494:
.LBB155:
.LBB156:
	.loc 1 867 0
	movl	-52(%ebp), %eax
	.loc 1 871 0
	popl	%ecx
	pushl	(%esi)
	.loc 1 867 0
	movl	%eax, -36(%ebp)
	.loc 1 868 0
	movl	-56(%ebp), %eax
	movw	%ax, -42(%ebp)
	.loc 1 871 0
	call	HAL_MutexLock
.LVL495:
	leal	392(%esi), %eax
	addl	$16, %esp
	.loc 1 861 0
	movl	$0, -96(%ebp)
	movl	%eax, -108(%ebp)
.LVL496:
.L292:
	.loc 1 874 0
	movl	(%edi), %eax
	testl	%eax, %eax
	je	.L279
	.loc 1 875 0
	pushl	%edx
	pushl	%edx
	pushl	%eax
	leal	-60(%ebp), %eax
.LVL497:
	pushl	%eax
	call	MQTTPacket_equals
.LVL498:
	addl	$16, %esp
	testl	%eax, %eax
	jne	.L280
	.loc 1 876 0
	movl	(%edi), %ebx
.LVL499:
.LBB157:
.LBB158:
	.loc 1 825 0
	testl	%ebx, %ebx
	je	.L279
.LVL500:
	.loc 1 829 0
	movl	-52(%ebp), %eax
.LVL501:
	.loc 1 830 0
	movl	-56(%ebp), %ecx
	addl	%eax, %ecx
	movl	%ecx, -92(%ebp)
.LVL502:
	.loc 1 848 0
	decl	%ecx
.LVL503:
	movl	%ecx, -104(%ebp)
.LVL504:
.L281:
	.loc 1 832 0
	movb	(%ebx), %dl
	testb	%dl, %dl
	je	.L289
	cmpl	%eax, -92(%ebp)
	jbe	.L279
	.loc 1 833 0
	movb	(%eax), %cl
	cmpb	$47, %cl
	movb	%cl, -100(%ebp)
	jne	.L346
	cmpb	$47, %dl
	jne	.L279
.L346:
	.loc 1 837 0
	movb	%dl, %cl
	andl	$-9, %ecx
	cmpb	$35, %cl
	je	.L284
	cmpb	%dl, -100(%ebp)
	je	.L285
	jmp	.L279
.L284:
	.loc 1 841 0
	cmpb	$43, %dl
	jne	.L285
.L286:
.LVL505:
.LBB159:
	.loc 1 844 0
	cmpl	-104(%ebp), %eax
	je	.L287
	cmpb	$47, 1(%eax)
	je	.L287
	.loc 1 845 0
	incl	%eax
.LVL506:
	jmp	.L286
.LVL507:
.L285:
.LBE159:
	.loc 1 848 0
	cmpb	$35, %dl
	cmove	-104(%ebp), %eax
.LVL508:
.L287:
	.loc 1 850 0
	incl	%ebx
.LVL509:
	.loc 1 851 0
	incl	%eax
.LVL510:
	jmp	.L281
.L289:
.LVL511:
.LBE158:
.LBE157:
	.loc 1 876 0
	cmpl	%eax, -92(%ebp)
	jne	.L279
.LVL512:
.L280:
.LBB160:
	.loc 1 877 0
	pushl	$.LC84
	pushl	$5
	pushl	$877
	pushl	$__FUNCTION__.5524
	call	LITE_syslog
.LVL513:
	.loc 1 880 0
	popl	%eax
	.loc 1 879 0
	movl	4(%edi), %ebx
.LVL514:
	movl	8(%edi), %edx
	.loc 1 880 0
	pushl	(%esi)
	.loc 1 879 0
	movl	%edx, -92(%ebp)
.LVL515:
	.loc 1 880 0
	call	HAL_MutexUnlock
.LVL516:
	.loc 1 882 0
	addl	$16, %esp
	testl	%ebx, %ebx
	je	.L291
.LBB161:
	.loc 1 885 0
	leal	-48(%ebp), %eax
.LVL517:
	.loc 1 887 0
	movl	-92(%ebp), %edx
	.loc 1 884 0
	movl	$12, -68(%ebp)
	.loc 1 885 0
	movl	%eax, -64(%ebp)
.LVL518:
	.loc 1 887 0
	pushl	%eax
	leal	-68(%ebp), %eax
	pushl	%eax
	pushl	%esi
	pushl	%edx
	call	*%ebx
.LVL519:
	addl	$16, %esp
	.loc 1 888 0
	movl	$1, -96(%ebp)
.LVL520:
.L291:
.LBE161:
	.loc 1 891 0
	subl	$12, %esp
	pushl	(%esi)
	call	HAL_MutexLock
.LVL521:
	addl	$16, %esp
.L279:
	addl	$12, %edi
.LBE160:
	.loc 1 872 0
	cmpl	-108(%ebp), %edi
	jne	.L292
	.loc 1 895 0
	subl	$12, %esp
	pushl	(%esi)
	call	HAL_MutexUnlock
.LVL522:
	.loc 1 897 0
	addl	$16, %esp
	cmpl	$0, -96(%ebp)
	jne	.L294
	.loc 1 898 0
	pushl	$.LC85
	pushl	$5
	pushl	$898
	pushl	$__FUNCTION__.5524
	call	LITE_syslog
.LVL523:
	.loc 1 900 0
	movl	524(%esi), %eax
	.loc 1 900 0
	addl	$16, %esp
	testl	%eax, %eax
	je	.L294
.LBB162:
	.loc 1 904 0
	leal	-48(%ebp), %edx
.LVL524:
	.loc 1 906 0
	pushl	%ebx
	.loc 1 903 0
	movl	$12, -68(%ebp)
	.loc 1 904 0
	movl	%edx, -64(%ebp)
	.loc 1 906 0
	leal	-68(%ebp), %edx
.LVL525:
	pushl	%edx
	pushl	%esi
	pushl	528(%esi)
	call	*%eax
.LVL526:
	addl	$16, %esp
.L294:
.LVL527:
.LBE162:
.LBE156:
.LBE155:
	.loc 1 1126 0
	movzbl	-46(%ebp), %eax
	testb	%al, %al
	je	.L403
	.loc 1 1128 0
	cmpb	$1, %al
	jne	.L296
.LBB163:
.LBB164:
	.loc 1 299 0
	leal	-68(%ebp), %ebx
	subl	$12, %esp
.LBE164:
.LBE163:
	.loc 1 1129 0
	movl	-48(%ebp), %edi
.LVL528:
.LBB166:
.LBB165:
	.loc 1 299 0
	pushl	%ebx
	call	iotx_time_init
.LVL529:
	.loc 1 300 0
	popl	%eax
	popl	%edx
	pushl	8(%esi)
	pushl	%ebx
	call	utils_time_countdown_ms
.LVL530:
	.loc 1 302 0
	popl	%ecx
	pushl	520(%esi)
	call	HAL_MutexLock
.LVL531:
	.loc 1 304 0
	movzwl	%di, %eax
.LVL532:
	movl	%eax, (%esp)
	pushl	$0
	pushl	$4
	jmp	.L416
.LVL533:
.L296:
.LBE165:
.LBE166:
	.loc 1 1130 0
	cmpb	$2, %al
	jne	.L300
.LBB167:
.LBB168:
	.loc 1 299 0
	leal	-68(%ebp), %ebx
	subl	$12, %esp
.LBE168:
.LBE167:
	.loc 1 1131 0
	movl	-48(%ebp), %edi
.LVL534:
.LBB170:
.LBB169:
	.loc 1 299 0
	pushl	%ebx
	call	iotx_time_init
.LVL535:
	.loc 1 300 0
	popl	%eax
	popl	%edx
	pushl	8(%esi)
	pushl	%ebx
	call	utils_time_countdown_ms
.LVL536:
	.loc 1 302 0
	popl	%ecx
	pushl	520(%esi)
	call	HAL_MutexLock
.LVL537:
	.loc 1 306 0
	movzwl	%di, %eax
.LVL538:
	movl	%eax, (%esp)
	pushl	$0
	pushl	$5
.LVL539:
.L416:
	pushl	12(%esi)
	pushl	24(%esi)
	call	MQTTSerialize_ack
.LVL540:
	.loc 1 314 0
	addl	$32, %esp
	testl	%eax, %eax
	jg	.L301
	.loc 1 315 0
	subl	$12, %esp
	pushl	520(%esi)
	.loc 1 316 0
	movl	$-19, %ebx
	.loc 1 315 0
	call	HAL_MutexUnlock
.LVL541:
	addl	$16, %esp
	jmp	.L396
.LVL542:
.L301:
	.loc 1 319 0
	subl	$12, %esp
	movl	24(%esi), %edx
	movl	%eax, %ecx
	pushl	%ebx
	movl	%esi, %eax
.LVL543:
	call	iotx_mc_send_packet
.LVL544:
	.loc 1 320 0
	addl	$16, %esp
	testl	%eax, %eax
	je	.L303
	.loc 1 321 0
	subl	$12, %esp
	pushl	520(%esi)
	.loc 1 322 0
	movl	$-14, %ebx
	.loc 1 321 0
	call	HAL_MutexUnlock
.LVL545:
	addl	$16, %esp
	jmp	.L396
.LVL546:
.L303:
	.loc 1 325 0
	subl	$12, %esp
	pushl	520(%esi)
	jmp	.L413
.LVL547:
.L300:
.LBE169:
.LBE170:
	.loc 1 1133 0
	subl	$12, %esp
	.loc 1 1134 0
	movl	$-20, %ebx
	.loc 1 1133 0
	pushl	%eax
	pushl	$.LC86
	pushl	$2
	pushl	$1133
	pushl	$__FUNCTION__.5577
	call	LITE_syslog
.LVL548:
	addl	$32, %esp
	jmp	.L396
.L342:
	.loc 1 1092 0
	movl	$-21, %ebx
.L396:
.LVL549:
.LBE172:
.LBE174:
	.loc 1 1293 0
	subl	$12, %esp
	pushl	%ebx
	pushl	$.LC87
	pushl	$2
	pushl	$1293
.L402:
	pushl	$__FUNCTION__.5605
	call	LITE_syslog
.LVL550:
	addl	$32, %esp
.LVL551:
.LBE133:
.LBE132:
	.loc 1 2474 0
	testl	%ebx, %ebx
	jne	.L247
	jmp	.L347
.LVL552:
.L260:
.LBB183:
.LBB181:
.LBB175:
.LBB176:
	.loc 1 1150 0
	leal	-68(%ebp), %eax
	pushl	%ebx
	pushl	16(%esi)
	pushl	28(%esi)
	.loc 1 1144 0
	movw	$0, -68(%ebp)
	.loc 1 1150 0
	pushl	%eax
	call	MQTTDeserialize_unsuback
.LVL553:
	addl	$16, %esp
	decl	%eax
	jne	.L345
	.loc 1 1156 0
	movzwl	-68(%ebp), %edx
	leal	-48(%ebp), %ecx
	movl	%esi, %eax
	leal	32(%esi), %ebx
	call	iotx_mc_mask_subInfo_from
.LVL554:
	.loc 1 1159 0
	subl	$12, %esp
	pushl	(%esi)
	call	HAL_MutexLock
.LVL555:
	leal	392(%esi), %eax
	addl	$16, %esp
	movl	%eax, -92(%ebp)
.LVL556:
.L306:
	.loc 1 1161 0
	cmpl	$0, (%ebx)
	je	.L305
	.loc 1 1162 0
	leal	-48(%ebp), %edx
	movl	%ebx, %eax
	call	iotx_mc_check_handle_is_identical
.LVL557:
	testl	%eax, %eax
	jne	.L305
	.loc 1 1163 0
	movl	$3, %ecx
	movl	%ebx, %edi
	rep stosl
.L305:
	addl	$12, %ebx
	.loc 1 1160 0
	cmpl	-92(%ebp), %ebx
	jne	.L306
	.loc 1 1170 0
	movl	524(%esi), %eax
	.loc 1 1170 0
	testl	%eax, %eax
	je	.L307
.LBB177:
	.loc 1 1173 0
	movzwl	-68(%ebp), %edx
	.loc 1 1175 0
	pushl	%ecx
	.loc 1 1172 0
	movl	$6, -60(%ebp)
	.loc 1 1173 0
	movl	%edx, -56(%ebp)
	.loc 1 1175 0
	leal	-60(%ebp), %edx
	pushl	%edx
	pushl	%esi
	pushl	528(%esi)
	call	*%eax
.LVL558:
	addl	$16, %esp
.L307:
.LBE177:
	.loc 1 1178 0
	subl	$12, %esp
	pushl	(%esi)
.LVL559:
.L413:
	call	HAL_MutexUnlock
.LVL560:
	jmp	.L404
.LVL561:
.L345:
.LBE176:
.LBE175:
	.loc 1 1300 0
	subl	$12, %esp
.LBB179:
.LBB178:
	.loc 1 1152 0
	movl	$-15, %ebx
.LVL562:
.LBE178:
.LBE179:
	.loc 1 1300 0
	pushl	$-15
	pushl	$.LC88
	pushl	$2
	pushl	$1300
.LVL563:
.L412:
	pushl	$__FUNCTION__.5605
	call	LITE_syslog
.LVL564:
	addl	$32, %esp
	jmp	.L247
.LVL565:
.L261:
	.loc 1 1306 0
	pushl	$.LC89
	pushl	$4
	pushl	$1306
.LVL566:
.L405:
	pushl	$__FUNCTION__.5605
	call	LITE_syslog
.LVL567:
.L404:
	addl	$16, %esp
.L403:
	.loc 1 1305 0
	xorl	%ebx, %ebx
	jmp	.L347
.LVL568:
.L254:
	.loc 1 1310 0
	pushl	$.LC90
	pushl	$2
	pushl	$1310
	pushl	$__FUNCTION__.5605
	call	LITE_syslog
.LVL569:
	addl	$16, %esp
.LVL570:
.L410:
	.loc 1 1311 0
	orl	$-1, %ebx
	jmp	.L247
.LVL571:
.L347:
.LBE181:
.LBE183:
.LBB184:
.LBB185:
	.loc 1 1923 0
	subl	$12, %esp
	pushl	512(%esi)
	call	HAL_MutexLock
.LVL572:
.LBB186:
	.loc 1 1925 0
	movl	504(%esi), %eax
	addl	$16, %esp
	cmpl	$0, 8(%eax)
	je	.L308
.LVL573:
	.loc 1 1933 0
	pushl	%edx
	pushl	%edx
	xorl	%edi, %edi
	pushl	$1
	pushl	%eax
	call	list_iterator_new
.LVL574:
	addl	$16, %esp
	testl	%eax, %eax
	movl	%eax, -92(%ebp)
.LVL575:
	jne	.L310
	.loc 1 1934 0
	pushl	$.LC91
	pushl	$2
	pushl	$1934
	pushl	$__FUNCTION__.5722
	call	LITE_syslog
.LVL576:
	jmp	.L407
.LVL577:
.L311:
.LBB187:
	.loc 1 1946 0
	testl	%eax, %eax
	je	.L312
	.loc 1 1950 0
	movl	8(%eax), %edi
.LVL578:
	.loc 1 1951 0
	testl	%edi, %edi
	jne	.L313
	.loc 1 1952 0
	pushl	$.LC26
	pushl	$2
	pushl	$1952
	pushl	$__FUNCTION__.5722
	movl	%eax, -96(%ebp)
	call	LITE_syslog
.LVL579:
	movl	-96(%ebp), %eax
	addl	$16, %esp
.LVL580:
.L314:
.LBE187:
	.loc 1 1933 0
	movl	%eax, %edi
.L310:
.LVL581:
.LBB192:
	.loc 1 1939 0
	subl	$12, %esp
	pushl	-92(%ebp)
	call	list_iterator_next
.LVL582:
	.loc 1 1941 0
	addl	$16, %esp
	testl	%edi, %edi
	je	.L311
	movl	%eax, -96(%ebp)
.LVL583:
	.loc 1 1942 0
	pushl	%eax
	pushl	%eax
	pushl	%edi
	pushl	504(%esi)
	call	list_remove
.LVL584:
	addl	$16, %esp
	movl	-96(%ebp), %eax
	jmp	.L311
.LVL585:
.L313:
	.loc 1 1958 0
	cmpl	$1, 4(%edi)
	je	.L314
	.loc 1 1963 0
	movl	%esi, %eax
	call	iotx_mc_get_client_state
.LVL586:
	.loc 1 1964 0
	cmpl	$2, %eax
	je	.L315
.LVL587:
.L316:
.LBE192:
	.loc 1 1933 0
	xorl	%eax, %eax
	jmp	.L314
.LVL588:
.L315:
.LBB193:
	.loc 1 1969 0
	subl	$12, %esp
	pushl	%edi
	call	utils_time_spend
.LVL589:
	movl	8(%esi), %edx
	addl	$16, %esp
	addl	%edx, %edx
	cmpl	%edx, %eax
	jbe	.L316
	.loc 1 1974 0
	subl	$12, %esp
	pushl	512(%esi)
	call	HAL_MutexUnlock
.LVL590:
	.loc 1 1975 0
	movl	12(%edi), %ecx
	movl	16(%edi), %edx
.LBB188:
.LBB189:
	.loc 1 1898 0
	leal	-48(%ebp), %eax
	movl	%eax, (%esp)
.LBE189:
.LBE188:
	.loc 1 1975 0
	movl	%ecx, -100(%ebp)
	movl	%edx, -96(%ebp)
.LVL591:
.LBB191:
.LBB190:
	.loc 1 1898 0
	call	iotx_time_init
.LVL592:
	.loc 1 1899 0
	popl	%eax
	leal	-48(%ebp), %eax
	popl	%edx
	pushl	8(%esi)
	pushl	%eax
	call	utils_time_countdown_ms
.LVL593:
	.loc 1 1901 0
	popl	%ecx
	pushl	520(%esi)
	call	HAL_MutexLock
.LVL594:
	.loc 1 1903 0
	leal	-48(%ebp), %eax
	movl	-100(%ebp), %ecx
	movl	-96(%ebp), %edx
	movl	%eax, (%esp)
	movl	%esi, %eax
	call	iotx_mc_send_packet
.LVL595:
	addl	$16, %esp
	testl	%eax, %eax
	je	.L317
	.loc 1 1904 0
	subl	$12, %esp
	pushl	520(%esi)
	call	HAL_MutexUnlock
.LVL596:
	addl	$16, %esp
	.loc 1 1905 0
	movl	$-14, %eax
	jmp	.L318
.L317:
	.loc 1 1908 0
	subl	$12, %esp
	pushl	520(%esi)
	movl	%eax, -96(%ebp)
.LVL597:
	call	HAL_MutexUnlock
.LVL598:
	movl	-96(%ebp), %eax
	addl	$16, %esp
.L318:
.LBE190:
.LBE191:
	.loc 1 1976 0
	subl	$12, %esp
	movl	%eax, -96(%ebp)
.LVL599:
	pushl	%edi
	call	iotx_time_start
.LVL600:
	.loc 1 1977 0
	popl	%edi
.LVL601:
	pushl	512(%esi)
	call	HAL_MutexLock
.LVL602:
	.loc 1 1979 0
	movl	-96(%ebp), %eax
	addl	$16, %esp
	cmpl	$-14, %eax
	jne	.L316
	.loc 1 1980 0
	movl	$3, %edx
	movl	%esi, %eax
	call	iotx_mc_set_client_state
.LVL603:
.L312:
.LBE193:
	.loc 1 1985 0
	subl	$12, %esp
	pushl	-92(%ebp)
	call	list_iterator_destroy
.LVL604:
.L407:
	addl	$16, %esp
.LVL605:
.L308:
.LBE186:
	.loc 1 1989 0
	subl	$12, %esp
	pushl	512(%esi)
	call	HAL_MutexUnlock
.LVL606:
.LBE185:
.LBE184:
.LBB194:
.LBB195:
	.loc 1 1757 0
	popl	%ecx
	pushl	516(%esi)
	call	HAL_MutexLock
.LVL607:
.LBB196:
	.loc 1 1759 0
	movl	508(%esi), %eax
	addl	$16, %esp
	cmpl	$0, 8(%eax)
	je	.L319
.LVL608:
	.loc 1 1769 0
	pushl	%edx
	pushl	%edx
	pushl	$1
	pushl	%eax
	call	list_iterator_new
.LVL609:
	addl	$16, %esp
	xorl	%edx, %edx
	testl	%eax, %eax
	movl	%eax, -92(%ebp)
.LVL610:
	jne	.L321
	.loc 1 1770 0
	pushl	$.LC91
	pushl	$2
	pushl	$1770
	pushl	$__FUNCTION__.5694
	call	LITE_syslog
.LVL611:
	.loc 1 1771 0
	popl	%edi
	jmp	.L411
.LVL612:
.L324:
.LBB197:
	.loc 1 1795 0
	cmpl	$1, 12(%edx)
	movl	%edx, -96(%ebp)
	jne	.L418
.LVL613:
.L325:
.LBE197:
	.loc 1 1769 0
	movl	%edi, %edx
.L321:
.LBB199:
	.loc 1 1776 0
	subl	$12, %esp
	pushl	-92(%ebp)
	movl	%edx, -96(%ebp)
.LVL614:
	call	list_iterator_next
.LVL615:
	.loc 1 1778 0
	movl	-96(%ebp), %edx
	addl	$16, %esp
	.loc 1 1776 0
	movl	%eax, %edi
.LVL616:
	.loc 1 1778 0
	testl	%edx, %edx
	je	.L322
	.loc 1 1779 0
	pushl	%ecx
	pushl	%ecx
	pushl	%edx
	pushl	508(%esi)
	call	list_remove
.LVL617:
	addl	$16, %esp
.LVL618:
.L322:
	.loc 1 1783 0
	testl	%edi, %edi
	je	.L323
	.loc 1 1787 0
	movl	8(%edi), %edx
.LVL619:
	.loc 1 1788 0
	testl	%edx, %edx
	jne	.L324
	.loc 1 1789 0
	pushl	$.LC26
	pushl	$2
	pushl	$1789
	pushl	$__FUNCTION__.5694
	call	LITE_syslog
.LVL620:
	jmp	.L408
.LVL621:
.L418:
	.loc 1 1800 0
	movl	%esi, %eax
	call	iotx_mc_get_client_state
.LVL622:
	cmpl	$2, %eax
	movl	-96(%ebp), %edx
	je	.L326
.LVL623:
.L327:
.LBE199:
	.loc 1 1769 0
	xorl	%edi, %edi
.LVL624:
	jmp	.L325
.LVL625:
.L326:
.LBB200:
	.loc 1 1805 0
	leal	8(%edx), %eax
	subl	$12, %esp
	movl	%edx, -96(%ebp)
.LVL626:
	pushl	%eax
	call	utils_time_spend
.LVL627:
	movl	8(%esi), %ecx
	addl	$16, %esp
	addl	%ecx, %ecx
	cmpl	%ecx, %eax
	jbe	.L327
	.loc 1 1811 0
	movl	-96(%ebp), %edx
	movzwl	4(%edx), %eax
.LVL628:
	.loc 1 1812 0
	movl	(%edx), %ecx
.LVL629:
	.loc 1 1815 0
	movl	524(%esi), %edx
	.loc 1 1815 0
	testl	%edx, %edx
	je	.L325
.LBB198:
	.loc 1 1818 0
	cmpl	$8, %ecx
	jne	.L328
	.loc 1 1820 0
	movl	$4, -48(%ebp)
	jmp	.L409
.L328:
	.loc 1 1824 0
	movl	$7, -48(%ebp)
.L409:
	.loc 1 1825 0
	movl	%eax, -44(%ebp)
.LVL630:
	.loc 1 1828 0
	pushl	%eax
	leal	-48(%ebp), %eax
	pushl	%eax
	pushl	%esi
	pushl	528(%esi)
	call	*%edx
.LVL631:
.L408:
	addl	$16, %esp
	jmp	.L325
.LVL632:
.L323:
.LBE198:
.LBE200:
	.loc 1 1834 0
	subl	$12, %esp
	pushl	-92(%ebp)
	call	list_iterator_destroy
.LVL633:
	addl	$16, %esp
.LVL634:
.L319:
.LBE196:
	.loc 1 1838 0
	subl	$12, %esp
.L411:
	pushl	516(%esi)
	call	HAL_MutexUnlock
.LVL635:
	addl	$16, %esp
.LVL636:
.L247:
.LBE195:
.LBE194:
	.loc 1 2485 0
	movl	-28(%ebp), %edi
	xorl	%gs:20, %edi
	movl	%ebx, %eax
	je	.L332
	call	__stack_chk_fail
.LVL637:
.L417:
.LBB201:
.LBB182:
.LBB180:
.LBB152:
	.loc 1 1042 0
	cmpl	$-1, %ebx
	jne	.L398
	.loc 1 1043 0
	pushl	$.LC80
	pushl	$2
	.loc 1 1045 0
	orl	$-1, %ebx
.LVL638:
	.loc 1 1043 0
	pushl	$1043
	pushl	$__FUNCTION__.5562
	call	LITE_syslog
.LVL639:
	.loc 1 1044 0
	popl	%ecx
	pushl	(%esi)
	call	HAL_MutexUnlock
.LVL640:
	addl	$16, %esp
	jmp	.L394
.LVL641:
.L332:
.LBE152:
.LBE180:
.LBE182:
.LBE201:
	.loc 1 2485 0
	leal	-12(%ebp), %esp
	popl	%ebx
	.cfi_restore 3
	popl	%esi
	.cfi_restore 6
.LVL642:
	popl	%edi
	.cfi_restore 7
	popl	%ebp
	.cfi_restore 5
	.cfi_def_cfa 4, 4
	ret
	.cfi_endproc
.LFE88:
	.size	IOT_MQTT_Yield, .-IOT_MQTT_Yield
	.section	.text.unlikely.IOT_MQTT_Yield
.LCOLDE92:
	.section	.text.IOT_MQTT_Yield
.LHOTE92:
	.section	.text.unlikely.cb_recv,"ax",@progbits
.LCOLDB93:
	.section	.text.cb_recv,"ax",@progbits
.LHOTB93:
	.type	cb_recv, @function
cb_recv:
.LFB76:
	.loc 1 2009 0
	.cfi_startproc
.LVL643:
	pushl	%ebp
	.cfi_def_cfa_offset 8
	.cfi_offset 5, -8
	movl	%esp, %ebp
	.cfi_def_cfa_register 5
	pushl	%ebx
	subl	$12, %esp
	.cfi_offset 3, -12
	.loc 1 2009 0
	movl	12(%ebp), %ebx
.LVL644:
	.loc 1 2012 0
	pushl	$0
	pushl	%ebx
	call	IOT_MQTT_Yield
.LVL645:
	.loc 1 2013 0
	addl	$16, %esp
	testl	%eax, %eax
	je	.L420
.LVL646:
.LBB204:
.LBB205:
	.loc 1 2015 0
	call	get_iotx_fd
.LVL647:
	pushl	%edx
	pushl	%ebx
	pushl	$cb_recv
	pushl	%eax
	call	aos_cancel_poll_read_fd
.LVL648:
	jmp	.L423
.LVL649:
.L420:
.LVL650:
.LBE205:
.LBE204:
	.loc 1 2020 0
	pushl	%eax
	pushl	%ebx
	pushl	$cb_recv_timeout
	movzwl	440(%ebx), %eax
	imull	$1000, %eax, %eax
	pushl	%eax
	call	aos_cancel_delayed_action
.LVL651:
	.loc 1 2021 0
	addl	$12, %esp
	pushl	%ebx
	pushl	$cb_recv_timeout
	movzwl	440(%ebx), %eax
	imull	$1000, %eax, %eax
	pushl	%eax
	call	aos_post_delayed_action
.LVL652:
.L423:
	addl	$16, %esp
	.loc 1 2022 0
	movl	-4(%ebp), %ebx
.LVL653:
	leave
	.cfi_restore 5
	.cfi_restore 3
	.cfi_def_cfa 4, 4
	ret
	.cfi_endproc
.LFE76:
	.size	cb_recv, .-cb_recv
	.section	.text.unlikely.cb_recv
.LCOLDE93:
	.section	.text.cb_recv
.LHOTE93:
	.section	.text.unlikely.IOT_MQTT_CheckStateNormal,"ax",@progbits
.LCOLDB94:
	.section	.text.IOT_MQTT_CheckStateNormal,"ax",@progbits
.LHOTB94:
	.globl	IOT_MQTT_CheckStateNormal
	.type	IOT_MQTT_CheckStateNormal, @function
IOT_MQTT_CheckStateNormal:
.LFB89:
	.loc 1 2489 0
	.cfi_startproc
.LVL654:
	pushl	%ebp
	.cfi_def_cfa_offset 8
	.cfi_offset 5, -8
	movl	%esp, %ebp
	.cfi_def_cfa_register 5
	subl	$8, %esp
	.loc 1 2489 0
	movl	8(%ebp), %eax
	.loc 1 2490 0
	testl	%eax, %eax
	je	.L428
	.loc 1 2492 0
	leave
	.cfi_remember_state
	.cfi_restore 5
	.cfi_def_cfa 4, 4
	.loc 1 2491 0
	jmp	iotx_mc_check_state_normal
.LVL655:
.L428:
	.cfi_restore_state
	.loc 1 2490 0 discriminator 1
	pushl	%eax
	pushl	%eax
	pushl	$0
	pushl	$.LC70
	pushl	$.LC66
	pushl	$2
	pushl	$2490
	pushl	$__FUNCTION__.5816
	call	LITE_syslog
.LVL656:
	addl	$32, %esp
	.loc 1 2492 0 discriminator 1
	movl	$-2, %eax
	leave
	.cfi_restore 5
	.cfi_def_cfa 4, 4
	ret
	.cfi_endproc
.LFE89:
	.size	IOT_MQTT_CheckStateNormal, .-IOT_MQTT_CheckStateNormal
	.section	.text.unlikely.IOT_MQTT_CheckStateNormal
.LCOLDE94:
	.section	.text.IOT_MQTT_CheckStateNormal
.LHOTE94:
	.section	.rodata.str1.1
.LC95:
	.string	"topic_handle_func"
.LC96:
	.string	"topic_filter"
.LC97:
	.string	"Invalid argument, %s = '%s'"
.LC98:
	.string	"Invalid qos(%d) out of [%d, %d], using %d"
.LC99:
	.string	"mqtt client state is error,state = %d"
.LC100:
	.string	"topic format is error,topicFilter = %s"
.LC101:
	.string	"run sendPacket error!"
.LC102:
	.string	"run MQTTSubscribe error"
.LC103:
	.string	"mqtt subscribe success,topic = %s!"
	.section	.text.unlikely.IOT_MQTT_Subscribe,"ax",@progbits
.LCOLDB104:
	.section	.text.IOT_MQTT_Subscribe,"ax",@progbits
.LHOTB104:
	.globl	IOT_MQTT_Subscribe
	.type	IOT_MQTT_Subscribe, @function
IOT_MQTT_Subscribe:
.LFB90:
	.loc 1 2499 0
	.cfi_startproc
.LVL657:
	pushl	%ebp
	.cfi_def_cfa_offset 8
	.cfi_offset 5, -8
	movl	%esp, %ebp
	.cfi_def_cfa_register 5
	pushl	%edi
	pushl	%esi
	pushl	%ebx
	subl	$76, %esp
	.cfi_offset 7, -12
	.cfi_offset 6, -16
	.cfi_offset 3, -20
	.loc 1 2499 0
	movl	12(%ebp), %eax
	movl	8(%ebp), %ebx
	movl	20(%ebp), %edi
	movl	%eax, -76(%ebp)
	movl	24(%ebp), %eax
	movl	%eax, -80(%ebp)
	movl	%gs:20, %eax
	movl	%eax, -28(%ebp)
	xorl	%eax, %eax
	.loc 1 2500 0
	testl	%ebx, %ebx
	jne	.L431
	.loc 1 2500 0 discriminator 1
	pushl	%eax
	pushl	%eax
	pushl	$0
	pushl	$.LC70
	pushl	$.LC66
	pushl	$2
	pushl	$2500
	jmp	.L447
.L431:
	.loc 1 2501 0
	testl	%edi, %edi
	jne	.L433
	.loc 1 2501 0 discriminator 1
	pushl	%edi
	pushl	%edi
	pushl	$0
	pushl	$.LC95
	pushl	$.LC66
	pushl	$2
	pushl	$2501
.L447:
	pushl	$__FUNCTION__.5824
	movl	$-2, %esi
	call	LITE_syslog
.LVL658:
	addl	$32, %esp
	jmp	.L432
.L433:
	.loc 1 2502 0
	cmpl	$0, -76(%ebp)
	jne	.L434
	.loc 1 2502 0 discriminator 1
	pushl	%esi
	pushl	%esi
	pushl	$0
	pushl	$.LC96
	pushl	$.LC66
	jmp	.L448
.L434:
	.loc 1 2502 0 is_stmt 0 discriminator 2
	movl	-76(%ebp), %eax
	cmpb	$0, (%eax)
	jne	.L435
	.loc 1 2502 0 discriminator 3
	pushl	%ebx
	pushl	%ebx
	pushl	%eax
	pushl	$.LC96
	pushl	$.LC97
.L448:
	pushl	$2
	pushl	$2502
	jmp	.L447
.L435:
	.loc 1 2504 0 is_stmt 1
	cmpl	$2, 16(%ebp)
	jbe	.L436
	.loc 1 2505 0
	pushl	$0
	pushl	$2
	pushl	$0
	pushl	16(%ebp)
	pushl	$.LC98
	pushl	$3
	pushl	$2507
	pushl	$__FUNCTION__.5824
	call	LITE_syslog
.LVL659:
	addl	$32, %esp
	.loc 1 2508 0
	movl	$0, 16(%ebp)
.LVL660:
.L436:
.LBB210:
.LBB211:
	.loc 1 1378 0
	movl	%ebx, %eax
	call	iotx_mc_check_state_normal
.LVL661:
	testl	%eax, %eax
	jne	.L437
	.loc 1 1379 0
	movl	%ebx, %eax
	.loc 1 1380 0
	movl	$-27, %esi
	.loc 1 1379 0
	call	iotx_mc_get_client_state
.LVL662:
	subl	$12, %esp
	pushl	%eax
	pushl	$.LC99
	pushl	$2
	pushl	$1379
	pushl	$__FUNCTION__.5630
	call	LITE_syslog
.LVL663:
	addl	$32, %esp
	jmp	.L432
.L437:
	.loc 1 1383 0
	movl	-76(%ebp), %eax
	movl	$1, %edx
	call	iotx_mc_check_topic
.LVL664:
	testl	%eax, %eax
	je	.L438
	.loc 1 1384 0
	subl	$12, %esp
	pushl	-76(%ebp)
	.loc 1 1385 0
	movl	$-41, %esi
	.loc 1 1384 0
	pushl	$.LC100
	pushl	$2
	pushl	$1384
	pushl	$__FUNCTION__.5630
	call	LITE_syslog
.LVL665:
	addl	$32, %esp
	jmp	.L432
.L438:
	.loc 1 1388 0
	movl	%ebx, %eax
	call	iotx_mc_get_next_packetid
.LVL666:
	movl	%eax, %esi
.LVL667:
	movl	16(%ebp), %eax
.LVL668:
.LBB212:
.LBB213:
	.loc 1 337 0
	movl	%edi, -36(%ebp)
	.loc 1 346 0
	leal	-60(%ebp), %edi
.LVL669:
	subl	$12, %esp
	.loc 1 336 0
	movl	$0, -48(%ebp)
	movl	$0, -44(%ebp)
	.loc 1 339 0
	movl	$0, -56(%ebp)
	movl	%eax, -64(%ebp)
.LVL670:
	.loc 1 337 0
	movl	-76(%ebp), %eax
.LVL671:
	.loc 1 346 0
	pushl	%edi
	.loc 1 337 0
	movl	%eax, -40(%ebp)
	movl	-80(%ebp), %eax
	movl	%eax, -32(%ebp)
	.loc 1 345 0
	movl	-76(%ebp), %eax
	movl	%eax, -52(%ebp)
	.loc 1 346 0
	call	iotx_time_init
.LVL672:
	.loc 1 347 0
	popl	%eax
	popl	%edx
	pushl	8(%ebx)
	pushl	%edi
	call	utils_time_countdown_ms
.LVL673:
	.loc 1 349 0
	popl	%ecx
	pushl	520(%ebx)
	call	HAL_MutexLock
.LVL674:
	.loc 1 351 0
	leal	-64(%ebp), %eax
	addl	$12, %esp
	movzwl	%si, %ecx
	movl	%ecx, -84(%ebp)
	pushl	%eax
	leal	-52(%ebp), %eax
	pushl	%eax
	pushl	$1
	pushl	%ecx
	pushl	$0
	pushl	12(%ebx)
	pushl	24(%ebx)
	call	MQTTSerialize_subscribe
.LVL675:
	.loc 1 353 0
	addl	$32, %esp
	testl	%eax, %eax
	.loc 1 351 0
	movl	%eax, -80(%ebp)
.LVL676:
	.loc 1 353 0
	movl	-84(%ebp), %ecx
	jg	.L439
	.loc 1 354 0
	subl	$12, %esp
	pushl	520(%ebx)
	.loc 1 355 0
	movl	$-26, %edi
	.loc 1 354 0
	call	HAL_MutexUnlock
.LVL677:
	addl	$16, %esp
	jmp	.L444
.LVL678:
.L439:
.LVL679:
	.loc 1 366 0
	pushl	%eax
	leal	-56(%ebp), %eax
	movl	-80(%ebp), %edx
	pushl	%eax
	leal	-40(%ebp), %eax
	pushl	%eax
	pushl	$8
	movl	%ebx, %eax
	call	iotx_mc_push_subInfo_to
.LVL680:
	addl	$16, %esp
	testl	%eax, %eax
	je	.L441
	.loc 1 367 0
	pushl	$.LC63
	pushl	$2
	.loc 1 369 0
	movl	$-42, %edi
	.loc 1 367 0
	pushl	$367
	pushl	$__FUNCTION__.5398
	call	LITE_syslog
.LVL681:
	.loc 1 368 0
	popl	%eax
	pushl	520(%ebx)
	call	HAL_MutexUnlock
.LVL682:
	addl	$16, %esp
	jmp	.L444
.L441:
	.loc 1 372 0
	subl	$12, %esp
	movl	24(%ebx), %edx
	movl	-80(%ebp), %ecx
	pushl	%edi
	movl	%ebx, %eax
	call	iotx_mc_send_packet
.LVL683:
	addl	$16, %esp
	testl	%eax, %eax
	je	.L442
	.loc 1 374 0
	subl	$12, %esp
	pushl	516(%ebx)
	call	HAL_MutexLock
.LVL684:
	.loc 1 375 0
	popl	%edx
	popl	%ecx
	pushl	-56(%ebp)
	pushl	508(%ebx)
	call	list_remove
.LVL685:
	.loc 1 376 0
	popl	%esi
.LVL686:
	pushl	516(%ebx)
	call	HAL_MutexUnlock
.LVL687:
	.loc 1 377 0
	popl	%edi
	pushl	520(%ebx)
	.loc 1 379 0
	movl	$-14, %edi
	.loc 1 377 0
	call	HAL_MutexUnlock
.LVL688:
	.loc 1 378 0
	pushl	$.LC101
	pushl	$2
	pushl	$378
	pushl	$__FUNCTION__.5398
	call	LITE_syslog
.LVL689:
	addl	$32, %esp
.LBE213:
.LBE212:
	.loc 1 1392 0
	movl	$3, %edx
	movl	%ebx, %eax
	call	iotx_mc_set_client_state
.LVL690:
	jmp	.L444
.LVL691:
.L442:
.LBB215:
.LBB214:
	.loc 1 382 0
	subl	$12, %esp
	pushl	520(%ebx)
	call	HAL_MutexUnlock
.LVL692:
	popl	%eax
.LVL693:
.LBE214:
.LBE215:
	.loc 1 1399 0
	pushl	-76(%ebp)
	pushl	$.LC103
	pushl	$4
	pushl	$1399
	pushl	$__FUNCTION__.5630
	call	LITE_syslog
.LVL694:
	addl	$32, %esp
	jmp	.L432
.LVL695:
.L444:
	.loc 1 1395 0
	pushl	$.LC102
	pushl	$2
	movl	%edi, %esi
	pushl	$1395
	pushl	$__FUNCTION__.5630
	call	LITE_syslog
.LVL696:
	addl	$16, %esp
.LVL697:
.L432:
.LBE211:
.LBE210:
	.loc 1 2512 0
	movl	-28(%ebp), %edx
	xorl	%gs:20, %edx
	movl	%esi, %eax
	je	.L445
	call	__stack_chk_fail
.LVL698:
.L445:
	leal	-12(%ebp), %esp
	popl	%ebx
	.cfi_restore 3
	popl	%esi
	.cfi_restore 6
	popl	%edi
	.cfi_restore 7
	popl	%ebp
	.cfi_restore 5
	.cfi_def_cfa 4, 4
	ret
	.cfi_endproc
.LFE90:
	.size	IOT_MQTT_Subscribe, .-IOT_MQTT_Subscribe
	.section	.text.unlikely.IOT_MQTT_Subscribe
.LCOLDE104:
	.section	.text.IOT_MQTT_Subscribe
.LHOTE104:
	.section	.rodata.str1.1
.LC105:
	.string	"run MQTTUnsubscribe error!"
.LC106:
	.string	"mqtt unsubscribe success,topic = %s!"
	.section	.text.unlikely.IOT_MQTT_Unsubscribe,"ax",@progbits
.LCOLDB107:
	.section	.text.IOT_MQTT_Unsubscribe,"ax",@progbits
.LHOTB107:
	.globl	IOT_MQTT_Unsubscribe
	.type	IOT_MQTT_Unsubscribe, @function
IOT_MQTT_Unsubscribe:
.LFB91:
	.loc 1 2515 0
	.cfi_startproc
.LVL699:
	pushl	%ebp
	.cfi_def_cfa_offset 8
	.cfi_offset 5, -8
	movl	%esp, %ebp
	.cfi_def_cfa_register 5
	pushl	%edi
	pushl	%esi
	pushl	%ebx
	subl	$76, %esp
	.cfi_offset 7, -12
	.cfi_offset 6, -16
	.cfi_offset 3, -20
	.loc 1 2515 0
	movl	8(%ebp), %ebx
	movl	12(%ebp), %edi
	movl	%gs:20, %eax
	movl	%eax, -28(%ebp)
	xorl	%eax, %eax
	.loc 1 2516 0
	testl	%ebx, %ebx
	jne	.L450
	.loc 1 2516 0 discriminator 1
	pushl	%esi
	pushl	%esi
	pushl	$0
	pushl	$.LC70
	pushl	$.LC66
	pushl	$2
	pushl	$2516
	jmp	.L464
.L450:
	.loc 1 2517 0
	testl	%edi, %edi
	jne	.L452
	.loc 1 2517 0 discriminator 1
	pushl	%ebx
	pushl	%ebx
	pushl	$0
	pushl	$.LC96
	pushl	$.LC66
.L465:
	pushl	$2
	pushl	$2517
.L464:
	pushl	$__FUNCTION__.5829
	movl	$-2, %esi
	call	LITE_syslog
.LVL700:
	addl	$32, %esp
	jmp	.L451
.L452:
	.loc 1 2517 0 is_stmt 0 discriminator 2
	cmpb	$0, (%edi)
	jne	.L453
	.loc 1 2517 0 discriminator 3
	pushl	%ecx
	pushl	%ecx
	pushl	%edi
	pushl	$.LC96
	pushl	$.LC97
	jmp	.L465
.L453:
.LVL701:
.LBB220:
.LBB221:
	.loc 1 1408 0 is_stmt 1
	movl	%ebx, %eax
	call	iotx_mc_get_next_packetid
.LVL702:
	.loc 1 1414 0
	movl	$1, %edx
	.loc 1 1408 0
	movl	%eax, %esi
.LVL703:
	.loc 1 1414 0
	movl	%edi, %eax
.LVL704:
	call	iotx_mc_check_topic
.LVL705:
	testl	%eax, %eax
	je	.L454
	.loc 1 1415 0
	subl	$12, %esp
	.loc 1 1416 0
	movl	$-41, %esi
.LVL706:
	.loc 1 1415 0
	pushl	%edi
	pushl	$.LC100
	pushl	$2
	pushl	$1415
	pushl	$__FUNCTION__.5638
	call	LITE_syslog
.LVL707:
	addl	$32, %esp
	jmp	.L451
.LVL708:
.L454:
	.loc 1 1419 0
	movl	%ebx, %eax
	call	iotx_mc_check_state_normal
.LVL709:
	testl	%eax, %eax
	jne	.L455
	.loc 1 1420 0
	movl	%ebx, %eax
	.loc 1 1421 0
	movl	$-27, %esi
.LVL710:
	.loc 1 1420 0
	call	iotx_mc_get_client_state
.LVL711:
	subl	$12, %esp
	pushl	%eax
	pushl	$.LC99
	pushl	$2
	pushl	$1420
	pushl	$__FUNCTION__.5638
	call	LITE_syslog
.LVL712:
	addl	$32, %esp
	jmp	.L451
.LVL713:
.L455:
.LBB222:
.LBB223:
	.loc 1 403 0
	leal	-60(%ebp), %eax
	subl	$12, %esp
	.loc 1 391 0
	movl	$0, -48(%ebp)
	movl	$0, -44(%ebp)
.LVL714:
	.loc 1 393 0
	movl	%edi, -40(%ebp)
	.loc 1 403 0
	pushl	%eax
	.loc 1 393 0
	movl	$0, -36(%ebp)
	movl	$0, -32(%ebp)
	.loc 1 396 0
	movl	$0, -56(%ebp)
	.loc 1 402 0
	movl	%edi, -52(%ebp)
	.loc 1 403 0
	call	iotx_time_init
.LVL715:
	.loc 1 404 0
	popl	%eax
	leal	-60(%ebp), %eax
	popl	%edx
	pushl	8(%ebx)
	pushl	%eax
	call	utils_time_countdown_ms
.LVL716:
	.loc 1 406 0
	popl	%ecx
	pushl	520(%ebx)
	call	HAL_MutexLock
.LVL717:
	.loc 1 408 0
	popl	%eax
	leal	-52(%ebp), %eax
	movzwl	%si, %ecx
	popl	%edx
	pushl	%eax
	pushl	$1
	pushl	%ecx
	pushl	$0
	pushl	12(%ebx)
	pushl	24(%ebx)
	movl	%ecx, -80(%ebp)
	call	MQTTSerialize_unsubscribe
.LVL718:
	addl	$32, %esp
	testl	%eax, %eax
	movl	%eax, -76(%ebp)
.LVL719:
	movl	-80(%ebp), %ecx
	jg	.L456
	.loc 1 410 0
	subl	$12, %esp
	pushl	520(%ebx)
	call	HAL_MutexUnlock
.LVL720:
	addl	$16, %esp
	.loc 1 411 0
	movl	$-22, %ecx
	jmp	.L461
.LVL721:
.L456:
.LVL722:
	.loc 1 414 0
	pushl	%eax
	leal	-56(%ebp), %eax
	movl	-76(%ebp), %edx
	pushl	%eax
	leal	-40(%ebp), %eax
	pushl	%eax
	pushl	$10
	movl	%ebx, %eax
	call	iotx_mc_push_subInfo_to
.LVL723:
	addl	$16, %esp
	testl	%eax, %eax
	je	.L458
	.loc 1 415 0
	pushl	$.LC63
	pushl	$2
	pushl	$415
	pushl	$__FUNCTION__.5409
	call	LITE_syslog
.LVL724:
	.loc 1 416 0
	popl	%edi
.LVL725:
	pushl	520(%ebx)
	call	HAL_MutexUnlock
.LVL726:
	addl	$16, %esp
	.loc 1 417 0
	movl	$-42, %ecx
	jmp	.L461
.LVL727:
.L458:
	.loc 1 420 0
	leal	-60(%ebp), %eax
	subl	$12, %esp
	movl	24(%ebx), %edx
	movl	-76(%ebp), %ecx
	pushl	%eax
	movl	%ebx, %eax
	call	iotx_mc_send_packet
.LVL728:
	addl	$16, %esp
	testl	%eax, %eax
	je	.L459
	.loc 1 422 0
	subl	$12, %esp
	pushl	516(%ebx)
	call	HAL_MutexLock
.LVL729:
	.loc 1 423 0
	popl	%eax
	popl	%edx
	pushl	-56(%ebp)
	pushl	508(%ebx)
	call	list_remove
.LVL730:
	.loc 1 424 0
	popl	%ecx
	pushl	516(%ebx)
	call	HAL_MutexUnlock
.LVL731:
	.loc 1 425 0
	popl	%esi
.LVL732:
	pushl	520(%ebx)
	call	HAL_MutexUnlock
.LVL733:
	.loc 1 426 0
	movl	$-14, %ecx
	.loc 1 425 0
	addl	$16, %esp
.LBE223:
.LBE222:
	.loc 1 1427 0
	movl	$3, %edx
	movl	%ebx, %eax
.LBB226:
.LBB224:
	.loc 1 426 0
	movl	%ecx, -76(%ebp)
.LVL734:
.LBE224:
.LBE226:
	.loc 1 1427 0
	call	iotx_mc_set_client_state
.LVL735:
	movl	-76(%ebp), %ecx
	jmp	.L461
.LVL736:
.L459:
.LBB227:
.LBB225:
	.loc 1 429 0
	subl	$12, %esp
	pushl	520(%ebx)
	call	HAL_MutexUnlock
.LVL737:
.LBE225:
.LBE227:
	.loc 1 1434 0
	movl	%edi, (%esp)
	pushl	$.LC106
	pushl	$4
	pushl	$1434
	pushl	$__FUNCTION__.5638
	call	LITE_syslog
.LVL738:
	addl	$32, %esp
	jmp	.L451
.LVL739:
.L461:
	.loc 1 1430 0
	pushl	$.LC105
	pushl	$2
	pushl	$1430
	pushl	$__FUNCTION__.5638
	movl	%ecx, -76(%ebp)
	call	LITE_syslog
.LVL740:
	movl	-76(%ebp), %ecx
	addl	$16, %esp
	movl	%ecx, %esi
.LVL741:
.L451:
.LBE221:
.LBE220:
	.loc 1 2520 0
	movl	-28(%ebp), %edx
	xorl	%gs:20, %edx
	movl	%esi, %eax
	je	.L462
	call	__stack_chk_fail
.LVL742:
.L462:
	leal	-12(%ebp), %esp
	popl	%ebx
	.cfi_restore 3
	popl	%esi
	.cfi_restore 6
	popl	%edi
	.cfi_restore 7
	popl	%ebp
	.cfi_restore 5
	.cfi_def_cfa 4, 4
	ret
	.cfi_endproc
.LFE91:
	.size	IOT_MQTT_Unsubscribe, .-IOT_MQTT_Unsubscribe
	.section	.text.unlikely.IOT_MQTT_Unsubscribe
.LCOLDE107:
	.section	.text.IOT_MQTT_Unsubscribe
.LHOTE107:
	.section	.rodata.str1.1
.LC108:
	.string	"topic_name"
.LC109:
	.string	"MQTTPublish return error,MQTT_QOS2 is now not supported."
.LC110:
	.string	"MQTTPublish is error, rc = %d"
	.section	.text.unlikely.IOT_MQTT_Publish,"ax",@progbits
.LCOLDB111:
	.section	.text.IOT_MQTT_Publish,"ax",@progbits
.LHOTB111:
	.globl	IOT_MQTT_Publish
	.type	IOT_MQTT_Publish, @function
IOT_MQTT_Publish:
.LFB92:
	.loc 1 2523 0
	.cfi_startproc
.LVL743:
	pushl	%ebp
	.cfi_def_cfa_offset 8
	.cfi_offset 5, -8
	movl	%esp, %ebp
	.cfi_def_cfa_register 5
	pushl	%edi
	pushl	%esi
	pushl	%ebx
	subl	$28, %esp
	.cfi_offset 7, -12
	.cfi_offset 6, -16
	.cfi_offset 3, -20
	.loc 1 2523 0
	movl	8(%ebp), %ebx
	movl	12(%ebp), %esi
	movl	16(%ebp), %edi
	.loc 1 2524 0
	testl	%ebx, %ebx
	jne	.L467
.LVL744:
.LVL745:
.LBB232:
.LBB233:
	.loc 1 2524 0
	pushl	%esi
	pushl	%esi
	pushl	$0
	pushl	$.LC70
	pushl	$.LC66
	pushl	$2
	pushl	$2524
	jmp	.L484
.LVL746:
.L467:
.LBE233:
.LBE232:
	.loc 1 2525 0
	testl	%esi, %esi
	jne	.L469
	.loc 1 2525 0 discriminator 1
	pushl	%ebx
	pushl	%ebx
	pushl	$0
	pushl	$.LC108
	pushl	$.LC66
.L485:
	pushl	$2
	pushl	$2525
.L484:
	pushl	$__FUNCTION__.5835
	call	LITE_syslog
.LVL747:
	addl	$32, %esp
	movl	$-2, %eax
	jmp	.L468
.L469:
	.loc 1 2525 0 is_stmt 0 discriminator 2
	cmpb	$0, (%esi)
	jne	.L470
	.loc 1 2525 0 discriminator 3
	pushl	%ecx
	pushl	%ecx
	pushl	%esi
	pushl	$.LC108
	pushl	$.LC97
	jmp	.L485
.L470:
.LVL748:
.LBB234:
.LBB235:
	.loc 1 1444 0 is_stmt 1
	testl	%edi, %edi
	.loc 1 1445 0
	movl	$-2, %eax
	.loc 1 1444 0
	je	.L468
	.loc 1 1448 0
	xorl	%edx, %edx
	movl	%esi, %eax
	call	iotx_mc_check_topic
.LVL749:
	testl	%eax, %eax
	je	.L471
	.loc 1 1449 0
	subl	$12, %esp
	pushl	%esi
	pushl	$.LC100
	pushl	$2
	pushl	$1449
	pushl	$__FUNCTION__.5646
	call	LITE_syslog
.LVL750:
	addl	$32, %esp
	.loc 1 1450 0
	movl	$-41, %eax
	jmp	.L468
.L471:
	.loc 1 1453 0
	movl	%ebx, %eax
	call	iotx_mc_check_state_normal
.LVL751:
	testl	%eax, %eax
	jne	.L472
	.loc 1 1454 0
	movl	%ebx, %eax
	call	iotx_mc_get_client_state
.LVL752:
	subl	$12, %esp
	pushl	%eax
	pushl	$.LC99
	pushl	$2
	pushl	$1454
	pushl	$__FUNCTION__.5646
	call	LITE_syslog
.LVL753:
	addl	$32, %esp
	.loc 1 1455 0
	movl	$-27, %eax
	jmp	.L468
.L472:
	.loc 1 1458 0
	movb	2(%edi), %al
	.loc 1 1441 0
	movw	$0, -26(%ebp)
	.loc 1 1458 0
	decl	%eax
	cmpb	$1, %al
	ja	.L473
	.loc 1 1459 0
	movl	%ebx, %eax
	call	iotx_mc_get_next_packetid
.LVL754:
	movw	%ax, -26(%ebp)
.LVL755:
	.loc 1 1460 0
	movw	%ax, (%edi)
.LVL756:
.L473:
	.loc 1 1463 0
	cmpb	$2, 2(%edi)
	jne	.L474
	.loc 1 1464 0
	pushl	$.LC109
	pushl	$2
	pushl	$1464
	pushl	$__FUNCTION__.5646
	call	LITE_syslog
.LVL757:
	addl	$16, %esp
	.loc 1 1465 0
	movl	$-20, %eax
	jmp	.L468
.L474:
	.loc 1 1468 0
	movl	536(%ebx), %eax
	testl	%eax, %eax
	je	.L475
	.loc 1 1469 0
	pushl	%edx
	pushl	%edx
	pushl	%edi
	pushl	%esi
	call	*%eax
.LVL758:
	addl	$16, %esp
.L475:
	.loc 1 1476 0
	pushl	%eax
	pushl	%edi
	pushl	%esi
	pushl	%ebx
	call	MQTTPublish
.LVL759:
	movl	%eax, %esi
.LVL760:
	.loc 1 1477 0
	addl	$16, %esp
	.loc 1 1485 0
	movzwl	-26(%ebp), %eax
.LVL761:
	.loc 1 1477 0
	testl	%esi, %esi
	je	.L468
	.loc 1 1478 0
	cmpl	$-14, %esi
	jne	.L477
	.loc 1 1479 0
	movl	$3, %edx
	movl	%ebx, %eax
	call	iotx_mc_set_client_state
.LVL762:
.L477:
	.loc 1 1481 0
	subl	$12, %esp
	pushl	%esi
	pushl	$.LC110
	pushl	$2
	pushl	$1481
	pushl	$__FUNCTION__.5646
	call	LITE_syslog
.LVL763:
	addl	$32, %esp
	movl	%esi, %eax
.LVL764:
.L468:
.LBE235:
.LBE234:
	.loc 1 2528 0
	leal	-12(%ebp), %esp
	popl	%ebx
	.cfi_restore 3
	popl	%esi
	.cfi_restore 6
	popl	%edi
	.cfi_restore 7
	popl	%ebp
	.cfi_restore 5
	.cfi_def_cfa 4, 4
	ret
	.cfi_endproc
.LFE92:
	.size	IOT_MQTT_Publish, .-IOT_MQTT_Publish
	.section	.text.unlikely.IOT_MQTT_Publish
.LCOLDE111:
	.section	.text.IOT_MQTT_Publish
.LHOTE111:
	.section	.rodata.str1.1
.LC112:
	.string	"PartnerID is Null"
.LC113:
	.string	"ModuleID is Null"
.LC114:
	.string	"MID Report: started in MQTT"
.LC115:
	.string	"allocate mem failed"
.LC116:
	.string	"MID Report: json data = '%s'"
.LC117:
	.string	""
.LC118:
	.string	"MID Report: topic name = '%s'"
.LC119:
	.string	"generate topic name of info failed"
.LC120:
	.string	"publish failed"
.LC121:
	.string	"MID Report: finished, IOT_MQTT_Publish() = %d"
	.section	.text.unlikely.iotx_mc_report_mid.constprop.5,"ax",@progbits
.LCOLDB122:
	.section	.text.iotx_mc_report_mid.constprop.5,"ax",@progbits
.LHOTB122:
	.type	iotx_mc_report_mid.constprop.5, @function
iotx_mc_report_mid.constprop.5:
.LFB98:
	.loc 1 2286 0
	.cfi_startproc
.LVL765:
	pushl	%ebp
	.cfi_def_cfa_offset 8
	.cfi_offset 5, -8
	.loc 1 2291 0
	movl	$59, %ecx
	.loc 1 2286 0
	movl	%esp, %ebp
	.cfi_def_cfa_register 5
	pushl	%edi
	pushl	%esi
	pushl	%ebx
	.cfi_offset 7, -12
	.cfi_offset 6, -16
	.cfi_offset 3, -20
	.loc 1 2291 0
	leal	-353(%ebp), %edi
	.loc 1 2286 0
	subl	$380, %esp
	.loc 1 2286 0
	movl	%eax, -384(%ebp)
	movl	%gs:20, %eax
	movl	%eax, -28(%ebp)
	xorl	%eax, %eax
.LVL766:
	.loc 1 2291 0
	rep stosb
	.loc 1 2296 0
	leal	-294(%ebp), %edi
	.loc 1 2291 0
	movl	%ecx, -388(%ebp)
	.loc 1 2292 0
	call	iotx_device_info_get
.LVL767:
	.loc 1 2296 0
	movl	$65, %ecx
	.loc 1 2292 0
	movl	%eax, %esi
.LVL768:
	.loc 1 2296 0
	xorl	%eax, %eax
.LVL769:
	rep stosb
	.loc 1 2297 0
	leal	-229(%ebp), %edi
	movl	$65, %ecx
	.loc 1 2299 0
	subl	$12, %esp
	.loc 1 2297 0
	rep stosb
	.loc 1 2299 0
	leal	-294(%ebp), %eax
	pushl	%eax
	call	HAL_GetPartnerID
.LVL770:
	addl	$16, %esp
	testl	%eax, %eax
	jne	.L487
	.loc 1 2300 0
	pushl	$.LC112
	movl	%eax, -380(%ebp)
	pushl	$5
	pushl	$2300
	jmp	.L495
.L487:
	.loc 1 2303 0
	leal	-229(%ebp), %eax
	subl	$12, %esp
	pushl	%eax
	call	HAL_GetModuleID
.LVL771:
	addl	$16, %esp
	testl	%eax, %eax
	jne	.L489
	.loc 1 2304 0
	pushl	$.LC113
	pushl	$5
	pushl	$2304
	movl	%eax, -380(%ebp)
.L495:
	pushl	$__FUNCTION__.5788
	call	LITE_syslog
.LVL772:
	addl	$16, %esp
	movl	-380(%ebp), %eax
	jmp	.L488
.L489:
	.loc 1 2308 0
	pushl	$.LC114
	pushl	$5
	.loc 1 2310 0
	leal	-353(%ebp), %edi
	.loc 1 2308 0
	pushl	$2308
	pushl	$__FUNCTION__.5788
	call	LITE_syslog
.LVL773:
	.loc 1 2312 0
	leal	21(%esi), %eax
	.loc 1 2310 0
	addl	$12, %esp
	pushl	%eax
	pushl	%esi
	pushl	%edi
	.loc 1 2312 0
	movl	%eax, -380(%ebp)
	.loc 1 2310 0
	call	iotx_midreport_reqid
.LVL774:
	.loc 1 2314 0
	movl	$223, (%esp)
	call	HAL_Malloc
.LVL775:
	.loc 1 2315 0
	addl	$16, %esp
	testl	%eax, %eax
	.loc 1 2314 0
	movl	%eax, %ebx
.LVL776:
	.loc 1 2315 0
	jne	.L490
	.loc 1 2316 0
	pushl	$.LC115
	pushl	$2
	pushl	$2316
	pushl	$__FUNCTION__.5788
	call	LITE_syslog
.LVL777:
	jmp	.L496
.LVL778:
.L490:
	.loc 1 2320 0
	leal	-294(%ebp), %eax
.LVL779:
	pushl	%eax
	leal	-229(%ebp), %eax
	pushl	%eax
	pushl	%edi
	pushl	%ebx
	call	iotx_midreport_payload
.LVL780:
	.loc 1 2325 0
	movl	%ebx, (%esp)
	pushl	$.LC116
	pushl	$5
	pushl	$2325
	pushl	$__FUNCTION__.5788
	call	LITE_syslog
.LVL781:
	.loc 1 2327 0
	leal	-376(%ebp), %edx
	movl	-388(%ebp), %eax
	movl	$5, %ecx
	.loc 1 2336 0
	addl	$32, %esp
	.loc 1 2327 0
	movl	%edx, %edi
	movl	%edx, -392(%ebp)
	rep stosl
	.loc 1 2331 0
	xorl	%eax, %eax
	.loc 1 2330 0
	movl	%ebx, -360(%ebp)
	.loc 1 2331 0
	orl	$-1, %ecx
	movl	%ebx, %edi
	repnz scasb
.LVL782:
	.loc 1 2336 0
	pushl	-380(%ebp)
	pushl	%esi
	leal	-164(%ebp), %esi
.LVL783:
	pushl	$.LC117
	.loc 1 2331 0
	notl	%ecx
	.loc 1 2336 0
	pushl	%esi
	.loc 1 2331 0
	decl	%ecx
	movw	%cx, -368(%ebp)
	.loc 1 2336 0
	call	iotx_midreport_topic
.LVL784:
	.loc 1 2341 0
	movl	%esi, (%esp)
	pushl	$.LC118
	.loc 1 2336 0
	movl	%eax, %edi
.LVL785:
	.loc 1 2341 0
	pushl	$5
	pushl	$2341
	pushl	$__FUNCTION__.5788
	call	LITE_syslog
.LVL786:
	.loc 1 2343 0
	addl	$32, %esp
	testl	%edi, %edi
	movl	-392(%ebp), %edx
	jns	.L491
	.loc 1 2344 0
	pushl	$.LC119
	pushl	$2
	pushl	$2344
	jmp	.L497
.L491:
	.loc 1 2349 0
	pushl	%eax
	pushl	%edx
	pushl	%esi
	pushl	-384(%ebp)
	call	IOT_MQTT_Publish
.LVL787:
	.loc 1 2350 0
	addl	$16, %esp
	testl	%eax, %eax
	.loc 1 2349 0
	movl	%eax, %esi
.LVL788:
	.loc 1 2350 0
	jns	.L492
	.loc 1 2351 0
	pushl	$.LC120
	pushl	$2
	pushl	$2351
.LVL789:
.L497:
	pushl	$__FUNCTION__.5788
	call	LITE_syslog
.LVL790:
	.loc 1 2352 0
	movl	%ebx, (%esp)
	call	HAL_Free
.LVL791:
.L496:
	addl	$16, %esp
	.loc 1 2353 0
	orl	$-1, %eax
	jmp	.L488
.LVL792:
.L492:
	.loc 1 2356 0
	subl	$12, %esp
	pushl	%ebx
	call	HAL_Free
.LVL793:
	.loc 1 2358 0
	movl	%esi, (%esp)
	pushl	$.LC121
	pushl	$5
	pushl	$2358
	pushl	$__FUNCTION__.5788
	call	LITE_syslog
.LVL794:
	addl	$32, %esp
	.loc 1 2359 0
	xorl	%eax, %eax
.LVL795:
.L488:
	.loc 1 2360 0
	movl	-28(%ebp), %edx
	xorl	%gs:20, %edx
	je	.L493
	call	__stack_chk_fail
.LVL796:
.L493:
	leal	-12(%ebp), %esp
	popl	%ebx
	.cfi_restore 3
	popl	%esi
	.cfi_restore 6
	popl	%edi
	.cfi_restore 7
	popl	%ebp
	.cfi_restore 5
	.cfi_def_cfa 4, 4
.LVL797:
	ret
	.cfi_endproc
.LFE98:
	.size	iotx_mc_report_mid.constprop.5, .-iotx_mc_report_mid.constprop.5
	.section	.text.unlikely.iotx_mc_report_mid.constprop.5
.LCOLDE122:
	.section	.text.iotx_mc_report_mid.constprop.5
.LHOTE122:
	.section	.rodata.str1.1
.LC123:
	.string	"pInitParams"
.LC124:
	.string	"pInitParams->pwrite_buf"
.LC125:
	.string	"pInitParams->pread_buf"
.LC126:
	.string	"pInitParams->host"
.LC127:
	.string	"pInitParams->client_id"
.LC128:
	.string	"pInitParams->username"
.LC129:
	.string	"pInitParams->password"
.LC130:
	.string	"not enough memory."
.LC131:
	.string	"Input heartbeat interval(%d ms) < Allowed minimum(%d ms)"
.LC132:
	.string	"Reset heartbeat interval => %d Millisecond"
.LC133:
	.string	"Input heartbeat interval(%d ms) > Allowed maximum(%d ms)"
.LC134:
	.string	"allocate Network struct failed"
.LC135:
	.string	"pdev"
.LC136:
	.string	"device_secret"
	.globl	__udivdi3
.LC137:
	.string	"MQTT init success!"
.LC138:
	.string	"iotx_mc_calc_random_init failed"
	.section	.rodata
	.align 32
.LC0:
	.byte	77
	.byte	81
	.byte	84
	.byte	67
	.long	0
	.byte	4
	.zero	3
	.long	0
	.long	0
	.long	0
	.value	60
	.byte	1
	.byte	0
	.byte	77
	.byte	81
	.byte	84
	.byte	87
	.long	0
	.long	0
	.long	0
	.long	0
	.long	0
	.long	0
	.long	0
	.byte	0
	.byte	0
	.zero	2
	.long	0
	.long	0
	.long	0
	.long	0
	.long	0
	.long	0
	.section	.text.unlikely.IOT_MQTT_Construct,"ax",@progbits
.LCOLDB139:
	.section	.text.IOT_MQTT_Construct,"ax",@progbits
.LHOTB139:
	.globl	IOT_MQTT_Construct
	.type	IOT_MQTT_Construct, @function
IOT_MQTT_Construct:
.LFB86:
	.loc 1 2364 0
	.cfi_startproc
.LVL798:
	pushl	%ebp
	.cfi_def_cfa_offset 8
	.cfi_offset 5, -8
	movl	%esp, %ebp
	.cfi_def_cfa_register 5
	pushl	%edi
	pushl	%esi
	pushl	%ebx
	subl	$124, %esp
	.cfi_offset 7, -12
	.cfi_offset 6, -16
	.cfi_offset 3, -20
	.loc 1 2364 0
	movl	8(%ebp), %eax
	movl	%eax, -124(%ebp)
	movl	%gs:20, %eax
	movl	%eax, -28(%ebp)
	xorl	%eax, %eax
	.loc 1 2368 0
	cmpl	$0, -124(%ebp)
	jne	.L499
	.loc 1 2368 0 discriminator 1
	pushl	%edi
	pushl	%edi
	pushl	$0
	pushl	$.LC123
	pushl	$.LC66
	pushl	$2
	pushl	$2368
	jmp	.L583
.L499:
	.loc 1 2369 0
	movl	-124(%ebp), %eax
	cmpl	$0, 36(%eax)
	jne	.L501
	.loc 1 2369 0 discriminator 1
	pushl	%esi
	pushl	%esi
	pushl	$0
	pushl	$.LC124
	pushl	$.LC66
	pushl	$2
	pushl	$2369
.L583:
	pushl	$__FUNCTION__.5795
	call	LITE_syslog
.LVL799:
	addl	$32, %esp
	jmp	.L579
.L501:
	.loc 1 2370 0
	movl	-124(%ebp), %eax
	cmpl	$0, 44(%eax)
	jne	.L502
	.loc 1 2370 0 discriminator 1
	pushl	%ebx
	pushl	%ebx
	pushl	$0
	pushl	$.LC125
	pushl	$.LC66
	pushl	$2
	pushl	$2370
	jmp	.L583
.L502:
	.loc 1 2372 0
	movl	-124(%ebp), %eax
	movl	4(%eax), %eax
	.loc 1 2372 0
	testl	%eax, %eax
	jne	.L503
	.loc 1 2372 0 discriminator 1
	pushl	%ecx
	pushl	%ecx
	pushl	$0
	pushl	$.LC126
	pushl	$.LC66
	jmp	.L584
.L503:
	.loc 1 2372 0 discriminator 2
	cmpb	$0, (%eax)
	jne	.L504
	.loc 1 2372 0 is_stmt 0 discriminator 3
	pushl	%edx
	pushl	%edx
	pushl	%eax
	pushl	$.LC126
	pushl	$.LC97
.L584:
	pushl	$2
	pushl	$2372
	jmp	.L583
.L504:
	.loc 1 2373 0 is_stmt 1
	movl	-124(%ebp), %eax
	movl	8(%eax), %eax
	.loc 1 2373 0
	testl	%eax, %eax
	jne	.L505
	.loc 1 2373 0 discriminator 1
	pushl	%eax
	pushl	%eax
	pushl	$0
	pushl	$.LC127
	pushl	$.LC66
	jmp	.L585
.L505:
	.loc 1 2373 0 discriminator 2
	cmpb	$0, (%eax)
	jne	.L506
	.loc 1 2373 0 is_stmt 0 discriminator 3
	pushl	%edi
	pushl	%edi
	pushl	%eax
	pushl	$.LC127
	pushl	$.LC97
.L585:
	pushl	$2
	pushl	$2373
	jmp	.L583
.L506:
	.loc 1 2374 0 is_stmt 1
	movl	-124(%ebp), %eax
	movl	12(%eax), %eax
	.loc 1 2374 0
	testl	%eax, %eax
	jne	.L507
	.loc 1 2374 0 discriminator 1
	pushl	%esi
	pushl	%esi
	pushl	$0
	pushl	$.LC128
	pushl	$.LC66
	jmp	.L586
.L507:
	.loc 1 2374 0 discriminator 2
	cmpb	$0, (%eax)
	jne	.L508
	.loc 1 2374 0 is_stmt 0 discriminator 3
	pushl	%ebx
	pushl	%ebx
	pushl	%eax
	pushl	$.LC128
	pushl	$.LC97
.L586:
	pushl	$2
	pushl	$2374
	jmp	.L583
.L508:
	.loc 1 2375 0 is_stmt 1
	movl	-124(%ebp), %eax
	movl	16(%eax), %eax
	.loc 1 2375 0
	testl	%eax, %eax
	jne	.L509
	.loc 1 2375 0 discriminator 1
	pushl	%ecx
	pushl	%ecx
	pushl	$0
	pushl	$.LC129
	pushl	$.LC66
	jmp	.L587
.L509:
	.loc 1 2375 0 discriminator 2
	cmpb	$0, (%eax)
	jne	.L510
	.loc 1 2375 0 is_stmt 0 discriminator 3
	pushl	%edx
	pushl	%edx
	pushl	%eax
	pushl	$.LC129
	pushl	$.LC97
.L587:
	pushl	$2
	pushl	$2375
	jmp	.L583
.L510:
	.loc 1 2377 0 is_stmt 1
	pushl	%eax
	pushl	$544
	pushl	$2377
	pushl	$__func__.5796
	call	LITE_malloc_internal
.LVL800:
	.loc 1 2378 0
	addl	$16, %esp
	testl	%eax, %eax
	.loc 1 2377 0
	movl	%eax, %ebx
.LVL801:
	.loc 1 2378 0
	jne	.L511
	.loc 1 2379 0
	pushl	$.LC130
	pushl	$2
	pushl	$2379
	pushl	$__FUNCTION__.5795
	call	LITE_syslog
.LVL802:
	.loc 1 2380 0
	addl	$16, %esp
	jmp	.L500
.LVL803:
.L511:
.LBB244:
.LBB245:
	.loc 1 1605 0
	movl	%eax, %edi
	movl	$136, %ecx
	xorl	%eax, %eax
.LVL804:
	rep stosl
.LVL805:
	.loc 1 1610 0
	movl	-124(%ebp), %eax
	xorl	%edx, %edx
	.loc 1 1607 0
	leal	-116(%ebp), %edi
	movl	$.LC0, %esi
	movl	$22, %ecx
	.loc 1 1610 0
	movl	32(%eax), %eax
	.loc 1 1607 0
	rep movsl
.LVL806:
	.loc 1 1610 0
	movl	$1000, %ecx
	divl	%ecx
	.loc 1 1617 0
	leal	32(%ebx), %edx
	movl	$90, %ecx
	movl	%edx, %edi
	.loc 1 1610 0
	movl	%eax, -128(%ebp)
	.loc 1 1612 0
	movl	-124(%ebp), %eax
	movl	8(%eax), %esi
.LVL807:
	.loc 1 1613 0
	movl	12(%eax), %eax
	movl	%eax, -132(%ebp)
	.loc 1 1614 0
	movl	-124(%ebp), %eax
	movl	16(%eax), %eax
	movl	%eax, -136(%ebp)
	.loc 1 1617 0
	xorl	%eax, %eax
	rep stosl
	.loc 1 1619 0
	movl	$0, 4(%ebx)
	.loc 1 1620 0
	call	HAL_MutexCreate
.LVL808:
	.loc 1 1621 0
	testl	%eax, %eax
	.loc 1 1620 0
	movl	%eax, (%ebx)
	.loc 1 1621 0
	je	.L581
	.loc 1 1625 0
	call	HAL_MutexCreate
.LVL809:
	.loc 1 1626 0
	testl	%eax, %eax
	.loc 1 1625 0
	movl	%eax, 516(%ebx)
	.loc 1 1626 0
	jne	.L513
	.loc 1 1627 0
	subl	$12, %esp
	pushl	(%ebx)
	call	HAL_MutexDestroy
.LVL810:
	.loc 1 1628 0
	movl	$0, (%ebx)
	jmp	.L578
.L513:
	.loc 1 1632 0
	call	HAL_MutexCreate
.LVL811:
	.loc 1 1633 0
	testl	%eax, %eax
	.loc 1 1632 0
	movl	%eax, 512(%ebx)
	.loc 1 1633 0
	jne	.L514
	.loc 1 1634 0
	subl	$12, %esp
	pushl	(%ebx)
	call	HAL_MutexDestroy
.LVL812:
	.loc 1 1635 0
	movl	$0, (%ebx)
	.loc 1 1636 0
	popl	%edi
	pushl	516(%ebx)
	call	HAL_MutexDestroy
.LVL813:
	.loc 1 1637 0
	movl	$0, 516(%ebx)
.L578:
	addl	$16, %esp
	jmp	.L581
.L514:
	.loc 1 1641 0
	movl	-124(%ebp), %eax
	movl	28(%eax), %eax
	leal	-500(%eax), %edx
	.loc 1 1644 0
	cmpl	$4501, %edx
	movl	$2000, %edx
	cmovnb	%edx, %eax
	movl	%eax, 8(%ebx)
	.loc 1 1649 0
	movl	-124(%ebp), %eax
	movl	36(%eax), %eax
	movl	%eax, 24(%ebx)
	.loc 1 1650 0
	movl	-124(%ebp), %eax
	movl	40(%eax), %eax
	movl	%eax, 12(%ebx)
	.loc 1 1651 0
	movl	-124(%ebp), %eax
	movl	44(%eax), %eax
	movl	%eax, 28(%ebx)
	.loc 1 1652 0
	movl	-124(%ebp), %eax
	movl	48(%eax), %eax
	.loc 1 1654 0
	movb	$0, 20(%ebx)
	.loc 1 1652 0
	movl	%eax, 16(%ebx)
	.loc 1 1656 0
	movl	-124(%ebp), %eax
	movl	52(%eax), %eax
	movl	%eax, 524(%ebx)
	.loc 1 1657 0
	movl	-124(%ebp), %eax
	movl	56(%eax), %eax
	.loc 1 1660 0
	movl	$1000, 412(%ebx)
	.loc 1 1657 0
	movl	%eax, 528(%ebx)
	.loc 1 1662 0
	call	list_new
.LVL814:
	.loc 1 1663 0
	testl	%eax, %eax
	.loc 1 1662 0
	movl	%eax, 504(%ebx)
	.loc 1 1663 0
	je	.L517
	.loc 1 1664 0
	movl	$LITE_free_routine, 12(%eax)
.L517:
	.loc 1 1666 0
	call	list_new
.LVL815:
	.loc 1 1667 0
	testl	%eax, %eax
	.loc 1 1666 0
	movl	%eax, 508(%ebx)
	.loc 1 1667 0
	je	.L518
	.loc 1 1668 0
	movl	$LITE_free_routine, 12(%eax)
.L518:
	.loc 1 1671 0
	call	HAL_MutexCreate
.LVL816:
	movl	%eax, 520(%ebx)
.LVL817:
.LBB246:
.LBB247:
	.loc 1 1521 0
	movl	.LC0, %eax
	.loc 1 1524 0
	leal	428(%ebx), %edi
	.loc 1 1536 0
	cmpw	$59, -128(%ebp)
	.loc 1 1522 0
	movl	$0, 420(%ebx)
	.loc 1 1524 0
	movl	$3, %ecx
	.loc 1 1523 0
	movb	$4, 424(%ebx)
	.loc 1 1524 0
	movl	%esi, -104(%ebp)
	leal	-104(%ebp), %esi
.LVL818:
	.loc 1 1521 0
	movl	%eax, 416(%ebx)
	.loc 1 1527 0
	movl	-132(%ebp), %eax
	.loc 1 1524 0
	rep movsl
.LVL819:
	.loc 1 1525 0
	movb	$1, 442(%ebx)
	.loc 1 1526 0
	movb	$0, 443(%ebx)
	.loc 1 1527 0
	leal	480(%ebx), %edi
	movl	%eax, -52(%ebp)
	.loc 1 1528 0
	movl	-136(%ebp), %eax
	.loc 1 1527 0
	leal	-52(%ebp), %esi
	movl	$3, %ecx
	.loc 1 1528 0
	movl	%eax, -40(%ebp)
	.loc 1 1529 0
	movl	.LC0+28, %eax
	.loc 1 1527 0
	rep movsl
	.loc 1 1528 0
	leal	492(%ebx), %edi
	leal	-40(%ebp), %esi
	movl	$3, %ecx
	rep movsl
	.loc 1 1529 0
	movl	%eax, 444(%ebx)
	.loc 1 1530 0
	movl	$0, 448(%ebx)
	.loc 1 1531 0
	leal	452(%ebx), %edi
	leal	-80(%ebp), %esi
	movl	$3, %ecx
	rep movsl
	.loc 1 1532 0
	leal	464(%ebx), %edi
	leal	-68(%ebp), %esi
	movl	$3, %ecx
	rep movsl
	.loc 1 1533 0
	movb	$0, 477(%ebx)
	.loc 1 1534 0
	movb	$0, 476(%ebx)
	.loc 1 1536 0
	ja	.L519
	.loc 1 1537 0
	movzwl	-128(%ebp), %eax
	pushl	%esi
	pushl	%esi
	pushl	$60000
	imull	$1000, %eax, %eax
	pushl	%eax
	pushl	$.LC131
	pushl	$3
	pushl	$1540
	pushl	$__FUNCTION__.5659
	call	LITE_syslog
.LVL820:
	.loc 1 1541 0
	addl	$20, %esp
	pushl	$60000
	pushl	$.LC132
	pushl	$3
	pushl	$1543
	pushl	$__FUNCTION__.5659
	call	LITE_syslog
.LVL821:
	.loc 1 1544 0
	movw	$60, 440(%ebx)
	jmp	.L576
.L519:
	.loc 1 1545 0
	cmpw	$180, -128(%ebp)
	jbe	.L521
	.loc 1 1546 0
	movzwl	-128(%ebp), %eax
	pushl	%ecx
	pushl	%ecx
	pushl	$180000
	imull	$1000, %eax, %eax
	pushl	%eax
	pushl	$.LC133
	pushl	$3
	pushl	$1549
	pushl	$__FUNCTION__.5659
	call	LITE_syslog
.LVL822:
	.loc 1 1550 0
	addl	$20, %esp
	pushl	$180000
	pushl	$.LC132
	pushl	$3
	pushl	$1552
	pushl	$__FUNCTION__.5659
	call	LITE_syslog
.LVL823:
	.loc 1 1553 0
	movw	$180, 440(%ebx)
.L576:
	addl	$32, %esp
	jmp	.L520
.L521:
	.loc 1 1555 0
	movl	-128(%ebp), %eax
	movw	%ax, 440(%ebx)
.L520:
.LVL824:
.LBE247:
.LBE246:
	.loc 1 1681 0
	leal	396(%ebx), %eax
	subl	$12, %esp
	pushl	%eax
	call	iotx_time_init
.LVL825:
	.loc 1 1682 0
	leal	408(%ebx), %eax
	movl	%eax, (%esp)
	call	iotx_time_init
.LVL826:
	.loc 1 1684 0
	addl	$12, %esp
	pushl	$32
	pushl	$1684
	pushl	$__func__.5681
	call	LITE_malloc_internal
.LVL827:
	.loc 1 1685 0
	addl	$16, %esp
	testl	%eax, %eax
	.loc 1 1684 0
	movl	%eax, %edx
	movl	%eax, 392(%ebx)
	.loc 1 1685 0
	jne	.L522
	.loc 1 1686 0
	pushl	$.LC134
	pushl	$2
	pushl	$1686
	jmp	.L577
.L522:
	.loc 1 1690 0
	xorl	%eax, %eax
	movl	%edx, %edi
	movl	$8, %ecx
	rep stosl
	.loc 1 1692 0
	movl	-124(%ebp), %eax
	pushl	20(%eax)
	movzwl	(%eax), %eax
	pushl	%eax
	movl	-124(%ebp), %eax
	pushl	4(%eax)
	pushl	392(%ebx)
	call	iotx_net_init
.LVL828:
	.loc 1 1693 0
	addl	$16, %esp
	.loc 1 1694 0
	xorl	%edx, %edx
	.loc 1 1693 0
	testl	%eax, %eax
	.loc 1 1692 0
	movl	%eax, %edi
.LVL829:
	.loc 1 1693 0
	jne	.L523
.LVL830:
.LBB248:
.LBB249:
.LBB250:
.LBB251:
	.loc 1 1564 0
	call	iotx_device_info_get
.LVL831:
	.loc 1 1568 0
	testl	%eax, %eax
	jne	.L524
	.loc 1 1568 0
	pushl	%edx
	pushl	%edx
	pushl	$0
	pushl	$.LC135
	pushl	$.LC66
	pushl	$2
	pushl	$1568
	jmp	.L582
.L524:
	.loc 1 1571 0
	xorl	%esi, %esi
	cmpb	$0, 119(%eax)
	.loc 1 1570 0
	leal	119(%eax), %edx
.LVL832:
	.loc 1 1571 0
	jne	.L527
.LVL833:
	pushl	%eax
	pushl	%eax
	pushl	%edx
	pushl	$.LC136
	pushl	$.LC97
	pushl	$2
	pushl	$1571
.LVL834:
.L582:
	pushl	$__FUNCTION__.5666
	call	LITE_syslog
.LVL835:
	addl	$32, %esp
.LVL836:
.LBE251:
.LBE250:
.LBE249:
.LBE248:
	.loc 1 1702 0
	pushl	$.LC138
	pushl	$2
	pushl	$1702
	jmp	.L577
.LVL837:
.L527:
.LBB255:
.LBB254:
.LBB253:
.LBB252:
	.loc 1 1573 0
	movsbl	(%edx), %eax
	testb	%al, %al
	je	.L588
	.loc 1 1574 0
	addl	%eax, %esi
.LVL838:
	.loc 1 1575 0
	incl	%edx
.LVL839:
	jmp	.L527
.L588:
	.loc 1 1577 0
	call	HAL_UptimeMs
.LVL840:
.LBE252:
.LBE253:
	.loc 1 1591 0
	subl	$16, %esp
	pushl	$0
	pushl	$1000
	pushl	%edx
	pushl	%eax
	call	__udivdi3
.LVL841:
	addl	%eax, %esi
	addl	$20, %esp
	xorl	%eax, %eax
	cmpl	$-1, %esi
	setnb	%al
	addl	%eax, %esi
	pushl	%esi
	call	HAL_Srandom
.LVL842:
.LBE254:
.LBE255:
	.loc 1 1709 0
	pushl	$.LC137
	pushl	$4
	pushl	$1709
	pushl	$__FUNCTION__.5682
	call	LITE_syslog
.LVL843:
	addl	$32, %esp
	.loc 1 1707 0
	movl	$1, %edx
.LVL844:
.L523:
	.loc 1 1712 0
	movl	%ebx, %eax
	call	iotx_mc_set_client_state
.LVL845:
	.loc 1 1713 0
	testl	%edi, %edi
	je	.L535
	.loc 1 1714 0
	movl	504(%ebx), %eax
	testl	%eax, %eax
	je	.L529
	.loc 1 1715 0
	subl	$12, %esp
	pushl	%eax
	call	*12(%eax)
.LVL846:
	.loc 1 1716 0
	movl	$0, 504(%ebx)
	addl	$16, %esp
.L529:
	.loc 1 1718 0
	movl	508(%ebx), %eax
	testl	%eax, %eax
	je	.L530
	.loc 1 1719 0
	subl	$12, %esp
	pushl	%eax
	call	*12(%eax)
.LVL847:
	.loc 1 1720 0
	movl	$0, 508(%ebx)
	addl	$16, %esp
.L530:
	.loc 1 1722 0
	movl	392(%ebx), %eax
	testl	%eax, %eax
	je	.L531
	.loc 1 1723 0
	subl	$12, %esp
	pushl	%eax
	call	LITE_free_internal
.LVL848:
	movl	$0, 392(%ebx)
	addl	$16, %esp
.L531:
	.loc 1 1726 0
	movl	(%ebx), %eax
	testl	%eax, %eax
	je	.L532
	.loc 1 1727 0
	subl	$12, %esp
	pushl	%eax
	call	HAL_MutexDestroy
.LVL849:
	.loc 1 1728 0
	movl	$0, (%ebx)
	addl	$16, %esp
.L532:
	.loc 1 1730 0
	movl	516(%ebx), %eax
	testl	%eax, %eax
	je	.L533
	.loc 1 1731 0
	subl	$12, %esp
	pushl	%eax
	call	HAL_MutexDestroy
.LVL850:
	.loc 1 1732 0
	movl	$0, 516(%ebx)
	addl	$16, %esp
.L533:
	.loc 1 1734 0
	movl	512(%ebx), %eax
	testl	%eax, %eax
	je	.L534
	.loc 1 1735 0
	subl	$12, %esp
	pushl	%eax
	call	HAL_MutexDestroy
.LVL851:
	.loc 1 1736 0
	movl	$0, 512(%ebx)
	addl	$16, %esp
.L534:
	.loc 1 1738 0
	movl	520(%ebx), %eax
	testl	%eax, %eax
	je	.L512
	.loc 1 1739 0
	subl	$12, %esp
	pushl	%eax
	call	HAL_MutexDestroy
.LVL852:
	.loc 1 1740 0
	movl	$0, 520(%ebx)
	addl	$16, %esp
.L512:
.LVL853:
.LBE245:
.LBE244:
	.loc 1 2384 0
	testl	%edi, %edi
	jne	.L581
.L535:
	.loc 1 2389 0
	movl	%ebx, %eax
	call	iotx_mc_connect
.LVL854:
	.loc 1 2390 0
	testl	%eax, %eax
	jne	.L580
	.loc 1 2395 0
	movl	$iotx_guider_authenticate, 532(%ebx)
	.loc 1 2398 0
	movl	%ebx, %eax
.LVL855:
	call	iotx_mc_report_mid.constprop.5
.LVL856:
	.loc 1 2399 0
	testl	%eax, %eax
	je	.L500
.L580:
	.loc 1 2400 0
	movl	%ebx, %eax
.LVL857:
	call	iotx_mc_release
.LVL858:
.L581:
	.loc 1 2401 0
	subl	$12, %esp
	pushl	%ebx
	call	LITE_free_internal
.LVL859:
	addl	$16, %esp
.LVL860:
.L579:
	.loc 1 2402 0
	xorl	%ebx, %ebx
.L500:
	.loc 1 2406 0
	movl	-28(%ebp), %ecx
	xorl	%gs:20, %ecx
	movl	%ebx, %eax
	je	.L537
	call	__stack_chk_fail
.LVL861:
.L577:
.LBB257:
.LBB256:
	.loc 1 1702 0
	pushl	$__FUNCTION__.5682
	.loc 1 1703 0
	orl	$-1, %edi
	.loc 1 1702 0
	call	LITE_syslog
.LVL862:
	addl	$16, %esp
	.loc 1 1599 0
	xorl	%edx, %edx
	jmp	.L523
.LVL863:
.L537:
.LBE256:
.LBE257:
	.loc 1 2406 0
	leal	-12(%ebp), %esp
	popl	%ebx
	.cfi_restore 3
	popl	%esi
	.cfi_restore 6
	popl	%edi
	.cfi_restore 7
	popl	%ebp
	.cfi_restore 5
	.cfi_def_cfa 4, 4
	ret
	.cfi_endproc
.LFE86:
	.size	IOT_MQTT_Construct, .-IOT_MQTT_Construct
	.section	.text.unlikely.IOT_MQTT_Construct
.LCOLDE139:
	.section	.text.IOT_MQTT_Construct
.LHOTE139:
	.section	.rodata.__FUNCTION__.5646,"a",@progbits
	.align 4
	.type	__FUNCTION__.5646, @object
	.size	__FUNCTION__.5646, 16
__FUNCTION__.5646:
	.string	"iotx_mc_publish"
	.section	.rodata.__FUNCTION__.5835,"a",@progbits
	.align 4
	.type	__FUNCTION__.5835, @object
	.size	__FUNCTION__.5835, 17
__FUNCTION__.5835:
	.string	"IOT_MQTT_Publish"
	.section	.rodata.__FUNCTION__.5409,"a",@progbits
	.align 4
	.type	__FUNCTION__.5409, @object
	.size	__FUNCTION__.5409, 16
__FUNCTION__.5409:
	.string	"MQTTUnsubscribe"
	.section	.rodata.__FUNCTION__.5638,"a",@progbits
	.align 4
	.type	__FUNCTION__.5638, @object
	.size	__FUNCTION__.5638, 20
__FUNCTION__.5638:
	.string	"iotx_mc_unsubscribe"
	.section	.rodata.__FUNCTION__.5829,"a",@progbits
	.align 4
	.type	__FUNCTION__.5829, @object
	.size	__FUNCTION__.5829, 21
__FUNCTION__.5829:
	.string	"IOT_MQTT_Unsubscribe"
	.section	.rodata.__func__.5446,"a",@progbits
	.align 4
	.type	__func__.5446, @object
	.size	__func__.5446, 24
__func__.5446:
	.string	"iotx_mc_push_subInfo_to"
	.section	.rodata.__FUNCTION__.5444,"a",@progbits
	.align 4
	.type	__FUNCTION__.5444, @object
	.size	__FUNCTION__.5444, 24
__FUNCTION__.5444:
	.string	"iotx_mc_push_subInfo_to"
	.section	.rodata.__FUNCTION__.5398,"a",@progbits
	.align 4
	.type	__FUNCTION__.5398, @object
	.size	__FUNCTION__.5398, 14
__FUNCTION__.5398:
	.string	"MQTTSubscribe"
	.section	.rodata.__FUNCTION__.5338,"a",@progbits
	.align 4
	.type	__FUNCTION__.5338, @object
	.size	__FUNCTION__.5338, 19
__FUNCTION__.5338:
	.string	"iotx_mc_check_rule"
	.section	.rodata.__FUNCTION__.5350,"a",@progbits
	.align 4
	.type	__FUNCTION__.5350, @object
	.size	__FUNCTION__.5350, 20
__FUNCTION__.5350:
	.string	"iotx_mc_check_topic"
	.section	.rodata.__FUNCTION__.5630,"a",@progbits
	.align 4
	.type	__FUNCTION__.5630, @object
	.size	__FUNCTION__.5630, 18
__FUNCTION__.5630:
	.string	"iotx_mc_subscribe"
	.section	.rodata.__FUNCTION__.5824,"a",@progbits
	.align 4
	.type	__FUNCTION__.5824, @object
	.size	__FUNCTION__.5824, 19
__FUNCTION__.5824:
	.string	"IOT_MQTT_Subscribe"
	.section	.rodata.__FUNCTION__.5816,"a",@progbits
	.align 4
	.type	__FUNCTION__.5816, @object
	.size	__FUNCTION__.5816, 26
__FUNCTION__.5816:
	.string	"IOT_MQTT_CheckStateNormal"
	.section	.rodata.__FUNCTION__.5694,"a",@progbits
	.align 4
	.type	__FUNCTION__.5694, @object
	.size	__FUNCTION__.5694, 16
__FUNCTION__.5694:
	.string	"MQTTSubInfoProc"
	.section	.rodata.__FUNCTION__.5722,"a",@progbits
	.align 4
	.type	__FUNCTION__.5722, @object
	.size	__FUNCTION__.5722, 16
__FUNCTION__.5722:
	.string	"MQTTPubInfoProc"
	.section	.rodata.__FUNCTION__.5524,"a",@progbits
	.align 4
	.type	__FUNCTION__.5524, @object
	.size	__FUNCTION__.5524, 24
__FUNCTION__.5524:
	.string	"iotx_mc_deliver_message"
	.section	.rodata.__FUNCTION__.5577,"a",@progbits
	.align 4
	.type	__FUNCTION__.5577, @object
	.size	__FUNCTION__.5577, 28
__FUNCTION__.5577:
	.string	"iotx_mc_handle_recv_PUBLISH"
	.section	.rodata.__FUNCTION__.5456,"a",@progbits
	.align 4
	.type	__FUNCTION__.5456, @object
	.size	__FUNCTION__.5456, 26
__FUNCTION__.5456:
	.string	"iotx_mc_mask_subInfo_from"
	.section	.rodata.__FUNCTION__.5562,"a",@progbits
	.align 4
	.type	__FUNCTION__.5562, @object
	.size	__FUNCTION__.5562, 27
__FUNCTION__.5562:
	.string	"iotx_mc_handle_recv_SUBACK"
	.section	.rodata.__FUNCTION__.5424,"a",@progbits
	.align 4
	.type	__FUNCTION__.5424, @object
	.size	__FUNCTION__.5424, 26
__FUNCTION__.5424:
	.string	"iotx_mc_mask_pubInfo_from"
	.section	.rodata.__FUNCTION__.5605,"a",@progbits
	.align 4
	.type	__FUNCTION__.5605, @object
	.size	__FUNCTION__.5605, 14
__FUNCTION__.5605:
	.string	"iotx_mc_cycle"
	.section	.rodata.__FUNCTION__.5812,"a",@progbits
	.align 4
	.type	__FUNCTION__.5812, @object
	.size	__FUNCTION__.5812, 15
__FUNCTION__.5812:
	.string	"IOT_MQTT_Yield"
	.section	.rodata.__FUNCTION__.5803,"a",@progbits
	.align 4
	.type	__FUNCTION__.5803, @object
	.size	__FUNCTION__.5803, 17
__FUNCTION__.5803:
	.string	"IOT_MQTT_Destroy"
	.section	.rodata.__FUNCTION__.5759,"a",@progbits
	.align 4
	.type	__FUNCTION__.5759, @object
	.size	__FUNCTION__.5759, 19
__FUNCTION__.5759:
	.string	"iotx_mc_disconnect"
	.section	.rodata.__FUNCTION__.5767,"a",@progbits
	.align 4
	.type	__FUNCTION__.5767, @object
	.size	__FUNCTION__.5767, 16
__FUNCTION__.5767:
	.string	"iotx_mc_release"
	.section	.rodata.__FUNCTION__.5788,"a",@progbits
	.align 4
	.type	__FUNCTION__.5788, @object
	.size	__FUNCTION__.5788, 19
__FUNCTION__.5788:
	.string	"iotx_mc_report_mid"
	.section	.rodata.__FUNCTION__.5537,"a",@progbits
	.align 4
	.type	__FUNCTION__.5537, @object
	.size	__FUNCTION__.5537, 28
__FUNCTION__.5537:
	.string	"iotx_mc_handle_recv_CONNACK"
	.section	.rodata.__func__.5499,"a",@progbits
	.align 4
	.type	__func__.5499, @object
	.size	__func__.5499, 20
__func__.5499:
	.string	"iotx_mc_read_packet"
	.section	.rodata.__FUNCTION__.5495,"a",@progbits
	.align 4
	.type	__FUNCTION__.5495, @object
	.size	__FUNCTION__.5495, 20
__FUNCTION__.5495:
	.string	"iotx_mc_read_packet"
	.section	.rodata.__FUNCTION__.5595,"a",@progbits
	.align 4
	.type	__FUNCTION__.5595, @object
	.size	__FUNCTION__.5595, 21
__FUNCTION__.5595:
	.string	"iotx_mc_wait_CONNACK"
	.section	.rodata.__FUNCTION__.5747,"a",@progbits
	.align 4
	.type	__FUNCTION__.5747, @object
	.size	__FUNCTION__.5747, 26
__FUNCTION__.5747:
	.string	"iotx_mc_attempt_reconnect"
	.section	.rodata.__FUNCTION__.5753,"a",@progbits
	.align 4
	.type	__FUNCTION__.5753, @object
	.size	__FUNCTION__.5753, 25
__FUNCTION__.5753:
	.string	"iotx_mc_handle_reconnect"
	.section	.rodata.__FUNCTION__.5359,"a",@progbits
	.align 4
	.type	__FUNCTION__.5359, @object
	.size	__FUNCTION__.5359, 14
__FUNCTION__.5359:
	.string	"MQTTKeepalive"
	.section	.rodata.__FUNCTION__.5777,"a",@progbits
	.align 4
	.type	__FUNCTION__.5777, @object
	.size	__FUNCTION__.5777, 22
__FUNCTION__.5777:
	.string	"iotx_mc_keepalive_sub"
	.section	.rodata.__FUNCTION__.5705,"a",@progbits
	.align 4
	.type	__FUNCTION__.5705, @object
	.size	__FUNCTION__.5705, 18
__FUNCTION__.5705:
	.string	"iotx_mc_keepalive"
	.section	.rodata.__FUNCTION__.5731,"a",@progbits
	.align 4
	.type	__FUNCTION__.5731, @object
	.size	__FUNCTION__.5731, 16
__FUNCTION__.5731:
	.string	"cb_recv_timeout"
	.section	.rodata.__FUNCTION__.5742,"a",@progbits
	.align 4
	.type	__FUNCTION__.5742, @object
	.size	__FUNCTION__.5742, 16
__FUNCTION__.5742:
	.string	"iotx_mc_connect"
	.section	.rodata.__FUNCTION__.5666,"a",@progbits
	.align 4
	.type	__FUNCTION__.5666, @object
	.size	__FUNCTION__.5666, 18
__FUNCTION__.5666:
	.string	"iotx_mc_calc_seed"
	.section	.rodata.__FUNCTION__.5659,"a",@progbits
	.align 4
	.type	__FUNCTION__.5659, @object
	.size	__FUNCTION__.5659, 27
__FUNCTION__.5659:
	.string	"iotx_mc_set_connect_params"
	.section	.rodata.__FUNCTION__.5682,"a",@progbits
	.align 4
	.type	__FUNCTION__.5682, @object
	.size	__FUNCTION__.5682, 13
__FUNCTION__.5682:
	.string	"iotx_mc_init"
	.section	.rodata.__func__.5681,"a",@progbits
	.align 4
	.type	__func__.5681, @object
	.size	__func__.5681, 13
__func__.5681:
	.string	"iotx_mc_init"
	.section	.rodata.__func__.5796,"a",@progbits
	.align 4
	.type	__func__.5796, @object
	.size	__func__.5796, 19
__func__.5796:
	.string	"IOT_MQTT_Construct"
	.section	.rodata.__FUNCTION__.5795,"a",@progbits
	.align 4
	.type	__FUNCTION__.5795, @object
	.size	__FUNCTION__.5795, 19
__FUNCTION__.5795:
	.string	"IOT_MQTT_Construct"
	.section	.rodata.__func__.5435,"a",@progbits
	.align 4
	.type	__func__.5435, @object
	.size	__func__.5435, 24
__func__.5435:
	.string	"iotx_mc_push_pubInfo_to"
	.section	.rodata.__FUNCTION__.5433,"a",@progbits
	.align 4
	.type	__FUNCTION__.5433, @object
	.size	__FUNCTION__.5433, 24
__FUNCTION__.5433:
	.string	"iotx_mc_push_pubInfo_to"
	.section	.rodata.__FUNCTION__.5376,"a",@progbits
	.align 4
	.type	__FUNCTION__.5376, @object
	.size	__FUNCTION__.5376, 12
__FUNCTION__.5376:
	.string	"MQTTPublish"
	.section	.rodata.__FUNCTION__.5366,"a",@progbits
	.align 4
	.type	__FUNCTION__.5366, @object
	.size	__FUNCTION__.5366, 12
__FUNCTION__.5366:
	.string	"MQTTConnect"
	.text
.Letext0:
	.section	.text.unlikely.iotx_mc_set_client_state
.Letext_cold0:
	.file 2 "/home/stone/Documents/Ali_IOT/build/compiler/gcc-arm-none-eabi/Linux64/arm-none-eabi/include/machine/_default_types.h"
	.file 3 "/home/stone/Documents/Ali_IOT/build/compiler/gcc-arm-none-eabi/Linux64/arm-none-eabi/include/sys/_stdint.h"
	.file 4 "./framework/protocol/linkkit/iotkit/base/utils/iot_export.h"
	.file 5 "./framework/protocol/linkkit/iotkit/base/utils/exports/iot_export_errno.h"
	.file 6 "./framework/protocol/linkkit/iotkit/base/log/LITE-log/lite-log.h"
	.file 7 "./framework/protocol/linkkit/iotkit/base/utils/misc/utils_net.h"
	.file 8 "./framework/protocol/linkkit/iotkit/base/utils/misc/utils_list.h"
	.file 9 "./framework/protocol/linkkit/iotkit/base/utils/misc/utils_timer.h"
	.file 10 "framework/connectivity/mqtt/MQTTPacket/MQTTPacket.h"
	.file 11 "framework/connectivity/mqtt/MQTTPacket/MQTTConnect.h"
	.file 12 "framework/connectivity/mqtt/iot_export_mqtt.h"
	.file 13 "framework/connectivity/mqtt/mqtt_client.h"
	.file 14 "./framework/protocol/linkkit/iotkit/sdk-encap/iot_import.h"
	.file 15 "./framework/protocol/linkkit/iotkit/base/utils/LITE-utils/src/lite-utils.h"
	.file 16 "./include/aos/yloop.h"
	.file 17 "/home/stone/Documents/Ali_IOT/build/compiler/gcc-arm-none-eabi/Linux64/arm-none-eabi/include/string.h"
	.file 18 "framework/connectivity/mqtt/MQTTPacket/MQTTPublish.h"
	.file 19 "framework/connectivity/mqtt/MQTTPacket/MQTTSubscribe.h"
	.file 20 "framework/connectivity/mqtt/MQTTPacket/MQTTUnsubscribe.h"
	.file 21 "./framework/protocol/linkkit/iotkit/iotkit-system/lite-system.h"
	.file 22 "./framework/protocol/linkkit/iotkit/sdk-encap/imports/iot_import_product.h"
	.file 23 "./include/aos/log.h"
	.section	.note.GNU-stack,"",@progbits
