	.file	"mqtt-example.c"
	.text
.Ltext0:
	.section	.rodata.str1.1,"aMS",@progbits,1
.LC0:
	.string	"----"
.LC1:
	.string	"[%06d]<V> "
.LC2:
	.string	"\r\n"
.LC3:
	.string	"Topic: '%.*s' (Length: %d)"
.LC4:
	.string	"Payload: '%.*s' (Length: %d)"
	.section	.text.unlikely.mqtt_sub_callback,"ax",@progbits
.LCOLDB5:
	.section	.text.mqtt_sub_callback,"ax",@progbits
.LHOTB5:
	.section	.text.unlikely.mqtt_sub_callback
.Ltext_cold0:
	.section	.text.mqtt_sub_callback
	.type	mqtt_sub_callback, @function
mqtt_sub_callback:
.LFB18:
	.file 1 "example/mqttapp/mqtt-example.c"
	.loc 1 71 0
	.cfi_startproc
.LVL0:
	pushl	%ebp
	.cfi_def_cfa_offset 8
	.cfi_offset 5, -8
	movl	%esp, %ebp
	.cfi_def_cfa_register 5
	pushl	%edi
	pushl	%esi
	pushl	%ebx
	subl	$28, %esp
	.cfi_offset 7, -12
	.cfi_offset 6, -16
	.cfi_offset 3, -20
	.loc 1 71 0
	movl	16(%ebp), %eax
	movl	12(%ebp), %esi
	movl	20(%ebp), %ebx
	movl	8(%ebp), %edi
	movl	%eax, -28(%ebp)
	.loc 1 72 0
	call	aos_now_ms
.LVL1:
	pushl	%edx
	pushl	$.LC0
	pushl	%eax
	pushl	$.LC1
	call	csp_printf
.LVL2:
	movl	$.LC0, (%esp)
	call	csp_printf
.LVL3:
	movl	$.LC2, (%esp)
	call	csp_printf
.LVL4:
	.loc 1 73 0
	call	aos_now_ms
.LVL5:
	popl	%ecx
	popl	%edx
	pushl	%esi
	pushl	%edi
	pushl	%esi
	pushl	$.LC3
	pushl	%eax
	pushl	$.LC1
	call	csp_printf
.LVL6:
	addl	$32, %esp
	pushl	%esi
	pushl	%edi
	pushl	%esi
	pushl	$.LC3
	call	csp_printf
.LVL7:
	movl	$.LC2, (%esp)
	call	csp_printf
.LVL8:
	.loc 1 77 0
	call	aos_now_ms
.LVL9:
	popl	%ecx
	popl	%esi
	pushl	%ebx
	pushl	-28(%ebp)
	pushl	%ebx
	pushl	$.LC4
	pushl	%eax
	pushl	$.LC1
	call	csp_printf
.LVL10:
	addl	$32, %esp
	pushl	%ebx
	pushl	-28(%ebp)
	pushl	%ebx
	pushl	$.LC4
	call	csp_printf
.LVL11:
	movl	$.LC2, (%esp)
	call	csp_printf
.LVL12:
	.loc 1 81 0
	call	aos_now_ms
.LVL13:
	addl	$12, %esp
	pushl	$.LC0
	pushl	%eax
	pushl	$.LC1
	call	csp_printf
.LVL14:
	movl	$.LC0, (%esp)
	call	csp_printf
.LVL15:
	movl	$.LC2, 8(%ebp)
	addl	$16, %esp
	.loc 1 93 0
	leal	-12(%ebp), %esp
	popl	%ebx
	.cfi_restore 3
	popl	%esi
	.cfi_restore 6
	popl	%edi
	.cfi_restore 7
	popl	%ebp
	.cfi_restore 5
	.cfi_def_cfa 4, 4
	.loc 1 81 0
	jmp	csp_printf
.LVL16:
	.cfi_endproc
.LFE18:
	.size	mqtt_sub_callback, .-mqtt_sub_callback
	.section	.text.unlikely.mqtt_sub_callback
.LCOLDE5:
	.section	.text.mqtt_sub_callback
.LHOTE5:
	.section	.rodata.str1.1
.LC6:
	.string	"event_type %d\n"
	.section	.text.unlikely.smartled_event_handler,"ax",@progbits
.LCOLDB7:
	.section	.text.smartled_event_handler,"ax",@progbits
.LHOTB7:
	.type	smartled_event_handler, @function
smartled_event_handler:
.LFB21:
	.loc 1 161 0
	.cfi_startproc
.LVL17:
	pushl	%ebp
	.cfi_def_cfa_offset 8
	.cfi_offset 5, -8
	movl	%esp, %ebp
	.cfi_def_cfa_register 5
	pushl	%ebx
	pushl	%eax
	.cfi_offset 3, -12
	.loc 1 161 0
	movl	8(%ebp), %ebx
	.loc 1 162 0
	call	aos_now_ms
.LVL18:
	pushl	%ebx
	pushl	$.LC6
	pushl	%eax
	pushl	$.LC1
	call	csp_printf
.LVL19:
	popl	%edx
	popl	%ecx
	pushl	%ebx
	pushl	$.LC6
	call	csp_printf
.LVL20:
	movl	$.LC2, (%esp)
	call	csp_printf
.LVL21:
	.loc 1 169 0
	xorl	%eax, %eax
	movl	-4(%ebp), %ebx
	leave
	.cfi_restore 5
	.cfi_restore 3
	.cfi_def_cfa 4, 4
	ret
	.cfi_endproc
.LFE21:
	.size	smartled_event_handler, .-smartled_event_handler
	.section	.text.unlikely.smartled_event_handler
.LCOLDE7:
	.section	.text.smartled_event_handler
.LHOTE7:
	.section	.rodata.str1.1
.LC8:
	.string	"/yfTuLfBJTiL/TestDeviceForDemo/get"
.LC9:
	.string	"IOT_MQTT_Subscribe() failed, rc = %d"
.LC10:
	.string	"{\"attr_name\":\"temperature\", \"attr_value\":\"%d\"}"
.LC11:
	.string	"Error occur! Exit program"
.LC12:
	.string	"/yfTuLfBJTiL/TestDeviceForDemo/update"
.LC13:
	.string	"error occur when publish"
.LC14:
	.string	"packet-id=%u, publish topic msg=%s"
	.section	.text.unlikely.mqtt_work,"ax",@progbits
.LCOLDB15:
	.section	.text.mqtt_work,"ax",@progbits
.LHOTB15:
	.type	mqtt_work, @function
mqtt_work:
.LFB19:
	.loc 1 102 0
	.cfi_startproc
.LVL22:
	pushl	%ebp
	.cfi_def_cfa_offset 8
	.cfi_offset 5, -8
	movl	%esp, %ebp
	.cfi_def_cfa_register 5
	pushl	%ebx
	.cfi_offset 3, -12
	pushl	%ebx
	.loc 1 106 0
	cmpl	$0, is_subscribed
	jne	.L6
	.loc 1 108 0
	pushl	%ecx
	pushl	$0
	pushl	$mqtt_sub_callback
	pushl	$.LC8
	call	mqtt_subscribe
.LVL23:
	.loc 1 109 0
	addl	$16, %esp
	testl	%eax, %eax
	.loc 1 108 0
	movl	%eax, %ebx
.LVL24:
	.loc 1 109 0
	jns	.L7
	.loc 1 111 0 discriminator 1
	call	aos_now_ms
.LVL25:
	pushl	%ebx
	pushl	$.LC9
	pushl	%eax
	pushl	$.LC1
	call	csp_printf
.LVL26:
	popl	%eax
	popl	%edx
	pushl	%ebx
	pushl	$.LC9
	call	csp_printf
.LVL27:
	movl	$.LC2, (%esp)
	call	csp_printf
.LVL28:
	addl	$16, %esp
.L7:
	.loc 1 114 0
	pushl	%ecx
	pushl	%ecx
	pushl	$0
	pushl	$ota_init
	.loc 1 113 0
	movl	$1, is_subscribed
	.loc 1 114 0
	call	aos_schedule_call
.LVL29:
	jmp	.L14
.LVL30:
.L6:
.LBB2:
	.loc 1 119 0
	pushl	cnt
	pushl	$.LC10
	pushl	$128
	pushl	$msg_pub
	call	snprintf
.LVL31:
	.loc 1 120 0
	addl	$16, %esp
	testl	%eax, %eax
	.loc 1 119 0
	movl	%eax, %ebx
.LVL32:
	.loc 1 120 0
	jns	.L9
	.loc 1 121 0 discriminator 1
	call	aos_now_ms
.LVL33:
	pushl	%edx
	pushl	$.LC11
	pushl	%eax
	pushl	$.LC1
	call	csp_printf
.LVL34:
	movl	$.LC11, (%esp)
	call	csp_printf
.LVL35:
	movl	$.LC2, (%esp)
	call	csp_printf
.LVL36:
	addl	$16, %esp
.L9:
	.loc 1 123 0
	pushl	%ebx
	pushl	$msg_pub
	pushl	$1
	pushl	$.LC12
	call	mqtt_publish
.LVL37:
	.loc 1 124 0
	addl	$16, %esp
	testl	%eax, %eax
	.loc 1 123 0
	movl	%eax, %ebx
.LVL38:
	.loc 1 124 0
	jns	.L10
	.loc 1 125 0 discriminator 1
	call	aos_now_ms
.LVL39:
	pushl	%ecx
	pushl	$.LC13
	pushl	%eax
	pushl	$.LC1
	call	csp_printf
.LVL40:
	movl	$.LC13, (%esp)
	call	csp_printf
.LVL41:
	movl	$.LC2, (%esp)
	call	csp_printf
.LVL42:
	addl	$16, %esp
.L10:
	.loc 1 128 0 discriminator 1
	call	aos_now_ms
.LVL43:
	subl	$12, %esp
	pushl	$msg_pub
	pushl	%ebx
	pushl	$.LC14
	pushl	%eax
	pushl	$.LC1
	call	csp_printf
.LVL44:
	addl	$28, %esp
	pushl	$msg_pub
	pushl	%ebx
	pushl	$.LC14
	call	csp_printf
.LVL45:
	movl	$.LC2, (%esp)
	call	csp_printf
.LVL46:
.L14:
.LBE2:
	.loc 1 130 0 discriminator 1
	movl	cnt, %eax
.LBB3:
	.loc 1 128 0 discriminator 1
	addl	$16, %esp
.LBE3:
	.loc 1 130 0 discriminator 1
	incl	%eax
	.loc 1 131 0 discriminator 1
	cmpl	$199, %eax
	.loc 1 130 0 discriminator 1
	movl	%eax, cnt
	.loc 1 131 0 discriminator 1
	jg	.L11
	.loc 1 132 0
	pushl	%edx
	pushl	$0
	pushl	$mqtt_work
	pushl	$3000
	call	aos_post_delayed_action
.LVL47:
	jmp	.L15
.L11:
	.loc 1 134 0
	pushl	%eax
	pushl	$0
	pushl	$mqtt_work
	pushl	$3000
	call	aos_cancel_delayed_action
.LVL48:
	.loc 1 135 0
	movl	$.LC8, (%esp)
	call	mqtt_unsubscribe
.LVL49:
	.loc 1 136 0
	movl	$200, (%esp)
	call	aos_msleep
.LVL50:
	.loc 1 137 0
	call	mqtt_deinit_instance
.LVL51:
	.loc 1 138 0
	movl	$0, is_subscribed
	.loc 1 139 0
	movl	$0, cnt
.L15:
	addl	$16, %esp
	.loc 1 142 0
	movl	-4(%ebp), %ebx
.LVL52:
	leave
	.cfi_restore 5
	.cfi_restore 3
	.cfi_def_cfa 4, 4
	ret
	.cfi_endproc
.LFE19:
	.size	mqtt_work, .-mqtt_work
	.section	.text.unlikely.mqtt_work
.LCOLDE15:
	.section	.text.mqtt_work
.LHOTE15:
	.section	.text.unlikely.ota_init,"ax",@progbits
.LCOLDB16:
	.section	.text.ota_init,"ax",@progbits
.LHOTB16:
	.type	ota_init, @function
ota_init:
.LFB25:
	.loc 1 248 0
	.cfi_startproc
.LVL53:
	pushl	%ebp
	.cfi_def_cfa_offset 8
	.cfi_offset 5, -8
	movl	%esp, %ebp
	.cfi_def_cfa_register 5
	subl	$12, %esp
	.loc 1 249 0
	pushl	$0
	pushl	$5
	pushl	$1
	call	aos_post_event
.LVL54:
	.loc 1 250 0
	addl	$16, %esp
	leave
	.cfi_restore 5
	.cfi_def_cfa 4, 4
	ret
	.cfi_endproc
.LFE25:
	.size	ota_init, .-ota_init
	.section	.text.unlikely.ota_init
.LCOLDE16:
	.section	.text.ota_init
.LHOTE16:
	.section	.rodata.str1.1
.LC17:
	.string	"mqtt_service_event!"
	.section	.text.unlikely.mqtt_service_event,"ax",@progbits
.LCOLDB18:
	.section	.text.mqtt_service_event,"ax",@progbits
.LHOTB18:
	.type	mqtt_service_event, @function
mqtt_service_event:
.LFB20:
	.loc 1 147 0
	.cfi_startproc
.LVL55:
	pushl	%ebp
	.cfi_def_cfa_offset 8
	.cfi_offset 5, -8
	movl	%esp, %ebp
	.cfi_def_cfa_register 5
	subl	$8, %esp
	.loc 1 147 0
	movl	8(%ebp), %eax
	.loc 1 149 0
	cmpw	$1, 4(%eax)
	jne	.L19
	.loc 1 153 0
	cmpw	$8, 6(%eax)
	jne	.L19
.LVL56:
.LBB6:
.LBB7:
	.loc 1 156 0
	call	aos_now_ms
.LVL57:
	pushl	%edx
	pushl	$.LC17
	pushl	%eax
	pushl	$.LC1
	call	csp_printf
.LVL58:
	movl	$.LC17, (%esp)
	call	csp_printf
.LVL59:
	movl	$.LC2, (%esp)
	call	csp_printf
.LVL60:
	.loc 1 157 0
	addl	$16, %esp
	movl	$0, 8(%ebp)
.LVL61:
.LBE7:
.LBE6:
	.loc 1 158 0
	leave
	.cfi_remember_state
	.cfi_restore 5
	.cfi_def_cfa 4, 4
.LBB9:
.LBB8:
	.loc 1 157 0
	jmp	mqtt_work
.LVL62:
.L19:
	.cfi_restore_state
.LBE8:
.LBE9:
	.loc 1 158 0
	leave
	.cfi_restore 5
	.cfi_def_cfa 4, 4
	ret
	.cfi_endproc
.LFE20:
	.size	mqtt_service_event, .-mqtt_service_event
	.section	.text.unlikely.mqtt_service_event
.LCOLDE18:
	.section	.text.mqtt_service_event
.LHOTE18:
	.section	.rodata.str1.1
.LC19:
	.string	"yfTuLfBJTiL"
.LC20:
	.string	"TestDeviceForDemo"
.LC21:
	.string	"fSCl9Ns5YPnYN8Ocg0VEel1kXFnRlV6c"
.LC22:
	.string	"mqtt_init_instance failed\n"
	.section	.text.unlikely.mqtt_client_example,"ax",@progbits
.LCOLDB23:
	.section	.text.mqtt_client_example,"ax",@progbits
.LHOTB23:
	.globl	mqtt_client_example
	.type	mqtt_client_example, @function
mqtt_client_example:
.LFB22:
	.loc 1 174 0
	.cfi_startproc
	pushl	%ebp
	.cfi_def_cfa_offset 8
	.cfi_offset 5, -8
	.loc 1 175 0
	movl	$mqtt, %edx
	xorl	%eax, %eax
	movl	$30, %ecx
	.loc 1 174 0
	movl	%esp, %ebp
	.cfi_def_cfa_register 5
	pushl	%edi
	.cfi_offset 7, -12
	.loc 1 175 0
	movl	%edx, %edi
	.loc 1 174 0
	subl	$8, %esp
	.loc 1 175 0
	rep stosl
	.loc 1 177 0
	pushl	$15
	pushl	$.LC19
	pushl	%edx
	call	strncpy
.LVL63:
	.loc 1 178 0
	addl	$12, %esp
	pushl	$31
	pushl	$.LC20
	pushl	$mqtt+16
	call	strncpy
.LVL64:
	.loc 1 179 0
	addl	$12, %esp
	pushl	$47
	pushl	$.LC21
	pushl	$mqtt+48
	call	strncpy
.LVL65:
	.loc 1 186 0
	pushl	$2048
	pushl	$mqtt+48
	pushl	$mqtt+16
	pushl	$mqtt
	.loc 1 181 0
	movl	$2048, mqtt+96
	.loc 1 182 0
	movl	$8, mqtt+100
	.loc 1 184 0
	movl	$smartled_event_handler, mqtt+108
	.loc 1 186 0
	call	mqtt_init_instance
.LVL66:
	addl	$32, %esp
	testl	%eax, %eax
	jns	.L23
.LBB12:
.LBB13:
	.loc 1 187 0
	call	aos_now_ms
.LVL67:
	pushl	%edx
	pushl	$.LC22
	pushl	%eax
	pushl	$.LC1
	call	csp_printf
.LVL68:
	movl	$.LC22, (%esp)
	call	csp_printf
.LVL69:
	movl	$.LC2, (%esp)
	call	csp_printf
.LVL70:
	addl	$16, %esp
	orl	$-1, %eax
	jmp	.L24
.L23:
.LBE13:
.LBE12:
	.loc 1 190 0
	pushl	%eax
	pushl	$0
	pushl	$mqtt_service_event
	pushl	$1
	call	aos_register_event_filter
.LVL71:
	.loc 1 192 0
	addl	$16, %esp
	xorl	%eax, %eax
.L24:
	.loc 1 194 0
	movl	-4(%ebp), %edi
	leave
	.cfi_restore 5
	.cfi_restore 7
	.cfi_def_cfa 4, 4
	ret
	.cfi_endproc
.LFE22:
	.size	mqtt_client_example, .-mqtt_client_example
	.section	.text.unlikely.mqtt_client_example
.LCOLDE23:
	.section	.text.mqtt_client_example
.LHOTE23:
	.section	.text.unlikely.handle_mqtt,"ax",@progbits
.LCOLDB24:
	.section	.text.handle_mqtt,"ax",@progbits
.LHOTB24:
	.type	handle_mqtt, @function
handle_mqtt:
.LFB23:
	.loc 1 197 0
	.cfi_startproc
.LVL72:
	pushl	%ebp
	.cfi_def_cfa_offset 8
	.cfi_offset 5, -8
	movl	%esp, %ebp
	.cfi_def_cfa_register 5
	.loc 1 199 0
	popl	%ebp
	.cfi_restore 5
	.cfi_def_cfa 4, 4
	.loc 1 198 0
	jmp	mqtt_client_example
.LVL73:
	.cfi_endproc
.LFE23:
	.size	handle_mqtt, .-handle_mqtt
	.section	.text.unlikely.handle_mqtt
.LCOLDE24:
	.section	.text.handle_mqtt
.LHOTE24:
	.section	.rodata.str1.1
.LC25:
	.string	"wifi_service_event!"
	.section	.text.unlikely.wifi_service_event,"ax",@progbits
.LCOLDB26:
	.section	.text.wifi_service_event,"ax",@progbits
.LHOTB26:
	.type	wifi_service_event, @function
wifi_service_event:
.LFB17:
	.loc 1 58 0
	.cfi_startproc
.LVL74:
	pushl	%ebp
	.cfi_def_cfa_offset 8
	.cfi_offset 5, -8
	movl	%esp, %ebp
	.cfi_def_cfa_register 5
	subl	$8, %esp
	.loc 1 58 0
	movl	8(%ebp), %eax
	.loc 1 59 0
	cmpw	$2, 4(%eax)
	jne	.L28
	.loc 1 63 0
	cmpw	$5, 6(%eax)
	jne	.L28
.LVL75:
.LBB16:
.LBB17:
	.loc 1 66 0
	call	aos_now_ms
.LVL76:
	pushl	%edx
	pushl	$.LC25
	pushl	%eax
	pushl	$.LC1
	call	csp_printf
.LVL77:
	movl	$.LC25, (%esp)
	call	csp_printf
.LVL78:
	movl	$.LC2, (%esp)
	call	csp_printf
.LVL79:
	.loc 1 67 0
	addl	$16, %esp
.LBE17:
.LBE16:
	.loc 1 68 0
	leave
	.cfi_remember_state
	.cfi_restore 5
	.cfi_def_cfa 4, 4
.LBB19:
.LBB18:
	.loc 1 67 0
	jmp	mqtt_client_example
.LVL80:
.L28:
	.cfi_restore_state
.LBE18:
.LBE19:
	.loc 1 68 0
	leave
	.cfi_restore 5
	.cfi_def_cfa 4, 4
	ret
	.cfi_endproc
.LFE17:
	.size	wifi_service_event, .-wifi_service_event
	.section	.text.unlikely.wifi_service_event
.LCOLDE26:
	.section	.text.wifi_service_event
.LHOTE26:
	.section	.text.unlikely.application_start,"ax",@progbits
.LCOLDB27:
	.section	.text.application_start,"ax",@progbits
.LHOTB27:
	.globl	application_start
	.type	application_start, @function
application_start:
.LFB24:
	.loc 1 220 0
	.cfi_startproc
.LVL81:
	pushl	%ebp
	.cfi_def_cfa_offset 8
	.cfi_offset 5, -8
	movl	%esp, %ebp
	.cfi_def_cfa_register 5
	subl	$20, %esp
	.loc 1 234 0
	pushl	$5
	call	aos_set_log_level
.LVL82:
	.loc 1 236 0
	addl	$12, %esp
	pushl	$0
	pushl	$wifi_service_event
	pushl	$2
	call	aos_register_event_filter
.LVL83:
	.loc 1 238 0
	call	netmgr_init
.LVL84:
	.loc 1 239 0
	movl	$0, (%esp)
	call	netmgr_start
.LVL85:
	.loc 1 241 0
	movl	$mqttcmd, (%esp)
	call	aos_cli_register_command
.LVL86:
	.loc 1 243 0
	call	aos_loop_run
.LVL87:
	.loc 1 245 0
	xorl	%eax, %eax
	leave
	.cfi_restore 5
	.cfi_def_cfa 4, 4
	ret
	.cfi_endproc
.LFE24:
	.size	application_start, .-application_start
	.section	.text.unlikely.application_start
.LCOLDE27:
	.section	.text.application_start
.LHOTE27:
	.section	.rodata.str1.1
.LC28:
	.string	"mqtt"
.LC29:
	.string	"factory mqtt"
	.section	.data.mqttcmd,"aw",@progbits
	.align 4
	.type	mqttcmd, @object
	.size	mqttcmd, 12
mqttcmd:
	.long	.LC28
	.long	.LC29
	.long	handle_mqtt
	.section	.bss.mqtt,"aw",@nobits
	.align 32
	.type	mqtt, @object
	.size	mqtt, 120
mqtt:
	.zero	120
	.globl	msg_pub
	.section	.bss.msg_pub,"aw",@nobits
	.align 32
	.type	msg_pub, @object
	.size	msg_pub, 128
msg_pub:
	.zero	128
	.section	.bss.is_subscribed,"aw",@nobits
	.align 4
	.type	is_subscribed, @object
	.size	is_subscribed, 4
is_subscribed:
	.zero	4
	.globl	cnt
	.section	.bss.cnt,"aw",@nobits
	.align 4
	.type	cnt, @object
	.size	cnt, 4
cnt:
	.zero	4
	.text
.Letext0:
	.section	.text.unlikely.mqtt_sub_callback
.Letext_cold0:
	.file 2 "/home/stone/Documents/Ali_IOT/build/compiler/gcc-arm-none-eabi/Linux64/arm-none-eabi/include/machine/_default_types.h"
	.file 3 "/home/stone/Documents/Ali_IOT/build/compiler/gcc-arm-none-eabi/Linux64/arm-none-eabi/include/sys/_stdint.h"
	.file 4 "./include/aos/yloop.h"
	.file 5 "./include/aos/cli.h"
	.file 6 "./include/aos/log.h"
	.file 7 "./framework/connectivity/mqtt/./iot_export_mqtt.h"
	.file 8 "./include/aos/kernel.h"
	.file 9 "./include/aos/internal/log_impl.h"
	.file 10 "/home/stone/Documents/Ali_IOT/build/compiler/gcc-arm-none-eabi/Linux64/arm-none-eabi/include/stdio.h"
	.file 11 "./framework/connectivity/mqtt/./mqtt_instance.h"
	.file 12 "/home/stone/Documents/Ali_IOT/build/compiler/gcc-arm-none-eabi/Linux64/arm-none-eabi/include/string.h"
	.file 13 "./framework/netmgr/include/netmgr.h"
	.section	.note.GNU-stack,"",@progbits
