	.file	"MQTTSerializePublish.c"
	.text
.Ltext0:
	.section	.text.unlikely.MQTTSerialize_publishLength,"ax",@progbits
.LCOLDB0:
	.section	.text.MQTTSerialize_publishLength,"ax",@progbits
.LHOTB0:
	.section	.text.unlikely.MQTTSerialize_publishLength
.Ltext_cold0:
	.section	.text.MQTTSerialize_publishLength
	.globl	MQTTSerialize_publishLength
	.type	MQTTSerialize_publishLength, @function
MQTTSerialize_publishLength:
.LFB0:
	.file 1 "framework/connectivity/mqtt/MQTTPacket/MQTTSerializePublish.c"
	.loc 1 31 0
	.cfi_startproc
.LVL0:
	pushl	%ebp
	.cfi_def_cfa_offset 8
	.cfi_offset 5, -8
	.loc 1 34 0
	movl	$3, %ecx
	.loc 1 31 0
	movl	%esp, %ebp
	.cfi_def_cfa_register 5
	pushl	%edi
	pushl	%esi
	.cfi_offset 7, -12
	.cfi_offset 6, -16
	.loc 1 34 0
	leal	12(%ebp), %esi
	subl	$16, %esp
	movl	%esp, %edi
	rep movsl
	call	MQTTstrlen
.LVL1:
	movl	24(%ebp), %edx
	.loc 1 35 0
	addl	$16, %esp
	.loc 1 36 0
	cmpl	$0, 8(%ebp)
	.loc 1 34 0
	leal	2(%eax,%edx), %eax
.LVL2:
	.loc 1 36 0
	leal	2(%eax), %edx
	cmovg	%edx, %eax
.LVL3:
	.loc 1 38 0
	leal	-8(%ebp), %esp
	popl	%esi
	.cfi_restore 6
	popl	%edi
	.cfi_restore 7
	popl	%ebp
	.cfi_restore 5
	.cfi_def_cfa 4, 4
	ret
	.cfi_endproc
.LFE0:
	.size	MQTTSerialize_publishLength, .-MQTTSerialize_publishLength
	.section	.text.unlikely.MQTTSerialize_publishLength
.LCOLDE0:
	.section	.text.MQTTSerialize_publishLength
.LHOTE0:
	.section	.text.unlikely.MQTTSerialize_publish,"ax",@progbits
.LCOLDB1:
	.section	.text.MQTTSerialize_publish,"ax",@progbits
.LHOTB1:
	.globl	MQTTSerialize_publish
	.type	MQTTSerialize_publish, @function
MQTTSerialize_publish:
.LFB1:
	.loc 1 56 0
	.cfi_startproc
.LVL4:
	pushl	%ebp
	.cfi_def_cfa_offset 8
	.cfi_offset 5, -8
	.loc 1 62 0
	movl	$3, %ecx
	.loc 1 56 0
	movl	%esp, %ebp
	.cfi_def_cfa_register 5
	pushl	%edi
	pushl	%esi
	pushl	%ebx
	.cfi_offset 7, -12
	.cfi_offset 6, -16
	.cfi_offset 3, -20
	.loc 1 62 0
	leal	32(%ebp), %esi
	.loc 1 56 0
	subl	$56, %esp
	.loc 1 56 0
	movl	8(%ebp), %eax
	.loc 1 62 0
	pushl	48(%ebp)
	.loc 1 56 0
	movl	16(%ebp), %ebx
	.loc 1 62 0
	subl	$12, %esp
	.loc 1 56 0
	movl	%eax, -44(%ebp)
	movl	24(%ebp), %eax
	.loc 1 62 0
	movl	%esp, %edi
	.loc 1 56 0
	movl	%eax, -48(%ebp)
	movl	28(%ebp), %eax
	movl	%eax, -52(%ebp)
	movl	44(%ebp), %eax
	movl	%eax, -56(%ebp)
	movl	%gs:20, %eax
	movl	%eax, -28(%ebp)
	xorl	%eax, %eax
	.loc 1 57 0
	movl	-44(%ebp), %eax
	movl	%eax, -32(%ebp)
.LVL5:
	.loc 1 62 0
	rep movsl
	pushl	20(%ebp)
	call	MQTTSerialize_publishLength
.LVL6:
	addl	$20, %esp
	movl	%eax, %esi
.LVL7:
	pushl	%eax
	call	MQTTPacket_len
.LVL8:
	addl	$16, %esp
	cmpl	12(%ebp), %eax
	movl	$-2, %edx
	jg	.L5
	.loc 1 69 0
	andl	$1, %ebx
	.loc 1 72 0
	pushl	%edx
	pushl	%edx
	.loc 1 69 0
	leal	0(,%ebx,8), %eax
	orl	$48, %eax
	movl	%eax, %ebx
	.loc 1 70 0
	movl	20(%ebp), %eax
	andl	$3, %eax
	addl	%eax, %eax
	orl	%ebx, %eax
	.loc 1 71 0
	movl	-48(%ebp), %ebx
	andl	$-2, %eax
	andl	$1, %ebx
	.loc 1 72 0
	orl	%ebx, %eax
	leal	-32(%ebp), %ebx
	pushl	%eax
	pushl	%ebx
	call	writeChar
.LVL9:
	.loc 1 74 0
	popl	%ecx
	popl	%edi
	pushl	%esi
	pushl	-32(%ebp)
	.loc 1 76 0
	leal	32(%ebp), %esi
.LVL10:
	.loc 1 74 0
	call	MQTTPacket_encode
.LVL11:
	.loc 1 76 0
	subl	$12, %esp
	.loc 1 74 0
	addl	%eax, -32(%ebp)
	.loc 1 76 0
	movl	$3, %ecx
	movl	%esp, %edi
	rep movsl
	pushl	%ebx
	call	writeMQTTString
.LVL12:
	.loc 1 78 0
	addl	$32, %esp
	cmpl	$0, 20(%ebp)
	jle	.L6
	.loc 1 79 0
	pushl	%eax
	pushl	%eax
	movzwl	-52(%ebp), %eax
	pushl	%eax
	pushl	%ebx
	call	writeInt
.LVL13:
	addl	$16, %esp
.L6:
	.loc 1 81 0
	movl	-32(%ebp), %edi
	movl	-56(%ebp), %esi
	movl	48(%ebp), %ecx
	rep movsb
.LVL14:
	.loc 1 84 0
	movl	-32(%ebp), %edx
	addl	48(%ebp), %edx
.LVL15:
	subl	-44(%ebp), %edx
.LVL16:
.L5:
	.loc 1 88 0
	movl	-28(%ebp), %ecx
	xorl	%gs:20, %ecx
	movl	%edx, %eax
	je	.L7
	call	__stack_chk_fail
.LVL17:
.L7:
	leal	-12(%ebp), %esp
	popl	%ebx
	.cfi_restore 3
	popl	%esi
	.cfi_restore 6
	popl	%edi
	.cfi_restore 7
	popl	%ebp
	.cfi_restore 5
	.cfi_def_cfa 4, 4
	ret
	.cfi_endproc
.LFE1:
	.size	MQTTSerialize_publish, .-MQTTSerialize_publish
	.section	.text.unlikely.MQTTSerialize_publish
.LCOLDE1:
	.section	.text.MQTTSerialize_publish
.LHOTE1:
	.section	.text.unlikely.MQTTSerialize_ack,"ax",@progbits
.LCOLDB2:
	.section	.text.MQTTSerialize_ack,"ax",@progbits
.LHOTB2:
	.globl	MQTTSerialize_ack
	.type	MQTTSerialize_ack, @function
MQTTSerialize_ack:
.LFB2:
	.loc 1 102 0
	.cfi_startproc
.LVL18:
	pushl	%ebp
	.cfi_def_cfa_offset 8
	.cfi_offset 5, -8
	movl	%esp, %ebp
	.cfi_def_cfa_register 5
	pushl	%edi
	pushl	%esi
	pushl	%ebx
	subl	$28, %esp
	.cfi_offset 7, -12
	.cfi_offset 6, -16
	.cfi_offset 3, -20
	.loc 1 102 0
	movl	8(%ebp), %esi
	movl	16(%ebp), %edx
	movl	%gs:20, %eax
	movl	%eax, -28(%ebp)
	xorl	%eax, %eax
.LVL19:
	.loc 1 107 0
	cmpl	$3, 12(%ebp)
	.loc 1 102 0
	movl	20(%ebp), %ecx
	movl	$-2, %eax
	movl	24(%ebp), %ebx
	.loc 1 105 0
	movl	%esi, -32(%ebp)
	.loc 1 107 0
	jle	.L13
	.loc 1 112 0
	movl	%edx, %eax
	.loc 1 113 0
	andl	$1, %ecx
	.loc 1 118 0
	movzwl	%bx, %ebx
	.loc 1 112 0
	andl	$15, %eax
	.loc 1 113 0
	sall	$3, %ecx
	sall	$4, %eax
	movl	%eax, %edi
	.loc 1 114 0
	xorl	%eax, %eax
	cmpb	$6, %dl
	sete	%al
	leal	(%eax,%eax), %edx
	movl	%edi, %eax
	.loc 1 115 0
	leal	-32(%ebp), %edi
	.loc 1 114 0
	orl	%ecx, %eax
	orl	%edx, %eax
	.loc 1 115 0
	pushl	%edx
	pushl	%edx
	movsbl	%al, %eax
	pushl	%eax
	pushl	%edi
	call	writeChar
.LVL20:
	.loc 1 117 0
	popl	%ecx
	popl	%eax
	pushl	$2
	pushl	-32(%ebp)
	call	MQTTPacket_encode
.LVL21:
	addl	%eax, -32(%ebp)
	.loc 1 118 0
	popl	%eax
	popl	%edx
	pushl	%ebx
	pushl	%edi
	call	writeInt
.LVL22:
	.loc 1 119 0
	movl	-32(%ebp), %eax
	addl	$16, %esp
	subl	%esi, %eax
.LVL23:
.L13:
	.loc 1 122 0
	movl	-28(%ebp), %esi
	xorl	%gs:20, %esi
	je	.L14
	call	__stack_chk_fail
.LVL24:
.L14:
	leal	-12(%ebp), %esp
	popl	%ebx
	.cfi_restore 3
	popl	%esi
	.cfi_restore 6
	popl	%edi
	.cfi_restore 7
	popl	%ebp
	.cfi_restore 5
	.cfi_def_cfa 4, 4
	ret
	.cfi_endproc
.LFE2:
	.size	MQTTSerialize_ack, .-MQTTSerialize_ack
	.section	.text.unlikely.MQTTSerialize_ack
.LCOLDE2:
	.section	.text.MQTTSerialize_ack
.LHOTE2:
	.section	.text.unlikely.MQTTSerialize_puback,"ax",@progbits
.LCOLDB3:
	.section	.text.MQTTSerialize_puback,"ax",@progbits
.LHOTB3:
	.globl	MQTTSerialize_puback
	.type	MQTTSerialize_puback, @function
MQTTSerialize_puback:
.LFB3:
	.loc 1 133 0
	.cfi_startproc
.LVL25:
	pushl	%ebp
	.cfi_def_cfa_offset 8
	.cfi_offset 5, -8
	movl	%esp, %ebp
	.cfi_def_cfa_register 5
	subl	$20, %esp
	.loc 1 134 0
	movzwl	16(%ebp), %eax
	pushl	%eax
	pushl	$0
	pushl	$4
	pushl	12(%ebp)
	pushl	8(%ebp)
	call	MQTTSerialize_ack
.LVL26:
	.loc 1 135 0
	leave
	.cfi_restore 5
	.cfi_def_cfa 4, 4
	ret
	.cfi_endproc
.LFE3:
	.size	MQTTSerialize_puback, .-MQTTSerialize_puback
	.section	.text.unlikely.MQTTSerialize_puback
.LCOLDE3:
	.section	.text.MQTTSerialize_puback
.LHOTE3:
	.section	.text.unlikely.MQTTSerialize_pubrel,"ax",@progbits
.LCOLDB4:
	.section	.text.MQTTSerialize_pubrel,"ax",@progbits
.LHOTB4:
	.globl	MQTTSerialize_pubrel
	.type	MQTTSerialize_pubrel, @function
MQTTSerialize_pubrel:
.LFB4:
	.loc 1 147 0
	.cfi_startproc
.LVL27:
	pushl	%ebp
	.cfi_def_cfa_offset 8
	.cfi_offset 5, -8
	movl	%esp, %ebp
	.cfi_def_cfa_register 5
	subl	$20, %esp
	.loc 1 148 0
	movzwl	20(%ebp), %eax
	pushl	%eax
	movzbl	16(%ebp), %eax
	pushl	%eax
	pushl	$6
	pushl	12(%ebp)
	pushl	8(%ebp)
	call	MQTTSerialize_ack
.LVL28:
	.loc 1 149 0
	leave
	.cfi_restore 5
	.cfi_def_cfa 4, 4
	ret
	.cfi_endproc
.LFE4:
	.size	MQTTSerialize_pubrel, .-MQTTSerialize_pubrel
	.section	.text.unlikely.MQTTSerialize_pubrel
.LCOLDE4:
	.section	.text.MQTTSerialize_pubrel
.LHOTE4:
	.section	.text.unlikely.MQTTSerialize_pubcomp,"ax",@progbits
.LCOLDB5:
	.section	.text.MQTTSerialize_pubcomp,"ax",@progbits
.LHOTB5:
	.globl	MQTTSerialize_pubcomp
	.type	MQTTSerialize_pubcomp, @function
MQTTSerialize_pubcomp:
.LFB5:
	.loc 1 160 0
	.cfi_startproc
.LVL29:
	pushl	%ebp
	.cfi_def_cfa_offset 8
	.cfi_offset 5, -8
	movl	%esp, %ebp
	.cfi_def_cfa_register 5
	subl	$20, %esp
	.loc 1 161 0
	movzwl	16(%ebp), %eax
	pushl	%eax
	pushl	$0
	pushl	$7
	pushl	12(%ebp)
	pushl	8(%ebp)
	call	MQTTSerialize_ack
.LVL30:
	.loc 1 162 0
	leave
	.cfi_restore 5
	.cfi_def_cfa 4, 4
	ret
	.cfi_endproc
.LFE5:
	.size	MQTTSerialize_pubcomp, .-MQTTSerialize_pubcomp
	.section	.text.unlikely.MQTTSerialize_pubcomp
.LCOLDE5:
	.section	.text.MQTTSerialize_pubcomp
.LHOTE5:
	.text
.Letext0:
	.section	.text.unlikely.MQTTSerialize_publishLength
.Letext_cold0:
	.file 2 "framework/connectivity/mqtt/MQTTPacket/MQTTPacket.h"
	.section	.note.GNU-stack,"",@progbits
