	.file	"MQTTDeserializePublish.c"
	.text
.Ltext0:
	.section	.text.unlikely.MQTTDeserialize_publish,"ax",@progbits
.LCOLDB0:
	.section	.text.MQTTDeserialize_publish,"ax",@progbits
.LHOTB0:
	.section	.text.unlikely.MQTTDeserialize_publish
.Ltext_cold0:
	.section	.text.MQTTDeserialize_publish
	.globl	MQTTDeserialize_publish
	.type	MQTTDeserialize_publish, @function
MQTTDeserialize_publish:
.LFB0:
	.file 1 "framework/connectivity/mqtt/MQTTPacket/MQTTDeserializePublish.c"
	.loc 1 37 0
	.cfi_startproc
.LVL0:
	pushl	%ebp
	.cfi_def_cfa_offset 8
	.cfi_offset 5, -8
	movl	%esp, %ebp
	.cfi_def_cfa_register 5
	pushl	%edi
	pushl	%esi
	pushl	%ebx
	.cfi_offset 7, -12
	.cfi_offset 6, -16
	.cfi_offset 3, -20
	.loc 1 44 0
	leal	-36(%ebp), %esi
	.loc 1 41 0
	xorl	%edi, %edi
	.loc 1 37 0
	subl	$72, %esp
	.loc 1 37 0
	movl	12(%ebp), %eax
	movl	8(%ebp), %ecx
	.loc 1 44 0
	pushl	%esi
	.loc 1 37 0
	movl	16(%ebp), %ebx
	.loc 1 42 0
	movl	$0, -32(%ebp)
	.loc 1 37 0
	movl	%eax, -44(%ebp)
	movl	20(%ebp), %eax
	movl	%ecx, -64(%ebp)
	movl	%eax, -48(%ebp)
	movl	24(%ebp), %eax
	movl	%eax, -52(%ebp)
	movl	28(%ebp), %eax
	movl	%eax, -56(%ebp)
	movl	32(%ebp), %eax
	movl	%eax, -60(%ebp)
	movl	%gs:20, %eax
	movl	%eax, -28(%ebp)
	xorl	%eax, %eax
	.loc 1 39 0
	movl	36(%ebp), %eax
	movl	%eax, -36(%ebp)
.LVL1:
	.loc 1 44 0
	call	readChar
.LVL2:
	xorl	%edx, %edx
.LVL3:
	.loc 1 45 0
	addl	$16, %esp
	movl	-64(%ebp), %ecx
	.loc 1 44 0
	movb	%al, %dl
	.loc 1 45 0
	andl	$-16, %eax
	cmpb	$48, %al
	jne	.L2
.LVL4:
	.loc 1 47 0
	movl	%edx, %eax
	shrl	$3, %eax
	andl	$1, %eax
	movb	%al, (%ecx)
	.loc 1 48 0
	movl	-44(%ebp), %ecx
	movl	%edx, %eax
	shrl	%eax
	.loc 1 49 0
	andl	$1, %edx
.LVL5:
	.loc 1 48 0
	andl	$3, %eax
	movl	%eax, (%ecx)
	.loc 1 49 0
	movb	%dl, (%ebx)
	.loc 1 51 0
	pushl	%eax
	pushl	%eax
	leal	-32(%ebp), %eax
	pushl	%eax
	pushl	-36(%ebp)
	call	MQTTPacket_decodeBuf
.LVL6:
	movl	-36(%ebp), %ebx
	.loc 1 54 0
	addl	$12, %esp
	.loc 1 51 0
	movl	%eax, %edi
.LVL7:
	addl	%eax, %ebx
	movl	%ebx, -36(%ebp)
	.loc 1 52 0
	addl	-32(%ebp), %ebx
.LVL8:
	.loc 1 54 0
	pushl	%ebx
	pushl	%esi
	pushl	-52(%ebp)
	call	readMQTTLenString
.LVL9:
	addl	$16, %esp
	testl	%eax, %eax
	je	.L2
	.loc 1 54 0 is_stmt 0 discriminator 1
	cmpl	-36(%ebp), %ebx
	js	.L2
	.loc 1 58 0 is_stmt 1
	movl	-44(%ebp), %eax
	cmpl	$0, (%eax)
	jle	.L3
	.loc 1 59 0
	subl	$12, %esp
	pushl	%esi
	call	readInt
.LVL10:
	movl	-48(%ebp), %esi
	addl	$16, %esp
	movw	%ax, (%esi)
.L3:
	.loc 1 61 0
	movl	-36(%ebp), %eax
	movl	-60(%ebp), %edi
.LVL11:
	.loc 1 62 0
	movl	-56(%ebp), %ecx
	.loc 1 61 0
	subl	%eax, %ebx
.LVL12:
	movl	%ebx, (%edi)
	.loc 1 62 0
	movl	%eax, (%ecx)
.LVL13:
	.loc 1 63 0
	movl	$1, %edi
.LVL14:
.L2:
	.loc 1 66 0
	movl	-28(%ebp), %esi
	xorl	%gs:20, %esi
	movl	%edi, %eax
	je	.L4
	call	__stack_chk_fail
.LVL15:
.L4:
	leal	-12(%ebp), %esp
	popl	%ebx
	.cfi_restore 3
	popl	%esi
	.cfi_restore 6
	popl	%edi
	.cfi_restore 7
	popl	%ebp
	.cfi_restore 5
	.cfi_def_cfa 4, 4
	ret
	.cfi_endproc
.LFE0:
	.size	MQTTDeserialize_publish, .-MQTTDeserialize_publish
	.section	.text.unlikely.MQTTDeserialize_publish
.LCOLDE0:
	.section	.text.MQTTDeserialize_publish
.LHOTE0:
	.section	.text.unlikely.MQTTDeserialize_ack,"ax",@progbits
.LCOLDB1:
	.section	.text.MQTTDeserialize_ack,"ax",@progbits
.LHOTB1:
	.globl	MQTTDeserialize_ack
	.type	MQTTDeserialize_ack, @function
MQTTDeserialize_ack:
.LFB1:
	.loc 1 80 0
	.cfi_startproc
.LVL16:
	pushl	%ebp
	.cfi_def_cfa_offset 8
	.cfi_offset 5, -8
	movl	%esp, %ebp
	.cfi_def_cfa_register 5
	pushl	%edi
	pushl	%esi
	pushl	%ebx
	.cfi_offset 7, -12
	.cfi_offset 6, -16
	.cfi_offset 3, -20
	.loc 1 87 0
	leal	-36(%ebp), %esi
	.loc 1 80 0
	subl	$56, %esp
	.loc 1 80 0
	movl	12(%ebp), %ecx
	movl	8(%ebp), %edi
	movl	%gs:20, %eax
	movl	%eax, -28(%ebp)
	xorl	%eax, %eax
	.loc 1 82 0
	movl	20(%ebp), %eax
	.loc 1 87 0
	pushl	%esi
	.loc 1 80 0
	movl	%ecx, -44(%ebp)
	movl	16(%ebp), %ebx
	.loc 1 82 0
	movl	%eax, -36(%ebp)
.LVL17:
	.loc 1 87 0
	call	readChar
.LVL18:
	xorl	%edx, %edx
.LVL19:
	.loc 1 88 0
	movl	-44(%ebp), %ecx
	.loc 1 87 0
	movb	%al, %dl
.LVL20:
	.loc 1 88 0
	movl	%edx, %eax
	.loc 1 89 0
	shrl	$4, %edx
.LVL21:
	.loc 1 88 0
	shrl	$3, %eax
	andl	$1, %eax
	movb	%al, (%ecx)
	.loc 1 89 0
	movb	%dl, (%edi)
	.loc 1 91 0
	popl	%eax
	leal	-32(%ebp), %eax
	popl	%edx
	pushl	%eax
	pushl	-36(%ebp)
	call	MQTTPacket_decodeBuf
.LVL22:
	.loc 1 94 0
	addl	$16, %esp
	.loc 1 91 0
	addl	%eax, -36(%ebp)
.LVL23:
	.loc 1 94 0
	cmpl	$1, -32(%ebp)
	jle	.L12
	.loc 1 96 0
	subl	$12, %esp
	pushl	%esi
	call	readInt
.LVL24:
	addl	$16, %esp
	movw	%ax, (%ebx)
.LVL25:
	.loc 1 98 0
	movl	$1, %eax
.LVL26:
.L12:
	.loc 1 101 0
	movl	-28(%ebp), %ebx
	xorl	%gs:20, %ebx
	je	.L13
	call	__stack_chk_fail
.LVL27:
.L13:
	leal	-12(%ebp), %esp
	popl	%ebx
	.cfi_restore 3
	popl	%esi
	.cfi_restore 6
	popl	%edi
	.cfi_restore 7
	popl	%ebp
	.cfi_restore 5
	.cfi_def_cfa 4, 4
	ret
	.cfi_endproc
.LFE1:
	.size	MQTTDeserialize_ack, .-MQTTDeserialize_ack
	.section	.text.unlikely.MQTTDeserialize_ack
.LCOLDE1:
	.section	.text.MQTTDeserialize_ack
.LHOTE1:
	.text
.Letext0:
	.section	.text.unlikely.MQTTDeserialize_publish
.Letext_cold0:
	.file 2 "framework/connectivity/mqtt/MQTTPacket/MQTTPacket.h"
	.section	.note.GNU-stack,"",@progbits
