	.file	"netbuf.c"
	.text
.Ltext0:
	.section	.text.unlikely.netbuf_new,"ax",@progbits
.LCOLDB0:
	.section	.text.netbuf_new,"ax",@progbits
.LHOTB0:
	.section	.text.unlikely.netbuf_new
.Ltext_cold0:
	.section	.text.netbuf_new
	.globl	netbuf_new
	.type	netbuf_new, @function
netbuf_new:
.LFB17:
	.file 1 "kernel/protocols/net/api/netbuf.c"
	.loc 1 64 0
	.cfi_startproc
	pushl	%ebp
	.cfi_def_cfa_offset 8
	.cfi_offset 5, -8
	movl	%esp, %ebp
	.cfi_def_cfa_register 5
	pushl	%edi
	subl	$16, %esp
	.cfi_offset 7, -12
	.loc 1 67 0
	pushl	$5
	call	memp_malloc
.LVL0:
	.loc 1 68 0
	addl	$16, %esp
	testl	%eax, %eax
	.loc 1 67 0
	movl	%eax, %edx
.LVL1:
	.loc 1 68 0
	je	.L2
	.loc 1 69 0
	movl	$4, %ecx
	xorl	%eax, %eax
.LVL2:
	movl	%edx, %edi
	rep stosl
.L2:
	.loc 1 72 0
	movl	%edx, %eax
	movl	-4(%ebp), %edi
	leave
	.cfi_restore 5
	.cfi_restore 7
	.cfi_def_cfa 4, 4
	ret
	.cfi_endproc
.LFE17:
	.size	netbuf_new, .-netbuf_new
	.section	.text.unlikely.netbuf_new
.LCOLDE0:
	.section	.text.netbuf_new
.LHOTE0:
	.section	.text.unlikely.netbuf_delete,"ax",@progbits
.LCOLDB1:
	.section	.text.netbuf_delete,"ax",@progbits
.LHOTB1:
	.globl	netbuf_delete
	.type	netbuf_delete, @function
netbuf_delete:
.LFB18:
	.loc 1 82 0
	.cfi_startproc
.LVL3:
	pushl	%ebp
	.cfi_def_cfa_offset 8
	.cfi_offset 5, -8
	movl	%esp, %ebp
	.cfi_def_cfa_register 5
	pushl	%ebx
	pushl	%edx
	.cfi_offset 3, -12
	.loc 1 82 0
	movl	8(%ebp), %ebx
	.loc 1 83 0
	testl	%ebx, %ebx
	je	.L8
	.loc 1 84 0
	movl	(%ebx), %eax
	testl	%eax, %eax
	je	.L10
	.loc 1 85 0
	subl	$12, %esp
	pushl	%eax
	call	pbuf_free
.LVL4:
	.loc 1 86 0
	movl	$0, 4(%ebx)
	movl	$0, (%ebx)
	addl	$16, %esp
.L10:
	.loc 1 88 0
	pushl	%eax
	pushl	%eax
	pushl	%ebx
	pushl	$5
	call	memp_free
.LVL5:
	addl	$16, %esp
.L8:
	.loc 1 90 0
	movl	-4(%ebp), %ebx
	leave
	.cfi_restore 5
	.cfi_restore 3
	.cfi_def_cfa 4, 4
	ret
	.cfi_endproc
.LFE18:
	.size	netbuf_delete, .-netbuf_delete
	.section	.text.unlikely.netbuf_delete
.LCOLDE1:
	.section	.text.netbuf_delete
.LHOTE1:
	.section	.rodata.str1.1,"aMS",@progbits,1
.LC2:
	.string	"netbuf_alloc: invalid buf"
	.section	.text.unlikely.netbuf_alloc,"ax",@progbits
.LCOLDB3:
	.section	.text.netbuf_alloc,"ax",@progbits
.LHOTB3:
	.globl	netbuf_alloc
	.type	netbuf_alloc, @function
netbuf_alloc:
.LFB19:
	.loc 1 103 0
	.cfi_startproc
.LVL6:
	pushl	%ebp
	.cfi_def_cfa_offset 8
	.cfi_offset 5, -8
	movl	%esp, %ebp
	.cfi_def_cfa_register 5
	pushl	%esi
	pushl	%ebx
	.cfi_offset 6, -12
	.cfi_offset 3, -16
	.loc 1 103 0
	movl	8(%ebp), %ebx
	movl	12(%ebp), %esi
	.loc 1 104 0
	testl	%ebx, %ebx
	jne	.L19
	.loc 1 104 0 discriminator 1
	subl	$12, %esp
	pushl	$.LC2
	call	bk_printf
.LVL7:
	.loc 1 104 0 discriminator 1
	addl	$16, %esp
	xorl	%eax, %eax
	jmp	.L20
.L19:
	.loc 1 107 0
	movl	(%ebx), %eax
	testl	%eax, %eax
	je	.L21
	.loc 1 108 0
	subl	$12, %esp
	pushl	%eax
	call	pbuf_free
.LVL8:
	addl	$16, %esp
.L21:
	.loc 1 110 0
	movzwl	%si, %esi
	pushl	%eax
	pushl	$0
	pushl	%esi
	pushl	$0
	call	pbuf_alloc
.LVL9:
	movl	%eax, %edx
	movl	%eax, (%ebx)
	.loc 1 111 0
	addl	$16, %esp
	.loc 1 112 0
	xorl	%eax, %eax
	.loc 1 111 0
	testl	%edx, %edx
	je	.L20
	.loc 1 117 0
	movl	4(%edx), %eax
	.loc 1 116 0
	movl	%edx, 4(%ebx)
.L20:
	.loc 1 118 0
	leal	-8(%ebp), %esp
	popl	%ebx
	.cfi_restore 3
	popl	%esi
	.cfi_restore 6
	popl	%ebp
	.cfi_restore 5
	.cfi_def_cfa 4, 4
	ret
	.cfi_endproc
.LFE19:
	.size	netbuf_alloc, .-netbuf_alloc
	.section	.text.unlikely.netbuf_alloc
.LCOLDE3:
	.section	.text.netbuf_alloc
.LHOTE3:
	.section	.rodata.str1.1
.LC4:
	.string	"netbuf_free: invalid buf"
	.section	.text.unlikely.netbuf_free,"ax",@progbits
.LCOLDB5:
	.section	.text.netbuf_free,"ax",@progbits
.LHOTB5:
	.globl	netbuf_free
	.type	netbuf_free, @function
netbuf_free:
.LFB20:
	.loc 1 128 0
	.cfi_startproc
.LVL10:
	pushl	%ebp
	.cfi_def_cfa_offset 8
	.cfi_offset 5, -8
	movl	%esp, %ebp
	.cfi_def_cfa_register 5
	pushl	%ebx
	pushl	%eax
	.cfi_offset 3, -12
	.loc 1 128 0
	movl	8(%ebp), %ebx
	.loc 1 129 0
	testl	%ebx, %ebx
	jne	.L28
	.loc 1 129 0 discriminator 1
	movl	$.LC4, 8(%ebp)
.LVL11:
	.loc 1 134 0 discriminator 1
	movl	-4(%ebp), %ebx
	leave
	.cfi_remember_state
	.cfi_restore 5
	.cfi_restore 3
	.cfi_def_cfa 4, 4
	.loc 1 129 0 discriminator 1
	jmp	bk_printf
.LVL12:
.L28:
	.cfi_restore_state
	.loc 1 130 0
	movl	(%ebx), %eax
	testl	%eax, %eax
	je	.L29
	.loc 1 131 0
	subl	$12, %esp
	pushl	%eax
	call	pbuf_free
.LVL13:
	addl	$16, %esp
.L29:
	.loc 1 133 0
	movl	$0, 4(%ebx)
	movl	$0, (%ebx)
	.loc 1 134 0
	movl	-4(%ebp), %ebx
	leave
	.cfi_restore 5
	.cfi_restore 3
	.cfi_def_cfa 4, 4
	ret
	.cfi_endproc
.LFE20:
	.size	netbuf_free, .-netbuf_free
	.section	.text.unlikely.netbuf_free
.LCOLDE5:
	.section	.text.netbuf_free
.LHOTE5:
	.section	.rodata.str1.1
.LC6:
	.string	"netbuf_ref: invalid buf"
	.section	.text.unlikely.netbuf_ref,"ax",@progbits
.LCOLDB7:
	.section	.text.netbuf_ref,"ax",@progbits
.LHOTB7:
	.globl	netbuf_ref
	.type	netbuf_ref, @function
netbuf_ref:
.LFB21:
	.loc 1 148 0
	.cfi_startproc
.LVL14:
	pushl	%ebp
	.cfi_def_cfa_offset 8
	.cfi_offset 5, -8
	movl	%esp, %ebp
	.cfi_def_cfa_register 5
	pushl	%esi
	pushl	%ebx
	.cfi_offset 6, -12
	.cfi_offset 3, -16
	.loc 1 148 0
	movl	8(%ebp), %ebx
	movl	16(%ebp), %esi
	.loc 1 149 0
	testl	%ebx, %ebx
	jne	.L35
	.loc 1 149 0 discriminator 1
	subl	$12, %esp
	pushl	$.LC6
	call	bk_printf
.LVL15:
	addl	$16, %esp
	movb	$-16, %al
	jmp	.L36
.L35:
	.loc 1 150 0
	movl	(%ebx), %eax
	testl	%eax, %eax
	je	.L37
	.loc 1 151 0
	subl	$12, %esp
	pushl	%eax
	call	pbuf_free
.LVL16:
	addl	$16, %esp
.L37:
	.loc 1 153 0
	pushl	%eax
	pushl	$2
	pushl	$0
	pushl	$0
	call	pbuf_alloc
.LVL17:
	.loc 1 154 0
	addl	$16, %esp
	testl	%eax, %eax
	.loc 1 153 0
	movl	%eax, (%ebx)
	.loc 1 154 0
	jne	.L38
	.loc 1 155 0
	movl	$0, 4(%ebx)
	.loc 1 156 0
	movb	$-1, %al
	jmp	.L36
.L38:
	.loc 1 158 0
	movl	12(%ebp), %edx
	.loc 1 159 0
	movw	%si, 8(%eax)
	movw	%si, 10(%eax)
	.loc 1 158 0
	movl	%edx, 4(%eax)
	.loc 1 160 0
	movl	%eax, 4(%ebx)
	.loc 1 161 0
	xorl	%eax, %eax
.L36:
	.loc 1 162 0
	leal	-8(%ebp), %esp
	popl	%ebx
	.cfi_restore 3
	popl	%esi
	.cfi_restore 6
	popl	%ebp
	.cfi_restore 5
	.cfi_def_cfa 4, 4
	ret
	.cfi_endproc
.LFE21:
	.size	netbuf_ref, .-netbuf_ref
	.section	.text.unlikely.netbuf_ref
.LCOLDE7:
	.section	.text.netbuf_ref
.LHOTE7:
	.section	.rodata.str1.1
.LC8:
	.string	"netbuf_chain: invalid head"
.LC9:
	.string	"netbuf_chain: invalid tail"
	.section	.text.unlikely.netbuf_chain,"ax",@progbits
.LCOLDB10:
	.section	.text.netbuf_chain,"ax",@progbits
.LHOTB10:
	.globl	netbuf_chain
	.type	netbuf_chain, @function
netbuf_chain:
.LFB22:
	.loc 1 173 0
	.cfi_startproc
.LVL18:
	pushl	%ebp
	.cfi_def_cfa_offset 8
	.cfi_offset 5, -8
	movl	%esp, %ebp
	.cfi_def_cfa_register 5
	pushl	%esi
	pushl	%ebx
	.cfi_offset 6, -12
	.cfi_offset 3, -16
	.loc 1 173 0
	movl	8(%ebp), %ebx
	movl	12(%ebp), %esi
	.loc 1 174 0
	testl	%ebx, %ebx
	jne	.L44
	.loc 1 174 0 discriminator 1
	movl	$.LC8, 8(%ebp)
.LVL19:
	jmp	.L47
.L44:
	.loc 1 175 0
	testl	%esi, %esi
	jne	.L45
	.loc 1 175 0 discriminator 1
	movl	$.LC9, 8(%ebp)
.LVL20:
.L47:
	.loc 1 179 0 discriminator 1
	leal	-8(%ebp), %esp
	popl	%ebx
	.cfi_remember_state
	.cfi_restore 3
.LVL21:
	popl	%esi
	.cfi_restore 6
.LVL22:
	popl	%ebp
	.cfi_restore 5
	.cfi_def_cfa 4, 4
	.loc 1 175 0 discriminator 1
	jmp	bk_printf
.LVL23:
.L45:
	.cfi_restore_state
	.loc 1 176 0
	pushl	%eax
	pushl	%eax
	pushl	(%esi)
	pushl	(%ebx)
	call	pbuf_cat
.LVL24:
	.loc 1 177 0
	movl	(%ebx), %eax
	.loc 1 178 0
	addl	$16, %esp
	.loc 1 177 0
	movl	%eax, 4(%ebx)
	.loc 1 178 0
	movl	%esi, 12(%ebp)
	movl	$5, 8(%ebp)
	.loc 1 179 0
	leal	-8(%ebp), %esp
	popl	%ebx
	.cfi_restore 3
.LVL25:
	popl	%esi
	.cfi_restore 6
.LVL26:
	popl	%ebp
	.cfi_restore 5
	.cfi_def_cfa 4, 4
	.loc 1 178 0
	jmp	memp_free
.LVL27:
	.cfi_endproc
.LFE22:
	.size	netbuf_chain, .-netbuf_chain
	.section	.text.unlikely.netbuf_chain
.LCOLDE10:
	.section	.text.netbuf_chain
.LHOTE10:
	.section	.rodata.str1.1
.LC11:
	.string	"netbuf_data: invalid buf"
.LC12:
	.string	"netbuf_data: invalid dataptr"
.LC13:
	.string	"netbuf_data: invalid len"
	.section	.text.unlikely.netbuf_data,"ax",@progbits
.LCOLDB14:
	.section	.text.netbuf_data,"ax",@progbits
.LHOTB14:
	.globl	netbuf_data
	.type	netbuf_data, @function
netbuf_data:
.LFB23:
	.loc 1 193 0
	.cfi_startproc
.LVL28:
	pushl	%ebp
	.cfi_def_cfa_offset 8
	.cfi_offset 5, -8
	movl	%esp, %ebp
	.cfi_def_cfa_register 5
	pushl	%esi
	pushl	%ebx
	.cfi_offset 6, -12
	.cfi_offset 3, -16
	.loc 1 193 0
	movl	8(%ebp), %edx
	movl	12(%ebp), %ebx
	movl	16(%ebp), %ecx
	.loc 1 194 0
	testl	%edx, %edx
	jne	.L49
	.loc 1 194 0 discriminator 1
	subl	$12, %esp
	pushl	$.LC11
	jmp	.L55
.L49:
	.loc 1 195 0
	testl	%ebx, %ebx
	jne	.L51
	.loc 1 195 0 discriminator 1
	subl	$12, %esp
	pushl	$.LC12
.LVL29:
.L55:
	call	bk_printf
.LVL30:
	addl	$16, %esp
	movb	$-16, %al
	jmp	.L50
.LVL31:
.L51:
	.loc 1 196 0
	testl	%ecx, %ecx
	jne	.L52
	.loc 1 196 0 discriminator 1
	subl	$12, %esp
	pushl	$.LC13
	jmp	.L55
.L52:
	.loc 1 198 0
	movl	4(%edx), %esi
	.loc 1 199 0
	movb	$-2, %al
	.loc 1 198 0
	testl	%esi, %esi
	je	.L50
	.loc 1 201 0
	movl	4(%esi), %eax
	movl	%eax, (%ebx)
	.loc 1 202 0
	movl	4(%edx), %eax
	movw	10(%eax), %ax
	movw	%ax, (%ecx)
	.loc 1 203 0
	xorl	%eax, %eax
.LVL32:
.L50:
	.loc 1 204 0
	leal	-8(%ebp), %esp
	popl	%ebx
	.cfi_restore 3
	popl	%esi
	.cfi_restore 6
	popl	%ebp
	.cfi_restore 5
	.cfi_def_cfa 4, 4
	ret
	.cfi_endproc
.LFE23:
	.size	netbuf_data, .-netbuf_data
	.section	.text.unlikely.netbuf_data
.LCOLDE14:
	.section	.text.netbuf_data
.LHOTE14:
	.section	.rodata.str1.1
.LC15:
	.string	"netbuf_next: invalid buf"
	.section	.text.unlikely.netbuf_next,"ax",@progbits
.LCOLDB16:
	.section	.text.netbuf_next,"ax",@progbits
.LHOTB16:
	.globl	netbuf_next
	.type	netbuf_next, @function
netbuf_next:
.LFB24:
	.loc 1 219 0
	.cfi_startproc
.LVL33:
	pushl	%ebp
	.cfi_def_cfa_offset 8
	.cfi_offset 5, -8
	movl	%esp, %ebp
	.cfi_def_cfa_register 5
	subl	$8, %esp
	.loc 1 219 0
	movl	8(%ebp), %ecx
	.loc 1 220 0
	testl	%ecx, %ecx
	jne	.L57
	.loc 1 220 0 discriminator 1
	subl	$12, %esp
	pushl	$.LC15
	call	bk_printf
.LVL34:
	addl	$16, %esp
	movb	$-1, %al
	jmp	.L58
.L57:
	.loc 1 221 0
	movl	4(%ecx), %eax
	movl	(%eax), %edx
	.loc 1 222 0
	movb	$-1, %al
	.loc 1 221 0
	testl	%edx, %edx
	je	.L58
	.loc 1 220 0
	cmpl	$0, (%edx)
	.loc 1 224 0
	movl	%edx, 4(%ecx)
	.loc 1 220 0
	sete	%al
.L58:
	.loc 1 229 0
	leave
	.cfi_restore 5
	.cfi_def_cfa 4, 4
	ret
	.cfi_endproc
.LFE24:
	.size	netbuf_next, .-netbuf_next
	.section	.text.unlikely.netbuf_next
.LCOLDE16:
	.section	.text.netbuf_next
.LHOTE16:
	.section	.rodata.str1.1
.LC17:
	.string	"netbuf_first: invalid buf"
	.section	.text.unlikely.netbuf_first,"ax",@progbits
.LCOLDB18:
	.section	.text.netbuf_first,"ax",@progbits
.LHOTB18:
	.globl	netbuf_first
	.type	netbuf_first, @function
netbuf_first:
.LFB25:
	.loc 1 241 0
	.cfi_startproc
.LVL35:
	pushl	%ebp
	.cfi_def_cfa_offset 8
	.cfi_offset 5, -8
	movl	%esp, %ebp
	.cfi_def_cfa_register 5
	.loc 1 241 0
	movl	8(%ebp), %eax
	.loc 1 242 0
	testl	%eax, %eax
	jne	.L62
	.loc 1 242 0 discriminator 1
	movl	$.LC17, 8(%ebp)
.LVL36:
	.loc 1 244 0 discriminator 1
	popl	%ebp
	.cfi_remember_state
	.cfi_restore 5
	.cfi_def_cfa 4, 4
	.loc 1 242 0 discriminator 1
	jmp	bk_printf
.LVL37:
.L62:
	.cfi_restore_state
	.loc 1 243 0
	movl	(%eax), %edx
	movl	%edx, 4(%eax)
	.loc 1 244 0
	popl	%ebp
	.cfi_restore 5
	.cfi_def_cfa 4, 4
	ret
	.cfi_endproc
.LFE25:
	.size	netbuf_first, .-netbuf_first
	.section	.text.unlikely.netbuf_first
.LCOLDE18:
	.section	.text.netbuf_first
.LHOTE18:
	.text
.Letext0:
	.section	.text.unlikely.netbuf_new
.Letext_cold0:
	.file 2 "././platform/mcu/moc108/include/lwip-2.0.2/arch/cc.h"
	.file 3 "./kernel/protocols/net/include/lwip/err.h"
	.file 4 "./kernel/protocols/net/include/lwip/pbuf.h"
	.file 5 "./kernel/protocols/net/include/lwip/ip4_addr.h"
	.file 6 "./kernel/protocols/net/include/lwip/ip_addr.h"
	.file 7 "./kernel/protocols/net/include/lwip/netbuf.h"
	.file 8 "./kernel/protocols/net/include/lwip/memp.h"
	.file 9 "././platform/mcu/moc108/include/driver/uart_pub.h"
	.file 10 "./include/aos/log.h"
	.section	.note.GNU-stack,"",@progbits
