	.file	"netdb.c"
	.text
.Ltext0:
	.section	.text.unlikely.lwip_gethostbyname,"ax",@progbits
.LCOLDB0:
	.section	.text.lwip_gethostbyname,"ax",@progbits
.LHOTB0:
	.section	.text.unlikely.lwip_gethostbyname
.Ltext_cold0:
	.section	.text.lwip_gethostbyname
	.globl	lwip_gethostbyname
	.type	lwip_gethostbyname, @function
lwip_gethostbyname:
.LFB17:
	.file 1 "kernel/protocols/net/api/netdb.c"
	.loc 1 88 0
	.cfi_startproc
.LVL0:
	pushl	%ebp
	.cfi_def_cfa_offset 8
	.cfi_offset 5, -8
	movl	%esp, %ebp
	.cfi_def_cfa_register 5
	pushl	%ebx
	subl	$28, %esp
	.cfi_offset 3, -12
	.loc 1 88 0
	movl	8(%ebp), %ebx
	movl	%gs:20, %eax
	movl	%eax, -12(%ebp)
	xorl	%eax, %eax
	.loc 1 100 0
	leal	-16(%ebp), %eax
	pushl	%eax
	pushl	%ebx
	call	netconn_gethostbyname
.LVL1:
	.loc 1 101 0
	addl	$16, %esp
	testb	%al, %al
	je	.L2
	.loc 1 103 0
	movl	$210, h_errno
	.loc 1 104 0
	xorl	%eax, %eax
.LVL2:
	jmp	.L3
.LVL3:
.L2:
	.loc 1 108 0
	movl	-16(%ebp), %eax
.LVL4:
	.loc 1 109 0
	movl	$s_hostent_addr.4800, s_phostent_addr.4801
	.loc 1 110 0
	movl	$0, s_phostent_addr.4801+4
	.loc 1 108 0
	movl	%eax, s_hostent_addr.4800
	.loc 1 111 0
	pushl	%eax
	pushl	$256
	pushl	%ebx
	pushl	$s_hostname.4802
	call	strncpy
.LVL5:
	.loc 1 112 0
	movb	$0, s_hostname.4802+256
	.loc 1 113 0
	movl	$s_hostname.4802, s_hostent.4798
	.loc 1 141 0
	addl	$16, %esp
	.loc 1 114 0
	movl	$0, s_aliases.4799
	.loc 1 115 0
	movl	$s_aliases.4799, s_hostent.4798+4
	.loc 1 141 0
	movl	$s_hostent.4798, %eax
	.loc 1 116 0
	movl	$2, s_hostent.4798+8
	.loc 1 117 0
	movl	$4, s_hostent.4798+12
	.loc 1 118 0
	movl	$s_phostent_addr.4801, s_hostent.4798+16
.L3:
	.loc 1 143 0
	movl	-12(%ebp), %edx
	xorl	%gs:20, %edx
	je	.L4
	call	__stack_chk_fail
.LVL6:
.L4:
	movl	-4(%ebp), %ebx
	leave
	.cfi_restore 5
	.cfi_restore 3
	.cfi_def_cfa 4, 4
	ret
	.cfi_endproc
.LFE17:
	.size	lwip_gethostbyname, .-lwip_gethostbyname
	.section	.text.unlikely.lwip_gethostbyname
.LCOLDE0:
	.section	.text.lwip_gethostbyname
.LHOTE0:
	.section	.text.unlikely.lwip_gethostbyname_r,"ax",@progbits
.LCOLDB1:
	.section	.text.lwip_gethostbyname_r,"ax",@progbits
.LHOTB1:
	.globl	lwip_gethostbyname_r
	.type	lwip_gethostbyname_r, @function
lwip_gethostbyname_r:
.LFB18:
	.loc 1 164 0
	.cfi_startproc
.LVL7:
	pushl	%ebp
	.cfi_def_cfa_offset 8
	.cfi_offset 5, -8
	movl	%esp, %ebp
	.cfi_def_cfa_register 5
	pushl	%edi
	pushl	%esi
	pushl	%ebx
	subl	$60, %esp
	.cfi_offset 7, -12
	.cfi_offset 6, -16
	.cfi_offset 3, -20
	.loc 1 164 0
	movl	8(%ebp), %eax
	movl	28(%ebp), %esi
	movl	12(%ebp), %edx
	movl	16(%ebp), %ebx
	movl	%eax, -44(%ebp)
	movl	24(%ebp), %eax
	movl	%eax, -48(%ebp)
	movl	%gs:20, %eax
	movl	%eax, -28(%ebp)
	xorl	%eax, %eax
	.loc 1 173 0
	leal	-32(%ebp), %eax
	testl	%esi, %esi
	cmove	%eax, %esi
.LVL8:
	.loc 1 176 0
	cmpl	$0, -48(%ebp)
	je	.L16
	.loc 1 182 0
	movl	-48(%ebp), %eax
	.loc 1 183 0
	testl	%edx, %edx
	sete	%cl
	testl	%ebx, %ebx
	.loc 1 182 0
	movl	$0, (%eax)
	.loc 1 183 0
	sete	%al
	orb	%al, %cl
	jne	.L16
	cmpl	$0, -44(%ebp)
	sete	%al
	jne	.L11
.L16:
	.loc 1 185 0
	movl	$22, (%esi)
	jmp	.L18
.L11:
	.loc 1 189 0
	movl	-44(%ebp), %edi
	orl	$-1, %ecx
	repnz scasb
.LVL9:
	notl	%ecx
	movl	%ecx, %eax
	movl	%ecx, -52(%ebp)
	leal	-1(%ecx), %ecx
.LVL10:
	.loc 1 190 0
	addl	$19, %eax
	cmpl	20(%ebp), %eax
	jbe	.L13
	.loc 1 192 0
	movl	$34, (%esi)
	jmp	.L18
.L13:
	.loc 1 196 0
	addl	$3, %ebx
	movl	%edx, -64(%ebp)
	.loc 1 200 0
	pushl	%edx
	.loc 1 196 0
	andl	$-4, %ebx
.LVL11:
	.loc 1 200 0
	pushl	%edx
	movl	%ecx, -60(%ebp)
	leal	8(%ebx), %eax
	pushl	%eax
	pushl	-44(%ebp)
	movl	%eax, -56(%ebp)
.LVL12:
	call	netconn_gethostbyname
.LVL13:
	.loc 1 201 0
	addl	$16, %esp
	testb	%al, %al
	movl	-60(%ebp), %ecx
	movl	-64(%ebp), %edx
	je	.L14
	.loc 1 203 0
	movl	$210, (%esi)
.LVL14:
.L18:
	.loc 1 204 0
	orl	$-1, %eax
	jmp	.L10
.LVL15:
.L14:
	.loc 1 208 0
	leal	16(%ebx), %edi
	movl	-44(%ebp), %esi
.LVL16:
	.loc 1 212 0
	leal	8(%ebx), %eax
.LVL17:
	.loc 1 208 0
	rep movsb
	.loc 1 209 0
	movl	-52(%ebp), %edi
	movb	$0, 15(%ebx,%edi)
	.loc 1 212 0
	movl	%eax, (%ebx)
	.loc 1 215 0
	leal	16(%ebx), %eax
	.loc 1 213 0
	movl	$0, 4(%ebx)
	.loc 1 214 0
	movl	$0, 12(%ebx)
	.loc 1 215 0
	movl	%eax, (%edx)
	.loc 1 216 0
	leal	12(%ebx), %eax
	.loc 1 217 0
	movl	$2, 8(%edx)
	.loc 1 218 0
	movl	$4, 12(%edx)
	.loc 1 219 0
	movl	%ebx, 16(%edx)
	.loc 1 216 0
	movl	%eax, 4(%edx)
	.loc 1 222 0
	movl	-48(%ebp), %eax
	movl	%edx, (%eax)
	.loc 1 225 0
	xorl	%eax, %eax
.LVL18:
.L10:
	.loc 1 226 0
	movl	-28(%ebp), %edi
	xorl	%gs:20, %edi
	je	.L15
	call	__stack_chk_fail
.LVL19:
.L15:
	leal	-12(%ebp), %esp
	popl	%ebx
	.cfi_restore 3
	popl	%esi
	.cfi_restore 6
	popl	%edi
	.cfi_restore 7
	popl	%ebp
	.cfi_restore 5
	.cfi_def_cfa 4, 4
	ret
	.cfi_endproc
.LFE18:
	.size	lwip_gethostbyname_r, .-lwip_gethostbyname_r
	.section	.text.unlikely.lwip_gethostbyname_r
.LCOLDE1:
	.section	.text.lwip_gethostbyname_r
.LHOTE1:
	.section	.text.unlikely.lwip_freeaddrinfo,"ax",@progbits
.LCOLDB2:
	.section	.text.lwip_freeaddrinfo,"ax",@progbits
.LHOTB2:
	.globl	lwip_freeaddrinfo
	.type	lwip_freeaddrinfo, @function
lwip_freeaddrinfo:
.LFB19:
	.loc 1 237 0
	.cfi_startproc
.LVL20:
	pushl	%ebp
	.cfi_def_cfa_offset 8
	.cfi_offset 5, -8
	movl	%esp, %ebp
	.cfi_def_cfa_register 5
	pushl	%ebx
	pushl	%ecx
	.cfi_offset 3, -12
	movl	8(%ebp), %eax
.LVL21:
.L20:
	.loc 1 240 0
	testl	%eax, %eax
	je	.L23
	.loc 1 241 0
	movl	28(%eax), %ebx
.LVL22:
	.loc 1 242 0
	pushl	%edx
	pushl	%edx
	pushl	%eax
	pushl	$11
	call	memp_free
.LVL23:
	addl	$16, %esp
	.loc 1 243 0
	movl	%ebx, %eax
	jmp	.L20
.LVL24:
.L23:
	.loc 1 245 0
	movl	-4(%ebp), %ebx
	leave
	.cfi_restore 5
	.cfi_restore 3
	.cfi_def_cfa 4, 4
	ret
	.cfi_endproc
.LFE19:
	.size	lwip_freeaddrinfo, .-lwip_freeaddrinfo
	.section	.text.unlikely.lwip_freeaddrinfo
.LCOLDE2:
	.section	.text.lwip_freeaddrinfo
.LHOTE2:
	.section	.text.unlikely.lwip_getaddrinfo,"ax",@progbits
.LCOLDB3:
	.section	.text.lwip_getaddrinfo,"ax",@progbits
.LHOTB3:
	.globl	lwip_getaddrinfo
	.type	lwip_getaddrinfo, @function
lwip_getaddrinfo:
.LFB20:
	.loc 1 271 0
	.cfi_startproc
.LVL25:
	pushl	%ebp
	.cfi_def_cfa_offset 8
	.cfi_offset 5, -8
	movl	%esp, %ebp
	.cfi_def_cfa_register 5
	pushl	%edi
	pushl	%esi
	pushl	%ebx
	subl	$60, %esp
	.cfi_offset 7, -12
	.cfi_offset 6, -16
	.cfi_offset 3, -20
	.loc 1 271 0
	movl	8(%ebp), %eax
	movl	12(%ebp), %ecx
	movl	16(%ebp), %esi
	movl	%eax, -44(%ebp)
	movl	20(%ebp), %eax
	movl	%eax, -56(%ebp)
	movl	%gs:20, %eax
	movl	%eax, -28(%ebp)
	xorl	%eax, %eax
.LVL26:
	.loc 1 281 0
	cmpl	$0, -56(%ebp)
	jne	.L25
.LVL27:
.L34:
	.loc 1 282 0
	movl	$202, %eax
	jmp	.L26
.LVL28:
.L25:
	.loc 1 285 0
	cmpl	$0, -44(%ebp)
	.loc 1 284 0
	movl	-56(%ebp), %eax
	movl	$0, (%eax)
	.loc 1 285 0
	jne	.L27
	testl	%ecx, %ecx
	jne	.L27
.LVL29:
.L32:
	.loc 1 286 0
	movl	$200, %eax
	jmp	.L26
.LVL30:
.L27:
	.loc 1 289 0
	testl	%esi, %esi
	je	.L28
.LVL31:
	.loc 1 291 0
	testl	$-3, 4(%esi)
	.loc 1 299 0
	movl	$204, %eax
	.loc 1 291 0
	jne	.L26
.LVL32:
.L28:
	.loc 1 305 0
	testl	%ecx, %ecx
	je	.L43
	.loc 1 308 0
	subl	$12, %esp
	pushl	%ecx
	call	atoi
.LVL33:
	.loc 1 309 0
	leal	-1(%eax), %ecx
	addl	$16, %esp
	.loc 1 308 0
	movl	%eax, -52(%ebp)
.LVL34:
	.loc 1 310 0
	movl	$201, %eax
.LVL35:
	.loc 1 309 0
	cmpl	$65534, %ecx
	ja	.L26
	jmp	.L29
.LVL36:
.L43:
	.loc 1 276 0
	movl	$0, -52(%ebp)
.LVL37:
.L29:
	.loc 1 314 0
	cmpl	$0, -44(%ebp)
	je	.L30
	.loc 1 316 0
	testl	%esi, %esi
	leal	-32(%ebp), %eax
	je	.L31
	.loc 1 316 0 discriminator 1
	testb	$4, (%esi)
	je	.L31
	.loc 1 318 0
	pushl	%ecx
	pushl	%ecx
	pushl	%eax
	pushl	-44(%ebp)
	call	ip4addr_aton
.LVL38:
	addl	$16, %esp
	testl	%eax, %eax
	je	.L32
	jmp	.L33
.L31:
	.loc 1 337 0
	pushl	%edx
	pushl	%edx
	pushl	%eax
	pushl	-44(%ebp)
	call	netconn_gethostbyname
.LVL39:
	.loc 1 338 0
	addl	$16, %esp
	testb	%al, %al
	jne	.L34
	jmp	.L33
.LVL40:
.L30:
	.loc 1 344 0
	testl	%esi, %esi
	je	.L35
	.loc 1 344 0 discriminator 1
	testb	$1, (%esi)
	je	.L35
	.loc 1 345 0
	movl	$0, -32(%ebp)
	jmp	.L36
.L35:
	.loc 1 347 0
	movl	$16777343, -32(%ebp)
	jmp	.L36
.L33:
.LVL41:
	.loc 1 353 0
	movl	-44(%ebp), %edi
	xorl	%eax, %eax
	orl	$-1, %ecx
	repnz scasb
.LVL42:
	notl	%ecx
	leal	-1(%ecx), %eax
	.loc 1 354 0
	cmpl	$256, %eax
	.loc 1 353 0
	movl	%eax, -48(%ebp)
.LVL43:
	.loc 1 354 0
	ja	.L34
	.loc 1 359 0
	addl	$48, %ecx
.LVL44:
.L39:
	.loc 1 364 0
	subl	$12, %esp
	movl	%ecx, -60(%ebp)
.LVL45:
	pushl	$11
	call	memp_malloc
.LVL46:
	movl	%eax, %ebx
.LVL47:
	.loc 1 365 0
	addl	$16, %esp
	.loc 1 366 0
	movl	$203, %eax
.LVL48:
	.loc 1 365 0
	testl	%ebx, %ebx
	jne	.L80
.LVL49:
.L26:
	.loc 1 411 0
	movl	-28(%ebp), %edx
	xorl	%gs:20, %edx
	je	.L41
	call	__stack_chk_fail
.LVL50:
.L36:
	.loc 1 278 0
	movl	$0, -48(%ebp)
	.loc 1 351 0
	movl	$48, %ecx
	jmp	.L39
.LVL51:
.L80:
	.loc 1 368 0
	movl	-60(%ebp), %ecx
	xorl	%eax, %eax
	movl	%ebx, %edi
.LBB2:
	.loc 1 388 0
	subl	$12, %esp
.LBE2:
	.loc 1 368 0
	rep stosb
	.loc 1 370 0
	leal	32(%ebx), %eax
.LBB3:
	.loc 1 386 0
	movb	$2, 33(%ebx)
	.loc 1 387 0
	movb	$16, 32(%ebx)
.LBE3:
	.loc 1 370 0
	movl	%eax, -60(%ebp)
.LVL52:
.LBB4:
	.loc 1 385 0
	movl	-32(%ebp), %eax
.LVL53:
	movl	%eax, 36(%ebx)
	.loc 1 388 0
	pushl	-52(%ebp)
	call	lwip_htons
.LVL54:
.LBE4:
	.loc 1 394 0
	addl	$16, %esp
	testl	%esi, %esi
.LBB5:
	.loc 1 388 0
	movw	%ax, 34(%ebx)
	.loc 1 389 0
	movl	$2, 4(%ebx)
.LBE5:
	.loc 1 394 0
	je	.L37
	.loc 1 396 0
	movl	8(%esi), %eax
	movl	%eax, 8(%ebx)
	.loc 1 397 0
	movl	12(%esi), %eax
	movl	%eax, 12(%ebx)
.L37:
	.loc 1 399 0
	cmpl	$0, -44(%ebp)
	je	.L38
	.loc 1 401 0
	leal	48(%ebx), %eax
	.loc 1 402 0
	movl	-44(%ebp), %esi
	movl	-48(%ebp), %ecx
	.loc 1 401 0
	movl	%eax, 24(%ebx)
	.loc 1 402 0
	movl	%eax, %edi
	.loc 1 403 0
	movl	-48(%ebp), %eax
	.loc 1 402 0
	rep movsb
	.loc 1 403 0
	movb	$0, 48(%ebx,%eax)
.L38:
	.loc 1 406 0
	leal	32(%ebx), %eax
	.loc 1 405 0
	movl	$16, 16(%ebx)
	.loc 1 406 0
	movl	%eax, 20(%ebx)
	.loc 1 408 0
	movl	-56(%ebp), %eax
	movl	%ebx, (%eax)
	.loc 1 410 0
	xorl	%eax, %eax
	jmp	.L26
.LVL55:
.L41:
	.loc 1 411 0
	leal	-12(%ebp), %esp
	popl	%ebx
	.cfi_restore 3
	popl	%esi
	.cfi_restore 6
	popl	%edi
	.cfi_restore 7
	popl	%ebp
	.cfi_restore 5
	.cfi_def_cfa 4, 4
	ret
	.cfi_endproc
.LFE20:
	.size	lwip_getaddrinfo, .-lwip_getaddrinfo
	.section	.text.unlikely.lwip_getaddrinfo
.LCOLDE3:
	.section	.text.lwip_getaddrinfo
.LHOTE3:
	.section	.bss.s_aliases.4799,"aw",@nobits
	.align 4
	.type	s_aliases.4799, @object
	.size	s_aliases.4799, 4
s_aliases.4799:
	.zero	4
	.section	.bss.s_hostent.4798,"aw",@nobits
	.align 4
	.type	s_hostent.4798, @object
	.size	s_hostent.4798, 20
s_hostent.4798:
	.zero	20
	.section	.bss.s_hostname.4802,"aw",@nobits
	.align 32
	.type	s_hostname.4802, @object
	.size	s_hostname.4802, 257
s_hostname.4802:
	.zero	257
	.section	.bss.s_phostent_addr.4801,"aw",@nobits
	.align 4
	.type	s_phostent_addr.4801, @object
	.size	s_phostent_addr.4801, 8
s_phostent_addr.4801:
	.zero	8
	.section	.bss.s_hostent_addr.4800,"aw",@nobits
	.align 4
	.type	s_hostent_addr.4800, @object
	.size	s_hostent_addr.4800, 4
s_hostent_addr.4800:
	.zero	4
	.globl	h_errno
	.section	.bss.h_errno,"aw",@nobits
	.align 4
	.type	h_errno, @object
	.size	h_errno, 4
h_errno:
	.zero	4
	.text
.Letext0:
	.section	.text.unlikely.lwip_gethostbyname
.Letext_cold0:
	.file 2 "/home/stone/Documents/Ali_IOT/build/compiler/gcc-arm-none-eabi/Linux64/lib/gcc/arm-none-eabi/5.4.1/include/stddef.h"
	.file 3 "/home/stone/Documents/Ali_IOT/build/compiler/gcc-arm-none-eabi/Linux64/arm-none-eabi/include/machine/_default_types.h"
	.file 4 "/home/stone/Documents/Ali_IOT/build/compiler/gcc-arm-none-eabi/Linux64/arm-none-eabi/include/sys/_stdint.h"
	.file 5 "/home/stone/Documents/Ali_IOT/build/compiler/gcc-arm-none-eabi/Linux64/arm-none-eabi/include/sys/types.h"
	.file 6 "././platform/mcu/moc108/include/lwip-2.0.2/arch/cc.h"
	.file 7 "./kernel/protocols/net/include/lwip/arch.h"
	.file 8 "./kernel/protocols/net/include/lwip/ip4_addr.h"
	.file 9 "./kernel/protocols/net/include/lwip/ip_addr.h"
	.file 10 "./kernel/protocols/net/include/lwip/inet.h"
	.file 11 "./kernel/protocols/net/include/lwip/err.h"
	.file 12 "./kernel/protocols/net/include/lwip/sockets.h"
	.file 13 "./kernel/protocols/net/include/lwip/netdb.h"
	.file 14 "./kernel/protocols/net/include/lwip/memp.h"
	.file 15 "./include/aos/log.h"
	.file 16 "./kernel/protocols/net/include/lwip/api.h"
	.file 17 "/home/stone/Documents/Ali_IOT/build/compiler/gcc-arm-none-eabi/Linux64/arm-none-eabi/include/string.h"
	.file 18 "./kernel/protocols/net/include/lwip/def.h"
	.file 19 "/home/stone/Documents/Ali_IOT/build/compiler/gcc-arm-none-eabi/Linux64/arm-none-eabi/include/stdlib.h"
	.section	.note.GNU-stack,"",@progbits
