	.file	"netif.c"
	.text
.Ltext0:
	.section	.text.unlikely.netif_loopif_init,"ax",@progbits
.LCOLDB0:
	.section	.text.netif_loopif_init,"ax",@progbits
.LHOTB0:
	.section	.text.unlikely.netif_loopif_init
.Ltext_cold0:
	.section	.text.netif_loopif_init
	.type	netif_loopif_init, @function
netif_loopif_init:
.LFB23:
	.file 1 "kernel/protocols/net/core/netif.c"
	.loc 1 141 0
	.cfi_startproc
.LVL0:
	pushl	%ebp
	.cfi_def_cfa_offset 8
	.cfi_offset 5, -8
	movl	%esp, %ebp
	.cfi_def_cfa_register 5
	.loc 1 141 0
	movl	8(%ebp), %eax
	.loc 1 147 0
	movb	$108, 62(%eax)
	.loc 1 148 0
	movb	$111, 63(%eax)
	.loc 1 150 0
	movl	$netif_loop_output_ipv4, 20(%eax)
	.loc 1 159 0
	xorl	%eax, %eax
	popl	%ebp
	.cfi_restore 5
	.cfi_def_cfa 4, 4
	ret
	.cfi_endproc
.LFE23:
	.size	netif_loopif_init, .-netif_loopif_init
	.section	.text.unlikely.netif_loopif_init
.LCOLDE0:
	.section	.text.netif_loopif_init
.LHOTE0:
	.section	.text.unlikely.netif_poll,"ax",@progbits
.LCOLDB1:
	.section	.text.netif_poll,"ax",@progbits
.LHOTB1:
	.globl	netif_poll
	.type	netif_poll, @function
netif_poll:
.LFB42:
	.loc 1 906 0
	.cfi_startproc
.LVL1:
	pushl	%ebp
	.cfi_def_cfa_offset 8
	.cfi_offset 5, -8
	movl	%esp, %ebp
	.cfi_def_cfa_register 5
	pushl	%edi
	pushl	%esi
	pushl	%ebx
	subl	$12, %esp
	.cfi_offset 7, -12
	.cfi_offset 6, -16
	.cfi_offset 3, -20
	movl	8(%ebp), %ebx
.L12:
	.loc 1 921 0
	call	sys_arch_protect
.LVL2:
	.loc 1 922 0
	movl	72(%ebx), %esi
.LVL3:
	.loc 1 923 0
	testl	%esi, %esi
	je	.L4
	movl	%esi, %edx
	movb	$1, %cl
.L5:
.LVL4:
.LBB21:
	.loc 1 928 0
	movl	8(%edx), %edi
	cmpw	%di, 10(%edx)
	je	.L22
	.loc 1 930 0
	movl	(%edx), %edx
.LVL5:
	.loc 1 932 0
	incl	%ecx
.LVL6:
	jmp	.L5
.L22:
	.loc 1 939 0
	movzbl	%cl, %ecx
	subw	%cx, 80(%ebx)
	.loc 1 943 0
	cmpl	76(%ebx), %edx
	jne	.L7
	.loc 1 945 0
	movl	$0, 76(%ebx)
	movl	$0, 72(%ebx)
	jmp	.L8
.L7:
	.loc 1 948 0
	movl	(%edx), %ecx
.LVL7:
	movl	%ecx, 72(%ebx)
.L8:
	.loc 1 952 0
	movl	$0, (%edx)
.LVL8:
.L4:
.LBE21:
	.loc 1 954 0
	subl	$12, %esp
	pushl	%eax
	call	sys_arch_unprotect
.LVL9:
	.loc 1 956 0
	addl	$16, %esp
	testl	%esi, %esi
	je	.L10
	.loc 1 961 0
	pushl	%eax
	pushl	%eax
	pushl	%ebx
	pushl	%esi
	call	ip4_input
.LVL10:
	addl	$16, %esp
	testb	%al, %al
	je	.L10
	.loc 1 962 0
	subl	$12, %esp
	pushl	%esi
	call	pbuf_free
.LVL11:
	addl	$16, %esp
.L10:
	.loc 1 968 0
	cmpl	$0, 72(%ebx)
	jne	.L12
	.loc 1 969 0
	leal	-12(%ebp), %esp
	popl	%ebx
	.cfi_restore 3
	popl	%esi
	.cfi_restore 6
.LVL12:
	popl	%edi
	.cfi_restore 7
	popl	%ebp
	.cfi_restore 5
	.cfi_def_cfa 4, 4
	ret
	.cfi_endproc
.LFE42:
	.size	netif_poll, .-netif_poll
	.section	.text.unlikely.netif_poll
.LCOLDE1:
	.section	.text.netif_poll
.LHOTE1:
	.section	.text.unlikely.netif_issue_reports.part.0,"ax",@progbits
.LCOLDB2:
	.section	.text.netif_issue_reports.part.0,"ax",@progbits
.LHOTB2:
	.type	netif_issue_reports.part.0, @function
netif_issue_reports.part.0:
.LFB43:
	.loc 1 642 0
	.cfi_startproc
.LVL13:
	pushl	%ebp
	.cfi_def_cfa_offset 8
	.cfi_offset 5, -8
	movl	%esp, %ebp
	.cfi_def_cfa_register 5
	pushl	%ebx
	pushl	%edx
	.cfi_offset 3, -12
	.loc 1 649 0
	testb	$8, 61(%eax)
	.loc 1 642 0
	movl	%eax, %ebx
	.loc 1 649 0
	je	.L24
.LVL14:
	.loc 1 650 0
	pushl	%eax
	pushl	%eax
	leal	4(%ebx), %eax
	pushl	%eax
	pushl	%ebx
	call	etharp_request
.LVL15:
	addl	$16, %esp
.L24:
	.loc 1 656 0
	testb	$32, 61(%ebx)
	je	.L23
	.loc 1 657 0
	subl	$12, %esp
	pushl	%ebx
	call	igmp_report_groups
.LVL16:
	addl	$16, %esp
.L23:
	.loc 1 675 0
	movl	-4(%ebp), %ebx
.LVL17:
	leave
	.cfi_restore 5
	.cfi_restore 3
	.cfi_def_cfa 4, 4
	ret
	.cfi_endproc
.LFE43:
	.size	netif_issue_reports.part.0, .-netif_issue_reports.part.0
	.section	.text.unlikely.netif_issue_reports.part.0
.LCOLDE2:
	.section	.text.netif_issue_reports.part.0
.LHOTE2:
	.section	.text.unlikely.netif_input,"ax",@progbits
.LCOLDB3:
	.section	.text.netif_input,"ax",@progbits
.LHOTB3:
	.globl	netif_input
	.type	netif_input, @function
netif_input:
.LFB25:
	.loc 1 204 0
	.cfi_startproc
.LVL18:
	pushl	%ebp
	.cfi_def_cfa_offset 8
	.cfi_offset 5, -8
	movl	%esp, %ebp
	.cfi_def_cfa_register 5
	.loc 1 204 0
	movl	12(%ebp), %eax
	movl	8(%ebp), %edx
	.loc 1 206 0
	testb	$24, 61(%eax)
	je	.L34
	.loc 1 211 0
	popl	%ebp
	.cfi_remember_state
	.cfi_restore 5
	.cfi_def_cfa 4, 4
	.loc 1 207 0
	jmp	ethernet_input
.LVL19:
.L34:
	.cfi_restore_state
	.loc 1 210 0
	movl	%eax, 12(%ebp)
	movl	%edx, 8(%ebp)
	.loc 1 211 0
	popl	%ebp
	.cfi_restore 5
	.cfi_def_cfa 4, 4
	.loc 1 210 0
	jmp	ip4_input
.LVL20:
	.cfi_endproc
.LFE25:
	.size	netif_input, .-netif_input
	.section	.text.unlikely.netif_input
.LCOLDE3:
	.section	.text.netif_input
.LHOTE3:
	.section	.text.unlikely.netif_find,"ax",@progbits
.LCOLDB4:
	.section	.text.netif_find,"ax",@progbits
.LHOTB4:
	.globl	netif_find
	.type	netif_find, @function
netif_find:
.LFB29:
	.loc 1 473 0
	.cfi_startproc
.LVL21:
	pushl	%ebp
	.cfi_def_cfa_offset 8
	.cfi_offset 5, -8
	.loc 1 478 0
	xorl	%eax, %eax
	.loc 1 473 0
	movl	%esp, %ebp
	.cfi_def_cfa_register 5
	pushl	%ebx
	.cfi_offset 3, -12
	.loc 1 473 0
	movl	8(%ebp), %edx
	.loc 1 477 0
	testl	%edx, %edx
	je	.L37
	.loc 1 481 0
	movb	2(%edx), %al
	leal	-48(%eax), %ecx
.LVL22:
	.loc 1 483 0
	movl	netif_list, %eax
.LVL23:
.L38:
	.loc 1 483 0 is_stmt 0 discriminator 1
	testl	%eax, %eax
	je	.L37
	.loc 1 484 0 is_stmt 1
	cmpb	64(%eax), %cl
	jne	.L39
	.loc 1 484 0 is_stmt 0 discriminator 1
	movb	62(%eax), %bl
	cmpb	%bl, (%edx)
	jne	.L39
	.loc 1 485 0 is_stmt 1
	movb	63(%eax), %bl
	cmpb	%bl, 1(%edx)
	je	.L37
.LVL24:
.L39:
	.loc 1 483 0 discriminator 2
	movl	(%eax), %eax
.LVL25:
	jmp	.L38
.LVL26:
.L37:
	.loc 1 493 0
	popl	%ebx
	.cfi_restore 3
	popl	%ebp
	.cfi_restore 5
	.cfi_def_cfa 4, 4
	ret
	.cfi_endproc
.LFE29:
	.size	netif_find, .-netif_find
	.section	.text.unlikely.netif_find
.LCOLDE4:
	.section	.text.netif_find
.LHOTE4:
	.section	.text.unlikely.netif_set_ipaddr,"ax",@progbits
.LCOLDB5:
	.section	.text.netif_set_ipaddr,"ax",@progbits
.LHOTB5:
	.globl	netif_set_ipaddr
	.type	netif_set_ipaddr, @function
netif_set_ipaddr:
.LFB30:
	.loc 1 508 0
	.cfi_startproc
.LVL27:
	pushl	%ebp
	.cfi_def_cfa_offset 8
	.cfi_offset 5, -8
	movl	%esp, %ebp
	.cfi_def_cfa_register 5
	pushl	%edi
	pushl	%esi
	pushl	%ebx
	subl	$44, %esp
	.cfi_offset 7, -12
	.cfi_offset 6, -16
	.cfi_offset 3, -20
	.loc 1 508 0
	movl	12(%ebp), %esi
	movl	8(%ebp), %ebx
	movl	%gs:20, %eax
	movl	%eax, -28(%ebp)
	xorl	%eax, %eax
	.loc 1 510 0
	movl	ip_addr_any, %eax
	testl	%esi, %esi
	je	.L61
	.loc 1 510 0 is_stmt 0 discriminator 1
	movl	(%esi), %eax
.L61:
	.loc 1 510 0 discriminator 2
	movl	%eax, -32(%ebp)
	.loc 1 514 0 is_stmt 1 discriminator 2
	movl	4(%ebx), %eax
	cmpl	%eax, -32(%ebp)
	je	.L44
	.loc 1 517 0
	leal	4(%ebx), %edi
	pushl	%eax
	pushl	%eax
	leal	-32(%ebp), %eax
	pushl	%eax
	pushl	%edi
	movl	%eax, -44(%ebp)
	call	tcp_netif_ip_addr_changed
.LVL28:
	.loc 1 520 0
	movl	-44(%ebp), %eax
	popl	%edx
	popl	%ecx
	pushl	%eax
	pushl	%edi
	call	udp_netif_ip_addr_changed
.LVL29:
	.loc 1 523 0
	popl	%eax
	movl	-44(%ebp), %eax
	popl	%edx
	pushl	%eax
	pushl	%edi
	call	raw_netif_ip_addr_changed
.LVL30:
	.loc 1 529 0
	addl	$16, %esp
	xorl	%eax, %eax
	testl	%esi, %esi
	je	.L49
	.loc 1 529 0 is_stmt 0 discriminator 1
	movl	(%esi), %eax
.L49:
.LBB24:
.LBB25:
	.loc 1 645 0 is_stmt 1 discriminator 4
	testl	%eax, %eax
.LBE25:
.LBE24:
	.loc 1 529 0 discriminator 4
	movl	%eax, 4(%ebx)
.LVL31:
.LBB27:
.LBB26:
	.loc 1 645 0 discriminator 4
	je	.L50
	movl	%ebx, %eax
	call	netif_issue_reports.part.0
.LVL32:
.L50:
.LBE26:
.LBE27:
	.loc 1 536 0 discriminator 4
	movl	28(%ebx), %eax
	testl	%eax, %eax
	je	.L44
	.loc 1 536 0 is_stmt 0 discriminator 1
	subl	$12, %esp
	pushl	%ebx
	call	*%eax
.LVL33:
	addl	$16, %esp
.L44:
	.loc 1 545 0 is_stmt 1
	movl	-28(%ebp), %eax
	xorl	%gs:20, %eax
	je	.L52
	call	__stack_chk_fail
.LVL34:
.L52:
	leal	-12(%ebp), %esp
	popl	%ebx
	.cfi_restore 3
	popl	%esi
	.cfi_restore 6
	popl	%edi
	.cfi_restore 7
	popl	%ebp
	.cfi_restore 5
	.cfi_def_cfa 4, 4
	ret
	.cfi_endproc
.LFE30:
	.size	netif_set_ipaddr, .-netif_set_ipaddr
	.section	.text.unlikely.netif_set_ipaddr
.LCOLDE5:
	.section	.text.netif_set_ipaddr
.LHOTE5:
	.section	.text.unlikely.netif_set_addr,"ax",@progbits
.LCOLDB6:
	.section	.text.netif_set_addr,"ax",@progbits
.LHOTB6:
	.globl	netif_set_addr
	.type	netif_set_addr, @function
netif_set_addr:
.LFB27:
	.loc 1 354 0
	.cfi_startproc
.LVL35:
	pushl	%ebp
	.cfi_def_cfa_offset 8
	.cfi_offset 5, -8
	movl	%esp, %ebp
	.cfi_def_cfa_register 5
	pushl	%edi
	pushl	%esi
	pushl	%ebx
	subl	$12, %esp
	.cfi_offset 7, -12
	.cfi_offset 6, -16
	.cfi_offset 3, -20
	.loc 1 354 0
	movl	12(%ebp), %eax
	movl	8(%ebp), %ebx
	movl	16(%ebp), %edi
	movl	20(%ebp), %esi
	.loc 1 355 0
	testl	%eax, %eax
	je	.L63
	.loc 1 355 0 discriminator 1
	cmpl	$0, (%eax)
	jne	.L64
.L63:
	.loc 1 358 0
	pushl	%edx
	pushl	%edx
	pushl	%eax
	pushl	%ebx
	call	netif_set_ipaddr
.LVL36:
.LBB42:
.LBB43:
	.loc 1 584 0
	addl	$16, %esp
	xorl	%eax, %eax
	testl	%edi, %edi
	je	.L65
	movl	(%edi), %eax
.L65:
	.loc 1 584 0
	movl	%eax, 8(%ebx)
.LVL37:
.LBE43:
.LBE42:
.LBB44:
.LBB45:
	.loc 1 559 0
	xorl	%eax, %eax
	testl	%esi, %esi
	je	.L66
	movl	(%esi), %eax
.L66:
	.loc 1 559 0
	movl	%eax, 12(%ebx)
.LBE45:
.LBE44:
	.loc 1 367 0
	leal	-12(%ebp), %esp
	popl	%ebx
	.cfi_remember_state
	.cfi_restore 3
.LVL38:
	popl	%esi
	.cfi_restore 6
.LVL39:
	popl	%edi
	.cfi_restore 7
	popl	%ebp
	.cfi_restore 5
	.cfi_def_cfa 4, 4
	ret
.LVL40:
.L64:
	.cfi_restore_state
.LBB46:
.LBB47:
.LBB48:
.LBB49:
	.loc 1 584 0
	xorl	%edx, %edx
	testl	%edi, %edi
	je	.L68
	movl	(%edi), %edx
.L68:
	.loc 1 584 0
	movl	%edx, 8(%ebx)
.LVL41:
.LBE49:
.LBE48:
.LBB50:
.LBB51:
	.loc 1 559 0
	xorl	%edx, %edx
	testl	%esi, %esi
	je	.L69
	movl	(%esi), %edx
.L69:
	.loc 1 559 0
	movl	%edx, 12(%ebx)
.LVL42:
.LBE51:
.LBE50:
	.loc 1 365 0
	movl	%ebx, 8(%ebp)
.LVL43:
	movl	%eax, 12(%ebp)
.LVL44:
.LBE47:
.LBE46:
	.loc 1 367 0
	leal	-12(%ebp), %esp
	popl	%ebx
	.cfi_restore 3
.LVL45:
	popl	%esi
	.cfi_restore 6
.LVL46:
	popl	%edi
	.cfi_restore 7
.LVL47:
	popl	%ebp
	.cfi_restore 5
	.cfi_def_cfa 4, 4
.LBB53:
.LBB52:
	.loc 1 365 0
	jmp	netif_set_ipaddr
.LVL48:
.LBE52:
.LBE53:
	.cfi_endproc
.LFE27:
	.size	netif_set_addr, .-netif_set_addr
	.section	.text.unlikely.netif_set_addr
.LCOLDE6:
	.section	.text.netif_set_addr
.LHOTE6:
	.section	.text.unlikely.netif_add,"ax",@progbits
.LCOLDB7:
	.section	.text.netif_add,"ax",@progbits
.LHOTB7:
	.globl	netif_add
	.type	netif_add, @function
netif_add:
.LFB26:
	.loc 1 246 0
	.cfi_startproc
.LVL49:
	pushl	%ebp
	.cfi_def_cfa_offset 8
	.cfi_offset 5, -8
	.loc 1 269 0
	xorl	%eax, %eax
	movl	$2, %ecx
	.loc 1 246 0
	movl	%esp, %ebp
	.cfi_def_cfa_register 5
	pushl	%edi
	pushl	%esi
	pushl	%ebx
	.cfi_offset 7, -12
	.cfi_offset 6, -16
	.cfi_offset 3, -20
	.loc 1 311 0
	xorl	%esi, %esi
	.loc 1 246 0
	subl	$12, %esp
	.loc 1 246 0
	movl	8(%ebp), %ebx
	.loc 1 269 0
	leal	36(%ebx), %edx
	.loc 1 255 0
	movl	$0, 4(%ebx)
	.loc 1 256 0
	movl	$0, 8(%ebx)
	.loc 1 257 0
	movl	$0, 12(%ebx)
	.loc 1 267 0
	movb	$0, 61(%ebx)
	.loc 1 269 0
	movl	%edx, %edi
	rep stosl
	.loc 1 296 0
	movl	24(%ebp), %eax
	.loc 1 276 0
	movb	$3, 44(%ebx)
	.loc 1 279 0
	movl	$0, 28(%ebx)
	.loc 1 285 0
	movl	$0, 68(%ebx)
	.loc 1 291 0
	movl	$0, 72(%ebx)
	.loc 1 292 0
	movl	$0, 76(%ebx)
	.loc 1 296 0
	movl	%eax, 32(%ebx)
	.loc 1 297 0
	movb	netif_num, %al
	.loc 1 302 0
	movw	$0, 80(%ebx)
	.loc 1 297 0
	movb	%al, 64(%ebx)
	leal	1(%eax), %edx
	.loc 1 298 0
	movl	32(%ebp), %eax
	.loc 1 297 0
	movb	%dl, netif_num
	.loc 1 298 0
	movl	%eax, 16(%ebx)
	.loc 1 306 0
	pushl	20(%ebp)
	pushl	16(%ebp)
	pushl	12(%ebp)
	pushl	%ebx
	call	netif_set_addr
.LVL50:
	.loc 1 310 0
	movl	%ebx, (%esp)
	call	*28(%ebp)
.LVL51:
	addl	$16, %esp
	testb	%al, %al
	jne	.L80
	.loc 1 321 0
	testb	$32, 61(%ebx)
	.loc 1 315 0
	movl	netif_list, %eax
	movl	%ebx, %esi
	movl	%eax, (%ebx)
	.loc 1 316 0
	movl	%ebx, netif_list
	.loc 1 321 0
	je	.L80
	.loc 1 322 0
	subl	$12, %esp
	pushl	%ebx
	call	igmp_start
.LVL52:
	addl	$16, %esp
.L80:
	.loc 1 338 0
	leal	-12(%ebp), %esp
	movl	%esi, %eax
	popl	%ebx
	.cfi_restore 3
	popl	%esi
	.cfi_restore 6
	popl	%edi
	.cfi_restore 7
	popl	%ebp
	.cfi_restore 5
	.cfi_def_cfa 4, 4
	ret
	.cfi_endproc
.LFE26:
	.size	netif_add, .-netif_add
	.section	.text.unlikely.netif_add
.LCOLDE7:
	.section	.text.netif_add
.LHOTE7:
	.section	.text.unlikely.netif_set_gw,"ax",@progbits
.LCOLDB8:
	.section	.text.netif_set_gw,"ax",@progbits
.LHOTB8:
	.globl	netif_set_gw
	.type	netif_set_gw, @function
netif_set_gw:
.LFB31:
	.loc 1 558 0
	.cfi_startproc
.LVL53:
	pushl	%ebp
	.cfi_def_cfa_offset 8
	.cfi_offset 5, -8
	xorl	%eax, %eax
	movl	%esp, %ebp
	.cfi_def_cfa_register 5
	.loc 1 558 0
	movl	12(%ebp), %edx
	.loc 1 559 0
	testl	%edx, %edx
	je	.L86
	.loc 1 559 0 is_stmt 0 discriminator 1
	movl	(%edx), %eax
.L86:
	.loc 1 559 0 is_stmt 1 discriminator 4
	movl	8(%ebp), %edx
	movl	%eax, 12(%edx)
	.loc 1 567 0 discriminator 4
	popl	%ebp
	.cfi_restore 5
	.cfi_def_cfa 4, 4
	ret
	.cfi_endproc
.LFE31:
	.size	netif_set_gw, .-netif_set_gw
	.section	.text.unlikely.netif_set_gw
.LCOLDE8:
	.section	.text.netif_set_gw
.LHOTE8:
	.section	.text.unlikely.netif_set_netmask,"ax",@progbits
.LCOLDB9:
	.section	.text.netif_set_netmask,"ax",@progbits
.LHOTB9:
	.globl	netif_set_netmask
	.type	netif_set_netmask, @function
netif_set_netmask:
.LFB32:
	.loc 1 581 0
	.cfi_startproc
.LVL54:
	pushl	%ebp
	.cfi_def_cfa_offset 8
	.cfi_offset 5, -8
	xorl	%eax, %eax
	movl	%esp, %ebp
	.cfi_def_cfa_register 5
	.loc 1 581 0
	movl	12(%ebp), %edx
	.loc 1 584 0
	testl	%edx, %edx
	je	.L91
	.loc 1 584 0 is_stmt 0 discriminator 1
	movl	(%edx), %eax
.L91:
	.loc 1 584 0 is_stmt 1 discriminator 4
	movl	8(%ebp), %edx
	movl	%eax, 8(%edx)
	.loc 1 593 0 discriminator 4
	popl	%ebp
	.cfi_restore 5
	.cfi_def_cfa 4, 4
	ret
	.cfi_endproc
.LFE32:
	.size	netif_set_netmask, .-netif_set_netmask
	.section	.text.unlikely.netif_set_netmask
.LCOLDE9:
	.section	.text.netif_set_netmask
.LHOTE9:
	.section	.text.unlikely.netif_set_default,"ax",@progbits
.LCOLDB10:
	.section	.text.netif_set_default,"ax",@progbits
.LHOTB10:
	.globl	netif_set_default
	.type	netif_set_default, @function
netif_set_default:
.LFB33:
	.loc 1 605 0
	.cfi_startproc
.LVL55:
	pushl	%ebp
	.cfi_def_cfa_offset 8
	.cfi_offset 5, -8
	movl	%esp, %ebp
	.cfi_def_cfa_register 5
	.loc 1 613 0
	movl	8(%ebp), %eax
	.loc 1 616 0
	popl	%ebp
	.cfi_restore 5
	.cfi_def_cfa 4, 4
	.loc 1 613 0
	movl	%eax, netif_default
	.loc 1 616 0
	ret
	.cfi_endproc
.LFE33:
	.size	netif_set_default, .-netif_set_default
	.section	.text.unlikely.netif_set_default
.LCOLDE10:
	.section	.text.netif_set_default
.LHOTE10:
	.section	.text.unlikely.netif_set_up,"ax",@progbits
.LCOLDB11:
	.section	.text.netif_set_up,"ax",@progbits
.LHOTB11:
	.globl	netif_set_up
	.type	netif_set_up, @function
netif_set_up:
.LFB34:
	.loc 1 625 0
	.cfi_startproc
.LVL56:
	pushl	%ebp
	.cfi_def_cfa_offset 8
	.cfi_offset 5, -8
	movl	%esp, %ebp
	.cfi_def_cfa_register 5
	pushl	%ebx
	pushl	%eax
	.cfi_offset 3, -12
	.loc 1 625 0
	movl	8(%ebp), %ebx
	.loc 1 626 0
	movb	61(%ebx), %al
	testb	$1, %al
	jne	.L97
	.loc 1 627 0
	orl	$1, %eax
	movb	%al, 61(%ebx)
	.loc 1 631 0
	movl	28(%ebx), %eax
	testl	%eax, %eax
	je	.L100
	.loc 1 631 0 is_stmt 0 discriminator 1
	subl	$12, %esp
	pushl	%ebx
	call	*%eax
.LVL57:
	addl	$16, %esp
.L100:
.LVL58:
.LBB58:
.LBB59:
	.loc 1 633 0 is_stmt 1
	testb	$4, 61(%ebx)
	je	.L97
.LVL59:
.LBB60:
.LBB61:
	.loc 1 645 0
	cmpl	$0, 4(%ebx)
	je	.L97
	movl	%ebx, %eax
.LBE61:
.LBE60:
.LBE59:
.LBE58:
	.loc 1 637 0
	movl	-4(%ebp), %ebx
.LVL60:
	leave
	.cfi_remember_state
	.cfi_restore 5
	.cfi_restore 3
	.cfi_def_cfa 4, 4
.LBB65:
.LBB64:
.LBB63:
.LBB62:
	jmp	netif_issue_reports.part.0
.LVL61:
.L97:
	.cfi_restore_state
.LBE62:
.LBE63:
.LBE64:
.LBE65:
	movl	-4(%ebp), %ebx
	leave
	.cfi_restore 5
	.cfi_restore 3
	.cfi_def_cfa 4, 4
	ret
	.cfi_endproc
.LFE34:
	.size	netif_set_up, .-netif_set_up
	.section	.text.unlikely.netif_set_up
.LCOLDE11:
	.section	.text.netif_set_up
.LHOTE11:
	.section	.text.unlikely.netif_set_down,"ax",@progbits
.LCOLDB12:
	.section	.text.netif_set_down,"ax",@progbits
.LHOTB12:
	.globl	netif_set_down
	.type	netif_set_down, @function
netif_set_down:
.LFB36:
	.loc 1 683 0
	.cfi_startproc
.LVL62:
	pushl	%ebp
	.cfi_def_cfa_offset 8
	.cfi_offset 5, -8
	movl	%esp, %ebp
	.cfi_def_cfa_register 5
	pushl	%ebx
	pushl	%eax
	.cfi_offset 3, -12
	.loc 1 683 0
	movl	8(%ebp), %ebx
	.loc 1 684 0
	movb	61(%ebx), %al
	testb	$1, %al
	je	.L109
	.loc 1 685 0
	movb	%al, %dl
	andl	$-2, %edx
	.loc 1 689 0
	testb	$8, %al
	.loc 1 685 0
	movb	%dl, 61(%ebx)
	.loc 1 689 0
	je	.L112
	.loc 1 690 0
	subl	$12, %esp
	pushl	%ebx
	call	etharp_cleanup_netif
.LVL63:
	addl	$16, %esp
.L112:
.LVL64:
.LBB68:
.LBB69:
	.loc 1 698 0
	movl	28(%ebx), %eax
	testl	%eax, %eax
	je	.L109
	movl	%ebx, 8(%ebp)
.LBE69:
.LBE68:
	.loc 1 700 0
	movl	-4(%ebp), %ebx
.LVL65:
	leave
	.cfi_remember_state
	.cfi_restore 5
	.cfi_restore 3
	.cfi_def_cfa 4, 4
.LBB71:
.LBB70:
	.loc 1 698 0
	jmp	*%eax
.LVL66:
.L109:
	.cfi_restore_state
.LBE70:
.LBE71:
	.loc 1 700 0
	movl	-4(%ebp), %ebx
	leave
	.cfi_restore 5
	.cfi_restore 3
	.cfi_def_cfa 4, 4
	ret
	.cfi_endproc
.LFE36:
	.size	netif_set_down, .-netif_set_down
	.section	.text.unlikely.netif_set_down
.LCOLDE12:
	.section	.text.netif_set_down
.LHOTE12:
	.section	.text.unlikely.netif_remove,"ax",@progbits
.LCOLDB13:
	.section	.text.netif_remove,"ax",@progbits
.LHOTB13:
	.globl	netif_remove
	.type	netif_remove, @function
netif_remove:
.LFB28:
	.loc 1 378 0
	.cfi_startproc
.LVL67:
	pushl	%ebp
	.cfi_def_cfa_offset 8
	.cfi_offset 5, -8
	movl	%esp, %ebp
	.cfi_def_cfa_register 5
	pushl	%esi
	pushl	%ebx
	.cfi_offset 6, -12
	.cfi_offset 3, -16
	.loc 1 378 0
	movl	8(%ebp), %ebx
	.loc 1 383 0
	testl	%ebx, %ebx
	je	.L121
	.loc 1 388 0
	cmpl	$0, 4(%ebx)
	je	.L124
	.loc 1 390 0
	leal	4(%ebx), %esi
	pushl	%eax
	pushl	%eax
	pushl	$0
	pushl	%esi
	call	tcp_netif_ip_addr_changed
.LVL68:
	.loc 1 393 0
	popl	%edx
	popl	%ecx
	pushl	$0
	pushl	%esi
	call	udp_netif_ip_addr_changed
.LVL69:
	.loc 1 396 0
	popl	%eax
	popl	%edx
	pushl	$0
	pushl	%esi
	call	raw_netif_ip_addr_changed
.LVL70:
	addl	$16, %esp
.L124:
	.loc 1 402 0
	testb	$32, 61(%ebx)
	je	.L125
	.loc 1 403 0
	subl	$12, %esp
	pushl	%ebx
	call	igmp_stop
.LVL71:
	addl	$16, %esp
.L125:
	.loc 1 427 0
	testb	$1, 61(%ebx)
	je	.L126
	.loc 1 429 0
	subl	$12, %esp
	pushl	%ebx
	call	netif_set_down
.LVL72:
	addl	$16, %esp
.L126:
	.loc 1 435 0
	cmpl	netif_default, %ebx
	jne	.L127
.LVL73:
.LBB72:
.LBB73:
	.loc 1 613 0
	movl	$0, netif_default
.LVL74:
.L127:
.LBE73:
.LBE72:
	.loc 1 440 0
	movl	netif_list, %eax
	cmpl	%eax, %ebx
	jne	.L137
	.loc 1 441 0
	movl	(%ebx), %eax
	movl	%eax, netif_list
	jmp	.L121
.LVL75:
.L132:
.LBB74:
	movl	%edx, %eax
.LVL76:
.L137:
	.loc 1 445 0 discriminator 1
	testl	%eax, %eax
	je	.L121
	.loc 1 446 0
	movl	(%eax), %edx
	cmpl	%edx, %ebx
	jne	.L132
	.loc 1 447 0
	movl	(%ebx), %edx
	movl	%edx, (%eax)
.LVL77:
.L121:
.LBE74:
	.loc 1 462 0
	leal	-8(%ebp), %esp
	popl	%ebx
	.cfi_restore 3
	popl	%esi
	.cfi_restore 6
	popl	%ebp
	.cfi_restore 5
	.cfi_def_cfa 4, 4
	ret
	.cfi_endproc
.LFE28:
	.size	netif_remove, .-netif_remove
	.section	.text.unlikely.netif_remove
.LCOLDE13:
	.section	.text.netif_remove
.LHOTE13:
	.section	.text.unlikely.netif_set_status_callback,"ax",@progbits
.LCOLDB14:
	.section	.text.netif_set_status_callback,"ax",@progbits
.LHOTB14:
	.globl	netif_set_status_callback
	.type	netif_set_status_callback, @function
netif_set_status_callback:
.LFB37:
	.loc 1 709 0
	.cfi_startproc
.LVL78:
	pushl	%ebp
	.cfi_def_cfa_offset 8
	.cfi_offset 5, -8
	movl	%esp, %ebp
	.cfi_def_cfa_register 5
	.loc 1 709 0
	movl	8(%ebp), %eax
	.loc 1 710 0
	testl	%eax, %eax
	je	.L141
	.loc 1 711 0
	movl	12(%ebp), %edx
	movl	%edx, 28(%eax)
.L141:
	.loc 1 713 0
	popl	%ebp
	.cfi_restore 5
	.cfi_def_cfa 4, 4
	ret
	.cfi_endproc
.LFE37:
	.size	netif_set_status_callback, .-netif_set_status_callback
	.section	.text.unlikely.netif_set_status_callback
.LCOLDE14:
	.section	.text.netif_set_status_callback
.LHOTE14:
	.section	.text.unlikely.netif_set_link_up,"ax",@progbits
.LCOLDB15:
	.section	.text.netif_set_link_up,"ax",@progbits
.LHOTB15:
	.globl	netif_set_link_up
	.type	netif_set_link_up, @function
netif_set_link_up:
.LFB38:
	.loc 1 736 0
	.cfi_startproc
.LVL79:
	pushl	%ebp
	.cfi_def_cfa_offset 8
	.cfi_offset 5, -8
	movl	%esp, %ebp
	.cfi_def_cfa_register 5
	pushl	%ebx
	pushl	%eax
	.cfi_offset 3, -12
	.loc 1 736 0
	movl	8(%ebp), %ebx
	.loc 1 737 0
	movb	61(%ebx), %al
	testb	$4, %al
	jne	.L147
	.loc 1 741 0
	subl	$12, %esp
	.loc 1 738 0
	orl	$4, %eax
	movb	%al, 61(%ebx)
	.loc 1 741 0
	pushl	%ebx
	call	dhcp_network_changed
.LVL80:
	.loc 1 748 0
	addl	$16, %esp
	testb	$1, 61(%ebx)
	je	.L147
.LVL81:
.LBB77:
.LBB78:
	.loc 1 645 0
	cmpl	$0, 4(%ebx)
	je	.L147
	movl	%ebx, %eax
.LBE78:
.LBE77:
	.loc 1 753 0
	movl	-4(%ebp), %ebx
.LVL82:
	leave
	.cfi_remember_state
	.cfi_restore 5
	.cfi_restore 3
	.cfi_def_cfa 4, 4
.LBB80:
.LBB79:
	jmp	netif_issue_reports.part.0
.LVL83:
.L147:
	.cfi_restore_state
.LBE79:
.LBE80:
	movl	-4(%ebp), %ebx
	leave
	.cfi_restore 5
	.cfi_restore 3
	.cfi_def_cfa 4, 4
	ret
	.cfi_endproc
.LFE38:
	.size	netif_set_link_up, .-netif_set_link_up
	.section	.text.unlikely.netif_set_link_up
.LCOLDE15:
	.section	.text.netif_set_link_up
.LHOTE15:
	.section	.text.unlikely.netif_init,"ax",@progbits
.LCOLDB16:
	.section	.text.netif_init,"ax",@progbits
.LHOTB16:
	.globl	netif_init
	.type	netif_init, @function
netif_init:
.LFB24:
	.loc 1 164 0
	.cfi_startproc
	pushl	%ebp
	.cfi_def_cfa_offset 8
	.cfi_offset 5, -8
	movl	%esp, %ebp
	.cfi_def_cfa_register 5
	subl	$28, %esp
	.loc 1 164 0
	movl	%gs:20, %eax
	movl	%eax, -12(%ebp)
	xorl	%eax, %eax
	.loc 1 179 0
	leal	-16(%ebp), %eax
	pushl	$tcpip_input
	pushl	$netif_loopif_init
	pushl	$0
	.loc 1 169 0
	movl	$16777343, -16(%ebp)
	.loc 1 179 0
	pushl	%eax
	leal	-20(%ebp), %eax
	.loc 1 170 0
	movl	$16777343, -24(%ebp)
	.loc 1 171 0
	movl	$255, -20(%ebp)
	.loc 1 179 0
	pushl	%eax
	leal	-24(%ebp), %eax
	pushl	%eax
	pushl	$loop_netif
	call	netif_add
.LVL84:
	.loc 1 187 0
	addl	$20, %esp
	pushl	$loop_netif
	call	netif_set_link_up
.LVL85:
	.loc 1 188 0
	movl	$loop_netif, (%esp)
	call	netif_set_up
.LVL86:
	.loc 1 191 0
	addl	$16, %esp
	movl	-12(%ebp), %eax
	xorl	%gs:20, %eax
	je	.L156
	call	__stack_chk_fail
.LVL87:
.L156:
	leave
	.cfi_restore 5
	.cfi_def_cfa 4, 4
	ret
	.cfi_endproc
.LFE24:
	.size	netif_init, .-netif_init
	.section	.text.unlikely.netif_init
.LCOLDE16:
	.section	.text.netif_init
.LHOTE16:
	.section	.text.unlikely.netif_set_link_down,"ax",@progbits
.LCOLDB17:
	.section	.text.netif_set_link_down,"ax",@progbits
.LHOTB17:
	.globl	netif_set_link_down
	.type	netif_set_link_down, @function
netif_set_link_down:
.LFB39:
	.loc 1 761 0
	.cfi_startproc
.LVL88:
	pushl	%ebp
	.cfi_def_cfa_offset 8
	.cfi_offset 5, -8
	movl	%esp, %ebp
	.cfi_def_cfa_register 5
	.loc 1 761 0
	movl	8(%ebp), %edx
	.loc 1 762 0
	movb	61(%edx), %al
	testb	$4, %al
	je	.L158
	.loc 1 763 0
	andl	$-5, %eax
	movb	%al, 61(%edx)
.L158:
	.loc 1 766 0
	popl	%ebp
	.cfi_restore 5
	.cfi_def_cfa 4, 4
	ret
	.cfi_endproc
.LFE39:
	.size	netif_set_link_down, .-netif_set_link_down
	.section	.text.unlikely.netif_set_link_down
.LCOLDE17:
	.section	.text.netif_set_link_down
.LHOTE17:
	.section	.text.unlikely.netif_loop_output,"ax",@progbits
.LCOLDB18:
	.section	.text.netif_loop_output,"ax",@progbits
.LHOTB18:
	.globl	netif_loop_output
	.type	netif_loop_output, @function
netif_loop_output:
.LFB40:
	.loc 1 799 0
	.cfi_startproc
.LVL89:
	pushl	%ebp
	.cfi_def_cfa_offset 8
	.cfi_offset 5, -8
	movl	%esp, %ebp
	.cfi_def_cfa_register 5
	pushl	%edi
	pushl	%esi
	pushl	%ebx
	subl	$32, %esp
	.cfi_offset 7, -12
	.cfi_offset 6, -16
	.cfi_offset 3, -20
	.loc 1 818 0
	movl	12(%ebp), %eax
	.loc 1 799 0
	movl	8(%ebp), %ebx
	.loc 1 818 0
	pushl	$0
	movzwl	8(%eax), %eax
	pushl	%eax
	pushl	$2
	call	pbuf_alloc
.LVL90:
	movl	%eax, %esi
.LVL91:
	.loc 1 819 0
	addl	$16, %esp
	.loc 1 823 0
	movb	$-1, %al
.LVL92:
	.loc 1 819 0
	testl	%esi, %esi
	je	.L165
	.loc 1 826 0
	subl	$12, %esp
	pushl	%esi
	call	pbuf_clen
.LVL93:
	.loc 1 828 0
	movzwl	80(%ebx), %edi
	movzwl	%ax, %ecx
	addl	$16, %esp
	addl	%edi, %ecx
	cmpl	$8, %ecx
	jg	.L174
	cmpl	%ecx, %edi
	jle	.L166
.L174:
	.loc 1 830 0
	subl	$12, %esp
	pushl	%esi
	call	pbuf_free
.LVL94:
	.loc 1 834 0
	addl	$16, %esp
	movb	$-1, %al
	jmp	.L165
.LVL95:
.L166:
	.loc 1 836 0
	addl	%edi, %eax
.LVL96:
	movl	%esi, %edi
	movw	%ax, 80(%ebx)
	.loc 1 840 0
	pushl	%eax
	pushl	%eax
	pushl	12(%ebp)
	pushl	%esi
	call	pbuf_copy
.LVL97:
	addl	$16, %esp
	testb	%al, %al
	je	.L175
	.loc 1 841 0
	subl	$12, %esp
	movb	%al, -25(%ebp)
	pushl	%esi
	call	pbuf_free
.LVL98:
	.loc 1 845 0
	movb	-25(%ebp), %dl
	addl	$16, %esp
	movb	%dl, %al
	jmp	.L165
.LVL99:
.L175:
	.loc 1 852 0 discriminator 1
	movl	(%edi), %eax
	testl	%eax, %eax
	je	.L179
	movl	%eax, %edi
.LVL100:
	jmp	.L175
.LVL101:
.L179:
	.loc 1 854 0
	call	sys_arch_protect
.LVL102:
	.loc 1 855 0
	cmpl	$0, 72(%ebx)
	je	.L170
	.loc 1 857 0
	movl	76(%ebx), %ecx
	movl	%esi, (%ecx)
	jmp	.L178
.L170:
	.loc 1 860 0
	movl	%esi, 72(%ebx)
.L178:
	.loc 1 863 0
	subl	$12, %esp
	.loc 1 861 0
	movl	%edi, 76(%ebx)
	.loc 1 863 0
	pushl	%eax
	call	sys_arch_unprotect
.LVL103:
	.loc 1 871 0
	addl	$12, %esp
	pushl	$0
	pushl	%ebx
	pushl	$netif_poll
	call	tcpip_callback_with_block
.LVL104:
	.loc 1 874 0
	addl	$16, %esp
	xorl	%eax, %eax
.LVL105:
.L165:
	.loc 1 875 0
	leal	-12(%ebp), %esp
	popl	%ebx
	.cfi_restore 3
	popl	%esi
	.cfi_restore 6
.LVL106:
	popl	%edi
	.cfi_restore 7
	popl	%ebp
	.cfi_restore 5
	.cfi_def_cfa 4, 4
	ret
	.cfi_endproc
.LFE40:
	.size	netif_loop_output, .-netif_loop_output
	.section	.text.unlikely.netif_loop_output
.LCOLDE18:
	.section	.text.netif_loop_output
.LHOTE18:
	.section	.text.unlikely.netif_loop_output_ipv4,"ax",@progbits
.LCOLDB19:
	.section	.text.netif_loop_output_ipv4,"ax",@progbits
.LHOTB19:
	.type	netif_loop_output_ipv4, @function
netif_loop_output_ipv4:
.LFB41:
	.loc 1 881 0
	.cfi_startproc
.LVL107:
	pushl	%ebp
	.cfi_def_cfa_offset 8
	.cfi_offset 5, -8
	movl	%esp, %ebp
	.cfi_def_cfa_register 5
	.loc 1 884 0
	popl	%ebp
	.cfi_restore 5
	.cfi_def_cfa 4, 4
	.loc 1 883 0
	jmp	netif_loop_output
.LVL108:
	.cfi_endproc
.LFE41:
	.size	netif_loop_output_ipv4, .-netif_loop_output_ipv4
	.section	.text.unlikely.netif_loop_output_ipv4
.LCOLDE19:
	.section	.text.netif_loop_output_ipv4
.LHOTE19:
	.section	.bss.loop_netif,"aw",@nobits
	.align 32
	.type	loop_netif, @object
	.size	loop_netif, 84
loop_netif:
	.zero	84
	.section	.bss.netif_num,"aw",@nobits
	.type	netif_num, @object
	.size	netif_num, 1
netif_num:
	.zero	1
	.globl	netif_default
	.section	.bss.netif_default,"aw",@nobits
	.align 4
	.type	netif_default, @object
	.size	netif_default, 4
netif_default:
	.zero	4
	.globl	netif_list
	.section	.bss.netif_list,"aw",@nobits
	.align 4
	.type	netif_list, @object
	.size	netif_list, 4
netif_list:
	.zero	4
	.text
.Letext0:
	.section	.text.unlikely.netif_loopif_init
.Letext_cold0:
	.file 2 "././platform/mcu/moc108/include/lwip-2.0.2/arch/cc.h"
	.file 3 "./kernel/protocols/net/include/lwip/ip4_addr.h"
	.file 4 "./kernel/protocols/net/include/lwip/ip_addr.h"
	.file 5 "./kernel/protocols/net/include/lwip/err.h"
	.file 6 "./kernel/protocols/net/include/lwip/pbuf.h"
	.file 7 "./kernel/protocols/net/include/lwip/memp.h"
	.file 8 "./kernel/protocols/net/include/lwip/netif.h"
	.file 9 "./kernel/protocols/net/port/include/arch/sys_arch.h"
	.file 10 "./kernel/protocols/net/include/lwip/tcpip.h"
	.file 11 "./include/aos/log.h"
	.file 12 "./kernel/protocols/net/include/lwip/sys.h"
	.file 13 "./kernel/protocols/net/include/lwip/ip4.h"
	.file 14 "./kernel/protocols/net/include/lwip/etharp.h"
	.file 15 "./kernel/protocols/net/include/lwip/igmp.h"
	.file 16 "./kernel/protocols/net/include/netif/ethernet.h"
	.file 17 "./kernel/protocols/net/include/lwip/priv/tcp_priv.h"
	.file 18 "./kernel/protocols/net/include/lwip/udp.h"
	.file 19 "./kernel/protocols/net/include/lwip/raw.h"
	.file 20 "./kernel/protocols/net/include/lwip/dhcp.h"
	.section	.note.GNU-stack,"",@progbits
