	.file	"netmgr.c"
	.text
.Ltext0:
	.section	.text.unlikely.netmgr_connect_fail_event,"ax",@progbits
.LCOLDB0:
	.section	.text.netmgr_connect_fail_event,"ax",@progbits
.LHOTB0:
	.section	.text.unlikely.netmgr_connect_fail_event
.Ltext_cold0:
	.section	.text.netmgr_connect_fail_event
	.type	netmgr_connect_fail_event, @function
netmgr_connect_fail_event:
.LFB24:
	.file 1 "framework/netmgr/netmgr.c"
	.loc 1 90 0
	.cfi_startproc
.LVL0:
	pushl	%ebp
	.cfi_def_cfa_offset 8
	.cfi_offset 5, -8
	movl	%esp, %ebp
	.cfi_def_cfa_register 5
	.loc 1 92 0
	popl	%ebp
	.cfi_restore 5
	.cfi_def_cfa 4, 4
	ret
	.cfi_endproc
.LFE24:
	.size	netmgr_connect_fail_event, .-netmgr_connect_fail_event
	.section	.text.unlikely.netmgr_connect_fail_event
.LCOLDE0:
	.section	.text.netmgr_connect_fail_event
.LHOTE0:
	.section	.text.unlikely.netmgr_scan_adv_completed_event,"ax",@progbits
.LCOLDB1:
	.section	.text.netmgr_scan_adv_completed_event,"ax",@progbits
.LHOTB1:
	.type	netmgr_scan_adv_completed_event, @function
netmgr_scan_adv_completed_event:
.LFB33:
	.loc 1 309 0
	.cfi_startproc
.LVL1:
	pushl	%ebp
	.cfi_def_cfa_offset 8
	.cfi_offset 5, -8
	movl	%esp, %ebp
	.cfi_def_cfa_register 5
	pushl	%edi
	pushl	%esi
	pushl	%ebx
	subl	$12, %esp
	.cfi_offset 7, -12
	.cfi_offset 6, -16
	.cfi_offset 3, -20
	.loc 1 310 0
	movl	g_netmgr_cxt+224, %esi
.LVL2:
	.loc 1 313 0
	testl	%esi, %esi
	je	.L3
	xorl	%edi, %edi
	xorl	%ebx, %ebx
.LVL3:
.L5:
	.loc 1 314 0 discriminator 1
	movl	12(%ebp), %eax
	movsbl	(%eax), %eax
	cmpl	%eax, %ebx
	jge	.L13
	.loc 1 321 0
	movl	12(%ebp), %edx
	.loc 1 316 0
	decl	%eax
	.loc 1 317 0
	cmpl	%eax, %ebx
	movl	$1, %eax
	cmove	%eax, %edi
.LVL4:
	.loc 1 321 0
	imull	$41, %ebx, %eax
	addl	4(%edx), %eax
	.loc 1 319 0
	pushl	%edx
	pushl	%edi
	.loc 1 314 0
	incl	%ebx
.LVL5:
	.loc 1 319 0
	movsbl	32(%eax), %ecx
	pushl	%ecx
	movzbl	39(%eax), %ecx
	pushl	%ecx
	pushl	$0
	movzbl	40(%eax), %ecx
	pushl	%ecx
	leal	33(%eax), %ecx
	pushl	%ecx
	pushl	%eax
	call	*%esi
.LVL6:
	.loc 1 314 0
	addl	$32, %esp
	jmp	.L5
.L13:
	.loc 1 323 0
	movb	$1, g_netmgr_cxt+228
.LVL7:
.L3:
	.loc 1 325 0
	leal	-12(%ebp), %esp
	popl	%ebx
	.cfi_restore 3
	popl	%esi
	.cfi_restore 6
.LVL8:
	popl	%edi
	.cfi_restore 7
	popl	%ebp
	.cfi_restore 5
	.cfi_def_cfa 4, 4
	ret
	.cfi_endproc
.LFE33:
	.size	netmgr_scan_adv_completed_event, .-netmgr_scan_adv_completed_event
	.section	.text.unlikely.netmgr_scan_adv_completed_event
.LCOLDE1:
	.section	.text.netmgr_scan_adv_completed_event
.LHOTE1:
	.section	.text.unlikely.netmgr_para_chg_event,"ax",@progbits
.LCOLDB2:
	.section	.text.netmgr_para_chg_event,"ax",@progbits
.LHOTB2:
	.type	netmgr_para_chg_event, @function
netmgr_para_chg_event:
.LFB34:
	.loc 1 330 0
	.cfi_startproc
.LVL9:
	pushl	%ebp
	.cfi_def_cfa_offset 8
	.cfi_offset 5, -8
	movl	%esp, %ebp
	.cfi_def_cfa_register 5
	.loc 1 331 0
	popl	%ebp
	.cfi_restore 5
	.cfi_def_cfa 4, 4
	ret
	.cfi_endproc
.LFE34:
	.size	netmgr_para_chg_event, .-netmgr_para_chg_event
	.section	.text.unlikely.netmgr_para_chg_event
.LCOLDE2:
	.section	.text.netmgr_para_chg_event
.LHOTE2:
	.section	.text.unlikely.netmgr_fatal_err_event,"ax",@progbits
.LCOLDB3:
	.section	.text.netmgr_fatal_err_event,"ax",@progbits
.LHOTB3:
	.type	netmgr_fatal_err_event, @function
netmgr_fatal_err_event:
.LFB35:
	.loc 1 334 0
	.cfi_startproc
.LVL10:
	pushl	%ebp
	.cfi_def_cfa_offset 8
	.cfi_offset 5, -8
	movl	%esp, %ebp
	.cfi_def_cfa_register 5
	.loc 1 335 0
	popl	%ebp
	.cfi_restore 5
	.cfi_def_cfa 4, 4
	ret
	.cfi_endproc
.LFE35:
	.size	netmgr_fatal_err_event, .-netmgr_fatal_err_event
	.section	.text.unlikely.netmgr_fatal_err_event
.LCOLDE3:
	.section	.text.netmgr_fatal_err_event
.LHOTE3:
	.section	.text.unlikely.def_smart_config_result_cb,"ax",@progbits
.LCOLDB4:
	.section	.text.def_smart_config_result_cb,"ax",@progbits
.LHOTB4:
	.type	def_smart_config_result_cb, @function
def_smart_config_result_cb:
.LFB62:
	.loc 1 722 0
	.cfi_startproc
.LVL11:
	pushl	%ebp
	.cfi_def_cfa_offset 8
	.cfi_offset 5, -8
	movl	%esp, %ebp
	.cfi_def_cfa_register 5
	.loc 1 723 0
	popl	%ebp
	.cfi_restore 5
	.cfi_def_cfa 4, 4
	ret
	.cfi_endproc
.LFE62:
	.size	def_smart_config_result_cb, .-def_smart_config_result_cb
	.section	.text.unlikely.def_smart_config_result_cb
.LCOLDE4:
	.section	.text.def_smart_config_result_cb
.LHOTE4:
	.section	.rodata.str1.1,"aMS",@progbits,1
.LC5:
	.string	"%d.%d.%d.%d"
	.section	.text.unlikely.format_ip,"ax",@progbits
.LCOLDB6:
	.section	.text.format_ip,"ax",@progbits
.LHOTB6:
	.type	format_ip, @function
format_ip:
.LFB23:
	.loc 1 77 0
	.cfi_startproc
.LVL12:
	pushl	%ebp
	.cfi_def_cfa_offset 8
	.cfi_offset 5, -8
	.loc 1 86 0
	movl	%eax, %ecx
	shrl	$24, %ecx
	.loc 1 77 0
	movl	%esp, %ebp
	.cfi_def_cfa_register 5
	subl	$16, %esp
	.loc 1 86 0
	pushl	%ecx
	movl	%eax, %ecx
	shrl	$16, %ecx
	movzbl	%cl, %ecx
	pushl	%ecx
	movzbl	%ah, %ecx
	movzbl	%al, %eax
.LVL13:
	pushl	%ecx
	pushl	%eax
	pushl	$.LC5
	pushl	%edx
	call	sprintf
.LVL14:
	.loc 1 87 0
	addl	$32, %esp
	leave
	.cfi_restore 5
	.cfi_def_cfa 4, 4
	ret
	.cfi_endproc
.LFE23:
	.size	format_ip, .-format_ip
	.section	.text.unlikely.format_ip
.LCOLDE6:
	.section	.text.format_ip
.LHOTE6:
	.section	.text.unlikely.def_smart_config_stop,"ax",@progbits
.LCOLDB7:
	.section	.text.def_smart_config_stop,"ax",@progbits
.LHOTB7:
	.type	def_smart_config_stop, @function
def_smart_config_stop:
.LFB61:
	.loc 1 716 0
	.cfi_startproc
	pushl	%ebp
	.cfi_def_cfa_offset 8
	.cfi_offset 5, -8
	movl	%esp, %ebp
	.cfi_def_cfa_register 5
	subl	$12, %esp
	.loc 1 717 0
	pushl	$g_netmgr_cxt+216
	pushl	$5
	pushl	$2
	call	aos_post_event
.LVL15:
	.loc 1 719 0
	addl	$16, %esp
	leave
	.cfi_restore 5
	.cfi_def_cfa 4, 4
	ret
	.cfi_endproc
.LFE61:
	.size	def_smart_config_stop, .-def_smart_config_stop
	.section	.text.unlikely.def_smart_config_stop
.LCOLDE7:
	.section	.text.def_smart_config_stop
.LHOTE7:
	.section	.rodata.str1.1
.LC8:
	.string	"Got ip : %s, gw : %s, mask : %s"
.LC9:
	.string	"[%06d]<I> "
.LC10:
	.string	"\r\n"
	.section	.text.unlikely.netmgr_ip_got_event,"ax",@progbits
.LCOLDB11:
	.section	.text.netmgr_ip_got_event,"ax",@progbits
.LHOTB11:
	.type	netmgr_ip_got_event, @function
netmgr_ip_got_event:
.LFB28:
	.loc 1 139 0
	.cfi_startproc
.LVL16:
	pushl	%ebp
	.cfi_def_cfa_offset 8
	.cfi_offset 5, -8
	movl	%esp, %ebp
	.cfi_def_cfa_register 5
	pushl	%edi
	pushl	%esi
	pushl	%ebx
	subl	$44, %esp
	.cfi_offset 7, -12
	.cfi_offset 6, -16
	.cfi_offset 3, -20
	.loc 1 139 0
	movl	12(%ebp), %eax
	movl	%gs:20, %ecx
	movl	%ecx, -28(%ebp)
	xorl	%ecx, %ecx
	.loc 1 140 0
	testb	$8, aos_log_level
	leal	1(%eax), %ebx
	je	.L25
	.loc 1 140 0 is_stmt 0 discriminator 1
	leal	33(%eax), %esi
	leal	17(%eax), %edi
	call	aos_now_ms
.LVL17:
	pushl	%edx
	pushl	%edx
	pushl	%esi
	pushl	%edi
	pushl	%ebx
	pushl	$.LC8
	pushl	%eax
	pushl	$.LC9
	call	csp_printf
.LVL18:
	addl	$32, %esp
	pushl	%esi
	pushl	%edi
	pushl	%ebx
	pushl	$.LC8
	call	csp_printf
.LVL19:
	movl	$.LC10, (%esp)
	call	csp_printf
.LVL20:
	addl	$16, %esp
.L25:
.LBB42:
.LBB43:
	.loc 1 222 0 is_stmt 1
	call	aos_now
.LVL21:
	.loc 1 229 0
	cmpb	$0, rand_flag.6400
	jne	.L26
	.loc 1 242 0
	subl	$12, %esp
	pushl	%eax
	call	srand
.LVL22:
	.loc 1 243 0
	call	tcp_init
.LVL23:
	.loc 1 244 0
	call	udp_init
.LVL24:
	.loc 1 252 0
	movb	$1, rand_flag.6400
	addl	$16, %esp
.L26:
.LVL25:
.LBE43:
.LBE42:
.LBB44:
.LBB45:
	.loc 1 128 0
	pushl	%eax
	pushl	%eax
	leal	-32(%ebp), %eax
	pushl	%eax
	leal	-36(%ebp), %eax
	pushl	%eax
	leal	-40(%ebp), %eax
	pushl	%eax
	leal	-44(%ebp), %eax
	pushl	%eax
	pushl	$.LC5
	pushl	%ebx
	call	sscanf
.LVL26:
	movl	-32(%ebp), %edx
	movl	-36(%ebp), %eax
.LBE45:
.LBE44:
	.loc 1 148 0
	addl	$28, %esp
	pushl	$0
.LVL27:
	pushl	$4
	pushl	$2
	.loc 1 147 0
	movb	$1, g_netmgr_cxt+222
	sall	$24, %edx
	sall	$16, %eax
	orl	%edx, %eax
.LBB47:
.LBB46:
	.loc 1 132 0
	movl	-40(%ebp), %edx
	orl	-44(%ebp), %eax
	sall	$8, %edx
	orl	%edx, %eax
.LVL28:
.LBE46:
.LBE47:
	.loc 1 146 0
	movl	%eax, g_netmgr_cxt+216
	.loc 1 148 0
	call	aos_post_event
.LVL29:
	.loc 1 150 0
	addl	$16, %esp
	movl	-28(%ebp), %eax
	xorl	%gs:20, %eax
	je	.L27
	call	__stack_chk_fail
.LVL30:
.L27:
	leal	-12(%ebp), %esp
	popl	%ebx
	.cfi_restore 3
	popl	%esi
	.cfi_restore 6
	popl	%edi
	.cfi_restore 7
	popl	%ebp
	.cfi_restore 5
	.cfi_def_cfa 4, 4
	ret
	.cfi_endproc
.LFE28:
	.size	netmgr_ip_got_event, .-netmgr_ip_got_event
	.section	.text.unlikely.netmgr_ip_got_event
.LCOLDE11:
	.section	.text.netmgr_ip_got_event
.LHOTE11:
	.section	.text.unlikely.reconnect_wifi.isra.1,"ax",@progbits
.LCOLDB12:
	.section	.text.reconnect_wifi.isra.1,"ax",@progbits
.LHOTB12:
	.type	reconnect_wifi.isra.1, @function
reconnect_wifi.isra.1:
.LFB64:
	.loc 1 347 0
	.cfi_startproc
	pushl	%ebp
	.cfi_def_cfa_offset 8
	.cfi_offset 5, -8
	movl	%esp, %ebp
	.cfi_def_cfa_register 5
	pushl	%edi
	pushl	%esi
	pushl	%ebx
	.cfi_offset 7, -12
	.cfi_offset 6, -16
	.cfi_offset 3, -20
	.loc 1 355 0
	leal	-228(%ebp), %ebx
	.loc 1 347 0
	subl	$220, %esp
	.loc 1 355 0
	movl	%ebx, %edi
	.loc 1 347 0
	movl	%gs:20, %eax
	movl	%eax, -28(%ebp)
	xorl	%eax, %eax
.LVL31:
	.loc 1 353 0
	call	hal_wifi_get_default_module
.LVL32:
	.loc 1 355 0
	movl	$50, %ecx
	.loc 1 353 0
	movl	%eax, %esi
.LVL33:
	.loc 1 355 0
	xorl	%eax, %eax
.LVL34:
	rep stosl
	.loc 1 358 0
	pushl	%eax
	leal	-227(%ebp), %eax
	pushl	$32
	pushl	$g_netmgr_cxt+104
.LVL35:
	.loc 1 356 0
	movb	$1, -228(%ebp)
	.loc 1 358 0
	pushl	%eax
.LVL36:
	.loc 1 357 0
	movb	$1, -65(%ebp)
	.loc 1 358 0
	call	strncpy
.LVL37:
	.loc 1 359 0
	leal	-194(%ebp), %eax
	addl	$12, %esp
	pushl	$64
	pushl	$g_netmgr_cxt+143
	pushl	%eax
	call	strncpy
.LVL38:
	.loc 1 360 0
	popl	%edx
	popl	%ecx
	pushl	%ebx
	pushl	%esi
	call	hal_wifi_start
.LVL39:
	addl	$16, %esp
	.loc 1 361 0
	movl	-28(%ebp), %eax
	xorl	%gs:20, %eax
	je	.L33
	call	__stack_chk_fail
.LVL40:
.L33:
	leal	-12(%ebp), %esp
	popl	%ebx
	.cfi_restore 3
	popl	%esi
	.cfi_restore 6
.LVL41:
	popl	%edi
	.cfi_restore 7
	popl	%ebp
	.cfi_restore 5
	.cfi_def_cfa 4, 4
	ret
	.cfi_endproc
.LFE64:
	.size	reconnect_wifi.isra.1, .-reconnect_wifi.isra.1
	.section	.text.unlikely.reconnect_wifi.isra.1
.LCOLDE12:
	.section	.text.reconnect_wifi.isra.1
.LHOTE12:
	.section	.rodata.str1.1
.LC13:
	.string	"net mgr none config policy"
.LC14:
	.string	"[%06d]<W> "
	.section	.text.unlikely.netmgr_wifi_config_start,"ax",@progbits
.LCOLDB15:
	.section	.text.netmgr_wifi_config_start,"ax",@progbits
.LHOTB15:
	.type	netmgr_wifi_config_start, @function
netmgr_wifi_config_start:
.LFB45:
	.loc 1 515 0
	.cfi_startproc
	.loc 1 516 0
	movl	g_netmgr_cxt+212, %eax
.LVL42:
	.loc 1 518 0
	testl	%eax, %eax
	je	.L36
	.loc 1 519 0
	movb	$1, g_netmgr_cxt+221
	.loc 1 520 0
	jmp	*8(%eax)
.LVL43:
.L36:
	.loc 1 522 0
	testb	$4, aos_log_level
	je	.L43
	.loc 1 515 0
	pushl	%ebp
	.cfi_def_cfa_offset 8
	.cfi_offset 5, -8
	movl	%esp, %ebp
	.cfi_def_cfa_register 5
	subl	$8, %esp
.LBB54:
.LBB55:
	.loc 1 522 0
	call	aos_now_ms
.LVL44:
	pushl	%edx
	pushl	$.LC13
	pushl	%eax
	pushl	$.LC14
	call	csp_printf
.LVL45:
	movl	$.LC13, (%esp)
	call	csp_printf
.LVL46:
	movl	$.LC10, (%esp)
	call	csp_printf
.LVL47:
	addl	$16, %esp
.LBE55:
.LBE54:
	.loc 1 525 0
	leave
	.cfi_restore 5
	.cfi_def_cfa 4, 4
.L43:
	ret
	.cfi_endproc
.LFE45:
	.size	netmgr_wifi_config_start, .-netmgr_wifi_config_start
	.section	.text.unlikely.netmgr_wifi_config_start
.LCOLDE15:
	.section	.text.netmgr_wifi_config_start
.LHOTE15:
	.section	.text.unlikely.netmgr_stat_chg_event,"ax",@progbits
.LCOLDB16:
	.section	.text.netmgr_stat_chg_event,"ax",@progbits
.LHOTB16:
	.type	netmgr_stat_chg_event, @function
netmgr_stat_chg_event:
.LFB30:
	.loc 1 259 0
	.cfi_startproc
.LVL48:
	pushl	%ebp
	.cfi_def_cfa_offset 8
	.cfi_offset 5, -8
	movl	%esp, %ebp
	.cfi_def_cfa_register 5
	.loc 1 259 0
	movl	12(%ebp), %eax
	.loc 1 260 0
	cmpl	$1, %eax
	je	.L46
	cmpl	$2, %eax
	jne	.L51
	.loc 1 267 0
	movb	$0, g_station_is_up
	.loc 1 268 0
	movl	$0, 16(%ebp)
.LVL49:
	movl	$3, 12(%ebp)
.LVL50:
	jmp	.L50
.LVL51:
.L46:
.LBB58:
.LBB59:
	.loc 1 262 0
	movb	$1, g_station_is_up
	.loc 1 263 0
	movl	$g_netmgr_cxt+104, 16(%ebp)
.LVL52:
	movl	$2, 12(%ebp)
.LVL53:
.L50:
.LBE59:
.LBE58:
	.loc 1 268 0
	movl	$2, 8(%ebp)
.LVL54:
	.loc 1 277 0
	popl	%ebp
	.cfi_remember_state
	.cfi_restore 5
	.cfi_def_cfa 4, 4
	.loc 1 268 0
	jmp	aos_post_event
.LVL55:
.L51:
	.cfi_restore_state
	.loc 1 277 0
	popl	%ebp
	.cfi_restore 5
	.cfi_def_cfa 4, 4
	ret
	.cfi_endproc
.LFE30:
	.size	netmgr_stat_chg_event, .-netmgr_stat_chg_event
	.section	.text.unlikely.netmgr_stat_chg_event
.LCOLDE16:
	.section	.text.netmgr_stat_chg_event
.LHOTE16:
	.section	.rodata.str1.1
.LC17:
	.string	"aha"
.LC18:
	.string	"adha"
.LC19:
	.string	"Let's post GOT_IP event."
.LC20:
	.string	"In hotspot/router mode, do not post GOT_IP event here."
.LC21:
	.string	"wifi"
	.section	.text.unlikely.netmgr_events_executor,"ax",@progbits
.LCOLDB22:
	.section	.text.netmgr_events_executor,"ax",@progbits
.LHOTB22:
	.type	netmgr_events_executor, @function
netmgr_events_executor:
.LFB42:
	.loc 1 452 0
	.cfi_startproc
.LVL56:
	pushl	%ebp
	.cfi_def_cfa_offset 8
	.cfi_offset 5, -8
	movl	%esp, %ebp
	.cfi_def_cfa_register 5
	pushl	%edi
	pushl	%ebx
	subl	$112, %esp
	.cfi_offset 7, -12
	.cfi_offset 3, -16
	.loc 1 452 0
	movl	8(%ebp), %eax
	movl	%gs:20, %edx
	movl	%edx, -12(%ebp)
	xorl	%edx, %edx
	.loc 1 453 0
	cmpw	$2, 4(%eax)
	jne	.L52
	.loc 1 457 0
	movw	6(%eax), %ax
	decl	%eax
	cmpw	$4, %ax
	ja	.L52
	movzwl	%ax, %eax
	jmp	*.L55(,%eax,4)
	.section	.rodata.netmgr_events_executor,"a",@progbits
	.align 4
	.align 4
.L55:
	.long	.L54
	.long	.L56
	.long	.L57
	.long	.L58
	.long	.L59
	.section	.text.netmgr_events_executor
.L56:
	.loc 1 459 0
	cmpb	$0, g_station_is_up
	je	.L52
	.loc 1 460 0
	movb	$0, g_netmgr_cxt+220
	jmp	.L52
.L57:
	.loc 1 464 0
	cmpb	$0, g_station_is_up
	jne	.L52
.LBB70:
.LBB71:
	.loc 1 437 0
	incb	g_netmgr_cxt+220
.LBE71:
.LBE70:
	.loc 1 466 0
	movb	$0, g_netmgr_cxt+222
	jmp	.L52
.L58:
.LVL57:
.LBB72:
.LBB73:
	.loc 1 470 0
	cmpb	$0, g_netmgr_cxt+221
	je	.L60
	.loc 1 471 0
	pushl	%eax
	pushl	%eax
	pushl	$.LC17
	pushl	$g_netmgr_cxt+104
	call	strcmp
.LVL58:
	addl	$16, %esp
	testl	%eax, %eax
	movl	aos_log_level, %ebx
	je	.L61
	.loc 1 472 0
	pushl	%edi
	pushl	%edi
	pushl	$.LC18
	pushl	$g_netmgr_cxt+104
	call	strcmp
.LVL59:
	addl	$16, %esp
	.loc 1 471 0
	testl	%eax, %eax
	je	.L61
	.loc 1 473 0
	andb	$8, %bl
	je	.L62
	call	aos_now_ms
.LVL60:
	pushl	%ebx
	pushl	$.LC19
	pushl	%eax
	pushl	$.LC9
	call	csp_printf
.LVL61:
	movl	$.LC19, (%esp)
	call	csp_printf
.LVL62:
	movl	$.LC10, (%esp)
	call	csp_printf
.LVL63:
	addl	$16, %esp
.L62:
	.loc 1 474 0
	movl	g_netmgr_cxt+212, %eax
	pushl	%ecx
	pushl	%ecx
	pushl	g_netmgr_cxt+216
	pushl	$0
	call	*16(%eax)
.LVL64:
	.loc 1 476 0
	movl	g_netmgr_cxt+212, %eax
	call	*12(%eax)
.LVL65:
	jmp	.L88
.L61:
	.loc 1 478 0
	andb	$8, %bl
	je	.L52
	call	aos_now_ms
.LVL66:
	pushl	%edx
	pushl	$.LC20
	pushl	%eax
	pushl	$.LC9
	call	csp_printf
.LVL67:
	movl	$.LC20, (%esp)
	call	csp_printf
.LVL68:
	movl	$.LC10, (%esp)
	call	csp_printf
.LVL69:
	jmp	.L88
.L60:
	.loc 1 481 0
	pushl	%eax
	pushl	$g_netmgr_cxt+216
	pushl	$5
	pushl	$2
	call	aos_post_event
.LVL70:
.L88:
	addl	$16, %esp
	jmp	.L52
.LVL71:
.L59:
.LBE73:
.LBE72:
	.loc 1 486 0
	cmpb	$0, g_netmgr_cxt+221
	je	.L63
	.loc 1 487 0
	movb	$0, g_netmgr_cxt+221
.L63:
.LVL72:
.LBB74:
.LBB75:
	.loc 1 404 0
	pushl	%edi
	pushl	%edi
	pushl	$.LC17
	pushl	$g_netmgr_cxt+104
	call	strcmp
.LVL73:
	addl	$16, %esp
	testl	%eax, %eax
	je	.L52
	.loc 1 405 0
	pushl	%ebx
	pushl	%ebx
	pushl	$.LC18
	pushl	$g_netmgr_cxt+104
	call	strcmp
.LVL74:
	addl	$16, %esp
	.loc 1 404 0
	testl	%eax, %eax
	je	.L52
	.loc 1 410 0
	leal	-120(%ebp), %eax
	leal	-116(%ebp), %ebx
	pushl	%ecx
	.loc 1 409 0
	movl	$104, -120(%ebp)
	.loc 1 410 0
	pushl	%eax
	pushl	%ebx
	pushl	$.LC21
	call	aos_kv_get
.LVL75:
	.loc 1 413 0
	addl	$16, %esp
	testl	%eax, %eax
	jne	.L67
	pushl	%edx
	pushl	$104
	pushl	$g_netmgr_cxt+104
	pushl	%ebx
	call	memcmp
.LVL76:
	addl	$16, %esp
	testl	%eax, %eax
	je	.L52
.L67:
	.loc 1 417 0
	movl	$g_netmgr_cxt, %edx
	xorl	%eax, %eax
	movl	$26, %ecx
	movl	%edx, %edi
	rep stosl
	.loc 1 419 0
	pushl	%eax
	pushl	$32
	pushl	$g_netmgr_cxt+104
	pushl	%edx
	call	strncpy
.LVL77:
	.loc 1 422 0
	addl	$12, %esp
	pushl	$64
	pushl	$g_netmgr_cxt+143
	pushl	$g_netmgr_cxt+39
	call	strncpy
.LVL78:
	.loc 1 425 0
	movl	g_netmgr_cxt+137, %eax
	.loc 1 429 0
	pushl	$1
	pushl	$104
	pushl	$g_netmgr_cxt
	pushl	$.LC21
	.loc 1 425 0
	movl	%eax, g_netmgr_cxt+33
	movw	g_netmgr_cxt+141, %ax
	movw	%ax, g_netmgr_cxt+37
	.loc 1 429 0
	call	aos_kv_set
.LVL79:
	addl	$32, %esp
	jmp	.L52
.L54:
.LBE75:
.LBE74:
	.loc 1 492 0
	movb	$0, g_netmgr_cxt+220
	.loc 1 493 0
	movb	$0, g_netmgr_cxt+222
	.loc 1 496 0
	call	reconnect_wifi.isra.1
.LVL80:
.L52:
	.loc 1 501 0
	movl	-12(%ebp), %eax
	xorl	%gs:20, %eax
	je	.L68
	call	__stack_chk_fail
.LVL81:
.L68:
	leal	-8(%ebp), %esp
	popl	%ebx
	.cfi_restore 3
	popl	%edi
	.cfi_restore 7
	popl	%ebp
	.cfi_restore 5
	.cfi_def_cfa 4, 4
	ret
	.cfi_endproc
.LFE42:
	.size	netmgr_events_executor, .-netmgr_events_executor
	.section	.text.unlikely.netmgr_events_executor
.LCOLDE22:
	.section	.text.netmgr_events_executor
.LHOTE22:
	.section	.text.unlikely.netmgr_scan_completed_event,"ax",@progbits
.LCOLDB23:
	.section	.text.netmgr_scan_completed_event,"ax",@progbits
.LHOTB23:
	.type	netmgr_scan_completed_event, @function
netmgr_scan_completed_event:
.LFB32:
	.loc 1 287 0
	.cfi_startproc
.LVL82:
	pushl	%ebp
	.cfi_def_cfa_offset 8
	.cfi_offset 5, -8
	movl	%esp, %ebp
	.cfi_def_cfa_register 5
	pushl	%edi
	pushl	%esi
	pushl	%ebx
	subl	$44, %esp
	.cfi_offset 7, -12
	.cfi_offset 6, -16
	.cfi_offset 3, -20
	.loc 1 287 0
	movl	12(%ebp), %eax
	.loc 1 288 0
	movl	g_netmgr_cxt+224, %edx
.LVL83:
	.loc 1 287 0
	movl	%eax, -44(%ebp)
	movl	%gs:20, %eax
	movl	%eax, -28(%ebp)
	xorl	%eax, %eax
	.loc 1 292 0
	testl	%edx, %edx
	je	.L89
	xorl	%esi, %esi
	xorl	%ebx, %ebx
.LVL84:
.L91:
	.loc 1 293 0 discriminator 1
	movl	-44(%ebp), %eax
	movsbl	(%eax), %eax
	cmpl	%eax, %ebx
	jge	.L99
	.loc 1 295 0
	decl	%eax
.LBB78:
.LBB79:
	.loc 1 281 0
	leal	-34(%ebp), %edi
	movl	$6, %ecx
.LBE79:
.LBE78:
	.loc 1 296 0
	cmpl	%eax, %ebx
	movl	$1, %eax
	.loc 1 299 0
	movl	%edx, -48(%ebp)
	.loc 1 296 0
	cmove	%eax, %esi
.LVL85:
.LBB81:
.LBB80:
	.loc 1 281 0
	xorl	%eax, %eax
	rep stosb
.LVL86:
.LBE80:
.LBE81:
	.loc 1 299 0
	movl	-44(%ebp), %ecx
	pushl	%eax
	leal	-34(%ebp), %eax
	pushl	%esi
	pushl	$0
	pushl	$0
	pushl	$0
	pushl	$4
	pushl	%eax
	imull	$33, %ebx, %eax
	addl	4(%ecx), %eax
	.loc 1 293 0
	incl	%ebx
.LVL87:
	.loc 1 299 0
	pushl	%eax
	call	*%edx
.LVL88:
	.loc 1 293 0
	addl	$32, %esp
	movl	-48(%ebp), %edx
	jmp	.L91
.L99:
	.loc 1 302 0
	movb	$1, g_netmgr_cxt+228
.LVL89:
.L89:
	.loc 1 304 0
	movl	-28(%ebp), %eax
	xorl	%gs:20, %eax
	je	.L94
	call	__stack_chk_fail
.LVL90:
.L94:
	leal	-12(%ebp), %esp
	popl	%ebx
	.cfi_restore 3
	popl	%esi
	.cfi_restore 6
	popl	%edi
	.cfi_restore 7
	popl	%ebp
	.cfi_restore 5
	.cfi_def_cfa 4, 4
	ret
	.cfi_endproc
.LFE32:
	.size	netmgr_scan_completed_event, .-netmgr_scan_completed_event
	.section	.text.unlikely.netmgr_scan_completed_event
.LCOLDE23:
	.section	.text.netmgr_scan_completed_event
.LHOTE23:
	.section	.text.unlikely.netmgr_reconnect_wifi,"ax",@progbits
.LCOLDB24:
	.section	.text.netmgr_reconnect_wifi,"ax",@progbits
.LHOTB24:
	.globl	netmgr_reconnect_wifi
	.type	netmgr_reconnect_wifi, @function
netmgr_reconnect_wifi:
.LFB37:
	.loc 1 364 0
	.cfi_startproc
	pushl	%ebp
	.cfi_def_cfa_offset 8
	.cfi_offset 5, -8
	.loc 1 365 0
	movb	$0, g_netmgr_cxt+222
	.loc 1 364 0
	movl	%esp, %ebp
	.cfi_def_cfa_register 5
	.loc 1 367 0
	popl	%ebp
	.cfi_restore 5
	.cfi_def_cfa 4, 4
	.loc 1 366 0
	jmp	reconnect_wifi.isra.1
.LVL91:
	.cfi_endproc
.LFE37:
	.size	netmgr_reconnect_wifi, .-netmgr_reconnect_wifi
	.section	.text.unlikely.netmgr_reconnect_wifi
.LCOLDE24:
	.section	.text.netmgr_reconnect_wifi
.LHOTE24:
	.section	.text.unlikely.wifi_get_ip,"ax",@progbits
.LCOLDB25:
	.section	.text.wifi_get_ip,"ax",@progbits
.LHOTB25:
	.globl	wifi_get_ip
	.type	wifi_get_ip, @function
wifi_get_ip:
.LFB43:
	.loc 1 504 0
	.cfi_startproc
.LVL92:
	pushl	%ebp
	.cfi_def_cfa_offset 8
	.cfi_offset 5, -8
	.loc 1 505 0
	movl	g_netmgr_cxt+216, %eax
	.loc 1 504 0
	movl	%esp, %ebp
	.cfi_def_cfa_register 5
	.loc 1 505 0
	movl	8(%ebp), %edx
	.loc 1 506 0
	popl	%ebp
	.cfi_restore 5
	.cfi_def_cfa 4, 4
	.loc 1 505 0
	jmp	format_ip
.LVL93:
	.cfi_endproc
.LFE43:
	.size	wifi_get_ip, .-wifi_get_ip
	.section	.text.unlikely.wifi_get_ip
.LCOLDE25:
	.section	.text.wifi_get_ip
.LHOTE25:
	.section	.text.unlikely.netmgr_register_wifi_scan_result_callback,"ax",@progbits
.LCOLDB26:
	.section	.text.netmgr_register_wifi_scan_result_callback,"ax",@progbits
.LHOTB26:
	.globl	netmgr_register_wifi_scan_result_callback
	.type	netmgr_register_wifi_scan_result_callback, @function
netmgr_register_wifi_scan_result_callback:
.LFB44:
	.loc 1 509 0
	.cfi_startproc
.LVL94:
	pushl	%ebp
	.cfi_def_cfa_offset 8
	.cfi_offset 5, -8
	.loc 1 511 0
	movb	$0, g_netmgr_cxt+228
	.loc 1 509 0
	movl	%esp, %ebp
	.cfi_def_cfa_register 5
	.loc 1 510 0
	movl	8(%ebp), %eax
	.loc 1 512 0
	popl	%ebp
	.cfi_restore 5
	.cfi_def_cfa 4, 4
	.loc 1 510 0
	movl	%eax, g_netmgr_cxt+224
	.loc 1 512 0
	ret
	.cfi_endproc
.LFE44:
	.size	netmgr_register_wifi_scan_result_callback, .-netmgr_register_wifi_scan_result_callback
	.section	.text.unlikely.netmgr_register_wifi_scan_result_callback
.LCOLDE26:
	.section	.text.netmgr_register_wifi_scan_result_callback
.LHOTE26:
	.section	.text.unlikely.netmgr_get_ap_config,"ax",@progbits
.LCOLDB27:
	.section	.text.netmgr_get_ap_config,"ax",@progbits
.LHOTB27:
	.globl	netmgr_get_ap_config
	.type	netmgr_get_ap_config, @function
netmgr_get_ap_config:
.LFB48:
	.loc 1 545 0
	.cfi_startproc
.LVL95:
	pushl	%ebp
	.cfi_def_cfa_offset 8
	.cfi_offset 5, -8
.LBB84:
.LBB85:
	.loc 1 529 0
	xorl	%eax, %eax
	orl	$-1, %ecx
.LBE85:
.LBE84:
	.loc 1 545 0
	movl	%esp, %ebp
	.cfi_def_cfa_register 5
	pushl	%edi
	pushl	%ebx
	.cfi_offset 7, -12
	.cfi_offset 3, -16
.LBB89:
.LBB86:
	.loc 1 529 0
	movl	$g_netmgr_cxt+104, %edi
.LBE86:
.LBE89:
	.loc 1 545 0
	movl	8(%ebp), %ebx
.LBB90:
.LBB87:
	.loc 1 529 0
	repnz scasb
.LBE87:
.LBE90:
	.loc 1 547 0
	orl	$-1, %eax
.LBB91:
.LBB88:
	.loc 1 529 0
	notl	%ecx
	decl	%ecx
.LVL96:
	.loc 1 531 0
	testl	%ecx, %ecx
	jle	.L109
.LVL97:
.LBE88:
.LBE91:
	.loc 1 550 0
	pushl	%eax
	pushl	$32
	pushl	$g_netmgr_cxt+104
	pushl	%ebx
	call	strncpy
.LVL98:
	.loc 1 551 0
	leal	39(%ebx), %eax
	addl	$12, %esp
	pushl	$64
	pushl	$g_netmgr_cxt+143
	pushl	%eax
	call	strncpy
.LVL99:
	.loc 1 552 0
	movl	g_netmgr_cxt+137, %eax
	.loc 1 554 0
	addl	$16, %esp
	.loc 1 552 0
	movl	%eax, 33(%ebx)
	movw	g_netmgr_cxt+141, %ax
	movw	%ax, 37(%ebx)
	.loc 1 554 0
	xorl	%eax, %eax
.L109:
	.loc 1 555 0
	leal	-8(%ebp), %esp
	popl	%ebx
	.cfi_restore 3
	popl	%edi
	.cfi_restore 7
	popl	%ebp
	.cfi_restore 5
	.cfi_def_cfa 4, 4
	ret
	.cfi_endproc
.LFE48:
	.size	netmgr_get_ap_config, .-netmgr_get_ap_config
	.section	.text.unlikely.netmgr_get_ap_config
.LCOLDE27:
	.section	.text.netmgr_get_ap_config
.LHOTE27:
	.section	.text.unlikely.netmgr_clear_ap_config,"ax",@progbits
.LCOLDB28:
	.section	.text.netmgr_clear_ap_config,"ax",@progbits
.LHOTB28:
	.globl	netmgr_clear_ap_config
	.type	netmgr_clear_ap_config, @function
netmgr_clear_ap_config:
.LFB49:
	.loc 1 558 0
	.cfi_startproc
.LVL100:
	pushl	%ebp
	.cfi_def_cfa_offset 8
	.cfi_offset 5, -8
.LBB94:
.LBB95:
	.loc 1 388 0
	movl	$33, %edx
	xorl	%eax, %eax
	movl	%edx, %ecx
.LBE95:
.LBE94:
	.loc 1 558 0
	movl	%esp, %ebp
	.cfi_def_cfa_register 5
	pushl	%edi
	pushl	%esi
	pushl	%ebx
	.cfi_offset 7, -12
	.cfi_offset 6, -16
	.cfi_offset 3, -20
.LBB98:
.LBB96:
	.loc 1 388 0
	movl	$g_netmgr_cxt+104, %ebx
	movl	%ebx, %edi
	.loc 1 389 0
	movl	$g_netmgr_cxt+143, %ebx
.LBE96:
.LBE98:
	.loc 1 558 0
	subl	$24, %esp
.LBB99:
.LBB97:
	.loc 1 388 0
	rep stosb
	movl	%ecx, %edx
	movl	%edi, %esi
	.loc 1 389 0
	movl	$65, %ecx
	movl	%ebx, %edi
	.loc 1 392 0
	movl	$g_netmgr_cxt, %ebx
	.loc 1 389 0
	rep stosb
	.loc 1 390 0
	movl	%esi, %edi
	movl	$6, %ecx
	rep stosb
	.loc 1 392 0
	movl	%ebx, %edi
	movl	%edx, %eax
	movl	$26, %ecx
	rep stosl
	.loc 1 393 0
	pushl	$.LC21
	call	aos_kv_del
.LVL101:
.LBE97:
.LBE99:
	.loc 1 560 0
	addl	$16, %esp
	leal	-12(%ebp), %esp
	popl	%ebx
	.cfi_restore 3
	popl	%esi
	.cfi_restore 6
	popl	%edi
	.cfi_restore 7
	popl	%ebp
	.cfi_restore 5
	.cfi_def_cfa 4, 4
	ret
	.cfi_endproc
.LFE49:
	.size	netmgr_clear_ap_config, .-netmgr_clear_ap_config
	.section	.text.unlikely.netmgr_clear_ap_config
.LCOLDE28:
	.section	.text.netmgr_clear_ap_config
.LHOTE28:
	.section	.text.unlikely.netmgr_set_ap_config,"ax",@progbits
.LCOLDB29:
	.section	.text.netmgr_set_ap_config,"ax",@progbits
.LHOTB29:
	.globl	netmgr_set_ap_config
	.type	netmgr_set_ap_config, @function
netmgr_set_ap_config:
.LFB50:
	.loc 1 563 0
	.cfi_startproc
.LVL102:
	pushl	%ebp
	.cfi_def_cfa_offset 8
	.cfi_offset 5, -8
	movl	%esp, %ebp
	.cfi_def_cfa_register 5
	pushl	%ebx
	subl	$8, %esp
	.cfi_offset 3, -12
	.loc 1 563 0
	movl	8(%ebp), %ebx
	.loc 1 566 0
	pushl	$32
	pushl	%ebx
	pushl	$g_netmgr_cxt+104
	call	strncpy
.LVL103:
	.loc 1 568 0
	leal	39(%ebx), %eax
	addl	$12, %esp
	pushl	$64
	pushl	%eax
	pushl	$g_netmgr_cxt+143
	call	strncpy
.LVL104:
	.loc 1 570 0
	movl	33(%ebx), %eax
	movl	%eax, g_netmgr_cxt+137
	movw	37(%ebx), %ax
	.loc 1 574 0
	movl	-4(%ebp), %ebx
	.loc 1 570 0
	movw	%ax, g_netmgr_cxt+141
	.loc 1 574 0
	xorl	%eax, %eax
	leave
	.cfi_restore 5
	.cfi_restore 3
	.cfi_def_cfa 4, 4
	ret
	.cfi_endproc
.LFE50:
	.size	netmgr_set_ap_config, .-netmgr_set_ap_config
	.section	.text.unlikely.netmgr_set_ap_config
.LCOLDE29:
	.section	.text.netmgr_set_ap_config
.LHOTE29:
	.section	.rodata.str1.1
.LC30:
	.string	"cisco-15A7"
.LC31:
	.string	"12345678"
	.section	.text.unlikely.def_smart_config_start,"ax",@progbits
.LCOLDB32:
	.section	.text.def_smart_config_start,"ax",@progbits
.LHOTB32:
	.type	def_smart_config_start, @function
def_smart_config_start:
.LFB60:
	.loc 1 705 0
	.cfi_startproc
	pushl	%ebp
	.cfi_def_cfa_offset 8
	.cfi_offset 5, -8
	movl	%esp, %ebp
	.cfi_def_cfa_register 5
	pushl	%ebx
	.cfi_offset 3, -12
	.loc 1 708 0
	leal	-116(%ebp), %ebx
	.loc 1 705 0
	subl	$120, %esp
	.loc 1 708 0
	pushl	$32
	pushl	$.LC30
	pushl	%ebx
	.loc 1 705 0
	movl	%gs:20, %eax
	movl	%eax, -12(%ebp)
	xorl	%eax, %eax
	.loc 1 708 0
	call	strncpy
.LVL105:
	.loc 1 709 0
	leal	-77(%ebp), %eax
	addl	$12, %esp
	pushl	$64
	pushl	$.LC31
	pushl	%eax
	call	strncpy
.LVL106:
	.loc 1 710 0
	movl	%ebx, (%esp)
	call	netmgr_set_ap_config
.LVL107:
	.loc 1 711 0
	addl	$12, %esp
	pushl	$0
	pushl	$1
	pushl	$2
	call	aos_post_event
.LVL108:
	.loc 1 713 0
	movl	-12(%ebp), %edx
	xorl	%gs:20, %edx
	je	.L116
	call	__stack_chk_fail
.LVL109:
.L116:
	xorl	%eax, %eax
	movl	-4(%ebp), %ebx
	leave
	.cfi_restore 5
	.cfi_restore 3
	.cfi_def_cfa 4, 4
	ret
	.cfi_endproc
.LFE60:
	.size	def_smart_config_start, .-def_smart_config_start
	.section	.text.unlikely.def_smart_config_start
.LCOLDE32:
	.section	.text.def_smart_config_start
.LHOTE32:
	.section	.text.unlikely.netmgr_set_smart_config,"ax",@progbits
.LCOLDB33:
	.section	.text.netmgr_set_smart_config,"ax",@progbits
.LHOTB33:
	.globl	netmgr_set_smart_config
	.type	netmgr_set_smart_config, @function
netmgr_set_smart_config:
.LFB51:
	.loc 1 577 0
	.cfi_startproc
.LVL110:
	pushl	%ebp
	.cfi_def_cfa_offset 8
	.cfi_offset 5, -8
.LBB102:
.LBB103:
	.loc 1 540 0
	movl	g_netmgr_cxt+212, %edx
.LBE103:
.LBE102:
	.loc 1 577 0
	movl	%esp, %ebp
	.cfi_def_cfa_register 5
	.loc 1 577 0
	movl	8(%ebp), %eax
.LVL111:
.LBB105:
.LBB104:
	.loc 1 540 0
	movl	%edx, (%eax)
	.loc 1 541 0
	movl	%eax, g_netmgr_cxt+212
.LVL112:
.LBE104:
.LBE105:
	.loc 1 580 0
	popl	%ebp
	.cfi_restore 5
	.cfi_def_cfa 4, 4
	.loc 1 579 0
	jmp	netmgr_wifi_config_start
.LVL113:
	.cfi_endproc
.LFE51:
	.size	netmgr_set_smart_config, .-netmgr_set_smart_config
	.section	.text.unlikely.netmgr_set_smart_config
.LCOLDE33:
	.section	.text.netmgr_set_smart_config
.LHOTE33:
	.section	.text.unlikely.netmgr_init,"ax",@progbits
.LCOLDB34:
	.section	.text.netmgr_init,"ax",@progbits
.LHOTB34:
	.globl	netmgr_init
	.type	netmgr_init, @function
netmgr_init:
.LFB54:
	.loc 1 623 0
	.cfi_startproc
	pushl	%ebp
	.cfi_def_cfa_offset 8
	.cfi_offset 5, -8
	movl	%esp, %ebp
	.cfi_def_cfa_register 5
	pushl	%edi
	pushl	%esi
	pushl	%ebx
	.cfi_offset 7, -12
	.cfi_offset 6, -16
	.cfi_offset 3, -20
	.loc 1 630 0
	movl	$g_netmgr_cxt, %ebx
	movl	%ebx, %edi
	.loc 1 623 0
	subl	$32, %esp
	.loc 1 626 0
	pushl	$0
	pushl	$netmgr_events_executor
	pushl	$2
	.loc 1 623 0
	movl	%gs:20, %eax
	movl	%eax, -28(%ebp)
	xorl	%eax, %eax
	.loc 1 626 0
	call	aos_register_event_filter
.LVL114:
	.loc 1 629 0
	call	hal_wifi_get_default_module
.LVL115:
	.loc 1 630 0
	movl	$58, %ecx
	.loc 1 629 0
	movl	%eax, %edx
.LVL116:
	.loc 1 630 0
	xorl	%eax, %eax
.LVL117:
	rep stosl
.LBB112:
.LBB113:
	.loc 1 540 0
	movl	$0, g_def_smartconfig
.LBE113:
.LBE112:
	.loc 1 633 0
	movl	%edx, g_netmgr_cxt+208
.LVL118:
.LBB115:
.LBB114:
	.loc 1 541 0
	movl	$g_def_smartconfig, g_netmgr_cxt+212
.LVL119:
.LBE114:
.LBE115:
	.loc 1 641 0
	popl	%ecx
	popl	%esi
	pushl	$g_wifi_hal_event
	pushl	%edx
	call	hal_wifi_install_event
.LVL120:
.LBB116:
.LBB117:
	.loc 1 588 0
	leal	-32(%ebp), %eax
	addl	$12, %esp
	.loc 1 587 0
	movl	$104, -32(%ebp)
	.loc 1 588 0
	pushl	%eax
	pushl	%ebx
	pushl	$.LC21
	call	aos_kv_get
.LVL121:
	.loc 1 589 0
	addl	$16, %esp
	testl	%eax, %eax
	js	.L122
.LBB118:
.LBB119:
	.loc 1 371 0
	movl	$g_netmgr_cxt+104, %edx
	xorl	%esi, %esi
	movl	$33, %ecx
	movl	%esi, %eax
.LVL122:
	movl	%edx, %edi
	rep stosb
	.loc 1 372 0
	pushl	%eax
	pushl	$32
	pushl	$g_netmgr_cxt
	pushl	%edx
	call	strncpy
.LVL123:
	.loc 1 375 0
	movl	$g_netmgr_cxt+143, %edx
	.loc 1 371 0
	movl	%edi, %ebx
	.loc 1 375 0
	movl	%esi, %eax
	movl	%edx, %edi
	movl	$65, %ecx
	.loc 1 376 0
	addl	$12, %esp
	.loc 1 375 0
	rep stosb
	.loc 1 376 0
	pushl	$64
	pushl	$g_netmgr_cxt+39
	pushl	%edx
	call	strncpy
.LVL124:
	.loc 1 380 0
	movl	g_netmgr_cxt+33, %eax
.LBE119:
.LBE118:
	addl	$16, %esp
.LBB121:
.LBB120:
	movl	%eax, (%ebx)
	movw	g_netmgr_cxt+37, %ax
	movw	%ax, 4(%ebx)
.L122:
.LBE120:
.LBE121:
.LBE117:
.LBE116:
	.loc 1 649 0
	xorl	%eax, %eax
	movl	-28(%ebp), %esi
	xorl	%gs:20, %esi
	je	.L123
	call	__stack_chk_fail
.LVL125:
.L123:
	leal	-12(%ebp), %esp
	popl	%ebx
	.cfi_restore 3
	popl	%esi
	.cfi_restore 6
	popl	%edi
	.cfi_restore 7
	popl	%ebp
	.cfi_restore 5
	.cfi_def_cfa 4, 4
	ret
	.cfi_endproc
.LFE54:
	.size	netmgr_init, .-netmgr_init
	.section	.text.unlikely.netmgr_init
.LCOLDE34:
	.section	.text.netmgr_init
.LHOTE34:
	.section	.text.unlikely.netmgr_deinit,"ax",@progbits
.LCOLDB35:
	.section	.text.netmgr_deinit,"ax",@progbits
.LHOTB35:
	.globl	netmgr_deinit
	.type	netmgr_deinit, @function
netmgr_deinit:
.LFB55:
	.loc 1 652 0
	.cfi_startproc
	pushl	%ebp
	.cfi_def_cfa_offset 8
	.cfi_offset 5, -8
	.loc 1 653 0
	movl	$g_netmgr_cxt, %edx
	movl	$58, %ecx
	xorl	%eax, %eax
	.loc 1 652 0
	movl	%esp, %ebp
	.cfi_def_cfa_register 5
	pushl	%edi
	.cfi_offset 7, -12
	.loc 1 653 0
	movl	%edx, %edi
	rep stosl
	.loc 1 654 0
	popl	%edi
	.cfi_restore 7
	popl	%ebp
	.cfi_restore 5
	.cfi_def_cfa 4, 4
	ret
	.cfi_endproc
.LFE55:
	.size	netmgr_deinit, .-netmgr_deinit
	.section	.text.unlikely.netmgr_deinit
.LCOLDE35:
	.section	.text.netmgr_deinit
.LHOTE35:
	.section	.text.unlikely.netmgr_start,"ax",@progbits
.LCOLDB36:
	.section	.text.netmgr_start,"ax",@progbits
.LHOTB36:
	.globl	netmgr_start
	.type	netmgr_start, @function
netmgr_start:
.LFB56:
	.loc 1 657 0
	.cfi_startproc
.LVL126:
	pushl	%ebp
	.cfi_def_cfa_offset 8
	.cfi_offset 5, -8
.LBB126:
.LBB127:
	.loc 1 529 0
	xorl	%eax, %eax
	orl	$-1, %ecx
.LBE127:
.LBE126:
	.loc 1 657 0
	movl	%esp, %ebp
	.cfi_def_cfa_register 5
	pushl	%edi
	pushl	%edx
	.cfi_offset 7, -12
.LBB130:
.LBB128:
	.loc 1 529 0
	movl	$g_netmgr_cxt+104, %edi
.LBE128:
.LBE130:
	.loc 1 657 0
	movl	8(%ebp), %edx
.LBB131:
.LBB129:
	.loc 1 529 0
	repnz scasb
	notl	%ecx
	decl	%ecx
.LVL127:
	.loc 1 531 0
	testl	%ecx, %ecx
	jle	.L136
.LVL128:
.LBE129:
.LBE131:
.LBB132:
.LBB133:
	.loc 1 661 0
	pushl	%eax
	pushl	$0
	pushl	$1
	pushl	$2
	call	aos_post_event
.LVL129:
	addl	$16, %esp
.L135:
	xorl	%eax, %eax
	jmp	.L133
.LVL130:
.L136:
.LBE133:
.LBE132:
	.loc 1 673 0
	testb	%dl, %dl
	je	.L137
	.loc 1 674 0
	call	netmgr_wifi_config_start
.LVL131:
	jmp	.L135
.L137:
	.loc 1 679 0
	orl	$-1, %eax
.L133:
	.loc 1 680 0
	movl	-4(%ebp), %edi
	leave
	.cfi_restore 5
	.cfi_restore 7
	.cfi_def_cfa 4, 4
	ret
	.cfi_endproc
.LFE56:
	.size	netmgr_start, .-netmgr_start
	.section	.text.unlikely.netmgr_start
.LCOLDE36:
	.section	.text.netmgr_start
.LHOTE36:
	.section	.text.unlikely.netmgr_get_ip_state,"ax",@progbits
.LCOLDB37:
	.section	.text.netmgr_get_ip_state,"ax",@progbits
.LHOTB37:
	.globl	netmgr_get_ip_state
	.type	netmgr_get_ip_state, @function
netmgr_get_ip_state:
.LFB57:
	.loc 1 683 0
	.cfi_startproc
	pushl	%ebp
	.cfi_def_cfa_offset 8
	.cfi_offset 5, -8
	.loc 1 685 0
	movb	g_netmgr_cxt+222, %al
	.loc 1 683 0
	movl	%esp, %ebp
	.cfi_def_cfa_register 5
	.loc 1 685 0
	popl	%ebp
	.cfi_restore 5
	.cfi_def_cfa 4, 4
	ret
	.cfi_endproc
.LFE57:
	.size	netmgr_get_ip_state, .-netmgr_get_ip_state
	.section	.text.unlikely.netmgr_get_ip_state
.LCOLDE37:
	.section	.text.netmgr_get_ip_state
.LHOTE37:
	.section	.text.unlikely.netmgr_get_scan_cb_finished,"ax",@progbits
.LCOLDB38:
	.section	.text.netmgr_get_scan_cb_finished,"ax",@progbits
.LHOTB38:
	.globl	netmgr_get_scan_cb_finished
	.type	netmgr_get_scan_cb_finished, @function
netmgr_get_scan_cb_finished:
.LFB58:
	.loc 1 688 0
	.cfi_startproc
	pushl	%ebp
	.cfi_def_cfa_offset 8
	.cfi_offset 5, -8
	.loc 1 690 0
	movb	g_netmgr_cxt+228, %al
	.loc 1 688 0
	movl	%esp, %ebp
	.cfi_def_cfa_register 5
	.loc 1 690 0
	popl	%ebp
	.cfi_restore 5
	.cfi_def_cfa 4, 4
	ret
	.cfi_endproc
.LFE58:
	.size	netmgr_get_scan_cb_finished, .-netmgr_get_scan_cb_finished
	.section	.text.unlikely.netmgr_get_scan_cb_finished
.LCOLDE38:
	.section	.text.netmgr_get_scan_cb_finished
.LHOTE38:
	.section	.rodata.str1.1
.LC39:
	.string	"Invalid argument in %s"
.LC40:
	.string	"[%06d]<E> "
	.section	.text.unlikely.netmgr_wifi_get_ip,"ax",@progbits
.LCOLDB41:
	.section	.text.netmgr_wifi_get_ip,"ax",@progbits
.LHOTB41:
	.globl	netmgr_wifi_get_ip
	.type	netmgr_wifi_get_ip, @function
netmgr_wifi_get_ip:
.LFB59:
	.loc 1 694 0
	.cfi_startproc
.LVL132:
	pushl	%ebp
	.cfi_def_cfa_offset 8
	.cfi_offset 5, -8
	movl	%esp, %ebp
	.cfi_def_cfa_register 5
	subl	$8, %esp
	.loc 1 694 0
	movl	8(%ebp), %edx
	.loc 1 695 0
	testl	%edx, %edx
	jne	.L143
	.loc 1 696 0
	testb	$2, aos_log_level
	je	.L142
	.loc 1 696 0 is_stmt 0 discriminator 1
	call	aos_now_ms
.LVL133:
	pushl	$__func__.6547
	pushl	$.LC39
	pushl	%eax
	pushl	$.LC40
	call	csp_printf
.LVL134:
	popl	%eax
	popl	%edx
	pushl	$__func__.6547
	pushl	$.LC39
	call	csp_printf
.LVL135:
	addl	$16, %esp
	movl	$.LC10, 8(%ebp)
	.loc 1 700 0 is_stmt 1 discriminator 1
	leave
	.cfi_remember_state
	.cfi_restore 5
	.cfi_def_cfa 4, 4
	.loc 1 696 0 discriminator 1
	jmp	csp_printf
.LVL136:
.L143:
	.cfi_restore_state
	.loc 1 698 0
	movl	g_netmgr_cxt+216, %eax
	.loc 1 700 0
	leave
	.cfi_remember_state
	.cfi_restore 5
	.cfi_def_cfa 4, 4
	.loc 1 698 0
	jmp	format_ip
.LVL137:
.L142:
	.cfi_restore_state
	.loc 1 700 0
	leave
	.cfi_restore 5
	.cfi_def_cfa 4, 4
	ret
	.cfi_endproc
.LFE59:
	.size	netmgr_wifi_get_ip, .-netmgr_wifi_get_ip
	.section	.text.unlikely.netmgr_wifi_get_ip
.LCOLDE41:
	.section	.text.netmgr_wifi_get_ip
.LHOTE41:
	.section	.rodata.__func__.6547,"a",@progbits
	.align 4
	.type	__func__.6547, @object
	.size	__func__.6547, 19
__func__.6547:
	.string	"netmgr_wifi_get_ip"
	.section	.bss.rand_flag.6400,"aw",@nobits
	.type	rand_flag.6400, @object
	.size	rand_flag.6400, 1
rand_flag.6400:
	.zero	1
	.section	.rodata.g_wifi_hal_event,"a",@progbits
	.align 4
	.type	g_wifi_hal_event, @object
	.size	g_wifi_hal_event, 28
g_wifi_hal_event:
	.long	netmgr_connect_fail_event
	.long	netmgr_ip_got_event
	.long	netmgr_stat_chg_event
	.long	netmgr_scan_completed_event
	.long	netmgr_scan_adv_completed_event
	.long	netmgr_para_chg_event
	.long	netmgr_fatal_err_event
	.section	.bss.g_station_is_up,"aw",@nobits
	.type	g_station_is_up, @object
	.size	g_station_is_up, 1
g_station_is_up:
	.zero	1
	.section	.rodata.str1.1
.LC42:
	.string	"def_smartconfig"
	.section	.data.g_def_smartconfig,"aw",@progbits
	.align 4
	.type	g_def_smartconfig, @object
	.size	g_def_smartconfig, 20
g_def_smartconfig:
	.zero	4
	.long	.LC42
	.long	def_smart_config_start
	.long	def_smart_config_stop
	.long	def_smart_config_result_cb
	.section	.bss.g_netmgr_cxt,"aw",@nobits
	.align 32
	.type	g_netmgr_cxt, @object
	.size	g_netmgr_cxt, 232
g_netmgr_cxt:
	.zero	232
	.text
.Letext0:
	.section	.text.unlikely.netmgr_connect_fail_event
.Letext_cold0:
	.file 2 "/home/stone/Documents/Ali_IOT/build/compiler/gcc-arm-none-eabi/Linux64/arm-none-eabi/include/machine/_default_types.h"
	.file 3 "/home/stone/Documents/Ali_IOT/build/compiler/gcc-arm-none-eabi/Linux64/arm-none-eabi/include/sys/_stdint.h"
	.file 4 "./include/aos/cli.h"
	.file 5 "./include/aos/list.h"
	.file 6 "./include/aos/yloop.h"
	.file 7 "./include/hal/base.h"
	.file 8 "./include/hal/wifi.h"
	.file 9 "./include/hal/sensor.h"
	.file 10 "./kernel/protocols/net/include/lwip/memp.h"
	.file 11 "./include/aos/internal/log_impl.h"
	.file 12 "./kernel/protocols/net/include/lwip/netif.h"
	.file 13 "./framework/netmgr/include/netmgr.h"
	.file 14 "/home/stone/Documents/Ali_IOT/build/compiler/gcc-arm-none-eabi/Linux64/arm-none-eabi/include/stdio.h"
	.file 15 "./include/aos/kernel.h"
	.file 16 "/home/stone/Documents/Ali_IOT/build/compiler/gcc-arm-none-eabi/Linux64/arm-none-eabi/include/stdlib.h"
	.file 17 "./kernel/protocols/net/include/lwip/priv/tcp_priv.h"
	.file 18 "./kernel/protocols/net/include/lwip/udp.h"
	.file 19 "/home/stone/Documents/Ali_IOT/build/compiler/gcc-arm-none-eabi/Linux64/arm-none-eabi/include/string.h"
	.file 20 "./include/aos/kv.h"
	.file 21 "./include/aos/log.h"
	.section	.note.GNU-stack,"",@progbits
