	.file	"nrf5_power_clock.c"
	.text
.Ltext0:
	.section	.text.unlikely._clock_control_init,"ax",@progbits
.LCOLDB0:
	.section	.text._clock_control_init,"ax",@progbits
.LHOTB0:
	.section	.text.unlikely._clock_control_init
.Ltext_cold0:
	.section	.text._clock_control_init
	.type	_clock_control_init, @function
_clock_control_init:
.LFB156:
	.file 1 "src/nrf5_power_clock.c"
	.loc 1 4342 0
	.cfi_startproc
.LVL0:
	pushl	%ebp
	.cfi_def_cfa_offset 8
	.cfi_offset 5, -8
	movl	%esp, %ebp
	.cfi_def_cfa_register 5
	subl	$12, %esp
.LBB40:
	.loc 1 4343 0
	pushl	$0
	pushl	$_power_clock_isr
	pushl	$0
	call	os_hwi_set_handler
.LVL1:
	addl	$12, %esp
	pushl	$0
	pushl	$5
	pushl	$0
	call	_irq_priority_set
.LVL2:
.LBE40:
	.loc 1 4345 0
	movl	$0, (%esp)
	call	_arch_irq_enable
.LVL3:
	.loc 1 4347 0
	xorl	%eax, %eax
	leave
	.cfi_restore 5
	.cfi_def_cfa 4, 4
	ret
	.cfi_endproc
.LFE156:
	.size	_clock_control_init, .-_clock_control_init
	.section	.text.unlikely._clock_control_init
.LCOLDE0:
	.section	.text._clock_control_init
.LHOTE0:
	.section	.text.unlikely._m16src_stop,"ax",@progbits
.LCOLDB1:
	.section	.text._m16src_stop,"ax",@progbits
.LHOTB1:
	.type	_m16src_stop, @function
_m16src_stop:
.LFB153:
	.loc 1 4211 0
	.cfi_startproc
.LVL4:
	pushl	%ebp
	.cfi_def_cfa_offset 8
	.cfi_offset 5, -8
	movl	%esp, %ebp
	.cfi_def_cfa_register 5
	subl	$8, %esp
	.loc 1 4214 0
	call	irq_lock
.LVL5:
	.loc 1 4215 0
	movb	m16src_ref, %dl
	testb	%dl, %dl
	jne	.L4
	.loc 1 4216 0
	subl	$12, %esp
	pushl	%eax
	call	irq_unlock
.LVL6:
	.loc 1 4217 0
	addl	$16, %esp
	movl	$-69, %eax
	jmp	.L5
.LVL7:
.L4:
	.loc 1 4219 0
	leal	-1(%edx), %ecx
	testb	%cl, %cl
	movb	%cl, m16src_ref
	je	.L6
	.loc 1 4220 0
	subl	$12, %esp
	pushl	%eax
	call	irq_unlock
.LVL8:
	jmp	.L9
.LVL9:
.L6:
	.loc 1 4223 0
	cmpb	$0, m16src_grd
	je	.L7
	.loc 1 4225 0
	subl	$12, %esp
	.loc 1 4224 0
	movb	%dl, m16src_ref
	.loc 1 4225 0
	pushl	%eax
	call	irq_unlock
.LVL10:
	.loc 1 4226 0
	addl	$16, %esp
	movl	$-11, %eax
	jmp	.L5
.LVL11:
.L7:
	.loc 1 4229 0
	subl	$12, %esp
	.loc 1 4228 0
	movb	$1, m16src_grd
	.loc 1 4229 0
	pushl	%eax
	call	irq_unlock
.LVL12:
	.loc 1 4230 0
	movl	$1, 1073741828
	.loc 1 4231 0
	movb	$0, m16src_grd
.L9:
	.loc 1 4232 0
	addl	$16, %esp
	xorl	%eax, %eax
.L5:
	.loc 1 4233 0
	leave
	.cfi_restore 5
	.cfi_def_cfa 4, 4
	ret
	.cfi_endproc
.LFE153:
	.size	_m16src_stop, .-_m16src_stop
	.section	.text.unlikely._m16src_stop
.LCOLDE1:
	.section	.text._m16src_stop
.LHOTE1:
	.section	.text.unlikely._m16src_start,"ax",@progbits
.LCOLDB2:
	.section	.text._m16src_start,"ax",@progbits
.LHOTB2:
	.type	_m16src_start, @function
_m16src_start:
.LFB152:
	.loc 1 4162 0
	.cfi_startproc
.LVL13:
	pushl	%ebp
	.cfi_def_cfa_offset 8
	.cfi_offset 5, -8
	movl	%esp, %ebp
	.cfi_def_cfa_register 5
	subl	$8, %esp
	.loc 1 4166 0
	call	irq_lock
.LVL14:
	.loc 1 4167 0
	movb	m16src_ref, %dl
	leal	1(%edx), %ecx
	testb	%dl, %dl
	movb	%cl, m16src_ref
	je	.L12
	.loc 1 4168 0
	subl	$12, %esp
	pushl	%eax
	call	irq_unlock
.LVL15:
	.loc 1 4169 0
	addl	$16, %esp
	jmp	.L13
.LVL16:
.L12:
	.loc 1 4171 0
	cmpb	$0, m16src_grd
	je	.L14
	.loc 1 4173 0
	subl	$12, %esp
	.loc 1 4172 0
	movb	$0, m16src_ref
	.loc 1 4173 0
	pushl	%eax
	call	irq_unlock
.LVL17:
	.loc 1 4174 0
	addl	$16, %esp
	movl	$-11, %eax
	jmp	.L15
.LVL18:
.L14:
	.loc 1 4177 0
	subl	$12, %esp
	.loc 1 4176 0
	movb	$1, m16src_grd
	.loc 1 4177 0
	pushl	%eax
	call	irq_unlock
.LVL19:
	.loc 1 4179 0
	addl	$16, %esp
	cmpl	$0, 12(%ebp)
	je	.L16
.LBB41:
	.loc 1 4181 0
	subl	$12, %esp
	pushl	$0
	call	_arch_irq_disable
.LVL20:
	.loc 1 4182 0
	movl	$0, 1073742080
	.loc 1 4186 0
	addl	$16, %esp
	.loc 1 4183 0
	movl	1073742596, %eax
.LVL21:
	.loc 1 4184 0
	movl	$1, 1073742596
	.loc 1 4185 0
	movl	$1, 1073741824
.L17:
	.loc 1 4186 0
	movl	1073742080, %edx
	testl	%edx, %edx
	jne	.L23
.LBB42:
.LBB43:
	.loc 1 1822 0
#APP
# 1822 "src/nrf5_power_clock.c" 1
	wfe
# 0 "" 2
#NO_APP
.LBE43:
.LBE42:
.LBB44:
.LBB45:
	.loc 1 1826 0
#APP
# 1826 "src/nrf5_power_clock.c" 1
	sev
# 0 "" 2
#NO_APP
.LBE45:
.LBE44:
.LBB46:
.LBB47:
	.loc 1 1822 0
#APP
# 1822 "src/nrf5_power_clock.c" 1
	wfe
# 0 "" 2
#NO_APP
	jmp	.L17
.L23:
.LBE47:
.LBE46:
	.loc 1 4192 0
	testb	$1, %al
	.loc 1 4191 0
	movl	$0, 1073742080
	.loc 1 4192 0
	jne	.L19
	.loc 1 4193 0
	movl	$1, 1073742600
.L19:
.LVL22:
	.loc 1 4196 0
	subl	$12, %esp
.LBB48:
.LBB49:
	.loc 1 2561 0
	movl	$1, -536812928
.LVL23:
.LBE49:
.LBE48:
	.loc 1 4196 0
	pushl	$0
	call	_arch_irq_enable
.LVL24:
.LBE41:
	addl	$16, %esp
	jmp	.L20
.L16:
	.loc 1 4198 0
	movl	$0, 1073742080
	.loc 1 4199 0
	movl	$1, 1073741824
.L20:
	.loc 1 4201 0
	movb	$0, m16src_grd
.LVL25:
.L13:
	.loc 1 4204 0
	movl	1073742860, %eax
	andl	$65536, %eax
	.loc 1 4207 0
	cmpl	$1, %eax
	sbbl	%eax, %eax
	andl	$-68, %eax
.L15:
	.loc 1 4209 0
	leave
	.cfi_restore 5
	.cfi_def_cfa 4, 4
	ret
	.cfi_endproc
.LFE152:
	.size	_m16src_start, .-_m16src_start
	.section	.text.unlikely._m16src_start
.LCOLDE2:
	.section	.text._m16src_start
.LHOTE2:
	.section	.text.unlikely._power_clock_isr,"ax",@progbits
.LCOLDB3:
	.section	.text._power_clock_isr,"ax",@progbits
.LHOTB3:
	.type	_power_clock_isr, @function
_power_clock_isr:
.LFB155:
	.loc 1 4290 0
	.cfi_startproc
.LVL26:
	pushl	%ebp
	.cfi_def_cfa_offset 8
	.cfi_offset 5, -8
	movl	%esp, %ebp
	.cfi_def_cfa_register 5
	pushl	%edi
	pushl	%esi
	pushl	%ebx
	subl	$28, %esp
	.cfi_offset 7, -12
	.cfi_offset 6, -16
	.cfi_offset 3, -20
	.loc 1 4290 0
	movl	8(%ebp), %ebx
.LVL27:
	.loc 1 4293 0
	call	krhino_intrpt_enter
.LVL28:
	.loc 1 4294 0
	movl	1073742088, %edi
.LVL29:
	.loc 1 4296 0
	movl	1073742596, %eax
	andl	$1, %eax
	movb	%al, -25(%ebp)
.LVL30:
	.loc 1 4297 0
	movl	1073742860, %eax
.LVL31:
	.loc 1 4298 0
	movl	1073742080, %ecx
	.loc 1 4299 0
	movl	1073742084, %edx
	.loc 1 4297 0
	shrl	$16, %eax
	andl	$1, %eax
	.loc 1 4303 0
	testl	%edi, %edi
	.loc 1 4297 0
	movb	%al, -26(%ebp)
.LVL32:
	.loc 1 4300 0
	movl	1073742092, %eax
.LVL33:
	.loc 1 4301 0
	movl	1073742096, %esi
.LVL34:
	.loc 1 4303 0
	je	.L25
	.loc 1 4304 0
	movl	$0, 1073742088
.L25:
	.loc 1 4306 0
	testl	%ecx, %ecx
	je	.L26
	.loc 1 4307 0
	movl	$0, 1073742080
.L26:
	.loc 1 4309 0
	cmpb	$0, -25(%ebp)
	je	.L27
	cmpb	$0, -26(%ebp)
	je	.L27
	.loc 1 4310 0
	movl	$1, 1073742600
	.loc 1 4311 0
	movl	$1, 1073741840
.L27:
	.loc 1 4313 0
	testl	%edx, %edx
	je	.L28
	.loc 1 4314 0
	movl	$0, 1073742084
.L28:
	.loc 1 4317 0
	testl	%eax, %eax
	je	.L29
.LBB50:
	.loc 1 4319 0
	movl	$0, 1073742092
.LVL35:
	.loc 1 4320 0
	pushl	%edx
	pushl	%edx
	pushl	$0
	pushl	%ebx
	call	_m16src_stop
.LVL36:
	.loc 1 4324 0
	movl	$1, 1073741844
	addl	$16, %esp
.L29:
.LBE50:
	.loc 1 4326 0
	testl	%esi, %esi
	je	.L31
.LBB51:
	.loc 1 4328 0
	movl	$0, 1073742096
	.loc 1 4329 0
	movl	$1, 1073742596
	.loc 1 4330 0
	pushl	%eax
	pushl	%eax
	pushl	$0
	pushl	%ebx
	call	_m16src_start
.LVL37:
	.loc 1 4333 0
	addl	$16, %esp
	testl	%eax, %eax
	jne	.L31
.LVL38:
.LBB52:
.LBB53:
	.loc 1 2557 0
	movl	$1, -536813056
.LVL39:
.L31:
.LBE53:
.LBE52:
.LBE51:
	.loc 1 4340 0
	leal	-12(%ebp), %esp
	popl	%ebx
	.cfi_restore 3
.LVL40:
	popl	%esi
	.cfi_restore 6
.LVL41:
	popl	%edi
	.cfi_restore 7
.LVL42:
	popl	%ebp
	.cfi_restore 5
	.cfi_def_cfa 4, 4
	.loc 1 4339 0
	jmp	krhino_intrpt_exit
.LVL43:
	.cfi_endproc
.LFE155:
	.size	_power_clock_isr, .-_power_clock_isr
	.section	.text.unlikely._power_clock_isr
.LCOLDE3:
	.section	.text._power_clock_isr
.LHOTE3:
	.section	.text.unlikely._k32src_start,"ax",@progbits
.LCOLDB4:
	.section	.text._k32src_start,"ax",@progbits
.LHOTB4:
	.type	_k32src_start, @function
_k32src_start:
.LFB154:
	.loc 1 4235 0
	.cfi_startproc
.LVL44:
	pushl	%ebp
	.cfi_def_cfa_offset 8
	.cfi_offset 5, -8
	movl	%esp, %ebp
	.cfi_def_cfa_register 5
	pushl	%ebx
	pushl	%edx
	.cfi_offset 3, -12
	.loc 1 4235 0
	movl	12(%ebp), %ebx
	.loc 1 4239 0
	call	irq_lock
.LVL45:
	.loc 1 4240 0
	cmpb	$0, k32src_initialized
	je	.L53
	.loc 1 4241 0
	subl	$12, %esp
	pushl	%eax
	call	irq_unlock
.LVL46:
	.loc 1 4242 0
	addl	$16, %esp
	jmp	.L54
.LVL47:
.L53:
	.loc 1 4245 0
	subl	$12, %esp
	.loc 1 4244 0
	movb	$1, k32src_initialized
	.loc 1 4245 0
	pushl	%eax
	call	irq_unlock
.LVL48:
	.loc 1 4246 0
	movl	$0, (%esp)
	call	_arch_irq_disable
.LVL49:
	.loc 1 4247 0
	movl	$0, 1073742084
	.loc 1 4253 0
	addl	$16, %esp
	.loc 1 4248 0
	movl	1073742596, %eax
.LVL50:
	.loc 1 4249 0
	movl	$2, 1073742596
.LVL51:
	.loc 1 4251 0
	movl	%ebx, 1073743128
	.loc 1 4252 0
	movl	$1, 1073741832
.L55:
	.loc 1 4253 0
	movl	1073742084, %edx
	testl	%edx, %edx
	jne	.L63
.LBB54:
.LBB55:
	.loc 1 1822 0
#APP
# 1822 "src/nrf5_power_clock.c" 1
	wfe
# 0 "" 2
#NO_APP
.LBE55:
.LBE54:
.LBB56:
.LBB57:
	.loc 1 1826 0
#APP
# 1826 "src/nrf5_power_clock.c" 1
	sev
# 0 "" 2
#NO_APP
.LBE57:
.LBE56:
.LBB58:
.LBB59:
	.loc 1 1822 0
#APP
# 1822 "src/nrf5_power_clock.c" 1
	wfe
# 0 "" 2
#NO_APP
	jmp	.L55
.L63:
.LBE59:
.LBE58:
	.loc 1 4259 0
	testb	$2, %al
	.loc 1 4258 0
	movl	$0, 1073742084
	.loc 1 4259 0
	jne	.L57
	.loc 1 4260 0
	movl	$2, 1073742600
.L57:
.LVL52:
	.loc 1 4263 0
	subl	$12, %esp
.LBB60:
.LBB61:
	.loc 1 2561 0
	movl	$1, -536812928
.LVL53:
.LBE61:
.LBE60:
	.loc 1 4263 0
	pushl	$0
	call	_arch_irq_enable
.LVL54:
	.loc 1 4267 0
	addl	$16, %esp
	andb	$3, %bl
.LVL55:
	.loc 1 4264 0
	movl	$24, 1073742600
	.loc 1 4265 0
	movl	$0, 1073742092
	.loc 1 4266 0
	movl	$0, 1073742096
	.loc 1 4267 0
	jne	.L54
.LBB62:
	.loc 1 4269 0
	movl	$16, 1073743160
	.loc 1 4270 0
	movl	$24, 1073742596
	.loc 1 4272 0
	movl	$1, 1073742596
	.loc 1 4273 0
	pushl	%eax
	pushl	%eax
	pushl	$0
	pushl	8(%ebp)
	call	_m16src_start
.LVL56:
	.loc 1 4276 0
	addl	$16, %esp
	testl	%eax, %eax
	jne	.L54
.LVL57:
.LBB63:
.LBB64:
	.loc 1 2557 0
	movl	$1, -536813056
.LVL58:
.L54:
.LBE64:
.LBE63:
.LBE62:
	.loc 1 4283 0
	movl	1073742872, %eax
	.loc 1 4288 0
	movl	-4(%ebp), %ebx
	leave
	.cfi_restore 5
	.cfi_restore 3
	.cfi_def_cfa 4, 4
	.loc 1 4283 0
	andl	$65536, %eax
	.loc 1 4286 0
	cmpl	$1, %eax
	sbbl	%eax, %eax
	andl	$-68, %eax
	.loc 1 4288 0
	ret
	.cfi_endproc
.LFE154:
	.size	_k32src_start, .-_k32src_start
	.section	.text.unlikely._k32src_start
.LCOLDE4:
	.section	.text._k32src_start
.LHOTE4:
	.section	.init_PRE_KERNEL_10,"aw",@progbits
	.align 4
	.type	__device_clock_nrf5_k32src, @object
	.size	__device_clock_nrf5_k32src, 12
__device_clock_nrf5_k32src:
	.long	__config_clock_nrf5_k32src
	.long	_k32src_clock_control_api
	.long	0
	.section	.rodata.str1.1,"aMS",@progbits,1
.LC5:
	.string	"nrf5k32srcclockcontrol"
	.section	.devconfig.init,"aw",@progbits
	.align 4
	.type	__config_clock_nrf5_k32src, @object
	.size	__config_clock_nrf5_k32src, 16
__config_clock_nrf5_k32src:
	.long	.LC5
	.long	_clock_control_init
	.long	device_pm_control_nop
	.long	0
	.section	.rodata._k32src_clock_control_api,"a",@progbits
	.align 4
	.type	_k32src_clock_control_api, @object
	.size	_k32src_clock_control_api, 12
_k32src_clock_control_api:
	.long	_k32src_start
	.long	0
	.long	0
	.section	.init_PRE_KERNEL_10
	.align 4
	.type	__device_clock_nrf5_m16src, @object
	.size	__device_clock_nrf5_m16src, 12
__device_clock_nrf5_m16src:
	.long	__config_clock_nrf5_m16src
	.long	_m16src_clock_control_api
	.long	0
	.section	.rodata.str1.1
.LC6:
	.string	"nrf5m16srcclockcontrol"
	.section	.devconfig.init
	.align 4
	.type	__config_clock_nrf5_m16src, @object
	.size	__config_clock_nrf5_m16src, 16
__config_clock_nrf5_m16src:
	.long	.LC6
	.long	_clock_control_init
	.long	device_pm_control_nop
	.long	0
	.section	.rodata._m16src_clock_control_api,"a",@progbits
	.align 4
	.type	_m16src_clock_control_api, @object
	.size	_m16src_clock_control_api, 12
_m16src_clock_control_api:
	.long	_m16src_start
	.long	_m16src_stop
	.long	0
	.section	.intList,"aw",@progbits
	.align 4
	.type	__isr__power_clock_isr_irq___COUNTER__.6556, @object
	.size	__isr__power_clock_isr_irq___COUNTER__.6556, 16
__isr__power_clock_isr_irq___COUNTER__.6556:
	.long	0
	.long	0
	.long	_power_clock_isr
	.long	0
	.section	.bss.k32src_initialized,"aw",@nobits
	.type	k32src_initialized, @object
	.size	k32src_initialized, 1
k32src_initialized:
	.zero	1
	.section	.bss.m16src_grd,"aw",@nobits
	.type	m16src_grd, @object
	.size	m16src_grd, 1
m16src_grd:
	.zero	1
	.section	.bss.m16src_ref,"aw",@nobits
	.type	m16src_ref, @object
	.size	m16src_ref, 1
m16src_ref:
	.zero	1
	.text
.Letext0:
	.section	.text.unlikely._clock_control_init
.Letext_cold0:
	.section	.note.GNU-stack,"",@progbits
