	.file	"nrf_drv_clock.c"
	.text
.Ltext0:
	.section	.text.unlikely.hfclk_stop,"ax",@progbits
.LCOLDB0:
	.section	.text.hfclk_stop,"ax",@progbits
.LHOTB0:
	.section	.text.unlikely.hfclk_stop
.Ltext_cold0:
	.section	.text.hfclk_stop
	.type	hfclk_stop, @function
hfclk_stop:
.LFB183:
	.file 1 "src/nrf_drv_clock.c"
	.loc 1 4443 0
	.cfi_startproc
.LVL0:
	pushl	%ebp
	.cfi_def_cfa_offset 8
	.cfi_offset 5, -8
.LBB30:
.LBB31:
	.loc 1 3417 0
	movl	$1, 1073741828
.LBE31:
.LBE30:
	.loc 1 4443 0
	movl	%esp, %ebp
	.cfi_def_cfa_register 5
.L2:
.LVL1:
.LBB32:
.LBB33:
	.loc 1 3479 0 discriminator 1
	movl	1073742860, %eax
.LVL2:
.LBE33:
.LBE32:
	.loc 1 4445 0 discriminator 1
	andl	$65537, %eax
	cmpl	$65537, %eax
	je	.L2
	.loc 1 4447 0
	movb	$0, m_clock_cb+1
	.loc 1 4450 0
	popl	%ebp
	.cfi_restore 5
	.cfi_def_cfa 4, 4
	ret
	.cfi_endproc
.LFE183:
	.size	hfclk_stop, .-hfclk_stop
	.section	.text.unlikely.hfclk_stop
.LCOLDE0:
	.section	.text.hfclk_stop
.LHOTE0:
	.section	.text.unlikely.clock_clk_started_notify,"ax",@progbits
.LCOLDB1:
	.section	.text.clock_clk_started_notify,"ax",@progbits
.LHOTB1:
	.type	clock_clk_started_notify, @function
clock_clk_started_notify:
.LFB198:
	.loc 1 4655 0
	.cfi_startproc
.LVL3:
	pushl	%ebp
	.cfi_def_cfa_offset 8
	.cfi_offset 5, -8
	.loc 1 4663 0
	testl	%eax, %eax
	movl	$m_clock_cb+8, %edx
	.loc 1 4655 0
	movl	%esp, %ebp
	.cfi_def_cfa_register 5
	pushl	%esi
	pushl	%ebx
	.cfi_offset 6, -12
	.cfi_offset 3, -16
	.loc 1 4663 0
	movl	$m_clock_cb+16, %ebx
	.loc 1 4655 0
	movl	%eax, %esi
	.loc 1 4663 0
	cmove	%edx, %ebx
.LVL4:
.L10:
.LBB37:
.LBB38:
.LBB39:
	.loc 1 4516 0
	movl	(%ebx), %edx
.LVL5:
	.loc 1 4517 0
	testl	%edx, %edx
	je	.L7
	.loc 1 4519 0
	movl	(%edx), %eax
.LBE39:
.LBE38:
	.loc 1 4672 0
	subl	$12, %esp
.LBB41:
.LBB40:
	.loc 1 4519 0
	movl	%eax, (%ebx)
.LVL6:
.LBE40:
.LBE41:
	.loc 1 4672 0
	pushl	%esi
	call	*4(%edx)
.LVL7:
.LBE37:
	.loc 1 4673 0
	addl	$16, %esp
	jmp	.L10
.LVL8:
.L7:
	.loc 1 4674 0
	leal	-8(%ebp), %esp
	popl	%ebx
	.cfi_restore 3
.LVL9:
	popl	%esi
	.cfi_restore 6
.LVL10:
	popl	%ebp
	.cfi_restore 5
	.cfi_def_cfa 4, 4
	ret
	.cfi_endproc
.LFE198:
	.size	clock_clk_started_notify, .-clock_clk_started_notify
	.section	.text.unlikely.clock_clk_started_notify
.LCOLDE1:
	.section	.text.clock_clk_started_notify
.LHOTE1:
	.section	.text.unlikely.lfclk_stop,"ax",@progbits
.LCOLDB2:
	.section	.text.lfclk_stop,"ax",@progbits
.LHOTB2:
	.type	lfclk_stop, @function
lfclk_stop:
.LFB181:
	.loc 1 4428 0
	.cfi_startproc
.LVL11:
	pushl	%ebp
	.cfi_def_cfa_offset 8
	.cfi_offset 5, -8
.LBB46:
.LBB47:
	.loc 1 3417 0
	movl	$1, 1073741836
.LBE47:
.LBE46:
	.loc 1 4428 0
	movl	%esp, %ebp
	.cfi_def_cfa_register 5
.L14:
.LBB48:
.LBB49:
	.loc 1 3461 0 discriminator 1
	movl	1073742872, %eax
.LBE49:
.LBE48:
	.loc 1 4430 0 discriminator 1
	testl	$65536, %eax
	jne	.L14
	.loc 1 4432 0
	movb	$0, m_clock_cb+2
	.loc 1 4435 0
	popl	%ebp
	.cfi_restore 5
	.cfi_def_cfa 4, 4
	ret
	.cfi_endproc
.LFE181:
	.size	lfclk_stop, .-lfclk_stop
	.section	.text.unlikely.lfclk_stop
.LCOLDE2:
	.section	.text.lfclk_stop
.LHOTE2:
	.section	.text.unlikely.nrf_drv_clock_init_check,"ax",@progbits
.LCOLDB3:
	.section	.text.nrf_drv_clock_init_check,"ax",@progbits
.LHOTB3:
	.globl	nrf_drv_clock_init_check
	.type	nrf_drv_clock_init_check, @function
nrf_drv_clock_init_check:
.LFB184:
	.loc 1 4453 0
	.cfi_startproc
	pushl	%ebp
	.cfi_def_cfa_offset 8
	.cfi_offset 5, -8
	.loc 1 4455 0
	movb	m_clock_cb, %al
	.loc 1 4453 0
	movl	%esp, %ebp
	.cfi_def_cfa_register 5
	.loc 1 4455 0
	popl	%ebp
	.cfi_restore 5
	.cfi_def_cfa 4, 4
	ret
	.cfi_endproc
.LFE184:
	.size	nrf_drv_clock_init_check, .-nrf_drv_clock_init_check
	.section	.text.unlikely.nrf_drv_clock_init_check
.LCOLDE3:
	.section	.text.nrf_drv_clock_init_check
.LHOTE3:
	.section	.text.unlikely.nrf_drv_clock_init,"ax",@progbits
.LCOLDB4:
	.section	.text.nrf_drv_clock_init,"ax",@progbits
.LHOTB4:
	.globl	nrf_drv_clock_init
	.type	nrf_drv_clock_init, @function
nrf_drv_clock_init:
.LFB185:
	.loc 1 4457 0
	.cfi_startproc
.LVL12:
	.loc 1 4459 0
	cmpb	$0, m_clock_cb
	jne	.L23
	.loc 1 4457 0
	pushl	%ebp
	.cfi_def_cfa_offset 8
	.cfi_offset 5, -8
	movl	%esp, %ebp
	.cfi_def_cfa_register 5
	subl	$8, %esp
	.loc 1 4468 0
	movl	$0, m_clock_cb+4
	.loc 1 4472 0
	movl	$0, m_clock_cb+12
.LVL13:
.LBB56:
.LBB57:
.LBB58:
.LBB59:
	.loc 1 3521 0
	movl	-536813312, %eax
.LVL14:
.LBE59:
.LBE58:
.LBE57:
.LBE56:
	.loc 1 4465 0
	movl	$0, m_clock_cb+8
	.loc 1 4469 0
	movl	$0, m_clock_cb+16
.LBB61:
.LBB60:
	.loc 1 3543 0
	testb	$1, %al
	jne	.L21
	.loc 1 3545 0
	pushl	%eax
	pushl	%eax
	pushl	$7
	pushl	$0
	call	nrf_drv_common_irq_enable
.LVL15:
	addl	$16, %esp
.L21:
.LVL16:
.LBE60:
.LBE61:
.LBB62:
.LBB63:
	.loc 1 3439 0
	movl	$1, 1073743128
.LVL17:
.LBE63:
.LBE62:
	.loc 1 4458 0
	xorl	%eax, %eax
.LVL18:
	.loc 1 4477 0
	movb	$1, m_clock_cb
	.loc 1 4484 0
	leave
	.cfi_restore 5
	.cfi_def_cfa 4, 4
	ret
.LVL19:
.L23:
	movl	$133, %eax
	ret
	.cfi_endproc
.LFE185:
	.size	nrf_drv_clock_init, .-nrf_drv_clock_init
	.section	.text.unlikely.nrf_drv_clock_init
.LCOLDE4:
	.section	.text.nrf_drv_clock_init
.LHOTE4:
	.section	.text.unlikely.nrf_drv_clock_uninit,"ax",@progbits
.LCOLDB5:
	.section	.text.nrf_drv_clock_uninit,"ax",@progbits
.LHOTB5:
	.globl	nrf_drv_clock_uninit
	.type	nrf_drv_clock_uninit, @function
nrf_drv_clock_uninit:
.LFB186:
	.loc 1 4486 0
	.cfi_startproc
	pushl	%ebp
	.cfi_def_cfa_offset 8
	.cfi_offset 5, -8
	movl	%esp, %ebp
	.cfi_def_cfa_register 5
	subl	$8, %esp
	.loc 1 4488 0
	call	nrf_drv_common_clock_irq_disable
.LVL20:
.LBB64:
.LBB65:
	.loc 1 3401 0
	movl	$-1, 1073742600
.LVL21:
.LBE65:
.LBE64:
	.loc 1 4490 0
	call	lfclk_stop
.LVL22:
	.loc 1 4491 0
	call	hfclk_stop
.LVL23:
	.loc 1 4492 0
	movb	$0, m_clock_cb
	.loc 1 4496 0
	leave
	.cfi_restore 5
	.cfi_def_cfa 4, 4
	ret
	.cfi_endproc
.LFE186:
	.size	nrf_drv_clock_uninit, .-nrf_drv_clock_uninit
	.section	.text.unlikely.nrf_drv_clock_uninit
.LCOLDE5:
	.section	.text.nrf_drv_clock_uninit
.LHOTE5:
	.section	.text.unlikely.nrf_drv_clock_lfclk_request,"ax",@progbits
.LCOLDB6:
	.section	.text.nrf_drv_clock_lfclk_request,"ax",@progbits
.LHOTB6:
	.globl	nrf_drv_clock_lfclk_request
	.type	nrf_drv_clock_lfclk_request, @function
nrf_drv_clock_lfclk_request:
.LFB189:
	.loc 1 4524 0
	.cfi_startproc
.LVL24:
	pushl	%ebp
	.cfi_def_cfa_offset 8
	.cfi_offset 5, -8
	movl	%esp, %ebp
	.cfi_def_cfa_register 5
	pushl	%ebx
	subl	$20, %esp
	.cfi_offset 3, -12
	.loc 1 4526 0
	movb	m_clock_cb+2, %al
	.loc 1 4524 0
	movl	8(%ebp), %ebx
	.loc 1 4526 0
	testb	%al, %al
	je	.L29
	.loc 1 4528 0
	testl	%ebx, %ebx
	je	.L30
	.loc 1 4530 0
	subl	$12, %esp
	pushl	$1
	call	*4(%ebx)
.LVL25:
	addl	$16, %esp
.L30:
	.loc 1 4532 0
	subl	$12, %esp
	pushl	$0
	call	app_util_critical_region_enter
.LVL26:
	.loc 1 4535 0
	movl	m_clock_cb+12, %eax
	.loc 1 4536 0
	movl	$0, (%esp)
	.loc 1 4535 0
	incl	%eax
	movl	%eax, m_clock_cb+12
	jmp	.L43
.L29:
	.loc 1 4540 0
	subl	$12, %esp
	pushl	$0
	call	app_util_critical_region_enter
.LVL27:
	.loc 1 4543 0
	addl	$16, %esp
	testl	%ebx, %ebx
	je	.L32
.LVL28:
.LBB76:
.LBB77:
	.loc 1 4500 0
	movl	m_clock_cb+16, %edx
.LVL29:
	movl	%edx, %eax
.LVL30:
.L33:
	.loc 1 4501 0
	testl	%eax, %eax
	je	.L44
	.loc 1 4503 0
	cmpl	%eax, %ebx
	je	.L32
	.loc 1 4507 0
	movl	(%eax), %eax
.LVL31:
	jmp	.L33
.L44:
	.loc 1 4509 0
	movl	%edx, (%ebx)
	.loc 1 4512 0
	movl	%ebx, m_clock_cb+16
.LVL32:
.L32:
.LBE77:
.LBE76:
	.loc 1 4548 0
	movl	m_clock_cb+12, %eax
	testl	%eax, %eax
	jne	.L35
.LVL33:
.LBB78:
.LBB79:
.LBB80:
	.loc 1 3425 0
	movl	$0, 1073742084
	.loc 1 3426 0
	movl	1073742084, %eax
	movl	%eax, -12(%ebp)
	.loc 1 3427 0
	movl	-12(%ebp), %eax
.LVL34:
.LBE80:
.LBE79:
.LBB81:
.LBB82:
	.loc 1 3397 0
	movl	$2, 1073742596
.LVL35:
.LBE82:
.LBE81:
.LBB83:
.LBB84:
	.loc 1 3417 0
	movl	$1, 1073741832
.LVL36:
.L35:
.LBE84:
.LBE83:
.LBE78:
	.loc 1 4552 0
	movl	m_clock_cb+12, %eax
	.loc 1 4553 0
	subl	$12, %esp
	pushl	$0
	.loc 1 4552 0
	incl	%eax
	movl	%eax, m_clock_cb+12
.L43:
	.loc 1 4553 0
	call	app_util_critical_region_exit
.LVL37:
	addl	$16, %esp
	.loc 1 4556 0
	movl	-4(%ebp), %ebx
	leave
	.cfi_restore 5
	.cfi_restore 3
	.cfi_def_cfa 4, 4
	ret
	.cfi_endproc
.LFE189:
	.size	nrf_drv_clock_lfclk_request, .-nrf_drv_clock_lfclk_request
	.section	.text.unlikely.nrf_drv_clock_lfclk_request
.LCOLDE6:
	.section	.text.nrf_drv_clock_lfclk_request
.LHOTE6:
	.section	.text.unlikely.nrf_drv_clock_lfclk_release,"ax",@progbits
.LCOLDB7:
	.section	.text.nrf_drv_clock_lfclk_release,"ax",@progbits
.LHOTB7:
	.globl	nrf_drv_clock_lfclk_release
	.type	nrf_drv_clock_lfclk_release, @function
nrf_drv_clock_lfclk_release:
.LFB190:
	.loc 1 4558 0
	.cfi_startproc
	pushl	%ebp
	.cfi_def_cfa_offset 8
	.cfi_offset 5, -8
	movl	%esp, %ebp
	.cfi_def_cfa_register 5
	subl	$20, %esp
	.loc 1 4561 0
	pushl	$0
	call	app_util_critical_region_enter
.LVL38:
	.loc 1 4564 0
	movl	m_clock_cb+12, %eax
	.loc 1 4565 0
	addl	$16, %esp
	.loc 1 4564 0
	decl	%eax
	movl	%eax, m_clock_cb+12
	.loc 1 4565 0
	movl	m_clock_cb+12, %eax
	testl	%eax, %eax
	jne	.L46
	.loc 1 4567 0
	call	lfclk_stop
.LVL39:
.L46:
	.loc 1 4569 0
	subl	$12, %esp
	pushl	$0
	call	app_util_critical_region_exit
.LVL40:
	.loc 1 4570 0
	addl	$16, %esp
	leave
	.cfi_restore 5
	.cfi_def_cfa 4, 4
	ret
	.cfi_endproc
.LFE190:
	.size	nrf_drv_clock_lfclk_release, .-nrf_drv_clock_lfclk_release
	.section	.text.unlikely.nrf_drv_clock_lfclk_release
.LCOLDE7:
	.section	.text.nrf_drv_clock_lfclk_release
.LHOTE7:
	.section	.text.unlikely.nrf_drv_clock_lfclk_is_running,"ax",@progbits
.LCOLDB8:
	.section	.text.nrf_drv_clock_lfclk_is_running,"ax",@progbits
.LHOTB8:
	.globl	nrf_drv_clock_lfclk_is_running
	.type	nrf_drv_clock_lfclk_is_running, @function
nrf_drv_clock_lfclk_is_running:
.LFB191:
	.loc 1 4573 0
	.cfi_startproc
	pushl	%ebp
	.cfi_def_cfa_offset 8
	.cfi_offset 5, -8
.LBB87:
.LBB88:
	.loc 1 3461 0
	movl	1073742872, %eax
.LBE88:
.LBE87:
	.loc 1 4573 0
	movl	%esp, %ebp
	.cfi_def_cfa_register 5
	.loc 1 4575 0
	shrl	$16, %eax
	andl	$1, %eax
	.loc 1 4576 0
	popl	%ebp
	.cfi_restore 5
	.cfi_def_cfa 4, 4
	ret
	.cfi_endproc
.LFE191:
	.size	nrf_drv_clock_lfclk_is_running, .-nrf_drv_clock_lfclk_is_running
	.section	.text.unlikely.nrf_drv_clock_lfclk_is_running
.LCOLDE8:
	.section	.text.nrf_drv_clock_lfclk_is_running
.LHOTE8:
	.section	.text.unlikely.nrf_drv_clock_hfclk_request,"ax",@progbits
.LCOLDB9:
	.section	.text.nrf_drv_clock_hfclk_request,"ax",@progbits
.LHOTB9:
	.globl	nrf_drv_clock_hfclk_request
	.type	nrf_drv_clock_hfclk_request, @function
nrf_drv_clock_hfclk_request:
.LFB192:
	.loc 1 4578 0
	.cfi_startproc
.LVL41:
	pushl	%ebp
	.cfi_def_cfa_offset 8
	.cfi_offset 5, -8
	movl	%esp, %ebp
	.cfi_def_cfa_register 5
	pushl	%ebx
	subl	$20, %esp
	.cfi_offset 3, -12
	.loc 1 4580 0
	movb	m_clock_cb+1, %al
	.loc 1 4578 0
	movl	8(%ebp), %ebx
	.loc 1 4580 0
	testb	%al, %al
	je	.L51
	.loc 1 4582 0
	testl	%ebx, %ebx
	je	.L52
	.loc 1 4584 0
	subl	$12, %esp
	pushl	$0
	call	*4(%ebx)
.LVL42:
	addl	$16, %esp
.L52:
	.loc 1 4586 0
	subl	$12, %esp
	pushl	$0
	call	app_util_critical_region_enter
.LVL43:
	.loc 1 4589 0
	movl	m_clock_cb+4, %eax
	.loc 1 4590 0
	movl	$0, (%esp)
	.loc 1 4589 0
	incl	%eax
	movl	%eax, m_clock_cb+4
	jmp	.L65
.L51:
	.loc 1 4594 0
	subl	$12, %esp
	pushl	$0
	call	app_util_critical_region_enter
.LVL44:
	.loc 1 4597 0
	addl	$16, %esp
	testl	%ebx, %ebx
	je	.L54
.LVL45:
.LBB99:
.LBB100:
	.loc 1 4500 0
	movl	m_clock_cb+8, %edx
.LVL46:
	movl	%edx, %eax
.LVL47:
.L55:
	.loc 1 4501 0
	testl	%eax, %eax
	je	.L66
	.loc 1 4503 0
	cmpl	%eax, %ebx
	je	.L54
	.loc 1 4507 0
	movl	(%eax), %eax
.LVL48:
	jmp	.L55
.L66:
	.loc 1 4509 0
	movl	%edx, (%ebx)
	.loc 1 4512 0
	movl	%ebx, m_clock_cb+8
.LVL49:
.L54:
.LBE100:
.LBE99:
	.loc 1 4602 0
	movl	m_clock_cb+4, %eax
	testl	%eax, %eax
	jne	.L57
.LVL50:
.LBB101:
.LBB102:
.LBB103:
	.loc 1 3425 0
	movl	$0, 1073742080
	.loc 1 3426 0
	movl	1073742080, %eax
	movl	%eax, -12(%ebp)
	.loc 1 3427 0
	movl	-12(%ebp), %eax
.LVL51:
.LBE103:
.LBE102:
.LBB104:
.LBB105:
	.loc 1 3397 0
	movl	$1, 1073742596
.LVL52:
.LBE105:
.LBE104:
.LBB106:
.LBB107:
	.loc 1 3417 0
	movl	$1, 1073741824
.LVL53:
.L57:
.LBE107:
.LBE106:
.LBE101:
	.loc 1 4606 0
	movl	m_clock_cb+4, %eax
	.loc 1 4607 0
	subl	$12, %esp
	pushl	$0
	.loc 1 4606 0
	incl	%eax
	movl	%eax, m_clock_cb+4
.L65:
	.loc 1 4607 0
	call	app_util_critical_region_exit
.LVL54:
	addl	$16, %esp
	.loc 1 4610 0
	movl	-4(%ebp), %ebx
	leave
	.cfi_restore 5
	.cfi_restore 3
	.cfi_def_cfa 4, 4
	ret
	.cfi_endproc
.LFE192:
	.size	nrf_drv_clock_hfclk_request, .-nrf_drv_clock_hfclk_request
	.section	.text.unlikely.nrf_drv_clock_hfclk_request
.LCOLDE9:
	.section	.text.nrf_drv_clock_hfclk_request
.LHOTE9:
	.section	.text.unlikely.nrf_drv_clock_hfclk_release,"ax",@progbits
.LCOLDB10:
	.section	.text.nrf_drv_clock_hfclk_release,"ax",@progbits
.LHOTB10:
	.globl	nrf_drv_clock_hfclk_release
	.type	nrf_drv_clock_hfclk_release, @function
nrf_drv_clock_hfclk_release:
.LFB193:
	.loc 1 4612 0
	.cfi_startproc
	pushl	%ebp
	.cfi_def_cfa_offset 8
	.cfi_offset 5, -8
	movl	%esp, %ebp
	.cfi_def_cfa_register 5
	subl	$20, %esp
	.loc 1 4615 0
	pushl	$0
	call	app_util_critical_region_enter
.LVL55:
	.loc 1 4618 0
	movl	m_clock_cb+4, %eax
	.loc 1 4619 0
	addl	$16, %esp
	.loc 1 4618 0
	decl	%eax
	movl	%eax, m_clock_cb+4
	.loc 1 4619 0
	movl	m_clock_cb+4, %eax
	testl	%eax, %eax
	jne	.L68
	.loc 1 4621 0
	call	hfclk_stop
.LVL56:
.L68:
	.loc 1 4623 0
	subl	$12, %esp
	pushl	$0
	call	app_util_critical_region_exit
.LVL57:
	.loc 1 4624 0
	addl	$16, %esp
	leave
	.cfi_restore 5
	.cfi_def_cfa 4, 4
	ret
	.cfi_endproc
.LFE193:
	.size	nrf_drv_clock_hfclk_release, .-nrf_drv_clock_hfclk_release
	.section	.text.unlikely.nrf_drv_clock_hfclk_release
.LCOLDE10:
	.section	.text.nrf_drv_clock_hfclk_release
.LHOTE10:
	.section	.text.unlikely.nrf_drv_clock_hfclk_is_running,"ax",@progbits
.LCOLDB11:
	.section	.text.nrf_drv_clock_hfclk_is_running,"ax",@progbits
.LHOTB11:
	.globl	nrf_drv_clock_hfclk_is_running
	.type	nrf_drv_clock_hfclk_is_running, @function
nrf_drv_clock_hfclk_is_running:
.LFB194:
	.loc 1 4627 0
	.cfi_startproc
.LVL58:
	pushl	%ebp
	.cfi_def_cfa_offset 8
	.cfi_offset 5, -8
.LBB108:
.LBB109:
	.loc 1 3479 0
	movl	1073742860, %eax
.LVL59:
.LBE109:
.LBE108:
	.loc 1 4627 0
	movl	%esp, %ebp
	.cfi_def_cfa_register 5
	.loc 1 4629 0
	andl	$65537, %eax
	cmpl	$65537, %eax
	sete	%al
	.loc 1 4630 0
	popl	%ebp
	.cfi_restore 5
	.cfi_def_cfa 4, 4
	ret
	.cfi_endproc
.LFE194:
	.size	nrf_drv_clock_hfclk_is_running, .-nrf_drv_clock_hfclk_is_running
	.section	.text.unlikely.nrf_drv_clock_hfclk_is_running
.LCOLDE11:
	.section	.text.nrf_drv_clock_hfclk_is_running
.LHOTE11:
	.section	.text.unlikely.nrf_drv_clock_calibration_start,"ax",@progbits
.LCOLDB12:
	.section	.text.nrf_drv_clock_calibration_start,"ax",@progbits
.LHOTB12:
	.globl	nrf_drv_clock_calibration_start
	.type	nrf_drv_clock_calibration_start, @function
nrf_drv_clock_calibration_start:
.LFB195:
	.loc 1 4632 0
	.cfi_startproc
.LVL60:
	pushl	%ebp
	.cfi_def_cfa_offset 8
	.cfi_offset 5, -8
	.loc 1 4637 0
	movl	$15, %eax
	.loc 1 4632 0
	movl	%esp, %ebp
	.cfi_def_cfa_register 5
	.loc 1 4637 0
	popl	%ebp
	.cfi_restore 5
	.cfi_def_cfa 4, 4
	ret
	.cfi_endproc
.LFE195:
	.size	nrf_drv_clock_calibration_start, .-nrf_drv_clock_calibration_start
	.section	.text.unlikely.nrf_drv_clock_calibration_start
.LCOLDE12:
	.section	.text.nrf_drv_clock_calibration_start
.LHOTE12:
	.section	.text.unlikely.nrf_drv_clock_calibration_abort,"ax",@progbits
.LCOLDB13:
	.section	.text.nrf_drv_clock_calibration_abort,"ax",@progbits
.LHOTB13:
	.globl	nrf_drv_clock_calibration_abort
	.type	nrf_drv_clock_calibration_abort, @function
nrf_drv_clock_calibration_abort:
.LFB196:
	.loc 1 4639 0
	.cfi_startproc
.LVL61:
	pushl	%ebp
	.cfi_def_cfa_offset 8
	.cfi_offset 5, -8
	.loc 1 4644 0
	movl	$15, %eax
	.loc 1 4639 0
	movl	%esp, %ebp
	.cfi_def_cfa_register 5
	.loc 1 4644 0
	popl	%ebp
	.cfi_restore 5
	.cfi_def_cfa 4, 4
	ret
	.cfi_endproc
.LFE196:
	.size	nrf_drv_clock_calibration_abort, .-nrf_drv_clock_calibration_abort
	.section	.text.unlikely.nrf_drv_clock_calibration_abort
.LCOLDE13:
	.section	.text.nrf_drv_clock_calibration_abort
.LHOTE13:
	.section	.text.unlikely.nrf_drv_clock_is_calibrating,"ax",@progbits
.LCOLDB14:
	.section	.text.nrf_drv_clock_is_calibrating,"ax",@progbits
.LHOTB14:
	.globl	nrf_drv_clock_is_calibrating
	.type	nrf_drv_clock_is_calibrating, @function
nrf_drv_clock_is_calibrating:
.LFB197:
	.loc 1 4648 0
	.cfi_startproc
.LVL62:
	pushl	%ebp
	.cfi_def_cfa_offset 8
	.cfi_offset 5, -8
	.loc 1 4653 0
	movl	$15, %eax
	.loc 1 4648 0
	movl	%esp, %ebp
	.cfi_def_cfa_register 5
	.loc 1 4653 0
	popl	%ebp
	.cfi_restore 5
	.cfi_def_cfa 4, 4
	ret
	.cfi_endproc
.LFE197:
	.size	nrf_drv_clock_is_calibrating, .-nrf_drv_clock_is_calibrating
	.section	.text.unlikely.nrf_drv_clock_is_calibrating
.LCOLDE14:
	.section	.text.nrf_drv_clock_is_calibrating
.LHOTE14:
	.section	.text.unlikely.POWER_CLOCK_IRQHandler,"ax",@progbits
.LCOLDB15:
	.section	.text.POWER_CLOCK_IRQHandler,"ax",@progbits
.LHOTB15:
	.globl	POWER_CLOCK_IRQHandler
	.type	POWER_CLOCK_IRQHandler, @function
POWER_CLOCK_IRQHandler:
.LFB199:
	.loc 1 4676 0
	.cfi_startproc
	pushl	%ebp
	.cfi_def_cfa_offset 8
	.cfi_offset 5, -8
	movl	%esp, %ebp
	.cfi_def_cfa_register 5
	subl	$24, %esp
	.loc 1 4677 0
	call	krhino_intrpt_enter
.LVL63:
.LBB122:
.LBB123:
	.loc 1 3435 0
	movl	1073742080, %eax
.LVL64:
.LBE123:
.LBE122:
	.loc 1 4678 0
	testl	%eax, %eax
	je	.L79
.LVL65:
.LBB124:
.LBB125:
	.loc 1 3425 0
	movl	$0, 1073742080
	.loc 1 3426 0
	movl	1073742080, %eax
	movl	%eax, -16(%ebp)
	.loc 1 3427 0
	movl	-16(%ebp), %eax
.LVL66:
.LBE125:
.LBE124:
	.loc 1 4686 0
	xorl	%eax, %eax
.LBB126:
.LBB127:
	.loc 1 3401 0
	movl	$1, 1073742600
.LVL67:
.LBE127:
.LBE126:
	.loc 1 4683 0
	movb	$1, m_clock_cb+1
	.loc 1 4686 0
	call	clock_clk_started_notify
.LVL68:
.L79:
.LBB128:
.LBB129:
	.loc 1 3435 0
	movl	1073742084, %eax
.LVL69:
.LBE129:
.LBE128:
	.loc 1 4688 0
	testl	%eax, %eax
	je	.L80
.LVL70:
.LBB130:
.LBB131:
	.loc 1 3425 0
	movl	$0, 1073742084
	.loc 1 3426 0
	movl	1073742084, %eax
	movl	%eax, -12(%ebp)
	.loc 1 3427 0
	movl	-12(%ebp), %eax
.LVL71:
.LBE131:
.LBE130:
	.loc 1 4696 0
	movl	$1, %eax
.LBB132:
.LBB133:
	.loc 1 3401 0
	movl	$2, 1073742600
.LVL72:
.LBE133:
.LBE132:
	.loc 1 4693 0
	movb	$1, m_clock_cb+2
	.loc 1 4696 0
	call	clock_clk_started_notify
.LVL73:
.L80:
	.loc 1 4698 0
	call	krhino_intrpt_exit
.LVL74:
	.loc 1 4699 0
	leave
	.cfi_restore 5
	.cfi_def_cfa 4, 4
	ret
	.cfi_endproc
.LFE199:
	.size	POWER_CLOCK_IRQHandler, .-POWER_CLOCK_IRQHandler
	.section	.text.unlikely.POWER_CLOCK_IRQHandler
.LCOLDE15:
	.section	.text.POWER_CLOCK_IRQHandler
.LHOTE15:
	.section	.bss.m_clock_cb,"aw",@nobits
	.align 4
	.type	m_clock_cb, @object
	.size	m_clock_cb, 20
m_clock_cb:
	.zero	20
	.text
.Letext0:
	.section	.text.unlikely.hfclk_stop
.Letext_cold0:
	.section	.note.GNU-stack,"",@progbits
