	.file	"nrf_fstorage_nvmc.c"
	.text
.Ltext0:
	.section	.text.unlikely.init,"ax",@progbits
.LCOLDB0:
	.section	.text.init,"ax",@progbits
.LHOTB0:
	.section	.text.unlikely.init
.Ltext_cold0:
	.section	.text.init
	.type	init, @function
init:
.LFB157:
	.file 1 "src/nrf_fstorage_nvmc.c"
	.loc 1 3138 0
	.cfi_startproc
.LVL0:
	pushl	%ebp
	.cfi_def_cfa_offset 8
	.cfi_offset 5, -8
	movl	%esp, %ebp
	.cfi_def_cfa_register 5
	.loc 1 3140 0
	movl	8(%ebp), %eax
	movl	$m_flash_info, 4(%eax)
	.loc 1 3142 0
	xorl	%eax, %eax
	popl	%ebp
	.cfi_restore 5
	.cfi_def_cfa 4, 4
	ret
	.cfi_endproc
.LFE157:
	.size	init, .-init
	.section	.text.unlikely.init
.LCOLDE0:
	.section	.text.init
.LHOTE0:
	.section	.text.unlikely.rmap,"ax",@progbits
.LCOLDB1:
	.section	.text.rmap,"ax",@progbits
.LHOTB1:
	.type	rmap, @function
rmap:
.LFB162:
	.loc 1 3191 0
	.cfi_startproc
.LVL1:
	pushl	%ebp
	.cfi_def_cfa_offset 8
	.cfi_offset 5, -8
	movl	%esp, %ebp
	.cfi_def_cfa_register 5
	.loc 1 3194 0
	movl	12(%ebp), %eax
	popl	%ebp
	.cfi_restore 5
	.cfi_def_cfa 4, 4
	ret
	.cfi_endproc
.LFE162:
	.size	rmap, .-rmap
	.section	.text.unlikely.rmap
.LCOLDE1:
	.section	.text.rmap
.LHOTE1:
	.section	.text.unlikely.wmap,"ax",@progbits
.LCOLDB2:
	.section	.text.wmap,"ax",@progbits
.LHOTB2:
	.type	wmap, @function
wmap:
.LFB163:
	.loc 1 3196 0
	.cfi_startproc
.LVL2:
	pushl	%ebp
	.cfi_def_cfa_offset 8
	.cfi_offset 5, -8
	.loc 1 3202 0
	xorl	%eax, %eax
	.loc 1 3196 0
	movl	%esp, %ebp
	.cfi_def_cfa_register 5
	.loc 1 3202 0
	popl	%ebp
	.cfi_restore 5
	.cfi_def_cfa 4, 4
	ret
	.cfi_endproc
.LFE163:
	.size	wmap, .-wmap
	.section	.text.unlikely.wmap
.LCOLDE2:
	.section	.text.wmap
.LHOTE2:
	.section	.text.unlikely.is_busy,"ax",@progbits
.LCOLDB3:
	.section	.text.is_busy,"ax",@progbits
.LHOTB3:
	.type	is_busy, @function
is_busy:
.LFB164:
	.loc 1 3206 0
	.cfi_startproc
.LVL3:
	.loc 1 3208 0
	movl	m_flash_operation_ongoing, %eax
	.loc 1 3206 0
	pushl	%ebp
	.cfi_def_cfa_offset 8
	.cfi_offset 5, -8
	movl	%esp, %ebp
	.cfi_def_cfa_register 5
	.loc 1 3208 0
	testl	%eax, %eax
	setne	%al
	.loc 1 3209 0
	popl	%ebp
	.cfi_restore 5
	.cfi_def_cfa 4, 4
	ret
	.cfi_endproc
.LFE164:
	.size	is_busy, .-is_busy
	.section	.text.unlikely.is_busy
.LCOLDE3:
	.section	.text.is_busy
.LHOTE3:
	.section	.text.unlikely.read,"ax",@progbits
.LCOLDB4:
	.section	.text.read,"ax",@progbits
.LHOTB4:
	.type	read, @function
read:
.LFB159:
	.loc 1 3151 0
	.cfi_startproc
.LVL4:
	pushl	%ebp
	.cfi_def_cfa_offset 8
	.cfi_offset 5, -8
	.loc 1 3155 0
	xorl	%eax, %eax
	.loc 1 3151 0
	movl	%esp, %ebp
	.cfi_def_cfa_register 5
	pushl	%edi
	pushl	%esi
	.cfi_offset 7, -12
	.cfi_offset 6, -16
	.loc 1 3151 0
	movl	20(%ebp), %ecx
	movl	12(%ebp), %esi
	.loc 1 3153 0
	movl	16(%ebp), %edi
	rep movsb
	.loc 1 3155 0
	popl	%esi
	.cfi_restore 6
	popl	%edi
	.cfi_restore 7
	popl	%ebp
	.cfi_restore 5
	.cfi_def_cfa 4, 4
	ret
	.cfi_endproc
.LFE159:
	.size	read, .-read
	.section	.text.unlikely.read
.LCOLDE4:
	.section	.text.read
.LHOTE4:
	.section	.text.unlikely.nrf_atomic_flag_clear.constprop.5,"ax",@progbits
.LCOLDB5:
	.section	.text.nrf_atomic_flag_clear.constprop.5,"ax",@progbits
.LHOTB5:
	.type	nrf_atomic_flag_clear.constprop.5, @function
nrf_atomic_flag_clear.constprop.5:
.LFB169:
	.loc 1 3099 0
	.cfi_startproc
.LVL5:
	pushl	%ebp
	.cfi_def_cfa_offset 8
	.cfi_offset 5, -8
.LBB7:
.LBB8:
.LBB9:
	.loc 1 3028 0
	xorl	%ecx, %ecx
	movl	$m_flash_operation_ongoing, %edx
.LBE9:
.LBE8:
.LBE7:
	.loc 1 3099 0
	movl	%esp, %ebp
	.cfi_def_cfa_register 5
	pushl	%esi
	pushl	%ebx
	.cfi_offset 6, -12
	.cfi_offset 3, -16
.LBB12:
.LBB11:
.LBB10:
	.loc 1 3028 0
#APP
# 3028 "src/nrf_fstorage_nvmc.c" 1
	1:     ldrex   %ebx, [%edx]
and %eax, %ebx, %ecx
       strex   %esi, %eax, [%edx]
       teq     %esi, #0
       bne.n     1b
# 0 "" 2
.LVL6:
#NO_APP
.LBE10:
.LBE11:
.LBE12:
	.loc 1 3102 0
	popl	%ebx
	.cfi_restore 3
	popl	%esi
	.cfi_restore 6
	popl	%ebp
	.cfi_restore 5
	.cfi_def_cfa 4, 4
	ret
	.cfi_endproc
.LFE169:
	.size	nrf_atomic_flag_clear.constprop.5, .-nrf_atomic_flag_clear.constprop.5
	.section	.text.unlikely.nrf_atomic_flag_clear.constprop.5
.LCOLDE5:
	.section	.text.nrf_atomic_flag_clear.constprop.5
.LHOTE5:
	.section	.text.unlikely.uninit,"ax",@progbits
.LCOLDB6:
	.section	.text.uninit,"ax",@progbits
.LHOTB6:
	.type	uninit, @function
uninit:
.LFB158:
	.loc 1 3144 0
	.cfi_startproc
.LVL7:
	pushl	%ebp
	.cfi_def_cfa_offset 8
	.cfi_offset 5, -8
	movl	%esp, %ebp
	.cfi_def_cfa_register 5
	.loc 1 3147 0
	call	nrf_atomic_flag_clear.constprop.5
.LVL8:
	.loc 1 3149 0
	xorl	%eax, %eax
	popl	%ebp
	.cfi_restore 5
	.cfi_def_cfa 4, 4
	ret
	.cfi_endproc
.LFE158:
	.size	uninit, .-uninit
	.section	.text.unlikely.uninit
.LCOLDE6:
	.section	.text.uninit
.LHOTE6:
	.section	.text.unlikely.erase,"ax",@progbits
.LCOLDB7:
	.section	.text.erase,"ax",@progbits
.LHOTB7:
	.type	erase, @function
erase:
.LFB161:
	.loc 1 3175 0
	.cfi_startproc
.LVL9:
	pushl	%ebp
	.cfi_def_cfa_offset 8
	.cfi_offset 5, -8
.LBB22:
.LBB23:
.LBB24:
.LBB25:
	.loc 1 3001 0
	movl	$1, %edx
.LBE25:
.LBE24:
.LBE23:
.LBE22:
	.loc 1 3175 0
	movl	%esp, %ebp
	.cfi_def_cfa_register 5
	pushl	%edi
	pushl	%esi
	pushl	%ebx
	subl	$60, %esp
	.cfi_offset 7, -12
	.cfi_offset 6, -16
	.cfi_offset 3, -20
	.loc 1 3175 0
	movl	20(%ebp), %eax
	movl	8(%ebp), %ebx
	movl	%eax, -60(%ebp)
	movl	%gs:20, %eax
	movl	%eax, -28(%ebp)
	xorl	%eax, %eax
.LVL10:
.LBB29:
.LBB28:
.LBB27:
.LBB26:
	.loc 1 3001 0
	movl	$m_flash_operation_ongoing, %eax
#APP
# 3001 "src/nrf_fstorage_nvmc.c" 1
	1:     ldrex   %ecx, [%eax]
orr %esi, %ecx, %edx
       strex   %edi, %esi, [%eax]
       teq     %edi, #0
       bne.n     1b
# 0 "" 2
.LVL11:
#NO_APP
.LBE26:
.LBE27:
.LBE28:
.LBE29:
	.loc 1 3177 0
	testl	%ecx, %ecx
	.loc 1 3179 0
	movl	$17, %esi
	.loc 1 3177 0
	jne	.L16
	movl	12(%ebp), %edi
	xorl	%esi, %esi
.L17:
.LVL12:
.LBB30:
.LBB31:
	.loc 1 3181 0
	cmpl	%esi, 16(%ebp)
	je	.L25
	.loc 1 3183 0
	subl	$12, %esp
	.loc 1 3184 0
	incl	%esi
.LVL13:
	.loc 1 3183 0
	pushl	%edi
	addl	$4096, %edi
	call	nrf_nvmc_page_erase
.LVL14:
	addl	$16, %esp
	jmp	.L17
.L25:
	.loc 1 3186 0
	call	nrf_atomic_flag_clear.constprop.5
.LVL15:
	movl	8(%ebx), %eax
.LVL16:
.LBB32:
.LBB33:
	.loc 1 3125 0
	xorl	%esi, %esi
.LVL17:
	.loc 1 3121 0
	testl	%eax, %eax
	je	.L16
	.loc 1 3127 0
	movl	-60(%ebp), %edx
	.loc 1 3135 0
	subl	$12, %esp
	.loc 1 3127 0
	movl	12(%ebp), %ecx
	movl	16(%ebp), %ebx
	movl	$2, -48(%ebp)
	movl	$0, -44(%ebp)
	movl	%edx, -32(%ebp)
	.loc 1 3135 0
	leal	-48(%ebp), %edx
	.loc 1 3127 0
	movl	%ecx, -40(%ebp)
	movl	%ebx, -36(%ebp)
	.loc 1 3135 0
	pushl	%edx
	call	*%eax
.LVL18:
	addl	$16, %esp
.LVL19:
.L16:
.LBE33:
.LBE32:
.LBE31:
.LBE30:
	.loc 1 3189 0
	movl	-28(%ebp), %ecx
	xorl	%gs:20, %ecx
	movl	%esi, %eax
	je	.L20
	call	__stack_chk_fail
.LVL20:
.L20:
	leal	-12(%ebp), %esp
	popl	%ebx
	.cfi_restore 3
	popl	%esi
	.cfi_restore 6
	popl	%edi
	.cfi_restore 7
	popl	%ebp
	.cfi_restore 5
	.cfi_def_cfa 4, 4
	ret
	.cfi_endproc
.LFE161:
	.size	erase, .-erase
	.section	.text.unlikely.erase
.LCOLDE7:
	.section	.text.erase
.LHOTE7:
	.section	.text.unlikely.write,"ax",@progbits
.LCOLDB8:
	.section	.text.write,"ax",@progbits
.LHOTB8:
	.type	write, @function
write:
.LFB160:
	.loc 1 3161 0
	.cfi_startproc
.LVL21:
	pushl	%ebp
	.cfi_def_cfa_offset 8
	.cfi_offset 5, -8
.LBB43:
.LBB44:
.LBB45:
.LBB46:
	.loc 1 3001 0
	movl	$1, %edx
.LBE46:
.LBE45:
.LBE44:
.LBE43:
	.loc 1 3161 0
	movl	%esp, %ebp
	.cfi_def_cfa_register 5
	pushl	%edi
	pushl	%esi
	pushl	%ebx
	subl	$60, %esp
	.cfi_offset 7, -12
	.cfi_offset 6, -16
	.cfi_offset 3, -20
	.loc 1 3161 0
	movl	8(%ebp), %eax
	movl	24(%ebp), %edi
	movl	%eax, -60(%ebp)
	movl	16(%ebp), %eax
	movl	%eax, -64(%ebp)
	movl	%gs:20, %eax
	movl	%eax, -28(%ebp)
	xorl	%eax, %eax
.LVL22:
.LBB50:
.LBB49:
.LBB48:
.LBB47:
	.loc 1 3001 0
	movl	$m_flash_operation_ongoing, %eax
#APP
# 3001 "src/nrf_fstorage_nvmc.c" 1
	1:     ldrex   %ebx, [%eax]
orr %esi, %ebx, %edx
       strex   %ecx, %esi, [%eax]
       teq     %ecx, #0
       bne.n     1b
# 0 "" 2
.LVL23:
#NO_APP
.LBE47:
.LBE48:
.LBE49:
.LBE50:
	.loc 1 3162 0
	testl	%ebx, %ebx
	.loc 1 3164 0
	movl	$17, %esi
	.loc 1 3162 0
	jne	.L27
.LVL24:
.LBB51:
.LBB52:
	.loc 1 3166 0
	pushl	%eax
	movl	20(%ebp), %eax
.LBB53:
.LBB54:
	.loc 1 3125 0
	xorl	%esi, %esi
.LBE54:
.LBE53:
	.loc 1 3166 0
	shrl	$2, %eax
	pushl	%eax
	pushl	-64(%ebp)
	pushl	12(%ebp)
	call	nrf_nvmc_write_words
.LVL25:
	.loc 1 3167 0
	call	nrf_atomic_flag_clear.constprop.5
.LVL26:
	movl	-60(%ebp), %eax
.LBB56:
.LBB55:
	.loc 1 3121 0
	addl	$16, %esp
	movl	8(%eax), %eax
.LVL27:
	testl	%eax, %eax
	je	.L27
	.loc 1 3135 0
	leal	-48(%ebp), %edx
	subl	$12, %esp
	.loc 1 3127 0
	movl	12(%ebp), %ecx
	movl	20(%ebp), %ebx
	movl	$1, -48(%ebp)
	.loc 1 3135 0
	pushl	%edx
	.loc 1 3127 0
	movl	$0, -44(%ebp)
	movl	%ecx, -40(%ebp)
	movl	%edi, -32(%ebp)
	movl	%ebx, -36(%ebp)
	.loc 1 3135 0
	call	*%eax
.LVL28:
	addl	$16, %esp
.LVL29:
.L27:
.LBE55:
.LBE56:
.LBE52:
.LBE51:
	.loc 1 3170 0
	movl	-28(%ebp), %edi
	xorl	%gs:20, %edi
	movl	%esi, %eax
	je	.L29
	call	__stack_chk_fail
.LVL30:
.L29:
	leal	-12(%ebp), %esp
	popl	%ebx
	.cfi_restore 3
	popl	%esi
	.cfi_restore 6
	popl	%edi
	.cfi_restore 7
	popl	%ebp
	.cfi_restore 5
	.cfi_def_cfa 4, 4
	ret
	.cfi_endproc
.LFE160:
	.size	write, .-write
	.section	.text.unlikely.write
.LCOLDE8:
	.section	.text.write
.LHOTE8:
	.globl	nrf_fstorage_nvmc
	.section	.rodata.nrf_fstorage_nvmc,"a",@progbits
	.align 32
	.type	nrf_fstorage_nvmc, @object
	.size	nrf_fstorage_nvmc, 32
nrf_fstorage_nvmc:
	.long	init
	.long	uninit
	.long	read
	.long	write
	.long	erase
	.long	rmap
	.long	wmap
	.long	is_busy
	.section	.bss.m_flash_operation_ongoing,"aw",@nobits
	.align 4
	.type	m_flash_operation_ongoing, @object
	.size	m_flash_operation_ongoing, 4
m_flash_operation_ongoing:
	.zero	4
	.section	.rodata.m_flash_info,"a",@progbits
	.align 4
	.type	m_flash_info, @object
	.size	m_flash_info, 12
m_flash_info:
	.long	4096
	.long	4
	.byte	1
	.byte	0
	.zero	2
	.text
.Letext0:
	.section	.text.unlikely.init
.Letext_cold0:
	.section	.note.GNU-stack,"",@progbits
