	.file	"nrf_drv_uart.c"
	.text
.Ltext0:
	.section	.text.unlikely.nrf_uart_event_clear,"ax",@progbits
.LCOLDB0:
	.section	.text.nrf_uart_event_clear,"ax",@progbits
.LHOTB0:
	.section	.text.unlikely.nrf_uart_event_clear
.Ltext_cold0:
	.section	.text.nrf_uart_event_clear
	.type	nrf_uart_event_clear, @function
nrf_uart_event_clear:
.LFB140:
	.file 1 "src/nrf_drv_uart.c"
	.loc 1 3065 0
	.cfi_startproc
.LVL0:
	pushl	%ebp
	.cfi_def_cfa_offset 8
	.cfi_offset 5, -8
	.loc 1 3066 0
	addl	%edx, %eax
.LVL1:
	.loc 1 3065 0
	movl	%esp, %ebp
	.cfi_def_cfa_register 5
	subl	$16, %esp
	.loc 1 3066 0
	movl	$0, (%eax)
	.loc 1 3067 0
	movl	(%eax), %eax
	movl	%eax, -4(%ebp)
	.loc 1 3068 0
	movl	-4(%ebp), %eax
	.loc 1 3069 0
	leave
	.cfi_restore 5
	.cfi_def_cfa 4, 4
	ret
	.cfi_endproc
.LFE140:
	.size	nrf_uart_event_clear, .-nrf_uart_event_clear
	.section	.text.unlikely.nrf_uart_event_clear
.LCOLDE0:
	.section	.text.nrf_uart_event_clear
.LHOTE0:
	.section	.text.unlikely.nrf_uarte_event_clear,"ax",@progbits
.LCOLDB1:
	.section	.text.nrf_uarte_event_clear,"ax",@progbits
.LHOTB1:
	.type	nrf_uarte_event_clear, @function
nrf_uarte_event_clear:
.LFB163:
	.loc 1 3369 0
	.cfi_startproc
.LVL2:
	pushl	%ebp
	.cfi_def_cfa_offset 8
	.cfi_offset 5, -8
	.loc 1 3370 0
	addl	%edx, %eax
.LVL3:
	.loc 1 3369 0
	movl	%esp, %ebp
	.cfi_def_cfa_register 5
	subl	$16, %esp
	.loc 1 3370 0
	movl	$0, (%eax)
	.loc 1 3371 0
	movl	(%eax), %eax
	movl	%eax, -4(%ebp)
	.loc 1 3372 0
	movl	-4(%ebp), %eax
	.loc 1 3373 0
	leave
	.cfi_restore 5
	.cfi_def_cfa 4, 4
	ret
	.cfi_endproc
.LFE163:
	.size	nrf_uarte_event_clear, .-nrf_uarte_event_clear
	.section	.text.unlikely.nrf_uarte_event_clear
.LCOLDE1:
	.section	.text.nrf_uarte_event_clear
.LHOTE1:
	.section	.text.unlikely.tx_byte,"ax",@progbits
.LCOLDB2:
	.section	.text.tx_byte,"ax",@progbits
.LHOTB2:
	.type	tx_byte, @function
tx_byte:
.LFB240:
	.loc 1 4701 0
	.cfi_startproc
.LVL4:
	pushl	%ebp
	.cfi_def_cfa_offset 8
	.cfi_offset 5, -8
	movl	%edx, %ecx
	.loc 1 4702 0
	movl	$284, %edx
.LVL5:
	.loc 1 4701 0
	movl	%esp, %ebp
	.cfi_def_cfa_register 5
	pushl	%ebx
	.cfi_offset 3, -12
	.loc 1 4701 0
	movl	%eax, %ebx
	.loc 1 4702 0
	call	nrf_uart_event_clear
.LVL6:
	.loc 1 4703 0
	movzwl	20(%ecx), %eax
	movl	8(%ecx), %edx
	movzbl	(%edx,%eax), %eax
.LVL7:
	.loc 1 4704 0
	movw	20(%ecx), %dx
	incl	%edx
	movw	%dx, 20(%ecx)
.LVL8:
.LBB285:
.LBB286:
	.loc 1 3153 0
	movl	%eax, 1308(%ebx)
.LVL9:
.LBE286:
.LBE285:
	.loc 1 4706 0
	popl	%ebx
	.cfi_restore 3
.LVL10:
	popl	%ebp
	.cfi_restore 5
	.cfi_def_cfa 4, 4
	ret
	.cfi_endproc
.LFE240:
	.size	tx_byte, .-tx_byte
	.section	.text.unlikely.tx_byte
.LCOLDE2:
	.section	.text.tx_byte
.LHOTE2:
	.section	.text.unlikely.tx_done_event,"ax",@progbits
.LCOLDB3:
	.section	.text.tx_done_event,"ax",@progbits
.LHOTB3:
	.type	tx_done_event, @function
tx_done_event:
.LFB255:
	.loc 1 5022 0
	.cfi_startproc
.LVL11:
	pushl	%ebp
	.cfi_def_cfa_offset 8
	.cfi_offset 5, -8
	movl	%esp, %ebp
	.cfi_def_cfa_register 5
	subl	$48, %esp
	.loc 1 5027 0
	movb	$0, 22(%eax)
	.loc 1 5025 0
	movb	%dl, -20(%ebp)
	.loc 1 5026 0
	movl	8(%eax), %edx
.LVL12:
	.loc 1 5029 0
	pushl	(%eax)
	.loc 1 5024 0
	movl	$0, -28(%ebp)
	.loc 1 5022 0
	movl	%gs:20, %ecx
	movl	%ecx, -12(%ebp)
	xorl	%ecx, %ecx
	.loc 1 5026 0
	movl	%edx, -24(%ebp)
	.loc 1 5029 0
	leal	-28(%ebp), %edx
	pushl	%edx
	call	*4(%eax)
.LVL13:
	.loc 1 5030 0
	addl	$16, %esp
	movl	-12(%ebp), %eax
	xorl	%gs:20, %eax
	je	.L8
	call	__stack_chk_fail
.LVL14:
.L8:
	leave
	.cfi_restore 5
	.cfi_def_cfa 4, 4
	ret
	.cfi_endproc
.LFE255:
	.size	tx_done_event, .-tx_done_event
	.section	.text.unlikely.tx_done_event
.LCOLDE3:
	.section	.text.tx_done_event
.LHOTE3:
	.section	.text.unlikely.rx_enable.isra.0,"ax",@progbits
.LCOLDB4:
	.section	.text.rx_enable.isra.0,"ax",@progbits
.LHOTB4:
	.type	rx_enable.isra.0, @function
rx_enable.isra.0:
.LFB261:
	.loc 1 4804 0
	.cfi_startproc
.LVL15:
	pushl	%ebp
	.cfi_def_cfa_offset 8
	.cfi_offset 5, -8
	movl	%eax, %ecx
	.loc 1 4806 0
	movl	(%eax), %eax
	movl	$292, %edx
	.loc 1 4804 0
	movl	%esp, %ebp
	.cfi_def_cfa_register 5
	.loc 1 4806 0
	call	nrf_uart_event_clear
.LVL16:
	.loc 1 4807 0
	movl	(%ecx), %eax
	movl	$264, %edx
	call	nrf_uart_event_clear
.LVL17:
	.loc 1 4808 0
	movl	(%ecx), %eax
.LVL18:
.LBB287:
.LBB288:
	.loc 1 3157 0
	movl	$1, (%eax)
.LVL19:
.LBE288:
.LBE287:
	.loc 1 4809 0
	popl	%ebp
	.cfi_restore 5
	.cfi_def_cfa 4, 4
	ret
	.cfi_endproc
.LFE261:
	.size	rx_enable.isra.0, .-rx_enable.isra.0
	.section	.text.unlikely.rx_enable.isra.0
.LCOLDE4:
	.section	.text.rx_enable.isra.0
.LHOTE4:
	.section	.text.unlikely.rx_byte,"ax",@progbits
.LCOLDB5:
	.section	.text.rx_byte,"ax",@progbits
.LHOTB5:
	.type	rx_byte, @function
rx_byte:
.LFB246:
	.loc 1 4811 0
	.cfi_startproc
.LVL20:
	pushl	%ebp
	.cfi_def_cfa_offset 8
	.cfi_offset 5, -8
	movl	%esp, %ebp
	.cfi_def_cfa_register 5
	pushl	%ebx
	.cfi_offset 3, -12
	.loc 1 4812 0
	cmpb	$0, 23(%edx)
	.loc 1 4811 0
	movl	%eax, %ebx
	.loc 1 4812 0
	jne	.L14
.LVL21:
.LBB297:
.LBB298:
	.loc 1 4814 0
	movl	$264, %edx
.LVL22:
	call	nrf_uart_event_clear
.LVL23:
.LBB299:
.LBB300:
	.loc 1 3149 0
	movl	1304(%ebx), %eax
	jmp	.L13
.LVL24:
.L14:
	movl	%edx, %ecx
.LBE300:
.LBE299:
.LBE298:
.LBE297:
	.loc 1 4818 0
	movl	$264, %edx
.LVL25:
	call	nrf_uart_event_clear
.LVL26:
	.loc 1 4819 0
	movzbl	25(%ecx), %eax
.LVL27:
	movl	12(%ecx), %edx
.LBB301:
.LBB302:
	.loc 1 3149 0
	movl	1304(%ebx), %ebx
.LVL28:
.LBE302:
.LBE301:
	.loc 1 4819 0
	movb	%bl, (%edx,%eax)
	.loc 1 4820 0
	movb	25(%ecx), %al
	incl	%eax
	movb	%al, 25(%ecx)
.L13:
	.loc 1 4821 0
	popl	%ebx
	.cfi_restore 3
	popl	%ebp
	.cfi_restore 5
	.cfi_def_cfa 4, 4
	ret
	.cfi_endproc
.LFE246:
	.size	rx_byte, .-rx_byte
	.section	.text.unlikely.rx_byte
.LCOLDE5:
	.section	.text.rx_byte
.LHOTE5:
	.section	.text.unlikely.rx_done_event.constprop.4,"ax",@progbits
.LCOLDB6:
	.section	.text.rx_done_event.constprop.4,"ax",@progbits
.LHOTB6:
	.type	rx_done_event.constprop.4, @function
rx_done_event.constprop.4:
.LFB265:
	.loc 1 5013 0
	.cfi_startproc
.LVL29:
	pushl	%ebp
	.cfi_def_cfa_offset 8
	.cfi_offset 5, -8
	movl	%esp, %ebp
	.cfi_def_cfa_register 5
	subl	$48, %esp
	.loc 1 5019 0
	pushl	m_cb
	.loc 1 5017 0
	movb	%al, -20(%ebp)
	.loc 1 5019 0
	leal	-28(%ebp), %eax
.LVL30:
	.loc 1 5016 0
	movl	$1, -28(%ebp)
	.loc 1 5013 0
	movl	%gs:20, %ecx
	movl	%ecx, -12(%ebp)
	xorl	%ecx, %ecx
.LVL31:
	.loc 1 5019 0
	pushl	%eax
	.loc 1 5018 0
	movl	%edx, -24(%ebp)
	.loc 1 5019 0
	call	*m_cb+4
.LVL32:
	addl	$16, %esp
	.loc 1 5020 0
	movl	-12(%ebp), %eax
	xorl	%gs:20, %eax
	je	.L18
	call	__stack_chk_fail
.LVL33:
.L18:
	leave
	.cfi_restore 5
	.cfi_def_cfa 4, 4
	ret
	.cfi_endproc
.LFE265:
	.size	rx_done_event.constprop.4, .-rx_done_event.constprop.4
	.section	.text.unlikely.rx_done_event.constprop.4
.LCOLDE6:
	.section	.text.rx_done_event.constprop.4
.LHOTE6:
	.section	.text.unlikely.nrf_gpio_cfg_output,"ax",@progbits
.LCOLDB7:
	.section	.text.nrf_gpio_cfg_output,"ax",@progbits
.LHOTB7:
	.type	nrf_gpio_cfg_output, @function
nrf_gpio_cfg_output:
.LFB204:
	.loc 1 4272 0
	.cfi_startproc
.LVL34:
	pushl	%ebp
	.cfi_def_cfa_offset 8
	.cfi_offset 5, -8
.LBB307:
.LBB308:
.LBB309:
.LBB310:
	.loc 1 4230 0
	cmpl	$31, %eax
	movl	$1342177280, %edx
.LBE310:
.LBE309:
.LBE308:
.LBE307:
	.loc 1 4272 0
	movl	%esp, %ebp
	.cfi_def_cfa_register 5
.LBB314:
.LBB313:
.LBB312:
.LBB311:
	.loc 1 4230 0
	jbe	.L21
	.loc 1 4236 0
	andl	$31, %eax
.LVL35:
	.loc 1 4237 0
	movl	$1342178048, %edx
.L21:
.LVL36:
.LBE311:
.LBE312:
	.loc 1 4265 0
	addl	$448, %eax
.LVL37:
	movl	$3, (%edx,%eax,4)
.LVL38:
.LBE313:
.LBE314:
	.loc 1 4280 0
	popl	%ebp
	.cfi_restore 5
	.cfi_def_cfa 4, 4
	ret
	.cfi_endproc
.LFE204:
	.size	nrf_gpio_cfg_output, .-nrf_gpio_cfg_output
	.section	.text.unlikely.nrf_gpio_cfg_output
.LCOLDE7:
	.section	.text.nrf_gpio_cfg_output
.LHOTE7:
	.section	.text.unlikely.nrf_gpio_cfg_default,"ax",@progbits
.LCOLDB8:
	.section	.text.nrf_gpio_cfg_default,"ax",@progbits
.LHOTB8:
	.type	nrf_gpio_cfg_default, @function
nrf_gpio_cfg_default:
.LFB206:
	.loc 1 4292 0
	.cfi_startproc
.LVL39:
	pushl	%ebp
	.cfi_def_cfa_offset 8
	.cfi_offset 5, -8
.LBB319:
.LBB320:
.LBB321:
.LBB322:
	.loc 1 4230 0
	cmpl	$31, %eax
	movl	$1342177280, %edx
.LBE322:
.LBE321:
.LBE320:
.LBE319:
	.loc 1 4292 0
	movl	%esp, %ebp
	.cfi_def_cfa_register 5
.LBB326:
.LBB325:
.LBB324:
.LBB323:
	.loc 1 4230 0
	jbe	.L26
	.loc 1 4236 0
	andl	$31, %eax
.LVL40:
	.loc 1 4237 0
	movl	$1342178048, %edx
.L26:
.LVL41:
.LBE323:
.LBE324:
	.loc 1 4265 0
	addl	$448, %eax
.LVL42:
	movl	$2, (%edx,%eax,4)
.LVL43:
.LBE325:
.LBE326:
	.loc 1 4300 0
	popl	%ebp
	.cfi_restore 5
	.cfi_def_cfa 4, 4
	ret
	.cfi_endproc
.LFE206:
	.size	nrf_gpio_cfg_default, .-nrf_gpio_cfg_default
	.section	.text.unlikely.nrf_gpio_cfg_default
.LCOLDE8:
	.section	.text.nrf_gpio_cfg_default
.LHOTE8:
	.section	.text.unlikely.nrf_gpio_pin_set,"ax",@progbits
.LCOLDB9:
	.section	.text.nrf_gpio_pin_set,"ax",@progbits
.LHOTB9:
	.type	nrf_gpio_pin_set, @function
nrf_gpio_pin_set:
.LFB212:
	.loc 1 4350 0
	.cfi_startproc
.LVL44:
	pushl	%ebp
	.cfi_def_cfa_offset 8
	.cfi_offset 5, -8
.LBB331:
.LBB332:
	.loc 1 4230 0
	cmpl	$31, %eax
.LBE332:
.LBE331:
	.loc 1 4350 0
	movl	%esp, %ebp
	.cfi_def_cfa_register 5
	pushl	%ebx
	.cfi_offset 3, -12
	movl	$1342177280, %ebx
.LBB334:
.LBB333:
	.loc 1 4230 0
	jbe	.L31
	.loc 1 4236 0
	andl	$31, %eax
.LVL45:
	.loc 1 4237 0
	movl	$1342178048, %ebx
.L31:
.LVL46:
.LBE333:
.LBE334:
	.loc 1 4352 0
	movl	$1, %edx
	movb	%al, %cl
	sall	%cl, %edx
.LVL47:
.LBB335:
.LBB336:
	.loc 1 4423 0
	movl	%edx, 1288(%ebx)
.LVL48:
.LBE336:
.LBE335:
	.loc 1 4353 0
	popl	%ebx
	.cfi_restore 3
	popl	%ebp
	.cfi_restore 5
	.cfi_def_cfa 4, 4
	ret
	.cfi_endproc
.LFE212:
	.size	nrf_gpio_pin_set, .-nrf_gpio_pin_set
	.section	.text.unlikely.nrf_gpio_pin_set
.LCOLDE9:
	.section	.text.nrf_gpio_pin_set
.LHOTE9:
	.section	.rodata.str1.1,"aMS",@progbits,1
.LC10:
	.string	"11"
	.section	.text.unlikely.nrf_drv_uart_init,"ax",@progbits
.LCOLDB11:
	.section	.text.nrf_drv_uart_init,"ax",@progbits
.LHOTB11:
	.globl	nrf_drv_uart_init
	.type	nrf_drv_uart_init, @function
nrf_drv_uart_init:
.LFB238:
	.loc 1 4657 0
	.cfi_startproc
.LVL49:
	pushl	%ebp
	.cfi_def_cfa_offset 8
	.cfi_offset 5, -8
	movl	%esp, %ebp
	.cfi_def_cfa_register 5
	pushl	%edi
	pushl	%esi
	pushl	%ebx
	subl	$28, %esp
	.cfi_offset 7, -12
	.cfi_offset 6, -16
	.cfi_offset 3, -20
	.loc 1 4657 0
	movl	8(%ebp), %esi
	movl	12(%ebp), %ebx
	.loc 1 4659 0
	movzbl	4(%esi), %eax
	.loc 1 4661 0
	imull	$36, %eax, %edx
	.loc 1 4659 0
	movl	%eax, -28(%ebp)
.LVL50:
	movl	$8, %eax
.LVL51:
	.loc 1 4661 0
	addl	$m_cb, %edx
.LVL52:
	cmpl	$0, 28(%edx)
	jne	.L36
	.loc 1 4667 0
	movb	33(%ebx), %al
	movb	%al, 32(%edx)
.LVL53:
.LBB389:
.LBB390:
	.loc 1 4598 0
	movl	(%ebx), %eax
	cmpl	$-1, %eax
	je	.L37
	.loc 1 4600 0
	call	nrf_gpio_pin_set
.LVL54:
	.loc 1 4601 0
	movl	(%ebx), %eax
	call	nrf_gpio_cfg_output
.LVL55:
.L37:
	.loc 1 4603 0
	movl	4(%ebx), %eax
	cmpl	$-1, %eax
	je	.L38
.LVL56:
.LBB391:
.LBB392:
.LBB393:
.LBB394:
.LBB395:
	.loc 1 4230 0
	cmpl	$31, %eax
	movl	%eax, %edx
	.loc 1 4232 0
	movl	$1342177280, %ecx
	.loc 1 4230 0
	jbe	.L39
	.loc 1 4236 0
	andl	$31, %edx
.LVL57:
	.loc 1 4237 0
	movl	$1342178048, %ecx
.L39:
.LVL58:
.LBE395:
.LBE394:
	.loc 1 4265 0
	addl	$448, %edx
.LVL59:
	movl	$0, (%ecx,%edx,4)
.LVL60:
.L38:
.LBE393:
.LBE392:
.LBE391:
	.loc 1 4607 0
	movzbl	4(%esi), %edx
	imull	$36, %edx, %edx
	cmpb	$0, m_cb+32(%edx)
	je	.L40
	movl	28(%ebx), %ecx
	movl	(%esi), %edx
.LVL61:
.LBB396:
.LBB397:
	.loc 1 3475 0
	movl	%ecx, 1316(%edx)
.LVL62:
.LBE397:
.LBE396:
	.loc 1 4607 0
	movl	20(%ebx), %edx
.LVL63:
.LBB398:
.LBB399:
	.loc 1 3471 0
	movl	24(%ebx), %ecx
	movl	(%esi), %edi
	orl	%edx, %ecx
.LBE399:
.LBE398:
	.loc 1 4607 0
	decl	%edx
.LVL64:
.LBB401:
.LBB400:
	.loc 1 3471 0
	movl	%ecx, 1388(%edi)
.LVL65:
.LBE400:
.LBE401:
.LBB402:
.LBB403:
	.loc 1 3427 0
	movl	(%ebx), %edi
.LBE403:
.LBE402:
	.loc 1 4607 0
	movl	(%esi), %ecx
.LVL66:
.LBB405:
.LBB404:
	.loc 1 3427 0
	movl	%edi, 1292(%ecx)
	.loc 1 3428 0
	movl	%eax, 1300(%ecx)
.LVL67:
	jmp	.L89
.L40:
.LBE404:
.LBE405:
	.loc 1 4608 0
	subl	$12, %esp
	pushl	$.LC10
	call	printf
.LVL68:
	movl	28(%ebx), %edx
	movl	(%esi), %eax
.LVL69:
	addl	$16, %esp
.LBB406:
.LBB407:
	.loc 1 3167 0
	movl	24(%ebx), %ecx
.LBE407:
.LBE406:
.LBB410:
.LBB411:
	.loc 1 3115 0
	movl	4(%ebx), %edi
.LBE411:
.LBE410:
.LBB413:
.LBB414:
	.loc 1 3171 0
	movl	%edx, 1316(%eax)
.LVL70:
.LBE414:
.LBE413:
	.loc 1 4608 0
	movl	20(%ebx), %eax
	movl	(%esi), %edx
.LVL71:
.LBB415:
.LBB408:
	.loc 1 3167 0
	orl	%eax, %ecx
.LBE408:
.LBE415:
	.loc 1 4608 0
	decl	%eax
.LVL72:
.LBB416:
.LBB409:
	.loc 1 3167 0
	movl	%ecx, 1388(%edx)
.LVL73:
.LBE409:
.LBE416:
	.loc 1 4608 0
	movl	(%ebx), %ecx
	movl	(%esi), %edx
.LVL74:
.LBB417:
.LBB412:
	.loc 1 3115 0
	movl	%edi, 1300(%edx)
	.loc 1 3116 0
	movl	%ecx, 1292(%edx)
.LVL75:
.L89:
.LBE412:
.LBE417:
	.loc 1 4608 0
	jne	.L42
	movl	8(%ebx), %eax
	cmpl	$-1, %eax
	je	.L47
.LVL76:
.LBB418:
.LBB419:
.LBB420:
.LBB421:
.LBB422:
	.loc 1 4230 0
	cmpl	$31, %eax
	.loc 1 4232 0
	movl	$1342177280, %edx
	.loc 1 4230 0
	jbe	.L48
	.loc 1 4236 0
	andl	$31, %eax
.LVL77:
	.loc 1 4237 0
	movl	$1342178048, %edx
.L48:
.LVL78:
.LBE422:
.LBE421:
	.loc 1 4265 0
	addl	$448, %eax
.LVL79:
	movl	$0, (%edx,%eax,4)
.LVL80:
.L47:
.LBE420:
.LBE419:
.LBE418:
	.loc 1 4608 0
	movl	12(%ebx), %eax
	cmpl	$-1, %eax
	je	.L49
	call	nrf_gpio_pin_set
.LVL81:
	movl	12(%ebx), %eax
	call	nrf_gpio_cfg_output
.LVL82:
.L49:
	movl	8(%ebx), %edx
	movl	12(%ebx), %ecx
	movl	(%esi), %eax
.LVL83:
.LBB423:
.LBB424:
	.loc 1 3140 0
	movl	%ecx, 1288(%eax)
	.loc 1 3141 0
	movl	%edx, 1296(%eax)
.LVL84:
.L42:
.LBE424:
.LBE423:
.LBE390:
.LBE389:
	.loc 1 4669 0
	imull	$36, -28(%ebp), %eax
	movl	16(%ebp), %edi
	.loc 1 4671 0
	testl	%edi, %edi
	.loc 1 4669 0
	movl	%edi, m_cb+4(%eax)
	.loc 1 4670 0
	movl	16(%ebx), %edx
	movl	%edx, m_cb(%eax)
	.loc 1 4671 0
	je	.L50
.LVL85:
.LBB425:
.LBB426:
	.loc 1 4612 0
	movzbl	4(%esi), %eax
	movzbl	32(%ebx), %edi
	imull	$36, %eax, %eax
	cmpb	$0, m_cb+32(%eax)
	je	.L51
	movl	(%esi), %eax
	movl	$272, %edx
	call	nrf_uarte_event_clear
.LVL86:
	movl	(%esi), %eax
	movl	$288, %edx
	call	nrf_uarte_event_clear
.LVL87:
	movl	(%esi), %eax
	movl	$292, %edx
	call	nrf_uarte_event_clear
.LVL88:
	movl	(%esi), %eax
	movl	$324, %edx
	call	nrf_uarte_event_clear
.LVL89:
	movl	(%esi), %eax
.LVL90:
.LBB427:
.LBB428:
	.loc 1 3397 0
	movl	$131856, 772(%eax)
.LVL91:
	jmp	.L81
.LVL92:
.L51:
.LBE428:
.LBE427:
	.loc 1 4613 0
	movl	(%esi), %eax
	movl	$284, %edx
	call	nrf_uart_event_clear
.LVL93:
	movl	(%esi), %eax
	movl	$324, %edx
	call	nrf_uart_event_clear
.LVL94:
	movl	(%esi), %eax
.LVL95:
.LBB429:
.LBB430:
	.loc 1 3085 0
	movl	$131200, 772(%eax)
.LVL96:
.L81:
.LBE430:
.LBE429:
	.loc 1 4613 0
	pushl	%eax
.LVL97:
	pushl	%eax
	pushl	%edi
	movl	(%esi), %eax
	shrl	$12, %eax
	movzbl	%al, %eax
	pushl	%eax
	call	nrf_drv_common_irq_enable
.LVL98:
	addl	$16, %esp
.LVL99:
.L50:
.LBE426:
.LBE425:
.LBB431:
.LBB432:
	.loc 1 4647 0
	movzbl	4(%esi), %eax
	imull	$36, %eax, %eax
	cmpb	$0, m_cb+32(%eax)
	movl	(%esi), %eax
	je	.L52
.LVL100:
.LBB433:
.LBB434:
	.loc 1 3419 0
	movl	$8, 1280(%eax)
	jmp	.L53
.LVL101:
.L52:
.LBE434:
.LBE433:
.LBB435:
.LBB436:
	.loc 1 3107 0
	movl	$4, 1280(%eax)
.LVL102:
.L53:
.LBE436:
.LBE435:
.LBE432:
.LBE431:
	.loc 1 4676 0
	imull	$36, -28(%ebp), %eax
	movb	$0, m_cb+23(%eax)
	.loc 1 4677 0
	movb	$0, m_cb+24(%eax)
	.loc 1 4678 0
	movb	$0, m_cb+22(%eax)
	.loc 1 4679 0
	movl	$1, m_cb+28(%eax)
	.loc 1 4680 0
	movb	$0, m_cb+26(%eax)
	.loc 1 4683 0
	xorl	%eax, %eax
.L36:
	.loc 1 4684 0
	leal	-12(%ebp), %esp
	popl	%ebx
	.cfi_restore 3
	popl	%esi
	.cfi_restore 6
	popl	%edi
	.cfi_restore 7
	popl	%ebp
	.cfi_restore 5
	.cfi_def_cfa 4, 4
	ret
	.cfi_endproc
.LFE238:
	.size	nrf_drv_uart_init, .-nrf_drv_uart_init
	.section	.text.unlikely.nrf_drv_uart_init
.LCOLDE11:
	.section	.text.nrf_drv_uart_init
.LHOTE11:
	.section	.text.unlikely.nrf_drv_uart_uninit,"ax",@progbits
.LCOLDB12:
	.section	.text.nrf_drv_uart_uninit,"ax",@progbits
.LHOTB12:
	.globl	nrf_drv_uart_uninit
	.type	nrf_drv_uart_uninit, @function
nrf_drv_uart_uninit:
.LFB239:
	.loc 1 4686 0
	.cfi_startproc
.LVL103:
	pushl	%ebp
	.cfi_def_cfa_offset 8
	.cfi_offset 5, -8
	movl	%esp, %ebp
	.cfi_def_cfa_register 5
	pushl	%edi
	pushl	%esi
	pushl	%ebx
	pushl	%edx
	.cfi_offset 7, -12
	.cfi_offset 6, -16
	.cfi_offset 3, -20
	.loc 1 4686 0
	movl	8(%ebp), %edx
	.loc 1 4687 0
	movzbl	4(%edx), %eax
	movl	%eax, -16(%ebp)
.LVL104:
.LBB491:
.LBB492:
	.loc 1 4652 0
	movl	(%edx), %eax
.LVL105:
.LBB493:
.LBB494:
	.loc 1 3423 0
	movl	$0, 1280(%eax)
.LVL106:
.LBE494:
.LBE493:
.LBE492:
.LBE491:
	.loc 1 4689 0
	imull	$36, -16(%ebp), %eax
.LVL107:
	cmpl	$0, m_cb+4(%eax)
	je	.L93
.LVL108:
.LBB495:
.LBB496:
	.loc 1 4617 0
	movzbl	4(%edx), %eax
	imull	$36, %eax, %eax
	cmpb	$0, m_cb+32(%eax)
	movl	(%edx), %eax
	je	.L94
.LVL109:
.LBB497:
.LBB498:
	.loc 1 3409 0
	movl	$131856, 776(%eax)
.LVL110:
	jmp	.L114
.LVL111:
.L94:
.LBE498:
.LBE497:
.LBB499:
.LBB500:
	.loc 1 3097 0
	movl	$131716, 776(%eax)
.LVL112:
.L114:
.LBE500:
.LBE499:
.LBB501:
.LBB502:
	.loc 1 3986 0
	movl	(%edx), %ecx
.LBE502:
.LBE501:
.LBB504:
.LBB505:
.LBB506:
	.loc 1 1190 0
	movl	$1, %ebx
.LBE506:
.LBE505:
.LBE504:
.LBB509:
.LBB503:
	.loc 1 3986 0
	shrl	$12, %ecx
.LVL113:
.LBE503:
.LBE509:
.LBB510:
.LBB508:
.LBB507:
	.loc 1 1190 0
	movzbl	%cl, %eax
	sall	%cl, %ebx
	shrl	$5, %eax
	addl	$32, %eax
	movl	%ebx, -536813312(,%eax,4)
.LVL114:
.L93:
.LBE507:
.LBE508:
.LBE510:
.LBE496:
.LBE495:
.LBB511:
.LBB512:
	.loc 1 4626 0
	movzbl	4(%edx), %eax
	movl	(%edx), %ecx
.LVL115:
	imull	$36, %eax, %eax
	cmpb	$0, m_cb+32(%eax)
.LBB513:
.LBB514:
	.loc 1 3436 0
	movl	1292(%ecx), %eax
.LVL116:
.LBE514:
.LBE513:
.LBB515:
.LBB516:
	.loc 1 3440 0
	movl	1300(%ecx), %edi
.LVL117:
.LBE516:
.LBE515:
.LBB517:
.LBB518:
	.loc 1 3444 0
	movl	1288(%ecx), %ebx
.LVL118:
.LBE518:
.LBE517:
.LBB519:
.LBB520:
	.loc 1 3448 0
	movl	1296(%ecx), %esi
.LBE520:
.LBE519:
	.loc 1 4626 0
	je	.L95
.LVL119:
.LBB521:
.LBB522:
.LBB523:
	.loc 1 3427 0
	movl	$-1, 1292(%ecx)
	.loc 1 3428 0
	movl	$-1, 1300(%ecx)
.LVL120:
	jmp	.L115
.LVL121:
.L95:
.LBE523:
.LBE522:
.LBE521:
.LBB524:
.LBB525:
.LBB526:
	.loc 1 3115 0
	movl	$-1, 1300(%ecx)
	.loc 1 3116 0
	movl	$-1, 1292(%ecx)
.LVL122:
.L115:
.LBE526:
.LBE525:
.LBE524:
	.loc 1 4627 0
	movl	(%edx), %edx
.LVL123:
	.loc 1 4628 0
	cmpl	$-1, %eax
.LBB527:
.LBB528:
.LBB529:
	.loc 1 3140 0
	movl	$-1, 1288(%edx)
	.loc 1 3141 0
	movl	$-1, 1296(%edx)
.LVL124:
.LBE529:
.LBE528:
.LBE527:
	.loc 1 4628 0
	je	.L97
	.loc 1 4630 0
	call	nrf_gpio_cfg_default
.LVL125:
.L97:
	.loc 1 4632 0
	cmpl	$-1, %edi
	je	.L98
	.loc 1 4634 0
	movl	%edi, %eax
	call	nrf_gpio_cfg_default
.LVL126:
.L98:
	.loc 1 4636 0
	cmpl	$-1, %esi
	je	.L99
	.loc 1 4638 0
	movl	%esi, %eax
	call	nrf_gpio_cfg_default
.LVL127:
.L99:
	.loc 1 4640 0
	cmpl	$-1, %ebx
	je	.L100
	.loc 1 4642 0
	movl	%ebx, %eax
	call	nrf_gpio_cfg_default
.LVL128:
.L100:
.LBE512:
.LBE511:
	.loc 1 4694 0
	imull	$36, -16(%ebp), %eax
	movl	$0, m_cb+28(%eax)
	.loc 1 4695 0
	movl	$0, m_cb+4(%eax)
	.loc 1 4699 0
	popl	%eax
	popl	%ebx
	.cfi_restore 3
	popl	%esi
	.cfi_restore 6
	popl	%edi
	.cfi_restore 7
	popl	%ebp
	.cfi_restore 5
	.cfi_def_cfa 4, 4
	ret
	.cfi_endproc
.LFE239:
	.size	nrf_drv_uart_uninit, .-nrf_drv_uart_uninit
	.section	.text.unlikely.nrf_drv_uart_uninit
.LCOLDE12:
	.section	.text.nrf_drv_uart_uninit
.LHOTE12:
	.section	.text.unlikely.nrf_drv_uart_tx,"ax",@progbits
.LCOLDB13:
	.section	.text.nrf_drv_uart_tx,"ax",@progbits
.LHOTB13:
	.globl	nrf_drv_uart_tx
	.type	nrf_drv_uart_tx, @function
nrf_drv_uart_tx:
.LFB243:
	.loc 1 4775 0
	.cfi_startproc
.LVL129:
	pushl	%ebp
	.cfi_def_cfa_offset 8
	.cfi_offset 5, -8
	movl	%esp, %ebp
	.cfi_def_cfa_register 5
	pushl	%edi
	pushl	%esi
	pushl	%ebx
	pushl	%ecx
	.cfi_offset 7, -12
	.cfi_offset 6, -16
	.cfi_offset 3, -20
	.loc 1 4775 0
	movl	8(%ebp), %ebx
	movl	12(%ebp), %esi
	movl	16(%ebp), %ecx
	.loc 1 4776 0
	movzbl	4(%ebx), %edx
.LVL130:
	.loc 1 4781 0
	imull	$36, %edx, %eax
	cmpb	$0, m_cb+32(%eax)
	je	.L117
	movl	%esi, %edi
	movl	$16, %eax
	andl	$-536870912, %edi
	cmpl	$536870912, %edi
	jne	.L118
.L117:
.LBB555:
.LBB556:
	.loc 1 4802 0
	imull	$36, %edx, %edx
.LVL131:
.LBE556:
.LBE555:
	.loc 1 4786 0
	movl	$17, %eax
.LBB558:
.LBB557:
	.loc 1 4802 0
	addl	$m_cb, %edx
.LBE557:
.LBE558:
	.loc 1 4782 0
	cmpb	$0, 22(%edx)
	jne	.L118
	.loc 1 4789 0
	movl	%esi, 8(%edx)
.LVL132:
	.loc 1 4788 0
	movb	%cl, 22(%edx)
	.loc 1 4790 0
	movw	$0, 20(%edx)
	.loc 1 4796 0
	movzbl	4(%ebx), %edi
	imull	$36, %edi, %esi
	addl	$m_cb, %esi
	cmpb	$0, 32(%esi)
	je	.L119
.LVL133:
.LBB559:
.LBB560:
	.loc 1 4748 0
	movl	(%ebx), %eax
	movl	$288, %edx
	call	nrf_uarte_event_clear
.LVL134:
	.loc 1 4749 0
	movl	(%ebx), %eax
	movl	$344, %edx
	call	nrf_uarte_event_clear
.LVL135:
	.loc 1 4750 0
	movl	(%ebx), %edx
.LVL136:
.LBB561:
.LBB562:
	.loc 1 3481 0
	movl	8(%esi), %eax
	movl	%eax, 1348(%edx)
	.loc 1 3482 0
	movzbl	22(%esi), %eax
	movl	%eax, 1352(%edx)
.LVL137:
.LBE562:
.LBE561:
	.loc 1 4751 0
	movl	(%ebx), %eax
.LVL138:
.LBB563:
.LBB564:
	.loc 1 3461 0
	movl	$1, 8(%eax)
.LVL139:
.LBE564:
.LBE563:
	.loc 1 4752 0
	cmpl	$0, 4(%esi)
	je	.L120
.LVL140:
.L125:
	.loc 1 4747 0
	xorl	%eax, %eax
	jmp	.L118
.LVL141:
.L120:
.LBB565:
	.loc 1 4762 0
	movl	(%ebx), %edx
.L121:
.LVL142:
.LBB566:
.LBB567:
	.loc 1 3380 0
	movl	288(%edx), %ecx
.LVL143:
.LBE567:
.LBE566:
.LBB568:
.LBB569:
	movl	344(%edx), %eax
.LVL144:
.LBE569:
.LBE568:
	.loc 1 4765 0
	testl	%ecx, %ecx
	jne	.L138
	testl	%eax, %eax
	je	.L121
.L138:
	.loc 1 4768 0
	cmpl	$1, %eax
	sbbl	%eax, %eax
	.loc 1 4770 0
	imull	$36, %edi, %edi
	.loc 1 4768 0
	notl	%eax
.LVL145:
	.loc 1 4770 0
	andl	$15, %eax
.LVL146:
	movb	$0, m_cb+22(%edi)
	jmp	.L118
.LVL147:
.L119:
.LBE565:
.LBE560:
.LBE559:
.LBB570:
.LBB571:
	.loc 1 4711 0
	movl	(%ebx), %eax
	movl	$284, %edx
	call	nrf_uart_event_clear
.LVL148:
	.loc 1 4712 0
	movl	(%ebx), %eax
.LVL149:
	.loc 1 4713 0
	movl	%esi, %edx
.LBB572:
.LBB573:
	.loc 1 3157 0
	movl	$1, 8(%eax)
.LVL150:
.LBE573:
.LBE572:
	.loc 1 4713 0
	movl	(%ebx), %eax
	call	tx_byte
.LVL151:
	.loc 1 4714 0
	cmpl	$0, 4(%esi)
	jne	.L125
	.loc 1 4718 0
	movl	%esi, %ecx
.L146:
	movzbl	22(%ecx), %eax
	movw	%ax, -16(%ebp)
.L128:
	movw	20(%ecx), %dx
	cmpw	-16(%ebp), %dx
	leal	20(%ecx), %eax
	jnb	.L131
	.loc 1 4720 0
	movl	(%ebx), %eax
.L129:
.LVL152:
.LBB574:
.LBB575:
	.loc 1 3076 0
	movl	284(%eax), %edx
.LVL153:
.LBE575:
.LBE574:
	.loc 1 4720 0
	testl	%edx, %edx
	je	.L126
.L130:
	.loc 1 4724 0
	movw	20(%ecx), %dx
	cmpw	$256, %dx
	je	.L128
	.loc 1 4726 0
	movl	%esi, %edx
	movl	%ecx, -16(%ebp)
	call	tx_byte
.LVL154:
	movl	-16(%ebp), %ecx
	jmp	.L146
.L126:
	.loc 1 4721 0
	movw	20(%ecx), %dx
	.loc 1 4720 0
	cmpw	$256, %dx
	jne	.L129
	jmp	.L130
.L131:
	.loc 1 4729 0
	movw	(%eax), %dx
	.loc 1 4731 0
	movl	$15, %eax
	.loc 1 4729 0
	cmpw	$256, %dx
	je	.L132
	.loc 1 4735 0
	movl	(%ebx), %eax
.L133:
.LVL155:
.LBB576:
.LBB577:
	.loc 1 3076 0
	movl	284(%eax), %edx
.LVL156:
.LBE577:
.LBE576:
	.loc 1 4735 0
	testl	%edx, %edx
	je	.L133
.LVL157:
.LBB578:
.LBB579:
	.loc 1 3157 0
	movl	$1, 12(%eax)
.LBE579:
.LBE578:
	.loc 1 4710 0
	xorl	%eax, %eax
.LVL158:
.L132:
	.loc 1 4740 0
	imull	$36, %edi, %edi
	movb	$0, m_cb+22(%edi)
.LVL159:
.L118:
.LBE571:
.LBE570:
	.loc 1 4798 0
	popl	%edx
	popl	%ebx
	.cfi_restore 3
	popl	%esi
	.cfi_restore 6
	popl	%edi
	.cfi_restore 7
	popl	%ebp
	.cfi_restore 5
	.cfi_def_cfa 4, 4
	ret
	.cfi_endproc
.LFE243:
	.size	nrf_drv_uart_tx, .-nrf_drv_uart_tx
	.section	.text.unlikely.nrf_drv_uart_tx
.LCOLDE13:
	.section	.text.nrf_drv_uart_tx
.LHOTE13:
	.section	.text.unlikely.nrf_drv_uart_tx_in_progress,"ax",@progbits
.LCOLDB14:
	.section	.text.nrf_drv_uart_tx_in_progress,"ax",@progbits
.LHOTB14:
	.globl	nrf_drv_uart_tx_in_progress
	.type	nrf_drv_uart_tx_in_progress, @function
nrf_drv_uart_tx_in_progress:
.LFB244:
	.loc 1 4801 0
	.cfi_startproc
.LVL160:
	pushl	%ebp
	.cfi_def_cfa_offset 8
	.cfi_offset 5, -8
	movl	%esp, %ebp
	.cfi_def_cfa_register 5
	.loc 1 4802 0
	movl	8(%ebp), %eax
	.loc 1 4803 0
	popl	%ebp
	.cfi_restore 5
	.cfi_def_cfa 4, 4
	.loc 1 4802 0
	movzbl	4(%eax), %eax
	imull	$36, %eax, %eax
	cmpb	$0, m_cb+22(%eax)
	setne	%al
	.loc 1 4803 0
	ret
	.cfi_endproc
.LFE244:
	.size	nrf_drv_uart_tx_in_progress, .-nrf_drv_uart_tx_in_progress
	.section	.text.unlikely.nrf_drv_uart_tx_in_progress
.LCOLDE14:
	.section	.text.nrf_drv_uart_tx_in_progress
.LHOTE14:
	.section	.text.unlikely.nrf_drv_uart_rx,"ax",@progbits
.LCOLDB15:
	.section	.text.nrf_drv_uart_rx,"ax",@progbits
.LHOTB15:
	.globl	nrf_drv_uart_rx
	.type	nrf_drv_uart_rx, @function
nrf_drv_uart_rx:
.LFB249:
	.loc 1 4934 0
	.cfi_startproc
.LVL161:
	pushl	%ebp
	.cfi_def_cfa_offset 8
	.cfi_offset 5, -8
	movl	%esp, %ebp
	.cfi_def_cfa_register 5
	pushl	%edi
	pushl	%esi
	pushl	%ebx
	subl	$12, %esp
	.cfi_offset 7, -12
	.cfi_offset 6, -16
	.cfi_offset 3, -20
	.loc 1 4934 0
	movl	8(%ebp), %ebx
	movl	12(%ebp), %esi
	movl	16(%ebp), %ecx
	.loc 1 4935 0
	movzbl	4(%ebx), %eax
	.loc 1 4939 0
	imull	$36, %eax, %edx
	.loc 1 4935 0
	movl	%eax, -16(%ebp)
.LVL162:
	.loc 1 4939 0
	movb	m_cb+32(%edx), %al
.LVL163:
	testb	%al, %al
	je	.L151
	movl	%esi, %edx
	movl	$16, %edi
	andl	$-536870912, %edx
	cmpl	$536870912, %edx
	jne	.L191
.L151:
.LVL164:
	.loc 1 4944 0
	imull	$36, -16(%ebp), %edx
	movl	m_cb+4(%edx), %edx
	testl	%edx, %edx
	je	.L153
	.loc 1 4946 0
	testb	%al, %al
	movl	(%ebx), %edi
	je	.L154
.LVL165:
.LBB622:
.LBB623:
	.loc 1 3409 0 discriminator 1
	movl	$528, 776(%edi)
	jmp	.L153
.LVL166:
.L154:
.LBE623:
.LBE622:
.LBB624:
.LBB625:
	.loc 1 3097 0
	movl	$516, 776(%edi)
.LVL167:
.L153:
.LBE625:
.LBE624:
	.loc 1 4949 0
	imull	$36, -16(%ebp), %eax
	addl	$m_cb, %eax
	cmpb	$0, 23(%eax)
	je	.L155
	.loc 1 4951 0
	cmpb	$0, 24(%eax)
	je	.L156
	.loc 1 4953 0
	testl	%edx, %edx
	.loc 1 4960 0
	movl	$17, %edi
	.loc 1 4953 0
	je	.L191
	.loc 1 4955 0
	movzbl	4(%ebx), %eax
	imull	$36, %eax, %eax
	cmpb	$0, m_cb+32(%eax)
	movl	(%ebx), %eax
	je	.L157
.LVL168:
.LBB626:
.LBB627:
	.loc 1 3397 0 discriminator 1
	movl	$528, 772(%eax)
	jmp	.L191
.LVL169:
.L157:
.LBE627:
.LBE626:
.LBB628:
.LBB629:
	.loc 1 3085 0
	movl	$516, 772(%eax)
.LBE629:
.LBE628:
	.loc 1 4960 0
	movl	$17, %edi
	jmp	.L191
.LVL170:
.L155:
	.loc 1 4968 0
	movb	%cl, 23(%eax)
	.loc 1 4969 0
	movl	%esi, 12(%eax)
	.loc 1 4941 0
	xorl	%edi, %edi
	.loc 1 4970 0
	movb	$0, 25(%eax)
	.loc 1 4971 0
	movb	$0, 24(%eax)
.LVL171:
.L173:
	.loc 1 4979 0
	movzbl	4(%ebx), %eax
	movl	%eax, -16(%ebp)
.LVL172:
	imull	$36, %eax, %eax
	addl	$m_cb, %eax
	cmpb	$0, 32(%eax)
	je	.L158
.LVL173:
.LBB630:
.LBB631:
	.loc 1 4891 0 discriminator 1
	movl	(%ebx), %eax
	movl	$272, %edx
	call	nrf_uarte_event_clear
.LVL174:
	.loc 1 4892 0 discriminator 1
	movl	(%ebx), %eax
	movl	$324, %edx
	call	nrf_uarte_event_clear
.LVL175:
	.loc 1 4893 0 discriminator 1
	movl	(%ebx), %eax
.LVL176:
.LBB632:
.LBB633:
	.loc 1 3493 0 discriminator 1
	movzbl	%cl, %ecx
	.loc 1 3492 0 discriminator 1
	movl	%esi, 1332(%eax)
	.loc 1 3493 0 discriminator 1
	movl	%ecx, 1336(%eax)
.LVL177:
.LBE633:
.LBE632:
	.loc 1 4894 0 discriminator 1
	movl	%edi, %eax
	testb	%al, %al
	movl	(%ebx), %eax
	jne	.L159
.LVL178:
.LBB634:
.LBB635:
	.loc 1 3461 0
	movl	$1, (%eax)
	jmp	.L160
.LVL179:
.L159:
.LBE635:
.LBE634:
.LBB636:
.LBB637:
	.loc 1 3389 0
	movl	512(%eax), %edx
	orl	$32, %edx
	movl	%edx, 512(%eax)
.LVL180:
.L160:
.LBE637:
.LBE636:
	.loc 1 4902 0
	movzbl	4(%ebx), %edx
	imull	$36, %edx, %eax
	cmpl	$0, m_cb+4(%eax)
	movl	(%ebx), %eax
	jne	.L161
.LVL181:
.L163:
.LBB638:
.LBB639:
.LBB640:
	.loc 1 3380 0
	movl	272(%eax), %esi
.LVL182:
.LBE640:
.LBE639:
.LBB641:
.LBB642:
	movl	324(%eax), %ecx
.LVL183:
.LBE642:
.LBE641:
.LBB643:
.LBB644:
	movl	292(%eax), %ebx
.LVL184:
.LBE644:
.LBE643:
	.loc 1 4916 0
	testl	%esi, %esi
	jne	.L162
	testl	%ecx, %ecx
	jne	.L162
	testl	%ebx, %ebx
	je	.L163
.L162:
	.loc 1 4917 0
	imull	$36, %edx, %edx
	.loc 1 4920 0
	cmpl	$1, %ebx
	sbbl	%edi, %edi
	notl	%edi
	andl	$3, %edi
.LVL185:
	.loc 1 4922 0
	testl	%ecx, %ecx
	.loc 1 4917 0
	movb	$0, m_cb+23(%edx)
	.loc 1 4922 0
	je	.L191
.LVL186:
.L171:
	.loc 1 4924 0
	movl	$15, %edi
	jmp	.L191
.LVL187:
.L161:
.LBE638:
.LBB645:
.LBB646:
	.loc 1 3397 0
	movl	$528, 772(%eax)
	jmp	.L199
.LVL188:
.L158:
.LBE646:
.LBE645:
.LBE631:
.LBE630:
.LBB647:
.LBB648:
	.loc 1 4828 0
	cmpb	$0, 26(%eax)
	jne	.L165
	movl	%edi, %eax
	testb	%al, %al
	jne	.L165
	.loc 1 4830 0
	movl	%ebx, %eax
	call	rx_enable.isra.0
.LVL189:
.L165:
	.loc 1 4832 0
	imull	$36, -16(%ebp), %ecx
	addl	$m_cb, %ecx
	cmpl	$0, 4(%ecx)
	jne	.L166
.LBB649:
	.loc 1 4836 0
	movl	(%ebx), %eax
	movl	$324, %edx
	call	nrf_uart_event_clear
.LVL190:
.L167:
	.loc 1 4847 0
	movl	(%ebx), %eax
.LVL191:
.LBB650:
.LBB651:
	.loc 1 3076 0
	movl	292(%eax), %esi
.LBE651:
.LBE650:
.LBB653:
.LBB654:
	movl	264(%eax), %edx
.LVL192:
.LBE654:
.LBE653:
.LBB655:
.LBB656:
	movl	324(%eax), %edi
.LBE656:
.LBE655:
.LBB658:
.LBB652:
	.loc 1 3074 0
	testl	%esi, %esi
	setne	-20(%ebp)
.LBE652:
.LBE658:
.LBB659:
.LBB657:
	testl	%edi, %edi
	setne	-21(%ebp)
.LBE657:
.LBE659:
	.loc 1 4850 0
	testl	%edx, %edx
	sete	-22(%ebp)
	testl	%edi, %edi
	sete	%dl
	testb	%dl, -22(%ebp)
	je	.L179
	testl	%esi, %esi
	je	.L167
.L179:
	.loc 1 4851 0
	cmpb	$0, -20(%ebp)
	jne	.L170
	cmpb	$0, -21(%ebp)
	jne	.L170
	.loc 1 4855 0
	movl	%ecx, %edx
	movl	%ecx, -20(%ebp)
	call	rx_byte
.LVL193:
	.loc 1 4856 0
	movl	-20(%ebp), %ecx
	movb	25(%ecx), %al
	cmpb	%al, 23(%ecx)
	ja	.L167
	xorl	%edi, %edi
	xorl	%esi, %esi
.L170:
	.loc 1 4857 0
	imull	$36, -16(%ebp), %eax
	movb	$0, m_cb+23(%eax)
	addl	$m_cb, %eax
	.loc 1 4858 0
	testl	%esi, %esi
	jne	.L178
	.loc 1 4864 0
	testl	%edi, %edi
	jne	.L171
	.loc 1 4870 0
	cmpb	$0, 26(%eax)
	movl	(%ebx), %eax
	je	.L172
.LVL194:
.LBB660:
.LBB661:
	.loc 1 3157 0
	movl	$1, (%eax)
	jmp	.L191
.LVL195:
.L172:
.LBE661:
.LBE660:
.LBB662:
.LBB663:
	movl	$1, 4(%eax)
	jmp	.L191
.LVL196:
.L166:
.LBE663:
.LBE662:
.LBE649:
	.loc 1 4881 0
	movl	(%ebx), %eax
.LVL197:
.LBB664:
.LBB665:
	.loc 1 3085 0
	movl	$516, 772(%eax)
.LVL198:
.L199:
.LBE665:
.LBE664:
	.loc 1 4884 0
	xorl	%edi, %edi
	jmp	.L191
.LVL199:
.L178:
.LBB666:
	.loc 1 4862 0
	movl	$3, %edi
	jmp	.L191
.LVL200:
.L156:
.LBE666:
.LBE648:
.LBE647:
	.loc 1 4975 0
	movl	%esi, 16(%eax)
	.loc 1 4976 0
	movb	%cl, 24(%eax)
	.loc 1 4962 0
	movl	$1, %edi
	jmp	.L173
.LVL201:
.L191:
	.loc 1 4981 0
	addl	$12, %esp
	movl	%edi, %eax
	popl	%ebx
	.cfi_restore 3
	popl	%esi
	.cfi_restore 6
	popl	%edi
	.cfi_restore 7
	popl	%ebp
	.cfi_restore 5
	.cfi_def_cfa 4, 4
	ret
	.cfi_endproc
.LFE249:
	.size	nrf_drv_uart_rx, .-nrf_drv_uart_rx
	.section	.text.unlikely.nrf_drv_uart_rx
.LCOLDE15:
	.section	.text.nrf_drv_uart_rx
.LHOTE15:
	.section	.text.unlikely.nrf_drv_uart_rx_ready,"ax",@progbits
.LCOLDB16:
	.section	.text.nrf_drv_uart_rx_ready,"ax",@progbits
.LHOTB16:
	.globl	nrf_drv_uart_rx_ready
	.type	nrf_drv_uart_rx_ready, @function
nrf_drv_uart_rx_ready:
.LFB250:
	.loc 1 4984 0
	.cfi_startproc
.LVL202:
	pushl	%ebp
	.cfi_def_cfa_offset 8
	.cfi_offset 5, -8
	movl	%esp, %ebp
	.cfi_def_cfa_register 5
	.loc 1 4984 0
	movl	8(%ebp), %eax
	.loc 1 4985 0
	movzbl	4(%eax), %edx
	movl	(%eax), %eax
	imull	$36, %edx, %edx
	cmpb	$0, m_cb+32(%edx)
	je	.L201
.LVL203:
.LBB667:
.LBB668:
	.loc 1 3380 0 discriminator 1
	movl	272(%eax), %eax
.LVL204:
	jmp	.L204
.LVL205:
.L201:
.LBE668:
.LBE667:
.LBB669:
.LBB670:
	.loc 1 3076 0
	movl	264(%eax), %eax
.LVL206:
.L204:
	.loc 1 3074 0
	testl	%eax, %eax
	setne	%al
.LBE670:
.LBE669:
	.loc 1 4987 0
	popl	%ebp
	.cfi_restore 5
	.cfi_def_cfa 4, 4
	ret
	.cfi_endproc
.LFE250:
	.size	nrf_drv_uart_rx_ready, .-nrf_drv_uart_rx_ready
	.section	.text.unlikely.nrf_drv_uart_rx_ready
.LCOLDE16:
	.section	.text.nrf_drv_uart_rx_ready
.LHOTE16:
	.section	.text.unlikely.nrf_drv_uart_rx_enable,"ax",@progbits
.LCOLDB17:
	.section	.text.nrf_drv_uart_rx_enable,"ax",@progbits
.LHOTB17:
	.globl	nrf_drv_uart_rx_enable
	.type	nrf_drv_uart_rx_enable, @function
nrf_drv_uart_rx_enable:
.LFB251:
	.loc 1 4989 0
	.cfi_startproc
.LVL207:
	pushl	%ebp
	.cfi_def_cfa_offset 8
	.cfi_offset 5, -8
	movl	%esp, %ebp
	.cfi_def_cfa_register 5
	pushl	%ebx
	.cfi_offset 3, -12
	.loc 1 4989 0
	movl	8(%ebp), %ebx
	.loc 1 4990 0
	movzbl	4(%ebx), %eax
	imull	$36, %eax, %eax
	addl	$m_cb, %eax
	cmpb	$0, 32(%eax)
	jne	.L205
	.loc 1 4993 0
	cmpb	$0, 26(%eax)
	jne	.L205
	.loc 1 4993 0 is_stmt 0 discriminator 1
	movl	%ebx, %eax
	call	rx_enable.isra.0
.LVL208:
	movzbl	4(%ebx), %eax
	imull	$36, %eax, %eax
	movb	$1, m_cb+26(%eax)
.L205:
	.loc 1 4996 0 is_stmt 1
	popl	%ebx
	.cfi_restore 3
	popl	%ebp
	.cfi_restore 5
	.cfi_def_cfa 4, 4
	ret
	.cfi_endproc
.LFE251:
	.size	nrf_drv_uart_rx_enable, .-nrf_drv_uart_rx_enable
	.section	.text.unlikely.nrf_drv_uart_rx_enable
.LCOLDE17:
	.section	.text.nrf_drv_uart_rx_enable
.LHOTE17:
	.section	.text.unlikely.nrf_drv_uart_rx_disable,"ax",@progbits
.LCOLDB18:
	.section	.text.nrf_drv_uart_rx_disable,"ax",@progbits
.LHOTB18:
	.globl	nrf_drv_uart_rx_disable
	.type	nrf_drv_uart_rx_disable, @function
nrf_drv_uart_rx_disable:
.LFB252:
	.loc 1 4998 0
	.cfi_startproc
.LVL209:
	pushl	%ebp
	.cfi_def_cfa_offset 8
	.cfi_offset 5, -8
	movl	%esp, %ebp
	.cfi_def_cfa_register 5
	.loc 1 4998 0
	movl	8(%ebp), %eax
	.loc 1 4999 0
	movzbl	4(%eax), %edx
	imull	$36, %edx, %edx
	cmpb	$0, m_cb+32(%edx)
	jne	.L208
	.loc 1 5002 0
	movl	(%eax), %edx
.LVL210:
.LBB671:
.LBB672:
	.loc 1 3157 0
	movl	$1, 4(%edx)
.LVL211:
.LBE672:
.LBE671:
	.loc 1 5002 0
	movzbl	4(%eax), %eax
	imull	$36, %eax, %eax
	movb	$0, m_cb+26(%eax)
.L208:
	.loc 1 5005 0
	popl	%ebp
	.cfi_restore 5
	.cfi_def_cfa 4, 4
	ret
	.cfi_endproc
.LFE252:
	.size	nrf_drv_uart_rx_disable, .-nrf_drv_uart_rx_disable
	.section	.text.unlikely.nrf_drv_uart_rx_disable
.LCOLDE18:
	.section	.text.nrf_drv_uart_rx_disable
.LHOTE18:
	.section	.text.unlikely.nrf_drv_uart_errorsrc_get,"ax",@progbits
.LCOLDB19:
	.section	.text.nrf_drv_uart_errorsrc_get,"ax",@progbits
.LHOTB19:
	.globl	nrf_drv_uart_errorsrc_get
	.type	nrf_drv_uart_errorsrc_get, @function
nrf_drv_uart_errorsrc_get:
.LFB253:
	.loc 1 5007 0
	.cfi_startproc
.LVL212:
	pushl	%ebp
	.cfi_def_cfa_offset 8
	.cfi_offset 5, -8
	.loc 1 5009 0
	movl	$292, %edx
	.loc 1 5007 0
	movl	%esp, %ebp
	.cfi_def_cfa_register 5
	.loc 1 5007 0
	movl	8(%ebp), %ecx
	.loc 1 5009 0
	movzbl	4(%ecx), %eax
	imull	$36, %eax, %eax
	cmpb	$0, m_cb+32(%eax)
	movl	(%ecx), %eax
	je	.L212
	.loc 1 5009 0 is_stmt 0 discriminator 1
	call	nrf_uarte_event_clear
.LVL213:
	jmp	.L215
.LVL214:
.L212:
	.loc 1 5010 0 is_stmt 1
	call	nrf_uart_event_clear
.LVL215:
.L215:
	movl	(%ecx), %edx
.LVL216:
.LBB673:
.LBB674:
	.loc 1 3101 0
	movl	1152(%edx), %eax
.LVL217:
	.loc 1 3102 0
	movl	%eax, 1152(%edx)
.LVL218:
.LBE674:
.LBE673:
	.loc 1 5012 0
	popl	%ebp
	.cfi_restore 5
	.cfi_def_cfa 4, 4
	ret
	.cfi_endproc
.LFE253:
	.size	nrf_drv_uart_errorsrc_get, .-nrf_drv_uart_errorsrc_get
	.section	.text.unlikely.nrf_drv_uart_errorsrc_get
.LCOLDE19:
	.section	.text.nrf_drv_uart_errorsrc_get
.LHOTE19:
	.section	.text.unlikely.nrf_drv_uart_tx_abort,"ax",@progbits
.LCOLDB20:
	.section	.text.nrf_drv_uart_tx_abort,"ax",@progbits
.LHOTB20:
	.globl	nrf_drv_uart_tx_abort
	.type	nrf_drv_uart_tx_abort, @function
nrf_drv_uart_tx_abort:
.LFB256:
	.loc 1 5032 0
	.cfi_startproc
.LVL219:
	pushl	%ebp
	.cfi_def_cfa_offset 8
	.cfi_offset 5, -8
	movl	%esp, %ebp
	.cfi_def_cfa_register 5
	pushl	%ebx
	.cfi_offset 3, -12
	pushl	%ebx
	.loc 1 5032 0
	movl	8(%ebp), %ebx
	.loc 1 5033 0
	movzbl	4(%ebx), %ecx
.LVL220:
	.loc 1 5034 0
	imull	$36, %ecx, %ecx
.LVL221:
	addl	$m_cb, %ecx
.LVL222:
	cmpb	$0, 32(%ecx)
	je	.L217
	.loc 1 5034 0 is_stmt 0 discriminator 1
	movl	(%ebx), %eax
	movl	$344, %edx
	call	nrf_uarte_event_clear
.LVL223:
	movl	(%ebx), %eax
.LVL224:
.LBB675:
.LBB676:
	.loc 1 3461 0 is_stmt 1 discriminator 1
	movl	$1, 12(%eax)
.LVL225:
.LBE676:
.LBE675:
	.loc 1 5034 0 discriminator 1
	cmpl	$0, 4(%ecx)
	jne	.L216
	.loc 1 5036 0
	movl	(%ebx), %edx
.L219:
.LVL226:
.LBB677:
.LBB678:
	.loc 1 3380 0 discriminator 1
	movl	344(%edx), %eax
.LVL227:
.LBE678:
.LBE677:
	.loc 1 5036 0 discriminator 1
	testl	%eax, %eax
	je	.L219
	jmp	.L216
.LVL228:
.L217:
	.loc 1 5037 0
	movl	(%ebx), %eax
.LVL229:
.LBB679:
.LBB680:
	.loc 1 3157 0
	movl	$1, 12(%eax)
.LVL230:
.LBE680:
.LBE679:
	.loc 1 5037 0
	cmpl	$0, 4(%ecx)
	je	.L220
	.loc 1 5037 0 is_stmt 0 discriminator 1
	movw	20(%ecx), %dx
	movl	%ecx, %eax
	.loc 1 5039 0 is_stmt 1 discriminator 1
	popl	%ecx
.LVL231:
	popl	%ebx
	.cfi_remember_state
	.cfi_restore 3
	popl	%ebp
	.cfi_restore 5
	.cfi_def_cfa 4, 4
	.loc 1 5037 0 discriminator 1
	movzbl	%dl, %edx
	jmp	tx_done_event
.LVL232:
.L220:
	.cfi_restore_state
	.loc 1 5037 0 is_stmt 0 discriminator 2
	movw	$256, 20(%ecx)
.LVL233:
.L216:
	.loc 1 5039 0 is_stmt 1
	popl	%eax
	popl	%ebx
	.cfi_restore 3
	popl	%ebp
	.cfi_restore 5
	.cfi_def_cfa 4, 4
	ret
	.cfi_endproc
.LFE256:
	.size	nrf_drv_uart_tx_abort, .-nrf_drv_uart_tx_abort
	.section	.text.unlikely.nrf_drv_uart_tx_abort
.LCOLDE20:
	.section	.text.nrf_drv_uart_tx_abort
.LHOTE20:
	.section	.text.unlikely.nrf_drv_uart_rx_abort,"ax",@progbits
.LCOLDB21:
	.section	.text.nrf_drv_uart_rx_abort,"ax",@progbits
.LHOTB21:
	.globl	nrf_drv_uart_rx_abort
	.type	nrf_drv_uart_rx_abort, @function
nrf_drv_uart_rx_abort:
.LFB257:
	.loc 1 5041 0
	.cfi_startproc
.LVL234:
	pushl	%ebp
	.cfi_def_cfa_offset 8
	.cfi_offset 5, -8
	movl	%esp, %ebp
	.cfi_def_cfa_register 5
	.loc 1 5041 0
	movl	8(%ebp), %eax
	.loc 1 5042 0
	movzbl	4(%eax), %edx
	imull	$36, %edx, %edx
	cmpb	$0, m_cb+32(%edx)
	jne	.L228
	.loc 1 5043 0
	movl	(%eax), %edx
.LVL235:
.LBB681:
.LBB682:
	.loc 1 3097 0
	movl	$516, 776(%edx)
.LVL236:
.L228:
.LBE682:
.LBE681:
	.loc 1 5043 0
	movl	(%eax), %eax
.LVL237:
.LBB683:
.LBB684:
	.loc 1 3157 0
	movl	$1, 4(%eax)
.LBE684:
.LBE683:
	.loc 1 5045 0
	popl	%ebp
	.cfi_restore 5
	.cfi_def_cfa 4, 4
	ret
	.cfi_endproc
.LFE257:
	.size	nrf_drv_uart_rx_abort, .-nrf_drv_uart_rx_abort
	.section	.text.unlikely.nrf_drv_uart_rx_abort
.LCOLDE21:
	.section	.text.nrf_drv_uart_rx_abort
.LHOTE21:
	.section	.text.unlikely.UARTE0_UART0_IRQHandler,"ax",@progbits
.LCOLDB22:
	.section	.text.UARTE0_UART0_IRQHandler,"ax",@progbits
.LHOTB22:
	.globl	UARTE0_UART0_IRQHandler
	.type	UARTE0_UART0_IRQHandler, @function
UARTE0_UART0_IRQHandler:
.LFB260:
	.loc 1 5178 0
	.cfi_startproc
	pushl	%ebp
	.cfi_def_cfa_offset 8
	.cfi_offset 5, -8
	movl	%esp, %ebp
	.cfi_def_cfa_register 5
	pushl	%ebx
	subl	$36, %esp
	.cfi_offset 3, -12
	.loc 1 5178 0
	movl	%gs:20, %eax
	movl	%eax, -12(%ebp)
	xorl	%eax, %eax
	.loc 1 5179 0
	call	krhino_intrpt_enter
.LVL238:
	.loc 1 5180 0
	cmpb	$0, m_cb+32
	je	.L230
.LVL239:
.LBB738:
.LBB739:
.LBB740:
.LBB741:
	.loc 1 3380 0
	movl	1073750308, %eax
.LVL240:
.LBE741:
.LBE740:
	.loc 1 5125 0
	testl	%eax, %eax
	je	.L231
.LBB742:
	.loc 1 5128 0
	movl	$292, %edx
	movl	$1073750016, %eax
	call	nrf_uarte_event_clear
.LVL241:
.LBB743:
.LBB744:
	.loc 1 3413 0
	movl	1073751168, %eax
.LBE744:
.LBE743:
	.loc 1 5129 0
	movl	$2, -28(%ebp)
.LVL242:
	.loc 1 5133 0
	movb	$0, m_cb+23
	.loc 1 5134 0
	movb	$0, m_cb+24
.LBB746:
.LBB745:
	.loc 1 3414 0
	movl	%eax, 1073751168
.LVL243:
.LBE745:
.LBE746:
	.loc 1 5130 0
	movl	%eax, -16(%ebp)
.LVL244:
.LBB747:
.LBB748:
	.loc 1 3497 0
	movl	1073751356, %eax
.LVL245:
.LBE748:
.LBE747:
	.loc 1 5135 0
	pushl	%edx
	pushl	%edx
	pushl	m_cb
	.loc 1 5131 0
	movb	%al, -20(%ebp)
	.loc 1 5132 0
	movl	m_cb+12, %eax
	movl	%eax, -24(%ebp)
	.loc 1 5135 0
	leal	-28(%ebp), %eax
	pushl	%eax
	call	*m_cb+4
.LVL246:
	addl	$16, %esp
	jmp	.L232
.L231:
.LVL247:
.LBE742:
.LBB749:
.LBB750:
	.loc 1 3380 0
	movl	1073750288, %eax
.LVL248:
.LBE750:
.LBE749:
	.loc 1 5137 0
	testl	%eax, %eax
	je	.L232
.LBB751:
	.loc 1 5139 0
	movl	$1073750016, %eax
	movl	$272, %edx
	call	nrf_uarte_event_clear
.LVL249:
.LBB752:
.LBB753:
	.loc 1 3497 0
	movl	1073751356, %eax
.LVL250:
.LBE753:
.LBE752:
	.loc 1 5141 0
	cmpb	%al, m_cb+23
	jne	.L232
	.loc 1 5143 0
	movb	m_cb+24, %bl
	movl	m_cb+12, %edx
	movzbl	%al, %eax
	testb	%bl, %bl
	je	.L235
.LVL251:
.LBB754:
.LBB755:
.LBB756:
	.loc 1 3393 0
	movl	1073750528, %ecx
.LBE756:
.LBE755:
	.loc 1 5147 0
	movb	%bl, m_cb+23
	.loc 1 5149 0
	movb	$0, m_cb+24
.LBB758:
.LBB757:
	.loc 1 3393 0
	andl	$-33, %ecx
	movl	%ecx, 1073750528
.LVL252:
.LBE757:
.LBE758:
	.loc 1 5148 0
	movl	m_cb+16, %ecx
	movl	%ecx, m_cb+12
	jmp	.L271
.LVL253:
.L235:
.LBE754:
	.loc 1 5154 0
	movb	$0, m_cb+23
.L271:
	.loc 1 5155 0
	call	rx_done_event.constprop.4
.LVL254:
.L232:
.LBE751:
.LBB759:
.LBB760:
	.loc 1 3380 0
	movl	1073750340, %eax
.LVL255:
.LBE760:
.LBE759:
	.loc 1 5159 0
	testl	%eax, %eax
	je	.L237
	.loc 1 5161 0
	movl	$324, %edx
	movl	$1073750016, %eax
	call	nrf_uarte_event_clear
.LVL256:
	.loc 1 5162 0
	cmpb	$0, m_cb+23
	je	.L237
.LBB761:
.LBB762:
	.loc 1 3497 0
	movl	1073751356, %eax
.LBE762:
.LBE761:
	.loc 1 5165 0
	movl	m_cb+12, %edx
	.loc 1 5164 0
	movb	$0, m_cb+23
.LVL257:
	.loc 1 5165 0
	movzbl	%al, %eax
	call	rx_done_event.constprop.4
.LVL258:
.L237:
.LBB763:
.LBB764:
	.loc 1 3380 0
	movl	1073750304, %eax
.LVL259:
.LBE764:
.LBE763:
	.loc 1 5168 0
	testl	%eax, %eax
	je	.L240
	.loc 1 5170 0
	movl	$288, %edx
	movl	$1073750016, %eax
	call	nrf_uarte_event_clear
.LVL260:
	.loc 1 5171 0
	cmpb	$0, m_cb+22
	je	.L240
.LVL261:
.LBB765:
.LBB766:
	.loc 1 3486 0
	movl	1073751372, %edx
.LVL262:
.LBE766:
.LBE765:
	.loc 1 5173 0
	movl	$m_cb, %eax
	movzbl	%dl, %edx
	call	tx_done_event
.LVL263:
	jmp	.L240
.LVL264:
.L230:
.LBE739:
.LBE738:
.LBB767:
.LBB768:
.LBB769:
.LBB770:
	.loc 1 3093 0
	movl	1073750788, %eax
.LVL265:
.LBE770:
.LBE769:
	.loc 1 5048 0
	testb	$2, %ah
	je	.L242
.LVL266:
.LBB771:
.LBB772:
	.loc 1 3076 0
	movl	1073750308, %eax
.LVL267:
.LBE772:
.LBE771:
	.loc 1 5048 0
	testl	%eax, %eax
	je	.L242
.LBB773:
	.loc 1 5052 0
	movl	$292, %edx
	movl	$1073750016, %eax
	call	nrf_uart_event_clear
.LVL268:
	.loc 1 5054 0
	cmpb	$0, m_cb+26
.LBB774:
.LBB775:
	.loc 1 3097 0
	movl	$516, 1073750792
.LVL269:
.LBE775:
.LBE774:
	.loc 1 5054 0
	jne	.L243
.LVL270:
.LBB776:
.LBB777:
	.loc 1 3157 0
	movl	$1, 1073750020
.LVL271:
.L243:
.LBE777:
.LBE776:
.LBB778:
.LBB779:
	.loc 1 3101 0
	movl	1073751168, %eax
.LBE779:
.LBE778:
	.loc 1 5058 0
	movl	$2, -28(%ebp)
.LVL272:
	.loc 1 5063 0
	movb	$0, m_cb+24
.LBB781:
.LBB780:
	.loc 1 3102 0
	movl	%eax, 1073751168
.LVL273:
.LBE780:
.LBE781:
	.loc 1 5059 0
	movl	%eax, -16(%ebp)
	.loc 1 5060 0
	movb	m_cb+23, %al
	.loc 1 5062 0
	movb	$0, m_cb+23
	.loc 1 5060 0
	movb	%al, -20(%ebp)
	.loc 1 5061 0
	movl	m_cb+12, %eax
	movl	%eax, -24(%ebp)
	.loc 1 5064 0
	pushl	%eax
	pushl	%eax
	leal	-28(%ebp), %eax
	pushl	m_cb
	pushl	%eax
	call	*m_cb+4
.LVL274:
	addl	$16, %esp
	jmp	.L244
.L242:
.LVL275:
.LBE773:
.LBB782:
.LBB783:
	.loc 1 3093 0
	movl	1073750788, %eax
.LVL276:
.LBE783:
.LBE782:
	.loc 1 5066 0
	testb	$4, %al
	je	.L244
.LVL277:
.LBB784:
.LBB785:
	.loc 1 3076 0
	movl	1073750280, %eax
.LVL278:
.LBE785:
.LBE784:
	.loc 1 5066 0
	testl	%eax, %eax
	je	.L244
	.loc 1 5069 0
	movl	$1073750016, %eax
	movl	$m_cb, %edx
	call	rx_byte
.LVL279:
	.loc 1 5070 0
	movb	m_cb+25, %al
	cmpb	%al, m_cb+23
	jne	.L244
	.loc 1 5072 0
	movb	m_cb+24, %cl
	movl	m_cb+12, %edx
	testb	%cl, %cl
	je	.L247
.LVL280:
.LBB786:
	.loc 1 5076 0
	movb	%cl, m_cb+23
	.loc 1 5077 0
	movl	m_cb+16, %ecx
	.loc 1 5075 0
	movzbl	m_cb+25, %eax
.LVL281:
	.loc 1 5078 0
	movb	$0, m_cb+24
	.loc 1 5079 0
	movb	$0, m_cb+25
	.loc 1 5077 0
	movl	%ecx, m_cb+12
	jmp	.L272
.LVL282:
.L247:
.LBE786:
	.loc 1 5084 0
	cmpb	$0, m_cb+26
	jne	.L248
.LVL283:
.LBB787:
.LBB788:
	.loc 1 3157 0
	movl	$1, 1073750020
.LVL284:
.L248:
.LBE788:
.LBE787:
.LBB789:
.LBB790:
	.loc 1 3097 0
	movl	$516, 1073750792
.LVL285:
.LBE790:
.LBE789:
	.loc 1 5090 0
	movzbl	m_cb+25, %eax
	.loc 1 5089 0
	movb	$0, m_cb+23
.L272:
	.loc 1 5090 0
	call	rx_done_event.constprop.4
.LVL286:
.L244:
.LBB791:
.LBB792:
	.loc 1 3076 0
	movl	1073750300, %eax
.LVL287:
.LBE792:
.LBE791:
	.loc 1 5094 0
	testl	%eax, %eax
	je	.L250
	.loc 1 5096 0
	movzbl	m_cb+22, %eax
	movw	m_cb+20, %dx
	cmpw	%ax, %dx
	jnb	.L251
	.loc 1 5098 0
	movl	$m_cb, %edx
	movl	$1073750016, %eax
	call	tx_byte
.LVL288:
	jmp	.L250
.L251:
	.loc 1 5102 0
	movl	$284, %edx
	movl	$1073750016, %eax
	call	nrf_uart_event_clear
.LVL289:
	.loc 1 5103 0
	movzbl	m_cb+22, %edx
	testb	%dl, %dl
	je	.L250
	.loc 1 5105 0
	movl	$m_cb, %eax
	call	tx_done_event
.LVL290:
.L250:
.LBB793:
.LBB794:
	.loc 1 3076 0
	movl	1073750340, %eax
.LVL291:
.LBE794:
.LBE793:
	.loc 1 5109 0
	testl	%eax, %eax
	je	.L240
	.loc 1 5111 0
	movl	$324, %edx
	movl	$1073750016, %eax
	call	nrf_uart_event_clear
.LVL292:
	.loc 1 5112 0
	cmpb	$0, m_cb+26
	je	.L253
.LVL293:
.LBB795:
.LBB796:
	.loc 1 3157 0
	movl	$1, 1073750016
.LVL294:
.L253:
.LBE796:
.LBE795:
	.loc 1 5116 0
	cmpb	$0, m_cb+23
	je	.L240
	.loc 1 5119 0
	movzbl	m_cb+25, %eax
	movl	m_cb+12, %edx
	.loc 1 5118 0
	movb	$0, m_cb+23
	.loc 1 5119 0
	call	rx_done_event.constprop.4
.LVL295:
.L240:
.LBE768:
.LBE767:
	.loc 1 5182 0
	call	krhino_intrpt_exit
.LVL296:
	.loc 1 5183 0
	movl	-12(%ebp), %eax
	xorl	%gs:20, %eax
	je	.L254
	call	__stack_chk_fail
.LVL297:
.L254:
	movl	-4(%ebp), %ebx
	leave
	.cfi_restore 5
	.cfi_restore 3
	.cfi_def_cfa 4, 4
	ret
	.cfi_endproc
.LFE260:
	.size	UARTE0_UART0_IRQHandler, .-UARTE0_UART0_IRQHandler
	.section	.text.unlikely.UARTE0_UART0_IRQHandler
.LCOLDE22:
	.section	.text.UARTE0_UART0_IRQHandler
.LHOTE22:
	.section	.bss.m_cb,"aw",@nobits
	.align 32
	.type	m_cb, @object
	.size	m_cb, 36
m_cb:
	.zero	36
	.text
.Letext0:
	.section	.text.unlikely.nrf_uart_event_clear
.Letext_cold0:
	.section	.note.GNU-stack,"",@progbits
