	.file	"nrf_dfu_settings.c"
	.text
.Ltext0:
	.section	.text.unlikely.nrf_dfu_settings_crc_get,"ax",@progbits
.LCOLDB0:
	.section	.text.nrf_dfu_settings_crc_get,"ax",@progbits
.LHOTB0:
	.section	.text.unlikely.nrf_dfu_settings_crc_get
.Ltext_cold0:
	.section	.text.nrf_dfu_settings_crc_get
	.globl	nrf_dfu_settings_crc_get
	.type	nrf_dfu_settings_crc_get, @function
nrf_dfu_settings_crc_get:
.LFB142:
	.file 1 "src/nrf_dfu_settings.c"
	.loc 1 3594 0
	.cfi_startproc
	pushl	%ebp
	.cfi_def_cfa_offset 8
	.cfi_offset 5, -8
	movl	%esp, %ebp
	.cfi_def_cfa_register 5
	subl	$12, %esp
	.loc 1 3595 0
	pushl	$0
	pushl	$124
	pushl	$s_dfu_settings+4
	call	crc32_compute
.LVL0:
	.loc 1 3604 0
	leave
	.cfi_restore 5
	.cfi_def_cfa 4, 4
	ret
	.cfi_endproc
.LFE142:
	.size	nrf_dfu_settings_crc_get, .-nrf_dfu_settings_crc_get
	.section	.text.unlikely.nrf_dfu_settings_crc_get
.LCOLDE0:
	.section	.text.nrf_dfu_settings_crc_get
.LHOTE0:
	.section	.text.unlikely.nrf_dfu_settings_write,"ax",@progbits
.LCOLDB1:
	.section	.text.nrf_dfu_settings_write,"ax",@progbits
.LHOTB1:
	.globl	nrf_dfu_settings_write
	.type	nrf_dfu_settings_write, @function
nrf_dfu_settings_write:
.LFB144:
	.loc 1 3639 0
	.cfi_startproc
.LVL1:
	pushl	%ebp
	.cfi_def_cfa_offset 8
	.cfi_offset 5, -8
	movl	%esp, %ebp
	.cfi_def_cfa_register 5
	pushl	%edi
	pushl	%esi
	pushl	%ebx
	subl	$432, %esp
	.cfi_offset 7, -12
	.cfi_offset 6, -16
	.cfi_offset 3, -20
	.loc 1 3639 0
	movl	8(%ebp), %ebx
	.loc 1 3643 0
	pushl	$0
	pushl	$1
	pushl	$m_dfu_settings_buffer
	.loc 1 3639 0
	movl	%gs:20, %eax
	movl	%eax, -28(%ebp)
	xorl	%eax, %eax
	.loc 1 3643 0
	call	nrf_dfu_flash_erase
.LVL2:
	.loc 1 3646 0
	addl	$16, %esp
	testl	%eax, %eax
	je	.L4
.L6:
	.loc 1 3649 0
	movl	$3, %eax
.LVL3:
	jmp	.L5
.LVL4:
.L4:
	.loc 1 3651 0
	call	nrf_dfu_settings_crc_get
.LVL5:
	movl	$s_dfu_settings, %esi
	movl	%eax, s_dfu_settings
	.loc 1 3653 0
	leal	-428(%ebp), %edi
	movl	$100, %ecx
	.loc 1 3654 0
	leal	-428(%ebp), %eax
	.loc 1 3653 0
	rep movsl
	.loc 1 3654 0
	pushl	%ebx
	pushl	$400
	pushl	%eax
	pushl	$m_dfu_settings_buffer
	call	nrf_dfu_flash_store
.LVL6:
	.loc 1 3658 0
	addl	$16, %esp
	testl	%eax, %eax
	jne	.L6
.LVL7:
.L5:
	.loc 1 3664 0
	movl	-28(%ebp), %edx
	xorl	%gs:20, %edx
	je	.L7
	call	__stack_chk_fail
.LVL8:
.L7:
	leal	-12(%ebp), %esp
	popl	%ebx
	.cfi_restore 3
	popl	%esi
	.cfi_restore 6
	popl	%edi
	.cfi_restore 7
	popl	%ebp
	.cfi_restore 5
	.cfi_def_cfa 4, 4
	ret
	.cfi_endproc
.LFE144:
	.size	nrf_dfu_settings_write, .-nrf_dfu_settings_write
	.section	.text.unlikely.nrf_dfu_settings_write
.LCOLDE1:
	.section	.text.nrf_dfu_settings_write
.LHOTE1:
	.section	.text.unlikely.nrf_dfu_settings_init,"ax",@progbits
.LCOLDB2:
	.section	.text.nrf_dfu_settings_init,"ax",@progbits
.LHOTB2:
	.globl	nrf_dfu_settings_init
	.type	nrf_dfu_settings_init, @function
nrf_dfu_settings_init:
.LFB143:
	.loc 1 3608 0
	.cfi_startproc
.LVL9:
	pushl	%ebp
	.cfi_def_cfa_offset 8
	.cfi_offset 5, -8
	movl	%esp, %ebp
	.cfi_def_cfa_register 5
	pushl	%edi
	pushl	%esi
	.cfi_offset 7, -12
	.cfi_offset 6, -16
	.loc 1 3611 0
	movzbl	8(%ebp), %eax
	subl	$12, %esp
	pushl	%eax
	call	nrf_dfu_flash_init
.LVL10:
	.loc 1 3612 0
	addl	$16, %esp
	testl	%eax, %eax
	je	.L11
	.loc 1 3615 0
	subl	$12, %esp
	pushl	%eax
	call	app_error_handler_bare
.LVL11:
	addl	$16, %esp
.L11:
	.loc 1 3617 0
	movl	$s_dfu_settings, %eax
	movl	$m_dfu_settings_buffer, %esi
	movl	$100, %ecx
	movl	%eax, %edi
	rep movsl
	.loc 1 3618 0
	cmpl	$-1, s_dfu_settings
	jne	.L12
.L15:
	.loc 1 3627 0
	movl	$s_dfu_settings, %edx
	xorl	%eax, %eax
	movl	$100, %ecx
	movl	%edx, %edi
	.loc 1 3629 0
	subl	$12, %esp
	.loc 1 3627 0
	rep stosl
	.loc 1 3629 0
	pushl	$0
	call	nrf_dfu_settings_write
.LVL12:
	.loc 1 3632 0
	addl	$16, %esp
	testl	%eax, %eax
	je	.L10
	.loc 1 3635 0
	movl	%eax, 8(%ebp)
	.loc 1 3637 0
	leal	-8(%ebp), %esp
	popl	%esi
	.cfi_remember_state
	.cfi_restore 6
	popl	%edi
	.cfi_restore 7
	popl	%ebp
	.cfi_restore 5
	.cfi_def_cfa 4, 4
	.loc 1 3635 0
	jmp	app_error_handler_bare
.LVL13:
.L12:
	.cfi_restore_state
.LBB2:
	.loc 1 3620 0
	call	nrf_dfu_settings_crc_get
.LVL14:
	.loc 1 3621 0
	cmpl	s_dfu_settings, %eax
	jne	.L15
.LVL15:
.L10:
.LBE2:
	.loc 1 3637 0
	leal	-8(%ebp), %esp
	popl	%esi
	.cfi_restore 6
	popl	%edi
	.cfi_restore 7
	popl	%ebp
	.cfi_restore 5
	.cfi_def_cfa 4, 4
	ret
	.cfi_endproc
.LFE143:
	.size	nrf_dfu_settings_init, .-nrf_dfu_settings_init
	.section	.text.unlikely.nrf_dfu_settings_init
.LCOLDE2:
	.section	.text.nrf_dfu_settings_init
.LHOTE2:
	.section	.text.unlikely.nrf_dfu_settings_additional_erase,"ax",@progbits
.LCOLDB3:
	.section	.text.nrf_dfu_settings_additional_erase,"ax",@progbits
.LHOTB3:
	.weak	nrf_dfu_settings_additional_erase
	.type	nrf_dfu_settings_additional_erase, @function
nrf_dfu_settings_additional_erase:
.LFB145:
	.loc 1 3666 0
	.cfi_startproc
	pushl	%ebp
	.cfi_def_cfa_offset 8
	.cfi_offset 5, -8
	.loc 1 3669 0
	xorl	%eax, %eax
	.loc 1 3666 0
	movl	%esp, %ebp
	.cfi_def_cfa_register 5
	.loc 1 3669 0
	popl	%ebp
	.cfi_restore 5
	.cfi_def_cfa 4, 4
	ret
	.cfi_endproc
.LFE145:
	.size	nrf_dfu_settings_additional_erase, .-nrf_dfu_settings_additional_erase
	.section	.text.unlikely.nrf_dfu_settings_additional_erase
.LCOLDE3:
	.section	.text.nrf_dfu_settings_additional_erase
.LHOTE3:
	.globl	s_dfu_settings
	.section	.bss.s_dfu_settings,"aw",@nobits
	.align 32
	.type	s_dfu_settings, @object
	.size	s_dfu_settings, 400
s_dfu_settings:
	.zero	400
	.globl	m_uicr_mbr_params_page_address
	.section	.uicr_mbr_params_page,"a",@progbits
	.align 4
	.type	m_uicr_mbr_params_page_address, @object
	.size	m_uicr_mbr_params_page_address, 4
m_uicr_mbr_params_page_address:
	.long	1040384
	.globl	m_mbr_params_page
	.section	.mbr_params_page,"aw",@progbits
	.align 32
	.type	m_mbr_params_page, @object
	.size	m_mbr_params_page, 4096
m_mbr_params_page:
	.zero	4096
	.globl	m_dfu_settings_buffer
	.section	.bootloader_settings_page,"aw",@progbits
	.align 32
	.type	m_dfu_settings_buffer, @object
	.size	m_dfu_settings_buffer, 4096
m_dfu_settings_buffer:
	.zero	4096
	.text
.Letext0:
	.section	.text.unlikely.nrf_dfu_settings_crc_get
.Letext_cold0:
	.section	.note.GNU-stack,"",@progbits
