	.file	"nrf_memobj.c"
	.text
.Ltext0:
	.section	.text.unlikely.memobj_op,"ax",@progbits
.LCOLDB0:
	.section	.text.memobj_op,"ax",@progbits
.LHOTB0:
	.section	.text.unlikely.memobj_op
.Ltext_cold0:
	.section	.text.memobj_op
	.type	memobj_op, @function
memobj_op:
.LFB163:
	.file 1 "src/nrf_memobj.c"
	.loc 1 3715 0
	.cfi_startproc
.LVL0:
	pushl	%ebp
	.cfi_def_cfa_offset 8
	.cfi_offset 5, -8
	movl	%esp, %ebp
	.cfi_def_cfa_register 5
	pushl	%edi
	pushl	%esi
	pushl	%ebx
	.cfi_offset 7, -12
	.cfi_offset 6, -16
	.cfi_offset 3, -20
	movl	%eax, %ebx
	subl	$20, %esp
	.loc 1 3715 0
	movb	12(%ebp), %al
.LVL1:
	movl	%edx, -28(%ebp)
	.loc 1 3719 0
	xorl	%edx, %edx
.LVL2:
	.loc 1 3715 0
	movl	%ecx, -16(%ebp)
.LVL3:
	movb	%al, -29(%ebp)
	.loc 1 3717 0
	movzwl	6(%ebx), %eax
	movl	%eax, -20(%ebp)
.LVL4:
	.loc 1 3719 0
	movl	8(%ebp), %eax
.LVL5:
	addl	$4, %eax
	divl	-20(%ebp)
.LVL6:
	.loc 1 3720 0
	movl	%edx, %ecx
.LVL7:
.L2:
	.loc 1 3725 0
	testl	%eax, %eax
	je	.L11
	.loc 1 3727 0
	movl	(%ebx), %ebx
.LVL8:
	.loc 1 3728 0
	decl	%eax
.LVL9:
	jmp	.L2
.L11:
.LVL10:
	.loc 1 3731 0
	movl	-20(%ebp), %eax
.LVL11:
	subl	%edx, %eax
	.loc 1 3732 0
	cmpl	%eax, -16(%ebp)
	.loc 1 3731 0
	movl	%eax, %edx
.LVL12:
	.loc 1 3732 0
	cmovbe	-16(%ebp), %edx
.LVL13:
	.loc 1 3730 0
	xorl	%eax, %eax
.LVL14:
.L4:
	.loc 1 3733 0
	cmpl	$0, -16(%ebp)
	je	.L12
	movl	-28(%ebp), %esi
	.loc 1 3735 0
	cmpb	$0, -29(%ebp)
	leal	(%esi,%eax), %edi
	leal	(%ebx,%ecx), %esi
	movl	%edi, -24(%ebp)
	je	.L5
	.loc 1 3737 0
	addl	$4, %esi
	jmp	.L9
.L5:
	.loc 1 3741 0
	leal	4(%esi), %ecx
.LVL15:
	movl	-24(%ebp), %esi
	movl	%ecx, %edi
.L9:
	movl	%edx, %ecx
	.loc 1 3746 0
	addl	%edx, %eax
.LVL16:
	.loc 1 3741 0
	rep movsb
.LVL17:
	.loc 1 3745 0
	subl	%edx, -16(%ebp)
.LVL18:
	.loc 1 3744 0
	movl	(%ebx), %ebx
.LVL19:
	.loc 1 3747 0
	movl	-16(%ebp), %esi
	cmpl	%esi, -20(%ebp)
	movl	%esi, %edx
.LVL20:
	cmovbe	-20(%ebp), %edx
.LVL21:
	.loc 1 3743 0
	xorl	%ecx, %ecx
	jmp	.L4
.LVL22:
.L12:
	.loc 1 3749 0
	addl	$20, %esp
	popl	%ebx
	.cfi_restore 3
.LVL23:
	popl	%esi
	.cfi_restore 6
	popl	%edi
	.cfi_restore 7
	popl	%ebp
	.cfi_restore 5
	.cfi_def_cfa 4, 4
	ret
	.cfi_endproc
.LFE163:
	.size	memobj_op, .-memobj_op
	.section	.text.unlikely.memobj_op
.LCOLDE0:
	.section	.text.memobj_op
.LHOTE0:
	.section	.text.unlikely.nrf_memobj_pool_init,"ax",@progbits
.LCOLDB1:
	.section	.text.nrf_memobj_pool_init,"ax",@progbits
.LHOTB1:
	.globl	nrf_memobj_pool_init
	.type	nrf_memobj_pool_init, @function
nrf_memobj_pool_init:
.LFB158:
	.loc 1 3628 0
	.cfi_startproc
.LVL24:
	pushl	%ebp
	.cfi_def_cfa_offset 8
	.cfi_offset 5, -8
	movl	%esp, %ebp
	.cfi_def_cfa_register 5
	.loc 1 3630 0
	popl	%ebp
	.cfi_restore 5
	.cfi_def_cfa 4, 4
	.loc 1 3629 0
	jmp	nrf_balloc_init
.LVL25:
	.cfi_endproc
.LFE158:
	.size	nrf_memobj_pool_init, .-nrf_memobj_pool_init
	.section	.text.unlikely.nrf_memobj_pool_init
.LCOLDE1:
	.section	.text.nrf_memobj_pool_init
.LHOTE1:
	.section	.text.unlikely.nrf_memobj_free,"ax",@progbits
.LCOLDB2:
	.section	.text.nrf_memobj_free,"ax",@progbits
.LHOTB2:
	.globl	nrf_memobj_free
	.type	nrf_memobj_free, @function
nrf_memobj_free:
.LFB160:
	.loc 1 3674 0
	.cfi_startproc
.LVL26:
	pushl	%ebp
	.cfi_def_cfa_offset 8
	.cfi_offset 5, -8
	.loc 1 3681 0
	xorl	%edx, %edx
	.loc 1 3674 0
	movl	%esp, %ebp
	.cfi_def_cfa_register 5
	pushl	%edi
	pushl	%esi
	pushl	%ebx
	subl	$28, %esp
	.cfi_offset 7, -12
	.cfi_offset 6, -16
	.cfi_offset 3, -20
	.loc 1 3674 0
	movl	8(%ebp), %eax
.LVL27:
	.loc 1 3680 0
	movzbl	5(%eax), %ecx
	.loc 1 3681 0
	movl	%eax, %ebx
	.loc 1 3680 0
	leal	-1(%ecx), %esi
.LVL28:
.L16:
	.loc 1 3681 0 discriminator 1
	cmpl	%esi, %edx
	movl	(%ebx), %ebx
.LVL29:
	jnb	.L21
.LVL30:
	.loc 1 3681 0 is_stmt 0 discriminator 3
	incl	%edx
.LVL31:
	jmp	.L16
.LVL32:
.L21:
	.loc 1 3687 0 is_stmt 1
	xorl	%edi, %edi
.LVL33:
.L18:
	.loc 1 3687 0 is_stmt 0 discriminator 1
	cmpl	%ecx, %edi
	jnb	.L22
	.loc 1 3689 0 is_stmt 1 discriminator 3
	movl	(%eax), %esi
.LVL34:
	.loc 1 3690 0 discriminator 3
	pushl	%edx
	.loc 1 3687 0 discriminator 3
	incl	%edi
.LVL35:
	.loc 1 3690 0 discriminator 3
	pushl	%edx
	pushl	%eax
	pushl	%ebx
	movl	%ecx, -28(%ebp)
	call	nrf_balloc_free
.LVL36:
	.loc 1 3687 0 discriminator 3
	addl	$16, %esp
	.loc 1 3691 0 discriminator 3
	movl	%esi, %eax
	movl	-28(%ebp), %ecx
	jmp	.L18
.LVL37:
.L22:
	.loc 1 3693 0
	leal	-12(%ebp), %esp
	popl	%ebx
	.cfi_restore 3
.LVL38:
	popl	%esi
	.cfi_restore 6
	popl	%edi
	.cfi_restore 7
.LVL39:
	popl	%ebp
	.cfi_restore 5
	.cfi_def_cfa 4, 4
	ret
	.cfi_endproc
.LFE160:
	.size	nrf_memobj_free, .-nrf_memobj_free
	.section	.text.unlikely.nrf_memobj_free
.LCOLDE2:
	.section	.text.nrf_memobj_free
.LHOTE2:
	.section	.text.unlikely.nrf_memobj_alloc,"ax",@progbits
.LCOLDB3:
	.section	.text.nrf_memobj_alloc,"ax",@progbits
.LHOTB3:
	.globl	nrf_memobj_alloc
	.type	nrf_memobj_alloc, @function
nrf_memobj_alloc:
.LFB159:
	.loc 1 3633 0
	.cfi_startproc
.LVL40:
	pushl	%ebp
	.cfi_def_cfa_offset 8
	.cfi_offset 5, -8
	.loc 1 3635 0
	xorl	%edx, %edx
	.loc 1 3633 0
	movl	%esp, %ebp
	.cfi_def_cfa_register 5
	pushl	%edi
	pushl	%esi
	pushl	%ebx
	subl	$40, %esp
	.cfi_offset 7, -12
	.cfi_offset 6, -16
	.cfi_offset 3, -20
	.loc 1 3633 0
	movl	8(%ebp), %ebx
	.loc 1 3635 0
	movl	12(%ebp), %eax
	.loc 1 3634 0
	movzwl	16(%ebx), %edi
	.loc 1 3636 0
	pushl	%ebx
	.loc 1 3634 0
	subl	$4, %edi
.LVL41:
	.loc 1 3635 0
	addl	%edi, %eax
	addl	$3, %eax
	divl	%edi
	movl	%eax, -28(%ebp)
.LVL42:
	.loc 1 3636 0
	call	nrf_balloc_alloc
.LVL43:
	movl	%eax, %esi
.LVL44:
	.loc 1 3637 0
	addl	$16, %esp
	.loc 1 3642 0
	xorl	%eax, %eax
.LVL45:
	.loc 1 3637 0
	testl	%esi, %esi
	je	.L24
	movzbl	-28(%ebp), %eax
	.loc 1 3647 0
	movw	%di, 6(%esi)
.LVL46:
	.loc 1 3653 0
	movl	%esi, %edx
	.loc 1 3645 0
	movb	$0, 4(%esi)
	.loc 1 3646 0
	movb	$1, 5(%esi)
	.loc 1 3653 0
	movl	$1, %edi
.LVL47:
	.loc 1 3652 0
	movl	%ebx, (%esi)
	movl	%eax, -28(%ebp)
.LVL48:
.L25:
	.loc 1 3653 0 discriminator 1
	cmpl	%edi, -28(%ebp)
	je	.L30
	.loc 1 3655 0
	subl	$12, %esp
	movl	%edx, -32(%ebp)
	incl	%edi
.LVL49:
	pushl	%ebx
	call	nrf_balloc_alloc
.LVL50:
	.loc 1 3656 0
	addl	$16, %esp
	testl	%eax, %eax
	je	.L26
	.loc 1 3659 0
	movl	-32(%ebp), %edx
	.loc 1 3658 0
	incb	5(%esi)
	.loc 1 3659 0
	movl	%eax, (%edx)
	.loc 1 3660 0
	movl	%eax, %edx
	movl	%ebx, (%eax)
.LVL51:
	jmp	.L25
.LVL52:
.L26:
	.loc 1 3665 0
	subl	$12, %esp
	pushl	%esi
	call	nrf_memobj_free
.LVL53:
	.loc 1 3667 0
	addl	$16, %esp
	xorl	%eax, %eax
	jmp	.L24
.LVL54:
.L30:
	movl	%esi, %eax
.LVL55:
.L24:
	.loc 1 3672 0
	leal	-12(%ebp), %esp
	popl	%ebx
	.cfi_restore 3
	popl	%esi
	.cfi_restore 6
.LVL56:
	popl	%edi
	.cfi_restore 7
	popl	%ebp
	.cfi_restore 5
	.cfi_def_cfa 4, 4
	ret
	.cfi_endproc
.LFE159:
	.size	nrf_memobj_alloc, .-nrf_memobj_alloc
	.section	.text.unlikely.nrf_memobj_alloc
.LCOLDE3:
	.section	.text.nrf_memobj_alloc
.LHOTE3:
	.section	.text.unlikely.nrf_memobj_get,"ax",@progbits
.LCOLDB4:
	.section	.text.nrf_memobj_get,"ax",@progbits
.LHOTB4:
	.globl	nrf_memobj_get
	.type	nrf_memobj_get, @function
nrf_memobj_get:
.LFB161:
	.loc 1 3695 0
	.cfi_startproc
.LVL57:
	pushl	%ebp
	.cfi_def_cfa_offset 8
	.cfi_offset 5, -8
.LBB7:
.LBB8:
.LBB9:
	.loc 1 3557 0
	movl	$1, %edx
.LBE9:
.LBE8:
.LBE7:
	.loc 1 3695 0
	movl	%esp, %ebp
	.cfi_def_cfa_register 5
.LVL58:
	pushl	%esi
	pushl	%ebx
	.cfi_offset 6, -12
	.cfi_offset 3, -16
	.loc 1 3697 0
	movl	8(%ebp), %eax
	addl	$4, %eax
.LVL59:
.LBB12:
.LBB11:
.LBB10:
	.loc 1 3557 0
#APP
# 3557 "src/nrf_memobj.c" 1
	1:     ldrex   %ecx, [%eax]
add %ebx, %ecx, %edx
       strex   %esi, %ebx, [%eax]
       teq     %esi, #0
       bne.n     1b
# 0 "" 2
.LVL60:
#NO_APP
.LBE10:
.LBE11:
.LBE12:
	.loc 1 3698 0
	popl	%ebx
	.cfi_restore 3
	popl	%esi
	.cfi_restore 6
	popl	%ebp
	.cfi_restore 5
	.cfi_def_cfa 4, 4
	ret
	.cfi_endproc
.LFE161:
	.size	nrf_memobj_get, .-nrf_memobj_get
	.section	.text.unlikely.nrf_memobj_get
.LCOLDE4:
	.section	.text.nrf_memobj_get
.LHOTE4:
	.section	.text.unlikely.nrf_memobj_put,"ax",@progbits
.LCOLDB5:
	.section	.text.nrf_memobj_put,"ax",@progbits
.LHOTB5:
	.globl	nrf_memobj_put
	.type	nrf_memobj_put, @function
nrf_memobj_put:
.LFB162:
	.loc 1 3700 0
	.cfi_startproc
.LVL61:
	pushl	%ebp
	.cfi_def_cfa_offset 8
	.cfi_offset 5, -8
.LBB16:
.LBB17:
.LBB18:
	.loc 1 3575 0
	movl	$1, %edx
.LBE18:
.LBE17:
.LBE16:
	.loc 1 3700 0
	movl	%esp, %ebp
	.cfi_def_cfa_register 5
	pushl	%edi
	pushl	%esi
	movl	8(%ebp), %ecx
.LVL62:
	pushl	%ebx
	.cfi_offset 7, -12
	.cfi_offset 6, -16
	.cfi_offset 3, -20
	.loc 1 3702 0
	leal	4(%ecx), %eax
.LVL63:
.LBB21:
.LBB20:
.LBB19:
	.loc 1 3575 0
#APP
# 3575 "src/nrf_memobj.c" 1
	1:     ldrex   %esi, [%eax]
sub %ebx, %esi, %edx
       strex   %edi, %ebx, [%eax]
       teq     %edi, #0
       bne.n     1b
# 0 "" 2
.LVL64:
#NO_APP
.LBE19:
.LBE20:
.LBE21:
	.loc 1 3704 0
	testb	%bl, %bl
	jne	.L33
	.loc 1 3708 0
	popl	%ebx
	.cfi_remember_state
	.cfi_restore 3
	popl	%esi
	.cfi_restore 6
	popl	%edi
	.cfi_restore 7
	popl	%ebp
	.cfi_restore 5
	.cfi_def_cfa 4, 4
	.loc 1 3706 0
	jmp	nrf_memobj_free
.LVL65:
.L33:
	.cfi_restore_state
	.loc 1 3708 0
	popl	%ebx
	.cfi_restore 3
	popl	%esi
	.cfi_restore 6
	popl	%edi
	.cfi_restore 7
	popl	%ebp
	.cfi_restore 5
	.cfi_def_cfa 4, 4
	ret
	.cfi_endproc
.LFE162:
	.size	nrf_memobj_put, .-nrf_memobj_put
	.section	.text.unlikely.nrf_memobj_put
.LCOLDE5:
	.section	.text.nrf_memobj_put
.LHOTE5:
	.section	.text.unlikely.nrf_memobj_write,"ax",@progbits
.LCOLDB6:
	.section	.text.nrf_memobj_write,"ax",@progbits
.LHOTB6:
	.globl	nrf_memobj_write
	.type	nrf_memobj_write, @function
nrf_memobj_write:
.LFB164:
	.loc 1 3754 0
	.cfi_startproc
.LVL66:
	pushl	%ebp
	.cfi_def_cfa_offset 8
	.cfi_offset 5, -8
	movl	%esp, %ebp
	.cfi_def_cfa_register 5
	.loc 1 3755 0
	movl	20(%ebp), %ecx
	.loc 1 3754 0
	movl	8(%ebp), %eax
	movl	12(%ebp), %edx
	.loc 1 3755 0
	movl	$0, 12(%ebp)
.LVL67:
	movl	%ecx, 8(%ebp)
.LVL68:
	movl	16(%ebp), %ecx
	.loc 1 3758 0
	popl	%ebp
	.cfi_restore 5
	.cfi_def_cfa 4, 4
	.loc 1 3755 0
	jmp	memobj_op
.LVL69:
	.cfi_endproc
.LFE164:
	.size	nrf_memobj_write, .-nrf_memobj_write
	.section	.text.unlikely.nrf_memobj_write
.LCOLDE6:
	.section	.text.nrf_memobj_write
.LHOTE6:
	.section	.text.unlikely.nrf_memobj_read,"ax",@progbits
.LCOLDB7:
	.section	.text.nrf_memobj_read,"ax",@progbits
.LHOTB7:
	.globl	nrf_memobj_read
	.type	nrf_memobj_read, @function
nrf_memobj_read:
.LFB165:
	.loc 1 3763 0
	.cfi_startproc
.LVL70:
	pushl	%ebp
	.cfi_def_cfa_offset 8
	.cfi_offset 5, -8
	movl	%esp, %ebp
	.cfi_def_cfa_register 5
	.loc 1 3764 0
	movl	20(%ebp), %ecx
	.loc 1 3763 0
	movl	8(%ebp), %eax
	movl	12(%ebp), %edx
	.loc 1 3764 0
	movl	$1, 12(%ebp)
.LVL71:
	movl	%ecx, 8(%ebp)
.LVL72:
	movl	16(%ebp), %ecx
	.loc 1 3767 0
	popl	%ebp
	.cfi_restore 5
	.cfi_def_cfa 4, 4
	.loc 1 3764 0
	jmp	memobj_op
.LVL73:
	.cfi_endproc
.LFE165:
	.size	nrf_memobj_read, .-nrf_memobj_read
	.section	.text.unlikely.nrf_memobj_read
.LCOLDE7:
	.section	.text.nrf_memobj_read
.LHOTE7:
	.text
.Letext0:
	.section	.text.unlikely.memobj_op
.Letext_cold0:
	.section	.note.GNU-stack,"",@progbits
