	.file	"nrf_nvic.c"
	.text
.Ltext0:
	.section	.text.unlikely.sd_nvic_EnableIRQ,"ax",@progbits
.LCOLDB0:
	.section	.text.sd_nvic_EnableIRQ,"ax",@progbits
.LHOTB0:
	.section	.text.unlikely.sd_nvic_EnableIRQ
.Ltext_cold0:
	.section	.text.sd_nvic_EnableIRQ
	.globl	sd_nvic_EnableIRQ
	.type	sd_nvic_EnableIRQ, @function
sd_nvic_EnableIRQ:
.LFB124:
	.file 1 "src/nrf_nvic.c"
	.loc 1 2844 0
	.cfi_startproc
.LVL0:
	pushl	%ebp
	.cfi_def_cfa_offset 8
	.cfi_offset 5, -8
.LBB14:
.LBB15:
	.loc 1 1270 0
	movl	$1, %eax
.LBE15:
.LBE14:
	.loc 1 2844 0
	movl	%esp, %ebp
	.cfi_def_cfa_register 5
	.loc 1 2844 0
	movl	8(%ebp), %ecx
.LVL1:
.LBB17:
.LBB16:
	.loc 1 1270 0
	movl	%ecx, %edx
	sall	%cl, %eax
	shrl	$5, %edx
	movl	%eax, -536813312(,%edx,4)
.LVL2:
.LBE16:
.LBE17:
	.loc 1 2847 0
	xorl	%eax, %eax
	popl	%ebp
	.cfi_restore 5
	.cfi_def_cfa 4, 4
	ret
	.cfi_endproc
.LFE124:
	.size	sd_nvic_EnableIRQ, .-sd_nvic_EnableIRQ
	.section	.text.unlikely.sd_nvic_EnableIRQ
.LCOLDE0:
	.section	.text.sd_nvic_EnableIRQ
.LHOTE0:
	.section	.text.unlikely.sd_nvic_DisableIRQ,"ax",@progbits
.LCOLDB1:
	.section	.text.sd_nvic_DisableIRQ,"ax",@progbits
.LHOTB1:
	.globl	sd_nvic_DisableIRQ
	.type	sd_nvic_DisableIRQ, @function
sd_nvic_DisableIRQ:
.LFB125:
	.loc 1 2849 0
	.cfi_startproc
.LVL3:
	pushl	%ebp
	.cfi_def_cfa_offset 8
	.cfi_offset 5, -8
.LBB20:
.LBB21:
	.loc 1 1274 0
	movl	$1, %edx
.LBE21:
.LBE20:
	.loc 1 2849 0
	movl	%esp, %ebp
	.cfi_def_cfa_register 5
	.loc 1 2849 0
	movl	8(%ebp), %ecx
.LVL4:
.LBB23:
.LBB22:
	.loc 1 1274 0
	movl	%ecx, %eax
	sall	%cl, %edx
	shrl	$5, %eax
	addl	$32, %eax
	movl	%edx, -536813312(,%eax,4)
.LVL5:
.LBE22:
.LBE23:
	.loc 1 2852 0
	xorl	%eax, %eax
	popl	%ebp
	.cfi_restore 5
	.cfi_def_cfa 4, 4
	ret
	.cfi_endproc
.LFE125:
	.size	sd_nvic_DisableIRQ, .-sd_nvic_DisableIRQ
	.section	.text.unlikely.sd_nvic_DisableIRQ
.LCOLDE1:
	.section	.text.sd_nvic_DisableIRQ
.LHOTE1:
	.section	.text.unlikely.sd_nvic_GetPendingIRQ,"ax",@progbits
.LCOLDB2:
	.section	.text.sd_nvic_GetPendingIRQ,"ax",@progbits
.LHOTB2:
	.globl	sd_nvic_GetPendingIRQ
	.type	sd_nvic_GetPendingIRQ, @function
sd_nvic_GetPendingIRQ:
.LFB126:
	.loc 1 2854 0
	.cfi_startproc
.LVL6:
	pushl	%ebp
	.cfi_def_cfa_offset 8
	.cfi_offset 5, -8
	movl	$14, %eax
	movl	%esp, %ebp
	.cfi_def_cfa_register 5
	.loc 1 2854 0
	movl	12(%ebp), %edx
	movl	8(%ebp), %ecx
	.loc 1 2855 0
	testl	%edx, %edx
	je	.L6
.LVL7:
.LBB26:
.LBB27:
	.loc 1 1278 0
	movl	%ecx, %eax
	shrl	$5, %eax
	addl	$64, %eax
	movl	-536813312(,%eax,4), %eax
.LVL8:
.LBE27:
.LBE26:
	.loc 1 2859 0
	shrl	%cl, %eax
	andl	$1, %eax
	movl	%eax, (%edx)
	.loc 1 2860 0
	xorl	%eax, %eax
.L6:
	.loc 1 2863 0
	popl	%ebp
	.cfi_restore 5
	.cfi_def_cfa 4, 4
	ret
	.cfi_endproc
.LFE126:
	.size	sd_nvic_GetPendingIRQ, .-sd_nvic_GetPendingIRQ
	.section	.text.unlikely.sd_nvic_GetPendingIRQ
.LCOLDE2:
	.section	.text.sd_nvic_GetPendingIRQ
.LHOTE2:
	.section	.text.unlikely.sd_nvic_SetPendingIRQ,"ax",@progbits
.LCOLDB3:
	.section	.text.sd_nvic_SetPendingIRQ,"ax",@progbits
.LHOTB3:
	.globl	sd_nvic_SetPendingIRQ
	.type	sd_nvic_SetPendingIRQ, @function
sd_nvic_SetPendingIRQ:
.LFB127:
	.loc 1 2865 0
	.cfi_startproc
.LVL9:
	pushl	%ebp
	.cfi_def_cfa_offset 8
	.cfi_offset 5, -8
.LBB30:
.LBB31:
	.loc 1 1282 0
	movl	$1, %edx
.LBE31:
.LBE30:
	.loc 1 2865 0
	movl	%esp, %ebp
	.cfi_def_cfa_register 5
	.loc 1 2865 0
	movl	8(%ebp), %ecx
.LVL10:
.LBB33:
.LBB32:
	.loc 1 1282 0
	movl	%ecx, %eax
	sall	%cl, %edx
	shrl	$5, %eax
	addl	$64, %eax
	movl	%edx, -536813312(,%eax,4)
.LVL11:
.LBE32:
.LBE33:
	.loc 1 2868 0
	xorl	%eax, %eax
	popl	%ebp
	.cfi_restore 5
	.cfi_def_cfa 4, 4
	ret
	.cfi_endproc
.LFE127:
	.size	sd_nvic_SetPendingIRQ, .-sd_nvic_SetPendingIRQ
	.section	.text.unlikely.sd_nvic_SetPendingIRQ
.LCOLDE3:
	.section	.text.sd_nvic_SetPendingIRQ
.LHOTE3:
	.section	.text.unlikely.sd_nvic_ClearPendingIRQ,"ax",@progbits
.LCOLDB4:
	.section	.text.sd_nvic_ClearPendingIRQ,"ax",@progbits
.LHOTB4:
	.globl	sd_nvic_ClearPendingIRQ
	.type	sd_nvic_ClearPendingIRQ, @function
sd_nvic_ClearPendingIRQ:
.LFB128:
	.loc 1 2870 0
	.cfi_startproc
.LVL12:
	pushl	%ebp
	.cfi_def_cfa_offset 8
	.cfi_offset 5, -8
.LBB36:
.LBB37:
	.loc 1 1286 0
	movl	$1, %edx
.LBE37:
.LBE36:
	.loc 1 2870 0
	movl	%esp, %ebp
	.cfi_def_cfa_register 5
	.loc 1 2870 0
	movl	8(%ebp), %ecx
.LVL13:
.LBB39:
.LBB38:
	.loc 1 1286 0
	movl	%ecx, %eax
	sall	%cl, %edx
	shrl	$5, %eax
	addl	$96, %eax
	movl	%edx, -536813312(,%eax,4)
.LVL14:
.LBE38:
.LBE39:
	.loc 1 2873 0
	xorl	%eax, %eax
	popl	%ebp
	.cfi_restore 5
	.cfi_def_cfa 4, 4
	ret
	.cfi_endproc
.LFE128:
	.size	sd_nvic_ClearPendingIRQ, .-sd_nvic_ClearPendingIRQ
	.section	.text.unlikely.sd_nvic_ClearPendingIRQ
.LCOLDE4:
	.section	.text.sd_nvic_ClearPendingIRQ
.LHOTE4:
	.section	.text.unlikely.sd_nvic_SetPriority,"ax",@progbits
.LCOLDB5:
	.section	.text.sd_nvic_SetPriority,"ax",@progbits
.LHOTB5:
	.globl	sd_nvic_SetPriority
	.type	sd_nvic_SetPriority, @function
sd_nvic_SetPriority:
.LFB129:
	.loc 1 2875 0
	.cfi_startproc
.LVL15:
	pushl	%ebp
	.cfi_def_cfa_offset 8
	.cfi_offset 5, -8
	movl	%esp, %ebp
	.cfi_def_cfa_register 5
	.loc 1 2875 0
	movl	8(%ebp), %eax
.LVL16:
	movl	12(%ebp), %edx
.LVL17:
.LBB42:
.LBB43:
	.loc 1 1294 0
	testl	%eax, %eax
	jns	.L17
	.loc 1 1296 0
	andl	$15, %eax
	sall	$5, %edx
	movb	%dl, -536810220(%eax)
.LVL18:
	jmp	.L18
.LVL19:
.L17:
	.loc 1 1300 0
	sall	$5, %edx
.LVL20:
	movb	%dl, -536812544(%eax)
.LVL21:
.L18:
.LBE43:
.LBE42:
	.loc 1 2878 0
	xorl	%eax, %eax
	popl	%ebp
	.cfi_restore 5
	.cfi_def_cfa 4, 4
	ret
	.cfi_endproc
.LFE129:
	.size	sd_nvic_SetPriority, .-sd_nvic_SetPriority
	.section	.text.unlikely.sd_nvic_SetPriority
.LCOLDE5:
	.section	.text.sd_nvic_SetPriority
.LHOTE5:
	.section	.text.unlikely.sd_nvic_GetPriority,"ax",@progbits
.LCOLDB6:
	.section	.text.sd_nvic_GetPriority,"ax",@progbits
.LHOTB6:
	.globl	sd_nvic_GetPriority
	.type	sd_nvic_GetPriority, @function
sd_nvic_GetPriority:
.LFB130:
	.loc 1 2880 0
	.cfi_startproc
.LVL22:
	pushl	%ebp
	.cfi_def_cfa_offset 8
	.cfi_offset 5, -8
	movl	$14, %eax
	movl	%esp, %ebp
	.cfi_def_cfa_register 5
	.loc 1 2880 0
	movl	12(%ebp), %edx
	movl	8(%ebp), %ecx
	.loc 1 2881 0
	testl	%edx, %edx
	je	.L21
.LVL23:
.LBB46:
.LBB47:
	.loc 1 1305 0
	testl	%ecx, %ecx
	jns	.L22
	.loc 1 1307 0
	andl	$15, %ecx
	movb	-536810220(%ecx), %al
	jmp	.L28
.LVL24:
.L22:
	.loc 1 1311 0
	movb	-536812544(%ecx), %al
.LVL25:
.L28:
	shrb	$5, %al
	movzbl	%al, %eax
.LVL26:
.LBE47:
.LBE46:
	.loc 1 2885 0
	movl	%eax, (%edx)
	.loc 1 2886 0
	xorl	%eax, %eax
.LVL27:
.L21:
	.loc 1 2889 0
	popl	%ebp
	.cfi_restore 5
	.cfi_def_cfa 4, 4
	ret
	.cfi_endproc
.LFE130:
	.size	sd_nvic_GetPriority, .-sd_nvic_GetPriority
	.section	.text.unlikely.sd_nvic_GetPriority
.LCOLDE6:
	.section	.text.sd_nvic_GetPriority
.LHOTE6:
	.section	.text.unlikely.sd_nvic_SystemReset,"ax",@progbits
.LCOLDB7:
	.section	.text.sd_nvic_SystemReset,"ax",@progbits
.LHOTB7:
	.globl	sd_nvic_SystemReset
	.type	sd_nvic_SystemReset, @function
sd_nvic_SystemReset:
.LFB131:
	.loc 1 2891 0
	.cfi_startproc
	pushl	%ebp
	.cfi_def_cfa_offset 8
	.cfi_offset 5, -8
	movl	%esp, %ebp
	.cfi_def_cfa_register 5
.LBB56:
.LBB57:
.LBB58:
.LBB59:
	.loc 1 559 0
#APP
# 559 "src/nrf_nvic.c" 1
	dsb 0xF
# 0 "" 2
#NO_APP
.LBE59:
.LBE58:
	.loc 1 1340 0
	movl	-536810228, %eax
	.loc 1 1339 0
	andl	$1792, %eax
	orl	$100270084, %eax
	movl	%eax, -536810228
.LBB60:
.LBB61:
	.loc 1 559 0
#APP
# 559 "src/nrf_nvic.c" 1
	dsb 0xF
# 0 "" 2
#NO_APP
.L30:
.LBE61:
.LBE60:
.LBB62:
.LBB63:
	.loc 1 539 0
#APP
# 539 "src/nrf_nvic.c" 1
	nop
# 0 "" 2
#NO_APP
	jmp	.L30
.LBE63:
.LBE62:
.LBE57:
.LBE56:
	.cfi_endproc
.LFE131:
	.size	sd_nvic_SystemReset, .-sd_nvic_SystemReset
	.section	.text.unlikely.sd_nvic_SystemReset
.LCOLDE7:
	.section	.text.sd_nvic_SystemReset
.LHOTE7:
	.section	.text.unlikely.sd_nvic_critical_region_enter,"ax",@progbits
.LCOLDB8:
	.section	.text.sd_nvic_critical_region_enter,"ax",@progbits
.LHOTB8:
	.globl	sd_nvic_critical_region_enter
	.type	sd_nvic_critical_region_enter, @function
sd_nvic_critical_region_enter:
.LFB132:
	.loc 1 2896 0
	.cfi_startproc
.LVL28:
	pushl	%ebp
	.cfi_def_cfa_offset 8
	.cfi_offset 5, -8
	movl	%esp, %ebp
	.cfi_def_cfa_register 5
.LBB64:
.LBB65:
	.loc 1 438 0
#APP
# 438 "src/nrf_nvic.c" 1
	cpsid i
# 0 "" 2
#NO_APP
.LBE65:
.LBE64:
	.loc 1 2898 0
	movb	m_in_critical_region, %al
	movl	8(%ebp), %edx
	testb	%al, %al
	setne	(%edx)
	.loc 1 2899 0
	incl	%eax
	movb	%al, m_in_critical_region
	.loc 1 2901 0
	xorl	%eax, %eax
	popl	%ebp
	.cfi_restore 5
	.cfi_def_cfa 4, 4
	ret
	.cfi_endproc
.LFE132:
	.size	sd_nvic_critical_region_enter, .-sd_nvic_critical_region_enter
	.section	.text.unlikely.sd_nvic_critical_region_enter
.LCOLDE8:
	.section	.text.sd_nvic_critical_region_enter
.LHOTE8:
	.section	.text.unlikely.sd_nvic_critical_region_exit,"ax",@progbits
.LCOLDB9:
	.section	.text.sd_nvic_critical_region_exit,"ax",@progbits
.LHOTB9:
	.globl	sd_nvic_critical_region_exit
	.type	sd_nvic_critical_region_exit, @function
sd_nvic_critical_region_exit:
.LFB133:
	.loc 1 2903 0
	.cfi_startproc
.LVL29:
	pushl	%ebp
	.cfi_def_cfa_offset 8
	.cfi_offset 5, -8
	movl	%esp, %ebp
	.cfi_def_cfa_register 5
	.loc 1 2905 0
	cmpb	$0, 8(%ebp)
	je	.L35
	.loc 1 2904 0
	decb	m_in_critical_region
	jmp	.L36
.L35:
	.loc 1 2907 0
	movb	$0, m_in_critical_region
.LBB66:
.LBB67:
	.loc 1 434 0
#APP
# 434 "src/nrf_nvic.c" 1
	cpsie i
# 0 "" 2
#NO_APP
.L36:
.LBE67:
.LBE66:
	.loc 1 2911 0
	xorl	%eax, %eax
	popl	%ebp
	.cfi_restore 5
	.cfi_def_cfa 4, 4
	ret
	.cfi_endproc
.LFE133:
	.size	sd_nvic_critical_region_exit, .-sd_nvic_critical_region_exit
	.section	.text.unlikely.sd_nvic_critical_region_exit
.LCOLDE9:
	.section	.text.sd_nvic_critical_region_exit
.LHOTE9:
	.section	.bss.m_in_critical_region,"aw",@nobits
	.type	m_in_critical_region, @object
	.size	m_in_critical_region, 1
m_in_critical_region:
	.zero	1
	.text
.Letext0:
	.section	.text.unlikely.sd_nvic_EnableIRQ
.Letext_cold0:
	.section	.note.GNU-stack,"",@progbits
