	.file	"nrf_dfu_flash.c"
	.text
.Ltext0:
	.section	.text.unlikely.dfu_fstorage_evt_handler,"ax",@progbits
.LCOLDB0:
	.section	.text.dfu_fstorage_evt_handler,"ax",@progbits
.LHOTB0:
	.section	.text.unlikely.dfu_fstorage_evt_handler
.Ltext_cold0:
	.section	.text.dfu_fstorage_evt_handler
	.globl	dfu_fstorage_evt_handler
	.type	dfu_fstorage_evt_handler, @function
dfu_fstorage_evt_handler:
.LFB142:
	.file 1 "src/nrf_dfu_flash.c"
	.loc 1 3573 0
	.cfi_startproc
.LVL0:
	.loc 1 3574 0
	movl	m_flash_operations_pending, %eax
	.loc 1 3573 0
	pushl	%ebp
	.cfi_def_cfa_offset 8
	.cfi_offset 5, -8
	movl	%esp, %ebp
	.cfi_def_cfa_register 5
	.loc 1 3574 0
	testl	%eax, %eax
	.loc 1 3573 0
	movl	8(%ebp), %edx
	.loc 1 3574 0
	je	.L2
	.loc 1 3576 0
	movl	m_flash_operations_pending, %eax
	decl	%eax
	movl	%eax, m_flash_operations_pending
.L2:
	.loc 1 3588 0
	movl	16(%edx), %eax
	testl	%eax, %eax
	je	.L1
	.loc 1 3591 0
	movl	%edx, 8(%ebp)
.LVL1:
	.loc 1 3593 0
	popl	%ebp
	.cfi_remember_state
	.cfi_restore 5
	.cfi_def_cfa 4, 4
	.loc 1 3591 0
	jmp	*%eax
.LVL2:
.L1:
	.cfi_restore_state
	.loc 1 3593 0
	popl	%ebp
	.cfi_restore 5
	.cfi_def_cfa 4, 4
	ret
	.cfi_endproc
.LFE142:
	.size	dfu_fstorage_evt_handler, .-dfu_fstorage_evt_handler
	.section	.text.unlikely.dfu_fstorage_evt_handler
.LCOLDE0:
	.section	.text.dfu_fstorage_evt_handler
.LHOTE0:
	.section	.text.unlikely.nrf_dfu_flash_init,"ax",@progbits
.LCOLDB1:
	.section	.text.nrf_dfu_flash_init,"ax",@progbits
.LHOTB1:
	.globl	nrf_dfu_flash_init
	.type	nrf_dfu_flash_init, @function
nrf_dfu_flash_init:
.LFB143:
	.loc 1 3597 0
	.cfi_startproc
.LVL3:
	pushl	%ebp
	.cfi_def_cfa_offset 8
	.cfi_offset 5, -8
	movl	%esp, %ebp
	.cfi_def_cfa_register 5
	subl	$12, %esp
	.loc 1 3605 0
	pushl	$0
	pushl	$nrf_fstorage_nvmc
	pushl	$m_fs
	call	nrf_fstorage_init
.LVL4:
	.loc 1 3608 0
	leave
	.cfi_restore 5
	.cfi_def_cfa 4, 4
	ret
	.cfi_endproc
.LFE143:
	.size	nrf_dfu_flash_init, .-nrf_dfu_flash_init
	.section	.text.unlikely.nrf_dfu_flash_init
.LCOLDE1:
	.section	.text.nrf_dfu_flash_init
.LHOTE1:
	.section	.text.unlikely.nrf_dfu_flash_store,"ax",@progbits
.LCOLDB2:
	.section	.text.nrf_dfu_flash_store,"ax",@progbits
.LHOTB2:
	.globl	nrf_dfu_flash_store
	.type	nrf_dfu_flash_store, @function
nrf_dfu_flash_store:
.LFB144:
	.loc 1 3613 0
	.cfi_startproc
.LVL5:
	pushl	%ebp
	.cfi_def_cfa_offset 8
	.cfi_offset 5, -8
	movl	%esp, %ebp
	.cfi_def_cfa_register 5
	subl	$20, %esp
	.loc 1 3615 0
	movl	m_flash_operations_pending, %eax
	.loc 1 3618 0
	pushl	20(%ebp)
	pushl	16(%ebp)
	pushl	12(%ebp)
	pushl	8(%ebp)
	pushl	$m_fs
	.loc 1 3615 0
	incl	%eax
	movl	%eax, m_flash_operations_pending
	.loc 1 3618 0
	call	nrf_fstorage_write
.LVL6:
	.loc 1 3624 0
	leave
	.cfi_restore 5
	.cfi_def_cfa 4, 4
	ret
	.cfi_endproc
.LFE144:
	.size	nrf_dfu_flash_store, .-nrf_dfu_flash_store
	.section	.text.unlikely.nrf_dfu_flash_store
.LCOLDE2:
	.section	.text.nrf_dfu_flash_store
.LHOTE2:
	.section	.text.unlikely.nrf_dfu_flash_erase,"ax",@progbits
.LCOLDB3:
	.section	.text.nrf_dfu_flash_erase,"ax",@progbits
.LHOTB3:
	.globl	nrf_dfu_flash_erase
	.type	nrf_dfu_flash_erase, @function
nrf_dfu_flash_erase:
.LFB145:
	.loc 1 3628 0
	.cfi_startproc
.LVL7:
	pushl	%ebp
	.cfi_def_cfa_offset 8
	.cfi_offset 5, -8
	movl	%esp, %ebp
	.cfi_def_cfa_register 5
	subl	$8, %esp
	.loc 1 3630 0
	movl	m_flash_operations_pending, %eax
	.loc 1 3633 0
	pushl	16(%ebp)
	pushl	12(%ebp)
	pushl	8(%ebp)
	pushl	$m_fs
	.loc 1 3630 0
	incl	%eax
	movl	%eax, m_flash_operations_pending
	.loc 1 3633 0
	call	nrf_fstorage_erase
.LVL8:
	.loc 1 3639 0
	leave
	.cfi_restore 5
	.cfi_def_cfa 4, 4
	ret
	.cfi_endproc
.LFE145:
	.size	nrf_dfu_flash_erase, .-nrf_dfu_flash_erase
	.section	.text.unlikely.nrf_dfu_flash_erase
.LCOLDE3:
	.section	.text.nrf_dfu_flash_erase
.LHOTE3:
	.section	.bss.m_flash_operations_pending,"aw",@nobits
	.align 4
	.type	m_flash_operations_pending, @object
	.size	m_flash_operations_pending, 4
m_flash_operations_pending:
	.zero	4
	.globl	m_fs
	.section	.fs_data,"aw",@progbits
	.align 4
	.type	m_fs, @object
	.size	m_fs, 20
m_fs:
	.zero	8
	.long	dfu_fstorage_evt_handler
	.long	0
	.long	1048576
	.text
.Letext0:
	.section	.text.unlikely.dfu_fstorage_evt_handler
.Letext_cold0:
	.section	.note.GNU-stack,"",@progbits
