	.file	"nrf_assert.c"
	.text
.Ltext0:
	.section	.text.unlikely.assert_nrf_callback,"ax",@progbits
.LCOLDB0:
	.section	.text.assert_nrf_callback,"ax",@progbits
.LHOTB0:
	.section	.text.unlikely.assert_nrf_callback
.Ltext_cold0:
	.section	.text.assert_nrf_callback
	.weak	assert_nrf_callback
	.type	assert_nrf_callback, @function
assert_nrf_callback:
.LFB125:
	.file 1 "src/nrf_assert.c"
	.loc 1 3056 0
	.cfi_startproc
.LVL0:
	pushl	%ebp
	.cfi_def_cfa_offset 8
	.cfi_offset 5, -8
	movl	%esp, %ebp
	.cfi_def_cfa_register 5
	subl	$28, %esp
	.loc 1 3056 0
	movl	%gs:20, %eax
	movl	%eax, -12(%ebp)
	xorl	%eax, %eax
	.loc 1 3057 0
	movl	8(%ebp), %eax
	movw	%ax, -20(%ebp)
	movl	12(%ebp), %eax
	movl	%eax, -16(%ebp)
	.loc 1 3062 0
	leal	-20(%ebp), %eax
	pushl	%eax
	pushl	$0
	pushl	$16386
	call	app_error_fault_handler
.LVL1:
	.loc 1 3064 0
	addl	$16, %esp
	movl	-12(%ebp), %eax
	xorl	%gs:20, %eax
	je	.L2
	call	__stack_chk_fail
.LVL2:
.L2:
	leave
	.cfi_restore 5
	.cfi_def_cfa 4, 4
	ret
	.cfi_endproc
.LFE125:
	.size	assert_nrf_callback, .-assert_nrf_callback
	.section	.text.unlikely.assert_nrf_callback
.LCOLDE0:
	.section	.text.assert_nrf_callback
.LHOTE0:
	.text
.Letext0:
	.section	.text.unlikely.assert_nrf_callback
.Letext_cold0:
	.section	.note.GNU-stack,"",@progbits
