	.file	"nrf_drv_common.c"
	.text
.Ltext0:
	.section	.text.unlikely.nrf_drv_common_clock_irq_disable,"ax",@progbits
.LCOLDB0:
	.section	.text.nrf_drv_common_clock_irq_disable,"ax",@progbits
.LHOTB0:
	.section	.text.unlikely.nrf_drv_common_clock_irq_disable
.Ltext_cold0:
	.section	.text.nrf_drv_common_clock_irq_disable
	.globl	nrf_drv_common_clock_irq_disable
	.type	nrf_drv_common_clock_irq_disable, @function
nrf_drv_common_clock_irq_disable:
.LFB148:
	.file 1 "src/nrf_drv_common.c"
	.loc 1 3349 0
	.cfi_startproc
.LVL0:
	pushl	%ebp
	.cfi_def_cfa_offset 8
	.cfi_offset 5, -8
.LBB8:
.LBB9:
.LBB10:
	.loc 1 951 0
	movl	$1, -536813184
.LVL1:
.LBE10:
.LBE9:
.LBE8:
	.loc 1 3349 0
	movl	%esp, %ebp
	.cfi_def_cfa_register 5
	.loc 1 3353 0
	popl	%ebp
	.cfi_restore 5
	.cfi_def_cfa 4, 4
	ret
	.cfi_endproc
.LFE148:
	.size	nrf_drv_common_clock_irq_disable, .-nrf_drv_common_clock_irq_disable
	.section	.text.unlikely.nrf_drv_common_clock_irq_disable
.LCOLDE0:
	.section	.text.nrf_drv_common_clock_irq_disable
.LHOTE0:
	.section	.text.unlikely.nrf_drv_common_irq_enable,"ax",@progbits
.LCOLDB1:
	.section	.text.nrf_drv_common_irq_enable,"ax",@progbits
.LHOTB1:
	.globl	nrf_drv_common_irq_enable
	.type	nrf_drv_common_irq_enable, @function
nrf_drv_common_irq_enable:
.LFB149:
	.loc 1 3355 0
	.cfi_startproc
.LVL2:
	pushl	%ebp
	.cfi_def_cfa_offset 8
	.cfi_offset 5, -8
	movl	%esp, %ebp
	.cfi_def_cfa_register 5
.LVL3:
	.loc 1 3355 0
	movl	8(%ebp), %ecx
	movl	12(%ebp), %eax
.LVL4:
.LBB17:
.LBB18:
	.loc 1 971 0
	testl	%ecx, %ecx
	jns	.L4
	.loc 1 973 0
	movl	%ecx, %edx
	sall	$5, %eax
.LVL5:
	andl	$15, %edx
	movb	%al, -536810220(%edx)
.LVL6:
	jmp	.L5
.LVL7:
.L4:
	.loc 1 977 0
	sall	$5, %eax
.LVL8:
	movb	%al, -536812544(%ecx)
.LVL9:
.L5:
.LBE18:
.LBE17:
.LBB19:
.LBB20:
	.loc 1 963 0
	movl	$1, %eax
	sall	%cl, %eax
	shrl	$5, %ecx
.LVL10:
	leal	-536813312(,%ecx,4), %edx
	movl	%eax, 384(%edx)
.LVL11:
.LBE20:
.LBE19:
.LBB21:
.LBB22:
	.loc 1 947 0
	movl	%eax, -536813312(,%ecx,4)
.LBE22:
.LBE21:
	.loc 1 3360 0
	popl	%ebp
	.cfi_restore 5
	.cfi_def_cfa 4, 4
	ret
	.cfi_endproc
.LFE149:
	.size	nrf_drv_common_irq_enable, .-nrf_drv_common_irq_enable
	.section	.text.unlikely.nrf_drv_common_irq_enable
.LCOLDE1:
	.section	.text.nrf_drv_common_irq_enable
.LHOTE1:
	.text
.Letext0:
	.section	.text.unlikely.nrf_drv_common_clock_irq_disable
.Letext_cold0:
	.section	.note.GNU-stack,"",@progbits
