	.file	"nrf_drv_systick.c"
	.text
.Ltext0:
	.section	.text.unlikely.nrf_drv_systick_init,"ax",@progbits
.LCOLDB0:
	.section	.text.nrf_drv_systick_init,"ax",@progbits
.LHOTB0:
	.section	.text.unlikely.nrf_drv_systick_init
.Ltext_cold0:
	.section	.text.nrf_drv_systick_init
	.globl	nrf_drv_systick_init
	.type	nrf_drv_systick_init, @function
nrf_drv_systick_init:
.LFB162:
	.file 1 "src/nrf_drv_systick.c"
	.loc 1 4012 0
	.cfi_startproc
	.loc 1 4013 0
	movl	SystemCoreClock, %eax
	movl	$100, %ecx
	xorl	%edx, %edx
	.loc 1 4012 0
	pushl	%ebp
	.cfi_def_cfa_offset 8
	.cfi_offset 5, -8
	.loc 1 4013 0
	divl	%ecx
.LVL0:
	.loc 1 4012 0
	movl	%esp, %ebp
	.cfi_def_cfa_register 5
.LBB22:
.LBB23:
	.loc 1 2948 0
	movl	%eax, -536813548
.LVL1:
.LBE23:
.LBE22:
.LBB24:
.LBB25:
	.loc 1 2940 0
	movl	$7, -536813552
.LVL2:
.LBE25:
.LBE24:
	.loc 1 4018 0
	popl	%ebp
	.cfi_restore 5
	.cfi_def_cfa 4, 4
	ret
	.cfi_endproc
.LFE162:
	.size	nrf_drv_systick_init, .-nrf_drv_systick_init
	.section	.text.unlikely.nrf_drv_systick_init
.LCOLDE0:
	.section	.text.nrf_drv_systick_init
.LHOTE0:
	.section	.text.unlikely.nrf_drv_systick_get,"ax",@progbits
.LCOLDB1:
	.section	.text.nrf_drv_systick_get,"ax",@progbits
.LHOTB1:
	.globl	nrf_drv_systick_get
	.type	nrf_drv_systick_get, @function
nrf_drv_systick_get:
.LFB163:
	.loc 1 4020 0
	.cfi_startproc
.LVL3:
	pushl	%ebp
	.cfi_def_cfa_offset 8
	.cfi_offset 5, -8
.LBB26:
.LBB27:
	.loc 1 2952 0
	movl	-536813544, %edx
.LBE27:
.LBE26:
	.loc 1 4020 0
	movl	%esp, %ebp
	.cfi_def_cfa_register 5
	.loc 1 4021 0
	movl	8(%ebp), %eax
	movl	%edx, (%eax)
	.loc 1 4022 0
	popl	%ebp
	.cfi_restore 5
	.cfi_def_cfa 4, 4
	ret
	.cfi_endproc
.LFE163:
	.size	nrf_drv_systick_get, .-nrf_drv_systick_get
	.section	.text.unlikely.nrf_drv_systick_get
.LCOLDE1:
	.section	.text.nrf_drv_systick_get
.LHOTE1:
	.section	.text.unlikely.nrf_drv_systick_test,"ax",@progbits
.LCOLDB2:
	.section	.text.nrf_drv_systick_test,"ax",@progbits
.LHOTB2:
	.globl	nrf_drv_systick_test
	.type	nrf_drv_systick_test, @function
nrf_drv_systick_test:
.LFB164:
	.loc 1 4025 0
	.cfi_startproc
.LVL4:
	pushl	%ebp
	.cfi_def_cfa_offset 8
	.cfi_offset 5, -8
	movl	%esp, %ebp
	.cfi_def_cfa_register 5
	pushl	%ebx
	.cfi_offset 3, -12
.LBB28:
.LBB29:
	.loc 1 2952 0
	movl	-536813544, %eax
.LVL5:
.LBE29:
.LBE28:
	.loc 1 4028 0
	movl	8(%ebp), %edx
	movl	$1000000, %ebx
	movl	(%edx), %ecx
	xorl	%edx, %edx
	subl	%eax, %ecx
	movl	SystemCoreClock, %eax
.LVL6:
	andl	$16777215, %ecx
.LVL7:
	divl	%ebx
	.loc 1 4029 0
	popl	%ebx
	.cfi_restore 3
	.loc 1 4028 0
	imull	12(%ebp), %eax
	.loc 1 4029 0
	popl	%ebp
	.cfi_restore 5
	.cfi_def_cfa 4, 4
	.loc 1 4028 0
	cmpl	%eax, %ecx
	setnb	%al
	.loc 1 4029 0
	ret
	.cfi_endproc
.LFE164:
	.size	nrf_drv_systick_test, .-nrf_drv_systick_test
	.section	.text.unlikely.nrf_drv_systick_test
.LCOLDE2:
	.section	.text.nrf_drv_systick_test
.LHOTE2:
	.section	.text.unlikely.nrf_drv_systick_delay_ticks,"ax",@progbits
.LCOLDB3:
	.section	.text.nrf_drv_systick_delay_ticks,"ax",@progbits
.LHOTB3:
	.globl	nrf_drv_systick_delay_ticks
	.type	nrf_drv_systick_delay_ticks, @function
nrf_drv_systick_delay_ticks:
.LFB165:
	.loc 1 4031 0
	.cfi_startproc
.LVL8:
	pushl	%ebp
	.cfi_def_cfa_offset 8
	.cfi_offset 5, -8
.LBB30:
.LBB31:
	.loc 1 2952 0
	movl	-536813544, %edx
.LBE31:
.LBE30:
	.loc 1 4031 0
	movl	%esp, %ebp
	.cfi_def_cfa_register 5
.L8:
.LBB32:
.LBB33:
	.loc 1 2952 0 discriminator 1
	movl	-536813544, %eax
.LBE33:
.LBE32:
	.loc 1 4034 0 discriminator 1
	movl	%edx, %ecx
	subl	%eax, %ecx
	movl	%ecx, %eax
	andl	$16777215, %eax
	cmpl	8(%ebp), %eax
	jb	.L8
	.loc 1 4037 0
	popl	%ebp
	.cfi_restore 5
	.cfi_def_cfa 4, 4
	ret
	.cfi_endproc
.LFE165:
	.size	nrf_drv_systick_delay_ticks, .-nrf_drv_systick_delay_ticks
	.section	.text.unlikely.nrf_drv_systick_delay_ticks
.LCOLDE3:
	.section	.text.nrf_drv_systick_delay_ticks
.LHOTE3:
	.section	.text.unlikely.nrf_drv_systick_delay_us,"ax",@progbits
.LCOLDB4:
	.section	.text.nrf_drv_systick_delay_us,"ax",@progbits
.LHOTB4:
	.globl	nrf_drv_systick_delay_us
	.type	nrf_drv_systick_delay_us, @function
nrf_drv_systick_delay_us:
.LFB166:
	.loc 1 4039 0
	.cfi_startproc
.LVL9:
	.loc 1 4041 0
	movl	SystemCoreClock, %eax
	movl	$1000000, %ecx
	xorl	%edx, %edx
	.loc 1 4039 0
	pushl	%ebp
	.cfi_def_cfa_offset 8
	.cfi_offset 5, -8
	.loc 1 4041 0
	divl	%ecx
	.loc 1 4039 0
	movl	%esp, %ebp
	.cfi_def_cfa_register 5
	.loc 1 4041 0
	imull	8(%ebp), %eax
	movl	%eax, 8(%ebp)
.LVL10:
	.loc 1 4042 0
	popl	%ebp
	.cfi_restore 5
	.cfi_def_cfa 4, 4
	.loc 1 4041 0
	jmp	nrf_drv_systick_delay_ticks
.LVL11:
	.cfi_endproc
.LFE166:
	.size	nrf_drv_systick_delay_us, .-nrf_drv_systick_delay_us
	.section	.text.unlikely.nrf_drv_systick_delay_us
.LCOLDE4:
	.section	.text.nrf_drv_systick_delay_us
.LHOTE4:
	.section	.text.unlikely.nrf_drv_systick_delay_ms,"ax",@progbits
.LCOLDB5:
	.section	.text.nrf_drv_systick_delay_ms,"ax",@progbits
.LHOTB5:
	.globl	nrf_drv_systick_delay_ms
	.type	nrf_drv_systick_delay_ms, @function
nrf_drv_systick_delay_ms:
.LFB167:
	.loc 1 4044 0
	.cfi_startproc
.LVL12:
	pushl	%ebp
	.cfi_def_cfa_offset 8
	.cfi_offset 5, -8
	movl	%esp, %ebp
	.cfi_def_cfa_register 5
	pushl	%esi
	pushl	%ebx
	.cfi_offset 6, -12
	.cfi_offset 3, -16
	.loc 1 4044 0
	movl	8(%ebp), %ebx
	.loc 1 4045 0
	movl	%ebx, %esi
	.loc 1 4046 0
	andl	$63, %ebx
	.loc 1 4045 0
	shrl	$6, %esi
.LVL13:
.L15:
	.loc 1 4047 0
	decl	%esi
.LVL14:
	movl	SystemCoreClock, %eax
	.loc 1 4049 0
	movl	$1000, %ecx
	.loc 1 4047 0
	cmpl	$-1, %esi
	.loc 1 4049 0
	movl	$0, %edx
	.loc 1 4047 0
	je	.L18
	.loc 1 4049 0
	divl	%ecx
	sall	$6, %eax
	pushl	%eax
	call	nrf_drv_systick_delay_ticks
.LVL15:
	popl	%eax
	jmp	.L15
.L18:
	.loc 1 4051 0
	divl	%ecx
	imull	%ebx, %eax
	movl	%eax, 8(%ebp)
	.loc 1 4052 0
	leal	-8(%ebp), %esp
	popl	%ebx
	.cfi_restore 3
.LVL16:
	popl	%esi
	.cfi_restore 6
.LVL17:
	popl	%ebp
	.cfi_restore 5
	.cfi_def_cfa 4, 4
	.loc 1 4051 0
	jmp	nrf_drv_systick_delay_ticks
.LVL18:
	.cfi_endproc
.LFE167:
	.size	nrf_drv_systick_delay_ms, .-nrf_drv_systick_delay_ms
	.section	.text.unlikely.nrf_drv_systick_delay_ms
.LCOLDE5:
	.section	.text.nrf_drv_systick_delay_ms
.LHOTE5:
	.text
.Letext0:
	.section	.text.unlikely.nrf_drv_systick_init
.Letext_cold0:
	.section	.note.GNU-stack,"",@progbits
