	.file	"nrf_strerror.c"
	.text
.Ltext0:
	.section	.text.unlikely.nrf_strerror_find,"ax",@progbits
.LCOLDB0:
	.section	.text.nrf_strerror_find,"ax",@progbits
.LHOTB0:
	.section	.text.unlikely.nrf_strerror_find
.Ltext_cold0:
	.section	.text.nrf_strerror_find
	.globl	nrf_strerror_find
	.type	nrf_strerror_find, @function
nrf_strerror_find:
.LFB141:
	.file 1 "src/nrf_strerror.c"
	.loc 1 2954 0
	.cfi_startproc
.LVL0:
	pushl	%ebp
	.cfi_def_cfa_offset 8
	.cfi_offset 5, -8
	.loc 1 2957 0
	movl	$nrf_strerror_array, %ecx
	.loc 1 2954 0
	movl	%esp, %ebp
	.cfi_def_cfa_register 5
	pushl	%esi
	.cfi_offset 6, -12
.LBB2:
	.loc 1 2961 0
	movl	$2, %esi
.LBE2:
	.loc 1 2954 0
	pushl	%ebx
	.cfi_offset 3, -16
	.loc 1 2958 0
	movl	$nrf_strerror_array+240, %ebx
.LVL1:
.L3:
	.loc 1 2959 0
	cmpl	%ecx, %ebx
	jbe	.L10
.LBB3:
	.loc 1 2961 0
	movl	%ebx, %eax
	subl	%ecx, %eax
	sarl	$3, %eax
	cltd
	idivl	%esi
	.loc 1 2963 0
	movl	8(%ebp), %edx
	.loc 1 2961 0
	leal	(%ecx,%eax,8), %eax
.LVL2:
	.loc 1 2963 0
	cmpl	%edx, (%eax)
	ja	.L7
	.loc 1 2967 0
	jnb	.L4
	.loc 1 2969 0
	leal	8(%eax), %ecx
.LVL3:
	jmp	.L3
.L4:
	.loc 1 2973 0
	movl	4(%eax), %eax
.LVL4:
	jmp	.L5
.LVL5:
.L7:
	movl	%eax, %ebx
.LVL6:
	jmp	.L3
.LVL7:
.L10:
.LBE3:
	.loc 1 2977 0
	xorl	%eax, %eax
.L5:
	.loc 1 2979 0
	popl	%ebx
	.cfi_restore 3
.LVL8:
	popl	%esi
	.cfi_restore 6
	popl	%ebp
	.cfi_restore 5
	.cfi_def_cfa 4, 4
	ret
	.cfi_endproc
.LFE141:
	.size	nrf_strerror_find, .-nrf_strerror_find
	.section	.text.unlikely.nrf_strerror_find
.LCOLDE0:
	.section	.text.nrf_strerror_find
.LHOTE0:
	.section	.text.unlikely.nrf_strerror_get,"ax",@progbits
.LCOLDB1:
	.section	.text.nrf_strerror_get,"ax",@progbits
.LHOTB1:
	.globl	nrf_strerror_get
	.type	nrf_strerror_get, @function
nrf_strerror_get:
.LFB140:
	.loc 1 2947 0
	.cfi_startproc
.LVL9:
	pushl	%ebp
	.cfi_def_cfa_offset 8
	.cfi_offset 5, -8
	movl	%esp, %ebp
	.cfi_def_cfa_register 5
	.loc 1 2948 0
	pushl	8(%ebp)
	call	nrf_strerror_find
.LVL10:
	popl	%edx
.LVL11:
	.loc 1 2951 0
	testl	%eax, %eax
	movl	$m_unknown_str, %edx
	cmove	%edx, %eax
.LVL12:
	.loc 1 2952 0
	leave
	.cfi_restore 5
	.cfi_def_cfa 4, 4
	ret
	.cfi_endproc
.LFE140:
	.size	nrf_strerror_get, .-nrf_strerror_get
	.section	.text.unlikely.nrf_strerror_get
.LCOLDE1:
	.section	.text.nrf_strerror_get
.LHOTE1:
	.section	.rodata.str1.1,"aMS",@progbits,1
.LC2:
	.string	"NRF_SUCCESS"
.LC3:
	.string	"NRF_ERROR_SVC_HANDLER_MISSING"
.LC4:
	.string	"NRF_ERROR_SOFTDEVICE_NOT_ENABLED"
.LC5:
	.string	"NRF_ERROR_INTERNAL"
.LC6:
	.string	"NRF_ERROR_NO_MEM"
.LC7:
	.string	"NRF_ERROR_NOT_FOUND"
.LC8:
	.string	"NRF_ERROR_NOT_SUPPORTED"
.LC9:
	.string	"NRF_ERROR_INVALID_PARAM"
.LC10:
	.string	"NRF_ERROR_INVALID_STATE"
.LC11:
	.string	"NRF_ERROR_INVALID_LENGTH"
.LC12:
	.string	"NRF_ERROR_INVALID_FLAGS"
.LC13:
	.string	"NRF_ERROR_INVALID_DATA"
.LC14:
	.string	"NRF_ERROR_DATA_SIZE"
.LC15:
	.string	"NRF_ERROR_TIMEOUT"
.LC16:
	.string	"NRF_ERROR_NULL"
.LC17:
	.string	"NRF_ERROR_FORBIDDEN"
.LC18:
	.string	"NRF_ERROR_INVALID_ADDR"
.LC19:
	.string	"NRF_ERROR_BUSY"
.LC20:
	.string	"NRF_ERROR_MODULE_NOT_INITIALZED"
.LC21:
	.string	"NRF_ERROR_MUTEX_INIT_FAILED"
.LC22:
	.string	"NRF_ERROR_MUTEX_LOCK_FAILED"
.LC23:
	.string	"NRF_ERROR_MUTEX_UNLOCK_FAILED"
.LC24:
	.string	"NRF_ERROR_MUTEX_COND_INIT_FAILED"
.LC25:
	.string	"NRF_ERROR_MODULE_ALREADY_INITIALIZED"
.LC26:
	.string	"NRF_ERROR_STORAGE_FULL"
.LC27:
	.string	"NRF_ERROR_API_NOT_IMPLEMENTED"
.LC28:
	.string	"NRF_ERROR_FEATURE_NOT_ENABLED"
.LC29:
	.string	"NRF_ERROR_DRV_TWI_ERR_OVERRUN"
.LC30:
	.string	"NRF_ERROR_DRV_TWI_ERR_ANACK"
.LC31:
	.string	"NRF_ERROR_DRV_TWI_ERR_DNACK"
	.section	.rodata.nrf_strerror_array,"a",@progbits
	.align 32
	.type	nrf_strerror_array, @object
	.size	nrf_strerror_array, 240
nrf_strerror_array:
	.long	0
	.long	.LC2
	.long	1
	.long	.LC3
	.long	2
	.long	.LC4
	.long	3
	.long	.LC5
	.long	4
	.long	.LC6
	.long	5
	.long	.LC7
	.long	6
	.long	.LC8
	.long	7
	.long	.LC9
	.long	8
	.long	.LC10
	.long	9
	.long	.LC11
	.long	10
	.long	.LC12
	.long	11
	.long	.LC13
	.long	12
	.long	.LC14
	.long	13
	.long	.LC15
	.long	14
	.long	.LC16
	.long	15
	.long	.LC17
	.long	16
	.long	.LC18
	.long	17
	.long	.LC19
	.long	128
	.long	.LC20
	.long	129
	.long	.LC21
	.long	130
	.long	.LC22
	.long	131
	.long	.LC23
	.long	132
	.long	.LC24
	.long	133
	.long	.LC25
	.long	134
	.long	.LC26
	.long	144
	.long	.LC27
	.long	145
	.long	.LC28
	.long	33280
	.long	.LC29
	.long	33281
	.long	.LC30
	.long	33282
	.long	.LC31
	.section	.rodata.m_unknown_str,"a",@progbits
	.align 4
	.type	m_unknown_str, @object
	.size	m_unknown_str, 19
m_unknown_str:
	.string	"Unknown error code"
	.text
.Letext0:
	.section	.text.unlikely.nrf_strerror_find
.Letext_cold0:
	.section	.note.GNU-stack,"",@progbits
