	.file	"nrf_drv_gpiote.c"
	.text
.Ltext0:
	.section	.text.unlikely.nrf_gpiote_event_clear,"ax",@progbits
.LCOLDB0:
	.section	.text.nrf_gpiote_event_clear,"ax",@progbits
.LHOTB0:
	.section	.text.unlikely.nrf_gpiote_event_clear
.Ltext_cold0:
	.section	.text.nrf_gpiote_event_clear
	.type	nrf_gpiote_event_clear, @function
nrf_gpiote_event_clear:
.LFB143:
	.file 1 "src/nrf_drv_gpiote.c"
	.loc 1 3207 0
	.cfi_startproc
.LVL0:
	pushl	%ebp
	.cfi_def_cfa_offset 8
	.cfi_offset 5, -8
	movl	%esp, %ebp
	.cfi_def_cfa_register 5
	subl	$16, %esp
	.loc 1 3208 0
	movl	$0, 1073766400(%eax)
	.loc 1 3209 0
	movl	1073766400(%eax), %eax
.LVL1:
	movl	%eax, -4(%ebp)
	.loc 1 3210 0
	movl	-4(%ebp), %eax
	.loc 1 3211 0
	leave
	.cfi_restore 5
	.cfi_def_cfa 4, 4
	ret
	.cfi_endproc
.LFE143:
	.size	nrf_gpiote_event_clear, .-nrf_gpiote_event_clear
	.section	.text.unlikely.nrf_gpiote_event_clear
.LCOLDE0:
	.section	.text.nrf_gpiote_event_clear
.LHOTE0:
	.section	.text.unlikely.nrf_gpio_pin_port_decode,"ax",@progbits
.LCOLDB1:
	.section	.text.nrf_gpio_pin_port_decode,"ax",@progbits
.LHOTB1:
	.type	nrf_gpio_pin_port_decode, @function
nrf_gpio_pin_port_decode:
.LFB159:
	.loc 1 3862 0
	.cfi_startproc
.LVL2:
	pushl	%ebp
	.cfi_def_cfa_offset 8
	.cfi_offset 5, -8
	.loc 1 3864 0
	movl	(%eax), %edx
	.loc 1 3862 0
	movl	%esp, %ebp
	.cfi_def_cfa_register 5
	.loc 1 3864 0
	cmpl	$31, %edx
	jbe	.L5
	.loc 1 3870 0
	andl	$31, %edx
	movl	%edx, (%eax)
	.loc 1 3871 0
	movl	$1342178048, %eax
.LVL3:
	jmp	.L4
.LVL4:
.L5:
	.loc 1 3866 0
	movl	$1342177280, %eax
.LVL5:
.L4:
	.loc 1 3873 0
	popl	%ebp
	.cfi_restore 5
	.cfi_def_cfa 4, 4
	ret
	.cfi_endproc
.LFE159:
	.size	nrf_gpio_pin_port_decode, .-nrf_gpio_pin_port_decode
	.section	.text.unlikely.nrf_gpio_pin_port_decode
.LCOLDE1:
	.section	.text.nrf_gpio_pin_port_decode
.LHOTE1:
	.section	.text.unlikely.nrf_gpio_cfg_sense_set,"ax",@progbits
.LCOLDB2:
	.section	.text.nrf_gpio_cfg_sense_set,"ax",@progbits
.LHOTB2:
	.type	nrf_gpio_cfg_sense_set, @function
nrf_gpio_cfg_sense_set:
.LFB169:
	.loc 1 3960 0
	.cfi_startproc
.LVL6:
	pushl	%ebp
	.cfi_def_cfa_offset 8
	.cfi_offset 5, -8
	movl	%esp, %ebp
	.cfi_def_cfa_register 5
	pushl	%ebx
	pushl	%ecx
	.cfi_offset 3, -12
	.loc 1 3960 0
	movl	%eax, -8(%ebp)
	.loc 1 3961 0
	leal	-8(%ebp), %eax
.LVL7:
	.loc 1 3960 0
	movl	%edx, %ebx
	.loc 1 3963 0
	sall	$16, %ebx
	.loc 1 3961 0
	call	nrf_gpio_pin_port_decode
.LVL8:
	movl	-8(%ebp), %edx
	leal	(%eax,%edx,4), %eax
.LVL9:
	.loc 1 3962 0
	movl	1792(%eax), %edx
	andl	$-196609, %edx
	movl	%edx, 1792(%eax)
	.loc 1 3963 0
	movl	1792(%eax), %ecx
	movl	%ebx, %edx
	orl	%ecx, %edx
	movl	%edx, 1792(%eax)
	.loc 1 3964 0
	popl	%ebx
	popl	%ebx
	.cfi_restore 3
	popl	%ebp
	.cfi_restore 5
	.cfi_def_cfa 4, 4
.LVL10:
	ret
	.cfi_endproc
.LFE169:
	.size	nrf_gpio_cfg_sense_set, .-nrf_gpio_cfg_sense_set
	.section	.text.unlikely.nrf_gpio_cfg_sense_set
.LCOLDE2:
	.section	.text.nrf_gpio_cfg_sense_set
.LHOTE2:
	.section	.text.unlikely.channel_free,"ax",@progbits
.LCOLDB3:
	.section	.text.channel_free,"ax",@progbits
.LHOTB3:
	.type	channel_free, @function
channel_free:
.LFB214:
	.loc 1 4469 0
	.cfi_startproc
.LVL11:
	pushl	%ebp
	.cfi_def_cfa_offset 8
	.cfi_offset 5, -8
	.loc 1 4470 0
	movzbl	%al, %edx
	.loc 1 4473 0
	cmpb	$7, %al
	.loc 1 4470 0
	movl	$-1, m_cb(,%edx,4)
	.loc 1 4469 0
	movl	%esp, %ebp
	.cfi_def_cfa_register 5
	.loc 1 4473 0
	jbe	.L10
	.loc 1 4475 0
	movb	$-1, m_cb+88(%edx)
.L10:
	.loc 1 4477 0
	popl	%ebp
	.cfi_restore 5
	.cfi_def_cfa 4, 4
	ret
	.cfi_endproc
.LFE214:
	.size	channel_free, .-channel_free
	.section	.text.unlikely.channel_free
.LCOLDE3:
	.section	.text.channel_free
.LHOTE3:
	.section	.text.unlikely.nrf_drv_gpiote_init,"ax",@progbits
.LCOLDB4:
	.section	.text.nrf_drv_gpiote_init,"ax",@progbits
.LHOTB4:
	.globl	nrf_drv_gpiote_init
	.type	nrf_drv_gpiote_init, @function
nrf_drv_gpiote_init:
.LFB215:
	.loc 1 4479 0
	.cfi_startproc
	.loc 1 4481 0
	cmpl	$0, m_cb+100
	jne	.L20
	xorl	%eax, %eax
.L15:
.LVL12:
.LBB141:
.LBB142:
	.loc 1 4436 0 discriminator 3
	movb	$-1, m_cb+48(%eax)
.LVL13:
	incl	%eax
.LVL14:
.LBE142:
.LBE141:
	.loc 1 4489 0 discriminator 3
	cmpl	$48, %eax
	jne	.L15
	.loc 1 4479 0 discriminator 3
	pushl	%ebp
	.cfi_def_cfa_offset 8
	.cfi_offset 5, -8
	xorl	%ecx, %ecx
	movl	%esp, %ebp
	.cfi_def_cfa_register 5
	subl	$8, %esp
.L16:
.LVL15:
	.loc 1 4495 0 discriminator 3
	movl	%ecx, %eax
	call	channel_free
.LVL16:
	incl	%ecx
.LVL17:
	.loc 1 4493 0 discriminator 3
	cmpl	$12, %ecx
	jne	.L16
	.loc 1 4497 0
	pushl	%eax
	pushl	%eax
	pushl	$7
	pushl	$6
	call	nrf_drv_common_irq_enable
.LVL18:
	.loc 1 4498 0
	movl	$380, %eax
	call	nrf_gpiote_event_clear
.LVL19:
.LBB143:
.LBB144:
	.loc 1 3218 0
	movl	$-2147483648, 1073767172
.LVL20:
.LBE144:
.LBE143:
	.loc 1 4500 0
	movl	$1, m_cb+100
.LVL21:
	.loc 1 4504 0
	addl	$16, %esp
	xorl	%eax, %eax
	.loc 1 4505 0
	leave
	.cfi_restore 5
	.cfi_def_cfa 4, 4
	ret
.LVL22:
.L20:
	movl	$8, %eax
	ret
	.cfi_endproc
.LFE215:
	.size	nrf_drv_gpiote_init, .-nrf_drv_gpiote_init
	.section	.text.unlikely.nrf_drv_gpiote_init
.LCOLDE4:
	.section	.text.nrf_drv_gpiote_init
.LHOTE4:
	.section	.text.unlikely.nrf_drv_gpiote_is_init,"ax",@progbits
.LCOLDB5:
	.section	.text.nrf_drv_gpiote_is_init,"ax",@progbits
.LHOTB5:
	.globl	nrf_drv_gpiote_is_init
	.type	nrf_drv_gpiote_is_init, @function
nrf_drv_gpiote_is_init:
.LFB216:
	.loc 1 4508 0
	.cfi_startproc
	.loc 1 4509 0
	cmpl	$0, m_cb+100
	.loc 1 4508 0
	pushl	%ebp
	.cfi_def_cfa_offset 8
	.cfi_offset 5, -8
	movl	%esp, %ebp
	.cfi_def_cfa_register 5
	.loc 1 4514 0
	popl	%ebp
	.cfi_restore 5
	.cfi_def_cfa 4, 4
	.loc 1 4509 0
	setne	%al
	.loc 1 4514 0
	ret
	.cfi_endproc
.LFE216:
	.size	nrf_drv_gpiote_is_init, .-nrf_drv_gpiote_is_init
	.section	.text.unlikely.nrf_drv_gpiote_is_init
.LCOLDE5:
	.section	.text.nrf_drv_gpiote_is_init
.LHOTE5:
	.section	.text.unlikely.nrf_drv_gpiote_out_init,"ax",@progbits
.LCOLDB6:
	.section	.text.nrf_drv_gpiote_out_init,"ax",@progbits
.LHOTB6:
	.globl	nrf_drv_gpiote_out_init
	.type	nrf_drv_gpiote_out_init, @function
nrf_drv_gpiote_out_init:
.LFB218:
	.loc 1 4535 0
	.cfi_startproc
.LVL23:
	pushl	%ebp
	.cfi_def_cfa_offset 8
	.cfi_offset 5, -8
	movl	%esp, %ebp
	.cfi_def_cfa_register 5
	pushl	%edi
	pushl	%esi
	pushl	%ebx
	subl	$28, %esp
	.cfi_offset 7, -12
	.cfi_offset 6, -16
	.cfi_offset 3, -20
	.loc 1 4535 0
	movl	8(%ebp), %ebx
	movl	12(%ebp), %esi
	movl	%gs:20, %eax
	movl	%eax, -28(%ebp)
	xorl	%eax, %eax
.LVL24:
	.loc 1 4542 0
	movl	$8, %eax
	.loc 1 4540 0
	cmpb	$-1, m_cb+48(%ebx)
	jne	.L26
	.loc 1 4546 0
	cmpb	$0, 8(%esi)
	je	.L27
	xorl	%eax, %eax
.L30:
.LVL25:
.LBB168:
.LBB169:
.LBB170:
	.loc 1 4457 0
	cmpl	$-1, m_cb(,%eax,4)
	jne	.L28
.LVL26:
.LBB171:
.LBB172:
	.loc 1 4423 0
	movb	%al, m_cb+48(%ebx)
	.loc 1 4424 0
	movl	$0, m_cb(,%eax,4)
.LVL27:
	leal	1073766400(,%eax,4), %eax
.LBE172:
.LBE171:
.LBE170:
.LBE169:
	.loc 1 4555 0
	movl	4(%esi), %edx
	movl	(%esi), %ecx
.LVL28:
.LBB174:
.LBB175:
	.loc 1 3263 0
	movl	1296(%eax), %edi
	.loc 1 3266 0
	sall	$16, %ecx
.LVL29:
	sall	$20, %edx
.LVL30:
	andl	$196608, %ecx
	andl	$1048576, %edx
	.loc 1 3263 0
	andl	$-1261313, %edi
	.loc 1 3266 0
	orl	%ecx, %edx
	movl	%ebx, %ecx
	.loc 1 3263 0
	movl	%edi, 1296(%eax)
	.loc 1 3266 0
	sall	$8, %ecx
	movl	1296(%eax), %edi
	andl	$16128, %ecx
	orl	%ecx, %edx
	orl	%edi, %edx
	movl	%edx, 1296(%eax)
	jmp	.L29
.LVL31:
.L28:
.LBE175:
.LBE174:
.LBB176:
.LBB173:
	.loc 1 4455 0
	incl	%eax
.LVL32:
	cmpl	$8, %eax
	jne	.L30
.LBE173:
.LBE176:
	.loc 1 4559 0
	movl	$4, %eax
.LVL33:
	jmp	.L26
.L27:
.LVL34:
.LBE168:
.LBB177:
.LBB178:
	.loc 1 4432 0
	movb	$-2, m_cb+48(%ebx)
.LVL35:
.L29:
.LBE178:
.LBE177:
	.loc 1 4568 0
	cmpl	$1, 4(%esi)
	jne	.L38
.LBB179:
.LBB180:
	.loc 1 3985 0
	leal	-40(%ebp), %eax
	movl	%ebx, -40(%ebp)
.LVL36:
	call	nrf_gpio_pin_port_decode
.LVL37:
	.loc 1 3986 0
	movl	-40(%ebp), %ecx
	movl	$1, %edx
	sall	%cl, %edx
.LVL38:
.LBB181:
.LBB182:
	.loc 1 4057 0
	movl	%edx, 1288(%eax)
.LVL39:
.L31:
.LBE182:
.LBE181:
.LBE180:
.LBE179:
.LBB183:
.LBB184:
.LBB185:
	.loc 1 3898 0
	leal	-32(%ebp), %eax
	movl	%ebx, -32(%ebp)
.LVL40:
	call	nrf_gpio_pin_port_decode
.LVL41:
	.loc 1 3899 0
	movl	-32(%ebp), %esi
	leal	448(%esi), %edx
	movl	$3, (%eax,%edx,4)
.LVL42:
	xorl	%eax, %eax
.LVL43:
.L26:
.LBE185:
.LBE184:
.LBE183:
	.loc 1 4582 0
	movl	-28(%ebp), %edi
	xorl	%gs:20, %edi
	je	.L34
	call	__stack_chk_fail
.LVL44:
.L38:
.LBB186:
.LBB187:
	.loc 1 3990 0
	leal	-36(%ebp), %eax
	movl	%ebx, -36(%ebp)
.LVL45:
	call	nrf_gpio_pin_port_decode
.LVL46:
	.loc 1 3991 0
	movl	-36(%ebp), %ecx
	movl	$1, %edx
	sall	%cl, %edx
.LVL47:
.LBB188:
.LBB189:
	.loc 1 4061 0
	movl	%edx, 1292(%eax)
.LVL48:
	jmp	.L31
.LVL49:
.L34:
.LBE189:
.LBE188:
.LBE187:
.LBE186:
	.loc 1 4582 0
	addl	$28, %esp
	popl	%ebx
	.cfi_restore 3
	popl	%esi
	.cfi_restore 6
	popl	%edi
	.cfi_restore 7
	popl	%ebp
	.cfi_restore 5
	.cfi_def_cfa 4, 4
	ret
	.cfi_endproc
.LFE218:
	.size	nrf_drv_gpiote_out_init, .-nrf_drv_gpiote_out_init
	.section	.text.unlikely.nrf_drv_gpiote_out_init
.LCOLDE6:
	.section	.text.nrf_drv_gpiote_out_init
.LHOTE6:
	.section	.text.unlikely.nrf_drv_gpiote_out_uninit,"ax",@progbits
.LCOLDB7:
	.section	.text.nrf_drv_gpiote_out_uninit,"ax",@progbits
.LHOTB7:
	.globl	nrf_drv_gpiote_out_uninit
	.type	nrf_drv_gpiote_out_uninit, @function
nrf_drv_gpiote_out_uninit:
.LFB219:
	.loc 1 4584 0
	.cfi_startproc
.LVL50:
	pushl	%ebp
	.cfi_def_cfa_offset 8
	.cfi_offset 5, -8
	movl	%esp, %ebp
	.cfi_def_cfa_register 5
	subl	$24, %esp
	.loc 1 4584 0
	movl	8(%ebp), %ecx
	movl	%gs:20, %eax
	movl	%eax, -12(%ebp)
	xorl	%eax, %eax
.LVL51:
.LBB202:
.LBB203:
	.loc 1 4398 0
	movzbl	m_cb+48(%ecx), %eax
.LVL52:
.LBE203:
.LBE202:
	.loc 1 4587 0
	cmpb	$7, %al
	ja	.L41
	.loc 1 4589 0
	call	channel_free
.LVL53:
	.loc 1 4590 0
	movsbl	m_cb+48(%ecx), %eax
.LVL54:
.LBB204:
.LBB205:
	.loc 1 3277 0
	addl	$324, %eax
.LVL55:
	movl	$0, 1073766400(,%eax,4)
.LVL56:
.L41:
.LBE205:
.LBE204:
.LBB206:
.LBB207:
.LBB208:
	.loc 1 3898 0
	leal	-16(%ebp), %eax
.LBE208:
.LBE207:
.LBE206:
.LBB211:
.LBB212:
	.loc 1 4436 0
	movb	$-1, m_cb+48(%ecx)
.LVL57:
	movl	%ecx, -16(%ebp)
.LVL58:
.LBE212:
.LBE211:
.LBB213:
.LBB210:
.LBB209:
	.loc 1 3898 0
	call	nrf_gpio_pin_port_decode
.LVL59:
	.loc 1 3899 0
	movl	-16(%ebp), %edx
	addl	$448, %edx
	movl	$2, (%eax,%edx,4)
.LVL60:
.LBE209:
.LBE210:
.LBE213:
	.loc 1 4594 0
	movl	-12(%ebp), %eax
	xorl	%gs:20, %eax
	je	.L42
	call	__stack_chk_fail
.LVL61:
.L42:
	leave
	.cfi_restore 5
	.cfi_def_cfa 4, 4
	ret
	.cfi_endproc
.LFE219:
	.size	nrf_drv_gpiote_out_uninit, .-nrf_drv_gpiote_out_uninit
	.section	.text.unlikely.nrf_drv_gpiote_out_uninit
.LCOLDE7:
	.section	.text.nrf_drv_gpiote_out_uninit
.LHOTE7:
	.section	.text.unlikely.nrf_drv_gpiote_out_set,"ax",@progbits
.LCOLDB8:
	.section	.text.nrf_drv_gpiote_out_set,"ax",@progbits
.LHOTB8:
	.globl	nrf_drv_gpiote_out_set
	.type	nrf_drv_gpiote_out_set, @function
nrf_drv_gpiote_out_set:
.LFB220:
	.loc 1 4596 0
	.cfi_startproc
.LVL62:
	pushl	%ebp
	.cfi_def_cfa_offset 8
	.cfi_offset 5, -8
	movl	%esp, %ebp
	.cfi_def_cfa_register 5
	subl	$24, %esp
	.loc 1 4596 0
	movl	%gs:20, %eax
	movl	%eax, -12(%ebp)
	xorl	%eax, %eax
	movl	8(%ebp), %eax
	movl	%eax, -16(%ebp)
.LVL63:
.LBB218:
.LBB219:
	.loc 1 3985 0
	leal	-16(%ebp), %eax
.LVL64:
	call	nrf_gpio_pin_port_decode
.LVL65:
	.loc 1 3986 0
	movl	-16(%ebp), %ecx
	movl	$1, %edx
	sall	%cl, %edx
.LVL66:
.LBB220:
.LBB221:
	.loc 1 4057 0
	movl	%edx, 1288(%eax)
.LVL67:
.LBE221:
.LBE220:
.LBE219:
.LBE218:
	.loc 1 4601 0
	movl	-12(%ebp), %eax
	xorl	%gs:20, %eax
	je	.L45
	call	__stack_chk_fail
.LVL68:
.L45:
	leave
	.cfi_restore 5
	.cfi_def_cfa 4, 4
	ret
	.cfi_endproc
.LFE220:
	.size	nrf_drv_gpiote_out_set, .-nrf_drv_gpiote_out_set
	.section	.text.unlikely.nrf_drv_gpiote_out_set
.LCOLDE8:
	.section	.text.nrf_drv_gpiote_out_set
.LHOTE8:
	.section	.text.unlikely.nrf_drv_gpiote_out_clear,"ax",@progbits
.LCOLDB9:
	.section	.text.nrf_drv_gpiote_out_clear,"ax",@progbits
.LHOTB9:
	.globl	nrf_drv_gpiote_out_clear
	.type	nrf_drv_gpiote_out_clear, @function
nrf_drv_gpiote_out_clear:
.LFB221:
	.loc 1 4603 0
	.cfi_startproc
.LVL69:
	pushl	%ebp
	.cfi_def_cfa_offset 8
	.cfi_offset 5, -8
	movl	%esp, %ebp
	.cfi_def_cfa_register 5
	subl	$24, %esp
	.loc 1 4603 0
	movl	%gs:20, %eax
	movl	%eax, -12(%ebp)
	xorl	%eax, %eax
	movl	8(%ebp), %eax
	movl	%eax, -16(%ebp)
.LVL70:
.LBB226:
.LBB227:
	.loc 1 3990 0
	leal	-16(%ebp), %eax
.LVL71:
	call	nrf_gpio_pin_port_decode
.LVL72:
	.loc 1 3991 0
	movl	-16(%ebp), %ecx
	movl	$1, %edx
	sall	%cl, %edx
.LVL73:
.LBB228:
.LBB229:
	.loc 1 4061 0
	movl	%edx, 1292(%eax)
.LVL74:
.LBE229:
.LBE228:
.LBE227:
.LBE226:
	.loc 1 4608 0
	movl	-12(%ebp), %eax
	xorl	%gs:20, %eax
	je	.L48
	call	__stack_chk_fail
.LVL75:
.L48:
	leave
	.cfi_restore 5
	.cfi_def_cfa 4, 4
	ret
	.cfi_endproc
.LFE221:
	.size	nrf_drv_gpiote_out_clear, .-nrf_drv_gpiote_out_clear
	.section	.text.unlikely.nrf_drv_gpiote_out_clear
.LCOLDE9:
	.section	.text.nrf_drv_gpiote_out_clear
.LHOTE9:
	.section	.text.unlikely.nrf_drv_gpiote_out_toggle,"ax",@progbits
.LCOLDB10:
	.section	.text.nrf_drv_gpiote_out_toggle,"ax",@progbits
.LHOTB10:
	.globl	nrf_drv_gpiote_out_toggle
	.type	nrf_drv_gpiote_out_toggle, @function
nrf_drv_gpiote_out_toggle:
.LFB222:
	.loc 1 4610 0
	.cfi_startproc
.LVL76:
	pushl	%ebp
	.cfi_def_cfa_offset 8
	.cfi_offset 5, -8
	movl	%esp, %ebp
	.cfi_def_cfa_register 5
	pushl	%ebx
	subl	$20, %esp
	.cfi_offset 3, -12
	.loc 1 4610 0
	movl	%gs:20, %eax
	movl	%eax, -12(%ebp)
	xorl	%eax, %eax
	movl	8(%ebp), %eax
	movl	%eax, -16(%ebp)
.LVL77:
.LBB232:
.LBB233:
	.loc 1 3995 0
	leal	-16(%ebp), %eax
.LVL78:
	call	nrf_gpio_pin_port_decode
.LVL79:
	.loc 1 3997 0
	movl	-16(%ebp), %ecx
	.loc 1 3996 0
	movl	1284(%eax), %ebx
.LVL80:
	.loc 1 3997 0
	movl	$1, %edx
	sall	%cl, %edx
	movl	%ebx, %ecx
	notl	%ecx
	andl	%edx, %ecx
	.loc 1 3998 0
	andl	%ebx, %edx
	.loc 1 3997 0
	movl	%ecx, 1288(%eax)
	.loc 1 3998 0
	movl	%edx, 1292(%eax)
.LVL81:
.LBE233:
.LBE232:
	.loc 1 4615 0
	movl	-12(%ebp), %eax
	xorl	%gs:20, %eax
	je	.L51
	call	__stack_chk_fail
.LVL82:
.L51:
	addl	$20, %esp
	popl	%ebx
	.cfi_restore 3
	popl	%ebp
	.cfi_restore 5
	.cfi_def_cfa 4, 4
	ret
	.cfi_endproc
.LFE222:
	.size	nrf_drv_gpiote_out_toggle, .-nrf_drv_gpiote_out_toggle
	.section	.text.unlikely.nrf_drv_gpiote_out_toggle
.LCOLDE10:
	.section	.text.nrf_drv_gpiote_out_toggle
.LHOTE10:
	.section	.text.unlikely.nrf_drv_gpiote_out_task_enable,"ax",@progbits
.LCOLDB11:
	.section	.text.nrf_drv_gpiote_out_task_enable,"ax",@progbits
.LHOTB11:
	.globl	nrf_drv_gpiote_out_task_enable
	.type	nrf_drv_gpiote_out_task_enable, @function
nrf_drv_gpiote_out_task_enable:
.LFB223:
	.loc 1 4617 0
	.cfi_startproc
.LVL83:
	pushl	%ebp
	.cfi_def_cfa_offset 8
	.cfi_offset 5, -8
	movl	%esp, %ebp
	.cfi_def_cfa_register 5
.LVL84:
	movl	8(%ebp), %eax
	movsbl	m_cb+48(%eax), %eax
.LVL85:
	leal	1073766400(,%eax,4), %edx
.LBB236:
.LBB237:
	.loc 1 3252 0
	movl	1296(%edx), %eax
.LVL86:
	orl	$3, %eax
.LVL87:
	.loc 1 3253 0
	movl	%eax, 1296(%edx)
.LVL88:
.LBE237:
.LBE236:
	.loc 1 4622 0
	popl	%ebp
	.cfi_restore 5
	.cfi_def_cfa 4, 4
	ret
	.cfi_endproc
.LFE223:
	.size	nrf_drv_gpiote_out_task_enable, .-nrf_drv_gpiote_out_task_enable
	.section	.text.unlikely.nrf_drv_gpiote_out_task_enable
.LCOLDE11:
	.section	.text.nrf_drv_gpiote_out_task_enable
.LHOTE11:
	.section	.text.unlikely.nrf_drv_gpiote_out_task_disable,"ax",@progbits
.LCOLDB12:
	.section	.text.nrf_drv_gpiote_out_task_disable,"ax",@progbits
.LHOTB12:
	.globl	nrf_drv_gpiote_out_task_disable
	.type	nrf_drv_gpiote_out_task_disable, @function
nrf_drv_gpiote_out_task_disable:
.LFB224:
	.loc 1 4624 0
	.cfi_startproc
.LVL89:
	pushl	%ebp
	.cfi_def_cfa_offset 8
	.cfi_offset 5, -8
	movl	%esp, %ebp
	.cfi_def_cfa_register 5
.LVL90:
	movl	8(%ebp), %eax
	movsbl	m_cb+48(%eax), %eax
.LVL91:
	leal	1073766400(,%eax,4), %edx
.LBB240:
.LBB241:
	.loc 1 3257 0
	movl	1296(%edx), %eax
.LVL92:
	andl	$-4, %eax
	movl	%eax, 1296(%edx)
.LVL93:
.LBE241:
.LBE240:
	.loc 1 4629 0
	popl	%ebp
	.cfi_restore 5
	.cfi_def_cfa 4, 4
	ret
	.cfi_endproc
.LFE224:
	.size	nrf_drv_gpiote_out_task_disable, .-nrf_drv_gpiote_out_task_disable
	.section	.text.unlikely.nrf_drv_gpiote_out_task_disable
.LCOLDE12:
	.section	.text.nrf_drv_gpiote_out_task_disable
.LHOTE12:
	.section	.text.unlikely.nrf_drv_gpiote_out_task_addr_get,"ax",@progbits
.LCOLDB13:
	.section	.text.nrf_drv_gpiote_out_task_addr_get,"ax",@progbits
.LHOTB13:
	.globl	nrf_drv_gpiote_out_task_addr_get
	.type	nrf_drv_gpiote_out_task_addr_get, @function
nrf_drv_gpiote_out_task_addr_get:
.LFB225:
	.loc 1 4631 0
	.cfi_startproc
.LVL94:
	pushl	%ebp
	.cfi_def_cfa_offset 8
	.cfi_offset 5, -8
	movl	%esp, %ebp
	.cfi_def_cfa_register 5
.LVL95:
	.loc 1 4635 0
	movl	8(%ebp), %eax
	.loc 1 4636 0
	popl	%ebp
	.cfi_restore 5
	.cfi_def_cfa 4, 4
	.loc 1 4635 0
	movsbl	m_cb+48(%eax), %eax
	leal	1073766400(,%eax,4), %eax
	.loc 1 4636 0
	ret
	.cfi_endproc
.LFE225:
	.size	nrf_drv_gpiote_out_task_addr_get, .-nrf_drv_gpiote_out_task_addr_get
	.section	.text.unlikely.nrf_drv_gpiote_out_task_addr_get
.LCOLDE13:
	.section	.text.nrf_drv_gpiote_out_task_addr_get
.LHOTE13:
	.section	.text.unlikely.nrf_drv_gpiote_set_task_addr_get,"ax",@progbits
.LCOLDB14:
	.section	.text.nrf_drv_gpiote_set_task_addr_get,"ax",@progbits
.LHOTB14:
	.globl	nrf_drv_gpiote_set_task_addr_get
	.type	nrf_drv_gpiote_set_task_addr_get, @function
nrf_drv_gpiote_set_task_addr_get:
.LFB226:
	.loc 1 4638 0
	.cfi_startproc
.LVL96:
	pushl	%ebp
	.cfi_def_cfa_offset 8
	.cfi_offset 5, -8
	movl	%esp, %ebp
	.cfi_def_cfa_register 5
.LVL97:
	.loc 1 4642 0
	movl	8(%ebp), %eax
	.loc 1 4643 0
	popl	%ebp
	.cfi_restore 5
	.cfi_def_cfa 4, 4
	.loc 1 4642 0
	movsbl	m_cb+48(%eax), %eax
	leal	1073766448(,%eax,4), %eax
	.loc 1 4643 0
	ret
	.cfi_endproc
.LFE226:
	.size	nrf_drv_gpiote_set_task_addr_get, .-nrf_drv_gpiote_set_task_addr_get
	.section	.text.unlikely.nrf_drv_gpiote_set_task_addr_get
.LCOLDE14:
	.section	.text.nrf_drv_gpiote_set_task_addr_get
.LHOTE14:
	.section	.text.unlikely.nrf_drv_gpiote_clr_task_addr_get,"ax",@progbits
.LCOLDB15:
	.section	.text.nrf_drv_gpiote_clr_task_addr_get,"ax",@progbits
.LHOTB15:
	.globl	nrf_drv_gpiote_clr_task_addr_get
	.type	nrf_drv_gpiote_clr_task_addr_get, @function
nrf_drv_gpiote_clr_task_addr_get:
.LFB227:
	.loc 1 4645 0
	.cfi_startproc
.LVL98:
	pushl	%ebp
	.cfi_def_cfa_offset 8
	.cfi_offset 5, -8
	movl	%esp, %ebp
	.cfi_def_cfa_register 5
.LVL99:
	.loc 1 4649 0
	movl	8(%ebp), %eax
	.loc 1 4650 0
	popl	%ebp
	.cfi_restore 5
	.cfi_def_cfa 4, 4
	.loc 1 4649 0
	movsbl	m_cb+48(%eax), %eax
	leal	1073766496(,%eax,4), %eax
	.loc 1 4650 0
	ret
	.cfi_endproc
.LFE227:
	.size	nrf_drv_gpiote_clr_task_addr_get, .-nrf_drv_gpiote_clr_task_addr_get
	.section	.text.unlikely.nrf_drv_gpiote_clr_task_addr_get
.LCOLDE15:
	.section	.text.nrf_drv_gpiote_clr_task_addr_get
.LHOTE15:
	.section	.text.unlikely.nrf_drv_gpiote_out_task_force,"ax",@progbits
.LCOLDB16:
	.section	.text.nrf_drv_gpiote_out_task_force,"ax",@progbits
.LHOTB16:
	.globl	nrf_drv_gpiote_out_task_force
	.type	nrf_drv_gpiote_out_task_force, @function
nrf_drv_gpiote_out_task_force:
.LFB228:
	.loc 1 4652 0
	.cfi_startproc
.LVL100:
	pushl	%ebp
	.cfi_def_cfa_offset 8
	.cfi_offset 5, -8
.LBB244:
.LBB245:
	.loc 1 3273 0
	xorl	%edx, %edx
.LBE245:
.LBE244:
	.loc 1 4652 0
	movl	%esp, %ebp
	.cfi_def_cfa_register 5
.LVL101:
	movl	8(%ebp), %eax
.LBB247:
.LBB246:
	.loc 1 3273 0
	cmpb	$0, 12(%ebp)
	movsbl	m_cb+48(%eax), %eax
.LVL102:
	setne	%dl
	sall	$20, %edx
	leal	1073766400(,%eax,4), %ecx
	.loc 1 3272 0
	movl	1296(%ecx), %eax
.LVL103:
	.loc 1 3273 0
	andl	$-1048577, %eax
	orl	%edx, %eax
	.loc 1 3272 0
	movl	%eax, 1296(%ecx)
.LVL104:
.LBE246:
.LBE247:
	.loc 1 4659 0
	popl	%ebp
	.cfi_restore 5
	.cfi_def_cfa 4, 4
	ret
	.cfi_endproc
.LFE228:
	.size	nrf_drv_gpiote_out_task_force, .-nrf_drv_gpiote_out_task_force
	.section	.text.unlikely.nrf_drv_gpiote_out_task_force
.LCOLDE16:
	.section	.text.nrf_drv_gpiote_out_task_force
.LHOTE16:
	.section	.text.unlikely.nrf_drv_gpiote_out_task_trigger,"ax",@progbits
.LCOLDB17:
	.section	.text.nrf_drv_gpiote_out_task_trigger,"ax",@progbits
.LHOTB17:
	.globl	nrf_drv_gpiote_out_task_trigger
	.type	nrf_drv_gpiote_out_task_trigger, @function
nrf_drv_gpiote_out_task_trigger:
.LFB229:
	.loc 1 4661 0
	.cfi_startproc
.LVL105:
	pushl	%ebp
	.cfi_def_cfa_offset 8
	.cfi_offset 5, -8
	movl	%esp, %ebp
	.cfi_def_cfa_register 5
.LVL106:
.LBB248:
.LBB249:
	.loc 1 3190 0
	movl	8(%ebp), %eax
	movsbl	m_cb+48(%eax), %eax
	movl	$1, 1073766400(,%eax,4)
.LVL107:
.LBE249:
.LBE248:
	.loc 1 4667 0
	popl	%ebp
	.cfi_restore 5
	.cfi_def_cfa 4, 4
	ret
	.cfi_endproc
.LFE229:
	.size	nrf_drv_gpiote_out_task_trigger, .-nrf_drv_gpiote_out_task_trigger
	.section	.text.unlikely.nrf_drv_gpiote_out_task_trigger
.LCOLDE17:
	.section	.text.nrf_drv_gpiote_out_task_trigger
.LHOTE17:
	.section	.text.unlikely.nrf_drv_gpiote_set_task_trigger,"ax",@progbits
.LCOLDB18:
	.section	.text.nrf_drv_gpiote_set_task_trigger,"ax",@progbits
.LHOTB18:
	.globl	nrf_drv_gpiote_set_task_trigger
	.type	nrf_drv_gpiote_set_task_trigger, @function
nrf_drv_gpiote_set_task_trigger:
.LFB230:
	.loc 1 4669 0
	.cfi_startproc
.LVL108:
	pushl	%ebp
	.cfi_def_cfa_offset 8
	.cfi_offset 5, -8
	movl	%esp, %ebp
	.cfi_def_cfa_register 5
.LVL109:
.LBB250:
.LBB251:
	.loc 1 3190 0
	movl	8(%ebp), %eax
	movsbl	m_cb+48(%eax), %eax
	addl	$12, %eax
	movl	$1, 1073766400(,%eax,4)
.LVL110:
.LBE251:
.LBE250:
	.loc 1 4675 0
	popl	%ebp
	.cfi_restore 5
	.cfi_def_cfa 4, 4
	ret
	.cfi_endproc
.LFE230:
	.size	nrf_drv_gpiote_set_task_trigger, .-nrf_drv_gpiote_set_task_trigger
	.section	.text.unlikely.nrf_drv_gpiote_set_task_trigger
.LCOLDE18:
	.section	.text.nrf_drv_gpiote_set_task_trigger
.LHOTE18:
	.section	.text.unlikely.nrf_drv_gpiote_clr_task_trigger,"ax",@progbits
.LCOLDB19:
	.section	.text.nrf_drv_gpiote_clr_task_trigger,"ax",@progbits
.LHOTB19:
	.globl	nrf_drv_gpiote_clr_task_trigger
	.type	nrf_drv_gpiote_clr_task_trigger, @function
nrf_drv_gpiote_clr_task_trigger:
.LFB231:
	.loc 1 4677 0
	.cfi_startproc
.LVL111:
	pushl	%ebp
	.cfi_def_cfa_offset 8
	.cfi_offset 5, -8
	movl	%esp, %ebp
	.cfi_def_cfa_register 5
.LVL112:
.LBB252:
.LBB253:
	.loc 1 3190 0
	movl	8(%ebp), %eax
	movsbl	m_cb+48(%eax), %eax
	addl	$24, %eax
	movl	$1, 1073766400(,%eax,4)
.LVL113:
.LBE253:
.LBE252:
	.loc 1 4683 0
	popl	%ebp
	.cfi_restore 5
	.cfi_def_cfa 4, 4
	ret
	.cfi_endproc
.LFE231:
	.size	nrf_drv_gpiote_clr_task_trigger, .-nrf_drv_gpiote_clr_task_trigger
	.section	.text.unlikely.nrf_drv_gpiote_clr_task_trigger
.LCOLDE19:
	.section	.text.nrf_drv_gpiote_clr_task_trigger
.LHOTE19:
	.section	.text.unlikely.nrf_drv_gpiote_in_init,"ax",@progbits
.LCOLDB20:
	.section	.text.nrf_drv_gpiote_in_init,"ax",@progbits
.LHOTB20:
	.globl	nrf_drv_gpiote_in_init
	.type	nrf_drv_gpiote_in_init, @function
nrf_drv_gpiote_in_init:
.LFB232:
	.loc 1 4687 0
	.cfi_startproc
.LVL114:
	pushl	%ebp
	.cfi_def_cfa_offset 8
	.cfi_offset 5, -8
	movl	%esp, %ebp
	.cfi_def_cfa_register 5
	pushl	%edi
	pushl	%esi
	pushl	%ebx
	subl	$28, %esp
	.cfi_offset 7, -12
	.cfi_offset 6, -16
	.cfi_offset 3, -20
	.loc 1 4687 0
	movl	8(%ebp), %ecx
	movl	12(%ebp), %esi
	movl	%gs:20, %eax
	movl	%eax, -28(%ebp)
	xorl	%eax, %eax
.LVL115:
	movl	16(%ebp), %edi
	.loc 1 4692 0
	movl	$8, %eax
	.loc 1 4690 0
	cmpb	$0, m_cb+48(%ecx)
	jns	.L72
.LBB269:
	.loc 1 4696 0
	movb	9(%esi), %dl
.LVL116:
.LBB270:
.LBB271:
	.loc 1 4452 0
	cmpb	$1, %dl
	sbbl	%eax, %eax
	andl	$8, %eax
	cmpb	$1, %dl
	sbbl	%ebx, %ebx
	andl	$4, %ebx
	addl	$8, %ebx
.LVL117:
.L74:
	.loc 1 4455 0
	cmpl	%ebx, %eax
	je	.L89
	.loc 1 4457 0
	cmpl	$-1, m_cb(,%eax,4)
	jne	.L75
.LVL118:
.LBB272:
.LBB273:
	.loc 1 4425 0
	testb	%dl, %dl
	.loc 1 4423 0
	movsbl	%al, %ebx
.LVL119:
	movb	%al, m_cb+48(%ecx)
	.loc 1 4424 0
	movl	%edi, m_cb(,%eax,4)
	.loc 1 4425 0
	jne	.L76
	.loc 1 4427 0
	movb	%cl, m_cb+88(%eax)
	jmp	.L76
.LVL120:
.L75:
.LBE273:
.LBE272:
	.loc 1 4455 0
	incl	%eax
.LVL121:
	jmp	.L74
.L89:
.LBE271:
.LBE270:
	.loc 1 4719 0
	movl	$4, %eax
.LVL122:
	jmp	.L72
.LVL123:
.L76:
	.loc 1 4699 0
	cmpb	$0, 8(%esi)
	je	.L90
.LBB274:
.LBB275:
	.loc 1 3937 0
	leal	-36(%ebp), %eax
.LVL124:
	movl	%ecx, -36(%ebp)
.LVL125:
	call	nrf_gpio_pin_port_decode
.LVL126:
	movl	-36(%ebp), %edx
	leal	(%eax,%edx,4), %edx
	.loc 1 3938 0
	movl	1792(%edx), %eax
.LVL127:
	andl	$-3, %eax
.LVL128:
	.loc 1 3939 0
	movl	%eax, 1792(%edx)
.LVL129:
.L78:
.LBE275:
.LBE274:
	.loc 1 4707 0
	cmpb	$0, 9(%esi)
	movl	(%esi), %eax
	je	.L79
.LVL130:
	leal	1073766400(,%ebx,4), %ebx
.LVL131:
.LBB276:
.LBB277:
	.loc 1 3239 0
	sall	$8, %ecx
.LVL132:
	sall	$16, %eax
.LVL133:
	andl	$196608, %eax
	andl	$16128, %ecx
	.loc 1 3238 0
	movl	1296(%ebx), %edx
	andl	$-212737, %edx
	movl	%edx, 1296(%ebx)
	.loc 1 3239 0
	movl	1296(%ebx), %esi
.LVL134:
	movl	%eax, %edx
	movl	%ecx, %eax
	orl	%edx, %eax
	orl	%esi, %eax
	movl	%eax, 1296(%ebx)
.LVL135:
.L88:
.LBE277:
.LBE276:
.LBE269:
	.loc 1 4689 0
	xorl	%eax, %eax
.LVL136:
.L72:
	.loc 1 4725 0
	movl	-28(%ebp), %edi
	xorl	%gs:20, %edi
	je	.L82
	call	__stack_chk_fail
.LVL137:
.L90:
.LBB284:
.LBB278:
.LBB279:
.LBB280:
	.loc 1 3898 0
	leal	-32(%ebp), %eax
.LVL138:
.LBE280:
.LBE279:
.LBE278:
	.loc 1 4705 0
	movl	4(%esi), %edi
.LVL139:
	movl	%ecx, -32(%ebp)
.LVL140:
.LBB283:
.LBB282:
.LBB281:
	.loc 1 3898 0
	call	nrf_gpio_pin_port_decode
.LVL141:
	.loc 1 3899 0
	movl	-32(%ebp), %edx
	.loc 1 3901 0
	sall	$2, %edi
.LVL142:
	.loc 1 3899 0
	addl	$448, %edx
	movl	%edi, (%eax,%edx,4)
	jmp	.L78
.LVL143:
.L79:
.LBE281:
.LBE282:
.LBE283:
	.loc 1 4714 0
	sall	$6, %eax
	orb	%al, m_cb+88(%ebx)
	jmp	.L88
.LVL144:
.L82:
.LBE284:
	.loc 1 4725 0
	addl	$28, %esp
	popl	%ebx
	.cfi_restore 3
	popl	%esi
	.cfi_restore 6
	popl	%edi
	.cfi_restore 7
	popl	%ebp
	.cfi_restore 5
	.cfi_def_cfa 4, 4
	ret
	.cfi_endproc
.LFE232:
	.size	nrf_drv_gpiote_in_init, .-nrf_drv_gpiote_in_init
	.section	.text.unlikely.nrf_drv_gpiote_in_init
.LCOLDE20:
	.section	.text.nrf_drv_gpiote_in_init
.LHOTE20:
	.section	.text.unlikely.nrf_drv_gpiote_in_event_enable,"ax",@progbits
.LCOLDB21:
	.section	.text.nrf_drv_gpiote_in_event_enable,"ax",@progbits
.LHOTB21:
	.globl	nrf_drv_gpiote_in_event_enable
	.type	nrf_drv_gpiote_in_event_enable, @function
nrf_drv_gpiote_in_event_enable:
.LFB233:
	.loc 1 4729 0
	.cfi_startproc
.LVL145:
	pushl	%ebp
	.cfi_def_cfa_offset 8
	.cfi_offset 5, -8
	movl	%esp, %ebp
	.cfi_def_cfa_register 5
	pushl	%esi
	pushl	%ebx
	subl	$16, %esp
	.cfi_offset 6, -12
	.cfi_offset 3, -16
	.loc 1 4729 0
	movl	8(%ebp), %ebx
	movl	12(%ebp), %esi
	movl	%gs:20, %eax
	movl	%eax, -12(%ebp)
	xorl	%eax, %eax
.LVL146:
.LBB304:
.LBB305:
	.loc 1 4409 0
	movsbl	m_cb+48(%ebx), %ecx
.LVL147:
.LBE305:
.LBE304:
	.loc 1 4732 0
	cmpb	$7, %cl
	jle	.L92
.LVL148:
.LBB306:
	.loc 1 4737 0
	movb	m_cb+88(%ecx), %al
	shrb	$6, %al
.LVL149:
	.loc 1 4739 0
	cmpb	$3, %al
	jne	.L93
.LBB307:
.LBB308:
	.loc 1 4013 0
	leal	-16(%ebp), %eax
.LVL150:
	movl	%ebx, -16(%ebp)
.LVL151:
	call	nrf_gpio_pin_port_decode
.LVL152:
.LBB309:
.LBB310:
	.loc 1 4045 0
	movl	1296(%eax), %edx
.LVL153:
.LBE310:
.LBE309:
.LBE308:
.LBE307:
	.loc 1 4741 0
	movl	-16(%ebp), %eax
	btl	%eax, %edx
	jc	.L94
.L96:
	.loc 1 4741 0 is_stmt 0 discriminator 2
	movl	$2, %edx
	jmp	.L95
.LVL154:
.L93:
	.loc 1 4746 0 is_stmt 1
	decb	%al
.LVL155:
	je	.L96
.LVL156:
.L94:
	.loc 1 4746 0 is_stmt 0 discriminator 2
	movl	$3, %edx
.L95:
.LVL157:
	.loc 1 4749 0 is_stmt 1
	movl	%ebx, %eax
	call	nrf_gpio_cfg_sense_set
.LVL158:
.LBE306:
	jmp	.L91
.L92:
	.loc 1 4751 0
	ja	.L91
.LVL159:
.LBB311:
	.loc 1 4754 0
	movsbl	%cl, %edx
.LVL160:
	leal	1073766400(,%edx,4), %ebx
.LBB312:
.LBB313:
	.loc 1 3230 0
	movl	1296(%ebx), %eax
	orl	$1, %eax
	movl	%eax, 1296(%ebx)
.LVL161:
.LBE313:
.LBE312:
	.loc 1 4756 0
	leal	256(,%edx,4), %eax
	call	nrf_gpiote_event_clear
.LVL162:
	.loc 1 4757 0
	movl	%esi, %eax
	testb	%al, %al
	je	.L91
.LBB314:
	.loc 1 4760 0
	cmpl	$0, m_cb(,%edx,4)
	je	.L91
	.loc 1 4762 0
	movl	$1, %eax
	sall	%cl, %eax
.LVL163:
.LBB315:
.LBB316:
	.loc 1 3218 0
	movl	%eax, 1073767172
.LVL164:
.L91:
.LBE316:
.LBE315:
.LBE314:
.LBE311:
	.loc 1 4766 0
	movl	-12(%ebp), %eax
	xorl	%gs:20, %eax
	je	.L100
	call	__stack_chk_fail
.LVL165:
.L100:
	addl	$16, %esp
	popl	%ebx
	.cfi_restore 3
	popl	%esi
	.cfi_restore 6
	popl	%ebp
	.cfi_restore 5
	.cfi_def_cfa 4, 4
	ret
	.cfi_endproc
.LFE233:
	.size	nrf_drv_gpiote_in_event_enable, .-nrf_drv_gpiote_in_event_enable
	.section	.text.unlikely.nrf_drv_gpiote_in_event_enable
.LCOLDE21:
	.section	.text.nrf_drv_gpiote_in_event_enable
.LHOTE21:
	.section	.text.unlikely.nrf_drv_gpiote_in_event_disable,"ax",@progbits
.LCOLDB22:
	.section	.text.nrf_drv_gpiote_in_event_disable,"ax",@progbits
.LHOTB22:
	.globl	nrf_drv_gpiote_in_event_disable
	.type	nrf_drv_gpiote_in_event_disable, @function
nrf_drv_gpiote_in_event_disable:
.LFB234:
	.loc 1 4768 0
	.cfi_startproc
.LVL166:
	pushl	%ebp
	.cfi_def_cfa_offset 8
	.cfi_offset 5, -8
	movl	%esp, %ebp
	.cfi_def_cfa_register 5
	.loc 1 4768 0
	movl	8(%ebp), %eax
.LVL167:
.LBB326:
.LBB327:
	.loc 1 4409 0
	movb	m_cb+48(%eax), %cl
.LVL168:
.LBE327:
.LBE326:
	.loc 1 4771 0
	cmpb	$7, %cl
	jle	.L106
	.loc 1 4781 0
	popl	%ebp
	.cfi_remember_state
	.cfi_restore 5
	.cfi_def_cfa 4, 4
	.loc 1 4773 0
	xorl	%edx, %edx
	jmp	nrf_gpio_cfg_sense_set
.LVL169:
.L106:
	.cfi_restore_state
	.loc 1 4775 0
	ja	.L105
.LVL170:
	movsbl	%cl, %eax
.LVL171:
	leal	1073766400(,%eax,4), %edx
.LBB328:
.LBB329:
.LBB330:
	.loc 1 3234 0
	movl	1296(%edx), %eax
.LVL172:
	andl	$-2, %eax
	movl	%eax, 1296(%edx)
.LVL173:
.LBE330:
.LBE329:
	.loc 1 4779 0
	movl	$1, %eax
	sall	%cl, %eax
.LVL174:
.LBB331:
.LBB332:
	.loc 1 3222 0
	movl	%eax, 1073767176
.LVL175:
.L105:
.LBE332:
.LBE331:
.LBE328:
	.loc 1 4781 0
	popl	%ebp
	.cfi_restore 5
	.cfi_def_cfa 4, 4
	ret
	.cfi_endproc
.LFE234:
	.size	nrf_drv_gpiote_in_event_disable, .-nrf_drv_gpiote_in_event_disable
	.section	.text.unlikely.nrf_drv_gpiote_in_event_disable
.LCOLDE22:
	.section	.text.nrf_drv_gpiote_in_event_disable
.LHOTE22:
	.section	.text.unlikely.nrf_drv_gpiote_in_uninit,"ax",@progbits
.LCOLDB23:
	.section	.text.nrf_drv_gpiote_in_uninit,"ax",@progbits
.LHOTB23:
	.globl	nrf_drv_gpiote_in_uninit
	.type	nrf_drv_gpiote_in_uninit, @function
nrf_drv_gpiote_in_uninit:
.LFB235:
	.loc 1 4783 0
	.cfi_startproc
.LVL176:
	pushl	%ebp
	.cfi_def_cfa_offset 8
	.cfi_offset 5, -8
	movl	%esp, %ebp
	.cfi_def_cfa_register 5
	pushl	%ebx
	subl	$20, %esp
	.cfi_offset 3, -12
	.loc 1 4783 0
	movl	8(%ebp), %ebx
	movl	%gs:20, %eax
	movl	%eax, -12(%ebp)
	xorl	%eax, %eax
	.loc 1 4786 0
	pushl	%ebx
	call	nrf_drv_gpiote_in_event_disable
.LVL177:
.LBB345:
.LBB346:
	.loc 1 4398 0
	movb	m_cb+48(%ebx), %cl
.LVL178:
.LBE346:
.LBE345:
	.loc 1 4787 0
	popl	%eax
	cmpb	$7, %cl
	ja	.L110
	.loc 1 4789 0
	movsbl	%cl, %eax
.LVL179:
.LBB347:
.LBB348:
	.loc 1 3277 0
	addl	$324, %eax
.LVL180:
	movl	$0, 1073766400(,%eax,4)
.LVL181:
.L110:
.LBE348:
.LBE347:
.LBB349:
.LBB350:
.LBB351:
	.loc 1 3898 0
	leal	-16(%ebp), %eax
	movl	%ebx, -16(%ebp)
.LVL182:
	call	nrf_gpio_pin_port_decode
.LVL183:
	.loc 1 3899 0
	movl	-16(%ebp), %edx
	addl	$448, %edx
	movl	$2, (%eax,%edx,4)
.LVL184:
.LBE351:
.LBE350:
.LBE349:
	.loc 1 4792 0
	movzbl	%cl, %eax
	call	channel_free
.LVL185:
	.loc 1 4794 0
	movl	-12(%ebp), %eax
	xorl	%gs:20, %eax
.LBB352:
.LBB353:
	.loc 1 4436 0
	movb	$-1, m_cb+48(%ebx)
.LVL186:
.LBE353:
.LBE352:
	.loc 1 4794 0
	je	.L111
	call	__stack_chk_fail
.LVL187:
.L111:
	movl	-4(%ebp), %ebx
	leave
	.cfi_restore 5
	.cfi_restore 3
	.cfi_def_cfa 4, 4
	ret
	.cfi_endproc
.LFE235:
	.size	nrf_drv_gpiote_in_uninit, .-nrf_drv_gpiote_in_uninit
	.section	.text.unlikely.nrf_drv_gpiote_in_uninit
.LCOLDE23:
	.section	.text.nrf_drv_gpiote_in_uninit
.LHOTE23:
	.section	.text.unlikely.nrf_drv_gpiote_uninit,"ax",@progbits
.LCOLDB24:
	.section	.text.nrf_drv_gpiote_uninit,"ax",@progbits
.LHOTB24:
	.globl	nrf_drv_gpiote_uninit
	.type	nrf_drv_gpiote_uninit, @function
nrf_drv_gpiote_uninit:
.LFB217:
	.loc 1 4516 0
	.cfi_startproc
.LVL188:
	pushl	%ebp
	.cfi_def_cfa_offset 8
	.cfi_offset 5, -8
	movl	%esp, %ebp
	.cfi_def_cfa_register 5
	pushl	%ebx
	pushl	%eax
	.cfi_offset 3, -12
	.loc 1 4519 0
	xorl	%ebx, %ebx
.LVL189:
.L116:
.LBB354:
.LBB355:
	.loc 1 4392 0
	movb	m_cb+48(%ebx), %al
.LVL190:
.LBE355:
.LBE354:
	.loc 1 4521 0
	cmpb	$-2, %al
	jne	.L114
	.loc 1 4523 0
	subl	$12, %esp
	pushl	%ebx
	call	nrf_drv_gpiote_out_uninit
.LVL191:
	jmp	.L119
.L114:
	.loc 1 4525 0
	testb	%al, %al
	js	.L115
	.loc 1 4527 0
	subl	$12, %esp
	pushl	%ebx
	call	nrf_drv_gpiote_in_uninit
.LVL192:
.L119:
	addl	$16, %esp
.L115:
	.loc 1 4519 0 discriminator 2
	incl	%ebx
.LVL193:
	cmpl	$48, %ebx
	jne	.L116
	.loc 1 4530 0
	movl	$0, m_cb+100
	.loc 1 4532 0
	movl	-4(%ebp), %ebx
.LVL194:
	leave
	.cfi_restore 5
	.cfi_restore 3
	.cfi_def_cfa 4, 4
	ret
	.cfi_endproc
.LFE217:
	.size	nrf_drv_gpiote_uninit, .-nrf_drv_gpiote_uninit
	.section	.text.unlikely.nrf_drv_gpiote_uninit
.LCOLDE24:
	.section	.text.nrf_drv_gpiote_uninit
.LHOTE24:
	.section	.text.unlikely.nrf_drv_gpiote_in_is_set,"ax",@progbits
.LCOLDB25:
	.section	.text.nrf_drv_gpiote_in_is_set,"ax",@progbits
.LHOTB25:
	.globl	nrf_drv_gpiote_in_is_set
	.type	nrf_drv_gpiote_in_is_set, @function
nrf_drv_gpiote_in_is_set:
.LFB236:
	.loc 1 4797 0
	.cfi_startproc
.LVL195:
	pushl	%ebp
	.cfi_def_cfa_offset 8
	.cfi_offset 5, -8
	movl	%esp, %ebp
	.cfi_def_cfa_register 5
	subl	$24, %esp
	.loc 1 4797 0
	movl	%gs:20, %eax
	movl	%eax, -12(%ebp)
	xorl	%eax, %eax
	movl	8(%ebp), %eax
	movl	%eax, -16(%ebp)
.LVL196:
.LBB360:
.LBB361:
	.loc 1 4013 0
	leal	-16(%ebp), %eax
.LVL197:
	call	nrf_gpio_pin_port_decode
.LVL198:
.LBE361:
.LBE360:
	.loc 1 4799 0
	movl	-16(%ebp), %ecx
.LBB365:
.LBB364:
.LBB362:
.LBB363:
	.loc 1 4045 0
	movl	1296(%eax), %eax
.LVL199:
.LBE363:
.LBE362:
.LBE364:
.LBE365:
	.loc 1 4799 0
	shrl	%cl, %eax
	andl	$1, %eax
	.loc 1 4804 0
	movl	-12(%ebp), %edx
	xorl	%gs:20, %edx
	je	.L121
	call	__stack_chk_fail
.LVL200:
.L121:
	leave
	.cfi_restore 5
	.cfi_def_cfa 4, 4
	ret
	.cfi_endproc
.LFE236:
	.size	nrf_drv_gpiote_in_is_set, .-nrf_drv_gpiote_in_is_set
	.section	.text.unlikely.nrf_drv_gpiote_in_is_set
.LCOLDE25:
	.section	.text.nrf_drv_gpiote_in_is_set
.LHOTE25:
	.section	.text.unlikely.nrf_drv_gpiote_in_event_addr_get,"ax",@progbits
.LCOLDB26:
	.section	.text.nrf_drv_gpiote_in_event_addr_get,"ax",@progbits
.LHOTB26:
	.globl	nrf_drv_gpiote_in_event_addr_get
	.type	nrf_drv_gpiote_in_event_addr_get, @function
nrf_drv_gpiote_in_event_addr_get:
.LFB237:
	.loc 1 4806 0
	.cfi_startproc
.LVL201:
	pushl	%ebp
	.cfi_def_cfa_offset 8
	.cfi_offset 5, -8
	movl	%esp, %ebp
	.cfi_def_cfa_register 5
.LVL202:
.LBB366:
.LBB367:
	.loc 1 4398 0
	movl	8(%ebp), %eax
	movsbl	m_cb+48(%eax), %edx
.LVL203:
.LBE367:
.LBE366:
	.loc 1 4810 0
	cmpb	$7, %dl
	.loc 1 4812 0
	leal	256(,%edx,4), %eax
	.loc 1 4810 0
	jbe	.L124
	movl	$380, %eax
.L124:
.LVL204:
	.loc 1 4814 0
	addl	$1073766400, %eax
.LVL205:
	.loc 1 4815 0
	popl	%ebp
	.cfi_restore 5
	.cfi_def_cfa 4, 4
	ret
	.cfi_endproc
.LFE237:
	.size	nrf_drv_gpiote_in_event_addr_get, .-nrf_drv_gpiote_in_event_addr_get
	.section	.text.unlikely.nrf_drv_gpiote_in_event_addr_get
.LCOLDE26:
	.section	.text.nrf_drv_gpiote_in_event_addr_get
.LHOTE26:
	.section	.text.unlikely.GPIOTE_IRQHandler,"ax",@progbits
.LCOLDB27:
	.section	.text.GPIOTE_IRQHandler,"ax",@progbits
.LHOTB27:
	.globl	GPIOTE_IRQHandler
	.type	GPIOTE_IRQHandler, @function
GPIOTE_IRQHandler:
.LFB238:
	.loc 1 4817 0
	.cfi_startproc
	pushl	%ebp
	.cfi_def_cfa_offset 8
	.cfi_offset 5, -8
	.loc 1 4822 0
	movl	$1, %ecx
	.loc 1 4821 0
	movl	$256, %edx
	.loc 1 4817 0
	movl	%esp, %ebp
	.cfi_def_cfa_register 5
	pushl	%edi
	pushl	%esi
	pushl	%ebx
	.cfi_offset 7, -12
	.cfi_offset 6, -16
	.cfi_offset 3, -20
	.loc 1 4818 0
	xorl	%ebx, %ebx
	.loc 1 4817 0
	subl	$60, %esp
	.loc 1 4819 0
	movl	$0, -52(%ebp)
	movl	$0, -48(%ebp)
	.loc 1 4817 0
	movl	%gs:20, %eax
	movl	%eax, -28(%ebp)
	xorl	%eax, %eax
.LVL206:
.L130:
	.loc 1 4825 0
	cmpl	$1, 1073766400(%edx)
	jne	.L129
.LVL207:
.LBB409:
.LBB410:
	.loc 1 3226 0
	movl	1073767172, %eax
.LVL208:
.LBE410:
.LBE409:
	.loc 1 4825 0
	testl	%ecx, %eax
	je	.L129
	.loc 1 4827 0
	movl	%edx, %eax
	call	nrf_gpiote_event_clear
.LVL209:
	.loc 1 4828 0
	orl	%ecx, %ebx
.LVL210:
.L129:
	.loc 1 4831 0 discriminator 2
	addl	$4, %edx
	.loc 1 4830 0 discriminator 2
	addl	%ecx, %ecx
.LVL211:
	.loc 1 4823 0 discriminator 2
	cmpl	$288, %edx
	jne	.L130
	.loc 1 4833 0
	cmpl	$1, 1073766780
	jne	.L131
	.loc 1 4835 0
	movl	$380, %eax
	.loc 1 4836 0
	orl	$-2147483648, %ebx
.LVL212:
	.loc 1 4835 0
	call	nrf_gpiote_event_clear
.LVL213:
.LBB411:
.LBB412:
.LBB413:
.LBB414:
	.loc 1 4045 0
	movl	1342178576, %eax
.LVL214:
.LBE414:
.LBE413:
	.loc 1 4070 0
	movl	%eax, -52(%ebp)
.LVL215:
.LBB416:
.LBB415:
	.loc 1 4045 0
	movl	1342179344, %eax
.LVL216:
.LBE415:
.LBE416:
	.loc 1 4070 0
	movl	%eax, -48(%ebp)
.LVL217:
.L131:
.LBE412:
.LBE411:
	.loc 1 4839 0
	testb	%bl, %bl
	jne	.L132
.L137:
	.loc 1 4859 0
	testl	%ebx, %ebx
	jns	.L128
.LVL218:
.LBB417:
	.loc 1 4863 0
	movl	$0, -44(%ebp)
	movl	$0, -40(%ebp)
.LVL219:
	.loc 1 4867 0
	movl	$-1, -36(%ebp)
.LVL220:
	movl	$-1, -32(%ebp)
.LVL221:
	jmp	.L148
.LVL222:
.L132:
.LBE417:
	movl	$1, %edi
	xorl	%esi, %esi
.L136:
.LVL223:
	.loc 1 4844 0
	testl	%edi, %ebx
	je	.L135
.LVL224:
	leal	1073766400(,%esi,4), %edx
.LBB448:
.LBB449:
.LBB450:
	.loc 1 3244 0
	movl	1296(%edx), %eax
.LVL225:
.LBE450:
.LBE449:
.LBB451:
.LBB452:
	.loc 1 3248 0
	movl	1296(%edx), %ecx
.LVL226:
.LBE452:
.LBE451:
.LBB453:
.LBB454:
	.loc 1 4444 0
	movl	m_cb(,%esi,4), %edx
.LVL227:
.LBE454:
.LBE453:
	.loc 1 4851 0
	testl	%edx, %edx
	je	.L135
	.loc 1 4853 0
	andl	$196608, %ecx
	andl	$16128, %eax
	subl	$8, %esp
	shrl	$16, %ecx
	shrl	$8, %eax
	pushl	%ecx
	pushl	%eax
	call	*%edx
.LVL228:
	addl	$16, %esp
.L135:
.LBE448:
	.loc 1 4842 0 discriminator 2
	incl	%esi
.LVL229:
	.loc 1 4856 0 discriminator 2
	addl	%edi, %edi
.LVL230:
	.loc 1 4842 0 discriminator 2
	cmpl	$8, %esi
	jne	.L136
	jmp	.L137
.LVL231:
.L145:
.LBB455:
.LBB418:
	.loc 1 4874 0
	movl	-60(%ebp), %eax
	movb	96(%eax), %al
.LVL232:
	.loc 1 4876 0
	cmpb	$-1, %al
	jne	.L190
.LVL233:
.L138:
	incl	-60(%ebp)
.LVL234:
.LBE418:
	.loc 1 4872 0 discriminator 2
	movl	$m_cb+4, %eax
	cmpl	-60(%ebp), %eax
	jne	.L145
	.loc 1 4914 0
	cmpb	$0, -61(%ebp)
	je	.L128
.LVL235:
.LBB436:
.LBB437:
.LBB438:
.LBB439:
.LBB440:
	.loc 1 4045 0
	movl	1342178576, %edx
.LVL236:
.LBE440:
.LBE439:
.LBE438:
.LBE437:
	.loc 1 4924 0
	cmpl	%edx, -52(%ebp)
.LBB444:
.LBB443:
.LBB442:
.LBB441:
	.loc 1 4045 0
	movl	1342179344, %eax
.LVL237:
.LBE441:
.LBE442:
.LBE443:
.LBE444:
	.loc 1 4924 0
	je	.L191
.LVL238:
.L147:
.LBE436:
	.loc 1 4946 0
	cmpb	$0, -61(%ebp)
.LBB445:
	.loc 1 4940 0
	movl	%edx, -52(%ebp)
	movl	%eax, -48(%ebp)
	.loc 1 4941 0
	movl	-44(%ebp), %edx
.LVL239:
	movl	-40(%ebp), %eax
.LVL240:
	movl	%edx, -36(%ebp)
.LVL241:
	movl	%eax, -32(%ebp)
.LVL242:
.LBE445:
	.loc 1 4946 0
	je	.L128
.LVL243:
.L148:
	movl	$m_cb, -60(%ebp)
	.loc 1 4871 0
	movb	$0, -61(%ebp)
	jmp	.L145
.LVL244:
.L190:
.LBB446:
	.loc 1 4875 0
	movl	%eax, %ebx
.LBB419:
.LBB420:
	.loc 1 4230 0
	movb	%al, %cl
	movl	$1, %edx
.LBE420:
.LBE419:
	.loc 1 4875 0
	andl	$63, %ebx
.LVL245:
.LBB422:
.LBB421:
	.loc 1 4230 0
	andl	$7, %ecx
	.loc 1 4228 0
	movl	%ebx, %esi
	.loc 1 4230 0
	sall	%cl, %edx
	.loc 1 4228 0
	shrl	$3, %esi
.LVL246:
	.loc 1 4230 0
	movl	%edx, %ecx
.LVL247:
.LBE421:
.LBE422:
	.loc 1 4877 0
	movzbl	-36(%ebp,%esi), %edx
	testl	%ecx, %edx
	je	.L138
.LBB423:
	.loc 1 4881 0
	shrb	$6, %al
.LVL248:
	movb	%al, -62(%ebp)
	.loc 1 4879 0
	movzbl	%al, %eax
	movl	%eax, -68(%ebp)
.LVL249:
.LBB424:
.LBB425:
	.loc 1 4444 0
	movsbl	m_cb+48(%ebx), %eax
.LVL250:
	movl	m_cb(,%eax,4), %edi
.LVL251:
.LBE425:
.LBE424:
	.loc 1 4884 0
	testl	%edi, %edi
	jne	.L153
	cmpl	$3, -68(%ebp)
	jne	.L138
.L153:
.LBB426:
	.loc 1 4886 0
	cmpb	$3, -62(%ebp)
	jne	.L140
.LVL252:
.LBB427:
.LBB428:
	.loc 1 4237 0
	orb	%cl, -44(%ebp,%esi)
.LVL253:
.L140:
.LBE428:
.LBE427:
.LBB429:
.LBB430:
	.loc 1 4023 0
	leal	-56(%ebp), %eax
	movl	%ebx, -56(%ebp)
.LVL254:
	call	nrf_gpio_pin_port_decode
.LVL255:
	.loc 1 4024 0
	movl	-56(%ebp), %edx
	addl	$448, %edx
	movl	(%eax,%edx,4), %eax
.LVL256:
.LBE430:
.LBE429:
.LBB432:
.LBB433:
	.loc 1 4230 0
	movzbl	-52(%ebp,%esi), %edx
.LBE433:
.LBE432:
.LBB434:
.LBB431:
	.loc 1 4024 0
	andl	$196608, %eax
	shrl	$16, %eax
.LVL257:
.LBE431:
.LBE434:
	.loc 1 4892 0
	andl	%edx, %ecx
	je	.L154
	cmpl	$2, %eax
	je	.L141
.L154:
	.loc 1 4892 0 is_stmt 0 discriminator 1
	testl	%ecx, %ecx
	jne	.L138
	cmpl	$3, %eax
	jne	.L138
.L141:
	.loc 1 4897 0 is_stmt 1
	cmpb	$3, -62(%ebp)
	jne	.L143
.LBB435:
	.loc 1 4899 0
	xorl	%edx, %edx
	cmpl	$2, %eax
	.loc 1 4903 0
	movl	%ebx, %eax
	.loc 1 4899 0
	sete	%dl
	addl	$2, %edx
.LVL258:
	.loc 1 4903 0
	call	nrf_gpio_cfg_sense_set
.LVL259:
	.loc 1 4904 0
	incb	-61(%ebp)
.LVL260:
.L143:
.LBE435:
	.loc 1 4906 0
	testl	%edi, %edi
	je	.L138
	.loc 1 4908 0
	pushl	%eax
	pushl	%eax
	pushl	-68(%ebp)
	pushl	%ebx
	call	*%edi
.LVL261:
	addl	$16, %esp
	jmp	.L138
.LVL262:
.L191:
.LBE426:
.LBE423:
.LBE446:
.LBB447:
	.loc 1 4924 0
	cmpl	%eax, -48(%ebp)
	jne	.L147
.LVL263:
.L128:
.LBE447:
.LBE455:
	.loc 1 4948 0
	movl	-28(%ebp), %eax
	xorl	%gs:20, %eax
	je	.L151
	call	__stack_chk_fail
.LVL264:
.L151:
	leal	-12(%ebp), %esp
	popl	%ebx
	.cfi_restore 3
	popl	%esi
	.cfi_restore 6
	popl	%edi
	.cfi_restore 7
	popl	%ebp
	.cfi_restore 5
	.cfi_def_cfa 4, 4
	ret
	.cfi_endproc
.LFE238:
	.size	GPIOTE_IRQHandler, .-GPIOTE_IRQHandler
	.section	.text.unlikely.GPIOTE_IRQHandler
.LCOLDE27:
	.section	.text.GPIOTE_IRQHandler
.LHOTE27:
	.section	.bss.m_cb,"aw",@nobits
	.align 32
	.type	m_cb, @object
	.size	m_cb, 104
m_cb:
	.zero	104
	.text
.Letext0:
	.section	.text.unlikely.nrf_gpiote_event_clear
.Letext_cold0:
	.section	.note.GNU-stack,"",@progbits
