	.file	"ota.c"
	.text
.Ltext0:
	.section	.text.unlikely.hal_ota_get_default_module,"ax",@progbits
.LCOLDB0:
	.section	.text.hal_ota_get_default_module,"ax",@progbits
.LHOTB0:
	.section	.text.unlikely.hal_ota_get_default_module
.Ltext_cold0:
	.section	.text.hal_ota_get_default_module
	.globl	hal_ota_get_default_module
	.type	hal_ota_get_default_module, @function
hal_ota_get_default_module:
.LFB23:
	.file 1 "kernel/hal/ota.c"
	.loc 1 11 0
	.cfi_startproc
	pushl	%ebp
	.cfi_def_cfa_offset 8
	.cfi_offset 5, -8
	.loc 1 13 0
	movl	ota_module, %eax
	.loc 1 11 0
	movl	%esp, %ebp
	.cfi_def_cfa_register 5
	.loc 1 13 0
	popl	%ebp
	.cfi_restore 5
	.cfi_def_cfa 4, 4
	ret
	.cfi_endproc
.LFE23:
	.size	hal_ota_get_default_module, .-hal_ota_get_default_module
	.section	.text.unlikely.hal_ota_get_default_module
.LCOLDE0:
	.section	.text.hal_ota_get_default_module
.LHOTE0:
	.section	.text.unlikely.hal_ota_register_module,"ax",@progbits
.LCOLDB1:
	.section	.text.hal_ota_register_module,"ax",@progbits
.LHOTB1:
	.globl	hal_ota_register_module
	.type	hal_ota_register_module, @function
hal_ota_register_module:
.LFB24:
	.loc 1 16 0
	.cfi_startproc
.LVL0:
	pushl	%ebp
	.cfi_def_cfa_offset 8
	.cfi_offset 5, -8
	movl	%esp, %ebp
	.cfi_def_cfa_register 5
	.loc 1 17 0
	movl	8(%ebp), %eax
	.loc 1 18 0
	popl	%ebp
	.cfi_restore 5
	.cfi_def_cfa 4, 4
	.loc 1 17 0
	movl	%eax, ota_module
	.loc 1 18 0
	ret
	.cfi_endproc
.LFE24:
	.size	hal_ota_register_module, .-hal_ota_register_module
	.section	.text.unlikely.hal_ota_register_module
.LCOLDE1:
	.section	.text.hal_ota_register_module
.LHOTE1:
	.section	.text.unlikely.hal_ota_init,"ax",@progbits
.LCOLDB2:
	.section	.text.hal_ota_init,"ax",@progbits
.LHOTB2:
	.globl	hal_ota_init
	.type	hal_ota_init, @function
hal_ota_init:
.LFB25:
	.loc 1 21 0
	.cfi_startproc
.LVL1:
	pushl	%ebp
	.cfi_def_cfa_offset 8
	.cfi_offset 5, -8
	movl	%esp, %ebp
	.cfi_def_cfa_register 5
	subl	$16, %esp
	.loc 1 22 0
	movl	ota_module, %eax
	pushl	8(%ebp)
	pushl	%eax
	call	*20(%eax)
.LVL2:
	.loc 1 23 0
	leave
	.cfi_restore 5
	.cfi_def_cfa 4, 4
	ret
	.cfi_endproc
.LFE25:
	.size	hal_ota_init, .-hal_ota_init
	.section	.text.unlikely.hal_ota_init
.LCOLDE2:
	.section	.text.hal_ota_init
.LHOTE2:
	.section	.text.unlikely.hal_ota_write,"ax",@progbits
.LCOLDB3:
	.section	.text.hal_ota_write,"ax",@progbits
.LHOTB3:
	.globl	hal_ota_write
	.type	hal_ota_write, @function
hal_ota_write:
.LFB26:
	.loc 1 26 0
	.cfi_startproc
.LVL3:
	pushl	%ebp
	.cfi_def_cfa_offset 8
	.cfi_offset 5, -8
	movl	%esp, %ebp
	.cfi_def_cfa_register 5
	pushl	%esi
	pushl	%ebx
	.cfi_offset 6, -12
	.cfi_offset 3, -16
	.loc 1 26 0
	movl	8(%ebp), %eax
	movl	12(%ebp), %ecx
	movl	16(%ebp), %ebx
	movl	20(%ebp), %esi
	.loc 1 27 0
	testl	%eax, %eax
	jne	.L8
.LBB8:
.LBB9:
	.loc 1 12 0
	movl	ota_module, %eax
.LVL4:
.LBE9:
.LBE8:
	.loc 1 31 0
	testl	%eax, %eax
	je	.L9
.L8:
	.loc 1 31 0 discriminator 1
	movl	24(%eax), %edx
	testl	%edx, %edx
	je	.L9
	.loc 1 32 0
	movl	%esi, 20(%ebp)
.LVL5:
	movl	%ebx, 16(%ebp)
.LVL6:
	movl	%ecx, 12(%ebp)
.LVL7:
	movl	%eax, 8(%ebp)
	.loc 1 36 0
	popl	%ebx
	.cfi_remember_state
	.cfi_restore 3
.LVL8:
	popl	%esi
	.cfi_restore 6
.LVL9:
	popl	%ebp
	.cfi_restore 5
	.cfi_def_cfa 4, 4
	.loc 1 32 0
	jmp	*%edx
.LVL10:
.L9:
	.cfi_restore_state
	.loc 1 36 0
	popl	%ebx
	.cfi_restore 3
.LVL11:
	xorl	%eax, %eax
.LVL12:
	popl	%esi
	.cfi_restore 6
.LVL13:
	popl	%ebp
	.cfi_restore 5
	.cfi_def_cfa 4, 4
	ret
	.cfi_endproc
.LFE26:
	.size	hal_ota_write, .-hal_ota_write
	.section	.text.unlikely.hal_ota_write
.LCOLDE3:
	.section	.text.hal_ota_write
.LHOTE3:
	.section	.text.unlikely.hal_ota_read,"ax",@progbits
.LCOLDB4:
	.section	.text.hal_ota_read,"ax",@progbits
.LHOTB4:
	.globl	hal_ota_read
	.type	hal_ota_read, @function
hal_ota_read:
.LFB27:
	.loc 1 39 0
	.cfi_startproc
.LVL14:
	pushl	%ebp
	.cfi_def_cfa_offset 8
	.cfi_offset 5, -8
	movl	%esp, %ebp
	.cfi_def_cfa_register 5
	pushl	%esi
	pushl	%ebx
	.cfi_offset 6, -12
	.cfi_offset 3, -16
	.loc 1 39 0
	movl	8(%ebp), %eax
	movl	12(%ebp), %ecx
	movl	16(%ebp), %ebx
	movl	20(%ebp), %esi
	.loc 1 40 0
	testl	%eax, %eax
	jne	.L17
.LBB10:
.LBB11:
	.loc 1 12 0
	movl	ota_module, %eax
.LVL15:
.LBE11:
.LBE10:
	.loc 1 44 0
	testl	%eax, %eax
	je	.L18
.L17:
	.loc 1 44 0 discriminator 1
	movl	28(%eax), %edx
	testl	%edx, %edx
	je	.L18
	.loc 1 45 0
	movl	%esi, 20(%ebp)
.LVL16:
	movl	%ebx, 16(%ebp)
.LVL17:
	movl	%ecx, 12(%ebp)
.LVL18:
	movl	%eax, 8(%ebp)
	.loc 1 49 0
	popl	%ebx
	.cfi_remember_state
	.cfi_restore 3
.LVL19:
	popl	%esi
	.cfi_restore 6
.LVL20:
	popl	%ebp
	.cfi_restore 5
	.cfi_def_cfa 4, 4
	.loc 1 45 0
	jmp	*%edx
.LVL21:
.L18:
	.cfi_restore_state
	.loc 1 49 0
	popl	%ebx
	.cfi_restore 3
.LVL22:
	xorl	%eax, %eax
.LVL23:
	popl	%esi
	.cfi_restore 6
.LVL24:
	popl	%ebp
	.cfi_restore 5
	.cfi_def_cfa 4, 4
	ret
	.cfi_endproc
.LFE27:
	.size	hal_ota_read, .-hal_ota_read
	.section	.text.unlikely.hal_ota_read
.LCOLDE4:
	.section	.text.hal_ota_read
.LHOTE4:
	.section	.text.unlikely.hal_ota_set_boot,"ax",@progbits
.LCOLDB5:
	.section	.text.hal_ota_set_boot,"ax",@progbits
.LHOTB5:
	.globl	hal_ota_set_boot
	.type	hal_ota_set_boot, @function
hal_ota_set_boot:
.LFB28:
	.loc 1 52 0
	.cfi_startproc
.LVL25:
	pushl	%ebp
	.cfi_def_cfa_offset 8
	.cfi_offset 5, -8
	movl	%esp, %ebp
	.cfi_def_cfa_register 5
	.loc 1 52 0
	movl	8(%ebp), %eax
	movl	12(%ebp), %ecx
	.loc 1 53 0
	testl	%eax, %eax
	jne	.L25
.LBB12:
.LBB13:
	.loc 1 12 0
	movl	ota_module, %eax
.LVL26:
.LBE13:
.LBE12:
	.loc 1 57 0
	testl	%eax, %eax
	je	.L26
.L25:
	.loc 1 57 0 discriminator 1
	movl	32(%eax), %edx
	testl	%edx, %edx
	je	.L26
	.loc 1 58 0
	movl	%ecx, 12(%ebp)
.LVL27:
	movl	%eax, 8(%ebp)
	.loc 1 62 0
	popl	%ebp
	.cfi_remember_state
	.cfi_restore 5
	.cfi_def_cfa 4, 4
	.loc 1 58 0
	jmp	*%edx
.LVL28:
.L26:
	.cfi_restore_state
	.loc 1 62 0
	xorl	%eax, %eax
.LVL29:
	popl	%ebp
	.cfi_restore 5
	.cfi_def_cfa 4, 4
	ret
	.cfi_endproc
.LFE28:
	.size	hal_ota_set_boot, .-hal_ota_set_boot
	.section	.text.unlikely.hal_ota_set_boot
.LCOLDE5:
	.section	.text.hal_ota_set_boot
.LHOTE5:
	.section	.bss.ota_module,"aw",@nobits
	.align 4
	.type	ota_module, @object
	.size	ota_module, 4
ota_module:
	.zero	4
	.text
.Letext0:
	.section	.text.unlikely.hal_ota_get_default_module
.Letext_cold0:
	.file 2 "/home/stone/Documents/Ali_IOT/build/compiler/gcc-arm-none-eabi/Linux64/arm-none-eabi/include/machine/_default_types.h"
	.file 3 "/home/stone/Documents/Ali_IOT/build/compiler/gcc-arm-none-eabi/Linux64/arm-none-eabi/include/sys/_stdint.h"
	.file 4 "./include/aos/list.h"
	.file 5 "./include/hal/base.h"
	.file 6 "./include/hal/ota.h"
	.file 7 "./include/hal/sensor.h"
	.file 8 "./include/aos/log.h"
	.section	.note.GNU-stack,"",@progbits
