	.file	"ota_service.c"
	.text
.Ltext0:
	.section	.text.unlikely.do_update,"ax",@progbits
.LCOLDB0:
	.section	.text.do_update,"ax",@progbits
.LHOTB0:
	.section	.text.unlikely.do_update
.Ltext_cold0:
	.section	.text.do_update
	.globl	do_update
	.type	do_update, @function
do_update:
.LFB21:
	.file 1 "framework/fota/ota_service.c"
	.loc 1 74 0
	.cfi_startproc
.LVL0:
	pushl	%ebp
	.cfi_def_cfa_offset 8
	.cfi_offset 5, -8
	movl	%esp, %ebp
	.cfi_def_cfa_register 5
	subl	$20, %esp
	.loc 1 78 0
	pushl	12(%ebp)
	call	ota_set_resp_msg
.LVL1:
	.loc 1 79 0
	call	ota_get_resp_msg
.LVL2:
	addl	$16, %esp
	movl	%eax, 12(%ebp)
	movl	$update_action, 8(%ebp)
	.loc 1 81 0
	leave
	.cfi_restore 5
	.cfi_def_cfa 4, 4
	.loc 1 79 0
	jmp	aos_schedule_call
.LVL3:
	.cfi_endproc
.LFE21:
	.size	do_update, .-do_update
	.section	.text.unlikely.do_update
.LCOLDE0:
	.section	.text.do_update
.LHOTE0:
	.section	.text.unlikely.ota_hal_finish_cb,"ax",@progbits
.LCOLDB1:
	.section	.text.ota_hal_finish_cb,"ax",@progbits
.LHOTB1:
	.type	ota_hal_finish_cb, @function
ota_hal_finish_cb:
.LFB19:
	.loc 1 38 0
	.cfi_startproc
.LVL4:
	pushl	%ebp
	.cfi_def_cfa_offset 8
	.cfi_offset 5, -8
	movl	%esp, %ebp
	.cfi_def_cfa_register 5
	subl	$40, %esp
	.loc 1 38 0
	movl	%gs:20, %eax
	movl	%eax, -12(%ebp)
	xorl	%eax, %eax
	.loc 1 40 0
	movl	12(%ebp), %eax
	movl	(%eax), %eax
	movl	%eax, -32(%ebp)
	.loc 1 41 0
	movl	8(%ebp), %eax
	movl	%eax, -28(%ebp)
	.loc 1 42 0
	call	ota_get_firmware_type
.LVL5:
	movl	%eax, -24(%ebp)
	.loc 1 43 0
	call	ota_get_splict_size
.LVL6:
	movl	%eax, -20(%ebp)
	.loc 1 44 0
	call	ota_get_diff_version
.LVL7:
	movb	%al, -16(%ebp)
	.loc 1 45 0
	call	hal_ota_get_default_module
.LVL8:
	pushl	%edx
	pushl	%edx
	leal	-32(%ebp), %edx
	pushl	%edx
	pushl	%eax
	call	hal_ota_set_boot
.LVL9:
	.loc 1 46 0
	movl	-12(%ebp), %ecx
	xorl	%gs:20, %ecx
	je	.L4
	call	__stack_chk_fail
.LVL10:
.L4:
	leave
	.cfi_restore 5
	.cfi_def_cfa 4, 4
	ret
	.cfi_endproc
.LFE19:
	.size	ota_hal_finish_cb, .-ota_hal_finish_cb
	.section	.text.unlikely.ota_hal_finish_cb
.LCOLDE1:
	.section	.text.ota_hal_finish_cb
.LHOTE1:
	.section	.text.unlikely.ota_hal_write_cb,"ax",@progbits
.LCOLDB2:
	.section	.text.ota_hal_write_cb,"ax",@progbits
.LHOTB2:
	.type	ota_hal_write_cb, @function
ota_hal_write_cb:
.LFB18:
	.loc 1 33 0
	.cfi_startproc
.LVL11:
	pushl	%ebp
	.cfi_def_cfa_offset 8
	.cfi_offset 5, -8
	movl	%esp, %ebp
	.cfi_def_cfa_register 5
	pushl	%esi
	pushl	%ebx
	.cfi_offset 6, -12
	.cfi_offset 3, -16
	.loc 1 33 0
	movl	16(%ebp), %esi
	movl	12(%ebp), %ebx
	.loc 1 34 0
	call	hal_ota_get_default_module
.LVL12:
	movl	$0, 12(%ebp)
	movl	%eax, 8(%ebp)
	movl	%esi, 20(%ebp)
	movl	%ebx, 16(%ebp)
	.loc 1 35 0
	popl	%ebx
	.cfi_restore 3
	popl	%esi
	.cfi_restore 6
	popl	%ebp
	.cfi_restore 5
	.cfi_def_cfa 4, 4
	.loc 1 34 0
	jmp	hal_ota_write
.LVL13:
	.cfi_endproc
.LFE18:
	.size	ota_hal_write_cb, .-ota_hal_write_cb
	.section	.text.unlikely.ota_hal_write_cb
.LCOLDE2:
	.section	.text.ota_hal_write_cb
.LHOTE2:
	.section	.rodata.str1.1,"aMS",@progbits,1
.LC3:
	.string	"do update buf is null"
.LC4:
	.string	"[%06d]<E> "
.LC5:
	.string	"\r\n"
	.section	.text.unlikely.update_action,"ax",@progbits
.LCOLDB6:
	.section	.text.update_action,"ax",@progbits
.LHOTB6:
	.type	update_action, @function
update_action:
.LFB20:
	.loc 1 56 0
	.cfi_startproc
.LVL14:
	pushl	%ebp
	.cfi_def_cfa_offset 8
	.cfi_offset 5, -8
	movl	%esp, %ebp
	.cfi_def_cfa_register 5
	pushl	%edi
	pushl	%ebx
	subl	$1264, %esp
	.cfi_offset 7, -12
	.cfi_offset 3, -16
	.loc 1 56 0
	movl	8(%ebp), %edx
	movl	%gs:20, %eax
	movl	%eax, -12(%ebp)
	xorl	%eax, %eax
	.loc 1 58 0
	testl	%edx, %edx
	jne	.L10
.LVL15:
.LBB22:
.LBB23:
	.loc 1 59 0
	testb	$2, aos_log_level
	je	.L9
	call	aos_now_ms
.LVL16:
	pushl	%edx
	pushl	$.LC3
	pushl	%eax
	pushl	$.LC4
	call	csp_printf
.LVL17:
	movl	$.LC3, (%esp)
	call	csp_printf
.LVL18:
	movl	$.LC5, (%esp)
	call	csp_printf
.LVL19:
	jmp	.L18
.LVL20:
.L10:
.LBE23:
.LBE22:
	.loc 1 64 0
	leal	-1272(%ebp), %ebx
	xorl	%eax, %eax
	movl	$315, %ecx
.LBB24:
.LBB25:
	.loc 1 23 0
	movl	$ota_hal_write_cb, ota_write_flash_callback
	.loc 1 24 0
	movl	$ota_hal_finish_cb, ota_finish_callbak
.LBE25:
.LBE24:
	.loc 1 64 0
	movl	%ebx, %edi
	rep stosl
.LVL21:
	.loc 1 67 0
	orl	$-1, %ecx
	movl	%edx, %edi
	repnz scasb
.LVL22:
	pushl	%eax
	pushl	%ebx
	notl	%ecx
	decl	%ecx
	pushl	%ecx
	pushl	%edx
	call	platform_ota_parse_response
.LVL23:
	addl	$16, %esp
	testb	%al, %al
	jne	.L9
	.loc 1 68 0
	pushl	ota_finish_callbak
	pushl	ota_write_flash_callback
	pushl	$ota_request_parmas
	pushl	%ebx
	call	ota_do_update_packet
.LVL24:
.L18:
	addl	$16, %esp
.L9:
	.loc 1 71 0
	movl	-12(%ebp), %eax
	xorl	%gs:20, %eax
	je	.L13
	call	__stack_chk_fail
.LVL25:
.L13:
	leal	-8(%ebp), %esp
	popl	%ebx
	.cfi_restore 3
	popl	%edi
	.cfi_restore 7
	popl	%ebp
	.cfi_restore 5
	.cfi_def_cfa 4, 4
	ret
	.cfi_endproc
.LFE20:
	.size	update_action, .-update_action
	.section	.text.unlikely.update_action
.LCOLDE6:
	.section	.text.update_action
.LHOTE6:
	.section	.rodata.str1.1
.LC7:
	.string	"cancel update buf is null"
	.section	.text.unlikely.cancel_update,"ax",@progbits
.LCOLDB8:
	.section	.text.cancel_update,"ax",@progbits
.LHOTB8:
	.globl	cancel_update
	.type	cancel_update, @function
cancel_update:
.LFB22:
	.loc 1 84 0
	.cfi_startproc
.LVL26:
	pushl	%ebp
	.cfi_def_cfa_offset 8
	.cfi_offset 5, -8
	movl	%esp, %ebp
	.cfi_def_cfa_register 5
	pushl	%edi
	pushl	%ebx
	subl	$1264, %esp
	.cfi_offset 7, -12
	.cfi_offset 3, -16
	.loc 1 84 0
	movl	12(%ebp), %edx
	movl	%gs:20, %eax
	movl	%eax, -12(%ebp)
	xorl	%eax, %eax
	.loc 1 86 0
	testl	%edx, %edx
	jne	.L20
.LVL27:
.LBB30:
.LBB31:
	.loc 1 87 0
	testb	$2, aos_log_level
	je	.L19
	call	aos_now_ms
.LVL28:
	pushl	%edx
	pushl	$.LC7
	pushl	%eax
	pushl	$.LC4
	call	csp_printf
.LVL29:
	movl	$.LC7, (%esp)
	call	csp_printf
.LVL30:
	movl	$.LC5, (%esp)
	call	csp_printf
.LVL31:
	jmp	.L27
.LVL32:
.L20:
.LBE31:
.LBE30:
	.loc 1 92 0
	xorl	%eax, %eax
	movl	%edx, %edi
	orl	$-1, %ecx
	repnz scasb
.LVL33:
	leal	-1272(%ebp), %ebx
	pushl	%eax
	notl	%ecx
	decl	%ecx
	pushl	%ebx
	pushl	%ecx
	pushl	%edx
	call	platform_ota_parse_cancel_responce
.LVL34:
	.loc 1 93 0
	movl	%ebx, (%esp)
	call	ota_cancel_update_packet
.LVL35:
.L27:
	addl	$16, %esp
.L19:
	.loc 1 94 0
	movl	-12(%ebp), %eax
	xorl	%gs:20, %eax
	je	.L22
	call	__stack_chk_fail
.LVL36:
.L22:
	leal	-8(%ebp), %esp
	popl	%ebx
	.cfi_restore 3
	popl	%edi
	.cfi_restore 7
	popl	%ebp
	.cfi_restore 5
	.cfi_def_cfa 4, 4
	ret
	.cfi_endproc
.LFE22:
	.size	cancel_update, .-cancel_update
	.section	.text.unlikely.cancel_update
.LCOLDE8:
	.section	.text.cancel_update
.LHOTE8:
	.section	.text.unlikely.ota_hal_init,"ax",@progbits
.LCOLDB9:
	.section	.text.ota_hal_init,"ax",@progbits
.LHOTB9:
	.globl	ota_hal_init
	.type	ota_hal_init, @function
ota_hal_init:
.LFB17:
	.loc 1 28 0
	.cfi_startproc
.LVL37:
	pushl	%ebp
	.cfi_def_cfa_offset 8
	.cfi_offset 5, -8
	movl	%esp, %ebp
	.cfi_def_cfa_register 5
	subl	$20, %esp
	.loc 1 29 0
	leal	8(%ebp), %eax
.LVL38:
	pushl	%eax
	call	hal_ota_init
.LVL39:
	.loc 1 30 0
	leave
	.cfi_restore 5
	.cfi_def_cfa 4, 4
.LVL40:
	ret
	.cfi_endproc
.LFE17:
	.size	ota_hal_init, .-ota_hal_init
	.section	.text.unlikely.ota_hal_init
.LCOLDE9:
	.section	.text.ota_hal_init
.LHOTE9:
	.section	.text.unlikely.ota_check_update,"ax",@progbits
.LCOLDB10:
	.section	.text.ota_check_update,"ax",@progbits
.LHOTB10:
	.globl	ota_check_update
	.type	ota_check_update, @function
ota_check_update:
.LFB23:
	.loc 1 97 0
	.cfi_startproc
.LVL41:
	pushl	%ebp
	.cfi_def_cfa_offset 8
	.cfi_offset 5, -8
	movl	%esp, %ebp
	.cfi_def_cfa_register 5
	.loc 1 98 0
	movl	$ota_request_parmas, 8(%ebp)
.LVL42:
	.loc 1 99 0
	popl	%ebp
	.cfi_restore 5
	.cfi_def_cfa 4, 4
	.loc 1 98 0
	jmp	platform_ota_publish_request
.LVL43:
	.cfi_endproc
.LFE23:
	.size	ota_check_update, .-ota_check_update
	.section	.text.unlikely.ota_check_update
.LCOLDE10:
	.section	.text.ota_check_update
.LHOTE10:
	.section	.text.unlikely.ota_regist_upgrade,"ax",@progbits
.LCOLDB11:
	.section	.text.ota_regist_upgrade,"ax",@progbits
.LHOTB11:
	.globl	ota_regist_upgrade
	.type	ota_regist_upgrade, @function
ota_regist_upgrade:
.LFB24:
	.loc 1 102 0
	.cfi_startproc
	pushl	%ebp
	.cfi_def_cfa_offset 8
	.cfi_offset 5, -8
	movl	%esp, %ebp
	.cfi_def_cfa_register 5
	subl	$20, %esp
	.loc 1 103 0
	pushl	$do_update
	call	platform_ota_subscribe_upgrade
.LVL44:
	.loc 1 104 0
	call	ota_post_version_msg
.LVL45:
	.loc 1 105 0
	movl	$cancel_update, (%esp)
	call	platform_ota_cancel_upgrade
.LVL46:
	.loc 1 106 0
	addl	$16, %esp
	leave
	.cfi_restore 5
	.cfi_def_cfa 4, 4
	ret
	.cfi_endproc
.LFE24:
	.size	ota_regist_upgrade, .-ota_regist_upgrade
	.section	.text.unlikely.ota_regist_upgrade
.LCOLDE11:
	.section	.text.ota_regist_upgrade
.LHOTE11:
	.section	.rodata
.LC12:
	.string	""
	.string	""
	.section	.text.unlikely.ota_service_event,"ax",@progbits
.LCOLDB13:
	.section	.text.ota_service_event,"ax",@progbits
.LHOTB13:
	.globl	ota_service_event
	.type	ota_service_event, @function
ota_service_event:
.LFB26:
	.loc 1 124 0
	.cfi_startproc
.LVL47:
	pushl	%ebp
	.cfi_def_cfa_offset 8
	.cfi_offset 5, -8
	movl	%esp, %ebp
	.cfi_def_cfa_register 5
	subl	$8, %esp
	.loc 1 124 0
	movl	8(%ebp), %eax
	.loc 1 125 0
	cmpl	$327681, 4(%eax)
	jne	.L34
	.loc 1 126 0
	cmpl	$0, ota_init
	jne	.L34
.LVL48:
.LBB36:
.LBB37:
	.loc 1 130 0
	subl	$12, %esp
	pushl	8(%eax)
	.loc 1 129 0
	movl	$1, ota_init
	.loc 1 130 0
	call	platform_ota_init
.LVL49:
.LBB38:
.LBB39:
	.loc 1 114 0
	call	aos_get_app_version
.LVL50:
	.loc 1 116 0
	movl	$.LC12, ota_request_parmas+4
	.loc 1 114 0
	movl	%eax, ota_request_parmas
	.loc 1 120 0
	call	platform_ota_get_id
.LVL51:
.LBE39:
.LBE38:
	.loc 1 132 0
	addl	$16, %esp
.LBB41:
.LBB40:
	.loc 1 120 0
	movl	%eax, ota_request_parmas+12
.LBE40:
.LBE41:
.LBE37:
.LBE36:
	.loc 1 134 0
	leave
	.cfi_remember_state
	.cfi_restore 5
	.cfi_def_cfa 4, 4
.LBB43:
.LBB42:
	.loc 1 132 0
	jmp	ota_regist_upgrade
.LVL52:
.L34:
	.cfi_restore_state
.LBE42:
.LBE43:
	.loc 1 134 0
	leave
	.cfi_restore 5
	.cfi_def_cfa 4, 4
	ret
	.cfi_endproc
.LFE26:
	.size	ota_service_event, .-ota_service_event
	.section	.text.unlikely.ota_service_event
.LCOLDE13:
	.section	.text.ota_service_event
.LHOTE13:
	.section	.text.unlikely.ota_service_init,"ax",@progbits
.LCOLDB14:
	.section	.text.ota_service_init,"ax",@progbits
.LHOTB14:
	.globl	ota_service_init
	.type	ota_service_init, @function
ota_service_init:
.LFB27:
	.loc 1 137 0
	.cfi_startproc
	pushl	%ebp
	.cfi_def_cfa_offset 8
	.cfi_offset 5, -8
	movl	%esp, %ebp
	.cfi_def_cfa_register 5
	subl	$12, %esp
	.loc 1 138 0
	pushl	$0
	pushl	$ota_service_event
	pushl	$1
	call	aos_register_event_filter
.LVL53:
	.loc 1 139 0
	addl	$16, %esp
	leave
	.cfi_restore 5
	.cfi_def_cfa 4, 4
	ret
	.cfi_endproc
.LFE27:
	.size	ota_service_init, .-ota_service_init
	.section	.text.unlikely.ota_service_init
.LCOLDE14:
	.section	.text.ota_service_init
.LHOTE14:
	.section	.bss.ota_finish_callbak,"aw",@nobits
	.align 4
	.type	ota_finish_callbak, @object
	.size	ota_finish_callbak, 4
ota_finish_callbak:
	.zero	4
	.section	.bss.ota_write_flash_callback,"aw",@nobits
	.align 4
	.type	ota_write_flash_callback, @object
	.size	ota_write_flash_callback, 4
ota_write_flash_callback:
	.zero	4
	.section	.bss.ota_request_parmas,"aw",@nobits
	.align 4
	.type	ota_request_parmas, @object
	.size	ota_request_parmas, 16
ota_request_parmas:
	.zero	16
	.section	.bss.ota_init,"aw",@nobits
	.align 4
	.type	ota_init, @object
	.size	ota_init, 4
ota_init:
	.zero	4
	.text
.Letext0:
	.section	.text.unlikely.do_update
.Letext_cold0:
	.file 2 "/home/stone/Documents/Ali_IOT/build/compiler/gcc-arm-none-eabi/Linux64/arm-none-eabi/include/machine/_default_types.h"
	.file 3 "/home/stone/Documents/Ali_IOT/build/compiler/gcc-arm-none-eabi/Linux64/arm-none-eabi/include/sys/_stdint.h"
	.file 4 "./include/aos/yloop.h"
	.file 5 "./include/hal/ota.h"
	.file 6 "./include/hal/sensor.h"
	.file 7 "./framework/fota/./platform/ota_transport.h"
	.file 8 "framework/fota/ota_update_manifest.h"
	.file 9 "framework/fota/ota_util.h"
	.file 10 "./include/aos/kernel.h"
	.file 11 "./include/aos/internal/log_impl.h"
	.file 12 "./include/aos/version.h"
	.file 13 "./include/aos/log.h"
	.section	.note.GNU-stack,"",@progbits
