	.file	"ota_update_manifest.c"
	.text
.Ltext0:
	.section	.text.unlikely.set_download_url,"ax",@progbits
.LCOLDB0:
	.section	.text.set_download_url,"ax",@progbits
.LHOTB0:
	.section	.text.unlikely.set_download_url
.Ltext_cold0:
	.section	.text.set_download_url
	.type	set_download_url, @function
set_download_url:
.LFB18:
	.file 1 "framework/fota/ota_update_manifest.c"
	.loc 1 31 0
	.cfi_startproc
.LVL0:
	.loc 1 32 0
	testl	%eax, %eax
	je	.L12
	.loc 1 35 0
	cmpl	$0, msg_temp
	.loc 1 31 0
	pushl	%ebp
	.cfi_def_cfa_offset 8
	.cfi_offset 5, -8
	movl	%esp, %ebp
	.cfi_def_cfa_register 5
	pushl	%edi
	pushl	%ebx
	.cfi_offset 7, -12
	.cfi_offset 3, -16
	movl	%eax, %ebx
	.loc 1 35 0
	jne	.L4
	.loc 1 36 0
	subl	$12, %esp
	pushl	$1216
	call	aos_malloc
.LVL1:
	addl	$16, %esp
	movl	%eax, msg_temp
.L4:
	.loc 1 38 0
	movl	msg_temp, %edx
	.loc 1 33 0
	orl	$-1, %eax
	.loc 1 38 0
	testl	%edx, %edx
	je	.L3
	.loc 1 42 0
	xorl	%eax, %eax
	movl	%edx, %edi
	movl	$304, %ecx
	rep stosl
	.loc 1 43 0
	pushl	%eax
	pushl	$1215
	pushl	%ebx
	pushl	%edx
	call	strncpy
.LVL2:
	.loc 1 45 0
	addl	$16, %esp
	xorl	%eax, %eax
.L3:
	.loc 1 46 0
	leal	-8(%ebp), %esp
	popl	%ebx
	.cfi_restore 3
.LVL3:
	popl	%edi
	.cfi_restore 7
	popl	%ebp
	.cfi_restore 5
	.cfi_def_cfa 4, 4
	ret
.LVL4:
.L12:
	.loc 1 33 0
	orl	$-1, %eax
.LVL5:
	.loc 1 46 0
	ret
	.cfi_endproc
.LFE18:
	.size	set_download_url, .-set_download_url
	.section	.text.unlikely.set_download_url
.LCOLDE0:
	.section	.text.set_download_url
.LHOTE0:
	.section	.rodata.str1.1,"aMS",@progbits,1
.LC1:
	.string	"task update start\r\n"
.LC2:
	.string	"[%06d]<I> "
.LC3:
	.string	"\r\n"
.LC4:
	.string	"ota download error\r\n"
.LC5:
	.string	"[%06d]<E> "
.LC6:
	.string	"ota download cancel\r\n"
.LC7:
	.string	"ota check md5 error\r\n"
.LC8:
	.string	"ota status %d\r\n"
.LC9:
	.string	"reboot system after 3 second!\r\n"
.LC10:
	.string	"task update over\r\n"
	.section	.text.unlikely.ota_download_start,"ax",@progbits
.LCOLDB11:
	.section	.text.ota_download_start,"ax",@progbits
.LHOTB11:
	.globl	ota_download_start
	.type	ota_download_start, @function
ota_download_start:
.LFB23:
	.loc 1 109 0
	.cfi_startproc
.LVL6:
	pushl	%ebp
	.cfi_def_cfa_offset 8
	.cfi_offset 5, -8
	movl	%esp, %ebp
	.cfi_def_cfa_register 5
	pushl	%ebx
	subl	$20, %esp
	.cfi_offset 3, -12
	.loc 1 109 0
	movl	%gs:20, %eax
	movl	%eax, -12(%ebp)
	xorl	%eax, %eax
	.loc 1 110 0
	testb	$8, aos_log_level
	je	.L14
	.loc 1 110 0 is_stmt 0 discriminator 1
	call	aos_now_ms
.LVL7:
	pushl	%ecx
	pushl	$.LC1
	pushl	%eax
	pushl	$.LC2
	call	csp_printf
.LVL8:
	movl	$.LC1, (%esp)
	call	csp_printf
.LVL9:
	movl	$.LC3, (%esp)
	call	csp_printf
.LVL10:
	addl	$16, %esp
.L14:
	.loc 1 111 0 is_stmt 1
	call	ota_get_update_breakpoint
.LVL11:
	subl	$12, %esp
	pushl	%eax
	call	ota_hal_init
.LVL12:
	.loc 1 113 0
	movl	$1, (%esp)
	call	ota_set_status
.LVL13:
	.loc 1 114 0
	movl	$0, (%esp)
	call	ota_status_post
.LVL14:
	.loc 1 115 0
	addl	$12, %esp
	pushl	$md5
	pushl	g_write_func
	pushl	msg_temp
	call	ota_download
.LVL15:
	.loc 1 116 0
	addl	$16, %esp
	testl	%eax, %eax
	jg	.L15
	.loc 1 117 0
	testb	$2, aos_log_level
	je	.L16
	.loc 1 117 0 is_stmt 0 discriminator 1
	call	aos_now_ms
.LVL16:
	pushl	%edx
	pushl	$.LC4
	pushl	%eax
	pushl	$.LC5
	call	csp_printf
.LVL17:
	movl	$.LC4, (%esp)
	call	csp_printf
.LVL18:
	movl	$.LC3, (%esp)
	call	csp_printf
.LVL19:
	addl	$16, %esp
.L16:
	.loc 1 118 0 is_stmt 1
	subl	$12, %esp
	pushl	$-2
	call	ota_set_status
.LVL20:
	.loc 1 119 0
	addl	$16, %esp
	cmpl	$0, g_finish_cb
	je	.L17
.LBB54:
	.loc 1 120 0
	call	ota_get_update_type
.LVL21:
	movl	%eax, -16(%ebp)
	.loc 1 121 0
	pushl	%eax
	pushl	%eax
	leal	-16(%ebp), %eax
	pushl	%eax
	pushl	$1
	call	*g_finish_cb
.LVL22:
	jmp	.L54
.LVL23:
.L15:
.LBE54:
	.loc 1 126 0
	decl	%eax
.LVL24:
	jne	.L18
	.loc 1 127 0
	testb	$2, aos_log_level
	je	.L19
	.loc 1 127 0 is_stmt 0 discriminator 1
	call	aos_now_ms
.LVL25:
	pushl	%ebx
	pushl	$.LC6
	pushl	%eax
	pushl	$.LC5
	call	csp_printf
.LVL26:
	movl	$.LC6, (%esp)
	call	csp_printf
.LVL27:
	movl	$.LC3, (%esp)
	call	csp_printf
.LVL28:
	addl	$16, %esp
.L19:
	.loc 1 128 0 is_stmt 1
	cmpl	$0, g_finish_cb
	je	.L20
.LBB55:
	.loc 1 129 0
	call	ota_get_update_type
.LVL29:
	movl	%eax, -16(%ebp)
	.loc 1 130 0
	leal	-16(%ebp), %eax
	pushl	%ecx
	pushl	%ecx
	pushl	%eax
	pushl	$1
	call	*g_finish_cb
.LVL30:
	addl	$16, %esp
.L20:
.LBE55:
	.loc 1 132 0
	subl	$12, %esp
	pushl	$7
	jmp	.L55
.L18:
	.loc 1 136 0
	subl	$12, %esp
	pushl	$100
	call	ota_status_post
.LVL31:
	.loc 1 137 0
	movl	$3, (%esp)
	call	ota_set_status
.LVL32:
	.loc 1 138 0
	popl	%eax
	popl	%edx
	pushl	$33
	pushl	$md5
	call	check_md5
.LVL33:
	.loc 1 139 0
	addl	$16, %esp
	testl	%eax, %eax
	jns	.L21
	.loc 1 140 0
	testb	$2, aos_log_level
	je	.L22
	.loc 1 140 0 is_stmt 0 discriminator 1
	call	aos_now_ms
.LVL34:
	pushl	%ebx
	pushl	$.LC7
	pushl	%eax
	pushl	$.LC5
	call	csp_printf
.LVL35:
	movl	$.LC7, (%esp)
	call	csp_printf
.LVL36:
	movl	$.LC3, (%esp)
	call	csp_printf
.LVL37:
	addl	$16, %esp
.L22:
	.loc 1 141 0 is_stmt 1
	subl	$12, %esp
	pushl	$-4
	jmp	.L55
.LVL38:
.L21:
	.loc 1 144 0
	subl	$12, %esp
	pushl	$100
	call	ota_status_post
.LVL39:
	.loc 1 147 0
	addl	$16, %esp
	testb	$8, aos_log_level
	je	.L23
	.loc 1 147 0 is_stmt 0 discriminator 1
	call	ota_get_status
.LVL40:
	movl	%eax, %ebx
	call	aos_now_ms
.LVL41:
	pushl	%ebx
	pushl	$.LC8
	pushl	%eax
	pushl	$.LC2
	call	csp_printf
.LVL42:
	call	ota_get_status
.LVL43:
	popl	%edx
	popl	%ecx
	pushl	%eax
	pushl	$.LC8
	call	csp_printf
.LVL44:
	movl	$.LC3, (%esp)
	call	csp_printf
.LVL45:
	addl	$16, %esp
.L23:
	.loc 1 148 0 is_stmt 1
	subl	$12, %esp
	pushl	$4
	call	ota_set_status
.LVL46:
	.loc 1 149 0
	addl	$16, %esp
	cmpl	$0, g_finish_cb
	je	.L24
.LBB56:
	.loc 1 150 0
	call	ota_get_update_type
.LVL47:
	movl	%eax, -16(%ebp)
	.loc 1 151 0
	leal	-16(%ebp), %eax
	pushl	%ebx
	pushl	%ebx
	pushl	%eax
	pushl	$0
	call	*g_finish_cb
.LVL48:
	addl	$16, %esp
.L24:
.LBE56:
	.loc 1 153 0
	subl	$12, %esp
	pushl	$100
	call	ota_status_post
.LVL49:
	.loc 1 154 0
	movl	$5, (%esp)
.L55:
	call	ota_set_status
.LVL50:
.L54:
	addl	$16, %esp
.L17:
	.loc 1 157 0
	subl	$12, %esp
	pushl	$100
	call	ota_status_post
.LVL51:
.LBB57:
.LBB58:
	.loc 1 50 0
	movl	msg_temp, %eax
	addl	$16, %esp
	testl	%eax, %eax
	je	.L25
	.loc 1 51 0
	subl	$12, %esp
	pushl	%eax
	call	aos_free
.LVL52:
	.loc 1 52 0
	movl	$0, msg_temp
	addl	$16, %esp
.L25:
.LBE58:
.LBE57:
	.loc 1 159 0
	call	ota_status_deinit
.LVL53:
	.loc 1 160 0
	testb	$8, aos_log_level
	je	.L26
	.loc 1 160 0 is_stmt 0 discriminator 1
	call	aos_now_ms
.LVL54:
	pushl	%ecx
	pushl	$.LC9
	pushl	%eax
	pushl	$.LC2
	call	csp_printf
.LVL55:
	movl	$.LC9, (%esp)
	call	csp_printf
.LVL56:
	movl	$.LC3, (%esp)
	call	csp_printf
.LVL57:
	addl	$16, %esp
.L26:
	.loc 1 161 0 is_stmt 1
	subl	$12, %esp
	pushl	$3000
	call	aos_msleep
.LVL58:
	.loc 1 162 0
	addl	$16, %esp
	testb	$8, aos_log_level
	je	.L27
	.loc 1 162 0 is_stmt 0 discriminator 1
	call	aos_now_ms
.LVL59:
	pushl	%edx
	pushl	$.LC10
	pushl	%eax
	pushl	$.LC2
	call	csp_printf
.LVL60:
	movl	$.LC10, (%esp)
	call	csp_printf
.LVL61:
	movl	$.LC3, (%esp)
	call	csp_printf
.LVL62:
	addl	$16, %esp
.L27:
	.loc 1 163 0 is_stmt 1
	call	ota_reboot
.LVL63:
	.loc 1 164 0
	movl	-12(%ebp), %eax
	xorl	%gs:20, %eax
	je	.L28
	call	__stack_chk_fail
.LVL64:
.L28:
	movl	-4(%ebp), %ebx
	leave
	.cfi_restore 5
	.cfi_restore 3
	.cfi_def_cfa 4, 4
	ret
	.cfi_endproc
.LFE23:
	.size	ota_download_start, .-ota_download_start
	.section	.text.unlikely.ota_download_start
.LCOLDE11:
	.section	.text.ota_download_start
.LHOTE11:
	.section	.text.unlikely.ota_get_resp_msg,"ax",@progbits
.LCOLDB12:
	.section	.text.ota_get_resp_msg,"ax",@progbits
.LHOTB12:
	.globl	ota_get_resp_msg
	.type	ota_get_resp_msg, @function
ota_get_resp_msg:
.LFB20:
	.loc 1 57 0
	.cfi_startproc
	pushl	%ebp
	.cfi_def_cfa_offset 8
	.cfi_offset 5, -8
	.loc 1 59 0
	movl	msg_temp, %eax
	.loc 1 57 0
	movl	%esp, %ebp
	.cfi_def_cfa_register 5
	.loc 1 59 0
	popl	%ebp
	.cfi_restore 5
	.cfi_def_cfa 4, 4
	ret
	.cfi_endproc
.LFE20:
	.size	ota_get_resp_msg, .-ota_get_resp_msg
	.section	.text.unlikely.ota_get_resp_msg
.LCOLDE12:
	.section	.text.ota_get_resp_msg
.LHOTE12:
	.section	.text.unlikely.ota_set_resp_msg,"ax",@progbits
.LCOLDB13:
	.section	.text.ota_set_resp_msg,"ax",@progbits
.LHOTB13:
	.globl	ota_set_resp_msg
	.type	ota_set_resp_msg, @function
ota_set_resp_msg:
.LFB21:
	.loc 1 62 0
	.cfi_startproc
.LVL65:
	pushl	%ebp
	.cfi_def_cfa_offset 8
	.cfi_offset 5, -8
	movl	%esp, %ebp
	.cfi_def_cfa_register 5
	.loc 1 63 0
	movl	8(%ebp), %eax
	.loc 1 64 0
	popl	%ebp
	.cfi_restore 5
	.cfi_def_cfa 4, 4
	.loc 1 63 0
	jmp	set_download_url
.LVL66:
	.cfi_endproc
.LFE21:
	.size	ota_set_resp_msg, .-ota_set_resp_msg
	.section	.text.unlikely.ota_set_resp_msg
.LCOLDE13:
	.section	.text.ota_set_resp_msg
.LHOTE13:
	.section	.rodata.str1.1
.LC14:
	.string	"%s_%s"
.LC15:
	.string	"%s"
.LC16:
	.string	"ota_version %s\r\n"
	.section	.text.unlikely.ota_if_need,"ax",@progbits
.LCOLDB17:
	.section	.text.ota_if_need,"ax",@progbits
.LHOTB17:
	.globl	ota_if_need
	.type	ota_if_need, @function
ota_if_need:
.LFB22:
	.loc 1 72 0
	.cfi_startproc
.LVL67:
	pushl	%ebp
	.cfi_def_cfa_offset 8
	.cfi_offset 5, -8
	.loc 1 73 0
	orl	$-1, %ecx
	.loc 1 72 0
	movl	%esp, %ebp
	.cfi_def_cfa_register 5
	pushl	%edi
	pushl	%esi
	pushl	%ebx
	subl	$112, %esp
	.cfi_offset 7, -12
	.cfi_offset 6, -16
	.cfi_offset 3, -20
	.loc 1 72 0
	movl	8(%ebp), %ebx
	movl	12(%ebp), %esi
	movl	%gs:20, %eax
	movl	%eax, -28(%ebp)
	xorl	%eax, %eax
	.loc 1 73 0
	movl	%ebx, %edi
	repnz scasb
	notl	%ecx
	decl	%ecx
	pushl	%ecx
	pushl	(%esi)
	pushl	%ebx
	call	strncmp
.LVL68:
	movl	%eax, -112(%ebp)
.LVL69:
	.loc 1 79 0
	leal	64(%ebx), %eax
.LVL70:
	.loc 1 77 0
	orl	$-1, %ecx
	movl	4(%esi), %esi
	.loc 1 73 0
	addl	$12, %esp
	.loc 1 79 0
	movl	%eax, -108(%ebp)
	.loc 1 77 0
	movl	%eax, %edi
	xorl	%eax, %eax
	repnz scasb
	.loc 1 82 0
	leal	-92(%ebp), %edi
	.loc 1 77 0
	notl	%ecx
	decl	%ecx
	pushl	%ecx
	pushl	%esi
	pushl	-108(%ebp)
	call	strncmp
.LVL71:
	addl	$16, %esp
	movl	%eax, -116(%ebp)
.LVL72:
	.loc 1 82 0
	xorl	%eax, %eax
.LVL73:
	.loc 1 83 0
	cmpl	$0, -112(%ebp)
	.loc 1 82 0
	movl	$16, %ecx
	rep stosl
	leal	-92(%ebp), %edi
	.loc 1 83 0
	jg	.L61
.L64:
	.loc 1 81 0
	xorl	%esi, %esi
	jmp	.L62
.L61:
	.loc 1 84 0
	cmpb	$0, (%esi)
	je	.L63
	.loc 1 85 0
	call	aos_get_app_version
.LVL74:
	subl	$12, %esp
	pushl	%eax
	pushl	%ebx
	pushl	$.LC14
	pushl	$64
	pushl	%edi
	call	snprintf
.LVL75:
	.loc 1 86 0
	addl	$32, %esp
	cmpl	$0, -116(%ebp)
	jne	.L64
	.loc 1 87 0
	subl	$12, %esp
	pushl	$0
	call	ota_set_update_type
.LVL76:
	jmp	.L78
.LVL77:
.L63:
	.loc 1 91 0
	pushl	%ebx
	pushl	$.LC15
	pushl	$64
	pushl	%edi
	call	snprintf
.LVL78:
.L78:
	addl	$16, %esp
	.loc 1 92 0
	movl	$1, %esi
.LVL79:
.L62:
	.loc 1 96 0
	cmpl	$0, -112(%ebp)
	jne	.L65
	cmpl	$0, -116(%ebp)
	jle	.L65
	.loc 1 97 0
	subl	$12, %esp
	pushl	-108(%ebp)
	.loc 1 100 0
	movl	$1, %esi
.LVL80:
	.loc 1 97 0
	pushl	%ebx
	pushl	$.LC14
	pushl	$64
	pushl	%edi
	call	snprintf
.LVL81:
	.loc 1 99 0
	addl	$20, %esp
	pushl	$1
	call	ota_set_update_type
.LVL82:
	addl	$16, %esp
.LVL83:
.L65:
	.loc 1 103 0
	testb	$8, aos_log_level
	je	.L66
	.loc 1 103 0 is_stmt 0 discriminator 1
	call	aos_now_ms
.LVL84:
	pushl	%edi
	pushl	$.LC16
	pushl	%eax
	pushl	$.LC2
	call	csp_printf
.LVL85:
	popl	%eax
	popl	%edx
	pushl	%edi
	pushl	$.LC16
	call	csp_printf
.LVL86:
	movl	$.LC3, (%esp)
	call	csp_printf
.LVL87:
	addl	$16, %esp
.L66:
	.loc 1 104 0 is_stmt 1
	subl	$12, %esp
	pushl	%edi
	call	ota_set_ota_version
.LVL88:
	.loc 1 106 0
	movl	-28(%ebp), %edx
	xorl	%gs:20, %edx
	movl	%esi, %eax
	je	.L67
	call	__stack_chk_fail
.LVL89:
.L67:
	leal	-12(%ebp), %esp
	popl	%ebx
	.cfi_restore 3
	popl	%esi
	.cfi_restore 6
.LVL90:
	popl	%edi
	.cfi_restore 7
	popl	%ebp
	.cfi_restore 5
	.cfi_def_cfa 4, 4
	ret
	.cfi_endproc
.LFE22:
	.size	ota_if_need, .-ota_if_need
	.section	.text.unlikely.ota_if_need
.LCOLDE17:
	.section	.text.ota_if_need
.LHOTE17:
	.section	.rodata.str1.1
.LC18:
	.string	"ota_post_version_msg  [%s][%s] [%s]\r\n"
.LC19:
	.string	"OTA finished, clear ota version in config\r\n"
.LC20:
	.string	""
.LC21:
	.string	"Save dev version to config\r\n"
	.section	.text.unlikely.ota_post_version_msg,"ax",@progbits
.LCOLDB22:
	.section	.text.ota_post_version_msg,"ax",@progbits
.LHOTB22:
	.globl	ota_post_version_msg
	.type	ota_post_version_msg, @function
ota_post_version_msg:
.LFB24:
	.loc 1 167 0
	.cfi_startproc
.LVL91:
	pushl	%ebp
	.cfi_def_cfa_offset 8
	.cfi_offset 5, -8
	movl	%esp, %ebp
	.cfi_def_cfa_register 5
	pushl	%edi
	pushl	%esi
	pushl	%ebx
	subl	$12, %esp
	.cfi_offset 7, -12
	.cfi_offset 6, -16
	.cfi_offset 3, -20
	.loc 1 169 0
	testb	$8, aos_log_level
	je	.L80
	.loc 1 169 0 is_stmt 0 discriminator 1
	call	ota_get_dev_version
.LVL92:
	movl	%eax, %esi
	call	ota_get_version
.LVL93:
	movl	%eax, %edi
	call	ota_get_system_version
.LVL94:
	movl	%eax, %ebx
	call	aos_now_ms
.LVL95:
	pushl	%edx
	pushl	%edx
	pushl	%esi
	pushl	%edi
	pushl	%ebx
	pushl	$.LC18
	pushl	%eax
	pushl	$.LC2
	call	csp_printf
.LVL96:
	addl	$32, %esp
	call	ota_get_dev_version
.LVL97:
	movl	%eax, %edi
	call	ota_get_version
.LVL98:
	movl	%eax, %ebx
	call	ota_get_system_version
.LVL99:
	pushl	%edi
	pushl	%ebx
	pushl	%eax
	pushl	$.LC18
	call	csp_printf
.LVL100:
	movl	$.LC3, (%esp)
	call	csp_printf
.LVL101:
	addl	$16, %esp
.L80:
	.loc 1 170 0 is_stmt 1
	call	ota_get_version
.LVL102:
	cmpb	$0, (%eax)
	je	.L82
	.loc 1 171 0
	call	ota_get_system_version
.LVL103:
	orl	$-1, %ecx
	movl	%eax, %edi
	xorl	%eax, %eax
	repnz scasb
	notl	%ecx
	leal	-1(%ecx), %edi
	call	ota_get_version
.LVL104:
	movl	%eax, %ebx
	call	ota_get_system_version
.LVL105:
	pushl	%esi
	pushl	%edi
	pushl	%ebx
	pushl	%eax
	call	strncmp
.LVL106:
	addl	$16, %esp
.LVL107:
	.loc 1 173 0
	testl	%eax, %eax
	jne	.L83
	.loc 1 174 0
	subl	$12, %esp
	pushl	$6
	call	ota_set_status
.LVL108:
	.loc 1 175 0
	movl	$100, (%esp)
	jmp	.L104
.LVL109:
.L83:
	.loc 1 177 0
	subl	$12, %esp
	pushl	$0
	call	ota_set_status
.LVL110:
	.loc 1 178 0
	movl	$0, (%esp)
.L104:
	call	ota_status_post
.LVL111:
	movsbl	%al, %eax
.LVL112:
	addl	$16, %esp
	.loc 1 181 0
	testl	%eax, %eax
	jne	.L82
	.loc 1 182 0
	testb	$8, aos_log_level
	je	.L86
	.loc 1 182 0 is_stmt 0 discriminator 1
	call	aos_now_ms
.LVL113:
	pushl	%ebx
	pushl	$.LC19
	pushl	%eax
	pushl	$.LC2
	call	csp_printf
.LVL114:
	movl	$.LC19, (%esp)
	call	csp_printf
.LVL115:
	movl	$.LC3, (%esp)
	call	csp_printf
.LVL116:
	addl	$16, %esp
.L86:
	.loc 1 183 0 is_stmt 1
	subl	$12, %esp
	pushl	$.LC20
	call	ota_set_version
.LVL117:
	addl	$16, %esp
.L82:
	.loc 1 187 0
	call	ota_result_post
.LVL118:
	.loc 1 188 0
	testb	%al, %al
	.loc 1 187 0
	movb	%al, %bl
.LVL119:
	.loc 1 188 0
	jne	.L88
	.loc 1 189 0
	call	ota_get_system_version
.LVL120:
	orl	$-1, %ecx
	movl	%eax, %edi
	movb	%bl, %al
	repnz scasb
	notl	%ecx
	movl	%ecx, %ebx
.LVL121:
	decl	%ebx
	call	ota_get_dev_version
.LVL122:
	movl	%eax, %edi
	call	ota_get_system_version
.LVL123:
	pushl	%ecx
	pushl	%ebx
	pushl	%edi
	pushl	%eax
	call	strncmp
.LVL124:
	addl	$16, %esp
	testl	%eax, %eax
	je	.L88
	.loc 1 190 0
	testb	$8, aos_log_level
	je	.L90
	.loc 1 190 0 is_stmt 0 discriminator 1
	call	aos_now_ms
.LVL125:
	pushl	%edx
	pushl	$.LC21
	pushl	%eax
	pushl	$.LC2
	call	csp_printf
.LVL126:
	movl	$.LC21, (%esp)
	call	csp_printf
.LVL127:
	movl	$.LC3, (%esp)
	call	csp_printf
.LVL128:
	addl	$16, %esp
.L90:
	.loc 1 191 0 is_stmt 1
	call	ota_get_system_version
.LVL129:
	subl	$12, %esp
	pushl	%eax
	call	ota_set_dev_version
.LVL130:
	addl	$16, %esp
.L88:
	.loc 1 197 0
	leal	-12(%ebp), %esp
	xorl	%eax, %eax
	popl	%ebx
	.cfi_restore 3
	popl	%esi
	.cfi_restore 6
	popl	%edi
	.cfi_restore 7
	popl	%ebp
	.cfi_restore 5
	.cfi_def_cfa 4, 4
	ret
	.cfi_endproc
.LFE24:
	.size	ota_post_version_msg, .-ota_post_version_msg
	.section	.text.unlikely.ota_post_version_msg
.LCOLDE22:
	.section	.text.ota_post_version_msg
.LHOTE22:
	.section	.rodata.str1.1
.LC23:
	.string	"ota cancel,ota version don't match dev version ! \r\n"
.LC24:
	.string	"set_url failed\r\n"
.LC25:
	.string	"ota"
	.section	.text.unlikely.ota_do_update_packet,"ax",@progbits
.LCOLDB26:
	.section	.text.ota_do_update_packet,"ax",@progbits
.LHOTB26:
	.globl	ota_do_update_packet
	.type	ota_do_update_packet, @function
ota_do_update_packet:
.LFB25:
	.loc 1 201 0
	.cfi_startproc
.LVL131:
	pushl	%ebp
	.cfi_def_cfa_offset 8
	.cfi_offset 5, -8
	movl	%esp, %ebp
	.cfi_def_cfa_register 5
	pushl	%edi
	pushl	%esi
	pushl	%ebx
	subl	$12, %esp
	.cfi_offset 7, -12
	.cfi_offset 6, -16
	.cfi_offset 3, -20
	.loc 1 201 0
	movl	8(%ebp), %esi
	.loc 1 204 0
	call	ota_status_init
.LVL132:
	.loc 1 205 0
	subl	$12, %esp
	pushl	$0
	call	ota_set_status
.LVL133:
	.loc 1 207 0
	popl	%ebx
	popl	%edi
	pushl	12(%ebp)
	pushl	%esi
	call	ota_if_need
.LVL134:
	.loc 1 208 0
	addl	$16, %esp
	cmpb	$1, %al
	je	.L106
	.loc 1 209 0
	testb	$2, aos_log_level
	movb	%al, %bl
	je	.L107
	.loc 1 209 0 is_stmt 0 discriminator 1
	call	aos_now_ms
.LVL135:
	pushl	%ecx
	pushl	$.LC23
	pushl	%eax
	pushl	$.LC5
	call	csp_printf
.LVL136:
	movl	$.LC23, (%esp)
	call	csp_printf
.LVL137:
	movl	$.LC3, (%esp)
	call	csp_printf
.LVL138:
	addl	$16, %esp
.L107:
	.loc 1 210 0 is_stmt 1
	subl	$12, %esp
	pushl	$-1
	call	ota_set_status
.LVL139:
	.loc 1 211 0
	movl	$100, (%esp)
	call	ota_status_post
.LVL140:
	.loc 1 212 0
	call	ota_status_deinit
.LVL141:
	jmp	.L127
.LVL142:
.L106:
	.loc 1 215 0
	subl	$12, %esp
	pushl	$100
	call	ota_status_post
.LVL143:
	.loc 1 218 0
	movl	16(%ebp), %eax
	.loc 1 221 0
	movl	$md5, %edx
	movl	$33, %ecx
	movl	%edx, %edi
	.loc 1 222 0
	addl	$12, %esp
	.loc 1 218 0
	movl	%eax, g_write_func
	.loc 1 219 0
	movl	20(%ebp), %eax
	movl	%eax, g_finish_cb
	.loc 1 221 0
	xorl	%eax, %eax
	rep stosb
	.loc 1 222 0
	leal	1224(%esi), %eax
	pushl	$33
	pushl	%eax
	pushl	%edx
	call	strncpy
.LVL144:
	.loc 1 225 0
	leal	132(%esi), %eax
	.loc 1 223 0
	movb	$0, md5+32
	.loc 1 225 0
	call	set_download_url
.LVL145:
	addl	$16, %esp
	testl	%eax, %eax
	je	.L109
	.loc 1 226 0
	testb	$2, aos_log_level
	.loc 1 228 0
	movb	$-1, %bl
	.loc 1 226 0
	je	.L108
	.loc 1 226 0 is_stmt 0 discriminator 1
	call	aos_now_ms
.LVL146:
	pushl	%edx
	pushl	$.LC24
	pushl	%eax
	pushl	$.LC5
	call	csp_printf
.LVL147:
	movl	$.LC24, (%esp)
	call	csp_printf
.LVL148:
	movl	$.LC3, (%esp)
	call	csp_printf
.LVL149:
.L127:
	addl	$16, %esp
	jmp	.L108
.L109:
	xorl	%esi, %esi
.L110:
.LVL150:
	.loc 1 238 0 is_stmt 1 discriminator 1
	pushl	$3072
	pushl	$0
	.loc 1 237 0 discriminator 1
	incl	%esi
.LVL151:
	.loc 1 238 0 discriminator 1
	pushl	$ota_download_start
	pushl	$.LC25
	call	aos_task_new
.LVL152:
	.loc 1 239 0 discriminator 1
	addl	$16, %esp
	testl	%eax, %eax
	.loc 1 238 0 discriminator 1
	movl	%eax, %ebx
.LVL153:
	.loc 1 239 0 discriminator 1
	je	.L114
	cmpl	$4, %esi
	jle	.L110
.L114:
	.loc 1 240 0
	testl	%ebx, %ebx
	je	.L108
	.loc 1 241 0
	call	ota_reboot
.LVL154:
.L108:
	.loc 1 247 0
	leal	-12(%ebp), %esp
	movb	%bl, %al
	popl	%ebx
	.cfi_restore 3
	popl	%esi
	.cfi_restore 6
	popl	%edi
	.cfi_restore 7
	popl	%ebp
	.cfi_restore 5
	.cfi_def_cfa 4, 4
	ret
	.cfi_endproc
.LFE25:
	.size	ota_do_update_packet, .-ota_do_update_packet
	.section	.text.unlikely.ota_do_update_packet
.LCOLDE26:
	.section	.text.ota_do_update_packet
.LHOTE26:
	.section	.text.unlikely.ota_cancel_update_packet,"ax",@progbits
.LCOLDB27:
	.section	.text.ota_cancel_update_packet,"ax",@progbits
.LHOTB27:
	.globl	ota_cancel_update_packet
	.type	ota_cancel_update_packet, @function
ota_cancel_update_packet:
.LFB28:
	.loc 1 271 0
	.cfi_startproc
.LVL155:
	pushl	%ebp
	.cfi_def_cfa_offset 8
	.cfi_offset 5, -8
	movl	%esp, %ebp
	.cfi_def_cfa_register 5
	pushl	%ebx
	pushl	%ecx
	.cfi_offset 3, -12
	.loc 1 271 0
	movl	8(%ebp), %ebx
.LVL156:
.LBB63:
.LBB64:
	.loc 1 256 0
	testl	%ebx, %ebx
	je	.L129
	.loc 1 260 0
	addl	$1160, %ebx
.LVL157:
	call	platform_ota_get_id
.LVL158:
	pushl	%edx
	pushl	$64
	pushl	%eax
	pushl	%ebx
	call	strncmp
.LVL159:
	addl	$16, %esp
	testl	%eax, %eax
	je	.L129
.LBB65:
.LBB66:
	.loc 1 251 0
	call	ota_get_status
.LVL160:
	testl	%eax, %eax
	je	.L129
	call	ota_get_status
.LVL161:
.LBE66:
.LBE65:
	.loc 1 264 0
	cmpl	$3, %eax
	jg	.L129
.LVL162:
.LBE64:
.LBE63:
	.loc 1 275 0
	subl	$12, %esp
	pushl	$7
	call	ota_set_status
.LVL163:
	addl	$16, %esp
.LBB68:
.LBB67:
	.loc 1 267 0
	movb	$1, %al
	jmp	.L141
.LVL164:
.L129:
.LBE67:
.LBE68:
	.loc 1 271 0
	xorl	%eax, %eax
.LVL165:
.L141:
	.loc 1 278 0
	movl	-4(%ebp), %ebx
	leave
	.cfi_restore 5
	.cfi_restore 3
	.cfi_def_cfa 4, 4
	ret
	.cfi_endproc
.LFE28:
	.size	ota_cancel_update_packet, .-ota_cancel_update_packet
	.section	.text.unlikely.ota_cancel_update_packet
.LCOLDE27:
	.section	.text.ota_cancel_update_packet
.LHOTE27:
	.globl	md5
	.section	.bss.md5,"aw",@nobits
	.align 32
	.type	md5, @object
	.size	md5, 33
md5:
	.zero	33
	.section	.bss.msg_temp,"aw",@nobits
	.align 4
	.type	msg_temp, @object
	.size	msg_temp, 4
msg_temp:
	.zero	4
	.globl	g_finish_cb
	.section	.bss.g_finish_cb,"aw",@nobits
	.align 4
	.type	g_finish_cb, @object
	.size	g_finish_cb, 4
g_finish_cb:
	.zero	4
	.globl	g_write_func
	.section	.bss.g_write_func,"aw",@nobits
	.align 4
	.type	g_write_func, @object
	.size	g_write_func, 4
g_write_func:
	.zero	4
	.text
.Letext0:
	.section	.text.unlikely.set_download_url
.Letext_cold0:
	.file 2 "/home/stone/Documents/Ali_IOT/build/compiler/gcc-arm-none-eabi/Linux64/arm-none-eabi/include/machine/_default_types.h"
	.file 3 "/home/stone/Documents/Ali_IOT/build/compiler/gcc-arm-none-eabi/Linux64/arm-none-eabi/include/sys/_stdint.h"
	.file 4 "./include/hal/ota.h"
	.file 5 "./framework/fota/./platform/ota_transport.h"
	.file 6 "framework/fota/ota_update_manifest.h"
	.file 7 "framework/fota/ota_util.h"
	.file 8 "./include/aos/log.h"
	.file 9 "./include/aos/kernel.h"
	.file 10 "/home/stone/Documents/Ali_IOT/build/compiler/gcc-arm-none-eabi/Linux64/arm-none-eabi/include/string.h"
	.file 11 "./include/aos/internal/log_impl.h"
	.file 12 "./framework/fota/./download/ota_download.h"
	.file 13 "./framework/fota/./platform/ota_platform_os.h"
	.file 14 "./include/aos/version.h"
	.file 15 "/home/stone/Documents/Ali_IOT/build/compiler/gcc-arm-none-eabi/Linux64/arm-none-eabi/include/stdio.h"
	.file 16 "framework/fota/ota_version.h"
	.section	.note.GNU-stack,"",@progbits
