	.file	"ota_download.c"
	.text
.Ltext0:
	.section	.rodata.str1.1,"aMS",@progbits,1
.LC0:
	.string	"http_gethost_info parms error!\n\r\n"
.LC1:
	.string	"[%06d]<E> "
.LC2:
	.string	"\r\n"
.LC3:
	.string	"https://"
.LC4:
	.string	"http://"
	.section	.text.unlikely.http_gethost_info,"ax",@progbits
.LCOLDB5:
	.section	.text.http_gethost_info,"ax",@progbits
.LHOTB5:
	.section	.text.unlikely.http_gethost_info
.Ltext_cold0:
	.section	.text.http_gethost_info
	.globl	http_gethost_info
	.type	http_gethost_info, @function
http_gethost_info:
.LFB17:
	.file 1 "framework/fota/download/http/ota_download.c"
	.loc 1 45 0
	.cfi_startproc
.LVL0:
	pushl	%ebp
	.cfi_def_cfa_offset 8
	.cfi_offset 5, -8
	movl	%esp, %ebp
	.cfi_def_cfa_register 5
	pushl	%edi
	pushl	%esi
	pushl	%ebx
	subl	$28, %esp
	.cfi_offset 7, -12
	.cfi_offset 6, -16
	.cfi_offset 3, -20
	.loc 1 45 0
	movl	12(%ebp), %eax
	movl	8(%ebp), %ebx
	movl	20(%ebp), %esi
	movl	%eax, -28(%ebp)
	movl	16(%ebp), %eax
	.loc 1 50 0
	testl	%ebx, %ebx
	.loc 1 45 0
	movl	%eax, -32(%ebp)
	.loc 1 50 0
	je	.L2
	.loc 1 50 0 is_stmt 0 discriminator 1
	cmpb	$0, (%ebx)
	jne	.L3
.L2:
	.loc 1 51 0 is_stmt 1
	testb	$2, aos_log_level
	je	.L1
	.loc 1 51 0 is_stmt 0 discriminator 1
	call	aos_now_ms
.LVL1:
	pushl	%edx
	pushl	$.LC0
	pushl	%eax
	pushl	$.LC1
	call	csp_printf
.LVL2:
	movl	$.LC0, (%esp)
	call	csp_printf
.LVL3:
	movl	$.LC2, 8(%ebp)
	addl	$16, %esp
	.loc 1 95 0 is_stmt 1 discriminator 1
	leal	-12(%ebp), %esp
	popl	%ebx
	.cfi_remember_state
	.cfi_restore 3
	popl	%esi
	.cfi_restore 6
	popl	%edi
	.cfi_restore 7
	popl	%ebp
	.cfi_restore 5
	.cfi_def_cfa 4, 4
	.loc 1 51 0 discriminator 1
	jmp	csp_printf
.LVL4:
.L3:
	.cfi_restore_state
	.loc 1 54 0
	movl	$0, (%esi)
	.loc 1 55 0
	cmpb	$0, (%ebx)
	je	.L1
.LVL5:
.LBB38:
.LBB39:
	.loc 1 59 0
	pushl	%edi
	pushl	$8
	pushl	$.LC3
	pushl	%ebx
	call	strncmp
.LVL6:
	addl	$16, %esp
	testl	%eax, %eax
	jne	.L7
	.loc 1 60 0
	addl	$8, %ebx
.LVL7:
.L8:
	.loc 1 68 0
	movl	-28(%ebp), %eax
	movl	%ebx, (%eax)
	.loc 1 69 0
	pushl	%ecx
	pushl	%ecx
	pushl	$47
	pushl	%ebx
	call	strchr
.LVL8:
	addl	$16, %esp
	.loc 1 70 0
	testl	%eax, %eax
	.loc 1 69 0
	movl	%eax, %edx
.LVL9:
	.loc 1 70 0
	je	.L9
	.loc 1 73 0
	cmpb	$0, 1(%eax)
	.loc 1 71 0
	movb	$0, (%eax)
.LVL10:
	.loc 1 73 0
	je	.L10
	.loc 1 72 0
	leal	1(%eax), %edi
.LVL11:
	.loc 1 74 0
	movl	-32(%ebp), %eax
	.loc 1 75 0
	orl	$-1, %ecx
	.loc 1 74 0
	movl	%edi, (%eax)
	.loc 1 75 0
	xorl	%eax, %eax
	repnz scasb
.LVL12:
	notl	%ecx
	movb	$0, (%edx,%ecx)
	jmp	.L10
.LVL13:
.L9:
	.loc 1 78 0
	xorl	%eax, %eax
.LVL14:
	orl	$-1, %ecx
	movl	%ebx, %edi
	repnz scasb
.LVL15:
	notl	%ecx
	movb	$0, -1(%ebx,%ecx)
.LVL16:
.L10:
	.loc 1 81 0
	movl	-28(%ebp), %eax
	pushl	%edx
	pushl	%edx
	pushl	$58
	pushl	(%eax)
	call	strchr
.LVL17:
	addl	$16, %esp
.LVL18:
	.loc 1 82 0
	testl	%eax, %eax
	je	.L11
	.loc 1 83 0
	movb	$0, (%eax)
	.loc 1 84 0
	subl	$12, %esp
	incl	%eax
.LVL19:
	pushl	%eax
	call	atoi
.LVL20:
	addl	$16, %esp
	movl	%eax, (%esi)
	jmp	.L1
.LVL21:
.L11:
	.loc 1 92 0
	movl	$80, (%esi)
	jmp	.L1
.LVL22:
.L7:
	.loc 1 64 0
	pushl	%eax
	pushl	$7
	pushl	$.LC4
	pushl	%ebx
	call	strncmp
.LVL23:
	.loc 1 65 0
	leal	7(%ebx), %edx
	.loc 1 64 0
	addl	$16, %esp
	.loc 1 65 0
	testl	%eax, %eax
	cmove	%edx, %ebx
.LVL24:
	jmp	.L8
.LVL25:
.L1:
.LBE39:
.LBE38:
	.loc 1 95 0
	leal	-12(%ebp), %esp
	popl	%ebx
	.cfi_restore 3
	popl	%esi
	.cfi_restore 6
	popl	%edi
	.cfi_restore 7
	popl	%ebp
	.cfi_restore 5
	.cfi_def_cfa 4, 4
	ret
	.cfi_endproc
.LFE17:
	.size	http_gethost_info, .-http_gethost_info
	.section	.text.unlikely.http_gethost_info
.LCOLDE5:
	.section	.text.http_gethost_info
.LHOTE5:
	.section	.rodata.str1.1
.LC6:
	.string	"ota_download parms error!\n\r\n"
.LC7:
	.string	"ota_socket_connect error\n \r\n"
.LC8:
	.string	"----resume download,breakpoint=%d------\r\n"
.LC9:
	.string	"[%06d]<I> "
.LC10:
	.string	"GET /%s HTTP/1.1\r\nAccept:*/*\r\nUser-Agent: Mozilla/5.0\r\nCache-Control: no-cache\r\nConnection: close\r\nRange: bytes=%d-\r\nHost:%s:%d\r\n\r\n"
.LC11:
	.string	"GET /%s HTTP/1.1\r\nAccept:*/*\r\nUser-Agent: Mozilla/5.0\r\nCache-Control: no-cache\r\nConnection: close\r\nHost:%s:%d\r\n\r\n"
.LC12:
	.string	"send %s\r\n"
.LC13:
	.string	"send error!%s\n \r\n"
.LC14:
	.string	"%d bytes send OK!\n \r\n"
.LC15:
	.string	"ota_socket_recv nbytes < 0\r\n"
.LC16:
	.string	"download system error %s\r\n"
.LC17:
	.string	"Content-Length:"
.LC18:
	.string	"%*[^ ]%d"
.LC19:
	.string	"\r\n\r\n"
.LC20:
	.string	"download read error %s\r\n"
	.section	.text.unlikely.ota_download,"ax",@progbits
.LCOLDB21:
	.section	.text.ota_download,"ax",@progbits
.LHOTB21:
	.globl	ota_download
	.type	ota_download, @function
ota_download:
.LFB18:
	.loc 1 98 0
	.cfi_startproc
.LVL26:
	pushl	%ebp
	.cfi_def_cfa_offset 8
	.cfi_offset 5, -8
	movl	%esp, %ebp
	.cfi_def_cfa_register 5
	pushl	%edi
	pushl	%esi
	pushl	%ebx
	subl	$1548, %esp
	.cfi_offset 7, -12
	.cfi_offset 6, -16
	.cfi_offset 3, -20
	.loc 1 98 0
	movl	12(%ebp), %eax
	movl	8(%ebp), %edx
	movl	16(%ebp), %ebx
	movl	%eax, -1560(%ebp)
	movl	%gs:20, %eax
	movl	%eax, -28(%ebp)
	xorl	%eax, %eax
	.loc 1 99 0
	testl	%edx, %edx
	je	.L19
	.loc 1 99 0 is_stmt 0 discriminator 1
	cmpb	$0, (%edx)
	je	.L19
	.loc 1 99 0 is_stmt 1 discriminator 2
	cmpl	$0, -1560(%ebp)
	je	.L19
	testl	%ebx, %ebx
	sete	%al
	jne	.L20
.L19:
	.loc 1 100 0
	testb	$2, aos_log_level
	je	.L85
	.loc 1 100 0 is_stmt 0 discriminator 1
	call	aos_now_ms
.LVL27:
	pushl	%ebx
	pushl	$.LC6
	pushl	%eax
	pushl	$.LC1
	call	csp_printf
.LVL28:
	movl	$.LC6, (%esp)
	call	csp_printf
.LVL29:
	movl	$.LC2, (%esp)
	call	csp_printf
.LVL30:
	addl	$16, %esp
.L85:
	.loc 1 101 0 is_stmt 1 discriminator 1
	movl	$-2, %ebx
	jmp	.L23
.L20:
.LVL31:
	.loc 1 114 0
	leal	-1522(%ebp), %edi
	movl	$33, %ecx
	.loc 1 105 0
	movl	$0, -1540(%ebp)
.LVL32:
	.loc 1 113 0
	movl	$0, -1536(%ebp)
	.loc 1 115 0
	movl	$0, -1532(%ebp)
	leal	-1489(%ebp), %esi
	.loc 1 114 0
	rep stosb
	.loc 1 117 0
	leal	-1489(%ebp), %edi
	movl	$1461, %ecx
	.loc 1 116 0
	movl	$0, -1528(%ebp)
	.loc 1 117 0
	rep stosb
	.loc 1 118 0
	leal	-1540(%ebp), %eax
	leal	-1522(%ebp), %edi
	pushl	%eax
	leal	-1532(%ebp), %eax
	pushl	%eax
	leal	-1528(%ebp), %eax
	pushl	%eax
	pushl	%edx
	call	http_gethost_info
.LVL33:
	.loc 1 120 0
	addl	$16, %esp
	cmpl	$0, -1532(%ebp)
	je	.L85
	.loc 1 120 0 discriminator 1
	movl	-1528(%ebp), %eax
	testl	%eax, %eax
	je	.L85
	.loc 1 125 0
	pushl	%ecx
	pushl	%ecx
	pushl	%eax
	pushl	-1540(%ebp)
	call	ota_socket_connect
.LVL34:
	.loc 1 126 0
	addl	$16, %esp
	testl	%eax, %eax
	.loc 1 125 0
	movl	%eax, -1552(%ebp)
.LVL35:
	.loc 1 126 0
	jns	.L25
	.loc 1 127 0
	testb	$2, aos_log_level
	.loc 1 129 0
	movl	$-4, %ebx
	.loc 1 127 0
	je	.L23
	.loc 1 127 0 is_stmt 0 discriminator 1
	call	aos_now_ms
.LVL36:
	pushl	%edx
	pushl	$.LC7
	pushl	%eax
	pushl	$.LC1
	call	csp_printf
.LVL37:
	movl	$.LC7, (%esp)
	call	csp_printf
.LVL38:
	movl	$.LC2, (%esp)
	call	csp_printf
.LVL39:
	jmp	.L86
.LVL40:
.L25:
	.loc 1 131 0 is_stmt 1
	call	ota_get_update_breakpoint
.LVL41:
	.loc 1 132 0
	subl	$12, %esp
	.loc 1 131 0
	movl	%eax, -1548(%ebp)
.LVL42:
	.loc 1 132 0
	pushl	%edi
	call	ota_get_last_MD5
.LVL43:
	.loc 1 134 0
	addl	$16, %esp
	cmpl	$0, -1548(%ebp)
	je	.L26
	.loc 1 134 0 is_stmt 0 discriminator 1
	pushl	%eax
	pushl	$32
	pushl	%ebx
	pushl	%edi
	call	strncmp
.LVL44:
	addl	$16, %esp
	testl	%eax, %eax
	jne	.L26
	.loc 1 135 0 is_stmt 1
	testb	$8, aos_log_level
	je	.L27
	.loc 1 135 0 is_stmt 0 discriminator 1
	call	aos_now_ms
.LVL45:
	pushl	-1548(%ebp)
	pushl	$.LC8
	pushl	%eax
	pushl	$.LC9
	call	csp_printf
.LVL46:
	popl	%edi
	popl	%eax
	pushl	-1548(%ebp)
	pushl	$.LC8
	call	csp_printf
.LVL47:
	movl	$.LC2, (%esp)
	call	csp_printf
.LVL48:
	addl	$16, %esp
.L27:
	.loc 1 136 0 is_stmt 1
	pushl	%ecx
	pushl	%ecx
	pushl	-1540(%ebp)
	pushl	-1528(%ebp)
	pushl	-1548(%ebp)
	pushl	-1532(%ebp)
	pushl	$.LC10
	pushl	%esi
	call	sprintf
.LVL49:
	.loc 1 137 0
	addl	$20, %esp
	pushl	$g_ctx
	call	ota_get_last_MD5_context
.LVL50:
	addl	$16, %esp
	jmp	.L28
.L26:
.LVL51:
	.loc 1 140 0
	subl	$12, %esp
	pushl	-1540(%ebp)
	pushl	-1528(%ebp)
	pushl	-1532(%ebp)
	pushl	$.LC11
	pushl	%esi
	call	sprintf
.LVL52:
	.loc 1 141 0
	addl	$20, %esp
	pushl	$g_ctx
	call	MD5_Init
.LVL53:
	addl	$16, %esp
	.loc 1 139 0
	movl	$0, -1548(%ebp)
.LVL54:
.L28:
	.loc 1 143 0
	subl	$12, %esp
	.loc 1 146 0
	leal	-1489(%ebp), %esi
	.loc 1 143 0
	pushl	%ebx
	.loc 1 146 0
	movl	%esi, %edi
	.loc 1 143 0
	call	ota_set_cur_MD5
.LVL55:
	.loc 1 146 0
	xorl	%eax, %eax
	orl	$-1, %ecx
	.loc 1 147 0
	addl	$16, %esp
	.loc 1 146 0
	repnz scasb
	.loc 1 147 0
	testb	$8, aos_log_level
	.loc 1 146 0
	notl	%ecx
	leal	-1(%ecx), %ebx
.LVL56:
	.loc 1 147 0
	je	.L29
	.loc 1 147 0 is_stmt 0 discriminator 1
	call	aos_now_ms
.LVL57:
	pushl	%esi
	pushl	$.LC12
	pushl	%eax
	pushl	$.LC9
	call	csp_printf
.LVL58:
	popl	%eax
	popl	%edx
	pushl	%esi
	pushl	$.LC12
	call	csp_printf
.LVL59:
	movl	$.LC2, (%esp)
	call	csp_printf
.LVL60:
	addl	$16, %esp
.L29:
	leal	-1489(%ebp), %esi
	.loc 1 139 0 is_stmt 1
	xorl	%edi, %edi
.LVL61:
.L30:
	.loc 1 148 0
	cmpl	%ebx, %edi
	jge	.L87
	.loc 1 149 0
	pushl	%eax
	movl	%ebx, %eax
	subl	%edi, %eax
	pushl	%eax
	leal	(%esi,%edi), %eax
	pushl	%eax
	pushl	-1552(%ebp)
	call	ota_socket_send
.LVL62:
	.loc 1 150 0
	addl	$16, %esp
	cmpl	$-1, %eax
	movl	aos_log_level, %edx
	jne	.L31
	.loc 1 151 0
	andb	$2, %dl
	.loc 1 152 0
	movl	$-5, %ebx
.LVL63:
	.loc 1 151 0
	je	.L32
	.loc 1 151 0 discriminator 1
	call	__errno
.LVL64:
	.loc 1 151 0 discriminator 1
	subl	$12, %esp
	pushl	(%eax)
	call	strerror
.LVL65:
	movl	%eax, %esi
	call	aos_now_ms
.LVL66:
	pushl	%esi
	pushl	$.LC13
	pushl	%eax
	pushl	$.LC1
	call	csp_printf
.LVL67:
	.loc 1 151 0 discriminator 1
	addl	$32, %esp
	call	__errno
.LVL68:
	.loc 1 151 0 discriminator 1
	subl	$12, %esp
	pushl	(%eax)
	call	strerror
.LVL69:
	popl	%edx
	popl	%ecx
	pushl	%eax
	pushl	$.LC13
	call	csp_printf
.LVL70:
	.loc 1 151 0 discriminator 1
	movl	$.LC2, (%esp)
	call	csp_printf
.LVL71:
	addl	$16, %esp
	jmp	.L32
.LVL72:
.L31:
	.loc 1 155 0
	addl	%eax, %edi
.LVL73:
	.loc 1 156 0
	andb	$8, %dl
	je	.L30
	.loc 1 156 0 is_stmt 0 discriminator 1
	call	aos_now_ms
.LVL74:
	pushl	%edi
	pushl	$.LC14
	pushl	%eax
	pushl	$.LC9
	call	csp_printf
.LVL75:
	popl	%ecx
	popl	%eax
	pushl	%edi
	pushl	$.LC14
	call	csp_printf
.LVL76:
	movl	$.LC2, (%esp)
	call	csp_printf
.LVL77:
	addl	$16, %esp
	jmp	.L30
.L87:
	.loc 1 159 0 is_stmt 1
	movl	%esi, %edi
.LVL78:
	movl	$1461, %ecx
	xorl	%eax, %eax
	rep stosb
	.loc 1 160 0
	leal	-1489(%ebp), %esi
	.loc 1 111 0
	movl	$0, -1556(%ebp)
	.loc 1 110 0
	xorl	%ebx, %ebx
.LVL79:
.L35:
	.loc 1 160 0
	pushl	%edi
	pushl	$1460
	pushl	%esi
	pushl	-1552(%ebp)
	call	ota_socket_recv
.LVL80:
	addl	$16, %esp
	testl	%eax, %eax
	movl	%eax, %edi
.LVL81:
	je	.L44
	.loc 1 162 0
	jns	.L36
	.loc 1 163 0
	testb	$8, aos_log_level
	je	.L37
	.loc 1 163 0 is_stmt 0 discriminator 1
	call	aos_now_ms
.LVL82:
	pushl	%edx
	pushl	$.LC15
	pushl	%eax
	pushl	$.LC9
	call	csp_printf
.LVL83:
	movl	$.LC15, (%esp)
	call	csp_printf
.LVL84:
	movl	$.LC2, (%esp)
	call	csp_printf
.LVL85:
	addl	$16, %esp
.L37:
	.loc 1 164 0 is_stmt 1
	call	__errno
.LVL86:
	.loc 1 164 0
	cmpl	$4, (%eax)
	jne	.L38
	.loc 1 167 0
	subl	$12, %esp
	pushl	-1552(%ebp)
	call	ota_socket_check_conn
.LVL87:
	addl	$16, %esp
	testl	%eax, %eax
	jns	.L35
	.loc 1 168 0
	testb	$2, aos_log_level
	je	.L40
	.loc 1 168 0 discriminator 1
	call	__errno
.LVL88:
	.loc 1 168 0 discriminator 1
	subl	$12, %esp
	pushl	(%eax)
	call	strerror
.LVL89:
	movl	%eax, %esi
	call	aos_now_ms
.LVL90:
	pushl	%esi
	pushl	$.LC16
	pushl	%eax
	pushl	$.LC1
	call	csp_printf
.LVL91:
	.loc 1 168 0 discriminator 1
	addl	$32, %esp
	call	__errno
.LVL92:
	.loc 1 168 0 discriminator 1
	subl	$12, %esp
	pushl	(%eax)
	call	strerror
.LVL93:
	popl	%esi
	popl	%edi
.LVL94:
	pushl	%eax
	pushl	$.LC16
	call	csp_printf
.LVL95:
	.loc 1 168 0 discriminator 1
	movl	$.LC2, (%esp)
	call	csp_printf
.LVL96:
	addl	$16, %esp
	jmp	.L38
.LVL97:
.L36:
	.loc 1 175 0
	cmpl	$0, -1556(%ebp)
	jne	.L41
	.loc 1 176 0
	cmpl	$0, -1536(%ebp)
	jne	.L42
.LBB40:
	.loc 1 177 0
	pushl	%ecx
	pushl	%ecx
	pushl	$.LC17
	pushl	%esi
	call	strstr
.LVL98:
	addl	$16, %esp
.LVL99:
	.loc 1 178 0
	testl	%eax, %eax
	je	.L42
	.loc 1 179 0
	pushl	%edx
	leal	-1536(%ebp), %edx
	pushl	%edx
	pushl	$.LC18
	pushl	%eax
	call	sscanf
.LVL100:
	addl	$16, %esp
.L42:
.LBE40:
	.loc 1 183 0
	pushl	%ecx
	pushl	%ecx
	pushl	$.LC19
	pushl	%esi
	call	strstr
.LVL101:
	addl	$16, %esp
.LVL102:
	.loc 1 185 0
	testl	%eax, %eax
	je	.L43
.LBB41:
	.loc 1 186 0
	addl	$4, %eax
.LVL103:
	.loc 1 189 0
	movl	%eax, %edx
	.loc 1 192 0
	movl	%eax, -1556(%ebp)
	.loc 1 189 0
	subl	%esi, %edx
	subl	%edx, %edi
.LVL104:
	.loc 1 192 0
	pushl	%edx
	pushl	%edi
	pushl	%eax
	.loc 1 189 0
	movl	%edi, %ebx
.LVL105:
	.loc 1 192 0
	pushl	$g_ctx
	call	MD5_Update
.LVL106:
	.loc 1 193 0
	movl	-1556(%ebp), %eax
	pushl	$0
	pushl	%edi
	pushl	%eax
	pushl	$1461
	movl	-1560(%ebp), %eax
	call	*%eax
.LVL107:
	addl	$32, %esp
	.loc 1 188 0
	movl	$1, -1556(%ebp)
.LVL108:
.L43:
.LBE41:
	.loc 1 195 0
	movl	$1461, %ecx
	xorl	%eax, %eax
	movl	%esi, %edi
	rep stosb
	.loc 1 196 0
	jmp	.L35
.LVL109:
.L41:
.LVL110:
	.loc 1 201 0
	pushl	%eax
	pushl	%edi
	.loc 1 199 0
	addl	%edi, %ebx
.LVL111:
	.loc 1 201 0
	pushl	%esi
	pushl	$g_ctx
	call	MD5_Update
.LVL112:
	.loc 1 202 0
	pushl	$0
	pushl	%edi
	pushl	%esi
	pushl	$1461
	movl	-1560(%ebp), %eax
	call	*%eax
.LVL113:
	.loc 1 205 0
	addl	$32, %esp
	cmpl	-1536(%ebp), %ebx
	je	.L44
	.loc 1 210 0
	call	ota_get_status
.LVL114:
	cmpl	$7, %eax
	je	.L45
	movl	$1, -1556(%ebp)
.LVL115:
	jmp	.L35
.LVL116:
.L38:
	.loc 1 216 0
	testb	$2, aos_log_level
	je	.L40
	.loc 1 216 0 discriminator 1
	call	__errno
.LVL117:
	.loc 1 216 0 discriminator 1
	subl	$12, %esp
	pushl	(%eax)
	call	strerror
.LVL118:
	movl	%eax, %esi
	call	aos_now_ms
.LVL119:
	pushl	%esi
	pushl	$.LC20
	pushl	%eax
	pushl	$.LC1
	call	csp_printf
.LVL120:
	.loc 1 216 0 discriminator 1
	addl	$32, %esp
	call	__errno
.LVL121:
	.loc 1 216 0 discriminator 1
	subl	$12, %esp
	pushl	(%eax)
	call	strerror
.LVL122:
	popl	%ecx
	popl	%esi
	pushl	%eax
	pushl	$.LC20
	call	csp_printf
.LVL123:
	.loc 1 216 0 discriminator 1
	movl	$.LC2, (%esp)
	call	csp_printf
.LVL124:
	addl	$16, %esp
.L40:
	.loc 1 217 0
	addl	-1548(%ebp), %ebx
.LVL125:
	pushl	%edx
	pushl	%edx
	pushl	$g_ctx
	pushl	%ebx
	.loc 1 218 0
	movl	$-2, %ebx
	.loc 1 217 0
	call	save_state
.LVL126:
	addl	$16, %esp
.LVL127:
.L32:
	.loc 1 228 0
	subl	$12, %esp
	pushl	-1552(%ebp)
	call	ota_socket_close
.LVL128:
.L86:
	.loc 1 229 0
	addl	$16, %esp
.LVL129:
.L23:
	.loc 1 230 0
	movl	-28(%ebp), %edx
	xorl	%gs:20, %edx
	movl	%ebx, %eax
	je	.L48
	call	__stack_chk_fail
.LVL130:
.L44:
	.loc 1 220 0
	subl	$12, %esp
	.loc 1 221 0
	movl	$2, %ebx
	.loc 1 220 0
	pushl	$0
	call	ota_set_update_breakpoint
.LVL131:
	addl	$16, %esp
	jmp	.L32
.LVL132:
.L45:
	.loc 1 223 0
	addl	-1548(%ebp), %ebx
.LVL133:
	pushl	%eax
	pushl	%eax
	pushl	$g_ctx
	pushl	%ebx
	.loc 1 224 0
	movl	$1, %ebx
	.loc 1 223 0
	call	save_state
.LVL134:
	addl	$16, %esp
	jmp	.L32
.LVL135:
.L48:
	.loc 1 230 0
	leal	-12(%ebp), %esp
	popl	%ebx
	.cfi_restore 3
	popl	%esi
	.cfi_restore 6
	popl	%edi
	.cfi_restore 7
	popl	%ebp
	.cfi_restore 5
	.cfi_def_cfa 4, 4
	ret
	.cfi_endproc
.LFE18:
	.size	ota_download, .-ota_download
	.section	.text.unlikely.ota_download
.LCOLDE21:
	.section	.text.ota_download
.LHOTE21:
	.section	.rodata.str1.1
.LC22:
	.string	"%02X"
.LC23:
	.string	"url md5=%s\r\n"
.LC24:
	.string	"digestMD5=%s\r\n"
.LC25:
	.string	"update_packet md5 check FAIL!\r\n"
	.section	.text.unlikely.check_md5,"ax",@progbits
.LCOLDB26:
	.section	.text.check_md5,"ax",@progbits
.LHOTB26:
	.globl	check_md5
	.type	check_md5, @function
check_md5:
.LFB19:
	.loc 1 233 0
	.cfi_startproc
.LVL136:
	pushl	%ebp
	.cfi_def_cfa_offset 8
	.cfi_offset 5, -8
	.loc 1 234 0
	movl	$4, %ecx
	.loc 1 233 0
	movl	%esp, %ebp
	.cfi_def_cfa_register 5
	pushl	%edi
	pushl	%esi
	pushl	%ebx
	.cfi_offset 7, -12
	.cfi_offset 6, -16
	.cfi_offset 3, -20
	.loc 1 234 0
	leal	-77(%ebp), %edi
	.loc 1 233 0
	subl	$100, %esp
	.loc 1 233 0
	movl	8(%ebp), %esi
	movl	%gs:20, %eax
	movl	%eax, -28(%ebp)
	xorl	%eax, %eax
	.loc 1 234 0
	rep stosl
	.loc 1 235 0
	leal	-61(%ebp), %edi
	movl	$33, %ecx
	rep stosb
.LVL137:
	.loc 1 238 0
	leal	-77(%ebp), %edi
	pushl	$g_ctx
	pushl	%edi
	call	MD5_Final
.LVL138:
	leal	-61(%ebp), %ecx
	addl	$16, %esp
	.loc 1 236 0
	xorl	%edx, %edx
	movl	%ecx, %ebx
.LVL139:
.L89:
	.loc 1 240 0 discriminator 2
	movzbl	(%edi,%edx), %eax
	movl	%edx, -96(%ebp)
	movl	%ecx, -92(%ebp)
	pushl	%eax
	pushl	$.LC22
	pushl	$3
	pushl	%ecx
	call	snprintf
.LVL140:
	.loc 1 239 0 discriminator 2
	movl	-96(%ebp), %edx
	movl	-92(%ebp), %ecx
	addl	$16, %esp
	incl	%edx
.LVL141:
	addl	$2, %ecx
	cmpl	$16, %edx
	jne	.L89
	.loc 1 242 0
	testb	$8, aos_log_level
	je	.L90
	.loc 1 242 0 is_stmt 0 discriminator 1
	call	aos_now_ms
.LVL142:
	pushl	%esi
	pushl	$.LC23
	pushl	%eax
	pushl	$.LC9
	call	csp_printf
.LVL143:
	popl	%eax
	popl	%edx
	pushl	%esi
	pushl	$.LC23
	call	csp_printf
.LVL144:
	movl	$.LC2, (%esp)
	call	csp_printf
.LVL145:
	addl	$16, %esp
.L90:
	.loc 1 243 0 is_stmt 1
	testb	$8, aos_log_level
	je	.L91
	.loc 1 243 0 is_stmt 0 discriminator 1
	call	aos_now_ms
.LVL146:
	pushl	%ebx
	pushl	$.LC24
	pushl	%eax
	pushl	$.LC9
	call	csp_printf
.LVL147:
	popl	%edi
	popl	%eax
	pushl	%ebx
	pushl	$.LC24
	call	csp_printf
.LVL148:
	movl	$.LC2, (%esp)
	call	csp_printf
.LVL149:
	addl	$16, %esp
.L91:
	.loc 1 244 0 is_stmt 1
	pushl	%ecx
	pushl	$32
	pushl	%esi
	pushl	%ebx
	call	strncmp
.LVL150:
	addl	$16, %esp
	testl	%eax, %eax
	movl	%eax, %ebx
	je	.L92
	.loc 1 246 0
	orl	$-1, %ebx
	.loc 1 245 0
	testb	$2, aos_log_level
	je	.L92
	.loc 1 245 0 is_stmt 0 discriminator 1
	call	aos_now_ms
.LVL151:
	pushl	%edx
	pushl	$.LC25
	pushl	%eax
	pushl	$.LC1
	call	csp_printf
.LVL152:
	movl	$.LC25, (%esp)
	call	csp_printf
.LVL153:
	movl	$.LC2, (%esp)
	call	csp_printf
.LVL154:
	addl	$16, %esp
.L92:
	.loc 1 249 0 is_stmt 1
	movl	-28(%ebp), %esi
	xorl	%gs:20, %esi
	movl	%ebx, %eax
	je	.L93
	call	__stack_chk_fail
.LVL155:
.L93:
	leal	-12(%ebp), %esp
	popl	%ebx
	.cfi_restore 3
	popl	%esi
	.cfi_restore 6
	popl	%edi
	.cfi_restore 7
	popl	%ebp
	.cfi_restore 5
	.cfi_def_cfa 4, 4
	ret
	.cfi_endproc
.LFE19:
	.size	check_md5, .-check_md5
	.section	.text.unlikely.check_md5
.LCOLDE26:
	.section	.text.check_md5
.LHOTE26:
	.globl	g_ctx
	.section	.bss.g_ctx,"aw",@nobits
	.align 32
	.type	g_ctx, @object
	.size	g_ctx, 88
g_ctx:
	.zero	88
	.text
.Letext0:
	.section	.text.unlikely.http_gethost_info
.Letext_cold0:
	.file 2 "/home/stone/Documents/Ali_IOT/build/compiler/gcc-arm-none-eabi/Linux64/arm-none-eabi/include/machine/_default_types.h"
	.file 3 "/home/stone/Documents/Ali_IOT/build/compiler/gcc-arm-none-eabi/Linux64/arm-none-eabi/include/sys/_stdint.h"
	.file 4 "./utility/digest_algorithm/./md5.h"
	.file 5 "./framework/fota/./ota_update_manifest.h"
	.file 6 "./framework/fota/./ota_util.h"
	.file 7 "./include/aos/log.h"
	.file 8 "/home/stone/Documents/Ali_IOT/build/compiler/gcc-arm-none-eabi/Linux64/arm-none-eabi/include/string.h"
	.file 9 "/home/stone/Documents/Ali_IOT/build/compiler/gcc-arm-none-eabi/Linux64/arm-none-eabi/include/stdlib.h"
	.file 10 "./include/aos/kernel.h"
	.file 11 "./include/aos/internal/log_impl.h"
	.file 12 "/home/stone/Documents/Ali_IOT/build/compiler/gcc-arm-none-eabi/Linux64/arm-none-eabi/include/stdio.h"
	.file 13 "./framework/fota/download/http/./socket/ota_socket.h"
	.file 14 "./framework/fota/download/http/../ota_download.h"
	.file 15 "/home/stone/Documents/Ali_IOT/build/compiler/gcc-arm-none-eabi/Linux64/arm-none-eabi/include/sys/errno.h"
	.section	.note.GNU-stack,"",@progbits
