	.file	"pbuf.c"
	.text
.Ltext0:
	.section	.text.unlikely.pbuf_skip_const,"ax",@progbits
.LCOLDB0:
	.section	.text.pbuf_skip_const,"ax",@progbits
.LHOTB0:
	.section	.text.unlikely.pbuf_skip_const
.Ltext_cold0:
	.section	.text.pbuf_skip_const
	.type	pbuf_skip_const, @function
pbuf_skip_const:
.LFB33:
	.file 1 "kernel/protocols/net/core/pbuf.c"
	.loc 1 1198 0
	.cfi_startproc
.LVL0:
	pushl	%ebp
	.cfi_def_cfa_offset 8
	.cfi_offset 5, -8
	movl	%esp, %ebp
	.cfi_def_cfa_register 5
	pushl	%ebx
	.cfi_offset 3, -12
.LVL1:
.L2:
	.loc 1 1203 0
	testl	%eax, %eax
	je	.L3
	.loc 1 1203 0 discriminator 1
	movw	10(%eax), %bx
	cmpw	%bx, %dx
	jb	.L3
	.loc 1 1204 0
	subl	%ebx, %edx
.LVL2:
	.loc 1 1205 0
	movl	(%eax), %eax
.LVL3:
	jmp	.L2
.L3:
	.loc 1 1207 0
	testl	%ecx, %ecx
	je	.L5
	.loc 1 1208 0
	movw	%dx, (%ecx)
.L5:
	.loc 1 1211 0
	popl	%ebx
	.cfi_restore 3
	popl	%ebp
	.cfi_restore 5
	.cfi_def_cfa 4, 4
	ret
	.cfi_endproc
.LFE33:
	.size	pbuf_skip_const, .-pbuf_skip_const
	.section	.text.unlikely.pbuf_skip_const
.LCOLDE0:
	.section	.text.pbuf_skip_const
.LHOTE0:
	.section	.text.unlikely.pbuf_free_ooseq_callback,"ax",@progbits
.LCOLDB1:
	.section	.text.pbuf_free_ooseq_callback,"ax",@progbits
.LHOTB1:
	.type	pbuf_free_ooseq_callback, @function
pbuf_free_ooseq_callback:
.LFB18:
	.loc 1 195 0
	.cfi_startproc
.LVL4:
	pushl	%ebp
	.cfi_def_cfa_offset 8
	.cfi_offset 5, -8
	movl	%esp, %ebp
	.cfi_def_cfa_register 5
	pushl	%ebx
	pushl	%eax
	.cfi_offset 3, -12
.LBB11:
.LBB12:
.LBB13:
	.loc 1 176 0
	call	sys_arch_protect
.LVL5:
	subl	$12, %esp
	movb	$0, pbuf_free_ooseq_pending
	pushl	%eax
	call	sys_arch_unprotect
.LVL6:
.LBE13:
	.loc 1 178 0
	movl	tcp_active_pcbs, %ebx
.LVL7:
	addl	$16, %esp
.L15:
	testl	%ebx, %ebx
	je	.L14
	.loc 1 179 0
	movl	116(%ebx), %eax
	.loc 1 179 0
	testl	%eax, %eax
	je	.L16
	.loc 1 182 0
	subl	$12, %esp
	pushl	%eax
	call	tcp_segs_free
.LVL8:
	.loc 1 183 0
	movl	$0, 116(%ebx)
	addl	$16, %esp
	jmp	.L14
.L16:
	.loc 1 178 0
	movl	12(%ebx), %ebx
.LVL9:
	jmp	.L15
.L14:
.LBE12:
.LBE11:
	.loc 1 198 0
	movl	-4(%ebp), %ebx
.LVL10:
	leave
	.cfi_restore 5
	.cfi_restore 3
	.cfi_def_cfa 4, 4
	ret
	.cfi_endproc
.LFE18:
	.size	pbuf_free_ooseq_callback, .-pbuf_free_ooseq_callback
	.section	.text.unlikely.pbuf_free_ooseq_callback
.LCOLDE1:
	.section	.text.pbuf_free_ooseq_callback
.LHOTE1:
	.section	.text.unlikely.pbuf_pool_is_empty,"ax",@progbits
.LCOLDB2:
	.section	.text.pbuf_pool_is_empty,"ax",@progbits
.LHOTB2:
	.type	pbuf_pool_is_empty, @function
pbuf_pool_is_empty:
.LFB19:
	.loc 1 204 0
	.cfi_startproc
	pushl	%ebp
	.cfi_def_cfa_offset 8
	.cfi_offset 5, -8
	movl	%esp, %ebp
	.cfi_def_cfa_register 5
	pushl	%ebx
	pushl	%edx
	.cfi_offset 3, -12
	.loc 1 210 0
	call	sys_arch_protect
.LVL11:
	.loc 1 213 0
	subl	$12, %esp
	.loc 1 211 0
	movb	pbuf_free_ooseq_pending, %bl
.LVL12:
	.loc 1 212 0
	movb	$1, pbuf_free_ooseq_pending
	.loc 1 213 0
	pushl	%eax
	call	sys_arch_unprotect
.LVL13:
	.loc 1 215 0
	addl	$16, %esp
	testb	%bl, %bl
	jne	.L20
	.loc 1 217 0
	pushl	%eax
	pushl	$0
	pushl	$0
	pushl	$pbuf_free_ooseq_callback
	call	tcpip_callback_with_block
.LVL14:
	addl	$16, %esp
	testb	%al, %al
	je	.L20
.LBB16:
.LBB17:
	.loc 1 217 0
	call	sys_arch_protect
.LVL15:
	subl	$12, %esp
	movb	$0, pbuf_free_ooseq_pending
	pushl	%eax
	call	sys_arch_unprotect
.LVL16:
	addl	$16, %esp
.L20:
.LBE17:
.LBE16:
	.loc 1 220 0
	movl	-4(%ebp), %ebx
.LVL17:
	leave
	.cfi_restore 5
	.cfi_restore 3
	.cfi_def_cfa 4, 4
	ret
	.cfi_endproc
.LFE19:
	.size	pbuf_pool_is_empty, .-pbuf_pool_is_empty
	.section	.text.unlikely.pbuf_pool_is_empty
.LCOLDE2:
	.section	.text.pbuf_pool_is_empty
.LHOTE2:
	.section	.rodata.str1.1,"aMS",@progbits,1
.LC3:
	.string	"increment_magnitude <= p->len"
	.section	.text.unlikely.pbuf_header_impl.part.1,"ax",@progbits
.LCOLDB4:
	.section	.text.pbuf_header_impl.part.1,"ax",@progbits
.LHOTB4:
	.type	pbuf_header_impl.part.1, @function
pbuf_header_impl.part.1:
.LFB45:
	.loc 1 662 0
	.cfi_startproc
.LVL18:
	pushl	%ebp
	.cfi_def_cfa_offset 8
	.cfi_offset 5, -8
	movl	%esp, %ebp
	.cfi_def_cfa_register 5
	pushl	%edi
	pushl	%esi
	pushl	%ebx
	.cfi_offset 7, -12
	.cfi_offset 6, -16
	.cfi_offset 3, -20
	.loc 1 678 0
	movl	%edx, %edi
	.loc 1 662 0
	movl	%eax, %ebx
	subl	$28, %esp
	.loc 1 673 0
	testw	%dx, %dx
	jns	.L30
	.loc 1 674 0
	negl	%edi
.LVL19:
	.loc 1 676 0
	cmpw	10(%eax), %di
	jbe	.L30
	subl	$12, %esp
	pushl	$.LC3
	call	bk_printf
.LVL20:
	addl	$16, %esp
	jmp	.L38
.LVL21:
.L30:
	.loc 1 691 0
	movzbl	12(%ebx), %eax
.LVL22:
	.loc 1 693 0
	movl	4(%ebx), %esi
.LVL23:
	.loc 1 696 0
	testw	%ax, %ax
	je	.L39
	cmpw	$3, %ax
	jne	.L32
.L39:
	.loc 1 698 0
	movswl	%dx, %eax
.LVL24:
	.loc 1 700 0
	leal	16(%ebx), %ecx
.LVL25:
	.loc 1 698 0
	subl	%eax, %esi
.LVL26:
	.loc 1 707 0
	movb	$1, %al
	.loc 1 700 0
	cmpl	%ecx, %esi
	jnb	.L47
	jmp	.L31
.LVL27:
.L32:
	.loc 1 710 0
	decl	%eax
.LVL28:
	movw	%ax, -26(%ebp)
	cmpw	$1, -26(%ebp)
	.loc 1 725 0
	movb	$1, %al
	.loc 1 710 0
	ja	.L31
	.loc 1 712 0
	testw	%dx, %dx
	jns	.L35
	cmpw	%di, 10(%ebx)
	jnb	.L48
.L35:
	.loc 1 715 0
	testw	%dx, %dx
	jle	.L38
	testb	%cl, %cl
	je	.L38
.L48:
	.loc 1 716 0
	movswl	%dx, %eax
	subl	%eax, %esi
.LVL29:
.L47:
	movl	%esi, 4(%ebx)
.LVL30:
	.loc 1 728 0
	addw	%dx, 10(%ebx)
	.loc 1 734 0
	xorl	%eax, %eax
	.loc 1 729 0
	addw	%dx, 8(%ebx)
	jmp	.L31
.LVL31:
.L38:
	.loc 1 725 0
	movb	$1, %al
.L31:
	.loc 1 735 0
	leal	-12(%ebp), %esp
	popl	%ebx
	.cfi_restore 3
.LVL32:
	popl	%esi
	.cfi_restore 6
	popl	%edi
	.cfi_restore 7
.LVL33:
	popl	%ebp
	.cfi_restore 5
	.cfi_def_cfa 4, 4
	ret
	.cfi_endproc
.LFE45:
	.size	pbuf_header_impl.part.1, .-pbuf_header_impl.part.1
	.section	.text.unlikely.pbuf_header_impl.part.1
.LCOLDE4:
	.section	.text.pbuf_header_impl.part.1
.LHOTE4:
	.section	.text.unlikely.pbuf_header,"ax",@progbits
.LCOLDB5:
	.section	.text.pbuf_header,"ax",@progbits
.LHOTB5:
	.globl	pbuf_header
	.type	pbuf_header, @function
pbuf_header:
.LFB23:
	.loc 1 759 0
	.cfi_startproc
.LVL34:
	pushl	%ebp
	.cfi_def_cfa_offset 8
	.cfi_offset 5, -8
	movl	%esp, %ebp
	.cfi_def_cfa_register 5
	.loc 1 759 0
	movl	12(%ebp), %edx
	movl	8(%ebp), %eax
.LVL35:
.LBB20:
.LBB21:
	.loc 1 669 0
	testw	%dx, %dx
	je	.L50
	testl	%eax, %eax
	je	.L50
.LBE21:
.LBE20:
	.loc 1 761 0
	popl	%ebp
	.cfi_remember_state
	.cfi_restore 5
	.cfi_def_cfa 4, 4
.LBB23:
.LBB22:
	movswl	%dx, %edx
	xorl	%ecx, %ecx
	jmp	pbuf_header_impl.part.1
.LVL36:
.L50:
	.cfi_restore_state
.LBE22:
.LBE23:
	xorl	%eax, %eax
.LVL37:
	popl	%ebp
	.cfi_restore 5
	.cfi_def_cfa 4, 4
	ret
	.cfi_endproc
.LFE23:
	.size	pbuf_header, .-pbuf_header
	.section	.text.unlikely.pbuf_header
.LCOLDE5:
	.section	.text.pbuf_header
.LHOTE5:
	.section	.text.unlikely.pbuf_header_force,"ax",@progbits
.LCOLDB6:
	.section	.text.pbuf_header_force,"ax",@progbits
.LHOTB6:
	.globl	pbuf_header_force
	.type	pbuf_header_force, @function
pbuf_header_force:
.LFB24:
	.loc 1 769 0
	.cfi_startproc
.LVL38:
	pushl	%ebp
	.cfi_def_cfa_offset 8
	.cfi_offset 5, -8
	movl	%esp, %ebp
	.cfi_def_cfa_register 5
	.loc 1 769 0
	movl	12(%ebp), %edx
	movl	8(%ebp), %eax
.LVL39:
.LBB26:
.LBB27:
	.loc 1 669 0
	testw	%dx, %dx
	je	.L53
	testl	%eax, %eax
	je	.L53
.LBE27:
.LBE26:
	.loc 1 771 0
	popl	%ebp
	.cfi_remember_state
	.cfi_restore 5
	.cfi_def_cfa 4, 4
.LBB29:
.LBB28:
	movswl	%dx, %edx
	movl	$1, %ecx
	jmp	pbuf_header_impl.part.1
.LVL40:
.L53:
	.cfi_restore_state
.LBE28:
.LBE29:
	xorl	%eax, %eax
.LVL41:
	popl	%ebp
	.cfi_restore 5
	.cfi_def_cfa 4, 4
	ret
	.cfi_endproc
.LFE24:
	.size	pbuf_header_force, .-pbuf_header_force
	.section	.text.unlikely.pbuf_header_force
.LCOLDE6:
	.section	.text.pbuf_header_force
.LHOTE6:
	.section	.text.unlikely.pbuf_free,"ax",@progbits
.LCOLDB7:
	.section	.text.pbuf_free,"ax",@progbits
.LHOTB7:
	.globl	pbuf_free
	.type	pbuf_free, @function
pbuf_free:
.LFB25:
	.loc 1 809 0
	.cfi_startproc
.LVL42:
	pushl	%ebp
	.cfi_def_cfa_offset 8
	.cfi_offset 5, -8
	.loc 1 819 0
	xorl	%eax, %eax
	.loc 1 809 0
	movl	%esp, %ebp
	.cfi_def_cfa_register 5
	pushl	%edi
	pushl	%esi
	pushl	%ebx
	.cfi_offset 7, -12
	.cfi_offset 6, -16
	.cfi_offset 3, -20
	xorl	%esi, %esi
	subl	$12, %esp
	.loc 1 809 0
	movl	8(%ebp), %ebx
	.loc 1 814 0
	testl	%ebx, %ebx
	je	.L56
.LVL43:
.L60:
.LBB30:
	.loc 1 838 0
	call	sys_arch_protect
.LVL44:
	.loc 1 842 0
	movw	14(%ebx), %dx
	.loc 1 843 0
	subl	$12, %esp
	.loc 1 842 0
	leal	-1(%edx), %edi
	movw	%di, 14(%ebx)
.LVL45:
	.loc 1 843 0
	pushl	%eax
	call	sys_arch_unprotect
.LVL46:
	.loc 1 845 0
	addl	$16, %esp
	testw	%di, %di
	jne	.L62
	.loc 1 849 0
	movzbl	12(%ebx), %eax
	.loc 1 847 0
	movl	(%ebx), %edi
.LVL47:
	.loc 1 860 0
	cmpw	$3, %ax
	jne	.L57
	.loc 1 864 0
	pushl	%edx
	pushl	%edx
	pushl	%ebx
	pushl	$13
	jmp	.L66
.L57:
	.loc 1 867 0
	decl	%eax
.LVL48:
	cmpw	$1, %ax
	ja	.L59
	.loc 1 868 0
	pushl	%eax
.LVL49:
	pushl	%eax
	pushl	%ebx
	pushl	$12
.L66:
	call	memp_free
.LVL50:
	jmp	.L65
.LVL51:
.L59:
	.loc 1 871 0
	subl	$12, %esp
	pushl	%ebx
.LVL52:
	call	mem_free
.LVL53:
.L65:
	addl	$16, %esp
	.loc 1 874 0
	incl	%esi
.LVL54:
.LBE30:
	.loc 1 832 0
	testl	%edi, %edi
	je	.L62
	movl	%edi, %ebx
	jmp	.L60
.LVL55:
.L62:
.LBB31:
	movl	%esi, %eax
.LVL56:
.L56:
.LBE31:
	.loc 1 888 0
	leal	-12(%ebp), %esp
	popl	%ebx
	.cfi_restore 3
	popl	%esi
	.cfi_restore 6
	popl	%edi
	.cfi_restore 7
	popl	%ebp
	.cfi_restore 5
	.cfi_def_cfa 4, 4
	ret
	.cfi_endproc
.LFE25:
	.size	pbuf_free, .-pbuf_free
	.section	.text.unlikely.pbuf_free
.LCOLDE7:
	.section	.text.pbuf_free
.LHOTE7:
	.section	.text.unlikely.pbuf_alloc,"ax",@progbits
.LCOLDB8:
	.section	.text.pbuf_alloc,"ax",@progbits
.LHOTB8:
	.globl	pbuf_alloc
	.type	pbuf_alloc, @function
pbuf_alloc:
.LFB20:
	.loc 1 262 0
	.cfi_startproc
.LVL57:
	pushl	%ebp
	.cfi_def_cfa_offset 8
	.cfi_offset 5, -8
	.loc 1 301 0
	xorl	%eax, %eax
	.loc 1 262 0
	movl	%esp, %ebp
	.cfi_def_cfa_register 5
	pushl	%edi
	pushl	%esi
	pushl	%ebx
	subl	$12, %esp
	.cfi_offset 7, -12
	.cfi_offset 6, -16
	.cfi_offset 3, -20
	.loc 1 262 0
	movl	8(%ebp), %edx
	movl	12(%ebp), %edi
	.loc 1 275 0
	cmpl	$4, %edx
	ja	.L68
	jmp	*.L70(,%edx,4)
	.section	.rodata.pbuf_alloc,"a",@progbits
	.align 4
	.align 4
.L70:
	.long	.L87
	.long	.L71
	.long	.L72
	.long	.L74
	.long	.L74
	.section	.text.pbuf_alloc
.L71:
	.loc 1 282 0
	movl	$34, %esi
	jmp	.L69
.L72:
.LVL58:
	.loc 1 286 0
	movl	$14, %esi
	.loc 1 287 0
	jmp	.L69
.LVL59:
.L74:
	.loc 1 297 0
	xorl	%esi, %esi
	.loc 1 298 0
	jmp	.L69
.LVL60:
.L87:
	.loc 1 278 0
	movl	$54, %esi
.L69:
.LVL61:
	.loc 1 317 0
	cmpl	$2, 16(%ebp)
	ja	.L75
	cmpl	$1, 16(%ebp)
	jb	.L92
	jmp	.L95
.L75:
	cmpl	$3, 16(%ebp)
	jne	.L93
	.loc 1 323 0
	subl	$12, %esp
	pushl	$13
	call	memp_malloc
.LVL62:
	.loc 1 326 0
	addl	$16, %esp
	testl	%eax, %eax
	.loc 1 323 0
	movl	%eax, %ebx
.LVL63:
	.loc 1 326 0
	jne	.L79
	.loc 1 327 0
	call	pbuf_pool_is_empty
.LVL64:
	jmp	.L93
.LVL65:
.L79:
	.loc 1 334 0
	movzwl	%si, %edx
	.loc 1 330 0
	movb	$3, 12(%eax)
	.loc 1 331 0
	movl	$0, (%eax)
	.loc 1 334 0
	leal	19(%eax,%edx), %eax
.LVL66:
	.loc 1 366 0
	addl	$3, %edx
	.loc 1 338 0
	movw	%di, 8(%ebx)
	.loc 1 366 0
	andl	$-4, %edx
	movzwl	%di, %edi
	.loc 1 374 0
	movw	$1, 14(%ebx)
.LVL67:
	.loc 1 334 0
	andl	$-4, %eax
	.loc 1 383 0
	movl	%ebx, %esi
.LVL68:
	.loc 1 334 0
	movl	%eax, 4(%ebx)
	.loc 1 366 0
	movl	$1580, %eax
	subl	%edx, %eax
	cmpl	%edi, %eax
	cmova	%edi, %eax
	movw	%ax, 10(%ebx)
	.loc 1 381 0
	subl	%eax, %edi
.LVL69:
.L80:
	.loc 1 383 0
	testl	%edi, %edi
	jle	.L83
	.loc 1 384 0
	subl	$12, %esp
	pushl	$13
	call	memp_malloc
.LVL70:
	.loc 1 385 0
	addl	$16, %esp
	testl	%eax, %eax
	jne	.L81
	.loc 1 386 0
	call	pbuf_pool_is_empty
.LVL71:
	.loc 1 388 0
	subl	$12, %esp
	pushl	%ebx
	call	pbuf_free
.LVL72:
	.loc 1 390 0
	addl	$16, %esp
	jmp	.L93
.LVL73:
.L81:
	.loc 1 401 0
	cmpl	$1580, %edi
	movl	$1580, %edx
	.loc 1 402 0
	leal	16(%eax), %ecx
	.loc 1 401 0
	cmovbe	%edi, %edx
	.loc 1 392 0
	movb	$3, 12(%eax)
	.loc 1 393 0
	movb	$0, 13(%eax)
	.loc 1 394 0
	movl	$0, (%eax)
	.loc 1 396 0
	movl	%eax, (%esi)
	.loc 1 410 0
	movl	%eax, %esi
.LVL74:
	.loc 1 399 0
	movw	%di, 8(%eax)
	.loc 1 401 0
	movw	%dx, 10(%eax)
	.loc 1 410 0
	subl	%edx, %edi
.LVL75:
	.loc 1 402 0
	movl	%ecx, 4(%eax)
	.loc 1 408 0
	movw	$1, 14(%eax)
	jmp	.L80
.LVL76:
.L92:
	.loc 1 423 0
	leal	19(%esi), %eax
	subl	$12, %esp
	andl	$-4, %eax
	movl	%eax, %edx
	movzwl	%di, %eax
	addl	$3, %eax
	andl	$-4, %eax
	addl	%edx, %eax
	pushl	%eax
	call	mem_malloc
.LVL77:
	.loc 1 425 0
	addl	$16, %esp
	testl	%eax, %eax
	.loc 1 423 0
	movl	%eax, %ebx
.LVL78:
	.loc 1 425 0
	je	.L93
	.loc 1 429 0
	leal	19(%eax,%esi), %eax
.LVL79:
	.loc 1 430 0
	movw	%di, 8(%ebx)
	movw	%di, 10(%ebx)
	.loc 1 431 0
	movl	$0, (%ebx)
	.loc 1 432 0
	movb	$0, 12(%ebx)
	.loc 1 429 0
	andl	$-4, %eax
	movl	%eax, 4(%ebx)
	.loc 1 436 0
	jmp	.L83
.LVL80:
.L95:
	.loc 1 442 0
	subl	$12, %esp
	pushl	$12
	call	memp_malloc
.LVL81:
	.loc 1 443 0
	addl	$16, %esp
	testl	%eax, %eax
	.loc 1 442 0
	movl	%eax, %ebx
.LVL82:
	.loc 1 443 0
	je	.L93
	.loc 1 450 0
	movl	$0, 4(%eax)
	.loc 1 451 0
	movw	%di, 8(%eax)
	movw	%di, 10(%eax)
	.loc 1 452 0
	movl	$0, (%eax)
	.loc 1 453 0
	movb	16(%ebp), %al
.LVL83:
	movb	%al, 12(%ebx)
.LVL84:
.L83:
	.loc 1 460 0
	movw	$1, 14(%ebx)
	.loc 1 462 0
	movb	$0, 13(%ebx)
	.loc 1 471 0
	movl	%ebx, %eax
	jmp	.L68
.LVL85:
.L93:
	.loc 1 457 0
	xorl	%eax, %eax
.L68:
	.loc 1 472 0
	leal	-12(%ebp), %esp
	popl	%ebx
	.cfi_restore 3
	popl	%esi
	.cfi_restore 6
	popl	%edi
	.cfi_restore 7
	popl	%ebp
	.cfi_restore 5
	.cfi_def_cfa 4, 4
	ret
	.cfi_endproc
.LFE20:
	.size	pbuf_alloc, .-pbuf_alloc
	.section	.text.unlikely.pbuf_alloc
.LCOLDE8:
	.section	.text.pbuf_alloc
.LHOTE8:
	.section	.text.unlikely.pbuf_realloc,"ax",@progbits
.LCOLDB9:
	.section	.text.pbuf_realloc,"ax",@progbits
.LHOTB9:
	.globl	pbuf_realloc
	.type	pbuf_realloc, @function
pbuf_realloc:
.LFB21:
	.loc 1 561 0
	.cfi_startproc
.LVL86:
	pushl	%ebp
	.cfi_def_cfa_offset 8
	.cfi_offset 5, -8
	movl	%esp, %ebp
	.cfi_def_cfa_register 5
	pushl	%esi
	pushl	%ebx
	.cfi_offset 6, -12
	.cfi_offset 3, -16
	.loc 1 561 0
	movl	8(%ebp), %ebx
	movl	12(%ebp), %esi
	.loc 1 573 0
	movl	8(%ebx), %edx
	movl	%esi, %ecx
	cmpw	%si, %dx
	jbe	.L96
.L98:
.LVL87:
	.loc 1 586 0
	movw	10(%ebx), %ax
	cmpw	%ax, %si
	jbe	.L112
	.loc 1 588 0
	subl	%eax, %esi
.LVL88:
	.loc 1 591 0
	movl	%ecx, %eax
	subl	%edx, %eax
	addw	%ax, 8(%ebx)
	.loc 1 593 0
	movl	(%ebx), %ebx
.LVL89:
	jmp	.L98
.L112:
	.loc 1 601 0
	cmpb	$0, 12(%ebx)
	jne	.L100
	cmpw	%ax, %si
	je	.L100
	.loc 1 612 0
	movl	4(%ebx), %eax
	movzwl	%si, %edx
	subl	%ebx, %eax
	movzwl	%ax, %eax
	addl	%edx, %eax
	pushl	%edx
	pushl	%edx
	pushl	%eax
	pushl	%ebx
	call	mem_trim
.LVL90:
	addl	$16, %esp
	movl	%eax, %ebx
.LVL91:
.L100:
	.loc 1 621 0
	movl	(%ebx), %eax
	.loc 1 617 0
	movw	%si, 10(%ebx)
	.loc 1 618 0
	movw	%si, 8(%ebx)
	.loc 1 621 0
	testl	%eax, %eax
	je	.L101
	.loc 1 623 0
	subl	$12, %esp
	pushl	%eax
	call	pbuf_free
.LVL92:
	addl	$16, %esp
.L101:
	.loc 1 626 0
	movl	$0, (%ebx)
.LVL93:
.L96:
	.loc 1 628 0
	leal	-8(%ebp), %esp
	popl	%ebx
	.cfi_restore 3
	popl	%esi
	.cfi_restore 6
	popl	%ebp
	.cfi_restore 5
	.cfi_def_cfa 4, 4
	ret
	.cfi_endproc
.LFE21:
	.size	pbuf_realloc, .-pbuf_realloc
	.section	.text.unlikely.pbuf_realloc
.LCOLDE9:
	.section	.text.pbuf_realloc
.LHOTE9:
	.section	.text.unlikely.pbuf_clen,"ax",@progbits
.LCOLDB10:
	.section	.text.pbuf_clen,"ax",@progbits
.LHOTB10:
	.globl	pbuf_clen
	.type	pbuf_clen, @function
pbuf_clen:
.LFB26:
	.loc 1 898 0
	.cfi_startproc
.LVL94:
	pushl	%ebp
	.cfi_def_cfa_offset 8
	.cfi_offset 5, -8
	.loc 1 901 0
	xorl	%eax, %eax
	.loc 1 898 0
	movl	%esp, %ebp
	.cfi_def_cfa_register 5
	.loc 1 898 0
	movl	8(%ebp), %edx
.LVL95:
.L114:
	.loc 1 902 0
	testl	%edx, %edx
	je	.L117
	.loc 1 903 0
	incl	%eax
.LVL96:
	.loc 1 904 0
	movl	(%edx), %edx
.LVL97:
	jmp	.L114
.L117:
	.loc 1 907 0
	popl	%ebp
	.cfi_restore 5
	.cfi_def_cfa 4, 4
	ret
	.cfi_endproc
.LFE26:
	.size	pbuf_clen, .-pbuf_clen
	.section	.text.unlikely.pbuf_clen
.LCOLDE10:
	.section	.text.pbuf_clen
.LHOTE10:
	.section	.text.unlikely.pbuf_ref,"ax",@progbits
.LCOLDB11:
	.section	.text.pbuf_ref,"ax",@progbits
.LHOTB11:
	.globl	pbuf_ref
	.type	pbuf_ref, @function
pbuf_ref:
.LFB27:
	.loc 1 918 0
	.cfi_startproc
.LVL98:
	pushl	%ebp
	.cfi_def_cfa_offset 8
	.cfi_offset 5, -8
	movl	%esp, %ebp
	.cfi_def_cfa_register 5
	pushl	%ebx
	pushl	%ecx
	.cfi_offset 3, -12
	.loc 1 918 0
	movl	8(%ebp), %ebx
	.loc 1 920 0
	testl	%ebx, %ebx
	je	.L118
.LBB32:
	.loc 1 921 0
	call	sys_arch_protect
.LVL99:
	incw	14(%ebx)
	movl	%eax, 8(%ebp)
.LBE32:
	.loc 1 923 0
	popl	%edx
	popl	%ebx
	.cfi_remember_state
	.cfi_restore 3
	popl	%ebp
	.cfi_restore 5
	.cfi_def_cfa 4, 4
.LBB33:
	.loc 1 921 0
	jmp	sys_arch_unprotect
.LVL100:
.L118:
	.cfi_restore_state
.LBE33:
	.loc 1 923 0
	popl	%eax
	popl	%ebx
	.cfi_restore 3
	popl	%ebp
	.cfi_restore 5
	.cfi_def_cfa 4, 4
	ret
	.cfi_endproc
.LFE27:
	.size	pbuf_ref, .-pbuf_ref
	.section	.text.unlikely.pbuf_ref
.LCOLDE11:
	.section	.text.pbuf_ref
.LHOTE11:
	.section	.rodata.str1.1
.LC12:
	.string	"(h != NULL) && (t != NULL) (programmer violates API)"
	.section	.text.unlikely.pbuf_cat,"ax",@progbits
.LCOLDB13:
	.section	.text.pbuf_cat,"ax",@progbits
.LHOTB13:
	.globl	pbuf_cat
	.type	pbuf_cat, @function
pbuf_cat:
.LFB28:
	.loc 1 937 0
	.cfi_startproc
.LVL101:
	pushl	%ebp
	.cfi_def_cfa_offset 8
	.cfi_offset 5, -8
	movl	%esp, %ebp
	.cfi_def_cfa_register 5
	pushl	%ebx
	.cfi_offset 3, -12
	.loc 1 937 0
	movl	8(%ebp), %eax
	movl	12(%ebp), %edx
	.loc 1 940 0
	testl	%eax, %eax
	je	.L122
	testl	%edx, %edx
	jne	.L123
.L122:
	.loc 1 940 0 discriminator 1
	movl	$.LC12, 8(%ebp)
.LVL102:
	.loc 1 958 0 discriminator 1
	popl	%ebx
	.cfi_remember_state
	.cfi_restore 3
	popl	%ebp
	.cfi_restore 5
	.cfi_def_cfa 4, 4
	.loc 1 940 0 discriminator 1
	jmp	bk_printf
.LVL103:
.L123:
	.cfi_restore_state
	.loc 1 944 0 discriminator 1
	movl	(%eax), %ebx
	movl	8(%edx), %ecx
	testl	%ebx, %ebx
	je	.L126
	.loc 1 946 0 discriminator 3
	addw	%cx, 8(%eax)
.LVL104:
	movl	%ebx, %eax
	jmp	.L123
.LVL105:
.L126:
	.loc 1 952 0
	addw	%cx, 8(%eax)
	.loc 1 954 0
	movl	%edx, (%eax)
	.loc 1 958 0
	popl	%ebx
	.cfi_restore 3
	popl	%ebp
	.cfi_restore 5
	.cfi_def_cfa 4, 4
	ret
	.cfi_endproc
.LFE28:
	.size	pbuf_cat, .-pbuf_cat
	.section	.text.unlikely.pbuf_cat
.LCOLDE13:
	.section	.text.pbuf_cat
.LHOTE13:
	.section	.text.unlikely.pbuf_chain,"ax",@progbits
.LCOLDB14:
	.section	.text.pbuf_chain,"ax",@progbits
.LHOTB14:
	.globl	pbuf_chain
	.type	pbuf_chain, @function
pbuf_chain:
.LFB29:
	.loc 1 979 0
	.cfi_startproc
.LVL106:
	pushl	%ebp
	.cfi_def_cfa_offset 8
	.cfi_offset 5, -8
	movl	%esp, %ebp
	.cfi_def_cfa_register 5
	pushl	%ebx
	subl	$12, %esp
	.cfi_offset 3, -12
	.loc 1 979 0
	movl	12(%ebp), %ebx
	.loc 1 980 0
	pushl	%ebx
	pushl	8(%ebp)
	call	pbuf_cat
.LVL107:
	.loc 1 982 0
	movl	%ebx, 8(%ebp)
	addl	$16, %esp
	.loc 1 984 0
	movl	-4(%ebp), %ebx
	leave
	.cfi_restore 5
	.cfi_restore 3
	.cfi_def_cfa 4, 4
	.loc 1 982 0
	jmp	pbuf_ref
.LVL108:
	.cfi_endproc
.LFE29:
	.size	pbuf_chain, .-pbuf_chain
	.section	.text.unlikely.pbuf_chain
.LCOLDE14:
	.section	.text.pbuf_chain
.LHOTE14:
	.section	.text.unlikely.pbuf_dechain,"ax",@progbits
.LCOLDB15:
	.section	.text.pbuf_dechain,"ax",@progbits
.LHOTB15:
	.globl	pbuf_dechain
	.type	pbuf_dechain, @function
pbuf_dechain:
.LFB30:
	.loc 1 996 0
	.cfi_startproc
.LVL109:
	pushl	%ebp
	.cfi_def_cfa_offset 8
	.cfi_offset 5, -8
	movl	%esp, %ebp
	.cfi_def_cfa_register 5
	pushl	%ebx
	pushl	%eax
	.cfi_offset 3, -12
	.loc 1 996 0
	movl	8(%ebp), %eax
	.loc 1 1000 0
	movl	(%eax), %ebx
.LVL110:
	.loc 1 1002 0
	testl	%ebx, %ebx
	jne	.L130
.LVL111:
.L132:
	.loc 1 1022 0
	xorl	%eax, %eax
	jmp	.L131
.LVL112:
.L130:
	.loc 1 1006 0
	movw	10(%eax), %cx
	movl	8(%eax), %edx
	.loc 1 1013 0
	subl	$12, %esp
	.loc 1 1006 0
	subl	%ecx, %edx
	movw	%dx, 8(%ebx)
	.loc 1 1008 0
	movl	$0, (%eax)
	.loc 1 1010 0
	movw	%cx, 8(%eax)
	.loc 1 1013 0
	pushl	%ebx
	call	pbuf_free
.LVL113:
	.loc 1 1022 0
	addl	$16, %esp
	testb	%al, %al
	jne	.L132
	movl	%ebx, %eax
.LVL114:
.L131:
	.loc 1 1023 0 discriminator 4
	movl	-4(%ebp), %ebx
.LVL115:
	leave
	.cfi_restore 5
	.cfi_restore 3
	.cfi_def_cfa 4, 4
	ret
	.cfi_endproc
.LFE30:
	.size	pbuf_dechain, .-pbuf_dechain
	.section	.text.unlikely.pbuf_dechain
.LCOLDE15:
	.section	.text.pbuf_dechain
.LHOTE15:
	.section	.rodata.str1.1
.LC16:
	.string	"pbuf_copy: target not big enough to hold source"
.LC17:
	.string	"p_to != NULL"
.LC18:
	.string	"pbuf_copy() does not allow packet queues!"
	.section	.text.unlikely.pbuf_copy,"ax",@progbits
.LCOLDB19:
	.section	.text.pbuf_copy,"ax",@progbits
.LHOTB19:
	.globl	pbuf_copy
	.type	pbuf_copy, @function
pbuf_copy:
.LFB31:
	.loc 1 1045 0
	.cfi_startproc
.LVL116:
	pushl	%ebp
	.cfi_def_cfa_offset 8
	.cfi_offset 5, -8
	movl	%esp, %ebp
	.cfi_def_cfa_register 5
	pushl	%edi
	pushl	%esi
	pushl	%ebx
	subl	$28, %esp
	.cfi_offset 7, -12
	.cfi_offset 6, -16
	.cfi_offset 3, -20
	.loc 1 1045 0
	movl	8(%ebp), %edx
	movl	12(%ebp), %eax
	.loc 1 1052 0
	testl	%edx, %edx
	je	.L135
	testl	%eax, %eax
	je	.L135
	.loc 1 1052 0 is_stmt 0 discriminator 2
	movl	8(%eax), %ebx
	cmpw	%bx, 8(%edx)
	jb	.L135
	movw	$0, -26(%ebp)
	xorl	%ebx, %ebx
	jmp	.L136
.L135:
	.loc 1 1052 0 is_stmt 1 discriminator 3
	subl	$12, %esp
	pushl	$.LC16
	jmp	.L159
.LVL117:
.L143:
	.loc 1 1088 0
	testl	%edx, %edx
	je	.L160
	.loc 1 1078 0
	xorl	%ebx, %ebx
.LVL118:
.L148:
	.loc 1 1088 0 discriminator 1
	movl	8(%edx), %edi
.LVL119:
	cmpw	%di, 10(%edx)
	je	.L161
.L145:
	.loc 1 1093 0
	testl	%eax, %eax
	je	.L157
.LVL120:
.L136:
	.loc 1 1059 0
	movzwl	10(%edx), %ecx
	movzwl	%bx, %edi
	movzwl	-26(%ebp), %esi
	subl	%edi, %ecx
	movl	%esi, -36(%ebp)
	movl	%ecx, -32(%ebp)
	movzwl	10(%eax), %ecx
	subl	%esi, %ecx
	movl	%ecx, %esi
	.loc 1 1061 0
	movw	10(%eax), %cx
	subw	-26(%ebp), %cx
	movw	%cx, -28(%ebp)
	movw	10(%edx), %cx
	subl	%ebx, %ecx
	cmpl	%esi, -32(%ebp)
	.loc 1 1066 0
	movl	-36(%ebp), %esi
	.loc 1 1061 0
	movw	%cx, -38(%ebp)
	movl	-28(%ebp), %ecx
	cmovl	-38(%ebp), %cx
	.loc 1 1066 0
	addl	4(%edx), %edi
	addl	4(%eax), %esi
	.loc 1 1061 0
	movw	%cx, -32(%ebp)
.LVL121:
	.loc 1 1066 0
	movzwl	%cx, %ecx
.LVL122:
	.loc 1 1067 0
	addl	-32(%ebp), %ebx
.LVL123:
	.loc 1 1066 0
	rep movsb
	.loc 1 1068 0
	movl	-32(%ebp), %edi
	addw	%di, -26(%ebp)
.LVL124:
	.loc 1 1071 0
	movw	-26(%ebp), %si
	cmpw	10(%eax), %si
	jb	.L140
.LVL125:
	.loc 1 1074 0
	movl	(%eax), %eax
.LVL126:
	.loc 1 1073 0
	movw	$0, -26(%ebp)
.LVL127:
.L140:
	.loc 1 1076 0
	cmpw	10(%edx), %bx
	jne	.L141
.LVL128:
	.loc 1 1079 0
	movl	(%edx), %edx
.LVL129:
	.loc 1 1080 0
	testl	%edx, %edx
	jne	.L142
	testl	%eax, %eax
	je	.L142
	.loc 1 1080 0 discriminator 1
	subl	$12, %esp
	pushl	$.LC17
.LVL130:
.L159:
	call	bk_printf
.LVL131:
	addl	$16, %esp
	movb	$-16, %al
	jmp	.L157
.LVL132:
.L142:
	.loc 1 1083 0
	testl	%eax, %eax
	je	.L143
	.loc 1 1078 0
	xorl	%ebx, %ebx
.LVL133:
.L149:
	.loc 1 1083 0 discriminator 1
	movl	8(%eax), %esi
	cmpw	%si, 10(%eax)
	jne	.L144
	.loc 1 1085 0
	cmpl	$0, (%eax)
	je	.L144
.LVL134:
.L146:
	.loc 1 1085 0 discriminator 1
	subl	$12, %esp
	pushl	$.LC18
	call	bk_printf
.LVL135:
	addl	$16, %esp
	movb	$-6, %al
	jmp	.L157
.LVL136:
.L161:
	.loc 1 1090 0
	cmpl	$0, (%edx)
	je	.L145
	jmp	.L146
.LVL137:
.L160:
	.loc 1 1095 0
	xorl	%eax, %eax
.LVL138:
	jmp	.L157
.LVL139:
.L144:
	.loc 1 1088 0
	testl	%edx, %edx
	jne	.L148
	jmp	.L136
.LVL140:
.L141:
	.loc 1 1083 0
	testl	%eax, %eax
	jne	.L149
	jmp	.L148
.LVL141:
.L157:
	.loc 1 1096 0
	leal	-12(%ebp), %esp
	popl	%ebx
	.cfi_restore 3
	popl	%esi
	.cfi_restore 6
	popl	%edi
	.cfi_restore 7
	popl	%ebp
	.cfi_restore 5
	.cfi_def_cfa 4, 4
	ret
	.cfi_endproc
.LFE31:
	.size	pbuf_copy, .-pbuf_copy
	.section	.text.unlikely.pbuf_copy
.LCOLDE19:
	.section	.text.pbuf_copy
.LHOTE19:
	.section	.rodata.str1.1
.LC20:
	.string	"pbuf_copy_partial: invalid buf"
.LC21:
	.string	"pbuf_copy_partial: invalid dataptr"
	.section	.text.unlikely.pbuf_copy_partial,"ax",@progbits
.LCOLDB22:
	.section	.text.pbuf_copy_partial,"ax",@progbits
.LHOTB22:
	.globl	pbuf_copy_partial
	.type	pbuf_copy_partial, @function
pbuf_copy_partial:
.LFB32:
	.loc 1 1112 0
	.cfi_startproc
.LVL142:
	pushl	%ebp
	.cfi_def_cfa_offset 8
	.cfi_offset 5, -8
	movl	%esp, %ebp
	.cfi_def_cfa_register 5
	pushl	%edi
	pushl	%esi
	pushl	%ebx
	subl	$28, %esp
	.cfi_offset 7, -12
	.cfi_offset 6, -16
	.cfi_offset 3, -20
	.loc 1 1112 0
	movl	8(%ebp), %edx
	movl	16(%ebp), %ebx
	movl	20(%ebp), %esi
	.loc 1 1118 0
	testl	%edx, %edx
	jne	.L163
	.loc 1 1118 0 discriminator 1
	subl	$12, %esp
	pushl	$.LC20
	jmp	.L179
.L163:
	.loc 1 1119 0
	cmpl	$0, 12(%ebp)
	je	.L165
	movw	$0, -28(%ebp)
	movw	$0, -26(%ebp)
	jmp	.L166
.L165:
	.loc 1 1119 0 discriminator 1
	subl	$12, %esp
	pushl	$.LC21
.L179:
	call	bk_printf
.LVL143:
	addl	$16, %esp
	xorl	%eax, %eax
	jmp	.L164
.LVL144:
.L180:
	.loc 1 1124 0 discriminator 1
	testl	%edx, %edx
	je	.L171
	.loc 1 1125 0
	testw	%si, %si
	movw	10(%edx), %ax
	je	.L167
	.loc 1 1125 0 is_stmt 0 discriminator 1
	cmpw	%ax, %si
	jb	.L167
	.loc 1 1127 0 is_stmt 1
	subl	%eax, %esi
.LVL145:
.L168:
	.loc 1 1124 0 discriminator 2
	movl	(%edx), %edx
.LVL146:
.L166:
	.loc 1 1124 0 discriminator 1
	testw	%bx, %bx
	jne	.L180
	jmp	.L171
.L167:
	.loc 1 1130 0
	subl	%esi, %eax
.LVL147:
	.loc 1 1135 0
	movzwl	-26(%ebp), %ecx
	movzwl	%si, %esi
	cmpw	%ax, %bx
	cmovbe	%ebx, %eax
.LVL148:
	addl	12(%ebp), %ecx
	addl	4(%edx), %esi
.LVL149:
	.loc 1 1136 0
	addw	%ax, -28(%ebp)
.LVL150:
	.loc 1 1137 0
	addw	%ax, -26(%ebp)
.LVL151:
	.loc 1 1138 0
	subl	%eax, %ebx
.LVL152:
	.loc 1 1135 0
	movl	%ecx, %edi
	movzwl	%ax, %ecx
	rep movsb
	.loc 1 1139 0
	xorl	%esi, %esi
	jmp	.L168
.LVL153:
.L171:
	movl	-28(%ebp), %eax
.LVL154:
.L164:
	.loc 1 1143 0
	leal	-12(%ebp), %esp
	popl	%ebx
	.cfi_restore 3
	popl	%esi
	.cfi_restore 6
	popl	%edi
	.cfi_restore 7
	popl	%ebp
	.cfi_restore 5
	.cfi_def_cfa 4, 4
	ret
	.cfi_endproc
.LFE32:
	.size	pbuf_copy_partial, .-pbuf_copy_partial
	.section	.text.unlikely.pbuf_copy_partial
.LCOLDE22:
	.section	.text.pbuf_copy_partial
.LHOTE22:
	.section	.text.unlikely.pbuf_skip,"ax",@progbits
.LCOLDB23:
	.section	.text.pbuf_skip,"ax",@progbits
.LHOTB23:
	.globl	pbuf_skip
	.type	pbuf_skip, @function
pbuf_skip:
.LFB34:
	.loc 1 1224 0
	.cfi_startproc
.LVL155:
	pushl	%ebp
	.cfi_def_cfa_offset 8
	.cfi_offset 5, -8
	movl	%esp, %ebp
	.cfi_def_cfa_register 5
	.loc 1 1225 0
	movzwl	12(%ebp), %edx
	movl	16(%ebp), %ecx
	movl	8(%ebp), %eax
	.loc 1 1226 0
	popl	%ebp
	.cfi_restore 5
	.cfi_def_cfa 4, 4
	.loc 1 1225 0
	jmp	pbuf_skip_const
.LVL156:
	.cfi_endproc
.LFE34:
	.size	pbuf_skip, .-pbuf_skip
	.section	.text.unlikely.pbuf_skip
.LCOLDE23:
	.section	.text.pbuf_skip
.LHOTE23:
	.section	.rodata.str1.1
.LC24:
	.string	"pbuf_take: invalid buf"
.LC25:
	.string	"pbuf_take: invalid dataptr"
.LC26:
	.string	"pbuf_take: buf not large enough"
	.section	.text.unlikely.pbuf_take,"ax",@progbits
.LCOLDB27:
	.section	.text.pbuf_take,"ax",@progbits
.LHOTB27:
	.globl	pbuf_take
	.type	pbuf_take, @function
pbuf_take:
.LFB35:
	.loc 1 1241 0
	.cfi_startproc
.LVL157:
	pushl	%ebp
	.cfi_def_cfa_offset 8
	.cfi_offset 5, -8
	movl	%esp, %ebp
	.cfi_def_cfa_register 5
	pushl	%edi
	pushl	%esi
	pushl	%ebx
	subl	$28, %esp
	.cfi_offset 7, -12
	.cfi_offset 6, -16
	.cfi_offset 3, -20
	.loc 1 1241 0
	movl	8(%ebp), %eax
	movl	16(%ebp), %ecx
.LVL158:
	.loc 1 1247 0
	testl	%eax, %eax
	jne	.L184
	.loc 1 1247 0 discriminator 1
	subl	$12, %esp
	pushl	$.LC24
	jmp	.L191
.L184:
	.loc 1 1248 0
	cmpl	$0, 12(%ebp)
	jne	.L186
	.loc 1 1248 0 discriminator 1
	subl	$12, %esp
	pushl	$.LC25
.L191:
	call	bk_printf
.LVL159:
	addl	$16, %esp
	movb	$-16, %al
	jmp	.L185
.LVL160:
.L186:
	.loc 1 1249 0
	cmpw	8(%eax), %cx
	ja	.L187
	movl	%ecx, %edx
	movw	$0, -26(%ebp)
	jmp	.L188
.L187:
	.loc 1 1249 0 is_stmt 0 discriminator 1
	subl	$12, %esp
	pushl	$.LC26
	call	bk_printf
.LVL161:
	addl	$16, %esp
	movb	$-1, %al
	jmp	.L185
.LVL162:
.L188:
	.loc 1 1256 0 is_stmt 1 discriminator 1
	testw	%dx, %dx
	je	.L192
.LVL163:
	.loc 1 1259 0
	movw	10(%eax), %bx
	.loc 1 1264 0
	movzwl	-26(%ebp), %esi
	movl	4(%eax), %edi
	cmpw	%bx, %dx
	cmovbe	%edx, %ebx
.LVL164:
	addl	12(%ebp), %esi
	.loc 1 1266 0
	addw	%bx, -26(%ebp)
.LVL165:
	.loc 1 1264 0
	movzwl	%bx, %ecx
	.loc 1 1265 0
	subl	%ebx, %edx
.LVL166:
	.loc 1 1264 0
	rep movsb
	.loc 1 1256 0
	movl	(%eax), %eax
.LVL167:
	jmp	.L188
.LVL168:
.L192:
	.loc 1 1269 0
	xorl	%eax, %eax
.LVL169:
.L185:
	.loc 1 1270 0
	leal	-12(%ebp), %esp
	popl	%ebx
	.cfi_restore 3
	popl	%esi
	.cfi_restore 6
	popl	%edi
	.cfi_restore 7
	popl	%ebp
	.cfi_restore 5
	.cfi_def_cfa 4, 4
	ret
	.cfi_endproc
.LFE35:
	.size	pbuf_take, .-pbuf_take
	.section	.text.unlikely.pbuf_take
.LCOLDE27:
	.section	.text.pbuf_take
.LHOTE27:
	.section	.text.unlikely.pbuf_take_at,"ax",@progbits
.LCOLDB28:
	.section	.text.pbuf_take_at,"ax",@progbits
.LHOTB28:
	.globl	pbuf_take_at
	.type	pbuf_take_at, @function
pbuf_take_at:
.LFB36:
	.loc 1 1285 0
	.cfi_startproc
.LVL170:
	pushl	%ebp
	.cfi_def_cfa_offset 8
	.cfi_offset 5, -8
	movl	%esp, %ebp
	.cfi_def_cfa_register 5
	pushl	%edi
	pushl	%esi
	pushl	%ebx
.LBB34:
.LBB35:
	.loc 1 1225 0
	leal	-30(%ebp), %ecx
.LBE35:
.LBE34:
	.loc 1 1285 0
	subl	$44, %esp
	.cfi_offset 7, -12
	.cfi_offset 6, -16
	.cfi_offset 3, -20
	.loc 1 1285 0
	movl	16(%ebp), %eax
.LBB38:
.LBB36:
	.loc 1 1225 0
	movzwl	20(%ebp), %edx
.LBE36:
.LBE38:
	.loc 1 1285 0
	movl	12(%ebp), %esi
	movl	%eax, -44(%ebp)
	movl	%gs:20, %eax
	movl	%eax, -28(%ebp)
	xorl	%eax, %eax
.LVL171:
.LBB39:
.LBB37:
	.loc 1 1225 0
	movl	8(%ebp), %eax
	call	pbuf_skip_const
.LVL172:
.LBE37:
.LBE39:
	.loc 1 1290 0
	testl	%eax, %eax
	.loc 1 1303 0
	movb	$-1, %cl
	.loc 1 1290 0
	je	.L194
	.loc 1 1290 0 discriminator 1
	movzwl	-30(%ebp), %ebx
	movzwl	-44(%ebp), %edi
	movzwl	8(%eax), %edx
	leal	(%ebx,%edi), %ecx
	movl	%ecx, -48(%ebp)
	cmpl	-48(%ebp), %edx
	.loc 1 1303 0 discriminator 1
	movb	$-1, %cl
	.loc 1 1290 0 discriminator 1
	jl	.L194
.LVL173:
.LBB40:
	.loc 1 1294 0
	movzwl	10(%eax), %edx
	subl	%ebx, %edx
	cmpl	%edi, %edx
	cmovg	%edi, %edx
.LVL174:
	.loc 1 1295 0
	addl	4(%eax), %ebx
	movzwl	%dx, %ecx
.LVL175:
	movl	%ebx, %edi
	.loc 1 1298 0
	movl	-44(%ebp), %ebx
	.loc 1 1295 0
	rep movsb
.LVL176:
	.loc 1 1298 0
	subw	%dx, %bx
.LVL177:
	movzwl	%bx, %edx
.LVL178:
	je	.L194
	.loc 1 1299 0
	pushl	%ecx
.LVL179:
	pushl	%edx
	pushl	%esi
	pushl	(%eax)
	call	pbuf_take
.LVL180:
	addl	$16, %esp
	movb	%al, %cl
.LVL181:
.L194:
.LBE40:
	.loc 1 1304 0
	movl	-28(%ebp), %esi
	xorl	%gs:20, %esi
	movb	%cl, %al
	je	.L195
	call	__stack_chk_fail
.LVL182:
.L195:
	leal	-12(%ebp), %esp
	popl	%ebx
	.cfi_restore 3
	popl	%esi
	.cfi_restore 6
	popl	%edi
	.cfi_restore 7
	popl	%ebp
	.cfi_restore 5
	.cfi_def_cfa 4, 4
	ret
	.cfi_endproc
.LFE36:
	.size	pbuf_take_at, .-pbuf_take_at
	.section	.text.unlikely.pbuf_take_at
.LCOLDE28:
	.section	.text.pbuf_take_at
.LHOTE28:
	.section	.text.unlikely.pbuf_coalesce,"ax",@progbits
.LCOLDB29:
	.section	.text.pbuf_coalesce,"ax",@progbits
.LHOTB29:
	.globl	pbuf_coalesce
	.type	pbuf_coalesce, @function
pbuf_coalesce:
.LFB37:
	.loc 1 1321 0
	.cfi_startproc
.LVL183:
	pushl	%ebp
	.cfi_def_cfa_offset 8
	.cfi_offset 5, -8
	movl	%esp, %ebp
	.cfi_def_cfa_register 5
	pushl	%esi
	pushl	%ebx
	.cfi_offset 6, -12
	.cfi_offset 3, -16
	.loc 1 1321 0
	movl	8(%ebp), %esi
	.loc 1 1324 0
	cmpl	$0, (%esi)
	jne	.L202
.L204:
	.loc 1 1321 0
	movl	%esi, %eax
	jmp	.L203
.LVL184:
.L202:
	.loc 1 1327 0
	pushl	%edx
	movzwl	8(%esi), %eax
	pushl	$0
	pushl	%eax
	pushl	12(%ebp)
	call	pbuf_alloc
.LVL185:
	.loc 1 1328 0
	addl	$16, %esp
	testl	%eax, %eax
	.loc 1 1327 0
	movl	%eax, %ebx
.LVL186:
	.loc 1 1328 0
	je	.L204
.LVL187:
	.loc 1 1332 0
	pushl	%eax
	pushl	%eax
	pushl	%esi
	pushl	%ebx
	call	pbuf_copy
.LVL188:
	.loc 1 1334 0
	movl	%esi, (%esp)
	call	pbuf_free
.LVL189:
	.loc 1 1335 0
	addl	$16, %esp
	movl	%ebx, %eax
.LVL190:
.L203:
	.loc 1 1336 0
	leal	-8(%ebp), %esp
	popl	%ebx
	.cfi_restore 3
	popl	%esi
	.cfi_restore 6
	popl	%ebp
	.cfi_restore 5
	.cfi_def_cfa 4, 4
	ret
	.cfi_endproc
.LFE37:
	.size	pbuf_coalesce, .-pbuf_coalesce
	.section	.text.unlikely.pbuf_coalesce
.LCOLDE29:
	.section	.text.pbuf_coalesce
.LHOTE29:
	.section	.text.unlikely.pbuf_try_get_at,"ax",@progbits
.LCOLDB30:
	.section	.text.pbuf_try_get_at,"ax",@progbits
.LHOTB30:
	.globl	pbuf_try_get_at
	.type	pbuf_try_get_at, @function
pbuf_try_get_at:
.LFB39:
	.loc 1 1408 0
	.cfi_startproc
.LVL191:
	pushl	%ebp
	.cfi_def_cfa_offset 8
	.cfi_offset 5, -8
	movl	%esp, %ebp
	.cfi_def_cfa_register 5
	subl	$24, %esp
	.loc 1 1410 0
	movzwl	12(%ebp), %edx
	leal	-14(%ebp), %ecx
	.loc 1 1408 0
	movl	%gs:20, %eax
	movl	%eax, -12(%ebp)
	xorl	%eax, %eax
	.loc 1 1410 0
	movl	8(%ebp), %eax
	call	pbuf_skip_const
.LVL192:
	.loc 1 1416 0
	orl	$-1, %ecx
	.loc 1 1413 0
	testl	%eax, %eax
	je	.L210
	.loc 1 1413 0 discriminator 1
	movzwl	-14(%ebp), %edx
	cmpw	%dx, 10(%eax)
	jbe	.L210
	.loc 1 1414 0
	movl	4(%eax), %eax
.LVL193:
	movzbl	(%eax,%edx), %ecx
.L210:
	.loc 1 1417 0
	movl	%ecx, %eax
	movl	-12(%ebp), %ecx
	xorl	%gs:20, %ecx
	je	.L211
	call	__stack_chk_fail
.LVL194:
.L211:
	leave
	.cfi_restore 5
	.cfi_def_cfa 4, 4
	ret
	.cfi_endproc
.LFE39:
	.size	pbuf_try_get_at, .-pbuf_try_get_at
	.section	.text.unlikely.pbuf_try_get_at
.LCOLDE30:
	.section	.text.pbuf_try_get_at
.LHOTE30:
	.section	.text.unlikely.pbuf_get_at,"ax",@progbits
.LCOLDB31:
	.section	.text.pbuf_get_at,"ax",@progbits
.LHOTB31:
	.globl	pbuf_get_at
	.type	pbuf_get_at, @function
pbuf_get_at:
.LFB38:
	.loc 1 1390 0
	.cfi_startproc
.LVL195:
	pushl	%ebp
	.cfi_def_cfa_offset 8
	.cfi_offset 5, -8
	movl	%esp, %ebp
	.cfi_def_cfa_register 5
	subl	$16, %esp
	.loc 1 1391 0
	movzwl	12(%ebp), %eax
	pushl	%eax
	pushl	8(%ebp)
	call	pbuf_try_get_at
.LVL196:
	.loc 1 1392 0
	addl	$16, %esp
	.loc 1 1393 0
	movb	$0, %dl
	testl	%eax, %eax
	cmovs	%edx, %eax
.LVL197:
	.loc 1 1396 0
	leave
	.cfi_restore 5
	.cfi_def_cfa 4, 4
	ret
	.cfi_endproc
.LFE38:
	.size	pbuf_get_at, .-pbuf_get_at
	.section	.text.unlikely.pbuf_get_at
.LCOLDE31:
	.section	.text.pbuf_get_at
.LHOTE31:
	.section	.text.unlikely.pbuf_put_at,"ax",@progbits
.LCOLDB32:
	.section	.text.pbuf_put_at,"ax",@progbits
.LHOTB32:
	.globl	pbuf_put_at
	.type	pbuf_put_at, @function
pbuf_put_at:
.LFB40:
	.loc 1 1430 0
	.cfi_startproc
.LVL198:
	pushl	%ebp
	.cfi_def_cfa_offset 8
	.cfi_offset 5, -8
	movl	%esp, %ebp
	.cfi_def_cfa_register 5
	pushl	%ebx
.LBB41:
.LBB42:
	.loc 1 1225 0
	leal	-14(%ebp), %ecx
.LBE42:
.LBE41:
	.loc 1 1430 0
	subl	$20, %esp
	.cfi_offset 3, -12
.LBB45:
.LBB43:
	.loc 1 1225 0
	movzwl	12(%ebp), %edx
.LBE43:
.LBE45:
	.loc 1 1430 0
	movl	16(%ebp), %ebx
	movl	%gs:20, %eax
	movl	%eax, -12(%ebp)
	xorl	%eax, %eax
.LVL199:
.LBB46:
.LBB44:
	.loc 1 1225 0
	movl	8(%ebp), %eax
	call	pbuf_skip_const
.LVL200:
.LBE44:
.LBE46:
	.loc 1 1435 0
	testl	%eax, %eax
	je	.L219
	.loc 1 1435 0 discriminator 1
	movzwl	-14(%ebp), %edx
	cmpw	%dx, 10(%eax)
	jbe	.L219
	.loc 1 1436 0
	movl	4(%eax), %eax
	movb	%bl, (%eax,%edx)
.L219:
	.loc 1 1438 0
	movl	-12(%ebp), %eax
	xorl	%gs:20, %eax
	je	.L221
	call	__stack_chk_fail
.LVL201:
.L221:
	addl	$20, %esp
	popl	%ebx
	.cfi_restore 3
	popl	%ebp
	.cfi_restore 5
	.cfi_def_cfa 4, 4
	ret
	.cfi_endproc
.LFE40:
	.size	pbuf_put_at, .-pbuf_put_at
	.section	.text.unlikely.pbuf_put_at
.LCOLDE32:
	.section	.text.pbuf_put_at
.LHOTE32:
	.section	.text.unlikely.pbuf_memcmp,"ax",@progbits
.LCOLDB33:
	.section	.text.pbuf_memcmp,"ax",@progbits
.LHOTB33:
	.globl	pbuf_memcmp
	.type	pbuf_memcmp, @function
pbuf_memcmp:
.LFB41:
	.loc 1 1453 0
	.cfi_startproc
.LVL202:
	pushl	%ebp
	.cfi_def_cfa_offset 8
	.cfi_offset 5, -8
	movl	%esp, %ebp
	.cfi_def_cfa_register 5
	pushl	%edi
	pushl	%esi
	pushl	%ebx
	subl	$28, %esp
	.cfi_offset 7, -12
	.cfi_offset 6, -16
	.cfi_offset 3, -20
	.loc 1 1453 0
	movl	8(%ebp), %edi
	movl	12(%ebp), %ebx
.LVL203:
	movl	20(%ebp), %eax
	.loc 1 1459 0
	movzwl	8(%edi), %esi
	.loc 1 1453 0
	movl	%ebx, %ecx
	.loc 1 1459 0
	movzwl	%bx, %ebx
.LVL204:
	.loc 1 1453 0
	movw	%ax, -26(%ebp)
	.loc 1 1459 0
	movzwl	%ax, %eax
	addl	%eax, %ebx
	.loc 1 1460 0
	orl	$-1, %eax
	.loc 1 1459 0
	cmpl	%ebx, %esi
	jl	.L227
.LVL205:
.L229:
.LBB50:
.LBB51:
	.loc 1 1464 0
	movw	10(%edi), %ax
	cmpw	%cx, %ax
	ja	.L232
	.loc 1 1466 0
	movl	(%edi), %edi
.LVL206:
	.loc 1 1465 0
	subl	%eax, %ecx
.LVL207:
	.loc 1 1464 0
	testl	%edi, %edi
	jne	.L229
.L232:
.LBE51:
.LBE50:
	.loc 1 1453 0
	xorl	%ebx, %ebx
.LVL208:
.L230:
.LBB54:
.LBB53:
	.loc 1 1470 0
	cmpw	%bx, -26(%ebp)
	movl	%ebx, %esi
.LVL209:
	jbe	.L238
.LBB52:
	.loc 1 1472 0
	pushl	%eax
	pushl	%eax
	leal	(%ecx,%ebx), %eax
	movl	%ecx, -32(%ebp)
	incl	%ebx
.LVL210:
	movzwl	%ax, %eax
	pushl	%eax
	pushl	%edi
	call	pbuf_get_at
.LVL211:
	.loc 1 1474 0
	movl	16(%ebp), %edx
	addl	$16, %esp
	movl	-32(%ebp), %ecx
	cmpb	-1(%edx,%ebx), %al
	je	.L230
	.loc 1 1475 0
	leal	1(%esi), %eax
.LVL212:
	jmp	.L227
.LVL213:
.L238:
.LBE52:
	.loc 1 1478 0
	xorl	%eax, %eax
.LVL214:
.L227:
.LBE53:
.LBE54:
	.loc 1 1479 0
	leal	-12(%ebp), %esp
	popl	%ebx
	.cfi_restore 3
	popl	%esi
	.cfi_restore 6
	popl	%edi
	.cfi_restore 7
	popl	%ebp
	.cfi_restore 5
	.cfi_def_cfa 4, 4
	ret
	.cfi_endproc
.LFE41:
	.size	pbuf_memcmp, .-pbuf_memcmp
	.section	.text.unlikely.pbuf_memcmp
.LCOLDE33:
	.section	.text.pbuf_memcmp
.LHOTE33:
	.section	.text.unlikely.pbuf_memfind,"ax",@progbits
.LCOLDB34:
	.section	.text.pbuf_memfind,"ax",@progbits
.LHOTB34:
	.globl	pbuf_memfind
	.type	pbuf_memfind, @function
pbuf_memfind:
.LFB42:
	.loc 1 1495 0
	.cfi_startproc
.LVL215:
	pushl	%ebp
	.cfi_def_cfa_offset 8
	.cfi_offset 5, -8
	movl	%esp, %ebp
	.cfi_def_cfa_register 5
	pushl	%edi
	pushl	%esi
	pushl	%ebx
	subl	$12, %esp
	.cfi_offset 7, -12
	.cfi_offset 6, -16
	.cfi_offset 3, -20
	.loc 1 1497 0
	movl	8(%ebp), %edi
	.loc 1 1495 0
	movl	16(%ebp), %esi
	movl	20(%ebp), %eax
	.loc 1 1497 0
	movzwl	8(%edi), %edi
.LVL216:
	.loc 1 1495 0
	movl	%esi, %ecx
	.loc 1 1498 0
	movzwl	%si, %esi
.LVL217:
	.loc 1 1495 0
	movl	%eax, %ebx
	.loc 1 1498 0
	movzwl	%ax, %eax
	addl	%esi, %eax
	cmpl	%eax, %edi
	jl	.L240
	movl	%edi, %edx
	.loc 1 1499 0 discriminator 1
	subl	%ecx, %edx
	movl	%edx, %edi
.LVL218:
	jmp	.L241
.LVL219:
.L243:
.LBB55:
	.loc 1 1500 0
	movzwl	%bx, %eax
	pushl	%esi
	pushl	12(%ebp)
	pushl	%eax
	pushl	8(%ebp)
	call	pbuf_memcmp
.LVL220:
	.loc 1 1501 0
	addl	$16, %esp
	testw	%ax, %ax
	je	.L244
.LBE55:
	.loc 1 1499 0 discriminator 2
	incl	%ebx
.LVL221:
.L241:
	.loc 1 1499 0 is_stmt 0 discriminator 1
	cmpw	%di, %bx
	jbe	.L243
.LVL222:
.L240:
	.loc 1 1506 0 is_stmt 1
	orl	$-1, %eax
	jmp	.L242
.LVL223:
.L244:
.LBB56:
	movl	%ebx, %eax
.LVL224:
.L242:
.LBE56:
	.loc 1 1507 0
	leal	-12(%ebp), %esp
	popl	%ebx
	.cfi_restore 3
	popl	%esi
	.cfi_restore 6
	popl	%edi
	.cfi_restore 7
	popl	%ebp
	.cfi_restore 5
	.cfi_def_cfa 4, 4
	ret
	.cfi_endproc
.LFE42:
	.size	pbuf_memfind, .-pbuf_memfind
	.section	.text.unlikely.pbuf_memfind
.LCOLDE34:
	.section	.text.pbuf_memfind
.LHOTE34:
	.section	.text.unlikely.pbuf_strstr,"ax",@progbits
.LCOLDB35:
	.section	.text.pbuf_strstr,"ax",@progbits
.LHOTB35:
	.globl	pbuf_strstr
	.type	pbuf_strstr, @function
pbuf_strstr:
.LFB43:
	.loc 1 1522 0
	.cfi_startproc
.LVL225:
	pushl	%ebp
	.cfi_def_cfa_offset 8
	.cfi_offset 5, -8
	.loc 1 1525 0
	orl	$-1, %eax
	.loc 1 1522 0
	movl	%esp, %ebp
	.cfi_def_cfa_register 5
	pushl	%edi
	pushl	%ebx
	.cfi_offset 7, -12
	.cfi_offset 3, -16
	.loc 1 1522 0
	movl	12(%ebp), %edx
	movl	8(%ebp), %ebx
	.loc 1 1524 0
	testl	%edx, %edx
	je	.L247
	.loc 1 1524 0 discriminator 1
	cmpb	$0, (%edx)
	je	.L247
	.loc 1 1524 0 is_stmt 0 discriminator 2
	movl	8(%ebx), %eax
	cmpw	$-1, %ax
	je	.L247
	.loc 1 1527 0 is_stmt 1
	xorl	%eax, %eax
	orl	$-1, %ecx
	movl	%edx, %edi
	repnz scasb
.LVL226:
	.loc 1 1525 0
	orl	$-1, %eax
	.loc 1 1527 0
	notl	%ecx
	decl	%ecx
.LVL227:
	.loc 1 1528 0
	cmpl	$65534, %ecx
	ja	.L247
	.loc 1 1531 0
	pushl	$0
	pushl	%ecx
	pushl	%edx
	pushl	%ebx
	call	pbuf_memfind
.LVL228:
	addl	$16, %esp
.L247:
	.loc 1 1532 0
	leal	-8(%ebp), %esp
	popl	%ebx
	.cfi_restore 3
	popl	%edi
	.cfi_restore 7
	popl	%ebp
	.cfi_restore 5
	.cfi_def_cfa 4, 4
	ret
	.cfi_endproc
.LFE43:
	.size	pbuf_strstr, .-pbuf_strstr
	.section	.text.unlikely.pbuf_strstr
.LCOLDE35:
	.section	.text.pbuf_strstr
.LHOTE35:
	.globl	pbuf_free_ooseq_pending
	.section	.bss.pbuf_free_ooseq_pending,"aw",@nobits
	.type	pbuf_free_ooseq_pending, @object
	.size	pbuf_free_ooseq_pending, 1
pbuf_free_ooseq_pending:
	.zero	1
	.text
.Letext0:
	.section	.text.unlikely.pbuf_skip_const
.Letext_cold0:
	.file 2 "/home/stone/Documents/Ali_IOT/build/compiler/gcc-arm-none-eabi/Linux64/lib/gcc/arm-none-eabi/5.4.1/include/stddef.h"
	.file 3 "/home/stone/Documents/Ali_IOT/build/compiler/gcc-arm-none-eabi/Linux64/arm-none-eabi/include/machine/_default_types.h"
	.file 4 "/home/stone/Documents/Ali_IOT/build/compiler/gcc-arm-none-eabi/Linux64/arm-none-eabi/include/sys/_stdint.h"
	.file 5 "././platform/mcu/moc108/include/lwip-2.0.2/arch/cc.h"
	.file 6 "./kernel/protocols/net/include/lwip/arch.h"
	.file 7 "./kernel/protocols/net/include/lwip/err.h"
	.file 8 "./kernel/protocols/net/include/lwip/memp.h"
	.file 9 "./kernel/protocols/net/include/lwip/pbuf.h"
	.file 10 "./kernel/protocols/net/port/include/arch/sys_arch.h"
	.file 11 "./kernel/protocols/net/include/lwip/ip4_addr.h"
	.file 12 "./kernel/protocols/net/include/lwip/ip_addr.h"
	.file 13 "./kernel/protocols/net/include/lwip/tcp.h"
	.file 14 "./kernel/protocols/net/include/lwip/netif.h"
	.file 15 "./kernel/protocols/net/include/lwip/priv/tcp_priv.h"
	.file 16 "./kernel/protocols/net/include/lwip/prot/tcp.h"
	.file 17 "./include/aos/log.h"
	.file 18 "./kernel/protocols/net/include/lwip/sys.h"
	.file 19 "./kernel/protocols/net/include/lwip/tcpip.h"
	.file 20 "././platform/mcu/moc108/include/driver/uart_pub.h"
	.file 21 "./kernel/protocols/net/include/lwip/mem.h"
	.section	.note.GNU-stack,"",@progbits
