	.file	"pem.c"
	.text
.Ltext0:
	.section	.text.unlikely.pem_aes_decrypt,"ax",@progbits
.LCOLDB0:
	.section	.text.pem_aes_decrypt,"ax",@progbits
.LHOTB0:
	.section	.text.unlikely.pem_aes_decrypt
.Ltext_cold0:
	.section	.text.pem_aes_decrypt
	.type	pem_aes_decrypt, @function
pem_aes_decrypt:
.LFB11:
	.file 1 "security/mbedtls/src/pem.c"
	.loc 1 237 0
	.cfi_startproc
.LVL0:
	pushl	%ebp
	.cfi_def_cfa_offset 8
	.cfi_offset 5, -8
	movl	%esp, %ebp
	.cfi_def_cfa_register 5
	pushl	%edi
	pushl	%esi
	pushl	%ebx
	.cfi_offset 7, -12
	.cfi_offset 6, -16
	.cfi_offset 3, -20
.LBB10:
.LBB11:
	.loc 1 143 0
	leal	-132(%ebp), %ebx
.LBE11:
.LBE10:
	.loc 1 237 0
	subl	$152, %esp
	.loc 1 237 0
	movl	%eax, -144(%ebp)
	movl	12(%ebp), %edi
	movl	%gs:20, %eax
	movl	%eax, -28(%ebp)
	xorl	%eax, %eax
.LVL1:
	.loc 1 253 0
	leal	-124(%ebp), %eax
	.loc 1 237 0
	movl	16(%ebp), %esi
	movl	%edx, -140(%ebp)
	movl	%ecx, -148(%ebp)
	.loc 1 253 0
	pushl	%eax
	call	mbedtls_aes_init_alt
.LVL2:
.LBB23:
.LBB22:
	.loc 1 143 0
	movl	%ebx, (%esp)
	call	mbedtls_md5_init_alt
.LVL3:
	.loc 1 148 0
	movl	%ebx, (%esp)
	call	mbedtls_md5_starts_alt
.LVL4:
	.loc 1 149 0
	addl	$12, %esp
	pushl	%esi
	pushl	%edi
	pushl	%ebx
	call	mbedtls_md5_update_alt
.LVL5:
	.loc 1 150 0
	addl	$12, %esp
	pushl	$8
	pushl	-144(%ebp)
	pushl	%ebx
	call	mbedtls_md5_update_alt
.LVL6:
	.loc 1 151 0
	popl	%eax
	leal	-76(%ebp), %eax
	popl	%edx
	pushl	%eax
	pushl	%ebx
	call	mbedtls_md5_finish_alt
.LVL7:
	.loc 1 153 0
	addl	$16, %esp
	cmpl	$16, -140(%ebp)
	ja	.L2
	.loc 1 154 0
	movl	-140(%ebp), %ecx
	leal	-60(%ebp), %edi
.LVL8:
	leal	-76(%ebp), %esi
.LVL9:
	rep movsb
.LVL10:
	.loc 1 156 0
	subl	$12, %esp
	pushl	%ebx
.LBB12:
.LBB13:
	.loc 1 52 0
	leal	-60(%ebp), %ebx
.LVL11:
.LBE13:
.LBE12:
	.loc 1 156 0
	call	mbedtls_md5_free_alt
.LVL12:
.LBB16:
.LBB14:
	.loc 1 51 0
	leal	-76(%ebp), %eax
.LVL13:
.LBE14:
.LBE16:
	.loc 1 156 0
	addl	$16, %esp
.LVL14:
.L3:
.LBB17:
.LBB15:
	.loc 1 53 0
	movb	$0, (%eax)
.LVL15:
	incl	%eax
.LVL16:
	.loc 1 52 0
	cmpl	%ebx, %eax
	jne	.L3
	jmp	.L4
.LVL17:
.L2:
.LBE15:
.LBE17:
	.loc 1 161 0
	movl	-76(%ebp), %eax
	.loc 1 166 0
	subl	$12, %esp
	pushl	%ebx
	.loc 1 161 0
	movl	%eax, -60(%ebp)
	movl	-72(%ebp), %eax
	movl	%eax, -56(%ebp)
	movl	-68(%ebp), %eax
	movl	%eax, -52(%ebp)
	movl	-64(%ebp), %eax
	movl	%eax, -48(%ebp)
	.loc 1 166 0
	call	mbedtls_md5_starts_alt
.LVL18:
	.loc 1 167 0
	leal	-76(%ebp), %eax
	addl	$12, %esp
	pushl	$16
	pushl	%eax
	pushl	%ebx
	call	mbedtls_md5_update_alt
.LVL19:
	.loc 1 168 0
	addl	$12, %esp
	pushl	%esi
	pushl	%edi
	pushl	%ebx
	call	mbedtls_md5_update_alt
.LVL20:
	.loc 1 169 0
	addl	$12, %esp
	pushl	$8
	pushl	-144(%ebp)
	pushl	%ebx
	call	mbedtls_md5_update_alt
.LVL21:
	.loc 1 170 0
	popl	%esi
.LVL22:
	leal	-76(%ebp), %eax
	.loc 1 177 0
	leal	-76(%ebp), %esi
	.loc 1 170 0
	popl	%edi
.LVL23:
	pushl	%eax
	pushl	%ebx
	call	mbedtls_md5_finish_alt
.LVL24:
	.loc 1 174 0
	movl	-140(%ebp), %eax
	movl	$16, %ecx
	subl	$16, %eax
	cmpl	$31, -140(%ebp)
	cmovbe	%eax, %ecx
.LVL25:
	.loc 1 177 0
	leal	-44(%ebp), %eax
	movl	%eax, %edi
	rep movsb
.LVL26:
	.loc 1 179 0
	movl	%ebx, (%esp)
	call	mbedtls_md5_free_alt
.LVL27:
.LBB18:
.LBB19:
	.loc 1 51 0
	leal	-76(%ebp), %eax
.LVL28:
	.loc 1 52 0
	leal	-60(%ebp), %edx
.LVL29:
.LBE19:
.LBE18:
	.loc 1 179 0
	addl	$16, %esp
.LVL30:
.L6:
.LBB21:
.LBB20:
	.loc 1 53 0
	movb	$0, (%eax)
.LVL31:
	incl	%eax
.LVL32:
	.loc 1 52 0
	cmpl	%edx, %eax
	jne	.L6
.LVL33:
.L4:
.LBE20:
.LBE21:
.LBE22:
.LBE23:
	.loc 1 257 0
	pushl	%eax
	movl	-140(%ebp), %eax
	leal	-60(%ebp), %ebx
	leal	-124(%ebp), %esi
	sall	$3, %eax
	pushl	%eax
	pushl	%ebx
	pushl	%esi
	call	mbedtls_aes_setkey_dec_alt
.LVL34:
	.loc 1 258 0
	popl	%edx
	popl	%ecx
	pushl	-148(%ebp)
	pushl	-148(%ebp)
	pushl	-144(%ebp)
	pushl	8(%ebp)
	pushl	$0
	pushl	%esi
	call	mbedtls_aes_crypt_cbc_alt
.LVL35:
	.loc 1 261 0
	addl	$20, %esp
	pushl	%esi
	call	mbedtls_aes_free_alt
.LVL36:
	movl	-140(%ebp), %eax
	addl	$16, %esp
.LBB24:
.LBB25:
	.loc 1 51 0
	movl	%ebx, %edx
	addl	%ebx, %eax
.LVL37:
.L7:
	.loc 1 52 0
	cmpl	%eax, %edx
	je	.L15
.LVL38:
	.loc 1 53 0
	movb	$0, (%edx)
	incl	%edx
.LVL39:
	jmp	.L7
.LVL40:
.L15:
.LBE25:
.LBE24:
	.loc 1 264 0
	movl	-28(%ebp), %eax
	xorl	%gs:20, %eax
	je	.L9
	call	__stack_chk_fail
.LVL41:
.L9:
	leal	-12(%ebp), %esp
	popl	%ebx
	.cfi_restore 3
	popl	%esi
	.cfi_restore 6
	popl	%edi
	.cfi_restore 7
	popl	%ebp
	.cfi_restore 5
	.cfi_def_cfa 4, 4
	ret
	.cfi_endproc
.LFE11:
	.size	pem_aes_decrypt, .-pem_aes_decrypt
	.section	.text.unlikely.pem_aes_decrypt
.LCOLDE0:
	.section	.text.pem_aes_decrypt
.LHOTE0:
	.section	.text.unlikely.mbedtls_pem_init,"ax",@progbits
.LCOLDB1:
	.section	.text.mbedtls_pem_init,"ax",@progbits
.LHOTB1:
	.globl	mbedtls_pem_init
	.type	mbedtls_pem_init, @function
mbedtls_pem_init:
.LFB8:
	.loc 1 58 0
	.cfi_startproc
.LVL42:
	pushl	%ebp
	.cfi_def_cfa_offset 8
	.cfi_offset 5, -8
	.loc 1 59 0
	movl	$3, %ecx
	xorl	%eax, %eax
	.loc 1 58 0
	movl	%esp, %ebp
	.cfi_def_cfa_register 5
	pushl	%edi
	.cfi_offset 7, -12
	.loc 1 59 0
	movl	8(%ebp), %edi
	rep stosl
	.loc 1 60 0
	popl	%edi
	.cfi_restore 7
	popl	%ebp
	.cfi_restore 5
	.cfi_def_cfa 4, 4
	ret
	.cfi_endproc
.LFE8:
	.size	mbedtls_pem_init, .-mbedtls_pem_init
	.section	.text.unlikely.mbedtls_pem_init
.LCOLDE1:
	.section	.text.mbedtls_pem_init
.LHOTE1:
	.section	.rodata.str1.1,"aMS",@progbits,1
.LC2:
	.string	"Proc-Type: 4,ENCRYPTED"
.LC3:
	.string	"DEK-Info: AES-"
.LC4:
	.string	"DEK-Info: AES-128-CBC,"
.LC5:
	.string	"DEK-Info: AES-192-CBC,"
.LC6:
	.string	"DEK-Info: AES-256-CBC,"
	.section	.text.unlikely.mbedtls_pem_read_buffer,"ax",@progbits
.LCOLDB7:
	.section	.text.mbedtls_pem_read_buffer,"ax",@progbits
.LHOTB7:
	.globl	mbedtls_pem_read_buffer
	.type	mbedtls_pem_read_buffer, @function
mbedtls_pem_read_buffer:
.LFB12:
	.loc 1 273 0
	.cfi_startproc
.LVL43:
	pushl	%ebp
	.cfi_def_cfa_offset 8
	.cfi_offset 5, -8
	movl	%esp, %ebp
	.cfi_def_cfa_register 5
	pushl	%edi
	pushl	%esi
	pushl	%ebx
	.cfi_offset 7, -12
	.cfi_offset 6, -16
	.cfi_offset 3, -20
	.loc 1 289 0
	movl	$-5248, %ebx
	.loc 1 273 0
	subl	$76, %esp
	.loc 1 273 0
	movl	8(%ebp), %eax
	movl	12(%ebp), %edi
	movl	%eax, -76(%ebp)
	movl	16(%ebp), %eax
	movl	%eax, -80(%ebp)
	movl	20(%ebp), %eax
	movl	%eax, -68(%ebp)
	movl	24(%ebp), %eax
	movl	%eax, -72(%ebp)
	movl	32(%ebp), %eax
	movl	%eax, -84(%ebp)
	movl	%gs:20, %eax
	movl	%eax, -28(%ebp)
	xorl	%eax, %eax
.LVL44:
	.loc 1 288 0
	cmpl	$0, -76(%ebp)
	je	.L19
	.loc 1 292 0
	pushl	%eax
	pushl	%eax
	.loc 1 295 0
	movl	$-4224, %ebx
	.loc 1 292 0
	pushl	%edi
	pushl	-68(%ebp)
	call	strstr
.LVL45:
	addl	$16, %esp
	.loc 1 294 0
	testl	%eax, %eax
	.loc 1 292 0
	movl	%eax, %esi
.LVL46:
	.loc 1 294 0
	je	.L19
.LVL47:
	.loc 1 298 0
	pushl	%eax
	pushl	%eax
	pushl	-80(%ebp)
	pushl	-68(%ebp)
	call	strstr
.LVL48:
	addl	$16, %esp
	.loc 1 300 0
	testl	%eax, %eax
	.loc 1 298 0
	movl	%eax, -60(%ebp)
.LVL49:
	.loc 1 300 0
	je	.L51
	cmpl	%eax, %esi
	setnb	%al
.LVL50:
	jnb	.L51
	.loc 1 304 0
	orl	$-1, %edx
	movl	%edx, %ecx
	repnz scasb
.LVL51:
	movl	%ecx, %edi
	.loc 1 306 0
	xorl	%ecx, %ecx
	.loc 1 304 0
	notl	%edi
	leal	-1(%esi,%edi), %esi
.LVL52:
	.loc 1 306 0
	cmpb	$32, (%esi)
	sete	%cl
	addl	%ecx, %esi
.LVL53:
	.loc 1 309 0
	xorl	%ecx, %ecx
	cmpb	$13, (%esi)
	sete	%cl
	addl	%ecx, %esi
.LVL54:
	.loc 1 311 0
	cmpb	$10, (%esi)
	jne	.L19
	.loc 1 312 0
	leal	1(%esi), %edi
	.loc 1 318 0
	movl	%edx, %ecx
	movl	-60(%ebp), %edx
	.loc 1 312 0
	movl	%edi, -64(%ebp)
.LVL55:
	.loc 1 318 0
	movl	-80(%ebp), %edi
.LVL56:
	repnz scasb
.LVL57:
	movl	%ecx, %eax
	notl	%eax
	leal	-1(%edx,%eax), %eax
.LVL58:
	.loc 1 320 0
	xorl	%edx, %edx
	cmpb	$32, (%eax)
	sete	%dl
	addl	%edx, %eax
.LVL59:
	.loc 1 323 0
	xorl	%edx, %edx
	cmpb	$13, (%eax)
	sete	%dl
	addl	%edx, %eax
.LVL60:
	.loc 1 326 0
	xorl	%edx, %edx
	cmpb	$10, (%eax)
	sete	%dl
	addl	%edx, %eax
.LVL61:
	.loc 1 328 0
	subl	-68(%ebp), %eax
.LVL62:
	movl	-84(%ebp), %edx
	movl	%eax, (%edx)
.LVL63:
	.loc 1 332 0
	movl	-60(%ebp), %eax
	subl	-64(%ebp), %eax
	cmpl	$21, %eax
	jle	.L54
	.loc 1 332 0 is_stmt 0 discriminator 1
	pushl	%eax
	pushl	$22
	pushl	$.LC2
	pushl	-64(%ebp)
	call	memcmp
.LVL64:
	addl	$16, %esp
	testl	%eax, %eax
	jne	.L54
.LVL65:
	.loc 1 338 0 is_stmt 1
	movb	23(%esi), %al
	cmpb	$13, %al
	je	.L26
	.loc 1 337 0
	leal	23(%esi), %edx
.LVL66:
	movl	%edx, -64(%ebp)
	jmp	.L27
.LVL67:
.L26:
	.loc 1 339 0
	leal	24(%esi), %eax
	movl	%eax, -64(%ebp)
.LVL68:
	movb	24(%esi), %al
.LVL69:
.L27:
	.loc 1 341 0
	cmpb	$10, %al
	je	.L28
.LVL70:
.L38:
	.loc 1 344 0
	movl	$-4352, %ebx
	jmp	.L19
.LVL71:
.L28:
	.loc 1 342 0
	movl	-64(%ebp), %eax
	.loc 1 371 0
	movl	-60(%ebp), %edi
	.loc 1 394 0
	movl	$-4736, %ebx
	.loc 1 342 0
	leal	1(%eax), %esi
.LVL72:
	.loc 1 371 0
	subl	%esi, %edi
	cmpl	$13, %edi
	jle	.L19
	.loc 1 371 0 is_stmt 0 discriminator 1
	pushl	%eax
	pushl	$14
	pushl	$.LC3
	pushl	%esi
	call	memcmp
.LVL73:
	addl	$16, %esp
	.loc 1 372 0 is_stmt 1 discriminator 1
	cmpl	$21, %edi
	jle	.L56
	testl	%eax, %eax
	jne	.L56
	.loc 1 374 0
	pushl	%eax
	pushl	$22
	pushl	$.LC4
	pushl	%esi
	call	memcmp
.LVL74:
	addl	$16, %esp
	testl	%eax, %eax
	je	.L57
	.loc 1 376 0
	pushl	%eax
	pushl	$22
	pushl	$.LC5
	pushl	%esi
	call	memcmp
.LVL75:
	addl	$16, %esp
	testl	%eax, %eax
	je	.L58
	.loc 1 378 0
	pushl	%edi
	pushl	$22
	pushl	$.LC6
	pushl	%esi
	call	memcmp
.LVL76:
	addl	$16, %esp
	testl	%eax, %eax
	jne	.L19
	.loc 1 379 0
	movl	$7, -68(%ebp)
	jmp	.L29
.L57:
	.loc 1 375 0
	movl	$5, -68(%ebp)
	jmp	.L29
.L58:
	.loc 1 377 0
	movl	$6, -68(%ebp)
.L29:
.LVL77:
	.loc 1 384 0
	movl	-64(%ebp), %eax
	leal	23(%eax), %edx
.LVL78:
	.loc 1 385 0
	movl	-60(%ebp), %eax
	subl	%edx, %eax
	cmpl	$31, %eax
	jg	.L30
.L34:
	.loc 1 386 0
	movl	$-4608, %ebx
	jmp	.L19
.L30:
.LVL79:
.LBB28:
.LBB29:
	.loc 1 72 0
	leal	-44(%ebp), %ebx
.LVL80:
	movl	$4, %ecx
	xorl	%eax, %eax
	movl	%ebx, %edi
	rep stosl
.LVL81:
	.loc 1 87 0
	movl	%ebx, %edi
.LVL82:
.L36:
	.loc 1 75 0
	movzbl	(%edx,%ecx), %eax
	leal	-48(%eax), %esi
	movl	%esi, %ebx
	cmpb	$9, %bl
	ja	.L31
	.loc 1 76 0
	subl	$48, %eax
.LVL83:
	jmp	.L32
.LVL84:
.L31:
	.loc 1 77 0
	leal	-65(%eax), %esi
	movl	%esi, %ebx
	cmpb	$5, %bl
	ja	.L33
	.loc 1 78 0
	subl	$55, %eax
.LVL85:
	jmp	.L32
.LVL86:
.L33:
	.loc 1 79 0
	leal	-97(%eax), %esi
	movl	%esi, %ebx
	cmpb	$5, %bl
	ja	.L34
	.loc 1 80 0
	subl	$87, %eax
.LVL87:
.L32:
	.loc 1 85 0
	movl	%eax, %esi
	sall	$4, %esi
	testb	$1, %cl
	cmove	%esi, %eax
.LVL88:
	.loc 1 87 0
	movl	%ecx, %esi
	.loc 1 74 0
	incl	%ecx
.LVL89:
	.loc 1 87 0
	shrl	%esi
	orb	%al, (%edi,%esi)
	.loc 1 74 0
	cmpl	$32, %ecx
	jne	.L36
	jmp	.L72
.LVL90:
.L54:
.LBE29:
.LBE28:
	.loc 1 281 0
	movl	$0, -68(%ebp)
	.loc 1 330 0
	xorl	%edi, %edi
.LVL91:
.L25:
	.loc 1 411 0
	movl	-60(%ebp), %edx
	cmpl	%edx, -64(%ebp)
	jnb	.L38
	.loc 1 415 0
	movl	%edx, %eax
	subl	-64(%ebp), %eax
	subl	$12, %esp
	.loc 1 418 0
	movl	$-4396, %ebx
	.loc 1 415 0
	pushl	%eax
	movl	%eax, -60(%ebp)
.LVL92:
	leal	-48(%ebp), %eax
	pushl	-64(%ebp)
	pushl	%eax
	pushl	$0
	pushl	$0
	call	mbedtls_base64_decode
.LVL93:
	.loc 1 417 0
	addl	$32, %esp
	cmpl	$-44, %eax
	je	.L19
	.loc 1 421 0
	pushl	%ebx
	pushl	%ebx
	.loc 1 422 0
	movl	$-4480, %ebx
	.loc 1 421 0
	pushl	-48(%ebp)
	pushl	$1
	call	mbedtls_calloc
.LVL94:
	addl	$16, %esp
	testl	%eax, %eax
	movl	%eax, %esi
.LVL95:
	je	.L19
	.loc 1 425 0
	leal	-48(%ebp), %eax
.LVL96:
	subl	$12, %esp
	pushl	-60(%ebp)
	pushl	-64(%ebp)
	pushl	%eax
	pushl	-48(%ebp)
	pushl	%esi
	call	mbedtls_base64_decode
.LVL97:
	addl	$32, %esp
	testl	%eax, %eax
	movl	%eax, %ebx
.LVL98:
	je	.L39
	.loc 1 426 0
	subl	$12, %esp
	.loc 1 427 0
	subl	$4352, %ebx
	.loc 1 426 0
	pushl	%esi
	call	mbedtls_free
.LVL99:
	.loc 1 427 0
	addl	$16, %esp
	jmp	.L19
.LVL100:
.L39:
	.loc 1 430 0
	testl	%edi, %edi
	je	.L40
	.loc 1 433 0
	cmpl	$0, -72(%ebp)
	jne	.L41
	.loc 1 434 0
	subl	$12, %esp
	.loc 1 435 0
	movl	$-4864, %ebx
	.loc 1 434 0
	pushl	%esi
	call	mbedtls_free
.LVL101:
	.loc 1 435 0
	addl	$16, %esp
	jmp	.L19
.LVL102:
.L41:
	.loc 1 447 0
	cmpl	$5, -68(%ebp)
	jne	.L42
	.loc 1 448 0
	movl	$16, %edx
	pushl	%ecx
	movl	%esi, %ecx
	pushl	28(%ebp)
	pushl	-72(%ebp)
	pushl	-48(%ebp)
	jmp	.L71
.L42:
	.loc 1 449 0
	cmpl	$6, -68(%ebp)
	jne	.L44
	.loc 1 450 0
	movl	%esi, %ecx
	pushl	%edx
	movl	$24, %edx
	pushl	28(%ebp)
	pushl	-72(%ebp)
	pushl	-48(%ebp)
	jmp	.L71
.L44:
	.loc 1 451 0
	cmpl	$7, -68(%ebp)
	jne	.L43
.LVL103:
	.loc 1 452 0
	pushl	%eax
	pushl	28(%ebp)
	movl	%esi, %ecx
	pushl	-72(%ebp)
	pushl	-48(%ebp)
	movl	$32, %edx
.LVL104:
.L71:
	leal	-44(%ebp), %eax
	call	pem_aes_decrypt
.LVL105:
	addl	$16, %esp
.L43:
	.loc 1 462 0
	cmpl	$2, -48(%ebp)
	jbe	.L45
	.loc 1 462 0 is_stmt 0 discriminator 1
	cmpb	$48, (%esi)
	jne	.L45
	.loc 1 462 0 discriminator 2
	cmpb	$-125, 1(%esi)
	jbe	.L40
.L45:
	.loc 1 463 0 is_stmt 1
	subl	$12, %esp
	.loc 1 464 0
	movl	$-4992, %ebx
.LVL106:
	.loc 1 463 0
	pushl	%esi
	call	mbedtls_free
.LVL107:
	.loc 1 464 0
	addl	$16, %esp
	jmp	.L19
.LVL108:
.L40:
	.loc 1 473 0
	movl	-76(%ebp), %eax
	.loc 1 474 0
	movl	-76(%ebp), %edi
.LVL109:
	.loc 1 476 0
	xorl	%ebx, %ebx
.LVL110:
	.loc 1 473 0
	movl	%esi, (%eax)
	.loc 1 474 0
	movl	-48(%ebp), %eax
	movl	%eax, 4(%edi)
	.loc 1 476 0
	jmp	.L19
.LVL111:
.L51:
	.loc 1 295 0
	movl	$-4224, %ebx
	jmp	.L19
.LVL112:
.L56:
	.loc 1 394 0
	movl	$-4736, %ebx
.LVL113:
.L19:
	.loc 1 477 0
	movl	-28(%ebp), %ecx
	xorl	%gs:20, %ecx
	movl	%ebx, %eax
	je	.L48
	call	__stack_chk_fail
.LVL114:
.L72:
	.loc 1 389 0
	movl	-64(%ebp), %eax
	movl	-64(%ebp), %ebx
	leal	55(%eax), %ecx
.LVL115:
	addl	$56, %eax
	cmpb	$13, 55(%ebx)
	cmovne	%ecx, %eax
.LVL116:
	.loc 1 400 0
	cmpb	$10, (%eax)
	jne	.L38
	.loc 1 401 0
	incl	%eax
.LVL117:
	.loc 1 335 0
	movl	$1, %edi
	.loc 1 401 0
	movl	%eax, -64(%ebp)
.LVL118:
	jmp	.L25
.LVL119:
.L48:
	.loc 1 477 0
	leal	-12(%ebp), %esp
	popl	%ebx
	.cfi_restore 3
	popl	%esi
	.cfi_restore 6
	popl	%edi
	.cfi_restore 7
	popl	%ebp
	.cfi_restore 5
	.cfi_def_cfa 4, 4
	ret
	.cfi_endproc
.LFE12:
	.size	mbedtls_pem_read_buffer, .-mbedtls_pem_read_buffer
	.section	.text.unlikely.mbedtls_pem_read_buffer
.LCOLDE7:
	.section	.text.mbedtls_pem_read_buffer
.LHOTE7:
	.section	.text.unlikely.mbedtls_pem_free,"ax",@progbits
.LCOLDB8:
	.section	.text.mbedtls_pem_free,"ax",@progbits
.LHOTB8:
	.globl	mbedtls_pem_free
	.type	mbedtls_pem_free, @function
mbedtls_pem_free:
.LFB13:
	.loc 1 480 0
	.cfi_startproc
.LVL120:
	pushl	%ebp
	.cfi_def_cfa_offset 8
	.cfi_offset 5, -8
	movl	%esp, %ebp
	.cfi_def_cfa_register 5
	pushl	%ebx
	subl	$16, %esp
	.cfi_offset 3, -12
	.loc 1 480 0
	movl	8(%ebp), %ebx
	.loc 1 481 0
	pushl	(%ebx)
	call	mbedtls_free
.LVL121:
	.loc 1 482 0
	popl	%eax
	pushl	8(%ebx)
	call	mbedtls_free
.LVL122:
	leal	12(%ebx), %eax
	addl	$16, %esp
.LVL123:
.L74:
.LBB32:
.LBB33:
	.loc 1 52 0
	cmpl	%eax, %ebx
	je	.L77
.LVL124:
	.loc 1 53 0
	movb	$0, (%ebx)
	incl	%ebx
.LVL125:
	jmp	.L74
.L77:
.LBE33:
.LBE32:
	.loc 1 485 0
	movl	-4(%ebp), %ebx
.LVL126:
	leave
	.cfi_restore 5
	.cfi_restore 3
	.cfi_def_cfa 4, 4
	ret
	.cfi_endproc
.LFE13:
	.size	mbedtls_pem_free, .-mbedtls_pem_free
	.section	.text.unlikely.mbedtls_pem_free
.LCOLDE8:
	.section	.text.mbedtls_pem_free
.LHOTE8:
	.text
.Letext0:
	.section	.text.unlikely.pem_aes_decrypt
.Letext_cold0:
	.file 2 "/home/stone/Documents/Ali_IOT/build/compiler/gcc-arm-none-eabi/Linux64/arm-none-eabi/include/machine/_default_types.h"
	.file 3 "/home/stone/Documents/Ali_IOT/build/compiler/gcc-arm-none-eabi/Linux64/lib/gcc/arm-none-eabi/5.4.1/include/stddef.h"
	.file 4 "./security/mbedtls/include/mbedtls/pem.h"
	.file 5 "/home/stone/Documents/Ali_IOT/build/compiler/gcc-arm-none-eabi/Linux64/arm-none-eabi/include/sys/_stdint.h"
	.file 6 "./security/mbedtls/include/mbedtls/aes_alt.h"
	.file 7 "./security/mbedtls/include/mbedtls/md5_alt.h"
	.file 8 "./security/mbedtls/include/mbedtls/cipher.h"
	.file 9 "/home/stone/Documents/Ali_IOT/build/compiler/gcc-arm-none-eabi/Linux64/arm-none-eabi/include/string.h"
	.file 10 "./security/mbedtls/include/mbedtls/base64.h"
	.file 11 "./security/mbedtls/include/mbedtls/platform_alt.h"
	.section	.note.GNU-stack,"",@progbits
