	.file	"pk.c"
	.text
.Ltext0:
	.section	.text.unlikely.mbedtls_pk_init,"ax",@progbits
.LCOLDB0:
	.section	.text.mbedtls_pk_init,"ax",@progbits
.LHOTB0:
	.section	.text.unlikely.mbedtls_pk_init
.Ltext_cold0:
	.section	.text.mbedtls_pk_init
	.globl	mbedtls_pk_init
	.type	mbedtls_pk_init, @function
mbedtls_pk_init:
.LFB4:
	.file 1 "security/mbedtls/src/pk.c"
	.loc 1 55 0
	.cfi_startproc
.LVL0:
	pushl	%ebp
	.cfi_def_cfa_offset 8
	.cfi_offset 5, -8
	movl	%esp, %ebp
	.cfi_def_cfa_register 5
	.loc 1 55 0
	movl	8(%ebp), %eax
	.loc 1 56 0
	testl	%eax, %eax
	je	.L1
	.loc 1 59 0
	movl	$0, (%eax)
	.loc 1 60 0
	movl	$0, 4(%eax)
.L1:
	.loc 1 61 0
	popl	%ebp
	.cfi_restore 5
	.cfi_def_cfa 4, 4
	ret
	.cfi_endproc
.LFE4:
	.size	mbedtls_pk_init, .-mbedtls_pk_init
	.section	.text.unlikely.mbedtls_pk_init
.LCOLDE0:
	.section	.text.mbedtls_pk_init
.LHOTE0:
	.section	.text.unlikely.mbedtls_pk_free,"ax",@progbits
.LCOLDB1:
	.section	.text.mbedtls_pk_free,"ax",@progbits
.LHOTB1:
	.globl	mbedtls_pk_free
	.type	mbedtls_pk_free, @function
mbedtls_pk_free:
.LFB5:
	.loc 1 67 0
	.cfi_startproc
.LVL1:
	pushl	%ebp
	.cfi_def_cfa_offset 8
	.cfi_offset 5, -8
	movl	%esp, %ebp
	.cfi_def_cfa_register 5
	pushl	%ebx
	pushl	%eax
	.cfi_offset 3, -12
	.loc 1 67 0
	movl	8(%ebp), %ebx
	.loc 1 68 0
	testl	%ebx, %ebx
	je	.L8
	.loc 1 68 0 discriminator 1
	movl	(%ebx), %eax
	testl	%eax, %eax
	je	.L8
	.loc 1 71 0
	subl	$12, %esp
	pushl	4(%ebx)
	call	*40(%eax)
.LVL2:
	leal	8(%ebx), %eax
	addl	$16, %esp
.LVL3:
.L11:
.LBB4:
.LBB5:
	.loc 1 48 0
	cmpl	%eax, %ebx
	je	.L8
.LVL4:
	movb	$0, (%ebx)
	incl	%ebx
.LVL5:
	jmp	.L11
.LVL6:
.L8:
.LBE5:
.LBE4:
	.loc 1 74 0
	movl	-4(%ebp), %ebx
	leave
	.cfi_restore 5
	.cfi_restore 3
	.cfi_def_cfa 4, 4
	ret
	.cfi_endproc
.LFE5:
	.size	mbedtls_pk_free, .-mbedtls_pk_free
	.section	.text.unlikely.mbedtls_pk_free
.LCOLDE1:
	.section	.text.mbedtls_pk_free
.LHOTE1:
	.section	.text.unlikely.mbedtls_pk_info_from_type,"ax",@progbits
.LCOLDB2:
	.section	.text.mbedtls_pk_info_from_type,"ax",@progbits
.LHOTB2:
	.globl	mbedtls_pk_info_from_type
	.type	mbedtls_pk_info_from_type, @function
mbedtls_pk_info_from_type:
.LFB6:
	.loc 1 80 0
	.cfi_startproc
.LVL7:
	pushl	%ebp
	.cfi_def_cfa_offset 8
	.cfi_offset 5, -8
	.loc 1 98 0
	movl	$0, %edx
	movl	$mbedtls_rsa_info, %eax
	.loc 1 80 0
	movl	%esp, %ebp
	.cfi_def_cfa_register 5
	.loc 1 98 0
	cmpl	$1, 8(%ebp)
	.loc 1 100 0
	popl	%ebp
	.cfi_restore 5
	.cfi_def_cfa 4, 4
	.loc 1 98 0
	cmovne	%edx, %eax
	.loc 1 100 0
	ret
	.cfi_endproc
.LFE6:
	.size	mbedtls_pk_info_from_type, .-mbedtls_pk_info_from_type
	.section	.text.unlikely.mbedtls_pk_info_from_type
.LCOLDE2:
	.section	.text.mbedtls_pk_info_from_type
.LHOTE2:
	.section	.text.unlikely.mbedtls_pk_setup,"ax",@progbits
.LCOLDB3:
	.section	.text.mbedtls_pk_setup,"ax",@progbits
.LHOTB3:
	.globl	mbedtls_pk_setup
	.type	mbedtls_pk_setup, @function
mbedtls_pk_setup:
.LFB7:
	.loc 1 106 0
	.cfi_startproc
.LVL8:
	pushl	%ebp
	.cfi_def_cfa_offset 8
	.cfi_offset 5, -8
	.loc 1 108 0
	movl	$-16000, %edx
	.loc 1 106 0
	movl	%esp, %ebp
	.cfi_def_cfa_register 5
	pushl	%esi
	pushl	%ebx
	.cfi_offset 6, -12
	.cfi_offset 3, -16
	.loc 1 106 0
	movl	8(%ebp), %ebx
	movl	12(%ebp), %esi
	.loc 1 107 0
	testl	%ebx, %ebx
	je	.L23
	testl	%esi, %esi
	je	.L23
	.loc 1 107 0 discriminator 1
	cmpl	$0, (%ebx)
	jne	.L23
	.loc 1 110 0
	call	*36(%esi)
.LVL9:
	testl	%eax, %eax
	movl	%eax, 4(%ebx)
	.loc 1 111 0
	movl	$-16256, %edx
	.loc 1 110 0
	je	.L23
	.loc 1 113 0
	movl	%esi, (%ebx)
	.loc 1 115 0
	xorl	%edx, %edx
.L23:
	.loc 1 116 0
	popl	%ebx
	.cfi_restore 3
	movl	%edx, %eax
	popl	%esi
	.cfi_restore 6
	popl	%ebp
	.cfi_restore 5
	.cfi_def_cfa 4, 4
	ret
	.cfi_endproc
.LFE7:
	.size	mbedtls_pk_setup, .-mbedtls_pk_setup
	.section	.text.unlikely.mbedtls_pk_setup
.LCOLDE3:
	.section	.text.mbedtls_pk_setup
.LHOTE3:
	.section	.text.unlikely.mbedtls_pk_can_do,"ax",@progbits
.LCOLDB4:
	.section	.text.mbedtls_pk_can_do,"ax",@progbits
.LHOTB4:
	.globl	mbedtls_pk_can_do
	.type	mbedtls_pk_can_do, @function
mbedtls_pk_can_do:
.LFB8:
	.loc 1 153 0
	.cfi_startproc
.LVL10:
	pushl	%ebp
	.cfi_def_cfa_offset 8
	.cfi_offset 5, -8
	movl	%esp, %ebp
	.cfi_def_cfa_register 5
	.loc 1 153 0
	movl	8(%ebp), %eax
	movl	12(%ebp), %edx
	.loc 1 155 0
	testl	%eax, %eax
	je	.L29
	.loc 1 155 0 discriminator 1
	movl	(%eax), %eax
	testl	%eax, %eax
	je	.L29
	.loc 1 158 0
	movl	%edx, 8(%ebp)
.LVL11:
	movl	12(%eax), %eax
	.loc 1 159 0
	popl	%ebp
	.cfi_remember_state
	.cfi_restore 5
	.cfi_def_cfa 4, 4
	.loc 1 158 0
	jmp	*%eax
.LVL12:
.L29:
	.cfi_restore_state
	.loc 1 159 0
	xorl	%eax, %eax
	popl	%ebp
	.cfi_restore 5
	.cfi_def_cfa 4, 4
	ret
	.cfi_endproc
.LFE8:
	.size	mbedtls_pk_can_do, .-mbedtls_pk_can_do
	.section	.text.unlikely.mbedtls_pk_can_do
.LCOLDE4:
	.section	.text.mbedtls_pk_can_do
.LHOTE4:
	.section	.text.unlikely.mbedtls_pk_verify,"ax",@progbits
.LCOLDB5:
	.section	.text.mbedtls_pk_verify,"ax",@progbits
.LHOTB5:
	.globl	mbedtls_pk_verify
	.type	mbedtls_pk_verify, @function
mbedtls_pk_verify:
.LFB10:
	.loc 1 184 0
	.cfi_startproc
.LVL13:
	pushl	%ebp
	.cfi_def_cfa_offset 8
	.cfi_offset 5, -8
	movl	%esp, %ebp
	.cfi_def_cfa_register 5
	pushl	%edi
	pushl	%esi
	pushl	%ebx
	subl	$28, %esp
	.cfi_offset 7, -12
	.cfi_offset 6, -16
	.cfi_offset 3, -20
	.loc 1 184 0
	movl	8(%ebp), %esi
	movl	16(%ebp), %eax
	movl	24(%ebp), %edx
	movl	12(%ebp), %ebx
	movl	28(%ebp), %edi
	.loc 1 185 0
	testl	%esi, %esi
	.loc 1 184 0
	movl	%eax, -28(%ebp)
	movl	20(%ebp), %eax
	movl	%edx, -32(%ebp)
	.loc 1 185 0
	jne	.L36
.L38:
	.loc 1 187 0
	movl	$-16000, %eax
	jmp	.L45
.L36:
	.loc 1 185 0 discriminator 1
	cmpl	$0, (%esi)
	je	.L38
.LVL14:
.LBB10:
.LBB11:
	.loc 1 168 0
	testl	%eax, %eax
	jne	.L39
.LVL15:
.LBB12:
.LBB13:
	.loc 1 171 0
	subl	$12, %esp
	pushl	%ebx
	call	mbedtls_md_info_from_type
.LVL16:
	addl	$16, %esp
	testl	%eax, %eax
	je	.L38
	.loc 1 174 0
	subl	$12, %esp
	pushl	%eax
	call	mbedtls_md_get_size
.LVL17:
	addl	$16, %esp
	movzbl	%al, %eax
.LVL18:
.L39:
.LBE13:
.LBE12:
.LBE11:
.LBE10:
	.loc 1 189 0
	movl	(%esi), %ecx
	movl	16(%ecx), %ecx
	testl	%ecx, %ecx
	je	.L48
	.loc 1 192 0
	movl	%eax, 20(%ebp)
	movl	-32(%ebp), %edx
	movl	-28(%ebp), %eax
.LVL19:
	movl	%edi, 28(%ebp)
	movl	%ebx, 12(%ebp)
	movl	%edx, 24(%ebp)
	movl	%eax, 16(%ebp)
	movl	4(%esi), %eax
	movl	%eax, 8(%ebp)
	.loc 1 194 0
	leal	-12(%ebp), %esp
	popl	%ebx
	.cfi_remember_state
	.cfi_restore 3
	popl	%esi
	.cfi_restore 6
	popl	%edi
	.cfi_restore 7
	popl	%ebp
	.cfi_restore 5
	.cfi_def_cfa 4, 4
	.loc 1 192 0
	jmp	*%ecx
.LVL20:
.L48:
	.cfi_restore_state
	.loc 1 190 0
	movl	$-16128, %eax
.LVL21:
.L45:
	.loc 1 194 0
	leal	-12(%ebp), %esp
	popl	%ebx
	.cfi_restore 3
	popl	%esi
	.cfi_restore 6
	popl	%edi
	.cfi_restore 7
	popl	%ebp
	.cfi_restore 5
	.cfi_def_cfa 4, 4
	ret
	.cfi_endproc
.LFE10:
	.size	mbedtls_pk_verify, .-mbedtls_pk_verify
	.section	.text.unlikely.mbedtls_pk_verify
.LCOLDE5:
	.section	.text.mbedtls_pk_verify
.LHOTE5:
	.section	.text.unlikely.mbedtls_pk_verify_ext,"ax",@progbits
.LCOLDB6:
	.section	.text.mbedtls_pk_verify_ext,"ax",@progbits
.LHOTB6:
	.globl	mbedtls_pk_verify_ext
	.type	mbedtls_pk_verify_ext, @function
mbedtls_pk_verify_ext:
.LFB11:
	.loc 1 203 0
	.cfi_startproc
.LVL22:
	pushl	%ebp
	.cfi_def_cfa_offset 8
	.cfi_offset 5, -8
	movl	%esp, %ebp
	.cfi_def_cfa_register 5
	pushl	%edi
	pushl	%esi
	pushl	%ebx
	subl	$44, %esp
	.cfi_offset 7, -12
	.cfi_offset 6, -16
	.cfi_offset 3, -20
	.loc 1 203 0
	movl	20(%ebp), %eax
	movl	16(%ebp), %ebx
	movl	8(%ebp), %esi
	movl	12(%ebp), %ecx
	movl	32(%ebp), %edi
	movl	36(%ebp), %edx
	movl	%eax, -28(%ebp)
	movl	24(%ebp), %eax
	.loc 1 204 0
	testl	%ebx, %ebx
	.loc 1 203 0
	movl	%eax, -32(%ebp)
	movl	28(%ebp), %eax
	movl	%eax, -36(%ebp)
	.loc 1 204 0
	jne	.L50
.L52:
	.loc 1 205 0
	movl	$-16000, %eax
	jmp	.L51
.L50:
	.loc 1 204 0 discriminator 1
	cmpl	$0, (%ebx)
	movl	%edx, -44(%ebp)
	movl	%ecx, -40(%ebp)
	je	.L52
	.loc 1 207 0
	pushl	%eax
	pushl	%eax
	pushl	%esi
	pushl	%ebx
	call	mbedtls_pk_can_do
.LVL23:
	addl	$16, %esp
	testl	%eax, %eax
	je	.L53
	.loc 1 210 0
	cmpl	$6, %esi
	je	.L54
	.loc 1 248 0
	movl	-40(%ebp), %ecx
	testl	%ecx, %ecx
	jne	.L52
	.loc 1 251 0
	movl	-36(%ebp), %eax
	movl	-44(%ebp), %edx
	movl	%edi, 24(%ebp)
	movl	%ebx, 8(%ebp)
	movl	%eax, 20(%ebp)
	movl	-32(%ebp), %eax
	movl	%edx, 28(%ebp)
	movl	%eax, 16(%ebp)
	movl	-28(%ebp), %eax
	movl	%eax, 12(%ebp)
	.loc 1 252 0
	leal	-12(%ebp), %esp
	popl	%ebx
	.cfi_remember_state
	.cfi_restore 3
	popl	%esi
	.cfi_restore 6
	popl	%edi
	.cfi_restore 7
	popl	%ebp
	.cfi_restore 5
	.cfi_def_cfa 4, 4
	.loc 1 251 0
	jmp	mbedtls_pk_verify
.LVL24:
.L53:
	.cfi_restore_state
	.loc 1 208 0
	movl	$-16128, %eax
	jmp	.L51
.L54:
	.loc 1 243 0
	movl	$-14720, %eax
.L51:
	.loc 1 252 0
	leal	-12(%ebp), %esp
	popl	%ebx
	.cfi_restore 3
	popl	%esi
	.cfi_restore 6
	popl	%edi
	.cfi_restore 7
	popl	%ebp
	.cfi_restore 5
	.cfi_def_cfa 4, 4
	ret
	.cfi_endproc
.LFE11:
	.size	mbedtls_pk_verify_ext, .-mbedtls_pk_verify_ext
	.section	.text.unlikely.mbedtls_pk_verify_ext
.LCOLDE6:
	.section	.text.mbedtls_pk_verify_ext
.LHOTE6:
	.section	.text.unlikely.mbedtls_pk_sign,"ax",@progbits
.LCOLDB7:
	.section	.text.mbedtls_pk_sign,"ax",@progbits
.LHOTB7:
	.globl	mbedtls_pk_sign
	.type	mbedtls_pk_sign, @function
mbedtls_pk_sign:
.LFB12:
	.loc 1 261 0
	.cfi_startproc
.LVL25:
	pushl	%ebp
	.cfi_def_cfa_offset 8
	.cfi_offset 5, -8
	movl	%esp, %ebp
	.cfi_def_cfa_register 5
	pushl	%edi
	pushl	%esi
	pushl	%ebx
	subl	$28, %esp
	.cfi_offset 7, -12
	.cfi_offset 6, -16
	.cfi_offset 3, -20
	.loc 1 261 0
	movl	24(%ebp), %edx
	movl	8(%ebp), %esi
	movl	16(%ebp), %eax
	movl	32(%ebp), %edi
	movl	12(%ebp), %ebx
	movl	%edx, -32(%ebp)
	movl	28(%ebp), %edx
	.loc 1 262 0
	testl	%esi, %esi
	.loc 1 261 0
	movl	%eax, -28(%ebp)
	movl	%edi, -40(%ebp)
	movl	20(%ebp), %eax
	movl	36(%ebp), %edi
	movl	%edx, -36(%ebp)
	.loc 1 262 0
	jne	.L57
.L59:
	.loc 1 264 0
	movl	$-16000, %eax
	jmp	.L66
.L57:
	.loc 1 262 0 discriminator 1
	cmpl	$0, (%esi)
	je	.L59
.LVL26:
.LBB18:
.LBB19:
	.loc 1 168 0
	testl	%eax, %eax
	jne	.L60
.LVL27:
.LBB20:
.LBB21:
	.loc 1 171 0
	subl	$12, %esp
	pushl	%ebx
	call	mbedtls_md_info_from_type
.LVL28:
	addl	$16, %esp
	testl	%eax, %eax
	je	.L59
	.loc 1 174 0
	subl	$12, %esp
	pushl	%eax
	call	mbedtls_md_get_size
.LVL29:
	addl	$16, %esp
	movzbl	%al, %eax
.LVL30:
.L60:
.LBE21:
.LBE20:
.LBE19:
.LBE18:
	.loc 1 266 0
	movl	(%esi), %ecx
	movl	20(%ecx), %ecx
	testl	%ecx, %ecx
	je	.L69
	.loc 1 269 0
	movl	-40(%ebp), %edx
	movl	%edi, 36(%ebp)
	movl	%eax, 20(%ebp)
	movl	-36(%ebp), %edi
	movl	-28(%ebp), %eax
.LVL31:
	movl	%ebx, 12(%ebp)
	movl	%edx, 32(%ebp)
	movl	-32(%ebp), %edx
	movl	%edi, 28(%ebp)
	movl	%eax, 16(%ebp)
	movl	%edx, 24(%ebp)
	movl	4(%esi), %eax
	movl	%eax, 8(%ebp)
	.loc 1 271 0
	leal	-12(%ebp), %esp
	popl	%ebx
	.cfi_remember_state
	.cfi_restore 3
	popl	%esi
	.cfi_restore 6
	popl	%edi
	.cfi_restore 7
	popl	%ebp
	.cfi_restore 5
	.cfi_def_cfa 4, 4
	.loc 1 269 0
	jmp	*%ecx
.LVL32:
.L69:
	.cfi_restore_state
	.loc 1 267 0
	movl	$-16128, %eax
.LVL33:
.L66:
	.loc 1 271 0
	leal	-12(%ebp), %esp
	popl	%ebx
	.cfi_restore 3
	popl	%esi
	.cfi_restore 6
	popl	%edi
	.cfi_restore 7
	popl	%ebp
	.cfi_restore 5
	.cfi_def_cfa 4, 4
	ret
	.cfi_endproc
.LFE12:
	.size	mbedtls_pk_sign, .-mbedtls_pk_sign
	.section	.text.unlikely.mbedtls_pk_sign
.LCOLDE7:
	.section	.text.mbedtls_pk_sign
.LHOTE7:
	.section	.text.unlikely.mbedtls_pk_decrypt,"ax",@progbits
.LCOLDB8:
	.section	.text.mbedtls_pk_decrypt,"ax",@progbits
.LHOTB8:
	.globl	mbedtls_pk_decrypt
	.type	mbedtls_pk_decrypt, @function
mbedtls_pk_decrypt:
.LFB13:
	.loc 1 280 0
	.cfi_startproc
.LVL34:
	pushl	%ebp
	.cfi_def_cfa_offset 8
	.cfi_offset 5, -8
	movl	%esp, %ebp
	.cfi_def_cfa_register 5
	pushl	%edi
	pushl	%esi
	pushl	%ebx
	subl	$28, %esp
	.cfi_offset 7, -12
	.cfi_offset 6, -16
	.cfi_offset 3, -20
	.loc 1 280 0
	movl	8(%ebp), %eax
	movl	12(%ebp), %ecx
	movl	16(%ebp), %ebx
	movl	20(%ebp), %esi
	.loc 1 281 0
	testl	%eax, %eax
	.loc 1 280 0
	movl	%ecx, -28(%ebp)
	movl	%ebx, -32(%ebp)
	movl	%esi, -36(%ebp)
	.loc 1 281 0
	je	.L73
	.loc 1 281 0 discriminator 1
	movl	(%eax), %edx
	testl	%edx, %edx
	je	.L73
	.loc 1 284 0
	movl	24(%edx), %edx
	testl	%edx, %edx
	je	.L74
	.loc 1 287 0
	movl	4(%eax), %eax
	movl	%eax, 8(%ebp)
.LVL35:
	.loc 1 289 0
	addl	$28, %esp
	popl	%ebx
	.cfi_remember_state
	.cfi_restore 3
	popl	%esi
	.cfi_restore 6
	popl	%edi
	.cfi_restore 7
	popl	%ebp
	.cfi_restore 5
	.cfi_def_cfa 4, 4
	.loc 1 287 0
	jmp	*%edx
.LVL36:
.L73:
	.cfi_restore_state
	.loc 1 282 0
	movl	$-16000, %eax
	jmp	.L71
.L74:
	.loc 1 285 0
	movl	$-16128, %eax
.L71:
	.loc 1 289 0
	addl	$28, %esp
	popl	%ebx
	.cfi_restore 3
	popl	%esi
	.cfi_restore 6
	popl	%edi
	.cfi_restore 7
	popl	%ebp
	.cfi_restore 5
	.cfi_def_cfa 4, 4
	ret
	.cfi_endproc
.LFE13:
	.size	mbedtls_pk_decrypt, .-mbedtls_pk_decrypt
	.section	.text.unlikely.mbedtls_pk_decrypt
.LCOLDE8:
	.section	.text.mbedtls_pk_decrypt
.LHOTE8:
	.section	.text.unlikely.mbedtls_pk_encrypt,"ax",@progbits
.LCOLDB9:
	.section	.text.mbedtls_pk_encrypt,"ax",@progbits
.LHOTB9:
	.globl	mbedtls_pk_encrypt
	.type	mbedtls_pk_encrypt, @function
mbedtls_pk_encrypt:
.LFB14:
	.loc 1 298 0
	.cfi_startproc
.LVL37:
	pushl	%ebp
	.cfi_def_cfa_offset 8
	.cfi_offset 5, -8
	movl	%esp, %ebp
	.cfi_def_cfa_register 5
	pushl	%edi
	pushl	%esi
	pushl	%ebx
	subl	$28, %esp
	.cfi_offset 7, -12
	.cfi_offset 6, -16
	.cfi_offset 3, -20
	.loc 1 298 0
	movl	8(%ebp), %eax
	movl	12(%ebp), %ecx
	movl	16(%ebp), %ebx
	movl	20(%ebp), %esi
	.loc 1 299 0
	testl	%eax, %eax
	.loc 1 298 0
	movl	%ecx, -28(%ebp)
	movl	%ebx, -32(%ebp)
	movl	%esi, -36(%ebp)
	.loc 1 299 0
	je	.L79
	.loc 1 299 0 discriminator 1
	movl	(%eax), %edx
	testl	%edx, %edx
	je	.L79
	.loc 1 302 0
	movl	28(%edx), %edx
	testl	%edx, %edx
	je	.L80
	.loc 1 305 0
	movl	4(%eax), %eax
	movl	%eax, 8(%ebp)
.LVL38:
	.loc 1 307 0
	addl	$28, %esp
	popl	%ebx
	.cfi_remember_state
	.cfi_restore 3
	popl	%esi
	.cfi_restore 6
	popl	%edi
	.cfi_restore 7
	popl	%ebp
	.cfi_restore 5
	.cfi_def_cfa 4, 4
	.loc 1 305 0
	jmp	*%edx
.LVL39:
.L79:
	.cfi_restore_state
	.loc 1 300 0
	movl	$-16000, %eax
	jmp	.L77
.L80:
	.loc 1 303 0
	movl	$-16128, %eax
.L77:
	.loc 1 307 0
	addl	$28, %esp
	popl	%ebx
	.cfi_restore 3
	popl	%esi
	.cfi_restore 6
	popl	%edi
	.cfi_restore 7
	popl	%ebp
	.cfi_restore 5
	.cfi_def_cfa 4, 4
	ret
	.cfi_endproc
.LFE14:
	.size	mbedtls_pk_encrypt, .-mbedtls_pk_encrypt
	.section	.text.unlikely.mbedtls_pk_encrypt
.LCOLDE9:
	.section	.text.mbedtls_pk_encrypt
.LHOTE9:
	.section	.text.unlikely.mbedtls_pk_check_pair,"ax",@progbits
.LCOLDB10:
	.section	.text.mbedtls_pk_check_pair,"ax",@progbits
.LHOTB10:
	.globl	mbedtls_pk_check_pair
	.type	mbedtls_pk_check_pair, @function
mbedtls_pk_check_pair:
.LFB15:
	.loc 1 313 0
	.cfi_startproc
.LVL40:
	pushl	%ebp
	.cfi_def_cfa_offset 8
	.cfi_offset 5, -8
	movl	%esp, %ebp
	.cfi_def_cfa_register 5
	pushl	%esi
	pushl	%ebx
	.cfi_offset 6, -12
	.cfi_offset 3, -16
	.loc 1 313 0
	movl	8(%ebp), %edx
	movl	12(%ebp), %ecx
	.loc 1 314 0
	testl	%edx, %edx
	je	.L89
	.loc 1 314 0 discriminator 1
	movl	(%edx), %ebx
	.loc 1 314 0 discriminator 1
	testl	%ebx, %ebx
	je	.L89
	testl	%ecx, %ecx
	je	.L89
	.loc 1 315 0
	movl	(%ecx), %eax
	testl	%eax, %eax
	je	.L89
	.loc 1 316 0 discriminator 1
	movl	32(%eax), %esi
	.loc 1 315 0 discriminator 1
	testl	%esi, %esi
	je	.L89
	.loc 1 321 0
	cmpl	$5, (%eax)
	jne	.L84
	.loc 1 323 0
	cmpl	$1, (%ebx)
	jmp	.L94
.L84:
	.loc 1 328 0
	cmpl	%eax, %ebx
.L94:
	jne	.L91
	.loc 1 332 0
	movl	4(%ecx), %eax
	.loc 1 333 0
	popl	%ebx
	.cfi_remember_state
	.cfi_restore 3
	.loc 1 332 0
	movl	%eax, 12(%ebp)
.LVL41:
	movl	4(%edx), %eax
	movl	%eax, 8(%ebp)
.LVL42:
	movl	%esi, %eax
	.loc 1 333 0
	popl	%esi
	.cfi_restore 6
	popl	%ebp
	.cfi_restore 5
	.cfi_def_cfa 4, 4
	.loc 1 332 0
	jmp	*%eax
.LVL43:
.L89:
	.cfi_restore_state
	.loc 1 318 0
	movl	$-16000, %eax
	jmp	.L83
.L91:
	.loc 1 324 0
	movl	$-16128, %eax
.L83:
	.loc 1 333 0
	popl	%ebx
	.cfi_restore 3
	popl	%esi
	.cfi_restore 6
	popl	%ebp
	.cfi_restore 5
	.cfi_def_cfa 4, 4
	ret
	.cfi_endproc
.LFE15:
	.size	mbedtls_pk_check_pair, .-mbedtls_pk_check_pair
	.section	.text.unlikely.mbedtls_pk_check_pair
.LCOLDE10:
	.section	.text.mbedtls_pk_check_pair
.LHOTE10:
	.section	.text.unlikely.mbedtls_pk_get_bitlen,"ax",@progbits
.LCOLDB11:
	.section	.text.mbedtls_pk_get_bitlen,"ax",@progbits
.LHOTB11:
	.globl	mbedtls_pk_get_bitlen
	.type	mbedtls_pk_get_bitlen, @function
mbedtls_pk_get_bitlen:
.LFB16:
	.loc 1 339 0
	.cfi_startproc
.LVL44:
	pushl	%ebp
	.cfi_def_cfa_offset 8
	.cfi_offset 5, -8
	movl	%esp, %ebp
	.cfi_def_cfa_register 5
	.loc 1 339 0
	movl	8(%ebp), %eax
	.loc 1 340 0
	testl	%eax, %eax
	je	.L96
	.loc 1 340 0 discriminator 1
	movl	(%eax), %edx
	testl	%edx, %edx
	je	.L96
	.loc 1 343 0
	movl	4(%eax), %eax
	movl	%eax, 8(%ebp)
.LVL45:
	movl	8(%edx), %eax
	.loc 1 344 0
	popl	%ebp
	.cfi_remember_state
	.cfi_restore 5
	.cfi_def_cfa 4, 4
	.loc 1 343 0
	jmp	*%eax
.LVL46:
.L96:
	.cfi_restore_state
	.loc 1 344 0
	xorl	%eax, %eax
.LVL47:
	popl	%ebp
	.cfi_restore 5
	.cfi_def_cfa 4, 4
	ret
	.cfi_endproc
.LFE16:
	.size	mbedtls_pk_get_bitlen, .-mbedtls_pk_get_bitlen
	.section	.text.unlikely.mbedtls_pk_get_bitlen
.LCOLDE11:
	.section	.text.mbedtls_pk_get_bitlen
.LHOTE11:
	.section	.text.unlikely.mbedtls_pk_debug,"ax",@progbits
.LCOLDB12:
	.section	.text.mbedtls_pk_debug,"ax",@progbits
.LHOTB12:
	.globl	mbedtls_pk_debug
	.type	mbedtls_pk_debug, @function
mbedtls_pk_debug:
.LFB17:
	.loc 1 350 0
	.cfi_startproc
.LVL48:
	pushl	%ebp
	.cfi_def_cfa_offset 8
	.cfi_offset 5, -8
	.loc 1 352 0
	movl	$-16000, %eax
	.loc 1 350 0
	movl	%esp, %ebp
	.cfi_def_cfa_register 5
	subl	$8, %esp
	.loc 1 350 0
	movl	8(%ebp), %edx
	.loc 1 351 0
	testl	%edx, %edx
	je	.L103
	.loc 1 351 0 discriminator 1
	movl	(%edx), %ecx
	testl	%ecx, %ecx
	je	.L103
	.loc 1 354 0
	movl	44(%ecx), %ecx
	.loc 1 355 0
	movl	$-16128, %eax
	.loc 1 354 0
	testl	%ecx, %ecx
	je	.L103
	.loc 1 357 0
	pushl	%eax
	pushl	%eax
	pushl	12(%ebp)
	pushl	4(%edx)
	call	*%ecx
.LVL49:
	.loc 1 358 0
	addl	$16, %esp
	xorl	%eax, %eax
.L103:
	.loc 1 359 0
	leave
	.cfi_restore 5
	.cfi_def_cfa 4, 4
	ret
	.cfi_endproc
.LFE17:
	.size	mbedtls_pk_debug, .-mbedtls_pk_debug
	.section	.text.unlikely.mbedtls_pk_debug
.LCOLDE12:
	.section	.text.mbedtls_pk_debug
.LHOTE12:
	.section	.rodata.str1.1,"aMS",@progbits,1
.LC13:
	.string	"invalid PK"
	.section	.text.unlikely.mbedtls_pk_get_name,"ax",@progbits
.LCOLDB14:
	.section	.text.mbedtls_pk_get_name,"ax",@progbits
.LHOTB14:
	.globl	mbedtls_pk_get_name
	.type	mbedtls_pk_get_name, @function
mbedtls_pk_get_name:
.LFB18:
	.loc 1 365 0
	.cfi_startproc
.LVL50:
	pushl	%ebp
	.cfi_def_cfa_offset 8
	.cfi_offset 5, -8
	.loc 1 367 0
	movl	$.LC13, %eax
	.loc 1 365 0
	movl	%esp, %ebp
	.cfi_def_cfa_register 5
	.loc 1 365 0
	movl	8(%ebp), %edx
	.loc 1 366 0
	testl	%edx, %edx
	je	.L109
	.loc 1 366 0 discriminator 1
	movl	(%edx), %edx
	testl	%edx, %edx
	je	.L109
	.loc 1 369 0
	movl	4(%edx), %eax
.L109:
	.loc 1 370 0
	popl	%ebp
	.cfi_restore 5
	.cfi_def_cfa 4, 4
	ret
	.cfi_endproc
.LFE18:
	.size	mbedtls_pk_get_name, .-mbedtls_pk_get_name
	.section	.text.unlikely.mbedtls_pk_get_name
.LCOLDE14:
	.section	.text.mbedtls_pk_get_name
.LHOTE14:
	.section	.text.unlikely.mbedtls_pk_get_type,"ax",@progbits
.LCOLDB15:
	.section	.text.mbedtls_pk_get_type,"ax",@progbits
.LHOTB15:
	.globl	mbedtls_pk_get_type
	.type	mbedtls_pk_get_type, @function
mbedtls_pk_get_type:
.LFB19:
	.loc 1 376 0
	.cfi_startproc
.LVL51:
	pushl	%ebp
	.cfi_def_cfa_offset 8
	.cfi_offset 5, -8
	.loc 1 378 0
	xorl	%eax, %eax
	.loc 1 376 0
	movl	%esp, %ebp
	.cfi_def_cfa_register 5
	.loc 1 376 0
	movl	8(%ebp), %edx
	.loc 1 377 0
	testl	%edx, %edx
	je	.L114
	.loc 1 377 0 discriminator 1
	movl	(%edx), %edx
	testl	%edx, %edx
	je	.L114
	.loc 1 380 0
	movl	(%edx), %eax
.L114:
	.loc 1 381 0
	popl	%ebp
	.cfi_restore 5
	.cfi_def_cfa 4, 4
	ret
	.cfi_endproc
.LFE19:
	.size	mbedtls_pk_get_type, .-mbedtls_pk_get_type
	.section	.text.unlikely.mbedtls_pk_get_type
.LCOLDE15:
	.section	.text.mbedtls_pk_get_type
.LHOTE15:
	.text
.Letext0:
	.section	.text.unlikely.mbedtls_pk_init
.Letext_cold0:
	.file 2 "/home/stone/Documents/Ali_IOT/build/compiler/gcc-arm-none-eabi/Linux64/lib/gcc/arm-none-eabi/5.4.1/include/stddef.h"
	.file 3 "./security/mbedtls/include/mbedtls/md.h"
	.file 4 "./security/mbedtls/include/mbedtls/pk.h"
	.file 5 "./security/mbedtls/include/mbedtls/pk_internal.h"
	.section	.note.GNU-stack,"",@progbits
