	.file	"radio.c"
	.text
.Ltext0:
	.section	.text.unlikely.sw_switch,"ax",@progbits
.LCOLDB0:
	.section	.text.sw_switch,"ax",@progbits
.LHOTB0:
	.section	.text.unlikely.sw_switch
.Ltext_cold0:
	.section	.text.sw_switch
	.type	sw_switch, @function
sw_switch:
.LFB204:
	.file 1 "src/radio.c"
	.loc 1 4218 0
	.cfi_startproc
.LVL0:
	pushl	%ebp
	.cfi_def_cfa_offset 8
	.cfi_offset 5, -8
.LVL1:
	movl	%esp, %ebp
	.cfi_def_cfa_register 5
	pushl	%edi
	pushl	%esi
	pushl	%ebx
	pushl	%ecx
	.cfi_offset 7, -12
	.cfi_offset 6, -16
	.cfi_offset 3, -20
	.loc 1 4219 0
	movzbl	sw_tifs_toggle, %edi
	.loc 1 4218 0
	movl	%eax, -16(%ebp)
	leal	0(,%edi,4), %esi
	.loc 1 4219 0
	movl	%edi, %ecx
.LVL2:
	.loc 1 4223 0
	leal	1073868800(,%edi,8), %edi
.LVL3:
	leal	1073778688(%esi), %ebx
	.loc 1 4221 0
	movl	$0, 320(%ebx)
	.loc 1 4222 0
	movl	$1073746188, 1073870176
.LVL4:
	.loc 1 4223 0
	movl	%edi, 1073870180
	leal	11(%ecx), %edi
	.loc 1 4224 0
	addl	$1073779008, %esi
	.loc 1 4226 0
	cmpb	$0, -16(%ebp)
	movl	%edi, %eax
.LVL5:
	movzbl	%al, %edi
	leal	1073868800(,%edi,8), %edi
	.loc 1 4224 0
	movl	%esi, 1296(%edi)
	.loc 1 4226 0
	je	.L2
.LVL6:
.LBB32:
.LBB33:
	.loc 1 4126 0
	xorl	%eax, %eax
	cmpb	$2, %dl
.LBE33:
.LBE32:
	.loc 1 4229 0
	movl	$1073745920, 1300(%edi)
.LBB35:
.LBB34:
	.loc 1 4126 0
	setne	%al
	leal	5(%eax,%eax,4), %eax
.LVL7:
.LBE34:
.LBE35:
	.loc 1 4227 0
	addl	$131, %eax
.LVL8:
	jmp	.L5
.LVL9:
.L2:
	.loc 1 4234 0
	movl	$1073745924, 1300(%edi)
	.loc 1 4231 0
	movl	$133, %eax
.LVL10:
.L5:
	.loc 1 4236 0
	movl	1344(%ebx), %edx
.LVL11:
	cmpl	%edx, %eax
	jnb	.L6
	.loc 1 4237 0
	movl	1344(%ebx), %edx
	subl	%eax, %edx
	movl	%edx, 1344(%ebx)
	jmp	.L7
.L6:
	.loc 1 4239 0
	movl	$1, 1344(%ebx)
.L7:
	.loc 1 4243 0
	incl	%ecx
.LVL12:
	.loc 1 4241 0
	movl	$1152, 1073870084
	.loc 1 4243 0
	andl	$1, %ecx
.LVL13:
	movb	%cl, sw_tifs_toggle
	.loc 1 4244 0
	popl	%eax
.LVL14:
	popl	%ebx
	.cfi_restore 3
	popl	%esi
	.cfi_restore 6
	popl	%edi
	.cfi_restore 7
	popl	%ebp
	.cfi_restore 5
	.cfi_def_cfa 4, 4
	ret
	.cfi_endproc
.LFE204:
	.size	sw_switch, .-sw_switch
	.section	.text.unlikely.sw_switch
.LCOLDE0:
	.section	.text.sw_switch
.LHOTE0:
	.section	.text.unlikely.isr_radio,"ax",@progbits
.LCOLDB1:
	.section	.text.isr_radio,"ax",@progbits
.LHOTB1:
	.globl	isr_radio
	.type	isr_radio, @function
isr_radio:
.LFB176:
	.loc 1 3959 0
	.cfi_startproc
	.loc 1 3960 0
	movl	sfp_radio_isr, %eax
	.loc 1 3959 0
	pushl	%ebp
	.cfi_def_cfa_offset 8
	.cfi_offset 5, -8
	movl	%esp, %ebp
	.cfi_def_cfa_register 5
	.loc 1 3960 0
	testl	%eax, %eax
	je	.L11
	.loc 1 3963 0
	popl	%ebp
	.cfi_remember_state
	.cfi_restore 5
	.cfi_def_cfa 4, 4
	.loc 1 3961 0
	jmp	*%eax
.LVL15:
.L11:
	.cfi_restore_state
	.loc 1 3963 0
	popl	%ebp
	.cfi_restore 5
	.cfi_def_cfa 4, 4
	ret
	.cfi_endproc
.LFE176:
	.size	isr_radio, .-isr_radio
	.section	.text.unlikely.isr_radio
.LCOLDE1:
	.section	.text.isr_radio
.LHOTE1:
	.section	.text.unlikely.radio_isr_set,"ax",@progbits
.LCOLDB2:
	.section	.text.radio_isr_set,"ax",@progbits
.LHOTB2:
	.globl	radio_isr_set
	.type	radio_isr_set, @function
radio_isr_set:
.LFB177:
	.loc 1 3965 0
	.cfi_startproc
.LVL16:
	pushl	%ebp
	.cfi_def_cfa_offset 8
	.cfi_offset 5, -8
	movl	%esp, %ebp
	.cfi_def_cfa_register 5
	.loc 1 3966 0
	movl	8(%ebp), %eax
	movl	%eax, sfp_radio_isr
	.loc 1 3967 0
	movl	$16, 1073746692
.LVL17:
.LBB36:
.LBB37:
	.loc 1 956 0
	movl	$2, -536812928
.LVL18:
.LBE37:
.LBE36:
	.loc 1 3971 0
	movl	$1, 8(%ebp)
.LVL19:
	.loc 1 3972 0
	popl	%ebp
	.cfi_restore 5
	.cfi_def_cfa 4, 4
	.loc 1 3971 0
	jmp	_arch_irq_enable
.LVL20:
	.cfi_endproc
.LFE177:
	.size	radio_isr_set, .-radio_isr_set
	.section	.text.unlikely.radio_isr_set
.LCOLDE2:
	.section	.text.radio_isr_set
.LHOTE2:
	.section	.text.unlikely.radio_setup,"ax",@progbits
.LCOLDB3:
	.section	.text.radio_setup,"ax",@progbits
.LHOTB3:
	.globl	radio_setup
	.type	radio_setup, @function
radio_setup:
.LFB178:
	.loc 1 3974 0
	.cfi_startproc
.LVL21:
	pushl	%ebp
	.cfi_def_cfa_offset 8
	.cfi_offset 5, -8
	.loc 1 3996 0
	movl	$-1, 1073745408
	.loc 1 3997 0
	movl	$-1, 1073745412
	.loc 1 3998 0
	movl	$0, 1073745416
	.loc 1 3974 0
	movl	%esp, %ebp
	.cfi_def_cfa_register 5
	.loc 1 3999 0
	movl	$-1, 1073745420
	.loc 1 4000 0
	movl	$0, 1073745424
	.loc 1 4001 0
	movl	$-1, 1073745428
	.loc 1 4002 0
	movl	$-1, 1073745432
	.loc 1 4003 0
	movl	$-1, 1073745436
	.loc 1 4004 0
	movl	$-1, 1073745440
	.loc 1 4005 0
	movl	$-1, 1073745444
	.loc 1 4006 0
	movl	$-1, 1073745448
	.loc 1 4007 0
	movl	$-1, 1073745452
	.loc 1 4008 0
	movl	$-1, 1073745456
	.loc 1 4009 0
	movl	$-1, 1073745460
	.loc 1 4010 0
	popl	%ebp
	.cfi_restore 5
	.cfi_def_cfa 4, 4
	ret
	.cfi_endproc
.LFE178:
	.size	radio_setup, .-radio_setup
	.section	.text.unlikely.radio_setup
.LCOLDE3:
	.section	.text.radio_setup
.LHOTE3:
	.section	.text.unlikely.radio_reset,"ax",@progbits
.LCOLDB4:
	.section	.text.radio_reset,"ax",@progbits
.LHOTB4:
	.globl	radio_reset
	.type	radio_reset, @function
radio_reset:
.LFB179:
	.loc 1 4012 0
	.cfi_startproc
	pushl	%ebp
	.cfi_def_cfa_offset 8
	.cfi_offset 5, -8
	movl	%esp, %ebp
	.cfi_def_cfa_register 5
	subl	$20, %esp
	.loc 1 4013 0
	pushl	$1
	call	_arch_irq_disable
.LVL22:
	.loc 1 4014 0
	movl	$0, 1073750012
	.loc 1 4020 0
	addl	$16, %esp
	.loc 1 4017 0
	movl	$1, 1073750012
	.loc 1 4020 0
	leave
	.cfi_restore 5
	.cfi_def_cfa 4, 4
	ret
	.cfi_endproc
.LFE179:
	.size	radio_reset, .-radio_reset
	.section	.text.unlikely.radio_reset
.LCOLDE4:
	.section	.text.radio_reset
.LHOTE4:
	.section	.text.unlikely.radio_phy_set,"ax",@progbits
.LCOLDB5:
	.section	.text.radio_phy_set,"ax",@progbits
.LHOTB5:
	.globl	radio_phy_set
	.type	radio_phy_set, @function
radio_phy_set:
.LFB180:
	.loc 1 4022 0
	.cfi_startproc
.LVL23:
	pushl	%ebp
	.cfi_def_cfa_offset 8
	.cfi_offset 5, -8
	.loc 1 4027 0
	xorl	%eax, %eax
	.loc 1 4022 0
	movl	%esp, %ebp
	.cfi_def_cfa_register 5
	.loc 1 4027 0
	cmpb	$2, 8(%ebp)
	sete	%al
	addl	$3, %eax
.LVL24:
	.loc 1 4033 0
	movl	%eax, 1073747216
.LVL25:
	.loc 1 4034 0
	popl	%ebp
	.cfi_restore 5
	.cfi_def_cfa 4, 4
	ret
	.cfi_endproc
.LFE180:
	.size	radio_phy_set, .-radio_phy_set
	.section	.text.unlikely.radio_phy_set
.LCOLDE5:
	.section	.text.radio_phy_set
.LHOTE5:
	.section	.text.unlikely.radio_tx_power_set,"ax",@progbits
.LCOLDB6:
	.section	.text.radio_tx_power_set,"ax",@progbits
.LHOTB6:
	.globl	radio_tx_power_set
	.type	radio_tx_power_set, @function
radio_tx_power_set:
.LFB181:
	.loc 1 4036 0
	.cfi_startproc
.LVL26:
	pushl	%ebp
	.cfi_def_cfa_offset 8
	.cfi_offset 5, -8
	movl	%esp, %ebp
	.cfi_def_cfa_register 5
	.loc 1 4037 0
	movl	8(%ebp), %eax
	movl	%eax, 1073747212
	.loc 1 4038 0
	popl	%ebp
	.cfi_restore 5
	.cfi_def_cfa 4, 4
	ret
	.cfi_endproc
.LFE181:
	.size	radio_tx_power_set, .-radio_tx_power_set
	.section	.text.unlikely.radio_tx_power_set
.LCOLDE6:
	.section	.text.radio_tx_power_set
.LHOTE6:
	.section	.text.unlikely.radio_freq_chan_set,"ax",@progbits
.LCOLDB7:
	.section	.text.radio_freq_chan_set,"ax",@progbits
.LHOTB7:
	.globl	radio_freq_chan_set
	.type	radio_freq_chan_set, @function
radio_freq_chan_set:
.LFB182:
	.loc 1 4040 0
	.cfi_startproc
.LVL27:
	pushl	%ebp
	.cfi_def_cfa_offset 8
	.cfi_offset 5, -8
	movl	%esp, %ebp
	.cfi_def_cfa_register 5
	.loc 1 4041 0
	movl	8(%ebp), %eax
	movl	%eax, 1073747208
	.loc 1 4042 0
	popl	%ebp
	.cfi_restore 5
	.cfi_def_cfa 4, 4
	ret
	.cfi_endproc
.LFE182:
	.size	radio_freq_chan_set, .-radio_freq_chan_set
	.section	.text.unlikely.radio_freq_chan_set
.LCOLDE7:
	.section	.text.radio_freq_chan_set
.LHOTE7:
	.section	.text.unlikely.radio_whiten_iv_set,"ax",@progbits
.LCOLDB8:
	.section	.text.radio_whiten_iv_set,"ax",@progbits
.LHOTB8:
	.globl	radio_whiten_iv_set
	.type	radio_whiten_iv_set, @function
radio_whiten_iv_set:
.LFB183:
	.loc 1 4044 0
	.cfi_startproc
.LVL28:
	pushl	%ebp
	.cfi_def_cfa_offset 8
	.cfi_offset 5, -8
	movl	%esp, %ebp
	.cfi_def_cfa_register 5
	.loc 1 4045 0
	movl	8(%ebp), %eax
	movl	%eax, 1073747284
	.loc 1 4046 0
	movl	1073747224, %eax
	andl	$-33554433, %eax
	movl	%eax, 1073747224
	.loc 1 4047 0
	movl	1073747224, %eax
	orl	$33554432, %eax
	movl	%eax, 1073747224
	.loc 1 4049 0
	popl	%ebp
	.cfi_restore 5
	.cfi_def_cfa 4, 4
	ret
	.cfi_endproc
.LFE183:
	.size	radio_whiten_iv_set, .-radio_whiten_iv_set
	.section	.text.unlikely.radio_whiten_iv_set
.LCOLDE8:
	.section	.text.radio_whiten_iv_set
.LHOTE8:
	.section	.text.unlikely.radio_aa_set,"ax",@progbits
.LCOLDB9:
	.section	.text.radio_aa_set,"ax",@progbits
.LHOTB9:
	.globl	radio_aa_set
	.type	radio_aa_set, @function
radio_aa_set:
.LFB184:
	.loc 1 4051 0
	.cfi_startproc
.LVL29:
	pushl	%ebp
	.cfi_def_cfa_offset 8
	.cfi_offset 5, -8
	movl	%esp, %ebp
	.cfi_def_cfa_register 5
	.loc 1 4051 0
	movl	8(%ebp), %edx
	.loc 1 4052 0
	movl	$0, 1073747244
	.loc 1 4055 0
	movl	$1, 1073747248
	.loc 1 4057 0
	movzbl	3(%edx), %eax
	movl	%eax, 1073747236
	.loc 1 4058 0
	movzbl	2(%edx), %eax
	sall	$24, %eax
	movl	%eax, %ecx
	movzbl	1(%edx), %eax
	movzbl	(%edx), %edx
	sall	$16, %eax
	sall	$8, %edx
	orl	%ecx, %eax
	orl	%edx, %eax
	movl	%eax, 1073747228
	.loc 1 4059 0
	popl	%ebp
	.cfi_restore 5
	.cfi_def_cfa 4, 4
	ret
	.cfi_endproc
.LFE184:
	.size	radio_aa_set, .-radio_aa_set
	.section	.text.unlikely.radio_aa_set
.LCOLDE9:
	.section	.text.radio_aa_set
.LHOTE9:
	.section	.text.unlikely.radio_pkt_configure,"ax",@progbits
.LCOLDB10:
	.section	.text.radio_pkt_configure,"ax",@progbits
.LHOTB10:
	.globl	radio_pkt_configure
	.type	radio_pkt_configure, @function
radio_pkt_configure:
.LFB185:
	.loc 1 4061 0
	.cfi_startproc
.LVL30:
	pushl	%ebp
	.cfi_def_cfa_offset 8
	.cfi_offset 5, -8
	movl	%esp, %ebp
	.cfi_def_cfa_register 5
	pushl	%esi
	pushl	%ebx
	.cfi_offset 6, -12
	.cfi_offset 3, -16
	.loc 1 4061 0
	movl	16(%ebp), %ebx
.LVL31:
	.loc 1 4070 0
	movl	$16777216, %esi
	.loc 1 4061 0
	movl	8(%ebp), %edx
	movl	12(%ebp), %ecx
	.loc 1 4067 0
	movb	%bl, %al
	shrb	%al
	.loc 1 4091 0
	movzbl	%cl, %ecx
	.loc 1 4067 0
	andl	$7, %eax
	.loc 1 4070 0
	cmpb	$2, %al
	movl	$0, %eax
	cmove	%esi, %eax
.LVL32:
	.loc 1 4079 0
	movl	%eax, %esi
	orl	$1048576, %esi
	andb	$1, %bl
.LVL33:
	.loc 1 4087 0
	movl	$8, %ebx
.LVL34:
	.loc 1 4079 0
	cmovne	%esi, %eax
.LVL35:
	.loc 1 4087 0
	movzbl	%dl, %esi
	andl	$15, %edx
	subl	%esi, %ebx
	orb	$1, %dh
	sall	$16, %ebx
	andl	$983040, %ebx
	orl	%ebx, %edx
	orl	%edx, %eax
.LVL36:
	.loc 1 4082 0
	movl	%eax, 1073747220
.LVL37:
	.loc 1 4089 0
	movl	1073747224, %eax
	andl	$-17301504, %eax
	movl	%eax, 1073747224
	.loc 1 4091 0
	movl	1073747224, %eax
	orl	$196608, %eax
	orl	%eax, %ecx
	movl	%ecx, 1073747224
	.loc 1 4100 0
	popl	%ebx
	.cfi_restore 3
	popl	%esi
	.cfi_restore 6
	popl	%ebp
	.cfi_restore 5
	.cfi_def_cfa 4, 4
	ret
	.cfi_endproc
.LFE185:
	.size	radio_pkt_configure, .-radio_pkt_configure
	.section	.text.unlikely.radio_pkt_configure
.LCOLDE10:
	.section	.text.radio_pkt_configure
.LHOTE10:
	.section	.text.unlikely.radio_pkt_rx_set,"ax",@progbits
.LCOLDB11:
	.section	.text.radio_pkt_rx_set,"ax",@progbits
.LHOTB11:
	.globl	radio_pkt_rx_set
	.type	radio_pkt_rx_set, @function
radio_pkt_rx_set:
.LFB245:
	.cfi_startproc
	pushl	%ebp
	.cfi_def_cfa_offset 8
	.cfi_offset 5, -8
	movl	%esp, %ebp
	.cfi_def_cfa_register 5
	movl	8(%ebp), %eax
	movl	%eax, 1073747204
	popl	%ebp
	.cfi_restore 5
	.cfi_def_cfa 4, 4
	ret
	.cfi_endproc
.LFE245:
	.size	radio_pkt_rx_set, .-radio_pkt_rx_set
	.section	.text.unlikely.radio_pkt_rx_set
.LCOLDE11:
	.section	.text.radio_pkt_rx_set
.LHOTE11:
	.section	.text.unlikely.radio_pkt_tx_set,"ax",@progbits
.LCOLDB12:
	.section	.text.radio_pkt_tx_set,"ax",@progbits
.LHOTB12:
	.globl	radio_pkt_tx_set
	.type	radio_pkt_tx_set, @function
radio_pkt_tx_set:
.LFB187:
	.loc 1 4106 0
	.cfi_startproc
.LVL38:
	.loc 1 4106 0
	pushl	%ebp
	.cfi_def_cfa_offset 8
	.cfi_offset 5, -8
	movl	%esp, %ebp
	.cfi_def_cfa_register 5
	.loc 1 4107 0
	movl	8(%ebp), %eax
	movl	%eax, 1073747204
	.loc 1 4108 0
	popl	%ebp
	.cfi_restore 5
	.cfi_def_cfa 4, 4
	ret
	.cfi_endproc
.LFE187:
	.size	radio_pkt_tx_set, .-radio_pkt_tx_set
	.section	.text.unlikely.radio_pkt_tx_set
.LCOLDE12:
	.section	.text.radio_pkt_tx_set
.LHOTE12:
	.section	.text.unlikely.radio_tx_ready_delay_get,"ax",@progbits
.LCOLDB13:
	.section	.text.radio_tx_ready_delay_get,"ax",@progbits
.LHOTB13:
	.globl	radio_tx_ready_delay_get
	.type	radio_tx_ready_delay_get, @function
radio_tx_ready_delay_get:
.LFB188:
	.loc 1 4110 0
	.cfi_startproc
.LVL39:
	pushl	%ebp
	.cfi_def_cfa_offset 8
	.cfi_offset 5, -8
	.loc 1 4112 0
	movl	$131, %eax
	.loc 1 4110 0
	movl	%esp, %ebp
	.cfi_def_cfa_register 5
	.loc 1 4112 0
	popl	%ebp
	.cfi_restore 5
	.cfi_def_cfa 4, 4
	ret
	.cfi_endproc
.LFE188:
	.size	radio_tx_ready_delay_get, .-radio_tx_ready_delay_get
	.section	.text.unlikely.radio_tx_ready_delay_get
.LCOLDE13:
	.section	.text.radio_tx_ready_delay_get
.LHOTE13:
	.section	.text.unlikely.radio_tx_chain_delay_get,"ax",@progbits
.LCOLDB14:
	.section	.text.radio_tx_chain_delay_get,"ax",@progbits
.LHOTB14:
	.globl	radio_tx_chain_delay_get
	.type	radio_tx_chain_delay_get, @function
radio_tx_chain_delay_get:
.LFB189:
	.loc 1 4114 0
	.cfi_startproc
.LVL40:
	pushl	%ebp
	.cfi_def_cfa_offset 8
	.cfi_offset 5, -8
	.loc 1 4116 0
	movl	$1, %eax
	.loc 1 4114 0
	movl	%esp, %ebp
	.cfi_def_cfa_register 5
	.loc 1 4116 0
	popl	%ebp
	.cfi_restore 5
	.cfi_def_cfa 4, 4
	ret
	.cfi_endproc
.LFE189:
	.size	radio_tx_chain_delay_get, .-radio_tx_chain_delay_get
	.section	.text.unlikely.radio_tx_chain_delay_get
.LCOLDE14:
	.section	.text.radio_tx_chain_delay_get
.LHOTE14:
	.section	.text.unlikely.radio_rx_ready_delay_get,"ax",@progbits
.LCOLDB15:
	.section	.text.radio_rx_ready_delay_get,"ax",@progbits
.LHOTB15:
	.globl	radio_rx_ready_delay_get
	.type	radio_rx_ready_delay_get, @function
radio_rx_ready_delay_get:
.LFB190:
	.loc 1 4118 0
	.cfi_startproc
.LVL41:
	pushl	%ebp
	.cfi_def_cfa_offset 8
	.cfi_offset 5, -8
	.loc 1 4120 0
	movl	$130, %eax
	.loc 1 4118 0
	movl	%esp, %ebp
	.cfi_def_cfa_register 5
	.loc 1 4120 0
	popl	%ebp
	.cfi_restore 5
	.cfi_def_cfa 4, 4
	ret
	.cfi_endproc
.LFE190:
	.size	radio_rx_ready_delay_get, .-radio_rx_ready_delay_get
	.section	.text.unlikely.radio_rx_ready_delay_get
.LCOLDE15:
	.section	.text.radio_rx_ready_delay_get
.LHOTE15:
	.section	.text.unlikely.radio_rx_chain_delay_get,"ax",@progbits
.LCOLDB16:
	.section	.text.radio_rx_chain_delay_get,"ax",@progbits
.LHOTB16:
	.globl	radio_rx_chain_delay_get
	.type	radio_rx_chain_delay_get, @function
radio_rx_chain_delay_get:
.LFB191:
	.loc 1 4122 0
	.cfi_startproc
.LVL42:
	pushl	%ebp
	.cfi_def_cfa_offset 8
	.cfi_offset 5, -8
	.loc 1 4126 0
	xorl	%eax, %eax
	.loc 1 4122 0
	movl	%esp, %ebp
	.cfi_def_cfa_register 5
	.loc 1 4126 0
	cmpb	$2, 8(%ebp)
	.loc 1 4130 0
	popl	%ebp
	.cfi_restore 5
	.cfi_def_cfa 4, 4
	.loc 1 4126 0
	setne	%al
	leal	5(%eax,%eax,4), %eax
	.loc 1 4130 0
	ret
	.cfi_endproc
.LFE191:
	.size	radio_rx_chain_delay_get, .-radio_rx_chain_delay_get
	.section	.text.unlikely.radio_rx_chain_delay_get
.LCOLDE16:
	.section	.text.radio_rx_chain_delay_get
.LHOTE16:
	.section	.text.unlikely.radio_rx_enable,"ax",@progbits
.LCOLDB17:
	.section	.text.radio_rx_enable,"ax",@progbits
.LHOTB17:
	.globl	radio_rx_enable
	.type	radio_rx_enable, @function
radio_rx_enable:
.LFB192:
	.loc 1 4132 0
	.cfi_startproc
	pushl	%ebp
	.cfi_def_cfa_offset 8
	.cfi_offset 5, -8
	.loc 1 4133 0
	movl	$1, 1073745924
	.loc 1 4132 0
	movl	%esp, %ebp
	.cfi_def_cfa_register 5
	.loc 1 4134 0
	popl	%ebp
	.cfi_restore 5
	.cfi_def_cfa 4, 4
	ret
	.cfi_endproc
.LFE192:
	.size	radio_rx_enable, .-radio_rx_enable
	.section	.text.unlikely.radio_rx_enable
.LCOLDE17:
	.section	.text.radio_rx_enable
.LHOTE17:
	.section	.text.unlikely.radio_tx_enable,"ax",@progbits
.LCOLDB18:
	.section	.text.radio_tx_enable,"ax",@progbits
.LHOTB18:
	.globl	radio_tx_enable
	.type	radio_tx_enable, @function
radio_tx_enable:
.LFB193:
	.loc 1 4136 0
	.cfi_startproc
	pushl	%ebp
	.cfi_def_cfa_offset 8
	.cfi_offset 5, -8
	.loc 1 4137 0
	movl	$1, 1073745920
	.loc 1 4136 0
	movl	%esp, %ebp
	.cfi_def_cfa_register 5
	.loc 1 4138 0
	popl	%ebp
	.cfi_restore 5
	.cfi_def_cfa 4, 4
	ret
	.cfi_endproc
.LFE193:
	.size	radio_tx_enable, .-radio_tx_enable
	.section	.text.unlikely.radio_tx_enable
.LCOLDE18:
	.section	.text.radio_tx_enable
.LHOTE18:
	.section	.text.unlikely.radio_disable,"ax",@progbits
.LCOLDB19:
	.section	.text.radio_disable,"ax",@progbits
.LHOTB19:
	.globl	radio_disable
	.type	radio_disable, @function
radio_disable:
.LFB194:
	.loc 1 4140 0
	.cfi_startproc
	pushl	%ebp
	.cfi_def_cfa_offset 8
	.cfi_offset 5, -8
	.loc 1 4141 0
	movl	$1152, 1073870088
	.loc 1 4142 0
	movl	$1, 1073868804
	.loc 1 4143 0
	movl	$1, 1073868812
	.loc 1 4140 0
	movl	%esp, %ebp
	.cfi_def_cfa_register 5
	.loc 1 4144 0
	movl	$0, 1073746432
	.loc 1 4145 0
	movl	$1, 1073745936
	.loc 1 4146 0
	popl	%ebp
	.cfi_restore 5
	.cfi_def_cfa 4, 4
	ret
	.cfi_endproc
.LFE194:
	.size	radio_disable, .-radio_disable
	.section	.text.unlikely.radio_disable
.LCOLDE19:
	.section	.text.radio_disable
.LHOTE19:
	.section	.text.unlikely.radio_status_reset,"ax",@progbits
.LCOLDB20:
	.section	.text.radio_status_reset,"ax",@progbits
.LHOTB20:
	.globl	radio_status_reset
	.type	radio_status_reset, @function
radio_status_reset:
.LFB195:
	.loc 1 4148 0
	.cfi_startproc
	pushl	%ebp
	.cfi_def_cfa_offset 8
	.cfi_offset 5, -8
	.loc 1 4149 0
	movl	$0, 1073746176
	.loc 1 4150 0
	movl	$0, 1073746180
	.loc 1 4151 0
	movl	$0, 1073746184
	.loc 1 4148 0
	movl	%esp, %ebp
	.cfi_def_cfa_register 5
	.loc 1 4152 0
	movl	$0, 1073746188
	.loc 1 4153 0
	movl	$0, 1073746192
	.loc 1 4154 0
	popl	%ebp
	.cfi_restore 5
	.cfi_def_cfa 4, 4
	ret
	.cfi_endproc
.LFE195:
	.size	radio_status_reset, .-radio_status_reset
	.section	.text.unlikely.radio_status_reset
.LCOLDE20:
	.section	.text.radio_status_reset
.LHOTE20:
	.section	.text.unlikely.radio_is_ready,"ax",@progbits
.LCOLDB21:
	.section	.text.radio_is_ready,"ax",@progbits
.LHOTB21:
	.globl	radio_is_ready
	.type	radio_is_ready, @function
radio_is_ready:
.LFB196:
	.loc 1 4156 0
	.cfi_startproc
	pushl	%ebp
	.cfi_def_cfa_offset 8
	.cfi_offset 5, -8
	.loc 1 4157 0
	movl	1073746176, %eax
	.loc 1 4156 0
	movl	%esp, %ebp
	.cfi_def_cfa_register 5
	.loc 1 4157 0
	testl	%eax, %eax
	setne	%al
	movzbl	%al, %eax
	.loc 1 4158 0
	popl	%ebp
	.cfi_restore 5
	.cfi_def_cfa 4, 4
	ret
	.cfi_endproc
.LFE196:
	.size	radio_is_ready, .-radio_is_ready
	.section	.text.unlikely.radio_is_ready
.LCOLDE21:
	.section	.text.radio_is_ready
.LHOTE21:
	.section	.text.unlikely.radio_is_done,"ax",@progbits
.LCOLDB22:
	.section	.text.radio_is_done,"ax",@progbits
.LHOTB22:
	.globl	radio_is_done
	.type	radio_is_done, @function
radio_is_done:
.LFB197:
	.loc 1 4160 0
	.cfi_startproc
	pushl	%ebp
	.cfi_def_cfa_offset 8
	.cfi_offset 5, -8
	.loc 1 4161 0
	movl	1073746188, %eax
	.loc 1 4160 0
	movl	%esp, %ebp
	.cfi_def_cfa_register 5
	.loc 1 4161 0
	testl	%eax, %eax
	setne	%al
	movzbl	%al, %eax
	.loc 1 4162 0
	popl	%ebp
	.cfi_restore 5
	.cfi_def_cfa 4, 4
	ret
	.cfi_endproc
.LFE197:
	.size	radio_is_done, .-radio_is_done
	.section	.text.unlikely.radio_is_done
.LCOLDE22:
	.section	.text.radio_is_done
.LHOTE22:
	.section	.text.unlikely.radio_has_disabled,"ax",@progbits
.LCOLDB23:
	.section	.text.radio_has_disabled,"ax",@progbits
.LHOTB23:
	.globl	radio_has_disabled
	.type	radio_has_disabled, @function
radio_has_disabled:
.LFB198:
	.loc 1 4164 0
	.cfi_startproc
	pushl	%ebp
	.cfi_def_cfa_offset 8
	.cfi_offset 5, -8
	.loc 1 4165 0
	movl	1073746192, %eax
	.loc 1 4164 0
	movl	%esp, %ebp
	.cfi_def_cfa_register 5
	.loc 1 4165 0
	testl	%eax, %eax
	setne	%al
	movzbl	%al, %eax
	.loc 1 4166 0
	popl	%ebp
	.cfi_restore 5
	.cfi_def_cfa 4, 4
	ret
	.cfi_endproc
.LFE198:
	.size	radio_has_disabled, .-radio_has_disabled
	.section	.text.unlikely.radio_has_disabled
.LCOLDE23:
	.section	.text.radio_has_disabled
.LHOTE23:
	.section	.text.unlikely.radio_is_idle,"ax",@progbits
.LCOLDB24:
	.section	.text.radio_is_idle,"ax",@progbits
.LHOTB24:
	.globl	radio_is_idle
	.type	radio_is_idle, @function
radio_is_idle:
.LFB199:
	.loc 1 4168 0
	.cfi_startproc
	pushl	%ebp
	.cfi_def_cfa_offset 8
	.cfi_offset 5, -8
	.loc 1 4169 0
	movl	1073747280, %eax
	.loc 1 4168 0
	movl	%esp, %ebp
	.cfi_def_cfa_register 5
	.loc 1 4169 0
	testl	%eax, %eax
	sete	%al
	movzbl	%al, %eax
	.loc 1 4170 0
	popl	%ebp
	.cfi_restore 5
	.cfi_def_cfa 4, 4
	ret
	.cfi_endproc
.LFE199:
	.size	radio_is_idle, .-radio_is_idle
	.section	.text.unlikely.radio_is_idle
.LCOLDE24:
	.section	.text.radio_is_idle
.LHOTE24:
	.section	.text.unlikely.radio_crc_configure,"ax",@progbits
.LCOLDB25:
	.section	.text.radio_crc_configure,"ax",@progbits
.LHOTB25:
	.globl	radio_crc_configure
	.type	radio_crc_configure, @function
radio_crc_configure:
.LFB200:
	.loc 1 4172 0
	.cfi_startproc
.LVL43:
	pushl	%ebp
	.cfi_def_cfa_offset 8
	.cfi_offset 5, -8
	.loc 1 4173 0
	movl	$259, 1073747252
	.loc 1 4172 0
	movl	%esp, %ebp
	.cfi_def_cfa_register 5
	.loc 1 4178 0
	movl	8(%ebp), %eax
	movl	%eax, 1073747256
	.loc 1 4179 0
	movl	12(%ebp), %eax
	movl	%eax, 1073747260
	.loc 1 4180 0
	popl	%ebp
	.cfi_restore 5
	.cfi_def_cfa 4, 4
	ret
	.cfi_endproc
.LFE200:
	.size	radio_crc_configure, .-radio_crc_configure
	.section	.text.unlikely.radio_crc_configure
.LCOLDE25:
	.section	.text.radio_crc_configure
.LHOTE25:
	.section	.text.unlikely.radio_crc_is_valid,"ax",@progbits
.LCOLDB26:
	.section	.text.radio_crc_is_valid,"ax",@progbits
.LHOTB26:
	.globl	radio_crc_is_valid
	.type	radio_crc_is_valid, @function
radio_crc_is_valid:
.LFB201:
	.loc 1 4182 0
	.cfi_startproc
	pushl	%ebp
	.cfi_def_cfa_offset 8
	.cfi_offset 5, -8
	.loc 1 4183 0
	movl	1073746944, %eax
	.loc 1 4182 0
	movl	%esp, %ebp
	.cfi_def_cfa_register 5
	.loc 1 4183 0
	testl	%eax, %eax
	setne	%al
	movzbl	%al, %eax
	.loc 1 4184 0
	popl	%ebp
	.cfi_restore 5
	.cfi_def_cfa 4, 4
	ret
	.cfi_endproc
.LFE201:
	.size	radio_crc_is_valid, .-radio_crc_is_valid
	.section	.text.unlikely.radio_crc_is_valid
.LCOLDE26:
	.section	.text.radio_crc_is_valid
.LHOTE26:
	.section	.text.unlikely.radio_pkt_empty_get,"ax",@progbits
.LCOLDB27:
	.section	.text.radio_pkt_empty_get,"ax",@progbits
.LHOTB27:
	.globl	radio_pkt_empty_get
	.type	radio_pkt_empty_get, @function
radio_pkt_empty_get:
.LFB202:
	.loc 1 4208 0
	.cfi_startproc
	pushl	%ebp
	.cfi_def_cfa_offset 8
	.cfi_offset 5, -8
	.loc 1 4210 0
	movl	$_pkt_empty, %eax
	.loc 1 4208 0
	movl	%esp, %ebp
	.cfi_def_cfa_register 5
	.loc 1 4210 0
	popl	%ebp
	.cfi_restore 5
	.cfi_def_cfa 4, 4
	ret
	.cfi_endproc
.LFE202:
	.size	radio_pkt_empty_get, .-radio_pkt_empty_get
	.section	.text.unlikely.radio_pkt_empty_get
.LCOLDE27:
	.section	.text.radio_pkt_empty_get
.LHOTE27:
	.section	.text.unlikely.radio_pkt_scratch_get,"ax",@progbits
.LCOLDB28:
	.section	.text.radio_pkt_scratch_get,"ax",@progbits
.LHOTB28:
	.globl	radio_pkt_scratch_get
	.type	radio_pkt_scratch_get, @function
radio_pkt_scratch_get:
.LFB203:
	.loc 1 4212 0
	.cfi_startproc
	pushl	%ebp
	.cfi_def_cfa_offset 8
	.cfi_offset 5, -8
	.loc 1 4214 0
	movl	$_pkt_scratch, %eax
	.loc 1 4212 0
	movl	%esp, %ebp
	.cfi_def_cfa_register 5
	.loc 1 4214 0
	popl	%ebp
	.cfi_restore 5
	.cfi_def_cfa 4, 4
	ret
	.cfi_endproc
.LFE203:
	.size	radio_pkt_scratch_get, .-radio_pkt_scratch_get
	.section	.text.unlikely.radio_pkt_scratch_get
.LCOLDE28:
	.section	.text.radio_pkt_scratch_get
.LHOTE28:
	.section	.text.unlikely.radio_switch_complete_and_rx,"ax",@progbits
.LCOLDB29:
	.section	.text.radio_switch_complete_and_rx,"ax",@progbits
.LHOTB29:
	.globl	radio_switch_complete_and_rx
	.type	radio_switch_complete_and_rx, @function
radio_switch_complete_and_rx:
.LFB205:
	.loc 1 4246 0
	.cfi_startproc
.LVL44:
	pushl	%ebp
	.cfi_def_cfa_offset 8
	.cfi_offset 5, -8
	.loc 1 4249 0
	xorl	%edx, %edx
	xorl	%ecx, %ecx
	.loc 1 4246 0
	movl	%esp, %ebp
	.cfi_def_cfa_register 5
	.loc 1 4246 0
	movl	8(%ebp), %eax
	.loc 1 4247 0
	movl	$3, 1073746432
.LVL45:
	.loc 1 4249 0
	pushl	$0
	movzbl	%al, %eax
	pushl	%eax
	xorl	%eax, %eax
	call	sw_switch
.LVL46:
	.loc 1 4250 0
	popl	%eax
	popl	%edx
	leave
	.cfi_restore 5
	.cfi_def_cfa 4, 4
	ret
	.cfi_endproc
.LFE205:
	.size	radio_switch_complete_and_rx, .-radio_switch_complete_and_rx
	.section	.text.unlikely.radio_switch_complete_and_rx
.LCOLDE29:
	.section	.text.radio_switch_complete_and_rx
.LHOTE29:
	.section	.text.unlikely.radio_switch_complete_and_tx,"ax",@progbits
.LCOLDB30:
	.section	.text.radio_switch_complete_and_tx,"ax",@progbits
.LHOTB30:
	.globl	radio_switch_complete_and_tx
	.type	radio_switch_complete_and_tx, @function
radio_switch_complete_and_tx:
.LFB206:
	.loc 1 4253 0
	.cfi_startproc
.LVL47:
	pushl	%ebp
	.cfi_def_cfa_offset 8
	.cfi_offset 5, -8
	movl	%esp, %ebp
	.cfi_def_cfa_register 5
	pushl	%ebx
	.cfi_offset 3, -12
	.loc 1 4253 0
	movl	16(%ebp), %eax
	movl	20(%ebp), %ebx
	movl	8(%ebp), %edx
	movl	12(%ebp), %ecx
	.loc 1 4254 0
	movl	$3, 1073746432
.LVL48:
	.loc 1 4256 0
	movzbl	%bl, %ebx
	movzbl	%al, %eax
	movl	%ebx, 12(%ebp)
	movl	%eax, 8(%ebp)
	movzbl	%cl, %ecx
	.loc 1 4257 0
	popl	%ebx
	.cfi_restore 3
	popl	%ebp
	.cfi_restore 5
	.cfi_def_cfa 4, 4
	.loc 1 4256 0
	movzbl	%dl, %edx
	movl	$1, %eax
	jmp	sw_switch
.LVL49:
	.cfi_endproc
.LFE206:
	.size	radio_switch_complete_and_tx, .-radio_switch_complete_and_tx
	.section	.text.unlikely.radio_switch_complete_and_tx
.LCOLDE30:
	.section	.text.radio_switch_complete_and_tx
.LHOTE30:
	.section	.text.unlikely.radio_switch_complete_and_disable,"ax",@progbits
.LCOLDB31:
	.section	.text.radio_switch_complete_and_disable,"ax",@progbits
.LHOTB31:
	.globl	radio_switch_complete_and_disable
	.type	radio_switch_complete_and_disable, @function
radio_switch_complete_and_disable:
.LFB207:
	.loc 1 4259 0
	.cfi_startproc
	pushl	%ebp
	.cfi_def_cfa_offset 8
	.cfi_offset 5, -8
	.loc 1 4260 0
	movl	$3, 1073746432
	.loc 1 4262 0
	movl	$1152, 1073870088
	.loc 1 4259 0
	movl	%esp, %ebp
	.cfi_def_cfa_register 5
	.loc 1 4263 0
	popl	%ebp
	.cfi_restore 5
	.cfi_def_cfa 4, 4
	ret
	.cfi_endproc
.LFE207:
	.size	radio_switch_complete_and_disable, .-radio_switch_complete_and_disable
	.section	.text.unlikely.radio_switch_complete_and_disable
.LCOLDE31:
	.section	.text.radio_switch_complete_and_disable
.LHOTE31:
	.section	.text.unlikely.radio_rssi_measure,"ax",@progbits
.LCOLDB32:
	.section	.text.radio_rssi_measure,"ax",@progbits
.LHOTB32:
	.globl	radio_rssi_measure
	.type	radio_rssi_measure, @function
radio_rssi_measure:
.LFB208:
	.loc 1 4265 0
	.cfi_startproc
	pushl	%ebp
	.cfi_def_cfa_offset 8
	.cfi_offset 5, -8
	.loc 1 4266 0
	movl	1073746432, %eax
	.loc 1 4265 0
	movl	%esp, %ebp
	.cfi_def_cfa_register 5
	.loc 1 4266 0
	orl	$272, %eax
	movl	%eax, 1073746432
	.loc 1 4269 0
	popl	%ebp
	.cfi_restore 5
	.cfi_def_cfa 4, 4
	ret
	.cfi_endproc
.LFE208:
	.size	radio_rssi_measure, .-radio_rssi_measure
	.section	.text.unlikely.radio_rssi_measure
.LCOLDE32:
	.section	.text.radio_rssi_measure
.LHOTE32:
	.section	.text.unlikely.radio_rssi_get,"ax",@progbits
.LCOLDB33:
	.section	.text.radio_rssi_get,"ax",@progbits
.LHOTB33:
	.globl	radio_rssi_get
	.type	radio_rssi_get, @function
radio_rssi_get:
.LFB209:
	.loc 1 4271 0
	.cfi_startproc
	pushl	%ebp
	.cfi_def_cfa_offset 8
	.cfi_offset 5, -8
	.loc 1 4272 0
	movl	1073747272, %eax
	.loc 1 4271 0
	movl	%esp, %ebp
	.cfi_def_cfa_register 5
	.loc 1 4273 0
	popl	%ebp
	.cfi_restore 5
	.cfi_def_cfa 4, 4
	ret
	.cfi_endproc
.LFE209:
	.size	radio_rssi_get, .-radio_rssi_get
	.section	.text.unlikely.radio_rssi_get
.LCOLDE33:
	.section	.text.radio_rssi_get
.LHOTE33:
	.section	.text.unlikely.radio_rssi_status_reset,"ax",@progbits
.LCOLDB34:
	.section	.text.radio_rssi_status_reset,"ax",@progbits
.LHOTB34:
	.globl	radio_rssi_status_reset
	.type	radio_rssi_status_reset, @function
radio_rssi_status_reset:
.LFB210:
	.loc 1 4275 0
	.cfi_startproc
	pushl	%ebp
	.cfi_def_cfa_offset 8
	.cfi_offset 5, -8
	.loc 1 4276 0
	movl	$0, 1073746204
	.loc 1 4275 0
	movl	%esp, %ebp
	.cfi_def_cfa_register 5
	.loc 1 4277 0
	popl	%ebp
	.cfi_restore 5
	.cfi_def_cfa 4, 4
	ret
	.cfi_endproc
.LFE210:
	.size	radio_rssi_status_reset, .-radio_rssi_status_reset
	.section	.text.unlikely.radio_rssi_status_reset
.LCOLDE34:
	.section	.text.radio_rssi_status_reset
.LHOTE34:
	.section	.text.unlikely.radio_rssi_is_ready,"ax",@progbits
.LCOLDB35:
	.section	.text.radio_rssi_is_ready,"ax",@progbits
.LHOTB35:
	.globl	radio_rssi_is_ready
	.type	radio_rssi_is_ready, @function
radio_rssi_is_ready:
.LFB211:
	.loc 1 4279 0
	.cfi_startproc
	pushl	%ebp
	.cfi_def_cfa_offset 8
	.cfi_offset 5, -8
	.loc 1 4280 0
	movl	1073746204, %eax
	.loc 1 4279 0
	movl	%esp, %ebp
	.cfi_def_cfa_register 5
	.loc 1 4280 0
	testl	%eax, %eax
	setne	%al
	movzbl	%al, %eax
	.loc 1 4281 0
	popl	%ebp
	.cfi_restore 5
	.cfi_def_cfa 4, 4
	ret
	.cfi_endproc
.LFE211:
	.size	radio_rssi_is_ready, .-radio_rssi_is_ready
	.section	.text.unlikely.radio_rssi_is_ready
.LCOLDE35:
	.section	.text.radio_rssi_is_ready
.LHOTE35:
	.section	.text.unlikely.radio_filter_configure,"ax",@progbits
.LCOLDB36:
	.section	.text.radio_filter_configure,"ax",@progbits
.LHOTB36:
	.globl	radio_filter_configure
	.type	radio_filter_configure, @function
radio_filter_configure:
.LFB212:
	.loc 1 4284 0
	.cfi_startproc
.LVL50:
	pushl	%ebp
	.cfi_def_cfa_offset 8
	.cfi_offset 5, -8
	xorl	%ecx, %ecx
	movl	%esp, %ebp
	.cfi_def_cfa_register 5
	pushl	%edi
	pushl	%esi
	movl	8(%ebp), %edx
	pushl	%ebx
	.cfi_offset 7, -12
	.cfi_offset 6, -16
	.cfi_offset 3, -20
	.loc 1 4284 0
	movl	12(%ebp), %eax
	movl	16(%ebp), %ebx
.LVL51:
.L95:
	.loc 1 4289 0 discriminator 3
	movl	(%ebx), %edi
	leal	1073745920(,%ecx,4), %esi
	incl	%ecx
.LVL52:
	.loc 1 4292 0 discriminator 3
	addl	$6, %ebx
.LVL53:
	.loc 1 4287 0 discriminator 3
	movl	%edi, 1536(%esi)
	.loc 1 4291 0 discriminator 3
	movzwl	-2(%ebx), %edi
.LVL54:
	.loc 1 4286 0 discriminator 3
	cmpl	$8, %ecx
	.loc 1 4291 0 discriminator 3
	movl	%edi, 1568(%esi)
	.loc 1 4286 0 discriminator 3
	jne	.L95
	.loc 1 4294 0
	movzbl	%al, %eax
	movzbl	%dl, %edx
	sall	$8, %eax
	orl	%edx, %eax
	movl	%eax, 1073747520
.LVL55:
	.loc 1 4295 0
	popl	%ebx
	.cfi_restore 3
.LVL56:
	popl	%esi
	.cfi_restore 6
	popl	%edi
	.cfi_restore 7
	popl	%ebp
	.cfi_restore 5
	.cfi_def_cfa 4, 4
	ret
	.cfi_endproc
.LFE212:
	.size	radio_filter_configure, .-radio_filter_configure
	.section	.text.unlikely.radio_filter_configure
.LCOLDE36:
	.section	.text.radio_filter_configure
.LHOTE36:
	.section	.text.unlikely.radio_filter_disable,"ax",@progbits
.LCOLDB37:
	.section	.text.radio_filter_disable,"ax",@progbits
.LHOTB37:
	.globl	radio_filter_disable
	.type	radio_filter_disable, @function
radio_filter_disable:
.LFB213:
	.loc 1 4297 0
	.cfi_startproc
	pushl	%ebp
	.cfi_def_cfa_offset 8
	.cfi_offset 5, -8
	.loc 1 4298 0
	movl	1073747520, %eax
	.loc 1 4297 0
	movl	%esp, %ebp
	.cfi_def_cfa_register 5
	.loc 1 4298 0
	xorb	%al, %al
	movl	%eax, 1073747520
	.loc 1 4299 0
	popl	%ebp
	.cfi_restore 5
	.cfi_def_cfa 4, 4
	ret
	.cfi_endproc
.LFE213:
	.size	radio_filter_disable, .-radio_filter_disable
	.section	.text.unlikely.radio_filter_disable
.LCOLDE37:
	.section	.text.radio_filter_disable
.LHOTE37:
	.section	.text.unlikely.radio_filter_status_reset,"ax",@progbits
.LCOLDB38:
	.section	.text.radio_filter_status_reset,"ax",@progbits
.LHOTB38:
	.globl	radio_filter_status_reset
	.type	radio_filter_status_reset, @function
radio_filter_status_reset:
.LFB214:
	.loc 1 4301 0
	.cfi_startproc
	pushl	%ebp
	.cfi_def_cfa_offset 8
	.cfi_offset 5, -8
	.loc 1 4302 0
	movl	$0, 1073746196
	.loc 1 4303 0
	movl	$0, 1073746200
	.loc 1 4301 0
	movl	%esp, %ebp
	.cfi_def_cfa_register 5
	.loc 1 4304 0
	popl	%ebp
	.cfi_restore 5
	.cfi_def_cfa 4, 4
	ret
	.cfi_endproc
.LFE214:
	.size	radio_filter_status_reset, .-radio_filter_status_reset
	.section	.text.unlikely.radio_filter_status_reset
.LCOLDE38:
	.section	.text.radio_filter_status_reset
.LHOTE38:
	.section	.text.unlikely.radio_filter_has_match,"ax",@progbits
.LCOLDB39:
	.section	.text.radio_filter_has_match,"ax",@progbits
.LHOTB39:
	.globl	radio_filter_has_match
	.type	radio_filter_has_match, @function
radio_filter_has_match:
.LFB215:
	.loc 1 4306 0
	.cfi_startproc
	pushl	%ebp
	.cfi_def_cfa_offset 8
	.cfi_offset 5, -8
	.loc 1 4307 0
	movl	1073746196, %eax
	.loc 1 4306 0
	movl	%esp, %ebp
	.cfi_def_cfa_register 5
	.loc 1 4307 0
	testl	%eax, %eax
	setne	%al
	movzbl	%al, %eax
	.loc 1 4308 0
	popl	%ebp
	.cfi_restore 5
	.cfi_def_cfa 4, 4
	ret
	.cfi_endproc
.LFE215:
	.size	radio_filter_has_match, .-radio_filter_has_match
	.section	.text.unlikely.radio_filter_has_match
.LCOLDE39:
	.section	.text.radio_filter_has_match
.LHOTE39:
	.section	.text.unlikely.radio_filter_match_get,"ax",@progbits
.LCOLDB40:
	.section	.text.radio_filter_match_get,"ax",@progbits
.LHOTB40:
	.globl	radio_filter_match_get
	.type	radio_filter_match_get, @function
radio_filter_match_get:
.LFB216:
	.loc 1 4310 0
	.cfi_startproc
	pushl	%ebp
	.cfi_def_cfa_offset 8
	.cfi_offset 5, -8
	.loc 1 4311 0
	movl	1073746960, %eax
	.loc 1 4310 0
	movl	%esp, %ebp
	.cfi_def_cfa_register 5
	.loc 1 4312 0
	popl	%ebp
	.cfi_restore 5
	.cfi_def_cfa 4, 4
	ret
	.cfi_endproc
.LFE216:
	.size	radio_filter_match_get, .-radio_filter_match_get
	.section	.text.unlikely.radio_filter_match_get
.LCOLDE40:
	.section	.text.radio_filter_match_get
.LHOTE40:
	.section	.text.unlikely.radio_bc_configure,"ax",@progbits
.LCOLDB41:
	.section	.text.radio_bc_configure,"ax",@progbits
.LHOTB41:
	.globl	radio_bc_configure
	.type	radio_bc_configure, @function
radio_bc_configure:
.LFB217:
	.loc 1 4314 0
	.cfi_startproc
.LVL57:
	pushl	%ebp
	.cfi_def_cfa_offset 8
	.cfi_offset 5, -8
	movl	%esp, %ebp
	.cfi_def_cfa_register 5
	.loc 1 4315 0
	movl	8(%ebp), %eax
	movl	%eax, 1073747296
	.loc 1 4316 0
	movl	1073746432, %eax
	orl	$64, %eax
	movl	%eax, 1073746432
	.loc 1 4317 0
	popl	%ebp
	.cfi_restore 5
	.cfi_def_cfa 4, 4
	ret
	.cfi_endproc
.LFE217:
	.size	radio_bc_configure, .-radio_bc_configure
	.section	.text.unlikely.radio_bc_configure
.LCOLDE41:
	.section	.text.radio_bc_configure
.LHOTE41:
	.section	.text.unlikely.radio_bc_status_reset,"ax",@progbits
.LCOLDB42:
	.section	.text.radio_bc_status_reset,"ax",@progbits
.LHOTB42:
	.globl	radio_bc_status_reset
	.type	radio_bc_status_reset, @function
radio_bc_status_reset:
.LFB218:
	.loc 1 4319 0
	.cfi_startproc
	pushl	%ebp
	.cfi_def_cfa_offset 8
	.cfi_offset 5, -8
	.loc 1 4320 0
	movl	$0, 1073746216
	.loc 1 4319 0
	movl	%esp, %ebp
	.cfi_def_cfa_register 5
	.loc 1 4321 0
	popl	%ebp
	.cfi_restore 5
	.cfi_def_cfa 4, 4
	ret
	.cfi_endproc
.LFE218:
	.size	radio_bc_status_reset, .-radio_bc_status_reset
	.section	.text.unlikely.radio_bc_status_reset
.LCOLDE42:
	.section	.text.radio_bc_status_reset
.LHOTE42:
	.section	.text.unlikely.radio_bc_has_match,"ax",@progbits
.LCOLDB43:
	.section	.text.radio_bc_has_match,"ax",@progbits
.LHOTB43:
	.globl	radio_bc_has_match
	.type	radio_bc_has_match, @function
radio_bc_has_match:
.LFB219:
	.loc 1 4323 0
	.cfi_startproc
	pushl	%ebp
	.cfi_def_cfa_offset 8
	.cfi_offset 5, -8
	.loc 1 4324 0
	movl	1073746216, %eax
	.loc 1 4323 0
	movl	%esp, %ebp
	.cfi_def_cfa_register 5
	.loc 1 4324 0
	testl	%eax, %eax
	setne	%al
	movzbl	%al, %eax
	.loc 1 4325 0
	popl	%ebp
	.cfi_restore 5
	.cfi_def_cfa 4, 4
	ret
	.cfi_endproc
.LFE219:
	.size	radio_bc_has_match, .-radio_bc_has_match
	.section	.text.unlikely.radio_bc_has_match
.LCOLDE43:
	.section	.text.radio_bc_has_match
.LHOTE43:
	.section	.text.unlikely.radio_tmr_status_reset,"ax",@progbits
.LCOLDB44:
	.section	.text.radio_tmr_status_reset,"ax",@progbits
.LHOTB44:
	.globl	radio_tmr_status_reset
	.type	radio_tmr_status_reset, @function
radio_tmr_status_reset:
.LFB220:
	.loc 1 4327 0
	.cfi_startproc
	pushl	%ebp
	.cfi_def_cfa_offset 8
	.cfi_offset 5, -8
	.loc 1 4328 0
	movl	$262144, 1073787720
	.loc 1 4329 0
	movl	$8319, 1073870088
	.loc 1 4327 0
	movl	%esp, %ebp
	.cfi_def_cfa_register 5
	.loc 1 4333 0
	popl	%ebp
	.cfi_restore 5
	.cfi_def_cfa 4, 4
	ret
	.cfi_endproc
.LFE220:
	.size	radio_tmr_status_reset, .-radio_tmr_status_reset
	.section	.text.unlikely.radio_tmr_status_reset
.LCOLDE44:
	.section	.text.radio_tmr_status_reset
.LHOTE44:
	.section	.text.unlikely.radio_tmr_tifs_set,"ax",@progbits
.LCOLDB45:
	.section	.text.radio_tmr_tifs_set,"ax",@progbits
.LHOTB45:
	.globl	radio_tmr_tifs_set
	.type	radio_tmr_tifs_set, @function
radio_tmr_tifs_set:
.LFB221:
	.loc 1 4335 0
	.cfi_startproc
.LVL58:
	pushl	%ebp
	.cfi_def_cfa_offset 8
	.cfi_offset 5, -8
	.loc 1 4336 0
	movzbl	sw_tifs_toggle, %eax
	.loc 1 4335 0
	movl	%esp, %ebp
	.cfi_def_cfa_register 5
	.loc 1 4336 0
	movl	8(%ebp), %edx
	addl	$336, %eax
	movl	%edx, 1073778688(,%eax,4)
	.loc 1 4337 0
	popl	%ebp
	.cfi_restore 5
	.cfi_def_cfa 4, 4
	ret
	.cfi_endproc
.LFE221:
	.size	radio_tmr_tifs_set, .-radio_tmr_tifs_set
	.section	.text.unlikely.radio_tmr_tifs_set
.LCOLDE45:
	.section	.text.radio_tmr_tifs_set
.LHOTE45:
	.section	.text.unlikely.radio_tmr_start,"ax",@progbits
.LCOLDB46:
	.section	.text.radio_tmr_start,"ax",@progbits
.LHOTB46:
	.globl	radio_tmr_start
	.type	radio_tmr_start, @function
radio_tmr_start:
.LFB222:
	.loc 1 4339 0
	.cfi_startproc
.LVL59:
	pushl	%ebp
	.cfi_def_cfa_offset 8
	.cfi_offset 5, -8
	movl	%esp, %ebp
	.cfi_def_cfa_register 5
	pushl	%esi
	pushl	%ebx
	.cfi_offset 6, -12
	.cfi_offset 3, -16
	.loc 1 4339 0
	movl	16(%ebp), %eax
	movl	8(%ebp), %ebx
	movl	12(%ebp), %ecx
	.loc 1 4340 0
	leal	-1000000(%eax), %edx
	cmpl	$2146483647, %edx
	jbe	.L117
	.loc 1 4341 0
	decl	%ecx
.LVL60:
	.loc 1 4342 0
	addl	$30517578, %eax
.LVL61:
.L117:
	.loc 1 4344 0
	movl	$1000000, %esi
	xorl	%edx, %edx
	.loc 1 4345 0
	movl	$1, 1073774604
.LVL62:
	.loc 1 4344 0
	divl	%esi
.LVL63:
	.loc 1 4358 0
	cmpb	$1, %bl
	.loc 1 4346 0
	movl	$0, 1073775876
	.loc 1 4347 0
	movl	$4, 1073775888
	.loc 1 4358 0
	sbbl	%edx, %edx
	.loc 1 4348 0
	movl	$2, 1073775880
	.loc 1 4358 0
	andl	$4, %edx
	addl	$1073745920, %edx
	.loc 1 4349 0
	movl	%eax, 1073775936
	.loc 1 4350 0
	movl	$0, 1073774912
	.loc 1 4351 0
	movl	%ecx, 1073788232
	.loc 1 4352 0
	movl	$262144, 1073787716
	.loc 1 4353 0
	movl	$0, 1073787208
	.loc 1 4354 0
	movl	$1073787208, 1073870104
	.loc 1 4355 0
	movl	$1073774592, 1073870108
	.loc 1 4356 0
	movl	$2, 1073870084
	.loc 1 4357 0
	movl	$1073774912, 1073870096
	.loc 1 4358 0
	movl	%edx, 1073870100
	.loc 1 4360 0
	movl	$1, 1073870084
	.loc 1 4361 0
	movl	$1, 1073778700
	.loc 1 4362 0
	movl	$0, 1073779972
	.loc 1 4363 0
	movl	$4, 1073779984
	.loc 1 4364 0
	movl	$0, 1073779976
	.loc 1 4365 0
	movl	$1, 1073778688
	.loc 1 4366 0
	movl	$1073746188, 1073870152
	.loc 1 4367 0
	movl	$1073778700, 1073870156
	.loc 1 4368 0
	movl	$1073779008, 1073870160
	.loc 1 4369 0
	movl	$1073868804, 1073870164
	.loc 1 4370 0
	movl	$1073779012, 1073870168
	.loc 1 4371 0
	movl	$1073868812, 1073870172
	.loc 1 4372 0
	movl	$2304, 1073870848
	.loc 1 4373 0
	movl	$4608, 1073870852
	.loc 1 4375 0
	popl	%ebx
	.cfi_restore 3
	popl	%esi
	.cfi_restore 6
	popl	%ebp
	.cfi_restore 5
	.cfi_def_cfa 4, 4
	ret
	.cfi_endproc
.LFE222:
	.size	radio_tmr_start, .-radio_tmr_start
	.section	.text.unlikely.radio_tmr_start
.LCOLDE46:
	.section	.text.radio_tmr_start
.LHOTE46:
	.section	.text.unlikely.radio_tmr_start_us,"ax",@progbits
.LCOLDB47:
	.section	.text.radio_tmr_start_us,"ax",@progbits
.LHOTB47:
	.globl	radio_tmr_start_us
	.type	radio_tmr_start_us, @function
radio_tmr_start_us:
.LFB223:
	.loc 1 4377 0
	.cfi_startproc
.LVL64:
	pushl	%ebp
	.cfi_def_cfa_offset 8
	.cfi_offset 5, -8
	movl	%esp, %ebp
	.cfi_def_cfa_register 5
	.loc 1 4377 0
	movl	8(%ebp), %eax
	.loc 1 4378 0
	movl	12(%ebp), %edx
	.loc 1 4381 0
	cmpb	$1, %al
	.loc 1 4378 0
	movl	%edx, 1073775936
.LVL65:
	.loc 1 4379 0
	movl	$0, 1073774912
	.loc 1 4381 0
	sbbl	%eax, %eax
	.loc 1 4380 0
	movl	$1073774912, 1073870096
	.loc 1 4381 0
	andl	$4, %eax
	addl	$1073745920, %eax
	movl	%eax, 1073870100
	.loc 1 4383 0
	movl	$1, 1073870084
	.loc 1 4384 0
	popl	%ebp
	.cfi_restore 5
	.cfi_def_cfa 4, 4
	ret
	.cfi_endproc
.LFE223:
	.size	radio_tmr_start_us, .-radio_tmr_start_us
	.section	.text.unlikely.radio_tmr_start_us
.LCOLDE47:
	.section	.text.radio_tmr_start_us
.LHOTE47:
	.section	.text.unlikely.radio_tmr_start_now,"ax",@progbits
.LCOLDB48:
	.section	.text.radio_tmr_start_now,"ax",@progbits
.LHOTB48:
	.globl	radio_tmr_start_now
	.type	radio_tmr_start_now, @function
radio_tmr_start_now:
.LFB224:
	.loc 1 4386 0
	.cfi_startproc
.LVL66:
	pushl	%ebp
	.cfi_def_cfa_offset 8
	.cfi_offset 5, -8
	movl	%esp, %ebp
	.cfi_def_cfa_register 5
	.loc 1 4386 0
	movl	8(%ebp), %eax
	.loc 1 4388 0
	movl	$1073774912, 1073870096
.LVL67:
	.loc 1 4389 0
	cmpb	$1, %al
	sbbl	%eax, %eax
	andl	$4, %eax
	addl	$1073745920, %eax
	movl	%eax, 1073870100
	.loc 1 4391 0
	movl	$1, 1073870084
	.loc 1 4392 0
	movl	$1, 1073774660
	.loc 1 4393 0
	movl	1073775940, %edx
.LVL68:
	.loc 1 4394 0
	movl	%edx, %eax
.LVL69:
.L127:
	.loc 1 4396 0 discriminator 1
	addl	%edx, %edx
.LVL70:
	subl	%eax, %edx
	movl	%edx, %eax
.LVL71:
	.loc 1 4397 0 discriminator 1
	leal	1(%edx), %edx
	movl	%edx, 1073775936
	.loc 1 4398 0 discriminator 1
	movl	$0, 1073774912
	.loc 1 4399 0 discriminator 1
	movl	$1, 1073774660
	.loc 1 4400 0 discriminator 1
	movl	1073775940, %edx
.LVL72:
	.loc 1 4401 0 discriminator 1
	cmpl	%edx, %eax
	jb	.L127
	.loc 1 4403 0
	popl	%ebp
	.cfi_restore 5
	.cfi_def_cfa 4, 4
	ret
	.cfi_endproc
.LFE224:
	.size	radio_tmr_start_now, .-radio_tmr_start_now
	.section	.text.unlikely.radio_tmr_start_now
.LCOLDE48:
	.section	.text.radio_tmr_start_now
.LHOTE48:
	.section	.text.unlikely.radio_tmr_stop,"ax",@progbits
.LCOLDB49:
	.section	.text.radio_tmr_stop,"ax",@progbits
.LHOTB49:
	.globl	radio_tmr_stop
	.type	radio_tmr_stop, @function
radio_tmr_stop:
.LFB225:
	.loc 1 4405 0
	.cfi_startproc
	pushl	%ebp
	.cfi_def_cfa_offset 8
	.cfi_offset 5, -8
	.loc 1 4406 0
	movl	$1, 1073774596
	.loc 1 4407 0
	movl	$1, 1073774608
	.loc 1 4408 0
	movl	$1, 1073778692
	.loc 1 4405 0
	movl	%esp, %ebp
	.cfi_def_cfa_register 5
	.loc 1 4409 0
	movl	$1, 1073778704
	.loc 1 4410 0
	popl	%ebp
	.cfi_restore 5
	.cfi_def_cfa 4, 4
	ret
	.cfi_endproc
.LFE225:
	.size	radio_tmr_stop, .-radio_tmr_stop
	.section	.text.unlikely.radio_tmr_stop
.LCOLDE49:
	.section	.text.radio_tmr_stop
.LHOTE49:
	.section	.text.unlikely.radio_tmr_hcto_configure,"ax",@progbits
.LCOLDB50:
	.section	.text.radio_tmr_hcto_configure,"ax",@progbits
.LHOTB50:
	.globl	radio_tmr_hcto_configure
	.type	radio_tmr_hcto_configure, @function
radio_tmr_hcto_configure:
.LFB226:
	.loc 1 4412 0
	.cfi_startproc
.LVL73:
	pushl	%ebp
	.cfi_def_cfa_offset 8
	.cfi_offset 5, -8
	movl	%esp, %ebp
	.cfi_def_cfa_register 5
	.loc 1 4413 0
	movl	8(%ebp), %eax
	movl	%eax, 1073775940
	.loc 1 4414 0
	movl	$0, 1073774916
	.loc 1 4415 0
	movl	$1073746180, 1073870120
	.loc 1 4416 0
	movl	$1073774660, 1073870124
	.loc 1 4417 0
	movl	$1073774916, 1073870128
	.loc 1 4418 0
	movl	$1073745936, 1073870132
	.loc 1 4419 0
	movl	$24, 1073870084
	.loc 1 4420 0
	popl	%ebp
	.cfi_restore 5
	.cfi_def_cfa 4, 4
	ret
	.cfi_endproc
.LFE226:
	.size	radio_tmr_hcto_configure, .-radio_tmr_hcto_configure
	.section	.text.unlikely.radio_tmr_hcto_configure
.LCOLDE50:
	.section	.text.radio_tmr_hcto_configure
.LHOTE50:
	.section	.text.unlikely.radio_tmr_aa_capture,"ax",@progbits
.LCOLDB51:
	.section	.text.radio_tmr_aa_capture,"ax",@progbits
.LHOTB51:
	.globl	radio_tmr_aa_capture
	.type	radio_tmr_aa_capture, @function
radio_tmr_aa_capture:
.LFB227:
	.loc 1 4422 0
	.cfi_startproc
	pushl	%ebp
	.cfi_def_cfa_offset 8
	.cfi_offset 5, -8
	.loc 1 4423 0
	movl	$1073746176, 1073870112
	.loc 1 4424 0
	movl	$1073774656, 1073870116
	.loc 1 4425 0
	movl	$1073746180, 1073870120
	.loc 1 4422 0
	movl	%esp, %ebp
	.cfi_def_cfa_register 5
	.loc 1 4426 0
	movl	$1073774660, 1073870124
	.loc 1 4427 0
	movl	$12, 1073870084
	.loc 1 4428 0
	popl	%ebp
	.cfi_restore 5
	.cfi_def_cfa 4, 4
	ret
	.cfi_endproc
.LFE227:
	.size	radio_tmr_aa_capture, .-radio_tmr_aa_capture
	.section	.text.unlikely.radio_tmr_aa_capture
.LCOLDE51:
	.section	.text.radio_tmr_aa_capture
.LHOTE51:
	.section	.text.unlikely.radio_tmr_aa_get,"ax",@progbits
.LCOLDB52:
	.section	.text.radio_tmr_aa_get,"ax",@progbits
.LHOTB52:
	.globl	radio_tmr_aa_get
	.type	radio_tmr_aa_get, @function
radio_tmr_aa_get:
.LFB228:
	.loc 1 4430 0
	.cfi_startproc
	pushl	%ebp
	.cfi_def_cfa_offset 8
	.cfi_offset 5, -8
	.loc 1 4431 0
	movl	1073775940, %eax
	.loc 1 4430 0
	movl	%esp, %ebp
	.cfi_def_cfa_register 5
	.loc 1 4432 0
	popl	%ebp
	.cfi_restore 5
	.cfi_def_cfa 4, 4
	ret
	.cfi_endproc
.LFE228:
	.size	radio_tmr_aa_get, .-radio_tmr_aa_get
	.section	.text.unlikely.radio_tmr_aa_get
.LCOLDE52:
	.section	.text.radio_tmr_aa_get
.LHOTE52:
	.section	.text.unlikely.radio_tmr_aa_save,"ax",@progbits
.LCOLDB53:
	.section	.text.radio_tmr_aa_save,"ax",@progbits
.LHOTB53:
	.globl	radio_tmr_aa_save
	.type	radio_tmr_aa_save, @function
radio_tmr_aa_save:
.LFB229:
	.loc 1 4435 0
	.cfi_startproc
.LVL74:
	pushl	%ebp
	.cfi_def_cfa_offset 8
	.cfi_offset 5, -8
	movl	%esp, %ebp
	.cfi_def_cfa_register 5
	.loc 1 4436 0
	movl	8(%ebp), %eax
	.loc 1 4437 0
	popl	%ebp
	.cfi_restore 5
	.cfi_def_cfa 4, 4
	.loc 1 4436 0
	movl	%eax, radio_tmr_aa
	.loc 1 4437 0
	ret
	.cfi_endproc
.LFE229:
	.size	radio_tmr_aa_save, .-radio_tmr_aa_save
	.section	.text.unlikely.radio_tmr_aa_save
.LCOLDE53:
	.section	.text.radio_tmr_aa_save
.LHOTE53:
	.section	.text.unlikely.radio_tmr_aa_restore,"ax",@progbits
.LCOLDB54:
	.section	.text.radio_tmr_aa_restore,"ax",@progbits
.LHOTB54:
	.globl	radio_tmr_aa_restore
	.type	radio_tmr_aa_restore, @function
radio_tmr_aa_restore:
.LFB230:
	.loc 1 4439 0
	.cfi_startproc
	pushl	%ebp
	.cfi_def_cfa_offset 8
	.cfi_offset 5, -8
	.loc 1 4441 0
	movl	radio_tmr_aa, %eax
	.loc 1 4439 0
	movl	%esp, %ebp
	.cfi_def_cfa_register 5
	.loc 1 4441 0
	popl	%ebp
	.cfi_restore 5
	.cfi_def_cfa 4, 4
	ret
	.cfi_endproc
.LFE230:
	.size	radio_tmr_aa_restore, .-radio_tmr_aa_restore
	.section	.text.unlikely.radio_tmr_aa_restore
.LCOLDE54:
	.section	.text.radio_tmr_aa_restore
.LHOTE54:
	.section	.text.unlikely.radio_tmr_ready_get,"ax",@progbits
.LCOLDB55:
	.section	.text.radio_tmr_ready_get,"ax",@progbits
.LHOTB55:
	.globl	radio_tmr_ready_get
	.type	radio_tmr_ready_get, @function
radio_tmr_ready_get:
.LFB231:
	.loc 1 4443 0
	.cfi_startproc
	pushl	%ebp
	.cfi_def_cfa_offset 8
	.cfi_offset 5, -8
	.loc 1 4444 0
	movl	1073775936, %eax
	.loc 1 4443 0
	movl	%esp, %ebp
	.cfi_def_cfa_register 5
	.loc 1 4445 0
	popl	%ebp
	.cfi_restore 5
	.cfi_def_cfa 4, 4
	ret
	.cfi_endproc
.LFE231:
	.size	radio_tmr_ready_get, .-radio_tmr_ready_get
	.section	.text.unlikely.radio_tmr_ready_get
.LCOLDE55:
	.section	.text.radio_tmr_ready_get
.LHOTE55:
	.section	.text.unlikely.radio_tmr_end_capture,"ax",@progbits
.LCOLDB56:
	.section	.text.radio_tmr_end_capture,"ax",@progbits
.LHOTB56:
	.globl	radio_tmr_end_capture
	.type	radio_tmr_end_capture, @function
radio_tmr_end_capture:
.LFB232:
	.loc 1 4447 0
	.cfi_startproc
	pushl	%ebp
	.cfi_def_cfa_offset 8
	.cfi_offset 5, -8
	.loc 1 4448 0
	movl	$1073746188, 1073870136
	.loc 1 4449 0
	movl	$1073774664, 1073870140
	.loc 1 4450 0
	movl	$32, 1073870084
	.loc 1 4447 0
	movl	%esp, %ebp
	.cfi_def_cfa_register 5
	.loc 1 4451 0
	popl	%ebp
	.cfi_restore 5
	.cfi_def_cfa 4, 4
	ret
	.cfi_endproc
.LFE232:
	.size	radio_tmr_end_capture, .-radio_tmr_end_capture
	.section	.text.unlikely.radio_tmr_end_capture
.LCOLDE56:
	.section	.text.radio_tmr_end_capture
.LHOTE56:
	.section	.text.unlikely.radio_tmr_end_get,"ax",@progbits
.LCOLDB57:
	.section	.text.radio_tmr_end_get,"ax",@progbits
.LHOTB57:
	.globl	radio_tmr_end_get
	.type	radio_tmr_end_get, @function
radio_tmr_end_get:
.LFB233:
	.loc 1 4453 0
	.cfi_startproc
	pushl	%ebp
	.cfi_def_cfa_offset 8
	.cfi_offset 5, -8
	.loc 1 4454 0
	movl	1073775944, %eax
	.loc 1 4453 0
	movl	%esp, %ebp
	.cfi_def_cfa_register 5
	.loc 1 4455 0
	popl	%ebp
	.cfi_restore 5
	.cfi_def_cfa 4, 4
	ret
	.cfi_endproc
.LFE233:
	.size	radio_tmr_end_get, .-radio_tmr_end_get
	.section	.text.unlikely.radio_tmr_end_get
.LCOLDE57:
	.section	.text.radio_tmr_end_get
.LHOTE57:
	.section	.text.unlikely.radio_tmr_sample,"ax",@progbits
.LCOLDB58:
	.section	.text.radio_tmr_sample,"ax",@progbits
.LHOTB58:
	.globl	radio_tmr_sample
	.type	radio_tmr_sample, @function
radio_tmr_sample:
.LFB234:
	.loc 1 4457 0
	.cfi_startproc
	pushl	%ebp
	.cfi_def_cfa_offset 8
	.cfi_offset 5, -8
	.loc 1 4458 0
	movl	$1, 1073774668
	.loc 1 4457 0
	movl	%esp, %ebp
	.cfi_def_cfa_register 5
	.loc 1 4459 0
	popl	%ebp
	.cfi_restore 5
	.cfi_def_cfa 4, 4
	ret
	.cfi_endproc
.LFE234:
	.size	radio_tmr_sample, .-radio_tmr_sample
	.section	.text.unlikely.radio_tmr_sample
.LCOLDE58:
	.section	.text.radio_tmr_sample
.LHOTE58:
	.section	.text.unlikely.radio_tmr_sample_get,"ax",@progbits
.LCOLDB59:
	.section	.text.radio_tmr_sample_get,"ax",@progbits
.LHOTB59:
	.globl	radio_tmr_sample_get
	.type	radio_tmr_sample_get, @function
radio_tmr_sample_get:
.LFB235:
	.loc 1 4461 0
	.cfi_startproc
	pushl	%ebp
	.cfi_def_cfa_offset 8
	.cfi_offset 5, -8
	.loc 1 4462 0
	movl	1073775948, %eax
	.loc 1 4461 0
	movl	%esp, %ebp
	.cfi_def_cfa_register 5
	.loc 1 4463 0
	popl	%ebp
	.cfi_restore 5
	.cfi_def_cfa 4, 4
	ret
	.cfi_endproc
.LFE235:
	.size	radio_tmr_sample_get, .-radio_tmr_sample_get
	.section	.text.unlikely.radio_tmr_sample_get
.LCOLDE59:
	.section	.text.radio_tmr_sample_get
.LHOTE59:
	.section	.text.unlikely.radio_ccm_rx_pkt_set,"ax",@progbits
.LCOLDB60:
	.section	.text.radio_ccm_rx_pkt_set,"ax",@progbits
.LHOTB60:
	.globl	radio_ccm_rx_pkt_set
	.type	radio_ccm_rx_pkt_set, @function
radio_ccm_rx_pkt_set:
.LFB236:
	.loc 1 4466 0
	.cfi_startproc
.LVL75:
	pushl	%ebp
	.cfi_def_cfa_offset 8
	.cfi_offset 5, -8
	.loc 1 4477 0
	movl	$16777217, %edx
	.loc 1 4466 0
	movl	%esp, %ebp
	.cfi_def_cfa_register 5
	.loc 1 4466 0
	movl	12(%ebp), %eax
	.loc 1 4468 0
	movl	$0, 1073804544
.LVL76:
	.loc 1 4469 0
	movl	$2, 1073804544
.LVL77:
	.loc 1 4477 0
	cmpb	$2, %al
	movl	$16842753, %eax
	cmovne	%edx, %eax
.LVL78:
	.loc 1 4487 0
	movl	%eax, 1073804548
	.loc 1 4488 0
	movl	8(%ebp), %eax
.LVL79:
	movl	%eax, 1073804552
.LVL80:
	.loc 1 4490 0
	movl	16(%ebp), %eax
	.loc 1 4489 0
	movl	$_pkt_scratch, 1073804556
	.loc 1 4490 0
	movl	%eax, 1073804560
	.loc 1 4491 0
	movl	$_ccm_scratch, 1073804564
	.loc 1 4501 0
	movl	$_pkt_scratch, %eax
	.loc 1 4492 0
	movl	$0, 1073803776
	.loc 1 4493 0
	movl	$0, 1073803520
	.loc 1 4494 0
	movl	$0, 1073803524
	.loc 1 4495 0
	movl	$0, 1073803528
	.loc 1 4496 0
	movl	$1073746180, 1073870144
	.loc 1 4497 0
	movl	$1073803268, 1073870148
	.loc 1 4498 0
	movl	$64, 1073870084
	.loc 1 4499 0
	movl	$1, 1073803264
	.loc 1 4501 0
	popl	%ebp
	.cfi_restore 5
	.cfi_def_cfa 4, 4
	ret
	.cfi_endproc
.LFE236:
	.size	radio_ccm_rx_pkt_set, .-radio_ccm_rx_pkt_set
	.section	.text.unlikely.radio_ccm_rx_pkt_set
.LCOLDE60:
	.section	.text.radio_ccm_rx_pkt_set
.LHOTE60:
	.section	.text.unlikely.radio_ccm_tx_pkt_set,"ax",@progbits
.LCOLDB61:
	.section	.text.radio_ccm_tx_pkt_set,"ax",@progbits
.LHOTB61:
	.globl	radio_ccm_tx_pkt_set
	.type	radio_ccm_tx_pkt_set, @function
radio_ccm_tx_pkt_set:
.LFB237:
	.loc 1 4503 0
	.cfi_startproc
.LVL81:
	pushl	%ebp
	.cfi_def_cfa_offset 8
	.cfi_offset 5, -8
	.loc 1 4505 0
	movl	$0, 1073804544
	.loc 1 4506 0
	movl	$2, 1073804544
.LVL82:
	.loc 1 4513 0
	movl	$16842752, 1073804548
	.loc 1 4503 0
	movl	%esp, %ebp
	.cfi_def_cfa_register 5
	.loc 1 4514 0
	movl	8(%ebp), %eax
	movl	%eax, 1073804552
	.loc 1 4515 0
	movl	12(%ebp), %eax
	movl	%eax, 1073804556
	.loc 1 4516 0
	movl	$_pkt_scratch, 1073804560
	.loc 1 4524 0
	movl	$_pkt_scratch, %eax
	.loc 1 4517 0
	movl	$_ccm_scratch, 1073804564
	.loc 1 4518 0
	movl	$1, 1073803776
	.loc 1 4519 0
	movl	$0, 1073803520
	.loc 1 4520 0
	movl	$0, 1073803524
	.loc 1 4521 0
	movl	$0, 1073803528
	.loc 1 4522 0
	movl	$1, 1073803264
	.loc 1 4524 0
	popl	%ebp
	.cfi_restore 5
	.cfi_def_cfa 4, 4
	ret
	.cfi_endproc
.LFE237:
	.size	radio_ccm_tx_pkt_set, .-radio_ccm_tx_pkt_set
	.section	.text.unlikely.radio_ccm_tx_pkt_set
.LCOLDE61:
	.section	.text.radio_ccm_tx_pkt_set
.LHOTE61:
	.section	.text.unlikely.radio_ccm_is_done,"ax",@progbits
.LCOLDB62:
	.section	.text.radio_ccm_is_done,"ax",@progbits
.LHOTB62:
	.globl	radio_ccm_is_done
	.type	radio_ccm_is_done, @function
radio_ccm_is_done:
.LFB238:
	.loc 1 4526 0
	.cfi_startproc
	pushl	%ebp
	.cfi_def_cfa_offset 8
	.cfi_offset 5, -8
	.loc 1 4527 0
	movl	$2, 1073804036
	.loc 1 4526 0
	movl	%esp, %ebp
	.cfi_def_cfa_register 5
.L161:
	.loc 1 4528 0
	movl	1073803524, %eax
	testl	%eax, %eax
	jne	.L164
.LBB38:
.LBB39:
	.loc 1 217 0
#APP
# 217 "src/radio.c" 1
	wfe
# 0 "" 2
#NO_APP
.LBE39:
.LBE38:
.LBB40:
.LBB41:
	.loc 1 221 0
#APP
# 221 "src/radio.c" 1
	sev
# 0 "" 2
#NO_APP
.LBE41:
.LBE40:
.LBB42:
.LBB43:
	.loc 1 217 0
#APP
# 217 "src/radio.c" 1
	wfe
# 0 "" 2
#NO_APP
	jmp	.L161
.L164:
.LBE43:
.LBE42:
	.loc 1 4533 0
	movl	$2, 1073804040
.LVL83:
.LBB44:
.LBB45:
	.loc 1 956 0
	movl	$32768, -536812928
.LVL84:
.LBE45:
.LBE44:
	.loc 1 4535 0
	movl	1073803528, %eax
	.loc 1 4536 0
	popl	%ebp
	.cfi_restore 5
	.cfi_def_cfa 4, 4
	.loc 1 4535 0
	testl	%eax, %eax
	sete	%al
	movzbl	%al, %eax
	.loc 1 4536 0
	ret
	.cfi_endproc
.LFE238:
	.size	radio_ccm_is_done, .-radio_ccm_is_done
	.section	.text.unlikely.radio_ccm_is_done
.LCOLDE62:
	.section	.text.radio_ccm_is_done
.LHOTE62:
	.section	.text.unlikely.radio_ccm_mic_is_valid,"ax",@progbits
.LCOLDB63:
	.section	.text.radio_ccm_mic_is_valid,"ax",@progbits
.LHOTB63:
	.globl	radio_ccm_mic_is_valid
	.type	radio_ccm_mic_is_valid, @function
radio_ccm_mic_is_valid:
.LFB239:
	.loc 1 4538 0
	.cfi_startproc
	pushl	%ebp
	.cfi_def_cfa_offset 8
	.cfi_offset 5, -8
	.loc 1 4539 0
	movl	1073804288, %eax
	.loc 1 4538 0
	movl	%esp, %ebp
	.cfi_def_cfa_register 5
	.loc 1 4539 0
	testl	%eax, %eax
	setne	%al
	movzbl	%al, %eax
	.loc 1 4540 0
	popl	%ebp
	.cfi_restore 5
	.cfi_def_cfa 4, 4
	ret
	.cfi_endproc
.LFE239:
	.size	radio_ccm_mic_is_valid, .-radio_ccm_mic_is_valid
	.section	.text.unlikely.radio_ccm_mic_is_valid
.LCOLDE63:
	.section	.text.radio_ccm_mic_is_valid
.LHOTE63:
	.section	.text.unlikely.radio_ar_configure,"ax",@progbits
.LCOLDB64:
	.section	.text.radio_ar_configure,"ax",@progbits
.LHOTB64:
	.globl	radio_ar_configure
	.type	radio_ar_configure, @function
radio_ar_configure:
.LFB240:
	.loc 1 4543 0
	.cfi_startproc
.LVL85:
	pushl	%ebp
	.cfi_def_cfa_offset 8
	.cfi_offset 5, -8
	.loc 1 4544 0
	movl	$3, 1073804544
	.loc 1 4543 0
	movl	%esp, %ebp
	.cfi_def_cfa_register 5
	.loc 1 4546 0
	movl	8(%ebp), %eax
	movl	%eax, 1073804548
	.loc 1 4547 0
	movl	12(%ebp), %eax
	movl	%eax, 1073804552
	.loc 1 4548 0
	movl	1073747204, %eax
	decl	%eax
	movl	%eax, 1073804560
	.loc 1 4549 0
	movl	$_aar_scratch, 1073804564
	.loc 1 4550 0
	movl	$0, 1073803520
	.loc 1 4551 0
	movl	$0, 1073803524
	.loc 1 4552 0
	movl	$0, 1073803528
	.loc 1 4553 0
	pushl	$64
	call	radio_bc_configure
.LVL86:
.LBB46:
.LBB47:
	.loc 1 4320 0
	movl	$0, 1073746216
.LBE47:
.LBE46:
	.loc 1 4555 0
	movl	$1073746216, 1073870144
	.loc 1 4556 0
	movl	$1073803264, 1073870148
	.loc 1 4557 0
	movl	$64, 1073870084
	.loc 1 4558 0
	popl	%eax
	leave
	.cfi_restore 5
	.cfi_def_cfa 4, 4
	ret
	.cfi_endproc
.LFE240:
	.size	radio_ar_configure, .-radio_ar_configure
	.section	.text.unlikely.radio_ar_configure
.LCOLDE64:
	.section	.text.radio_ar_configure
.LHOTE64:
	.section	.text.unlikely.radio_ar_match_get,"ax",@progbits
.LCOLDB65:
	.section	.text.radio_ar_match_get,"ax",@progbits
.LHOTB65:
	.globl	radio_ar_match_get
	.type	radio_ar_match_get, @function
radio_ar_match_get:
.LFB241:
	.loc 1 4560 0
	.cfi_startproc
	pushl	%ebp
	.cfi_def_cfa_offset 8
	.cfi_offset 5, -8
	.loc 1 4561 0
	movl	1073804288, %eax
	.loc 1 4560 0
	movl	%esp, %ebp
	.cfi_def_cfa_register 5
	.loc 1 4562 0
	popl	%ebp
	.cfi_restore 5
	.cfi_def_cfa 4, 4
	ret
	.cfi_endproc
.LFE241:
	.size	radio_ar_match_get, .-radio_ar_match_get
	.section	.text.unlikely.radio_ar_match_get
.LCOLDE65:
	.section	.text.radio_ar_match_get
.LHOTE65:
	.section	.text.unlikely.radio_ar_status_reset,"ax",@progbits
.LCOLDB66:
	.section	.text.radio_ar_status_reset,"ax",@progbits
.LHOTB66:
	.globl	radio_ar_status_reset
	.type	radio_ar_status_reset, @function
radio_ar_status_reset:
.LFB242:
	.loc 1 4564 0
	.cfi_startproc
	pushl	%ebp
	.cfi_def_cfa_offset 8
	.cfi_offset 5, -8
.LBB48:
.LBB49:
	.loc 1 4320 0
	movl	$0, 1073746216
.LBE49:
.LBE48:
	.loc 1 4566 0
	movl	$0, 1073804544
	.loc 1 4564 0
	movl	%esp, %ebp
	.cfi_def_cfa_register 5
	.loc 1 4568 0
	popl	%ebp
	.cfi_restore 5
	.cfi_def_cfa 4, 4
	ret
	.cfi_endproc
.LFE242:
	.size	radio_ar_status_reset, .-radio_ar_status_reset
	.section	.text.unlikely.radio_ar_status_reset
.LCOLDE66:
	.section	.text.radio_ar_status_reset
.LHOTE66:
	.section	.text.unlikely.radio_ar_has_match,"ax",@progbits
.LCOLDB67:
	.section	.text.radio_ar_has_match,"ax",@progbits
.LHOTB67:
	.globl	radio_ar_has_match
	.type	radio_ar_has_match, @function
radio_ar_has_match:
.LFB243:
	.loc 1 4570 0
	.cfi_startproc
	pushl	%ebp
	.cfi_def_cfa_offset 8
	.cfi_offset 5, -8
.LBB50:
.LBB51:
	.loc 1 4324 0
	movl	1073746216, %edx
.LBE51:
.LBE50:
	.loc 1 4573 0
	xorl	%eax, %eax
	.loc 1 4570 0
	movl	%esp, %ebp
	.cfi_def_cfa_register 5
	.loc 1 4573 0
	testl	%edx, %edx
	je	.L174
	.loc 1 4572 0
	movl	1073803520, %edx
	.loc 1 4571 0
	testl	%edx, %edx
	je	.L174
	.loc 1 4573 0
	movl	1073803524, %edx
	.loc 1 4572 0
	testl	%edx, %edx
	je	.L174
	.loc 1 4574 0 discriminator 3
	movl	1073803528, %eax
	.loc 1 4573 0 discriminator 3
	testl	%eax, %eax
	sete	%al
	movzbl	%al, %eax
.L174:
	.loc 1 4575 0
	popl	%ebp
	.cfi_restore 5
	.cfi_def_cfa 4, 4
	ret
	.cfi_endproc
.LFE243:
	.size	radio_ar_has_match, .-radio_ar_has_match
	.section	.text.unlikely.radio_ar_has_match
.LCOLDE67:
	.section	.text.radio_ar_has_match
.LHOTE67:
	.section	.bss._aar_scratch,"aw",@nobits
	.align 4
	.type	_aar_scratch, @object
	.size	_aar_scratch, 3
_aar_scratch:
	.zero	3
	.section	.bss._ccm_scratch,"aw",@nobits
	.align 4
	.type	_ccm_scratch, @object
	.size	_ccm_scratch, 267
_ccm_scratch:
	.zero	267
	.section	.bss.radio_tmr_aa,"aw",@nobits
	.align 4
	.type	radio_tmr_aa, @object
	.size	radio_tmr_aa, 4
radio_tmr_aa:
	.zero	4
	.section	.bss.sw_tifs_toggle,"aw",@nobits
	.type	sw_tifs_toggle, @object
	.size	sw_tifs_toggle, 1
sw_tifs_toggle:
	.zero	1
	.section	.bss._pkt_scratch,"aw",@nobits
	.align 4
	.type	_pkt_scratch, @object
	.size	_pkt_scratch, 258
_pkt_scratch:
	.zero	258
	.section	.bss._pkt_empty,"aw",@nobits
	.align 4
	.type	_pkt_empty, @object
	.size	_pkt_empty, 3
_pkt_empty:
	.zero	3
	.section	.bss.sfp_radio_isr,"aw",@nobits
	.align 4
	.type	sfp_radio_isr, @object
	.size	sfp_radio_isr, 4
sfp_radio_isr:
	.zero	4
	.text
.Letext0:
	.section	.text.unlikely.sw_switch
.Letext_cold0:
	.section	.note.GNU-stack,"",@progbits
