	.file	"raw.c"
	.text
.Ltext0:
	.section	.text.unlikely.raw_input,"ax",@progbits
.LCOLDB0:
	.section	.text.raw_input,"ax",@progbits
.LHOTB0:
	.section	.text.unlikely.raw_input
.Ltext_cold0:
	.section	.text.raw_input
	.globl	raw_input
	.type	raw_input, @function
raw_input:
.LFB24:
	.file 1 "kernel/protocols/net/core/raw.c"
	.loc 1 129 0
	.cfi_startproc
.LVL0:
	pushl	%ebp
	.cfi_def_cfa_offset 8
	.cfi_offset 5, -8
	movl	%esp, %ebp
	.cfi_def_cfa_register 5
	pushl	%edi
	pushl	%esi
	pushl	%ebx
	.cfi_offset 7, -12
	.cfi_offset 6, -16
	.cfi_offset 3, -20
	.loc 1 155 0
	xorl	%edi, %edi
	.loc 1 129 0
	subl	$36, %esp
	.loc 1 129 0
	movl	8(%ebp), %esi
	.loc 1 133 0
	pushl	ip_data
	pushl	ip_data+20
	call	ip4_addr_isbroadcast_u32
.LVL1:
	movb	%al, %dl
.LVL2:
	.loc 1 151 0
	movl	4(%esi), %eax
.LVL3:
	.loc 1 156 0
	movl	raw_pcbs, %ebx
	.loc 1 159 0
	addl	$16, %esp
	.loc 1 151 0
	movb	9(%eax), %cl
.LVL4:
	.loc 1 132 0
	xorl	%eax, %eax
.LVL5:
.L2:
	.loc 1 159 0
	testb	$1, %al
	jne	.L15
	testl	%ebx, %ebx
	je	.L15
	xorl	%eax, %eax
.LVL6:
	.loc 1 160 0
	cmpb	16(%ebx), %cl
	jne	.L3
.LVL7:
.LBB4:
.LBB5:
	.loc 1 89 0 discriminator 1
	testb	%dl, %dl
	je	.L4
	.loc 1 94 0
	cmpl	$0, (%ebx)
	jne	.L3
	jmp	.L5
.L4:
	.loc 1 101 0
	movl	(%ebx), %eax
	testl	%eax, %eax
	je	.L5
	cmpl	ip_data+20, %eax
	je	.L5
	movb	%dl, %al
	jmp	.L3
.L5:
.LVL8:
.LBE5:
.LBE4:
	.loc 1 162 0
	movl	20(%ebx), %eax
	testl	%eax, %eax
	je	.L3
	.loc 1 167 0
	pushl	$ip_data+16
	pushl	%esi
	pushl	%ebx
	pushl	24(%ebx)
	movb	%cl, -26(%ebp)
	movb	%dl, -25(%ebp)
	call	*%eax
.LVL9:
	.loc 1 168 0
	addl	$16, %esp
	testb	%al, %al
	movb	-25(%ebp), %dl
	movb	-26(%ebp), %cl
	jne	.L24
.LVL10:
.L3:
	.loc 1 189 0
	movl	%ebx, %edi
	movl	12(%ebx), %ebx
.LVL11:
	jmp	.L2
.L24:
.LVL12:
	.loc 1 172 0
	testl	%edi, %edi
	je	.L10
	.loc 1 175 0
	movl	12(%ebx), %eax
	movl	%eax, 12(%edi)
	.loc 1 176 0
	movl	raw_pcbs, %eax
	.loc 1 177 0
	movl	%ebx, raw_pcbs
	.loc 1 176 0
	movl	%eax, 12(%ebx)
.L10:
	.loc 1 171 0
	movb	$1, %al
	.loc 1 170 0
	xorl	%esi, %esi
	jmp	.L3
.LVL13:
.L15:
	.loc 1 192 0
	leal	-12(%ebp), %esp
	popl	%ebx
	.cfi_restore 3
.LVL14:
	popl	%esi
	.cfi_restore 6
.LVL15:
	popl	%edi
	.cfi_restore 7
.LVL16:
	popl	%ebp
	.cfi_restore 5
	.cfi_def_cfa 4, 4
	ret
	.cfi_endproc
.LFE24:
	.size	raw_input, .-raw_input
	.section	.text.unlikely.raw_input
.LCOLDE0:
	.section	.text.raw_input
.LHOTE0:
	.section	.text.unlikely.raw_bind,"ax",@progbits
.LCOLDB1:
	.section	.text.raw_bind,"ax",@progbits
.LHOTB1:
	.globl	raw_bind
	.type	raw_bind, @function
raw_bind:
.LFB25:
	.loc 1 211 0
	.cfi_startproc
.LVL17:
	pushl	%ebp
	.cfi_def_cfa_offset 8
	.cfi_offset 5, -8
	movl	%esp, %ebp
	.cfi_def_cfa_register 5
	.loc 1 211 0
	movl	8(%ebp), %eax
	movl	12(%ebp), %edx
	.loc 1 212 0
	testl	%eax, %eax
	je	.L27
	testl	%edx, %edx
	je	.L27
	.loc 1 215 0 discriminator 1
	movl	(%edx), %edx
	.loc 1 215 0 discriminator 1
	movl	%edx, (%eax)
	.loc 1 216 0 discriminator 1
	xorl	%eax, %eax
	jmp	.L26
.LVL18:
.L27:
	.loc 1 213 0
	movb	$-6, %al
.LVL19:
.L26:
	.loc 1 217 0
	popl	%ebp
	.cfi_restore 5
	.cfi_def_cfa 4, 4
	ret
	.cfi_endproc
.LFE25:
	.size	raw_bind, .-raw_bind
	.section	.text.unlikely.raw_bind
.LCOLDE1:
	.section	.text.raw_bind
.LHOTE1:
	.section	.text.unlikely.raw_connect,"ax",@progbits
.LCOLDB2:
	.section	.text.raw_connect,"ax",@progbits
.LHOTB2:
	.globl	raw_connect
	.type	raw_connect, @function
raw_connect:
.LFB26:
	.loc 1 235 0
	.cfi_startproc
.LVL20:
	pushl	%ebp
	.cfi_def_cfa_offset 8
	.cfi_offset 5, -8
	movl	%esp, %ebp
	.cfi_def_cfa_register 5
	.loc 1 235 0
	movl	8(%ebp), %eax
	movl	12(%ebp), %edx
	.loc 1 236 0
	testl	%eax, %eax
	je	.L31
	testl	%edx, %edx
	je	.L31
	.loc 1 239 0 discriminator 1
	movl	(%edx), %edx
	.loc 1 239 0 discriminator 1
	movl	%edx, 4(%eax)
	.loc 1 240 0 discriminator 1
	xorl	%eax, %eax
	jmp	.L30
.LVL21:
.L31:
	.loc 1 237 0
	movb	$-6, %al
.LVL22:
.L30:
	.loc 1 241 0
	popl	%ebp
	.cfi_restore 5
	.cfi_def_cfa 4, 4
	ret
	.cfi_endproc
.LFE26:
	.size	raw_connect, .-raw_connect
	.section	.text.unlikely.raw_connect
.LCOLDE2:
	.section	.text.raw_connect
.LHOTE2:
	.section	.text.unlikely.raw_recv,"ax",@progbits
.LCOLDB3:
	.section	.text.raw_recv,"ax",@progbits
.LHOTB3:
	.globl	raw_recv
	.type	raw_recv, @function
raw_recv:
.LFB27:
	.loc 1 256 0
	.cfi_startproc
.LVL23:
	pushl	%ebp
	.cfi_def_cfa_offset 8
	.cfi_offset 5, -8
	movl	%esp, %ebp
	.cfi_def_cfa_register 5
	.loc 1 256 0
	movl	8(%ebp), %eax
	.loc 1 258 0
	movl	12(%ebp), %edx
	movl	%edx, 20(%eax)
	.loc 1 259 0
	movl	16(%ebp), %edx
	movl	%edx, 24(%eax)
	.loc 1 260 0
	popl	%ebp
	.cfi_restore 5
	.cfi_def_cfa 4, 4
	ret
	.cfi_endproc
.LFE27:
	.size	raw_recv, .-raw_recv
	.section	.text.unlikely.raw_recv
.LCOLDE3:
	.section	.text.raw_recv
.LHOTE3:
	.section	.text.unlikely.raw_sendto,"ax",@progbits
.LCOLDB4:
	.section	.text.raw_sendto,"ax",@progbits
.LHOTB4:
	.globl	raw_sendto
	.type	raw_sendto, @function
raw_sendto:
.LFB28:
	.loc 1 277 0
	.cfi_startproc
.LVL24:
	pushl	%ebp
	.cfi_def_cfa_offset 8
	.cfi_offset 5, -8
	movl	%esp, %ebp
	.cfi_def_cfa_register 5
.LVL25:
	pushl	%edi
	pushl	%esi
	pushl	%ebx
	subl	$12, %esp
	.cfi_offset 7, -12
	.cfi_offset 6, -16
	.cfi_offset 3, -20
	.loc 1 277 0
	movl	8(%ebp), %esi
	movl	12(%ebp), %ebx
	.loc 1 285 0
	testl	%esi, %esi
	je	.L44
	cmpl	$0, 16(%ebp)
	je	.L44
.LVL26:
	.loc 1 301 0
	pushl	%eax
	pushl	%eax
	pushl	$20
	pushl	%ebx
	call	pbuf_header
.LVL27:
	addl	$16, %esp
	testb	%al, %al
	je	.L37
	.loc 1 303 0
	pushl	%eax
	pushl	$0
	pushl	$0
	pushl	$1
	call	pbuf_alloc
.LVL28:
	.loc 1 305 0
	addl	$16, %esp
	testl	%eax, %eax
	.loc 1 303 0
	movl	%eax, %edi
.LVL29:
	.loc 1 305 0
	jne	.L38
.LVL30:
.L40:
	.loc 1 307 0
	movb	$-1, %al
	jmp	.L36
.LVL31:
.L38:
	.loc 1 309 0
	cmpw	$0, 8(%ebx)
	je	.L39
.LVL32:
	.loc 1 311 0
	pushl	%eax
	pushl	%eax
	pushl	%ebx
	pushl	%edi
	call	pbuf_chain
.LVL33:
	addl	$16, %esp
	jmp	.L39
.LVL34:
.L37:
	.loc 1 318 0
	pushl	%ecx
	pushl	%ecx
	pushl	$-20
	pushl	%ebx
	call	pbuf_header
.LVL35:
	addl	$16, %esp
	testb	%al, %al
	jne	.L40
	movl	%ebx, %edi
.LVL36:
.L39:
	.loc 1 324 0
	subl	$12, %esp
	pushl	16(%ebp)
	call	ip4_route
.LVL37:
	.loc 1 325 0
	addl	$16, %esp
	testl	%eax, %eax
	jne	.L41
	.loc 1 329 0
	cmpl	%ebx, %edi
	.loc 1 332 0
	movb	$-4, %al
.LVL38:
	.loc 1 329 0
	je	.L36
	.loc 1 330 0
	subl	$12, %esp
	pushl	%edi
	call	pbuf_free
.LVL39:
	addl	$16, %esp
	.loc 1 332 0
	movb	$-4, %al
	jmp	.L36
.LVL40:
.L41:
	.loc 1 350 0
	cmpl	$0, (%esi)
	leal	4(%eax), %ecx
	.loc 1 377 0
	pushl	%edx
	pushl	%eax
	movzbl	16(%esi), %eax
.LVL41:
	.loc 1 350 0
	cmovne	%esi, %ecx
.LVL42:
	.loc 1 377 0
	pushl	%eax
.LVL43:
	movzbl	9(%esi), %eax
	pushl	%eax
.LVL44:
	movzbl	10(%esi), %eax
	pushl	%eax
.LVL45:
	pushl	16(%ebp)
.LVL46:
	pushl	%ecx
.LVL47:
	pushl	%edi
.LVL48:
	call	ip4_output_if
.LVL49:
	.loc 1 381 0
	addl	$32, %esp
	cmpl	%ebx, %edi
	.loc 1 377 0
	movl	%eax, %esi
.LVL50:
	.loc 1 381 0
	je	.L36
	.loc 1 383 0
	subl	$12, %esp
	pushl	%edi
	call	pbuf_free
.LVL51:
	addl	$16, %esp
	.loc 1 385 0
	movl	%esi, %eax
	jmp	.L36
.LVL52:
.L44:
	.loc 1 286 0
	movb	$-6, %al
.L36:
	.loc 1 386 0
	leal	-12(%ebp), %esp
	popl	%ebx
	.cfi_restore 3
	popl	%esi
	.cfi_restore 6
	popl	%edi
	.cfi_restore 7
	popl	%ebp
	.cfi_restore 5
	.cfi_def_cfa 4, 4
	ret
	.cfi_endproc
.LFE28:
	.size	raw_sendto, .-raw_sendto
	.section	.text.unlikely.raw_sendto
.LCOLDE4:
	.section	.text.raw_sendto
.LHOTE4:
	.section	.text.unlikely.raw_send,"ax",@progbits
.LCOLDB5:
	.section	.text.raw_send,"ax",@progbits
.LHOTB5:
	.globl	raw_send
	.type	raw_send, @function
raw_send:
.LFB29:
	.loc 1 398 0
	.cfi_startproc
.LVL53:
	pushl	%ebp
	.cfi_def_cfa_offset 8
	.cfi_offset 5, -8
	movl	%esp, %ebp
	.cfi_def_cfa_register 5
	subl	$12, %esp
	.loc 1 398 0
	movl	8(%ebp), %eax
	.loc 1 399 0
	leal	4(%eax), %edx
	pushl	%edx
	pushl	12(%ebp)
	pushl	%eax
	call	raw_sendto
.LVL54:
	.loc 1 400 0
	leave
	.cfi_restore 5
	.cfi_def_cfa 4, 4
	ret
	.cfi_endproc
.LFE29:
	.size	raw_send, .-raw_send
	.section	.text.unlikely.raw_send
.LCOLDE5:
	.section	.text.raw_send
.LHOTE5:
	.section	.text.unlikely.raw_remove,"ax",@progbits
.LCOLDB6:
	.section	.text.raw_remove,"ax",@progbits
.LHOTB6:
	.globl	raw_remove
	.type	raw_remove, @function
raw_remove:
.LFB30:
	.loc 1 413 0
	.cfi_startproc
.LVL55:
	pushl	%ebp
	.cfi_def_cfa_offset 8
	.cfi_offset 5, -8
	movl	%esp, %ebp
	.cfi_def_cfa_register 5
	subl	$8, %esp
	.loc 1 416 0
	movl	raw_pcbs, %edx
	.loc 1 413 0
	movl	8(%ebp), %eax
	.loc 1 416 0
	cmpl	%eax, %edx
	jne	.L52
	.loc 1 418 0
	movl	12(%eax), %edx
	movl	%edx, raw_pcbs
	jmp	.L53
.LVL56:
.L55:
	.loc 1 423 0
	movl	12(%edx), %ecx
	testl	%ecx, %ecx
	jne	.L60
.L54:
	.loc 1 413 0 discriminator 1
	movl	%ecx, %edx
.LVL57:
.L52:
	.loc 1 421 0 discriminator 1
	testl	%edx, %edx
	jne	.L55
	jmp	.L53
.L60:
	.loc 1 423 0 discriminator 1
	cmpl	%ecx, %eax
	jne	.L54
	.loc 1 425 0
	movl	12(%eax), %ecx
	movl	%ecx, 12(%edx)
.LVL58:
.L53:
	.loc 1 430 0
	pushl	%edx
	pushl	%edx
	pushl	%eax
	pushl	$0
	call	memp_free
.LVL59:
	.loc 1 431 0
	addl	$16, %esp
	leave
	.cfi_restore 5
	.cfi_def_cfa 4, 4
	ret
	.cfi_endproc
.LFE30:
	.size	raw_remove, .-raw_remove
	.section	.text.unlikely.raw_remove
.LCOLDE6:
	.section	.text.raw_remove
.LHOTE6:
	.section	.text.unlikely.raw_new,"ax",@progbits
.LCOLDB7:
	.section	.text.raw_new,"ax",@progbits
.LHOTB7:
	.globl	raw_new
	.type	raw_new, @function
raw_new:
.LFB31:
	.loc 1 446 0
	.cfi_startproc
.LVL60:
	pushl	%ebp
	.cfi_def_cfa_offset 8
	.cfi_offset 5, -8
	movl	%esp, %ebp
	.cfi_def_cfa_register 5
	pushl	%edi
	pushl	%ebx
	.cfi_offset 7, -12
	.cfi_offset 3, -16
	.loc 1 446 0
	movl	8(%ebp), %ebx
	.loc 1 451 0
	subl	$12, %esp
	pushl	$0
	call	memp_malloc
.LVL61:
	.loc 1 453 0
	addl	$16, %esp
	testl	%eax, %eax
	.loc 1 451 0
	movl	%eax, %edx
.LVL62:
	.loc 1 453 0
	je	.L62
	.loc 1 455 0
	xorl	%eax, %eax
.LVL63:
	movl	$7, %ecx
	movl	%edx, %edi
	rep stosl
	.loc 1 458 0
	movl	raw_pcbs, %eax
	.loc 1 456 0
	movb	%bl, 16(%edx)
	.loc 1 457 0
	movb	$-1, 10(%edx)
	.loc 1 459 0
	movl	%edx, raw_pcbs
	.loc 1 458 0
	movl	%eax, 12(%edx)
.L62:
	.loc 1 462 0
	leal	-8(%ebp), %esp
	movl	%edx, %eax
	popl	%ebx
	.cfi_restore 3
	popl	%edi
	.cfi_restore 7
	popl	%ebp
	.cfi_restore 5
	.cfi_def_cfa 4, 4
	ret
	.cfi_endproc
.LFE31:
	.size	raw_new, .-raw_new
	.section	.text.unlikely.raw_new
.LCOLDE7:
	.section	.text.raw_new
.LHOTE7:
	.section	.text.unlikely.raw_new_ip_type,"ax",@progbits
.LCOLDB8:
	.section	.text.raw_new_ip_type,"ax",@progbits
.LHOTB8:
	.globl	raw_new_ip_type
	.type	raw_new_ip_type, @function
raw_new_ip_type:
.LFB32:
	.loc 1 481 0
	.cfi_startproc
.LVL64:
	pushl	%ebp
	.cfi_def_cfa_offset 8
	.cfi_offset 5, -8
	movl	%esp, %ebp
	.cfi_def_cfa_register 5
	.loc 1 483 0
	movzbl	12(%ebp), %eax
	movl	%eax, 8(%ebp)
.LVL65:
	.loc 1 493 0
	popl	%ebp
	.cfi_restore 5
	.cfi_def_cfa 4, 4
	.loc 1 483 0
	jmp	raw_new
.LVL66:
	.cfi_endproc
.LFE32:
	.size	raw_new_ip_type, .-raw_new_ip_type
	.section	.text.unlikely.raw_new_ip_type
.LCOLDE8:
	.section	.text.raw_new_ip_type
.LHOTE8:
	.section	.text.unlikely.raw_netif_ip_addr_changed,"ax",@progbits
.LCOLDB9:
	.section	.text.raw_netif_ip_addr_changed,"ax",@progbits
.LHOTB9:
	.globl	raw_netif_ip_addr_changed
	.type	raw_netif_ip_addr_changed, @function
raw_netif_ip_addr_changed:
.LFB33:
	.loc 1 501 0
	.cfi_startproc
.LVL67:
	pushl	%ebp
	.cfi_def_cfa_offset 8
	.cfi_offset 5, -8
	movl	%esp, %ebp
	.cfi_def_cfa_register 5
	pushl	%ebx
	.cfi_offset 3, -12
	.loc 1 501 0
	movl	8(%ebp), %edx
	movl	12(%ebp), %ecx
	.loc 1 504 0
	testl	%edx, %edx
	je	.L69
	.loc 1 504 0 discriminator 1
	cmpl	$0, (%edx)
	je	.L69
	testl	%ecx, %ecx
	je	.L69
	.loc 1 504 0 is_stmt 0 discriminator 3
	cmpl	$0, (%ecx)
	.loc 1 505 0 is_stmt 1 discriminator 3
	movl	raw_pcbs, %eax
	.loc 1 504 0 discriminator 3
	je	.L69
.L72:
.LVL68:
	.loc 1 505 0 discriminator 1
	testl	%eax, %eax
	je	.L69
	.loc 1 507 0
	movl	(%edx), %ebx
	cmpl	%ebx, (%eax)
	jne	.L73
	.loc 1 510 0
	movl	(%ecx), %ebx
	movl	%ebx, (%eax)
.LVL69:
.L73:
	.loc 1 505 0 discriminator 2
	movl	12(%eax), %eax
.LVL70:
	jmp	.L72
.LVL71:
.L69:
	.loc 1 514 0
	popl	%ebx
	.cfi_restore 3
	popl	%ebp
	.cfi_restore 5
	.cfi_def_cfa 4, 4
	ret
	.cfi_endproc
.LFE33:
	.size	raw_netif_ip_addr_changed, .-raw_netif_ip_addr_changed
	.section	.text.unlikely.raw_netif_ip_addr_changed
.LCOLDE9:
	.section	.text.raw_netif_ip_addr_changed
.LHOTE9:
	.section	.bss.raw_pcbs,"aw",@nobits
	.align 4
	.type	raw_pcbs, @object
	.size	raw_pcbs, 4
raw_pcbs:
	.zero	4
	.text
.Letext0:
	.section	.text.unlikely.raw_input
.Letext_cold0:
	.file 2 "././platform/mcu/moc108/include/lwip-2.0.2/arch/cc.h"
	.file 3 "./kernel/protocols/net/include/lwip/ip4_addr.h"
	.file 4 "./kernel/protocols/net/include/lwip/ip_addr.h"
	.file 5 "./kernel/protocols/net/include/lwip/err.h"
	.file 6 "./kernel/protocols/net/include/lwip/memp.h"
	.file 7 "./kernel/protocols/net/include/lwip/pbuf.h"
	.file 8 "./kernel/protocols/net/include/lwip/netif.h"
	.file 9 "./kernel/protocols/net/include/lwip/prot/ip4.h"
	.file 10 "./kernel/protocols/net/include/lwip/ip.h"
	.file 11 "./kernel/protocols/net/include/lwip/raw.h"
	.file 12 "./include/aos/log.h"
	.file 13 "./kernel/protocols/net/include/lwip/ip4.h"
	.section	.note.GNU-stack,"",@progbits
