	.file	"report.c"
	.text
.Ltext0:
	.section	.rodata.str1.1,"aMS",@progbits,1
.LC0:
	.string	"%s_%s_mid"
	.section	.text.unlikely.iotx_midreport_reqid,"ax",@progbits
.LCOLDB1:
	.section	.text.iotx_midreport_reqid,"ax",@progbits
.LHOTB1:
	.section	.text.unlikely.iotx_midreport_reqid
.Ltext_cold0:
	.section	.text.iotx_midreport_reqid
	.globl	iotx_midreport_reqid
	.type	iotx_midreport_reqid, @function
iotx_midreport_reqid:
.LFB18:
	.file 1 "framework/protocol/linkkit/iotkit/iotkit-system/src/report.c"
	.loc 1 27 0
	.cfi_startproc
.LVL0:
	pushl	%ebp
	.cfi_def_cfa_offset 8
	.cfi_offset 5, -8
	movl	%esp, %ebp
	.cfi_def_cfa_register 5
	subl	$20, %esp
	.loc 1 30 0
	pushl	16(%ebp)
	pushl	12(%ebp)
	pushl	$.LC0
	pushl	$58
	pushl	8(%ebp)
	call	HAL_Snprintf
.LVL1:
	.loc 1 36 0
	leave
	.cfi_restore 5
	.cfi_def_cfa 4, 4
	ret
	.cfi_endproc
.LFE18:
	.size	iotx_midreport_reqid, .-iotx_midreport_reqid
	.section	.text.unlikely.iotx_midreport_reqid
.LCOLDE1:
	.section	.text.iotx_midreport_reqid
.LHOTE1:
	.section	.rodata.str1.1
.LC2:
	.string	"{\"id\":\"%s\",\"params\":{\"_sys_device_mid\":\"%s\",\"_sys_device_pid\":\"%s\"}}"
	.section	.text.unlikely.iotx_midreport_payload,"ax",@progbits
.LCOLDB3:
	.section	.text.iotx_midreport_payload,"ax",@progbits
.LHOTB3:
	.globl	iotx_midreport_payload
	.type	iotx_midreport_payload, @function
iotx_midreport_payload:
.LFB19:
	.loc 1 39 0
	.cfi_startproc
.LVL2:
	pushl	%ebp
	.cfi_def_cfa_offset 8
	.cfi_offset 5, -8
	movl	%esp, %ebp
	.cfi_def_cfa_register 5
	subl	$16, %esp
	.loc 1 42 0
	pushl	20(%ebp)
	pushl	16(%ebp)
	pushl	12(%ebp)
	pushl	$.LC2
	pushl	$223
	pushl	8(%ebp)
	call	HAL_Snprintf
.LVL3:
	.loc 1 49 0
	leave
	.cfi_restore 5
	.cfi_def_cfa 4, 4
	ret
	.cfi_endproc
.LFE19:
	.size	iotx_midreport_payload, .-iotx_midreport_payload
	.section	.text.unlikely.iotx_midreport_payload
.LCOLDE3:
	.section	.text.iotx_midreport_payload
.LHOTE3:
	.section	.rodata.str1.1
.LC4:
	.string	"%s/sys/%s/%s/thing/status/update"
	.section	.text.unlikely.iotx_midreport_topic,"ax",@progbits
.LCOLDB5:
	.section	.text.iotx_midreport_topic,"ax",@progbits
.LHOTB5:
	.globl	iotx_midreport_topic
	.type	iotx_midreport_topic, @function
iotx_midreport_topic:
.LFB20:
	.loc 1 52 0
	.cfi_startproc
.LVL4:
	pushl	%ebp
	.cfi_def_cfa_offset 8
	.cfi_offset 5, -8
	movl	%esp, %ebp
	.cfi_def_cfa_register 5
	subl	$16, %esp
	.loc 1 55 0
	pushl	20(%ebp)
	pushl	16(%ebp)
	pushl	12(%ebp)
	pushl	$.LC4
	pushl	$135
	pushl	8(%ebp)
	call	HAL_Snprintf
.LVL5:
	.loc 1 62 0
	leave
	.cfi_restore 5
	.cfi_def_cfa 4, 4
	ret
	.cfi_endproc
.LFE20:
	.size	iotx_midreport_topic, .-iotx_midreport_topic
	.section	.text.unlikely.iotx_midreport_topic
.LCOLDE5:
	.section	.text.iotx_midreport_topic
.LHOTE5:
	.text
.Letext0:
	.section	.text.unlikely.iotx_midreport_reqid
.Letext_cold0:
	.file 2 "./framework/protocol/linkkit/iotkit/sdk-encap/iot_import.h"
	.section	.note.GNU-stack,"",@progbits
