	.file	"rpa.c"
	.text
.Ltext0:
	.section	.text.unlikely.bt_rpa_irk_matches,"ax",@progbits
.LCOLDB0:
	.section	.text.bt_rpa_irk_matches,"ax",@progbits
.LHOTB0:
	.section	.text.unlikely.bt_rpa_irk_matches
.Ltext_cold0:
	.section	.text.bt_rpa_irk_matches
	.globl	bt_rpa_irk_matches
	.type	bt_rpa_irk_matches, @function
bt_rpa_irk_matches:
.LFB75:
	.file 1 "src/rpa.c"
	.loc 1 2979 0
	.cfi_startproc
.LVL0:
	pushl	%ebp
	.cfi_def_cfa_offset 8
	.cfi_offset 5, -8
.LBB4:
.LBB5:
	.loc 1 2969 0
	movl	$13, %ecx
.LBE5:
.LBE4:
	.loc 1 2979 0
	movl	%esp, %ebp
	.cfi_def_cfa_register 5
	pushl	%edi
	pushl	%esi
	pushl	%ebx
	.cfi_offset 7, -12
	.cfi_offset 6, -16
	.cfi_offset 3, -20
.LBB9:
.LBB6:
	.loc 1 2969 0
	leal	-41(%ebp), %esi
	.loc 1 2968 0
	leal	-44(%ebp), %edx
.LBE6:
.LBE9:
	.loc 1 2979 0
	subl	$48, %esp
	.loc 1 2979 0
	movl	12(%ebp), %ebx
.LBB10:
.LBB7:
	.loc 1 2969 0
	movl	%esi, %edi
.LBE7:
.LBE10:
	.loc 1 2979 0
	movl	%gs:20, %eax
	movl	%eax, -28(%ebp)
	xorl	%eax, %eax
.LVL1:
.LBB11:
.LBB8:
	.loc 1 2968 0
	movw	3(%ebx), %ax
	movw	%ax, -44(%ebp)
	movb	5(%ebx), %al
	movb	%al, -42(%ebp)
	.loc 1 2969 0
	xorl	%eax, %eax
	rep stosb
	.loc 1 2970 0
	pushl	%edx
	pushl	%edx
	pushl	8(%ebp)
	call	bt_encrypt_le
.LVL2:
	.loc 1 2971 0
	addl	$16, %esp
	xorl	%edx, %edx
	testl	%eax, %eax
	jne	.L3
	.loc 1 2974 0
	movl	-44(%ebp), %eax
.LVL3:
	movw	%ax, -47(%ebp)
	movb	-42(%ebp), %al
	movb	%al, -45(%ebp)
.LVL4:
.LBE8:
.LBE11:
	.loc 1 2989 0
	pushl	%eax
	leal	-47(%ebp), %eax
	pushl	$3
	pushl	%eax
	pushl	%ebx
	call	memcmp
.LVL5:
	addl	$16, %esp
	testl	%eax, %eax
	sete	%dl
.L3:
	.loc 1 2990 0
	movl	-28(%ebp), %ecx
	xorl	%gs:20, %ecx
	movb	%dl, %al
	je	.L4
	call	__stack_chk_fail
.LVL6:
.L4:
	leal	-12(%ebp), %esp
	popl	%ebx
	.cfi_restore 3
	popl	%esi
	.cfi_restore 6
	popl	%edi
	.cfi_restore 7
	popl	%ebp
	.cfi_restore 5
	.cfi_def_cfa 4, 4
	ret
	.cfi_endproc
.LFE75:
	.size	bt_rpa_irk_matches, .-bt_rpa_irk_matches
	.section	.text.unlikely.bt_rpa_irk_matches
.LCOLDE0:
	.section	.text.bt_rpa_irk_matches
.LHOTE0:
	.section	.text.unlikely.bt_rpa_create,"ax",@progbits
.LCOLDB1:
	.section	.text.bt_rpa_create,"ax",@progbits
.LHOTB1:
	.globl	bt_rpa_create
	.type	bt_rpa_create, @function
bt_rpa_create:
.LFB76:
	.loc 1 2992 0
	.cfi_startproc
.LVL7:
	pushl	%ebp
	.cfi_def_cfa_offset 8
	.cfi_offset 5, -8
	.loc 1 2994 0
	movl	$-35, %eax
	.loc 1 2992 0
	movl	%esp, %ebp
	.cfi_def_cfa_register 5
	.loc 1 2994 0
	popl	%ebp
	.cfi_restore 5
	.cfi_def_cfa 4, 4
	ret
	.cfi_endproc
.LFE76:
	.size	bt_rpa_create, .-bt_rpa_create
	.section	.text.unlikely.bt_rpa_create
.LCOLDE1:
	.section	.text.bt_rpa_create
.LHOTE1:
	.text
.Letext0:
	.section	.text.unlikely.bt_rpa_irk_matches
.Letext_cold0:
	.section	.note.GNU-stack,"",@progbits
