	.file	"sdk-impl.c"
	.text
.Ltext0:
	.section	.rodata.str1.1,"aMS",@progbits,1
.LC0:
	.string	"---"
	.section	.text.unlikely.IOT_OpenLog,"ax",@progbits
.LCOLDB1:
	.section	.text.IOT_OpenLog,"ax",@progbits
.LHOTB1:
	.section	.text.unlikely.IOT_OpenLog
.Ltext_cold0:
	.section	.text.IOT_OpenLog
	.globl	IOT_OpenLog
	.type	IOT_OpenLog, @function
IOT_OpenLog:
.LFB18:
	.file 1 "framework/protocol/linkkit/iotkit/iotkit-system/src/sdk-impl.c"
	.loc 1 25 0
	.cfi_startproc
.LVL0:
	pushl	%ebp
	.cfi_def_cfa_offset 8
	.cfi_offset 5, -8
	.loc 1 29 0
	movl	$.LC0, %edx
	.loc 1 25 0
	movl	%esp, %ebp
	.cfi_def_cfa_register 5
	.loc 1 25 0
	movl	8(%ebp), %eax
.LVL1:
	.loc 1 29 0
	testl	%eax, %eax
	cmove	%edx, %eax
.LVL2:
	.loc 1 32 0
	movl	%eax, 8(%ebp)
.LVL3:
	.loc 1 33 0
	popl	%ebp
	.cfi_restore 5
	.cfi_def_cfa 4, 4
	.loc 1 32 0
	jmp	LITE_openlog
.LVL4:
	.cfi_endproc
.LFE18:
	.size	IOT_OpenLog, .-IOT_OpenLog
	.section	.text.unlikely.IOT_OpenLog
.LCOLDE1:
	.section	.text.IOT_OpenLog
.LHOTE1:
	.section	.text.unlikely.IOT_CloseLog,"ax",@progbits
.LCOLDB2:
	.section	.text.IOT_CloseLog,"ax",@progbits
.LHOTB2:
	.globl	IOT_CloseLog
	.type	IOT_CloseLog, @function
IOT_CloseLog:
.LFB19:
	.loc 1 36 0
	.cfi_startproc
	pushl	%ebp
	.cfi_def_cfa_offset 8
	.cfi_offset 5, -8
	movl	%esp, %ebp
	.cfi_def_cfa_register 5
	.loc 1 38 0
	popl	%ebp
	.cfi_restore 5
	.cfi_def_cfa 4, 4
	.loc 1 37 0
	jmp	LITE_closelog
.LVL5:
	.cfi_endproc
.LFE19:
	.size	IOT_CloseLog, .-IOT_CloseLog
	.section	.text.unlikely.IOT_CloseLog
.LCOLDE2:
	.section	.text.IOT_CloseLog
.LHOTE2:
	.section	.rodata.str1.1
.LC3:
	.string	"Invalid input level: %d out of [%d, %d]"
	.section	.text.unlikely.IOT_SetLogLevel,"ax",@progbits
.LCOLDB4:
	.section	.text.IOT_SetLogLevel,"ax",@progbits
.LHOTB4:
	.globl	IOT_SetLogLevel
	.type	IOT_SetLogLevel, @function
IOT_SetLogLevel:
.LFB20:
	.loc 1 41 0
	.cfi_startproc
.LVL6:
	pushl	%ebp
	.cfi_def_cfa_offset 8
	.cfi_offset 5, -8
	movl	%esp, %ebp
	.cfi_def_cfa_register 5
	subl	$8, %esp
	.loc 1 41 0
	movl	8(%ebp), %eax
.LVL7:
	.loc 1 44 0
	cmpl	$5, %eax
	jbe	.L7
	.loc 1 45 0
	pushl	%edx
	pushl	$5
	pushl	$0
	pushl	%eax
	pushl	$.LC3
	pushl	$2
	pushl	$47
	pushl	$__FUNCTION__.3734
	call	LITE_syslog
.LVL8:
	.loc 1 48 0
	addl	$32, %esp
	.loc 1 52 0
	leave
	.cfi_remember_state
	.cfi_restore 5
	.cfi_def_cfa 4, 4
	ret
.LVL9:
.L7:
	.cfi_restore_state
	.loc 1 51 0
	movl	%eax, 8(%ebp)
.LVL10:
	.loc 1 52 0
	leave
	.cfi_restore 5
	.cfi_def_cfa 4, 4
	.loc 1 51 0
	jmp	LITE_set_loglevel
.LVL11:
	.cfi_endproc
.LFE20:
	.size	IOT_SetLogLevel, .-IOT_SetLogLevel
	.section	.text.unlikely.IOT_SetLogLevel
.LCOLDE4:
	.section	.text.IOT_SetLogLevel
.LHOTE4:
	.section	.rodata.str1.1
.LC5:
	.string	"Invalid input level, using default: %d => %d"
	.section	.text.unlikely.IOT_DumpMemoryStats,"ax",@progbits
.LCOLDB6:
	.section	.text.IOT_DumpMemoryStats,"ax",@progbits
.LHOTB6:
	.globl	IOT_DumpMemoryStats
	.type	IOT_DumpMemoryStats, @function
IOT_DumpMemoryStats:
.LFB21:
	.loc 1 55 0
	.cfi_startproc
.LVL12:
	pushl	%ebp
	.cfi_def_cfa_offset 8
	.cfi_offset 5, -8
	movl	%esp, %ebp
	.cfi_def_cfa_register 5
	subl	$8, %esp
	.loc 1 55 0
	movl	8(%ebp), %eax
.LVL13:
	.loc 1 58 0
	cmpl	$5, %eax
	jbe	.L13
.LVL14:
	.loc 1 60 0
	pushl	%edx
	pushl	%edx
	pushl	$5
	pushl	%eax
	pushl	$.LC5
	pushl	$3
	pushl	$60
	pushl	$__FUNCTION__.3739
	call	LITE_syslog
.LVL15:
	addl	$32, %esp
	.loc 1 59 0
	movl	$5, %eax
.LVL16:
.L13:
	.loc 1 63 0
	movl	%eax, 8(%ebp)
	.loc 1 64 0
	leave
	.cfi_restore 5
	.cfi_def_cfa 4, 4
	.loc 1 63 0
	jmp	LITE_dump_malloc_free_stats
.LVL17:
	.cfi_endproc
.LFE21:
	.size	IOT_DumpMemoryStats, .-IOT_DumpMemoryStats
	.section	.text.unlikely.IOT_DumpMemoryStats
.LCOLDE6:
	.section	.text.IOT_DumpMemoryStats
.LHOTE6:
	.section	.rodata.str1.1
.LC7:
	.string	"Invalid argument, info_ptr = %p"
.LC8:
	.string	"product_key"
.LC9:
	.string	"Invalid argument, %s = %p"
.LC10:
	.string	"Invalid argument, %s = '%s'"
.LC11:
	.string	"device_name"
.LC12:
	.string	"device_secret"
	.section	.text.unlikely.IOT_SetupConnInfo,"ax",@progbits
.LCOLDB13:
	.section	.text.IOT_SetupConnInfo,"ax",@progbits
.LHOTB13:
	.globl	IOT_SetupConnInfo
	.type	IOT_SetupConnInfo, @function
IOT_SetupConnInfo:
.LFB22:
	.loc 1 71 0
	.cfi_startproc
.LVL18:
	pushl	%ebp
	.cfi_def_cfa_offset 8
	.cfi_offset 5, -8
	movl	%esp, %ebp
	.cfi_def_cfa_register 5
	pushl	%edi
	pushl	%esi
	pushl	%ebx
	subl	$28, %esp
	.cfi_offset 7, -12
	.cfi_offset 6, -16
	.cfi_offset 3, -20
	.loc 1 71 0
	movl	20(%ebp), %edi
	movl	8(%ebp), %ebx
	movl	12(%ebp), %esi
	movl	16(%ebp), %edx
	.loc 1 74 0
	testl	%edi, %edi
	jne	.L17
	.loc 1 75 0
	subl	$12, %esp
	pushl	$0
	pushl	$.LC7
	pushl	$2
	pushl	$75
	jmp	.L28
.L17:
	.loc 1 79 0
	testl	%ebx, %ebx
	jne	.L19
	.loc 1 79 0 discriminator 1
	pushl	%eax
	pushl	%eax
	pushl	$0
	pushl	$.LC8
	pushl	$.LC9
.L29:
	pushl	$2
	pushl	$79
.L28:
	pushl	$__FUNCTION__.3747
	call	LITE_syslog
.LVL19:
	addl	$32, %esp
	jmp	.L27
.L19:
	.loc 1 79 0 is_stmt 0 discriminator 2
	cmpb	$0, (%ebx)
	jne	.L20
	.loc 1 79 0 discriminator 3
	pushl	%eax
	pushl	%eax
	pushl	%ebx
	pushl	$.LC8
	pushl	$.LC10
	jmp	.L29
.L20:
	.loc 1 80 0 is_stmt 1
	testl	%esi, %esi
	jne	.L21
	.loc 1 80 0 discriminator 1
	pushl	%eax
	pushl	%eax
	pushl	$0
	pushl	$.LC11
	pushl	$.LC9
	jmp	.L30
.L21:
	.loc 1 80 0 is_stmt 0 discriminator 2
	cmpb	$0, (%esi)
	jne	.L22
	.loc 1 80 0 discriminator 3
	pushl	%edi
	pushl	%edi
	pushl	%esi
	pushl	$.LC11
	pushl	$.LC10
.L30:
	pushl	$2
	pushl	$80
	jmp	.L28
.L22:
	.loc 1 81 0 is_stmt 1
	testl	%edx, %edx
	jne	.L23
	.loc 1 81 0 discriminator 1
	pushl	%ebx
	pushl	%ebx
	pushl	$0
	pushl	$.LC12
	pushl	$.LC9
	jmp	.L31
.L23:
	.loc 1 81 0 is_stmt 0 discriminator 2
	cmpb	$0, (%edx)
	jne	.L24
	.loc 1 81 0 discriminator 3
	pushl	%ecx
	pushl	%ecx
	pushl	%edx
	pushl	$.LC12
	pushl	$.LC10
.L31:
	pushl	$2
	pushl	$81
	jmp	.L28
.L24:
	movl	%edx, -28(%ebp)
	.loc 1 83 0 is_stmt 1
	call	iotx_device_info_init
.LVL20:
	.loc 1 84 0
	movl	-28(%ebp), %edx
	pushl	%eax
	pushl	%edx
	pushl	%esi
	pushl	%ebx
	call	iotx_device_info_set
.LVL21:
	.loc 1 86 0
	call	iotx_guider_authenticate
.LVL22:
	.loc 1 87 0
	addl	$16, %esp
	testl	%eax, %eax
	jne	.L25
	.loc 1 88 0
	call	iotx_conn_info_get
.LVL23:
	movl	%eax, (%edi)
	.loc 1 89 0
	xorl	%eax, %eax
	jmp	.L18
.LVL24:
.L25:
	.loc 1 91 0
	movl	$0, (%edi)
.LVL25:
.L27:
	.loc 1 92 0
	orl	$-1, %eax
.L18:
	.loc 1 94 0
	leal	-12(%ebp), %esp
	popl	%ebx
	.cfi_restore 3
	popl	%esi
	.cfi_restore 6
	popl	%edi
	.cfi_restore 7
	popl	%ebp
	.cfi_restore 5
	.cfi_def_cfa 4, 4
	ret
	.cfi_endproc
.LFE22:
	.size	IOT_SetupConnInfo, .-IOT_SetupConnInfo
	.section	.text.unlikely.IOT_SetupConnInfo
.LCOLDE13:
	.section	.text.IOT_SetupConnInfo
.LHOTE13:
	.section	.rodata.__FUNCTION__.3747,"a",@progbits
	.align 4
	.type	__FUNCTION__.3747, @object
	.size	__FUNCTION__.3747, 18
__FUNCTION__.3747:
	.string	"IOT_SetupConnInfo"
	.section	.rodata.__FUNCTION__.3739,"a",@progbits
	.align 4
	.type	__FUNCTION__.3739, @object
	.size	__FUNCTION__.3739, 20
__FUNCTION__.3739:
	.string	"IOT_DumpMemoryStats"
	.section	.rodata.__FUNCTION__.3734,"a",@progbits
	.align 4
	.type	__FUNCTION__.3734, @object
	.size	__FUNCTION__.3734, 16
__FUNCTION__.3734:
	.string	"IOT_SetLogLevel"
	.text
.Letext0:
	.section	.text.unlikely.IOT_OpenLog
.Letext_cold0:
	.file 2 "./framework/protocol/linkkit/iotkit/base/utils/iot_export.h"
	.file 3 "./framework/protocol/linkkit/iotkit/base/log/LITE-log/lite-log.h"
	.file 4 "./framework/protocol/linkkit/iotkit/base/utils/LITE-utils/src/lite-utils.h"
	.file 5 "./framework/protocol/linkkit/iotkit/iotkit-system/lite-system.h"
	.section	.note.GNU-stack,"",@progbits
