	.file	"select.c"
	.text
.Ltext0:
	.section	.text.unlikely.vfs_poll_notify,"ax",@progbits
.LCOLDB0:
	.section	.text.vfs_poll_notify,"ax",@progbits
.LHOTB0:
	.section	.text.unlikely.vfs_poll_notify
.Ltext_cold0:
	.section	.text.vfs_poll_notify
	.type	vfs_poll_notify, @function
vfs_poll_notify:
.LFB17:
	.file 1 "kernel/vfs/select.c"
	.loc 1 155 0
	.cfi_startproc
.LVL0:
	pushl	%ebp
	.cfi_def_cfa_offset 8
	.cfi_offset 5, -8
	movl	%esp, %ebp
	.cfi_def_cfa_register 5
	subl	$28, %esp
	.loc 1 155 0
	movl	%gs:20, %eax
	movl	%eax, -12(%ebp)
	xorl	%eax, %eax
.LVL1:
	.loc 1 158 0
	leal	-24(%ebp), %eax
	pushl	$8
	.loc 1 157 0
	movl	$1, -24(%ebp)
	movl	$0, -20(%ebp)
	.loc 1 158 0
	pushl	%eax
	movl	12(%ebp), %eax
	pushl	(%eax)
	call	lwip_write
.LVL2:
	.loc 1 159 0
	addl	$16, %esp
	movl	-12(%ebp), %eax
	xorl	%gs:20, %eax
	je	.L2
	call	__stack_chk_fail
.LVL3:
.L2:
	leave
	.cfi_restore 5
	.cfi_def_cfa 4, 4
	ret
	.cfi_endproc
.LFE17:
	.size	vfs_poll_notify, .-vfs_poll_notify
	.section	.text.unlikely.vfs_poll_notify
.LCOLDE0:
	.section	.text.vfs_poll_notify
.LHOTE0:
	.section	.text.unlikely.aos_poll,"ax",@progbits
.LCOLDB1:
	.section	.text.aos_poll,"ax",@progbits
.LHOTB1:
	.globl	aos_poll
	.type	aos_poll, @function
aos_poll:
.LFB25:
	.loc 1 268 0
	.cfi_startproc
.LVL4:
	pushl	%ebp
	.cfi_def_cfa_offset 8
	.cfi_offset 5, -8
	movl	%esp, %ebp
	.cfi_def_cfa_register 5
	pushl	%edi
	pushl	%esi
	pushl	%ebx
	.cfi_offset 7, -12
	.cfi_offset 6, -16
	.cfi_offset 3, -20
	orl	$-1, %esi
	subl	$68, %esp
	.loc 1 268 0
	movl	8(%ebp), %edi
.LBB25:
.LBB26:
	.loc 1 172 0
	pushl	$0
	pushl	$0
.LBE26:
.LBE25:
	.loc 1 268 0
	movl	%gs:20, %eax
	movl	%eax, -28(%ebp)
	xorl	%eax, %eax
.LVL5:
.LBB28:
.LBB27:
	.loc 1 172 0
	call	lwip_eventfd
.LVL6:
	.loc 1 174 0
	addl	$16, %esp
	testl	%eax, %eax
	js	.L6
	.loc 1 178 0
	movl	%eax, -48(%ebp)
.LVL7:
.LBE27:
.LBE28:
.LBB29:
	.loc 1 279 0
	movb	$0, -36(%ebp)
.LVL8:
	xorl	%eax, %eax
	movb	$0, -35(%ebp)
.LVL9:
	movb	$0, -34(%ebp)
.LVL10:
	movb	$0, -33(%ebp)
.LVL11:
	movb	$0, -32(%ebp)
.LVL12:
	movb	$0, -31(%ebp)
.LVL13:
	movb	$0, -30(%ebp)
.LVL14:
	movb	$0, -29(%ebp)
.LVL15:
.L7:
.LBE29:
.LBB30:
.LBB31:
	.loc 1 206 0
	cmpl	12(%ebp), %eax
	jge	.L40
.LVL16:
.LBB32:
	.loc 1 209 0
	movw	$0, 6(%edi,%eax,8)
.LBE32:
	.loc 1 206 0
	incl	%eax
.LVL17:
	jmp	.L7
.LVL18:
.L40:
	movl	%edi, -60(%ebp)
	movl	%edi, %esi
	xorl	%ebx, %ebx
	movl	$0, -64(%ebp)
.LVL19:
.L9:
	.loc 1 212 0
	movl	-64(%ebp), %eax
	cmpl	%eax, 12(%ebp)
	jle	.L41
.LVL20:
.LBB33:
	.loc 1 216 0
	movl	(%esi), %ecx
	cmpl	$63, %ecx
	jg	.L10
.LVL21:
	.loc 1 218 0
	movl	%ecx, %edx
	movl	$1, %eax
	shrl	$5, %edx
	sall	%cl, %eax
	orl	%eax, -36(%ebp,%edx,4)
	.loc 1 219 0
	cmpl	%ecx, %ebx
	cmovl	%ecx, %ebx
.LVL22:
	jmp	.L11
.LVL23:
.L10:
	.loc 1 223 0
	subl	$12, %esp
	pushl	%ecx
	call	get_file
.LVL24:
	.loc 1 225 0
	addl	$16, %esp
	testl	%eax, %eax
	je	.L25
	.loc 1 230 0
	movl	(%eax), %edx
	leal	-48(%ebp), %ecx
	subl	$12, %esp
	movl	(%edx), %edx
	pushl	%ecx
	pushl	%esi
	pushl	$vfs_poll_notify
	pushl	$1
	pushl	%eax
	call	*20(%edx)
.LVL25:
	addl	$32, %esp
.L11:
.LBE33:
	.loc 1 212 0
	incl	-64(%ebp)
.LVL26:
	addl	$8, %esi
.LVL27:
	jmp	.L9
.LVL28:
.L25:
.LBE31:
.LBE30:
	.loc 1 272 0
	xorl	%esi, %esi
.LVL29:
.LBB36:
.LBB35:
.LBB34:
	.loc 1 225 0
	orl	$-1, %ebx
.LVL30:
.L12:
.LBE34:
.LBE35:
.LBE36:
.LBB37:
.LBB38:
	.loc 1 239 0
	movl	$0, -64(%ebp)
	.loc 1 241 0
	xorl	%edi, %edi
.LVL31:
.L18:
	cmpl	%edi, 12(%ebp)
	jle	.L42
.LVL32:
.LBB39:
	.loc 1 245 0
	movl	-60(%ebp), %eax
	movl	(%eax), %eax
	cmpl	$63, %eax
	jle	.L19
	.loc 1 251 0
	subl	$12, %esp
	pushl	%eax
	call	get_file
.LVL33:
	.loc 1 253 0
	addl	$16, %esp
	testl	%eax, %eax
	je	.L19
	.loc 1 257 0
	movl	(%eax), %edx
	subl	$12, %esp
	movl	(%edx), %edx
	pushl	$0
	pushl	$0
	pushl	$0
	pushl	$0
	pushl	%eax
	call	*20(%edx)
.LVL34:
	.loc 1 260 0
	movl	-60(%ebp), %eax
	.loc 1 259 0
	addl	$32, %esp
	.loc 1 260 0
	cmpw	$1, 6(%eax)
	sbbl	$-1, -64(%ebp)
.LVL35:
.L19:
.LBE39:
	.loc 1 241 0
	incl	%edi
.LVL36:
	addl	$8, -60(%ebp)
.LVL37:
	jmp	.L18
.L42:
.LVL38:
.LBE38:
.LBE37:
	.loc 1 303 0
	addl	-64(%ebp), %esi
.LVL39:
.LBB40:
.LBB41:
	.loc 1 185 0
	subl	$12, %esp
	pushl	-48(%ebp)
	call	lwip_close
.LVL40:
.LBE41:
.LBE40:
	.loc 1 307 0
	addl	$16, %esp
	movl	$0, %eax
	testl	%ebx, %ebx
	cmovs	%eax, %esi
.LVL41:
.L6:
	.loc 1 308 0
	movl	-28(%ebp), %edi
	xorl	%gs:20, %edi
	movl	%esi, %eax
	je	.L23
	call	__stack_chk_fail
.LVL42:
.L41:
.LBB42:
.LBB43:
	.loc 1 190 0
	movl	16(%ebp), %eax
	movl	$1024, %ecx
	cltd
	idivl	%ecx
	.loc 1 195 0
	movl	-48(%ebp), %ecx
	.loc 1 190 0
	sall	$10, %edx
	movl	%eax, -44(%ebp)
	.loc 1 195 0
	movl	$1, %eax
	.loc 1 190 0
	movl	%edx, -40(%ebp)
	.loc 1 195 0
	movl	%ecx, %edx
	sall	%cl, %eax
	shrl	$5, %edx
	orl	%eax, -36(%ebp,%edx,4)
.LVL43:
	.loc 1 197 0
	cmpl	$0, 16(%ebp)
	leal	-44(%ebp), %eax
	movl	$0, %edx
	cmovs	%edx, %eax
	subl	$12, %esp
	cmpl	%ecx, %ebx
	pushl	%eax
	cmovl	%ecx, %ebx
.LVL44:
	leal	-36(%ebp), %eax
.LVL45:
	incl	%ebx
	pushl	$0
	pushl	$0
	pushl	%eax
	pushl	%ebx
.LBE43:
.LBE42:
	.loc 1 272 0
	xorl	%esi, %esi
.LBB46:
.LBB44:
	.loc 1 197 0
	call	lwip_select
.LVL46:
.LBE44:
.LBE46:
	.loc 1 288 0
	addl	$32, %esp
	testl	%eax, %eax
.LBB47:
.LBB45:
	.loc 1 197 0
	movl	%eax, %ebx
.LVL47:
.LBE45:
.LBE47:
	.loc 1 288 0
	js	.L12
	addl	$6, %edi
	xorl	%eax, %eax
.LBB48:
.LBB49:
	.loc 1 294 0
	movl	$1, %edx
.L15:
.LVL48:
.LBE49:
	.loc 1 291 0 discriminator 1
	cmpl	12(%ebp), %eax
	jge	.L43
.LVL49:
.LBB50:
	.loc 1 294 0
	movl	-6(%edi), %ecx
	.loc 1 294 0
	movl	%ecx, %esi
	shrl	$5, %esi
	movl	%esi, -64(%ebp)
	.loc 1 294 0
	movl	%edx, %esi
	sall	%cl, %esi
	movl	%esi, %ecx
	movl	-64(%ebp), %esi
	testl	%ecx, -36(%ebp,%esi,4)
	je	.L16
	.loc 1 295 0
	orw	$1, (%edi)
.L16:
.LBE50:
	.loc 1 291 0 discriminator 2
	incl	%eax
.LVL50:
	addl	$8, %edi
.LVL51:
	jmp	.L15
.LVL52:
.L43:
	movl	%ebx, %esi
	jmp	.L12
.LVL53:
.L23:
.LBE48:
	.loc 1 308 0
	leal	-12(%ebp), %esp
	popl	%ebx
	.cfi_restore 3
	popl	%esi
	.cfi_restore 6
	popl	%edi
	.cfi_restore 7
	popl	%ebp
	.cfi_restore 5
	.cfi_def_cfa 4, 4
	ret
	.cfi_endproc
.LFE25:
	.size	aos_poll, .-aos_poll
	.section	.text.unlikely.aos_poll
.LCOLDE1:
	.section	.text.aos_poll
.LHOTE1:
	.section	.text.unlikely.aos_fcntl,"ax",@progbits
.LCOLDB2:
	.section	.text.aos_fcntl,"ax",@progbits
.LHOTB2:
	.globl	aos_fcntl
	.type	aos_fcntl, @function
aos_fcntl:
.LFB26:
	.loc 1 312 0
	.cfi_startproc
.LVL54:
	pushl	%ebp
	.cfi_def_cfa_offset 8
	.cfi_offset 5, -8
	movl	$-22, %eax
	movl	%esp, %ebp
	.cfi_def_cfa_register 5
	.loc 1 312 0
	movl	8(%ebp), %edx
	.loc 1 313 0
	testl	%edx, %edx
	js	.L45
	.loc 1 325 0
	xorl	%eax, %eax
	cmpl	$64, %edx
	setge	%al
	leal	-2(%eax,%eax), %eax
.L45:
	.loc 1 326 0
	popl	%ebp
	.cfi_restore 5
	.cfi_def_cfa 4, 4
	ret
	.cfi_endproc
.LFE26:
	.size	aos_fcntl, .-aos_fcntl
	.section	.text.unlikely.aos_fcntl
.LCOLDE2:
	.section	.text.aos_fcntl
.LHOTE2:
	.section	.text.unlikely.aos_ioctl_in_loop,"ax",@progbits
.LCOLDB3:
	.section	.text.aos_ioctl_in_loop,"ax",@progbits
.LHOTB3:
	.globl	aos_ioctl_in_loop
	.type	aos_ioctl_in_loop, @function
aos_ioctl_in_loop:
.LFB27:
	.loc 1 329 0
	.cfi_startproc
.LVL55:
	pushl	%ebp
	.cfi_def_cfa_offset 8
	.cfi_offset 5, -8
	movl	%esp, %ebp
	.cfi_def_cfa_register 5
	pushl	%esi
	pushl	%ebx
	.cfi_offset 6, -12
	.cfi_offset 3, -16
	.loc 1 333 0
	movl	$64, %ebx
.LVL56:
.L54:
.LBB51:
	.loc 1 338 0
	pushl	%ecx
	pushl	%ecx
	pushl	$-1
	pushl	$g_vfs_mutex
	call	aos_mutex_lock
.LVL57:
	addl	$16, %esp
	testl	%eax, %eax
	jne	.L51
	.loc 1 342 0
	subl	$12, %esp
	pushl	%ebx
	call	get_file
.LVL58:
	.loc 1 344 0
	addl	$16, %esp
	testl	%eax, %eax
	.loc 1 342 0
	movl	%eax, %esi
.LVL59:
	.loc 1 344 0
	jne	.L52
	.loc 1 345 0
	subl	$12, %esp
	pushl	$g_vfs_mutex
	call	aos_mutex_unlock
.LVL60:
	.loc 1 346 0
	addl	$16, %esp
	movl	$-2, %eax
	jmp	.L51
.LVL61:
.L52:
	.loc 1 349 0
	subl	$12, %esp
	pushl	$g_vfs_mutex
	call	aos_mutex_unlock
.LVL62:
	addl	$16, %esp
	testl	%eax, %eax
	jne	.L51
.LVL63:
	.loc 1 355 0
	movl	(%esi), %eax
.LVL64:
	movl	(%eax), %eax
	movl	16(%eax), %eax
	testl	%eax, %eax
	jne	.L53
.LVL65:
.L55:
.LBE51:
	.loc 1 334 0
	incl	%ebx
.LVL66:
	.loc 1 333 0
	cmpl	$89, %ebx
	jne	.L54
	.loc 1 364 0
	xorl	%eax, %eax
	jmp	.L51
.LVL67:
.L53:
.LBB52:
	.loc 1 356 0
	pushl	%edx
.LVL68:
	pushl	12(%ebp)
	pushl	8(%ebp)
	pushl	%esi
	call	*%eax
.LVL69:
	.loc 1 358 0
	addl	$16, %esp
	testl	%eax, %eax
	je	.L55
.LVL70:
.L51:
.LBE52:
	.loc 1 365 0
	leal	-8(%ebp), %esp
	popl	%ebx
	.cfi_restore 3
.LVL71:
	popl	%esi
	.cfi_restore 6
	popl	%ebp
	.cfi_restore 5
	.cfi_def_cfa 4, 4
	ret
	.cfi_endproc
.LFE27:
	.size	aos_ioctl_in_loop, .-aos_ioctl_in_loop
	.section	.text.unlikely.aos_ioctl_in_loop
.LCOLDE3:
	.section	.text.aos_ioctl_in_loop
.LHOTE3:
	.text
.Letext0:
	.section	.text.unlikely.vfs_poll_notify
.Letext_cold0:
	.file 2 "/home/stone/Documents/Ali_IOT/build/compiler/gcc-arm-none-eabi/Linux64/arm-none-eabi/include/machine/_default_types.h"
	.file 3 "/home/stone/Documents/Ali_IOT/build/compiler/gcc-arm-none-eabi/Linux64/arm-none-eabi/include/sys/_stdint.h"
	.file 4 "/home/stone/Documents/Ali_IOT/build/compiler/gcc-arm-none-eabi/Linux64/lib/gcc/arm-none-eabi/5.4.1/include/stddef.h"
	.file 5 "/home/stone/Documents/Ali_IOT/build/compiler/gcc-arm-none-eabi/Linux64/arm-none-eabi/include/sys/_types.h"
	.file 6 "/home/stone/Documents/Ali_IOT/build/compiler/gcc-arm-none-eabi/Linux64/arm-none-eabi/include/sys/_timeval.h"
	.file 7 "/home/stone/Documents/Ali_IOT/build/compiler/gcc-arm-none-eabi/Linux64/arm-none-eabi/include/sys/select.h"
	.file 8 "/home/stone/Documents/Ali_IOT/build/compiler/gcc-arm-none-eabi/Linux64/arm-none-eabi/include/sys/types.h"
	.file 9 "/home/stone/Documents/Ali_IOT/build/compiler/gcc-arm-none-eabi/Linux64/arm-none-eabi/include/sys/stat.h"
	.file 10 "./include/aos/types.h"
	.file 11 "./include/aos/kernel.h"
	.file 12 "./include/aos/vfs.h"
	.file 13 "./kernel/vfs/include/vfs_inode.h"
	.file 14 "./include/aos/log.h"
	.file 15 "./kernel/protocols/net/include/lwip/sockets.h"
	.file 16 "./kernel/vfs/include/vfs_file.h"
	.section	.note.GNU-stack,"",@progbits
