	.file	"sha256.c"
	.text
.Ltext0:
	.section	.text.unlikely.mbedtls_sha256_init,"ax",@progbits
.LCOLDB0:
	.section	.text.mbedtls_sha256_init,"ax",@progbits
.LHOTB0:
	.section	.text.unlikely.mbedtls_sha256_init
.Ltext_cold0:
	.section	.text.mbedtls_sha256_init
	.globl	mbedtls_sha256_init
	.type	mbedtls_sha256_init, @function
mbedtls_sha256_init:
.LFB1:
	.file 1 "security/alicrypto/./mbedtls/library/sha256.c"
	.loc 1 82 0
	.cfi_startproc
.LVL0:
	pushl	%ebp
	.cfi_def_cfa_offset 8
	.cfi_offset 5, -8
	.loc 1 83 0
	movl	$27, %ecx
	xorl	%eax, %eax
	.loc 1 82 0
	movl	%esp, %ebp
	.cfi_def_cfa_register 5
	pushl	%edi
	.cfi_offset 7, -12
	.loc 1 83 0
	movl	8(%ebp), %edi
	rep stosl
	.loc 1 84 0
	popl	%edi
	.cfi_restore 7
	popl	%ebp
	.cfi_restore 5
	.cfi_def_cfa 4, 4
	ret
	.cfi_endproc
.LFE1:
	.size	mbedtls_sha256_init, .-mbedtls_sha256_init
	.section	.text.unlikely.mbedtls_sha256_init
.LCOLDE0:
	.section	.text.mbedtls_sha256_init
.LHOTE0:
	.section	.text.unlikely.mbedtls_sha256_free,"ax",@progbits
.LCOLDB1:
	.section	.text.mbedtls_sha256_free,"ax",@progbits
.LHOTB1:
	.globl	mbedtls_sha256_free
	.type	mbedtls_sha256_free, @function
mbedtls_sha256_free:
.LFB2:
	.loc 1 87 0
	.cfi_startproc
.LVL1:
	pushl	%ebp
	.cfi_def_cfa_offset 8
	.cfi_offset 5, -8
	movl	%esp, %ebp
	.cfi_def_cfa_register 5
	.loc 1 87 0
	movl	8(%ebp), %eax
	.loc 1 88 0
	testl	%eax, %eax
	leal	108(%eax), %edx
	je	.L3
.L5:
.LVL2:
.LBB6:
.LBB7:
	.loc 1 55 0
	cmpl	%edx, %eax
	je	.L3
.LVL3:
	movb	$0, (%eax)
	incl	%eax
.LVL4:
	jmp	.L5
.LVL5:
.L3:
.LBE7:
.LBE6:
	.loc 1 92 0
	popl	%ebp
	.cfi_restore 5
	.cfi_def_cfa 4, 4
	ret
	.cfi_endproc
.LFE2:
	.size	mbedtls_sha256_free, .-mbedtls_sha256_free
	.section	.text.unlikely.mbedtls_sha256_free
.LCOLDE1:
	.section	.text.mbedtls_sha256_free
.LHOTE1:
	.section	.text.unlikely.mbedtls_sha256_clone,"ax",@progbits
.LCOLDB2:
	.section	.text.mbedtls_sha256_clone,"ax",@progbits
.LHOTB2:
	.globl	mbedtls_sha256_clone
	.type	mbedtls_sha256_clone, @function
mbedtls_sha256_clone:
.LFB3:
	.loc 1 96 0
	.cfi_startproc
.LVL6:
	pushl	%ebp
	.cfi_def_cfa_offset 8
	.cfi_offset 5, -8
	.loc 1 97 0
	movl	$27, %ecx
	.loc 1 96 0
	movl	%esp, %ebp
	.cfi_def_cfa_register 5
	pushl	%edi
	pushl	%esi
	.cfi_offset 7, -12
	.cfi_offset 6, -16
	.loc 1 97 0
	movl	8(%ebp), %edi
	.loc 1 96 0
	movl	12(%ebp), %esi
	.loc 1 97 0
	rep movsl
	.loc 1 98 0
	popl	%esi
	.cfi_restore 6
	popl	%edi
	.cfi_restore 7
	popl	%ebp
	.cfi_restore 5
	.cfi_def_cfa 4, 4
	ret
	.cfi_endproc
.LFE3:
	.size	mbedtls_sha256_clone, .-mbedtls_sha256_clone
	.section	.text.unlikely.mbedtls_sha256_clone
.LCOLDE2:
	.section	.text.mbedtls_sha256_clone
.LHOTE2:
	.section	.text.unlikely.mbedtls_sha256_starts,"ax",@progbits
.LCOLDB3:
	.section	.text.mbedtls_sha256_starts,"ax",@progbits
.LHOTB3:
	.globl	mbedtls_sha256_starts
	.type	mbedtls_sha256_starts, @function
mbedtls_sha256_starts:
.LFB4:
	.loc 1 104 0
	.cfi_startproc
.LVL7:
	pushl	%ebp
	.cfi_def_cfa_offset 8
	.cfi_offset 5, -8
	movl	%esp, %ebp
	.cfi_def_cfa_register 5
	.loc 1 104 0
	movl	12(%ebp), %edx
	movl	8(%ebp), %eax
	.loc 1 108 0
	testl	%edx, %edx
	.loc 1 105 0
	movl	$0, (%eax)
	.loc 1 106 0
	movl	$0, 4(%eax)
	.loc 1 108 0
	jne	.L15
	.loc 1 111 0
	movl	$1779033703, 8(%eax)
	.loc 1 112 0
	movl	$-1150833019, 12(%eax)
	.loc 1 113 0
	movl	$1013904242, 16(%eax)
	.loc 1 114 0
	movl	$-1521486534, 20(%eax)
	.loc 1 115 0
	movl	$1359893119, 24(%eax)
	.loc 1 116 0
	movl	$-1694144372, 28(%eax)
	.loc 1 117 0
	movl	$528734635, 32(%eax)
	.loc 1 118 0
	movl	$1541459225, 36(%eax)
	jmp	.L16
.L15:
	.loc 1 123 0
	movl	$-1056596264, 8(%eax)
	.loc 1 124 0
	movl	$914150663, 12(%eax)
	.loc 1 125 0
	movl	$812702999, 16(%eax)
	.loc 1 126 0
	movl	$-150054599, 20(%eax)
	.loc 1 127 0
	movl	$-4191439, 24(%eax)
	.loc 1 128 0
	movl	$1750603025, 28(%eax)
	.loc 1 129 0
	movl	$1694076839, 32(%eax)
	.loc 1 130 0
	movl	$-1090891868, 36(%eax)
.LVL8:
.L16:
	.loc 1 133 0
	movl	%edx, 104(%eax)
	.loc 1 134 0
	popl	%ebp
	.cfi_restore 5
	.cfi_def_cfa 4, 4
	ret
	.cfi_endproc
.LFE4:
	.size	mbedtls_sha256_starts, .-mbedtls_sha256_starts
	.section	.text.unlikely.mbedtls_sha256_starts
.LCOLDE3:
	.section	.text.mbedtls_sha256_starts
.LHOTE3:
	.section	.text.unlikely.mbedtls_sha256_process,"ax",@progbits
.LCOLDB4:
	.section	.text.mbedtls_sha256_process,"ax",@progbits
.LHOTB4:
	.globl	mbedtls_sha256_process
	.type	mbedtls_sha256_process, @function
mbedtls_sha256_process:
.LFB5:
	.loc 1 183 0
	.cfi_startproc
.LVL9:
	pushl	%ebp
	.cfi_def_cfa_offset 8
	.cfi_offset 5, -8
	movl	%esp, %ebp
	.cfi_def_cfa_register 5
	pushl	%edi
	pushl	%esi
	pushl	%ebx
	subl	$380, %esp
	.cfi_offset 7, -12
	.cfi_offset 6, -16
	.cfi_offset 3, -20
	.loc 1 183 0
	movl	8(%ebp), %eax
	movl	12(%ebp), %ebx
	movl	%eax, -376(%ebp)
	movl	%gs:20, %eax
	movl	%eax, -28(%ebp)
	xorl	%eax, %eax
.LVL10:
.L19:
	.loc 1 189 0 discriminator 3
	movl	-376(%ebp), %edi
	movl	8(%edi,%eax,4), %edx
	movl	%edx, -316(%ebp,%eax,4)
	.loc 1 188 0 discriminator 3
	incl	%eax
.LVL11:
	cmpl	$8, %eax
	jne	.L19
	xorl	%eax, %eax
.LVL12:
.L20:
	.loc 1 206 0 discriminator 3
	movzbl	(%ebx,%eax,4), %edx
	sall	$24, %edx
	movl	%edx, %ecx
	movzbl	1(%ebx,%eax,4), %edx
	sall	$16, %edx
	orl	%ecx, %edx
	movzbl	3(%ebx,%eax,4), %ecx
	orl	%ecx, %edx
	movzbl	2(%ebx,%eax,4), %ecx
	sall	$8, %ecx
	orl	%ecx, %edx
	movl	%edx, -284(%ebp,%eax,4)
	.loc 1 205 0 discriminator 3
	incl	%eax
.LVL13:
	cmpl	$16, %eax
	jne	.L20
	movl	-288(%ebp), %eax
.LVL14:
	movl	$K, -364(%ebp)
	.loc 1 205 0 is_stmt 0
	movl	$K, -368(%ebp)
	movl	%eax, -348(%ebp)
	movl	-300(%ebp), %eax
	movl	%eax, -360(%ebp)
	movl	-296(%ebp), %eax
	movl	%eax, -356(%ebp)
	movl	-292(%ebp), %eax
	movl	%eax, -352(%ebp)
	movl	-316(%ebp), %eax
	movl	%eax, -344(%ebp)
	movl	-312(%ebp), %eax
	movl	%eax, -340(%ebp)
	movl	-308(%ebp), %eax
	movl	%eax, -336(%ebp)
	movl	-304(%ebp), %eax
	movl	%eax, -332(%ebp)
	leal	-284(%ebp), %eax
	movl	%eax, %edx
.L21:
	.loc 1 210 0 is_stmt 1 discriminator 3
	movl	-360(%ebp), %ebx
	movl	-360(%ebp), %ecx
	movl	-360(%ebp), %esi
	movl	-368(%ebp), %edi
	rorl	$11, %ecx
	rorl	$6, %ebx
	xorl	%ecx, %ebx
	roll	$7, %esi
	movl	-352(%ebp), %ecx
	xorl	-356(%ebp), %ecx
	xorl	%esi, %ebx
	movl	(%edx), %esi
	andl	-360(%ebp), %ecx
	addl	(%edi), %esi
	xorl	-352(%ebp), %ecx
	movl	-332(%ebp), %edi
	addl	%esi, %ebx
	movl	-344(%ebp), %esi
	addl	%ebx, %ecx
	movl	-344(%ebp), %ebx
	addl	-348(%ebp), %ecx
.LVL15:
	rorl	$2, %esi
	rorl	$13, %ebx
.LVL16:
	xorl	%ebx, %esi
	movl	-344(%ebp), %ebx
	addl	%ecx, %edi
	movl	%edi, -348(%ebp)
	movl	-340(%ebp), %edi
	orl	-344(%ebp), %edi
	roll	$10, %ebx
	andl	-336(%ebp), %edi
	xorl	%ebx, %esi
	movl	-340(%ebp), %ebx
	andl	-344(%ebp), %ebx
	orl	%edi, %ebx
	addl	%esi, %ebx
.LVL17:
	leal	(%ebx,%ecx), %edi
	.loc 1 211 0 discriminator 3
	movl	4(%edx), %ebx
.LVL18:
	movl	-356(%ebp), %ecx
.LVL19:
	xorl	-360(%ebp), %ecx
	.loc 1 210 0 discriminator 3
	movl	%edi, -332(%ebp)
	.loc 1 211 0 discriminator 3
	movl	-368(%ebp), %edi
	andl	-348(%ebp), %ecx
	xorl	-356(%ebp), %ecx
	addl	4(%edi), %ebx
	movl	-352(%ebp), %edi
	leal	(%ebx,%edi), %esi
	leal	(%esi,%ecx), %ebx
	movl	-348(%ebp), %esi
	movl	-348(%ebp), %ecx
	rorl	$6, %esi
	rorl	$11, %ecx
	xorl	%esi, %ecx
	movl	-348(%ebp), %esi
	movl	-336(%ebp), %edi
	roll	$7, %esi
	xorl	%esi, %ecx
	movl	-332(%ebp), %esi
	addl	%ebx, %ecx
.LVL20:
	movl	-332(%ebp), %ebx
	addl	%ecx, %edi
	rorl	$2, %esi
.LVL21:
	movl	%edi, -352(%ebp)
	movl	-332(%ebp), %edi
	rorl	$13, %ebx
.LVL22:
	orl	-344(%ebp), %edi
.LVL23:
	xorl	%ebx, %esi
	movl	-332(%ebp), %ebx
	andl	-340(%ebp), %edi
	roll	$10, %ebx
	xorl	%ebx, %esi
	movl	-332(%ebp), %ebx
	andl	-344(%ebp), %ebx
	orl	%edi, %ebx
	addl	%esi, %ebx
.LVL24:
	leal	(%ebx,%ecx), %edi
	.loc 1 212 0 discriminator 3
	movl	8(%edx), %ebx
.LVL25:
	movl	-348(%ebp), %ecx
.LVL26:
	xorl	-360(%ebp), %ecx
	.loc 1 211 0 discriminator 3
	movl	%edi, -336(%ebp)
	.loc 1 212 0 discriminator 3
	movl	-368(%ebp), %edi
	andl	-352(%ebp), %ecx
	xorl	-360(%ebp), %ecx
	addl	8(%edi), %ebx
	movl	-356(%ebp), %edi
	leal	(%ebx,%edi), %esi
	leal	(%esi,%ecx), %ebx
	movl	-352(%ebp), %esi
	movl	-352(%ebp), %ecx
	rorl	$6, %esi
	rorl	$11, %ecx
	xorl	%esi, %ecx
	movl	-352(%ebp), %esi
	roll	$7, %esi
	xorl	%esi, %ecx
	movl	-340(%ebp), %esi
	addl	%ebx, %ecx
.LVL27:
	movl	-336(%ebp), %ebx
	leal	(%ecx,%esi), %edi
	movl	-336(%ebp), %esi
	rorl	$13, %ebx
	movl	%edi, -356(%ebp)
	movl	-332(%ebp), %edi
	rorl	$2, %esi
	orl	-336(%ebp), %edi
	xorl	%ebx, %esi
	movl	-336(%ebp), %ebx
	andl	-344(%ebp), %edi
	roll	$10, %ebx
	xorl	%ebx, %esi
	movl	-332(%ebp), %ebx
	andl	-336(%ebp), %ebx
	orl	%edi, %ebx
	addl	%esi, %ebx
.LVL28:
	.loc 1 213 0 discriminator 3
	movl	-368(%ebp), %esi
	.loc 1 212 0 discriminator 3
	leal	(%ebx,%ecx), %edi
	.loc 1 213 0 discriminator 3
	movl	12(%edx), %ebx
.LVL29:
	movl	-348(%ebp), %ecx
.LVL30:
	addl	12(%esi), %ebx
	xorl	-352(%ebp), %ecx
	.loc 1 212 0 discriminator 3
	movl	%edi, -340(%ebp)
	.loc 1 213 0 discriminator 3
	andl	-356(%ebp), %ecx
	movl	-360(%ebp), %edi
	xorl	-348(%ebp), %ecx
	leal	(%ebx,%edi), %esi
	movl	-336(%ebp), %edi
	orl	-340(%ebp), %edi
	andl	-332(%ebp), %edi
	leal	(%esi,%ecx), %ebx
	movl	-356(%ebp), %esi
	movl	-356(%ebp), %ecx
	rorl	$6, %esi
	rorl	$11, %ecx
	xorl	%esi, %ecx
	movl	-356(%ebp), %esi
	roll	$7, %esi
	xorl	%esi, %ecx
	movl	-344(%ebp), %esi
	addl	%ebx, %ecx
.LVL31:
	movl	-340(%ebp), %ebx
	addl	%ecx, %esi
	movl	%esi, -360(%ebp)
	movl	-340(%ebp), %esi
	rorl	$13, %ebx
	rorl	$2, %esi
	xorl	%ebx, %esi
	movl	-340(%ebp), %ebx
	roll	$10, %ebx
	xorl	%ebx, %esi
	movl	-336(%ebp), %ebx
	andl	-340(%ebp), %ebx
	orl	%edi, %ebx
	.loc 1 214 0 discriminator 3
	movl	-348(%ebp), %edi
	.loc 1 213 0 discriminator 3
	addl	%esi, %ebx
.LVL32:
	leal	(%ebx,%ecx), %esi
	.loc 1 214 0 discriminator 3
	movl	16(%edx), %ecx
.LVL33:
	.loc 1 213 0 discriminator 3
	movl	%esi, -344(%ebp)
	.loc 1 214 0 discriminator 3
	movl	-368(%ebp), %esi
	addl	16(%esi), %ecx
	leal	(%ecx,%edi), %ebx
.LVL34:
	movl	-352(%ebp), %ecx
	xorl	-356(%ebp), %ecx
	andl	-360(%ebp), %ecx
	xorl	-352(%ebp), %ecx
	movl	-360(%ebp), %esi
	rorl	$6, %esi
	addl	%ebx, %ecx
	movl	-360(%ebp), %ebx
	rorl	$11, %ebx
	xorl	%ebx, %esi
	movl	-360(%ebp), %ebx
	roll	$7, %ebx
	xorl	%esi, %ebx
	movl	-332(%ebp), %esi
	addl	%ebx, %ecx
.LVL35:
	movl	-344(%ebp), %ebx
	leal	(%esi,%ecx), %edi
	movl	-344(%ebp), %esi
	movl	%edi, -348(%ebp)
	movl	-340(%ebp), %edi
	rorl	$2, %esi
	rorl	$13, %ebx
	orl	-344(%ebp), %edi
	xorl	%ebx, %esi
	movl	-344(%ebp), %ebx
	andl	-336(%ebp), %edi
	roll	$10, %ebx
	xorl	%ebx, %esi
	movl	-340(%ebp), %ebx
	andl	-344(%ebp), %ebx
	orl	%edi, %ebx
	addl	%esi, %ebx
.LVL36:
	.loc 1 215 0 discriminator 3
	movl	-368(%ebp), %esi
	.loc 1 214 0 discriminator 3
	leal	(%ebx,%ecx), %edi
	.loc 1 215 0 discriminator 3
	movl	20(%edx), %ecx
.LVL37:
	addl	20(%esi), %ecx
	.loc 1 214 0 discriminator 3
	movl	%edi, -332(%ebp)
	.loc 1 215 0 discriminator 3
	movl	-352(%ebp), %edi
	movl	-348(%ebp), %esi
	leal	(%ecx,%edi), %ebx
.LVL38:
	movl	-356(%ebp), %ecx
	xorl	-360(%ebp), %ecx
	andl	-348(%ebp), %ecx
	rorl	$6, %esi
	xorl	-356(%ebp), %ecx
	addl	%ebx, %ecx
	movl	-348(%ebp), %ebx
	rorl	$11, %ebx
	xorl	%ebx, %esi
	movl	-348(%ebp), %ebx
	roll	$7, %ebx
	xorl	%esi, %ebx
	movl	-336(%ebp), %esi
	addl	%ebx, %ecx
.LVL39:
	movl	-332(%ebp), %ebx
	leal	(%esi,%ecx), %edi
	movl	-332(%ebp), %esi
	rorl	$13, %ebx
	movl	%edi, -352(%ebp)
	movl	-344(%ebp), %edi
	rorl	$2, %esi
	orl	-332(%ebp), %edi
	xorl	%ebx, %esi
	movl	-332(%ebp), %ebx
	andl	-340(%ebp), %edi
	roll	$10, %ebx
	xorl	%ebx, %esi
	movl	-344(%ebp), %ebx
	andl	-332(%ebp), %ebx
	orl	%edi, %ebx
	addl	%esi, %ebx
.LVL40:
	.loc 1 216 0 discriminator 3
	movl	-368(%ebp), %esi
	.loc 1 215 0 discriminator 3
	leal	(%ebx,%ecx), %edi
	.loc 1 216 0 discriminator 3
	movl	24(%edx), %ecx
.LVL41:
	movl	-352(%ebp), %ebx
.LVL42:
	addl	24(%esi), %ecx
	.loc 1 215 0 discriminator 3
	movl	%edi, -336(%ebp)
	.loc 1 216 0 discriminator 3
	movl	-356(%ebp), %edi
	leal	(%ecx,%edi), %esi
	movl	-360(%ebp), %ecx
	xorl	-348(%ebp), %ecx
	andl	-352(%ebp), %ecx
	rorl	$11, %ebx
	movl	-332(%ebp), %edi
	xorl	-360(%ebp), %ecx
	orl	-336(%ebp), %edi
	andl	-344(%ebp), %edi
	leal	(%esi,%ecx), %ecx
	movl	-352(%ebp), %esi
	rorl	$6, %esi
	xorl	%ebx, %esi
	movl	-352(%ebp), %ebx
	roll	$7, %ebx
	xorl	%esi, %ebx
	movl	-340(%ebp), %esi
	addl	%ebx, %ecx
.LVL43:
	movl	-336(%ebp), %ebx
	addl	%ecx, %esi
	movl	%esi, -356(%ebp)
	movl	-336(%ebp), %esi
	rorl	$13, %ebx
	rorl	$2, %esi
	xorl	%ebx, %esi
	movl	-336(%ebp), %ebx
	roll	$10, %ebx
	xorl	%ebx, %esi
	movl	-332(%ebp), %ebx
	andl	-336(%ebp), %ebx
	orl	%edi, %ebx
	.loc 1 217 0 discriminator 3
	movl	-360(%ebp), %edi
	.loc 1 216 0 discriminator 3
	addl	%esi, %ebx
.LVL44:
	leal	(%ebx,%ecx), %esi
	.loc 1 217 0 discriminator 3
	movl	28(%edx), %ecx
.LVL45:
	.loc 1 216 0 discriminator 3
	movl	%esi, -340(%ebp)
	.loc 1 217 0 discriminator 3
	movl	-368(%ebp), %esi
	addl	28(%esi), %ecx
	leal	(%ecx,%edi), %ebx
.LVL46:
	movl	-348(%ebp), %ecx
	xorl	-352(%ebp), %ecx
	andl	-356(%ebp), %ecx
	movl	-356(%ebp), %esi
	xorl	-348(%ebp), %ecx
	rorl	$6, %esi
	addl	%ebx, %ecx
	movl	-356(%ebp), %ebx
	rorl	$11, %ebx
	xorl	%ebx, %esi
	movl	-356(%ebp), %ebx
	roll	$7, %ebx
	xorl	%esi, %ebx
	movl	-344(%ebp), %esi
	addl	%ebx, %ecx
.LVL47:
	movl	-340(%ebp), %ebx
	leal	(%esi,%ecx), %edi
	movl	-340(%ebp), %esi
	movl	%edi, -360(%ebp)
	movl	-336(%ebp), %edi
	rorl	$2, %esi
	rorl	$13, %ebx
	orl	-340(%ebp), %edi
	xorl	%ebx, %esi
	movl	-340(%ebp), %ebx
	andl	-332(%ebp), %edi
	addl	$32, %edx
	addl	$32, -368(%ebp)
	roll	$10, %ebx
	xorl	%ebx, %esi
	movl	-336(%ebp), %ebx
	andl	-340(%ebp), %ebx
	orl	%edi, %ebx
	addl	%esi, %ebx
.LVL48:
	.loc 1 208 0 discriminator 3
	leal	-220(%ebp), %esi
	.loc 1 217 0 discriminator 3
	leal	(%ebx,%ecx), %edi
	.loc 1 208 0 discriminator 3
	cmpl	%edx, %esi
	.loc 1 217 0 discriminator 3
	movl	%edi, -344(%ebp)
	.loc 1 208 0 discriminator 3
	jne	.L21
	movl	$6, -380(%ebp)
.LVL49:
.L22:
	.loc 1 222 0 discriminator 3
	movl	56(%eax), %ecx
	movl	56(%eax), %edx
	movl	4(%eax), %edi
	movl	-340(%ebp), %esi
	orl	-344(%ebp), %esi
	roll	$15, %ecx
	roll	$13, %edx
	andl	-336(%ebp), %esi
	xorl	%ecx, %edx
	movl	56(%eax), %ecx
	movl	%edi, %ebx
	rorl	$7, %ebx
	shrl	$10, %ecx
	xorl	%ecx, %edx
	movl	(%eax), %ecx
	addl	36(%eax), %ecx
	addl	%ecx, %edx
	movl	%edi, %ecx
	roll	$14, %ecx
	xorl	%ecx, %ebx
	movl	%edi, %ecx
	shrl	$3, %ecx
	xorl	%ebx, %ecx
	movl	-360(%ebp), %ebx
	addl	%ecx, %edx
	movl	%edx, -368(%ebp)
	movl	-360(%ebp), %edx
	rorl	$6, %ebx
	rorl	$11, %edx
	xorl	%edx, %ebx
	movl	-360(%ebp), %edx
	roll	$7, %edx
	xorl	%edx, %ebx
	movl	-352(%ebp), %edx
	xorl	-356(%ebp), %edx
	andl	-360(%ebp), %edx
	xorl	-352(%ebp), %edx
	leal	(%ebx,%edx), %ecx
	movl	-364(%ebp), %edx
	movl	-344(%ebp), %ebx
	addl	64(%edx), %ecx
	movl	-368(%ebp), %edx
	rorl	$2, %ebx
	addl	-368(%ebp), %ecx
	addl	-348(%ebp), %ecx
.LVL50:
	movl	%edx, 64(%eax)
	movl	-332(%ebp), %edx
	addl	%ecx, %edx
	movl	%edx, -348(%ebp)
	movl	-344(%ebp), %edx
	rorl	$13, %edx
	xorl	%edx, %ebx
	movl	-344(%ebp), %edx
	roll	$10, %edx
	xorl	%edx, %ebx
	movl	-340(%ebp), %edx
	andl	-344(%ebp), %edx
	orl	%esi, %edx
	addl	%ebx, %edx
.LVL51:
	addl	%ecx, %edx
.LVL52:
	.loc 1 223 0 discriminator 3
	movl	60(%eax), %ecx
.LVL53:
	.loc 1 222 0 discriminator 3
	movl	%edx, -332(%ebp)
	.loc 1 223 0 discriminator 3
	movl	60(%eax), %edx
	movl	60(%eax), %ebx
	addl	40(%eax), %edi
	roll	$15, %ecx
	movl	-364(%ebp), %esi
	roll	$13, %edx
	xorl	%ecx, %edx
	shrl	$10, %ebx
	xorl	%ebx, %edx
	movl	8(%eax), %ebx
	leal	(%edx,%edi), %ecx
	movl	8(%eax), %edx
	movl	-356(%ebp), %edi
	xorl	-360(%ebp), %edi
	rorl	$7, %ebx
	andl	-348(%ebp), %edi
	roll	$14, %edx
	xorl	-356(%ebp), %edi
	xorl	%ebx, %edx
	movl	8(%eax), %ebx
	shrl	$3, %ebx
	xorl	%ebx, %edx
	movl	-348(%ebp), %ebx
	addl	%ecx, %edx
	movl	-352(%ebp), %ecx
	addl	68(%esi), %ecx
	movl	-332(%ebp), %esi
	movl	%edx, 68(%eax)
	rorl	$6, %ebx
	addl	%edx, %ecx
	addl	%ecx, %edi
	movl	-348(%ebp), %ecx
	rorl	$11, %ecx
	xorl	%ebx, %ecx
	movl	-348(%ebp), %ebx
	roll	$7, %ebx
	xorl	%ebx, %ecx
	movl	-332(%ebp), %ebx
	addl	%edi, %ecx
.LVL54:
	movl	-336(%ebp), %edi
	rorl	$13, %ebx
.LVL55:
	addl	%ecx, %edi
	movl	%edi, -352(%ebp)
	movl	-332(%ebp), %edi
	rorl	$2, %edi
	xorl	%edi, %ebx
	movl	-332(%ebp), %edi
	roll	$10, %edi
	orl	-344(%ebp), %esi
.LVL56:
	xorl	%edi, %ebx
	andl	-340(%ebp), %esi
	movl	-332(%ebp), %edi
	andl	-344(%ebp), %edi
	orl	%esi, %edi
	addl	%ebx, %edi
.LVL57:
	.loc 1 224 0 discriminator 3
	movl	-368(%ebp), %ebx
	.loc 1 223 0 discriminator 3
	addl	%ecx, %edi
.LVL58:
	.loc 1 224 0 discriminator 3
	movl	-368(%ebp), %ecx
.LVL59:
	.loc 1 223 0 discriminator 3
	movl	%edi, -336(%ebp)
	.loc 1 224 0 discriminator 3
	roll	$15, %ebx
	roll	$13, %ecx
	xorl	%ebx, %ecx
	movl	-368(%ebp), %ebx
	shrl	$10, %ebx
	xorl	%ebx, %ecx
	movl	8(%eax), %ebx
	addl	44(%eax), %ebx
	movl	12(%eax), %esi
	addl	%ebx, %ecx
	movl	12(%eax), %ebx
	rorl	$7, %esi
	roll	$14, %ebx
	xorl	%ebx, %esi
	movl	12(%eax), %ebx
	shrl	$3, %ebx
	xorl	%esi, %ebx
	movl	-364(%ebp), %esi
	leal	(%ecx,%ebx), %edi
	movl	-348(%ebp), %ebx
	xorl	-360(%ebp), %ebx
	andl	-352(%ebp), %ebx
	movl	-356(%ebp), %ecx
	addl	72(%esi), %ecx
	movl	%edi, -372(%ebp)
	movl	-360(%ebp), %edi
	addl	-372(%ebp), %ecx
	movl	-332(%ebp), %esi
	xorl	%ebx, %edi
	leal	(%edi,%ecx), %ebx
	movl	-372(%ebp), %edi
	movl	-352(%ebp), %ecx
	movl	%edi, 72(%eax)
	movl	-352(%ebp), %edi
	rorl	$11, %ecx
	rorl	$6, %edi
	xorl	%edi, %ecx
	movl	-352(%ebp), %edi
	roll	$7, %edi
	xorl	%edi, %ecx
	movl	-340(%ebp), %edi
	addl	%ebx, %ecx
.LVL60:
	movl	-336(%ebp), %ebx
	addl	%ecx, %edi
	movl	%edi, -356(%ebp)
	movl	-336(%ebp), %edi
	rorl	$2, %edi
	rorl	$13, %ebx
	orl	-336(%ebp), %esi
	xorl	%ebx, %edi
	movl	-336(%ebp), %ebx
	andl	-344(%ebp), %esi
	roll	$10, %ebx
	xorl	%ebx, %edi
	movl	-332(%ebp), %ebx
	andl	-336(%ebp), %ebx
	orl	%esi, %ebx
	addl	%edi, %ebx
.LVL61:
	leal	(%ebx,%ecx), %esi
	.loc 1 225 0 discriminator 3
	movl	%edx, %ebx
.LVL62:
	movl	%edx, %ecx
.LVL63:
	roll	$15, %ebx
	roll	$13, %ecx
	shrl	$10, %edx
	xorl	%ebx, %ecx
	movl	12(%eax), %ebx
	addl	48(%eax), %ebx
	xorl	%ecx, %edx
	.loc 1 224 0 discriminator 3
	movl	%esi, -340(%ebp)
	.loc 1 225 0 discriminator 3
	addl	%ebx, %edx
	movl	16(%eax), %ebx
	movl	16(%eax), %ecx
	movl	-364(%ebp), %esi
	movl	-348(%ebp), %edi
	roll	$14, %ecx
	rorl	$7, %ebx
	xorl	%ecx, %ebx
	movl	16(%eax), %ecx
	shrl	$3, %ecx
	xorl	%ecx, %ebx
	movl	-348(%ebp), %ecx
	xorl	-352(%ebp), %ecx
	addl	%edx, %ebx
	andl	-356(%ebp), %ecx
	movl	-360(%ebp), %edx
	addl	76(%esi), %edx
	movl	-356(%ebp), %esi
	movl	%ebx, 76(%eax)
	xorl	%ecx, %edi
	rorl	$6, %esi
	addl	%ebx, %edx
	leal	(%edi,%edx), %ecx
	movl	-356(%ebp), %edx
	movl	-344(%ebp), %edi
	rorl	$11, %edx
	xorl	%esi, %edx
	movl	-356(%ebp), %esi
	roll	$7, %esi
	xorl	%esi, %edx
	movl	-336(%ebp), %esi
	orl	-340(%ebp), %esi
	addl	%ecx, %edx
.LVL64:
	movl	-340(%ebp), %ecx
	andl	-332(%ebp), %esi
	addl	%edx, %edi
	movl	%edi, -360(%ebp)
	movl	-340(%ebp), %edi
	rorl	$13, %ecx
	rorl	$2, %edi
	xorl	%ecx, %edi
	movl	-340(%ebp), %ecx
	roll	$10, %ecx
	xorl	%ecx, %edi
	movl	-336(%ebp), %ecx
	andl	-340(%ebp), %ecx
	orl	%esi, %ecx
	.loc 1 226 0 discriminator 3
	movl	20(%eax), %esi
	.loc 1 225 0 discriminator 3
	addl	%edi, %ecx
.LVL65:
	addl	%ecx, %edx
.LVL66:
	.loc 1 226 0 discriminator 3
	movl	-372(%ebp), %ecx
.LVL67:
	.loc 1 225 0 discriminator 3
	movl	%edx, -344(%ebp)
	.loc 1 226 0 discriminator 3
	movl	-372(%ebp), %edx
	rorl	$7, %esi
	roll	$15, %ecx
	roll	$13, %edx
	xorl	%ecx, %edx
	movl	-372(%ebp), %ecx
	shrl	$10, %ecx
	xorl	%ecx, %edx
	movl	16(%eax), %ecx
	addl	52(%eax), %ecx
	addl	%ecx, %edx
	movl	20(%eax), %ecx
	roll	$14, %ecx
	xorl	%ecx, %esi
	movl	20(%eax), %ecx
	shrl	$3, %ecx
	xorl	%esi, %ecx
	addl	%ecx, %edx
	movl	%edx, -372(%ebp)
	movl	-352(%ebp), %edi
	xorl	-356(%ebp), %edi
	movl	-344(%ebp), %ecx
	andl	-360(%ebp), %edi
	xorl	-352(%ebp), %edi
	movl	%edi, %esi
	movl	-364(%ebp), %edi
	addl	80(%edi), %edx
	addl	-348(%ebp), %edx
	leal	(%esi,%edx), %edi
	movl	-372(%ebp), %edx
	movl	-360(%ebp), %esi
	movl	%edx, 80(%eax)
	movl	-360(%ebp), %edx
	rorl	$6, %esi
	rorl	$13, %ecx
	rorl	$11, %edx
	xorl	%esi, %edx
	movl	-360(%ebp), %esi
	roll	$7, %esi
	xorl	%esi, %edx
	movl	-332(%ebp), %esi
	addl	%edi, %edx
.LVL68:
	movl	-344(%ebp), %edi
	addl	%edx, %esi
	rorl	$2, %edi
	movl	%esi, -348(%ebp)
	movl	-340(%ebp), %esi
	xorl	%ecx, %edi
	movl	-344(%ebp), %ecx
	andl	-344(%ebp), %esi
	roll	$10, %ecx
	xorl	%ecx, %edi
	movl	-340(%ebp), %ecx
	orl	-344(%ebp), %ecx
	andl	-336(%ebp), %ecx
	orl	%ecx, %esi
	leal	(%edi,%esi), %ecx
.LVL69:
	movl	-356(%ebp), %edi
	xorl	-360(%ebp), %edi
	andl	-348(%ebp), %edi
	addl	%ecx, %edx
.LVL70:
	.loc 1 227 0 discriminator 3
	movl	%ebx, %ecx
.LVL71:
	xorl	-356(%ebp), %edi
	.loc 1 226 0 discriminator 3
	movl	%edx, -332(%ebp)
	.loc 1 227 0 discriminator 3
	movl	%ebx, %edx
	roll	$15, %ecx
	roll	$13, %edx
	shrl	$10, %ebx
	xorl	%ecx, %edx
	movl	56(%eax), %ecx
	addl	20(%eax), %ecx
	xorl	%ebx, %edx
	movl	%edi, %esi
	leal	(%edx,%ecx), %ebx
	movl	24(%eax), %ecx
	movl	24(%eax), %edx
	rorl	$7, %ecx
	roll	$14, %edx
	xorl	%edx, %ecx
	movl	24(%eax), %edx
	movl	-364(%ebp), %edi
	shrl	$3, %edx
	xorl	%edx, %ecx
	movl	84(%edi), %edx
	addl	%ebx, %ecx
	movl	-332(%ebp), %ebx
	movl	%ecx, 84(%eax)
	addl	%ecx, %edx
	addl	-352(%ebp), %edx
	rorl	$13, %ebx
	leal	(%esi,%edx), %edi
	movl	-348(%ebp), %esi
	movl	-348(%ebp), %edx
	rorl	$6, %esi
	rorl	$11, %edx
	xorl	%esi, %edx
	movl	-348(%ebp), %esi
	roll	$7, %esi
	xorl	%esi, %edx
	addl	%edi, %edx
.LVL72:
	movl	-336(%ebp), %edi
	leal	(%edi,%edx), %esi
	movl	-332(%ebp), %edi
	movl	%esi, -352(%ebp)
	movl	-344(%ebp), %esi
	rorl	$2, %edi
	andl	-332(%ebp), %esi
	xorl	%ebx, %edi
	movl	-332(%ebp), %ebx
	roll	$10, %ebx
	xorl	%ebx, %edi
	movl	-344(%ebp), %ebx
	orl	-332(%ebp), %ebx
	andl	-340(%ebp), %ebx
	orl	%ebx, %esi
	leal	(%edi,%esi), %ebx
.LVL73:
	.loc 1 228 0 discriminator 3
	movl	28(%eax), %edi
	.loc 1 227 0 discriminator 3
	addl	%ebx, %edx
.LVL74:
	.loc 1 228 0 discriminator 3
	movl	-372(%ebp), %ebx
.LVL75:
	.loc 1 227 0 discriminator 3
	movl	%edx, -336(%ebp)
	.loc 1 228 0 discriminator 3
	movl	-372(%ebp), %edx
	rorl	$7, %edi
	roll	$15, %ebx
	roll	$13, %edx
	xorl	%ebx, %edx
	movl	-372(%ebp), %ebx
	shrl	$10, %ebx
	xorl	%ebx, %edx
	movl	60(%eax), %ebx
	addl	24(%eax), %ebx
	addl	%ebx, %edx
	movl	28(%eax), %ebx
	roll	$14, %ebx
	xorl	%ebx, %edi
	movl	28(%eax), %ebx
	shrl	$3, %ebx
	xorl	%ebx, %edi
	movl	-364(%ebp), %ebx
	addl	%edx, %edi
	movl	-360(%ebp), %edx
	xorl	-348(%ebp), %edx
	andl	-352(%ebp), %edx
	movl	88(%ebx), %esi
	xorl	-360(%ebp), %edx
	addl	%edi, %esi
	addl	-356(%ebp), %esi
	movl	%edi, 88(%eax)
	movl	-352(%ebp), %edi
	movl	-336(%ebp), %ebx
	addl	%edx, %esi
	movl	-352(%ebp), %edx
	rorl	$6, %edi
	rorl	$13, %ebx
	rorl	$11, %edx
	xorl	%edi, %edx
	movl	-352(%ebp), %edi
	roll	$7, %edi
	xorl	%edi, %edx
	movl	-340(%ebp), %edi
	addl	%esi, %edx
.LVL76:
	movl	-336(%ebp), %esi
	addl	%edx, %edi
	rorl	$2, %esi
	movl	%edi, -356(%ebp)
	movl	-332(%ebp), %edi
	xorl	%ebx, %esi
	movl	-336(%ebp), %ebx
	andl	-336(%ebp), %edi
	roll	$10, %ebx
	xorl	%ebx, %esi
	movl	-332(%ebp), %ebx
	orl	-336(%ebp), %ebx
	andl	-344(%ebp), %ebx
	orl	%ebx, %edi
	leal	(%esi,%edi), %ebx
.LVL77:
	.loc 1 229 0 discriminator 3
	movl	32(%eax), %esi
	movl	-344(%ebp), %edi
	.loc 1 228 0 discriminator 3
	addl	%ebx, %edx
.LVL78:
	.loc 1 229 0 discriminator 3
	movl	%ecx, %ebx
.LVL79:
	.loc 1 228 0 discriminator 3
	movl	%edx, -340(%ebp)
	.loc 1 229 0 discriminator 3
	movl	%ecx, %edx
	roll	$15, %ebx
	roll	$13, %edx
	shrl	$10, %ecx
	xorl	%ebx, %edx
	movl	%esi, %ebx
	xorl	%ecx, %edx
	movl	-368(%ebp), %ecx
	addl	28(%eax), %ecx
	rorl	$7, %ebx
	addl	%edx, %ecx
	movl	%esi, %edx
	roll	$14, %edx
	xorl	%edx, %ebx
	movl	%esi, %edx
	shrl	$3, %edx
	addl	$32, %eax
	xorl	%edx, %ebx
	movl	-364(%ebp), %edx
	addl	%ecx, %ebx
	movl	%ebx, 60(%eax)
	movl	92(%edx), %esi
	movl	-360(%ebp), %edx
	addl	%ebx, %esi
	movl	-356(%ebp), %ebx
	leal	(%esi,%edx), %ecx
	movl	-348(%ebp), %edx
	xorl	-352(%ebp), %edx
	andl	-356(%ebp), %edx
	xorl	-348(%ebp), %edx
	rorl	$6, %ebx
	leal	(%ecx,%edx), %esi
	movl	-356(%ebp), %edx
	rorl	$11, %edx
	xorl	%ebx, %edx
	movl	-356(%ebp), %ebx
	roll	$7, %ebx
	xorl	%ebx, %edx
	addl	%esi, %edx
.LVL80:
	leal	(%edi,%edx), %esi
	movl	%esi, -360(%ebp)
	movl	-340(%ebp), %edi
	movl	-340(%ebp), %ecx
	movl	-336(%ebp), %ebx
	andl	-340(%ebp), %ebx
	addl	$32, -364(%ebp)
	rorl	$2, %edi
	rorl	$13, %ecx
	xorl	%ecx, %edi
	movl	-340(%ebp), %ecx
	roll	$10, %ecx
	xorl	%ecx, %edi
	movl	-336(%ebp), %ecx
	orl	-340(%ebp), %ecx
	andl	-332(%ebp), %ecx
	orl	%ecx, %ebx
	leal	(%edi,%ebx), %ecx
.LVL81:
	addl	%ecx, %edx
.LVL82:
	.loc 1 220 0 discriminator 3
	decl	-380(%ebp)
.LVL83:
	.loc 1 229 0 discriminator 3
	movl	%edx, -344(%ebp)
	.loc 1 220 0 discriminator 3
	jne	.L22
	movl	-348(%ebp), %eax
	movl	%esi, -300(%ebp)
	movl	%edx, -316(%ebp)
	movl	%eax, -288(%ebp)
	movl	-356(%ebp), %eax
	movl	%eax, -296(%ebp)
	movl	-352(%ebp), %eax
	movl	%eax, -292(%ebp)
	movl	-340(%ebp), %eax
	movl	%eax, -312(%ebp)
	movl	-336(%ebp), %eax
	movl	%eax, -308(%ebp)
	movl	-332(%ebp), %eax
	movl	%eax, -304(%ebp)
	.loc 1 220 0 is_stmt 0
	xorl	%eax, %eax
.L23:
.LVL84:
	.loc 1 234 0 is_stmt 1 discriminator 3
	movl	-376(%ebp), %edi
	movl	-316(%ebp,%eax,4), %edx
	addl	%edx, 8(%edi,%eax,4)
	.loc 1 233 0 discriminator 3
	incl	%eax
.LVL85:
	cmpl	$8, %eax
	jne	.L23
	.loc 1 235 0
	movl	-28(%ebp), %eax
	xorl	%gs:20, %eax
.LVL86:
	je	.L24
	call	__stack_chk_fail
.LVL87:
.L24:
	addl	$380, %esp
	popl	%ebx
	.cfi_restore 3
	popl	%esi
	.cfi_restore 6
	popl	%edi
	.cfi_restore 7
	popl	%ebp
	.cfi_restore 5
	.cfi_def_cfa 4, 4
	ret
	.cfi_endproc
.LFE5:
	.size	mbedtls_sha256_process, .-mbedtls_sha256_process
	.section	.text.unlikely.mbedtls_sha256_process
.LCOLDE4:
	.section	.text.mbedtls_sha256_process
.LHOTE4:
	.section	.text.unlikely.mbedtls_sha256_update.part.0,"ax",@progbits
.LCOLDB5:
	.section	.text.mbedtls_sha256_update.part.0,"ax",@progbits
.LHOTB5:
	.type	mbedtls_sha256_update.part.0, @function
mbedtls_sha256_update.part.0:
.LFB9:
	.loc 1 241 0
	.cfi_startproc
.LVL88:
	pushl	%ebp
	.cfi_def_cfa_offset 8
	.cfi_offset 5, -8
	movl	%esp, %ebp
	.cfi_def_cfa_register 5
	pushl	%edi
	pushl	%esi
	pushl	%ebx
	.cfi_offset 7, -12
	.cfi_offset 6, -16
	.cfi_offset 3, -20
	movl	%eax, %ebx
	movl	%edx, %esi
	.loc 1 251 0
	movl	$64, %edx
.LVL89:
	.loc 1 241 0
	subl	$28, %esp
	.loc 1 250 0
	movl	(%eax), %eax
.LVL90:
	.loc 1 241 0
	movl	%ecx, -28(%ebp)
	.loc 1 250 0
	movl	%eax, %edi
	.loc 1 253 0
	addl	%ecx, %eax
	.loc 1 250 0
	andl	$63, %edi
.LVL91:
	.loc 1 253 0
	movl	%eax, (%ebx)
	.loc 1 251 0
	subl	%edi, %edx
	.loc 1 256 0
	cmpl	%eax, %ecx
	.loc 1 251 0
	movl	%edx, -32(%ebp)
.LVL92:
	.loc 1 256 0
	jbe	.L32
	.loc 1 257 0
	incl	4(%ebx)
.L32:
	.loc 1 259 0
	testl	%edi, %edi
	je	.L33
	movl	-28(%ebp), %ecx
.LVL93:
	cmpl	%ecx, -32(%ebp)
	ja	.L33
	.loc 1 261 0
	leal	40(%ebx), %edx
.LVL94:
	movl	-32(%ebp), %ecx
	leal	(%edx,%edi), %eax
	movl	%eax, %edi
.LVL95:
	rep movsb
.LVL96:
	.loc 1 262 0
	pushl	%ecx
	pushl	%ecx
	pushl	%edx
	pushl	%ebx
	call	mbedtls_sha256_process
.LVL97:
	.loc 1 264 0
	movl	-32(%ebp), %edi
	addl	$16, %esp
	subl	%edi, -28(%ebp)
.LVL98:
	.loc 1 265 0
	xorl	%edi, %edi
.LVL99:
.L33:
	movl	-28(%ebp), %eax
.LVL100:
.L34:
	movl	-28(%ebp), %edx
	subl	%eax, %edx
	addl	%esi, %edx
.LVL101:
	.loc 1 268 0
	cmpl	$63, %eax
	jbe	.L47
	movl	%eax, -32(%ebp)
.LVL102:
	.loc 1 270 0
	pushl	%eax
	pushl	%eax
	pushl	%edx
	pushl	%ebx
	call	mbedtls_sha256_process
.LVL103:
	.loc 1 272 0
	movl	-32(%ebp), %eax
	addl	$16, %esp
	subl	$64, %eax
.LVL104:
	jmp	.L34
.LVL105:
.L47:
	movl	-28(%ebp), %ecx
	shrl	$6, %ecx
	movl	%ecx, %edx
.LVL106:
	sall	$6, %edx
	addl	%edx, %esi
.LVL107:
	imull	$-64, %ecx, %ecx
	.loc 1 275 0
	addl	-28(%ebp), %ecx
	je	.L31
	.loc 1 276 0
	leal	40(%ebx,%edi), %eax
.LVL108:
	movl	%eax, %edi
.LVL109:
	rep movsb
.L31:
	.loc 1 277 0
	leal	-12(%ebp), %esp
	popl	%ebx
	.cfi_restore 3
.LVL110:
	popl	%esi
	.cfi_restore 6
	popl	%edi
	.cfi_restore 7
	popl	%ebp
	.cfi_restore 5
	.cfi_def_cfa 4, 4
	ret
	.cfi_endproc
.LFE9:
	.size	mbedtls_sha256_update.part.0, .-mbedtls_sha256_update.part.0
	.section	.text.unlikely.mbedtls_sha256_update.part.0
.LCOLDE5:
	.section	.text.mbedtls_sha256_update.part.0
.LHOTE5:
	.section	.text.unlikely.mbedtls_sha256_update,"ax",@progbits
.LCOLDB6:
	.section	.text.mbedtls_sha256_update,"ax",@progbits
.LHOTB6:
	.globl	mbedtls_sha256_update
	.type	mbedtls_sha256_update, @function
mbedtls_sha256_update:
.LFB6:
	.loc 1 243 0
	.cfi_startproc
.LVL111:
	pushl	%ebp
	.cfi_def_cfa_offset 8
	.cfi_offset 5, -8
	movl	%esp, %ebp
	.cfi_def_cfa_register 5
	.loc 1 243 0
	movl	16(%ebp), %ecx
	movl	8(%ebp), %eax
	movl	12(%ebp), %edx
	.loc 1 247 0
	testl	%ecx, %ecx
	je	.L48
	.loc 1 277 0
	popl	%ebp
	.cfi_remember_state
	.cfi_restore 5
	.cfi_def_cfa 4, 4
	jmp	mbedtls_sha256_update.part.0
.LVL112:
.L48:
	.cfi_restore_state
	popl	%ebp
	.cfi_restore 5
	.cfi_def_cfa 4, 4
	ret
	.cfi_endproc
.LFE6:
	.size	mbedtls_sha256_update, .-mbedtls_sha256_update
	.section	.text.unlikely.mbedtls_sha256_update
.LCOLDE6:
	.section	.text.mbedtls_sha256_update
.LHOTE6:
	.section	.text.unlikely.mbedtls_sha256_finish,"ax",@progbits
.LCOLDB7:
	.section	.text.mbedtls_sha256_finish,"ax",@progbits
.LHOTB7:
	.globl	mbedtls_sha256_finish
	.type	mbedtls_sha256_finish, @function
mbedtls_sha256_finish:
.LFB7:
	.loc 1 291 0
	.cfi_startproc
.LVL113:
	pushl	%ebp
	.cfi_def_cfa_offset 8
	.cfi_offset 5, -8
	movl	%esp, %ebp
	.cfi_def_cfa_register 5
	pushl	%edi
	pushl	%esi
	pushl	%ebx
	subl	$44, %esp
	.cfi_offset 7, -12
	.cfi_offset 6, -16
	.cfi_offset 3, -20
	.loc 1 291 0
	movl	8(%ebp), %ebx
	movl	12(%ebp), %esi
	movl	%gs:20, %eax
	movl	%eax, -28(%ebp)
	xorl	%eax, %eax
	.loc 1 296 0
	movl	(%ebx), %eax
	movl	%eax, -44(%ebp)
	movl	4(%ebx), %eax
	movl	-44(%ebp), %ecx
	leal	0(,%eax,8), %edx
	.loc 1 298 0
	movl	-44(%ebp), %eax
	.loc 1 296 0
	shrl	$29, %ecx
	orl	%ecx, %edx
.LVL114:
	.loc 1 300 0
	movl	%edx, %edi
	.loc 1 298 0
	leal	0(,%eax,8), %ecx
.LVL115:
	.loc 1 300 0
	movb	%dl, -33(%ebp)
	shrl	$24, %edi
	movl	%edi, %eax
	movl	%edx, %edi
	.loc 1 301 0
	movb	%cl, -29(%ebp)
	.loc 1 300 0
	shrl	$16, %edi
	movb	%al, -36(%ebp)
	movl	%edi, %eax
	movl	%edx, %edi
	.loc 1 301 0
	movl	%ecx, %edx
.LVL116:
	.loc 1 300 0
	shrl	$8, %edi
.LVL117:
	movb	%al, -35(%ebp)
	.loc 1 301 0
	shrl	$24, %edx
	.loc 1 300 0
	movl	%edi, %eax
	.loc 1 301 0
	movb	%dl, -32(%ebp)
	movl	%ecx, %edx
	.loc 1 300 0
	movb	%al, -34(%ebp)
	.loc 1 303 0
	movl	-44(%ebp), %eax
	.loc 1 301 0
	shrl	$16, %edx
	movb	%dl, -31(%ebp)
	movl	%ecx, %edx
	shrl	$8, %edx
	.loc 1 303 0
	andl	$63, %eax
.LVL118:
	.loc 1 301 0
	movb	%dl, -30(%ebp)
	.loc 1 304 0
	movl	$56, %edx
	cmpl	$55, %eax
	jbe	.L57
	.loc 1 304 0 is_stmt 0 discriminator 2
	movl	$120, %edx
.L57:
	subl	%eax, %edx
	movl	%edx, %eax
.LVL119:
	.loc 1 306 0 is_stmt 1 discriminator 2
	pushl	%edx
.LVL120:
	pushl	%eax
	pushl	$sha256_padding
	pushl	%ebx
	call	mbedtls_sha256_update
.LVL121:
.LBB8:
.LBB9:
	leal	-36(%ebp), %edx
.LVL122:
	movl	%ebx, %eax
	movl	$8, %ecx
	call	mbedtls_sha256_update.part.0
.LVL123:
.LBE9:
.LBE8:
	.loc 1 309 0 discriminator 2
	movzbl	11(%ebx), %eax
	.loc 1 317 0 discriminator 2
	addl	$16, %esp
	.loc 1 309 0 discriminator 2
	movb	%al, (%esi)
	movzwl	10(%ebx), %eax
	movb	%al, 1(%esi)
	movl	8(%ebx), %eax
	shrl	$8, %eax
	movb	%al, 2(%esi)
	movl	8(%ebx), %eax
	movb	%al, 3(%esi)
	.loc 1 310 0 discriminator 2
	movzbl	15(%ebx), %eax
	movb	%al, 4(%esi)
	movzwl	14(%ebx), %eax
	movb	%al, 5(%esi)
	movl	12(%ebx), %eax
	shrl	$8, %eax
	movb	%al, 6(%esi)
	movl	12(%ebx), %eax
	movb	%al, 7(%esi)
	.loc 1 311 0 discriminator 2
	movzbl	19(%ebx), %eax
	movb	%al, 8(%esi)
	movzwl	18(%ebx), %eax
	movb	%al, 9(%esi)
	movl	16(%ebx), %eax
	shrl	$8, %eax
	movb	%al, 10(%esi)
	movl	16(%ebx), %eax
	movb	%al, 11(%esi)
	.loc 1 312 0 discriminator 2
	movzbl	23(%ebx), %eax
	movb	%al, 12(%esi)
	movzwl	22(%ebx), %eax
	movb	%al, 13(%esi)
	movl	20(%ebx), %eax
	shrl	$8, %eax
	movb	%al, 14(%esi)
	movl	20(%ebx), %eax
	movb	%al, 15(%esi)
	.loc 1 313 0 discriminator 2
	movzbl	27(%ebx), %eax
	movb	%al, 16(%esi)
	movzwl	26(%ebx), %eax
	movb	%al, 17(%esi)
	movl	24(%ebx), %eax
	shrl	$8, %eax
	movb	%al, 18(%esi)
	movl	24(%ebx), %eax
	movb	%al, 19(%esi)
	.loc 1 314 0 discriminator 2
	movzbl	31(%ebx), %eax
	movb	%al, 20(%esi)
	movzwl	30(%ebx), %eax
	movb	%al, 21(%esi)
	movl	28(%ebx), %eax
	shrl	$8, %eax
	movb	%al, 22(%esi)
	movl	28(%ebx), %eax
	movb	%al, 23(%esi)
	.loc 1 315 0 discriminator 2
	movzbl	35(%ebx), %eax
	movb	%al, 24(%esi)
	movzwl	34(%ebx), %eax
	movb	%al, 25(%esi)
	movl	32(%ebx), %eax
	shrl	$8, %eax
	movb	%al, 26(%esi)
	movl	32(%ebx), %eax
	movb	%al, 27(%esi)
	.loc 1 317 0 discriminator 2
	cmpl	$0, 104(%ebx)
	jne	.L51
	.loc 1 318 0
	movzbl	39(%ebx), %eax
	movb	%al, 28(%esi)
	movzwl	38(%ebx), %eax
	movb	%al, 29(%esi)
	movl	36(%ebx), %eax
	shrl	$8, %eax
	movb	%al, 30(%esi)
	movl	36(%ebx), %eax
	movb	%al, 31(%esi)
.L51:
	.loc 1 319 0
	movl	-28(%ebp), %eax
	xorl	%gs:20, %eax
	je	.L55
	call	__stack_chk_fail
.LVL124:
.L55:
	leal	-12(%ebp), %esp
	popl	%ebx
	.cfi_restore 3
	popl	%esi
	.cfi_restore 6
	popl	%edi
	.cfi_restore 7
	popl	%ebp
	.cfi_restore 5
	.cfi_def_cfa 4, 4
	ret
	.cfi_endproc
.LFE7:
	.size	mbedtls_sha256_finish, .-mbedtls_sha256_finish
	.section	.text.unlikely.mbedtls_sha256_finish
.LCOLDE7:
	.section	.text.mbedtls_sha256_finish
.LHOTE7:
	.section	.text.unlikely.mbedtls_sha256,"ax",@progbits
.LCOLDB8:
	.section	.text.mbedtls_sha256,"ax",@progbits
.LHOTB8:
	.globl	mbedtls_sha256
	.type	mbedtls_sha256, @function
mbedtls_sha256:
.LFB8:
	.loc 1 328 0
	.cfi_startproc
.LVL125:
	pushl	%ebp
	.cfi_def_cfa_offset 8
	.cfi_offset 5, -8
	movl	%esp, %ebp
	.cfi_def_cfa_register 5
	pushl	%edi
	pushl	%esi
	pushl	%ebx
	.cfi_offset 7, -12
	.cfi_offset 6, -16
	.cfi_offset 3, -20
	.loc 1 331 0
	leal	-136(%ebp), %ebx
	.loc 1 328 0
	subl	$124, %esp
	.loc 1 328 0
	movl	8(%ebp), %edi
	movl	16(%ebp), %esi
	.loc 1 331 0
	pushl	%ebx
	.loc 1 328 0
	movl	%gs:20, %eax
	movl	%eax, -28(%ebp)
	xorl	%eax, %eax
	.loc 1 331 0
	call	mbedtls_sha256_init
.LVL126:
	.loc 1 332 0
	pushl	20(%ebp)
	pushl	%ebx
	call	mbedtls_sha256_starts
.LVL127:
	.loc 1 333 0
	pushl	%eax
	pushl	%eax
	pushl	12(%ebp)
	pushl	%edi
	pushl	%ebx
	call	mbedtls_sha256_update
.LVL128:
	.loc 1 334 0
	addl	$24, %esp
	pushl	%esi
	pushl	%ebx
	call	mbedtls_sha256_finish
.LVL129:
	.loc 1 335 0
	movl	%ebx, (%esp)
	call	mbedtls_sha256_free
.LVL130:
	.loc 1 336 0
	addl	$16, %esp
	movl	-28(%ebp), %eax
	xorl	%gs:20, %eax
	je	.L59
	call	__stack_chk_fail
.LVL131:
.L59:
	leal	-12(%ebp), %esp
	popl	%ebx
	.cfi_restore 3
	popl	%esi
	.cfi_restore 6
	popl	%edi
	.cfi_restore 7
	popl	%ebp
	.cfi_restore 5
	.cfi_def_cfa 4, 4
	ret
	.cfi_endproc
.LFE8:
	.size	mbedtls_sha256, .-mbedtls_sha256
	.section	.text.unlikely.mbedtls_sha256
.LCOLDE8:
	.section	.text.mbedtls_sha256
.LHOTE8:
	.section	.rodata.sha256_padding,"a",@progbits
	.align 32
	.type	sha256_padding, @object
	.size	sha256_padding, 64
sha256_padding:
	.byte	-128
	.byte	0
	.byte	0
	.byte	0
	.byte	0
	.byte	0
	.byte	0
	.byte	0
	.byte	0
	.byte	0
	.byte	0
	.byte	0
	.byte	0
	.byte	0
	.byte	0
	.byte	0
	.byte	0
	.byte	0
	.byte	0
	.byte	0
	.byte	0
	.byte	0
	.byte	0
	.byte	0
	.byte	0
	.byte	0
	.byte	0
	.byte	0
	.byte	0
	.byte	0
	.byte	0
	.byte	0
	.byte	0
	.byte	0
	.byte	0
	.byte	0
	.byte	0
	.byte	0
	.byte	0
	.byte	0
	.byte	0
	.byte	0
	.byte	0
	.byte	0
	.byte	0
	.byte	0
	.byte	0
	.byte	0
	.byte	0
	.byte	0
	.byte	0
	.byte	0
	.byte	0
	.byte	0
	.byte	0
	.byte	0
	.byte	0
	.byte	0
	.byte	0
	.byte	0
	.byte	0
	.byte	0
	.byte	0
	.byte	0
	.section	.rodata.K,"a",@progbits
	.align 32
	.type	K, @object
	.size	K, 256
K:
	.long	1116352408
	.long	1899447441
	.long	-1245643825
	.long	-373957723
	.long	961987163
	.long	1508970993
	.long	-1841331548
	.long	-1424204075
	.long	-670586216
	.long	310598401
	.long	607225278
	.long	1426881987
	.long	1925078388
	.long	-2132889090
	.long	-1680079193
	.long	-1046744716
	.long	-459576895
	.long	-272742522
	.long	264347078
	.long	604807628
	.long	770255983
	.long	1249150122
	.long	1555081692
	.long	1996064986
	.long	-1740746414
	.long	-1473132947
	.long	-1341970488
	.long	-1084653625
	.long	-958395405
	.long	-710438585
	.long	113926993
	.long	338241895
	.long	666307205
	.long	773529912
	.long	1294757372
	.long	1396182291
	.long	1695183700
	.long	1986661051
	.long	-2117940946
	.long	-1838011259
	.long	-1564481375
	.long	-1474664885
	.long	-1035236496
	.long	-949202525
	.long	-778901479
	.long	-694614492
	.long	-200395387
	.long	275423344
	.long	430227734
	.long	506948616
	.long	659060556
	.long	883997877
	.long	958139571
	.long	1322822218
	.long	1537002063
	.long	1747873779
	.long	1955562222
	.long	2024104815
	.long	-2067236844
	.long	-1933114872
	.long	-1866530822
	.long	-1538233109
	.long	-1090935817
	.long	-965641998
	.text
.Letext0:
	.section	.text.unlikely.mbedtls_sha256_init
.Letext_cold0:
	.file 2 "/home/stone/Documents/Ali_IOT/build/compiler/gcc-arm-none-eabi/Linux64/arm-none-eabi/include/machine/_default_types.h"
	.file 3 "/home/stone/Documents/Ali_IOT/build/compiler/gcc-arm-none-eabi/Linux64/lib/gcc/arm-none-eabi/5.4.1/include/stddef.h"
	.file 4 "/home/stone/Documents/Ali_IOT/build/compiler/gcc-arm-none-eabi/Linux64/arm-none-eabi/include/sys/_stdint.h"
	.file 5 "./security/alicrypto/./mbedtls/include/mbedtls/sha256.h"
	.section	.note.GNU-stack,"",@progbits
