	.file	"soc_init.c"
	.text
.Ltext0:
	.section	.text.unlikely.uart_handler,"ax",@progbits
.LCOLDB1:
	.section	.text.uart_handler,"ax",@progbits
.LHOTB1:
	.section	.text.unlikely.uart_handler
.Ltext_cold0:
	.section	.text.uart_handler
	.globl	uart_handler
	.type	uart_handler, @function
uart_handler:
.LFB192:
	.file 1 "src/soc_init.c"
	.loc 1 4813 0
	.cfi_startproc
.LVL0:
	pushl	%ebp
	.cfi_def_cfa_offset 8
	.cfi_offset 5, -8
	movl	%esp, %ebp
	.cfi_def_cfa_register 5
	.loc 1 4814 0
	popl	%ebp
	.cfi_restore 5
	.cfi_def_cfa 4, 4
	ret
	.cfi_endproc
.LFE192:
	.size	uart_handler, .-uart_handler
	.section	.text.unlikely.uart_handler
.LCOLDE1:
	.section	.text.uart_handler
.LHOTE1:
	.section	.rodata
	.align 4
.LC0:
	.long	8
	.long	6
	.long	5
	.long	7
	.long	0
	.byte	0
	.zero	3
	.long	30801920
	.section	.text.unlikely.hal_uart_init,"ax",@progbits
.LCOLDB2:
	.section	.text.hal_uart_init,"ax",@progbits
.LHOTB2:
	.globl	hal_uart_init
	.type	hal_uart_init, @function
hal_uart_init:
.LFB193:
	.loc 1 4816 0
	.cfi_startproc
.LVL1:
	pushl	%ebp
	.cfi_def_cfa_offset 8
	.cfi_offset 5, -8
	.loc 1 4819 0
	movl	$7, %ecx
	.loc 1 4816 0
	movl	%esp, %ebp
	.cfi_def_cfa_register 5
	pushl	%edi
	pushl	%esi
	.cfi_offset 7, -12
	.cfi_offset 6, -16
	.loc 1 4819 0
	leal	-40(%ebp), %edi
	movl	$.LC0, %esi
	.loc 1 4816 0
	subl	$48, %esp
.LBB4:
	.loc 1 4830 0
	movl	$rx_buf.7161, -56(%ebp)
	movl	$128, -52(%ebp)
.LBE4:
	.loc 1 4816 0
	movl	%gs:20, %eax
	movl	%eax, -12(%ebp)
	xorl	%eax, %eax
.LBB5:
	.loc 1 4830 0
	leal	-56(%ebp), %eax
	movl	$tx_buf.7162, -48(%ebp)
	movl	$512, -44(%ebp)
.LBE5:
	.loc 1 4819 0
	rep movsl
.LBB6:
	.loc 1 4830 0
	pushl	$7
	pushl	$uart_handler
	pushl	%eax
	leal	-40(%ebp), %eax
	pushl	%eax
	call	app_uart_init
.LVL2:
.LBE6:
.LBB7:
	.loc 1 4832 0
	addl	$16, %esp
	testl	%eax, %eax
	je	.L4
	.loc 1 4832 0 is_stmt 0 discriminator 1
	subl	$12, %esp
	pushl	%eax
	call	app_error_handler_bare
.LVL3:
	addl	$16, %esp
.L4:
.LBE7:
	.loc 1 4834 0 is_stmt 1
	xorl	%eax, %eax
	movl	-12(%ebp), %edx
	xorl	%gs:20, %edx
	je	.L5
	call	__stack_chk_fail
.LVL4:
.L5:
	leal	-8(%ebp), %esp
	popl	%esi
	.cfi_restore 6
	popl	%edi
	.cfi_restore 7
	popl	%ebp
	.cfi_restore 5
	.cfi_def_cfa 4, 4
	ret
	.cfi_endproc
.LFE193:
	.size	hal_uart_init, .-hal_uart_init
	.section	.text.unlikely.hal_uart_init
.LCOLDE2:
	.section	.text.hal_uart_init
.LHOTE2:
	.section	.rodata.str1.1,"aMS",@progbits,1
.LC3:
	.string	"\r"
	.section	.text.unlikely.__io_putchar,"ax",@progbits
.LCOLDB4:
	.section	.text.__io_putchar,"ax",@progbits
.LHOTB4:
	.globl	__io_putchar
	.type	__io_putchar, @function
__io_putchar:
.LFB194:
	.loc 1 4836 0
	.cfi_startproc
.LVL5:
	pushl	%ebp
	.cfi_def_cfa_offset 8
	.cfi_offset 5, -8
	movl	%esp, %ebp
	.cfi_def_cfa_register 5
	subl	$8, %esp
	.loc 1 4837 0
	cmpl	$10, 8(%ebp)
	jne	.L12
	.loc 1 4838 0
	pushl	$30000
	pushl	$1
	pushl	$.LC3
	pushl	$uart_0
	call	hal_uart_send
.LVL6:
	addl	$16, %esp
.L12:
	.loc 1 4840 0
	leal	8(%ebp), %eax
.LVL7:
	pushl	$30000
	pushl	$1
	pushl	%eax
	pushl	$uart_0
	call	hal_uart_send
.LVL8:
	.loc 1 4842 0
	movl	8(%ebp), %eax
	leave
	.cfi_restore 5
	.cfi_def_cfa 4, 4
.LVL9:
	ret
	.cfi_endproc
.LFE194:
	.size	__io_putchar, .-__io_putchar
	.section	.text.unlikely.__io_putchar
.LCOLDE4:
	.section	.text.__io_putchar
.LHOTE4:
	.section	.text.unlikely.__io_getchar,"ax",@progbits
.LCOLDB5:
	.section	.text.__io_getchar,"ax",@progbits
.LHOTB5:
	.globl	__io_getchar
	.type	__io_getchar, @function
__io_getchar:
.LFB195:
	.loc 1 4844 0
	.cfi_startproc
	pushl	%ebp
	.cfi_def_cfa_offset 8
	.cfi_offset 5, -8
	movl	%esp, %ebp
	.cfi_def_cfa_register 5
	subl	$24, %esp
	.loc 1 4844 0
	movl	%gs:20, %eax
	movl	%eax, -12(%ebp)
	xorl	%eax, %eax
	.loc 1 4849 0
	leal	-13(%ebp), %eax
	pushl	$-1
	pushl	$1
	.loc 1 4845 0
	movb	$-1, -13(%ebp)
.LVL10:
	.loc 1 4849 0
	pushl	%eax
	pushl	$uart_0
	call	hal_uart_recv
.LVL11:
	.loc 1 4850 0
	addl	$16, %esp
	orl	$-1, %edx
	testl	%eax, %eax
	jne	.L15
	.loc 1 4851 0
	movzbl	-13(%ebp), %edx
.L15:
	.loc 1 4855 0
	movl	-12(%ebp), %ecx
	xorl	%gs:20, %ecx
	movl	%edx, %eax
.LVL12:
	je	.L16
	call	__stack_chk_fail
.LVL13:
.L16:
	leave
	.cfi_restore 5
	.cfi_def_cfa 4, 4
	ret
	.cfi_endproc
.LFE195:
	.size	__io_getchar, .-__io_getchar
	.section	.text.unlikely.__io_getchar
.LCOLDE5:
	.section	.text.__io_getchar
.LHOTE5:
	.section	.text.unlikely.os_hwi_set_handler,"ax",@progbits
.LCOLDB6:
	.section	.text.os_hwi_set_handler,"ax",@progbits
.LHOTB6:
	.globl	os_hwi_set_handler
	.type	os_hwi_set_handler, @function
os_hwi_set_handler:
.LFB196:
	.loc 1 4858 0
	.cfi_startproc
.LVL14:
	pushl	%ebp
	.cfi_def_cfa_offset 8
	.cfi_offset 5, -8
	movl	%esp, %ebp
	.cfi_def_cfa_register 5
	.loc 1 4861 0
	movl	8(%ebp), %eax
	.loc 1 4862 0
	movl	12(%ebp), %edx
	.loc 1 4863 0
	popl	%ebp
	.cfi_restore 5
	.cfi_def_cfa 4, 4
	.loc 1 4861 0
	addl	$16, %eax
.LVL15:
	.loc 1 4862 0
	movl	%edx, __isr_vector(,%eax,4)
	.loc 1 4863 0
	ret
	.cfi_endproc
.LFE196:
	.size	os_hwi_set_handler, .-os_hwi_set_handler
	.section	.text.unlikely.os_hwi_set_handler
.LCOLDE6:
	.section	.text.os_hwi_set_handler
.LHOTE6:
	.section	.rodata.str1.1
.LC7:
	.string	"\r\n0x%08x:"
.LC8:
	.string	"0x%08x "
	.section	.text.unlikely.print_stack_mem,"ax",@progbits
.LCOLDB9:
	.section	.text.print_stack_mem,"ax",@progbits
.LHOTB9:
	.globl	print_stack_mem
	.type	print_stack_mem, @function
print_stack_mem:
.LFB198:
	.loc 1 4884 0
	.cfi_startproc
.LVL16:
	pushl	%ebp
	.cfi_def_cfa_offset 8
	.cfi_offset 5, -8
	movl	%esp, %ebp
	.cfi_def_cfa_register 5
	pushl	%edi
	pushl	%esi
	pushl	%ebx
	.cfi_offset 7, -12
	.cfi_offset 6, -16
	.cfi_offset 3, -20
	.loc 1 4886 0
	xorl	%esi, %esi
	.loc 1 4884 0
	subl	$12, %esp
	.loc 1 4884 0
	movl	8(%ebp), %ebx
.LVL17:
	.loc 1 4889 0
	movl	12(%ebp), %edi
	addl	%ebx, %edi
.LVL18:
.L23:
	.loc 1 4891 0
	cmpl	%edi, %ebx
	jnb	.L27
	.loc 1 4892 0
	testl	$3, %esi
	jne	.L24
	.loc 1 4893 0
	pushl	%edx
	pushl	%edx
	pushl	%ebx
	pushl	$.LC7
	call	printf
.LVL19:
	addl	$16, %esp
.L24:
	.loc 1 4895 0
	pushl	%eax
	pushl	%eax
	.loc 1 4896 0
	incl	%esi
.LVL20:
	.loc 1 4895 0
	pushl	(%ebx)
	pushl	$.LC8
	.loc 1 4897 0
	addl	$4, %ebx
.LVL21:
	.loc 1 4895 0
	call	printf
.LVL22:
	.loc 1 4897 0
	addl	$16, %esp
	jmp	.L23
.L27:
	.loc 1 4899 0
	movl	$.LC3, 8(%ebp)
.LVL23:
	.loc 1 4901 0
	leal	-12(%ebp), %esp
	popl	%ebx
	.cfi_restore 3
.LVL24:
	popl	%esi
	.cfi_restore 6
.LVL25:
	popl	%edi
	.cfi_restore 7
.LVL26:
	popl	%ebp
	.cfi_restore 5
	.cfi_def_cfa 4, 4
	.loc 1 4899 0
	jmp	puts
.LVL27:
	.cfi_endproc
.LFE198:
	.size	print_stack_mem, .-print_stack_mem
	.section	.text.unlikely.print_stack_mem
.LCOLDE9:
	.section	.text.print_stack_mem
.LHOTE9:
	.section	.rodata.str1.1
.LC10:
	.string	"err pc:0x%08x\terr lr:0x%08x\r\n"
.LC11:
	.string	"\r\nmsp context:"
	.section	.text.unlikely.print_stack_context,"ax",@progbits
.LCOLDB12:
	.section	.text.print_stack_context,"ax",@progbits
.LHOTB12:
	.globl	print_stack_context
	.type	print_stack_context, @function
print_stack_context:
.LFB197:
	.loc 1 4878 0
	.cfi_startproc
.LVL28:
	pushl	%ebp
	.cfi_def_cfa_offset 8
	.cfi_offset 5, -8
	movl	%esp, %ebp
	.cfi_def_cfa_register 5
	pushl	%esi
	pushl	%ebx
	.cfi_offset 6, -12
	.cfi_offset 3, -16
	.loc 1 4878 0
	movl	8(%ebp), %ebx
	movl	12(%ebp), %esi
	.loc 1 4879 0
	pushl	%eax
	pushl	20(%ebx)
	pushl	24(%ebx)
	pushl	$.LC10
	call	printf
.LVL29:
	.loc 1 4880 0
	movl	$.LC11, (%esp)
	call	printf
.LVL30:
	.loc 1 4881 0
	movl	%esi, 12(%ebp)
	movl	%ebx, 8(%ebp)
	addl	$16, %esp
	.loc 1 4882 0
	leal	-8(%ebp), %esp
	popl	%ebx
	.cfi_restore 3
	popl	%esi
	.cfi_restore 6
	popl	%ebp
	.cfi_restore 5
	.cfi_def_cfa 4, 4
	.loc 1 4881 0
	jmp	print_stack_mem
.LVL31:
	.cfi_endproc
.LFE197:
	.size	print_stack_context, .-print_stack_context
	.section	.text.unlikely.print_stack_context
.LCOLDE12:
	.section	.text.print_stack_context
.LHOTE12:
	.section	.rodata.str1.1
.LC13:
	.string	"\r\nPSR:0x%x"
.LC14:
	.string	"\r\nIPSR:0x%x"
.LC15:
	.string	"\r\nEPSR:0x%x"
.LC16:
	.string	"\r\nPRIMASK:0x%x"
.LC17:
	.string	"\r\nFAULTMASK:0x%x"
.LC18:
	.string	"\r\nBASEPRI:0x%x"
.LC19:
	.string	"\r\nCONTROL:0x%x"
	.section	.text.unlikely.print_sys_reg,"ax",@progbits
.LCOLDB20:
	.section	.text.print_sys_reg,"ax",@progbits
.LHOTB20:
	.globl	print_sys_reg
	.type	print_sys_reg, @function
print_sys_reg:
.LFB199:
	.loc 1 4903 0
	.cfi_startproc
	pushl	%ebp
	.cfi_def_cfa_offset 8
	.cfi_offset 5, -8
	movl	%esp, %ebp
	.cfi_def_cfa_register 5
	subl	$16, %esp
	.loc 1 4905 0
#APP
# 4905 "src/soc_init.c" 1
	MRS %eax,PSR

# 0 "" 2
.LVL32:
	.loc 1 4906 0
#NO_APP
	pushl	%eax
	pushl	$.LC13
	call	printf
.LVL33:
	.loc 1 4907 0
#APP
# 4907 "src/soc_init.c" 1
	MRS %eax,IPSR

# 0 "" 2
.LVL34:
	.loc 1 4908 0
#NO_APP
	popl	%edx
	popl	%ecx
	pushl	%eax
	pushl	$.LC14
	call	printf
.LVL35:
	.loc 1 4909 0
#APP
# 4909 "src/soc_init.c" 1
	MRS %eax,EPSR

# 0 "" 2
.LVL36:
	.loc 1 4910 0
#NO_APP
	popl	%edx
	popl	%ecx
	pushl	%eax
	pushl	$.LC15
	call	printf
.LVL37:
	.loc 1 4911 0
#APP
# 4911 "src/soc_init.c" 1
	MRS %eax,PRIMASK

# 0 "" 2
.LVL38:
	.loc 1 4912 0
#NO_APP
	popl	%edx
	popl	%ecx
	pushl	%eax
	pushl	$.LC16
	call	printf
.LVL39:
	.loc 1 4913 0
#APP
# 4913 "src/soc_init.c" 1
	MRS %eax,FAULTMASK

# 0 "" 2
.LVL40:
	.loc 1 4914 0
#NO_APP
	popl	%edx
	popl	%ecx
	pushl	%eax
	pushl	$.LC17
	call	printf
.LVL41:
	.loc 1 4915 0
#APP
# 4915 "src/soc_init.c" 1
	MRS %eax,BASEPRI

# 0 "" 2
.LVL42:
	.loc 1 4916 0
#NO_APP
	popl	%edx
	popl	%ecx
	pushl	%eax
	pushl	$.LC18
	call	printf
.LVL43:
	.loc 1 4917 0
#APP
# 4917 "src/soc_init.c" 1
	MRS %eax,CONTROL

# 0 "" 2
.LVL44:
	.loc 1 4918 0
#NO_APP
	popl	%edx
	popl	%ecx
	pushl	%eax
	pushl	$.LC19
	call	printf
.LVL45:
	.loc 1 4919 0
	addl	$16, %esp
	leave
	.cfi_restore 5
	.cfi_def_cfa 4, 4
	ret
	.cfi_endproc
.LFE199:
	.size	print_sys_reg, .-print_sys_reg
	.section	.text.unlikely.print_sys_reg
.LCOLDE20:
	.section	.text.print_sys_reg
.LHOTE20:
	.section	.rodata.str1.1
.LC21:
	.string	"\r\ng_sys_stat:0x%x"
.LC22:
	.string	"\r\ng_sched_lock:%d"
.LC23:
	.string	"\r\ng_intrpt_nested_level:%d"
.LC24:
	.string	"\r\ng_active_task:%p,taskname:%s"
	.section	.text.unlikely.print_sys_variable,"ax",@progbits
.LCOLDB25:
	.section	.text.print_sys_variable,"ax",@progbits
.LHOTB25:
	.globl	print_sys_variable
	.type	print_sys_variable, @function
print_sys_variable:
.LFB200:
	.loc 1 4921 0
	.cfi_startproc
	pushl	%ebp
	.cfi_def_cfa_offset 8
	.cfi_offset 5, -8
	movl	%esp, %ebp
	.cfi_def_cfa_register 5
	subl	$16, %esp
	.loc 1 4924 0
	pushl	g_sys_stat
	pushl	$.LC21
	call	printf
.LVL46:
	.loc 1 4925 0
	popl	%eax
	movzbl	g_sched_lock, %eax
	popl	%edx
	pushl	%eax
	pushl	$.LC22
	call	printf
.LVL47:
	.loc 1 4926 0
	popl	%ecx
	popl	%eax
	movzbl	g_intrpt_nested_level, %eax
	pushl	%eax
	pushl	$.LC23
	call	printf
.LVL48:
	.loc 1 4927 0
	movl	g_active_task, %eax
	addl	$12, %esp
	pushl	4(%eax)
	pushl	%eax
	pushl	$.LC24
	call	printf
.LVL49:
	.loc 1 4928 0
	addl	$16, %esp
	leave
	.cfi_restore 5
	.cfi_def_cfa 4, 4
	ret
	.cfi_endproc
.LFE200:
	.size	print_sys_variable, .-print_sys_variable
	.section	.text.unlikely.print_sys_variable
.LCOLDE25:
	.section	.text.print_sys_variable
.LHOTE25:
	.section	.text.unlikely.HardFault_Handler,"ax",@progbits
.LCOLDB26:
	.section	.text.HardFault_Handler,"ax",@progbits
.LHOTB26:
	.globl	HardFault_Handler
	.type	HardFault_Handler, @function
HardFault_Handler:
.LFB202:
	.loc 1 4941 0
	.cfi_startproc
	pushl	%ebp
	.cfi_def_cfa_offset 8
	.cfi_offset 5, -8
	movl	%esp, %ebp
	.cfi_def_cfa_register 5
.L35:
	jmp	.L35
	.cfi_endproc
.LFE202:
	.size	HardFault_Handler, .-HardFault_Handler
	.section	.text.unlikely.HardFault_Handler
.LCOLDE26:
	.section	.text.HardFault_Handler
.LHOTE26:
	.section	.bss.tx_buf.7162,"aw",@nobits
	.align 32
	.type	tx_buf.7162, @object
	.size	tx_buf.7162, 512
tx_buf.7162:
	.zero	512
	.section	.bss.rx_buf.7161,"aw",@nobits
	.align 32
	.type	rx_buf.7161, @object
	.size	rx_buf.7161, 128
rx_buf.7161:
	.zero	128
	.globl	g_hardfault_num
	.section	.bss.g_hardfault_num,"aw",@nobits
	.align 4
	.type	g_hardfault_num, @object
	.size	g_hardfault_num, 4
g_hardfault_num:
	.zero	4
	.globl	g_psp_value
	.section	.bss.g_psp_value,"aw",@nobits
	.align 4
	.type	g_psp_value, @object
	.size	g_psp_value, 4
g_psp_value:
	.zero	4
	.globl	g_msp_value
	.section	.bss.g_msp_value,"aw",@nobits
	.align 4
	.type	g_msp_value, @object
	.size	g_msp_value, 4
g_msp_value:
	.zero	4
	.globl	uart_0
	.section	.bss.uart_0,"aw",@nobits
	.align 32
	.type	uart_0, @object
	.size	uart_0, 32
uart_0:
	.zero	32
	.text
.Letext0:
	.section	.text.unlikely.uart_handler
.Letext_cold0:
	.file 2 "<built-in>"
	.section	.note.GNU-stack,"",@progbits
