	.file	"soc_impl.c"
	.text
.Ltext0:
	.section	.rodata.str1.1,"aMS",@progbits,1
.LC0:
	.string	"panic %d!\r\n"
.LC1:
	.string	"\r\n%08x:"
.LC2:
	.string	"%08x "
.LC3:
	.string	"\r"
.LC4:
	.string	"0"
.LC5:
	.string	"platform/mcu/moc108/aos/soc_impl.c"
	.section	.text.unlikely.soc_err_proc,"ax",@progbits
.LCOLDB6:
	.section	.text.soc_err_proc,"ax",@progbits
.LHOTB6:
	.section	.text.unlikely.soc_err_proc
.Ltext_cold0:
	.section	.text.soc_err_proc
	.globl	soc_err_proc
	.type	soc_err_proc, @function
soc_err_proc:
.LFB15:
	.file 1 "platform/mcu/moc108/aos/soc_impl.c"
	.loc 1 100 0
	.cfi_startproc
.LVL0:
	pushl	%ebp
	.cfi_def_cfa_offset 8
	.cfi_offset 5, -8
	movl	%esp, %ebp
	.cfi_def_cfa_register 5
	pushl	%edi
	pushl	%esi
	pushl	%ebx
	subl	$20, %esp
	.cfi_offset 7, -12
	.cfi_offset 6, -16
	.cfi_offset 3, -20
	.loc 1 102 0
	pushl	8(%ebp)
	pushl	$.LC0
	call	printf
.LVL1:
.LBB12:
.LBB13:
	.loc 1 85 0
	call	krhino_cur_task_get
.LVL2:
	movl	16(%eax), %ebx
	call	krhino_cur_task_get
.LVL3:
	movl	20(%eax), %eax
	leal	(%ebx,%eax,4), %esi
.LVL4:
.LBB14:
.LBB15:
	.loc 1 68 0
#APP
# 68 "platform/mcu/moc108/aos/soc_impl.c" 1
	mov %ebx,sp

# 0 "" 2
.LVL5:
#NO_APP
.LBE15:
.LBE14:
	.loc 1 82 0
	xorl	%edi, %edi
	.loc 1 86 0
	addl	$16, %esp
.LVL6:
.L2:
	.loc 1 88 0
	cmpl	%ebx, %esi
	jbe	.L7
.LBB16:
	.loc 1 89 0
	testl	$3, %edi
	jne	.L3
.LBB17:
	.loc 1 90 0
	pushl	%edx
	pushl	%edx
	pushl	%ebx
	pushl	$.LC1
	call	printf
.LVL7:
	addl	$16, %esp
.L3:
.LBE17:
	.loc 1 92 0
	pushl	%eax
	pushl	%eax
	.loc 1 93 0
	incl	%edi
.LVL8:
	.loc 1 92 0
	pushl	(%ebx)
	pushl	$.LC2
	.loc 1 94 0
	addl	$4, %ebx
.LVL9:
	.loc 1 92 0
	call	printf
.LVL10:
	.loc 1 94 0
	addl	$16, %esp
	jmp	.L2
.L7:
.LBE16:
	.loc 1 96 0
	subl	$12, %esp
	pushl	$.LC3
	call	puts
.LVL11:
.LBE13:
.LBE12:
	.loc 1 104 0
	pushl	$.LC4
	pushl	$__func__.2825
	pushl	$104
	pushl	$.LC5
	call	__assert_func
.LVL12:
	.cfi_endproc
.LFE15:
	.size	soc_err_proc, .-soc_err_proc
	.section	.text.unlikely.soc_err_proc
.LCOLDE6:
	.section	.text.soc_err_proc
.LHOTE6:
	.section	.text.unlikely.aos_mm_leak_region_init,"ax",@progbits
.LCOLDB7:
	.section	.text.aos_mm_leak_region_init,"ax",@progbits
.LHOTB7:
	.globl	aos_mm_leak_region_init
	.type	aos_mm_leak_region_init, @function
aos_mm_leak_region_init:
.LFB12:
	.loc 1 56 0
	.cfi_startproc
	pushl	%ebp
	.cfi_def_cfa_offset 8
	.cfi_offset 5, -8
	movl	%esp, %ebp
	.cfi_def_cfa_register 5
	subl	$16, %esp
	.loc 1 57 0
	pushl	$_bss_end
	pushl	$_bss_start
	call	krhino_mm_leak_region_init
.LVL13:
	.loc 1 58 0
	popl	%eax
	popl	%edx
	pushl	$_data_ram_end
	pushl	$_data_ram_begin
	call	krhino_mm_leak_region_init
.LVL14:
	.loc 1 59 0
	addl	$16, %esp
	leave
	.cfi_restore 5
	.cfi_def_cfa 4, 4
	ret
	.cfi_endproc
.LFE12:
	.size	aos_mm_leak_region_init, .-aos_mm_leak_region_init
	.section	.text.unlikely.aos_mm_leak_region_init
.LCOLDE7:
	.section	.text.aos_mm_leak_region_init
.LHOTE7:
	.section	.text.unlikely.soc_get_cur_sp,"ax",@progbits
.LCOLDB8:
	.section	.text.soc_get_cur_sp,"ax",@progbits
.LHOTB8:
	.globl	soc_get_cur_sp
	.type	soc_get_cur_sp, @function
soc_get_cur_sp:
.LFB13:
	.loc 1 65 0
	.cfi_startproc
.LVL15:
	pushl	%ebp
	.cfi_def_cfa_offset 8
	.cfi_offset 5, -8
	movl	%esp, %ebp
	.cfi_def_cfa_register 5
	.loc 1 68 0
#APP
# 68 "platform/mcu/moc108/aos/soc_impl.c" 1
	mov %eax,sp

# 0 "" 2
.LVL16:
	.loc 1 73 0
#NO_APP
	popl	%ebp
	.cfi_restore 5
	.cfi_def_cfa 4, 4
	ret
	.cfi_endproc
.LFE13:
	.size	soc_get_cur_sp, .-soc_get_cur_sp
	.section	.text.unlikely.soc_get_cur_sp
.LCOLDE8:
	.section	.text.soc_get_cur_sp
.LHOTE8:
	.section	.rodata.__func__.2825,"a",@progbits
	.align 4
	.type	__func__.2825, @object
	.size	__func__.2825, 13
__func__.2825:
	.string	"soc_err_proc"
	.globl	g_err_proc
	.section	.data.g_err_proc,"aw",@progbits
	.align 4
	.type	g_err_proc, @object
	.size	g_err_proc, 4
g_err_proc:
	.long	soc_err_proc
	.globl	g_region_num
	.section	.data.g_region_num,"aw",@progbits
	.align 4
	.type	g_region_num, @object
	.size	g_region_num, 4
g_region_num:
	.long	1
	.globl	g_mm_region
	.section	.data.g_mm_region,"aw",@progbits
	.align 4
	.type	g_mm_region, @object
	.size	g_mm_region, 8
g_mm_region:
	.long	heap_start
	.long	heap_len
	.text
.Letext0:
	.section	.text.unlikely.soc_err_proc
.Letext_cold0:
	.file 2 "/home/stone/Documents/Ali_IOT/build/compiler/gcc-arm-none-eabi/Linux64/lib/gcc/arm-none-eabi/5.4.1/include/stddef.h"
	.file 3 "/home/stone/Documents/Ali_IOT/build/compiler/gcc-arm-none-eabi/Linux64/arm-none-eabi/include/machine/_default_types.h"
	.file 4 "/home/stone/Documents/Ali_IOT/build/compiler/gcc-arm-none-eabi/Linux64/arm-none-eabi/include/sys/_stdint.h"
	.file 5 "./kernel/rhino/core/include/k_err.h"
	.file 6 "./kernel/rhino/core/include/k_mm_region.h"
	.file 7 "<built-in>"
	.file 8 "./kernel/rhino/core/include/k_task.h"
	.file 9 "/home/stone/Documents/Ali_IOT/build/compiler/gcc-arm-none-eabi/Linux64/arm-none-eabi/include/assert.h"
	.file 10 "./kernel/rhino/core/include/k_mm_debug.h"
	.section	.note.GNU-stack,"",@progbits
