	.file	"sockets.c"
	.text
.Ltext0:
	.section	.text.unlikely.tryget_event,"ax",@progbits
.LCOLDB0:
	.section	.text.tryget_event,"ax",@progbits
.LHOTB0:
	.section	.text.unlikely.tryget_event
.Ltext_cold0:
	.section	.text.tryget_event
	.type	tryget_event, @function
tryget_event:
.LFB26:
	.file 1 "kernel/protocols/net/api/sockets.c"
	.loc 1 388 0
	.cfi_startproc
.LVL0:
	pushl	%ebp
	.cfi_def_cfa_offset 8
	.cfi_offset 5, -8
	.loc 1 389 0
	subl	$38, %eax
.LVL1:
	.loc 1 390 0
	cmpl	$37, %eax
	.loc 1 388 0
	movl	%esp, %ebp
	.cfi_def_cfa_register 5
	.loc 1 390 0
	ja	.L3
	.loc 1 393 0
	imull	$24, %eax, %eax
.LVL2:
	.loc 1 396 0
	movl	$0, %edx
	.loc 1 393 0
	addl	$events, %eax
	.loc 1 396 0
	cmpl	$0, 8(%eax)
	cmove	%edx, %eax
	jmp	.L2
.LVL3:
.L3:
	.loc 1 391 0
	xorl	%eax, %eax
.LVL4:
.L2:
	.loc 1 397 0
	popl	%ebp
	.cfi_restore 5
	.cfi_def_cfa 4, 4
	ret
	.cfi_endproc
.LFE26:
	.size	tryget_event, .-tryget_event
	.section	.text.unlikely.tryget_event
.LCOLDE0:
	.section	.text.tryget_event
.LHOTE0:
	.section	.text.unlikely.tryget_socket,"ax",@progbits
.LCOLDB1:
	.section	.text.tryget_socket,"ax",@progbits
.LHOTB1:
	.type	tryget_socket, @function
tryget_socket:
.LFB27:
	.loc 1 407 0
	.cfi_startproc
.LVL5:
	pushl	%ebp
	.cfi_def_cfa_offset 8
	.cfi_offset 5, -8
	.loc 1 409 0
	cmpl	$37, %eax
	.loc 1 407 0
	movl	%esp, %ebp
	.cfi_def_cfa_register 5
	.loc 1 409 0
	ja	.L9
	.loc 1 412 0
	imull	$20, %eax, %eax
.LVL6:
	.loc 1 415 0
	cmpl	$0, sockets(%eax)
	.loc 1 412 0
	leal	sockets(%eax), %edx
	.loc 1 415 0
	movl	$0, %eax
	cmovne	%edx, %eax
	jmp	.L8
.LVL7:
.L9:
	.loc 1 410 0
	xorl	%eax, %eax
.LVL8:
.L8:
	.loc 1 416 0
	popl	%ebp
	.cfi_restore 5
	.cfi_def_cfa 4, 4
	ret
	.cfi_endproc
.LFE27:
	.size	tryget_socket, .-tryget_socket
	.section	.text.unlikely.tryget_socket
.LCOLDE1:
	.section	.text.tryget_socket
.LHOTE1:
	.section	.text.unlikely.alloc_socket,"ax",@progbits
.LCOLDB2:
	.section	.text.alloc_socket,"ax",@progbits
.LHOTB2:
	.type	alloc_socket, @function
alloc_socket:
.LFB28:
	.loc 1 428 0
	.cfi_startproc
.LVL9:
	pushl	%ebp
	.cfi_def_cfa_offset 8
	.cfi_offset 5, -8
	movl	%esp, %ebp
	.cfi_def_cfa_register 5
	pushl	%edi
	pushl	%esi
	pushl	%ebx
	.cfi_offset 7, -12
	.cfi_offset 6, -16
	.cfi_offset 3, -20
	movl	%eax, %esi
	movl	%edx, %edi
	.loc 1 433 0
	xorl	%ebx, %ebx
	.loc 1 428 0
	subl	$28, %esp
.LVL10:
.L15:
	.loc 1 435 0
	call	sys_arch_protect
.LVL11:
	.loc 1 436 0
	imull	$20, %ebx, %ecx
	cmpl	$0, sockets(%ecx)
	jne	.L13
	.loc 1 440 0
	subl	$12, %esp
	.loc 1 437 0
	leal	sockets(%ecx), %edx
	movl	%esi, sockets(%ecx)
	.loc 1 440 0
	pushl	%eax
	.loc 1 437 0
	movl	%edx, -28(%ebp)
	.loc 1 440 0
	call	sys_arch_unprotect
.LVL12:
	.loc 1 446 0
	movl	(%esi), %eax
	addl	$16, %esp
	.loc 1 441 0
	movl	-28(%ebp), %edx
	.loc 1 446 0
	andl	$240, %eax
	.loc 1 441 0
	movl	$0, 4(%edx)
	.loc 1 442 0
	movw	$0, 8(%edx)
	.loc 1 446 0
	cmpl	$16, %eax
	.loc 1 443 0
	movw	$0, 10(%edx)
	.loc 1 447 0
	movw	$0, 14(%edx)
	.loc 1 446 0
	setne	%cl
	testl	%edi, %edi
	.loc 1 448 0
	movb	$0, 16(%edx)
	.loc 1 446 0
	setne	%al
	.loc 1 449 0
	movb	$0, 17(%edx)
	.loc 1 446 0
	orl	%ecx, %eax
	movzbl	%al, %eax
	movw	%ax, 12(%edx)
	.loc 1 450 0
	movl	%ebx, %eax
	jmp	.L14
.LVL13:
.L13:
	.loc 1 452 0 discriminator 2
	subl	$12, %esp
	.loc 1 433 0 discriminator 2
	incl	%ebx
.LVL14:
	.loc 1 452 0 discriminator 2
	pushl	%eax
	call	sys_arch_unprotect
.LVL15:
	.loc 1 433 0 discriminator 2
	addl	$16, %esp
	cmpl	$38, %ebx
	jne	.L15
	.loc 1 454 0
	orl	$-1, %eax
.L14:
	.loc 1 455 0
	leal	-12(%ebp), %esp
	popl	%ebx
	.cfi_restore 3
.LVL16:
	popl	%esi
	.cfi_restore 6
.LVL17:
	popl	%edi
	.cfi_restore 7
.LVL18:
	popl	%ebp
	.cfi_restore 5
	.cfi_def_cfa 4, 4
	ret
	.cfi_endproc
.LFE28:
	.size	alloc_socket, .-alloc_socket
	.section	.text.unlikely.alloc_socket
.LCOLDE2:
	.section	.text.alloc_socket
.LHOTE2:
	.section	.text.unlikely.lwip_selscan,"ax",@progbits
.LCOLDB3:
	.section	.text.lwip_selscan,"ax",@progbits
.LHOTB3:
	.type	lwip_selscan, @function
lwip_selscan:
.LFB44:
	.loc 1 1337 0
	.cfi_startproc
.LVL19:
	pushl	%ebp
	.cfi_def_cfa_offset 8
	.cfi_offset 5, -8
	movl	%esp, %ebp
	.cfi_def_cfa_register 5
	pushl	%edi
	pushl	%esi
	pushl	%ebx
	.cfi_offset 7, -12
	.cfi_offset 6, -16
	.cfi_offset 3, -20
	movl	%edx, %edi
	movl	%ecx, %esi
.LBB2:
	.loc 1 1346 0
	xorl	%ebx, %ebx
.LBE2:
	.loc 1 1337 0
	subl	$92, %esp
	.loc 1 1337 0
	movl	%eax, -80(%ebp)
	movl	8(%ebp), %eax
.LVL20:
.LBB3:
	.loc 1 1344 0
	movb	$0, -52(%ebp)
	movb	$0, -51(%ebp)
	movb	$0, -50(%ebp)
	movb	$0, -49(%ebp)
.LBE3:
	.loc 1 1337 0
	movl	%eax, -64(%ebp)
	movl	12(%ebp), %eax
.LBB4:
	.loc 1 1344 0
	movb	$0, -48(%ebp)
	movb	$0, -47(%ebp)
	movb	$0, -46(%ebp)
	movb	$0, -45(%ebp)
.LBE4:
	.loc 1 1337 0
	movl	%eax, -84(%ebp)
	movl	16(%ebp), %eax
.LBB5:
	.loc 1 1345 0
	movb	$0, -44(%ebp)
	movb	$0, -43(%ebp)
	movb	$0, -42(%ebp)
	movb	$0, -41(%ebp)
.LBE5:
	.loc 1 1337 0
	movl	%eax, -88(%ebp)
	movl	20(%ebp), %eax
.LBB6:
	.loc 1 1345 0
	movb	$0, -40(%ebp)
	movb	$0, -39(%ebp)
	movb	$0, -38(%ebp)
	movb	$0, -37(%ebp)
.LBE6:
	.loc 1 1337 0
	movl	%eax, -92(%ebp)
.LBB7:
	.loc 1 1346 0
	movb	$0, -36(%ebp)
.LBE7:
	.loc 1 1337 0
	movl	%gs:20, %eax
	movl	%eax, -28(%ebp)
	xorl	%eax, %eax
.LVL21:
.LBB8:
	.loc 1 1346 0
	movb	$0, -35(%ebp)
.LVL22:
	movb	$0, -34(%ebp)
.LVL23:
	movb	$0, -33(%ebp)
.LVL24:
	movb	$0, -32(%ebp)
.LVL25:
	movb	$0, -31(%ebp)
.LVL26:
	movb	$0, -30(%ebp)
.LVL27:
	movb	$0, -29(%ebp)
.LVL28:
	movl	$0, -60(%ebp)
.LVL29:
.L19:
.LBE8:
	.loc 1 1350 0 discriminator 1
	cmpl	-80(%ebp), %ebx
	jge	.L76
	.loc 1 1352 0
	testl	%edi, %edi
	je	.L20
	.loc 1 1352 0 discriminator 2
	movl	%ebx, %edx
	.loc 1 1352 0 discriminator 2
	movl	$1, %eax
	movl	%ebx, %ecx
	.loc 1 1352 0 discriminator 2
	shrl	$5, %edx
	.loc 1 1352 0 discriminator 2
	sall	%cl, %eax
	testl	%eax, (%edi,%edx,4)
	jne	.L21
.L20:
	.loc 1 1352 0 discriminator 3
	testl	%esi, %esi
	je	.L22
	.loc 1 1353 0
	movl	%ebx, %edx
	.loc 1 1353 0
	movl	$1, %eax
	movl	%ebx, %ecx
	.loc 1 1353 0
	shrl	$5, %edx
	.loc 1 1353 0
	sall	%cl, %eax
	testl	%eax, (%esi,%edx,4)
	jne	.L21
.L22:
	.loc 1 1353 0 discriminator 1
	cmpl	$0, -64(%ebp)
	je	.L23
	.loc 1 1354 0
	movl	%ebx, %ecx
	movl	$1, %eax
	.loc 1 1354 0
	movl	%ebx, %edx
	.loc 1 1354 0
	sall	%cl, %eax
	movl	-64(%ebp), %ecx
	.loc 1 1354 0
	shrl	$5, %edx
	.loc 1 1354 0
	testl	%eax, (%ecx,%edx,4)
	je	.L23
.L21:
	.loc 1 1358 0
	call	sys_arch_protect
.LVL30:
	movl	%eax, %ecx
.LVL31:
	.loc 1 1359 0
	movl	%ebx, %eax
.LVL32:
	call	tryget_socket
.LVL33:
	movl	%eax, -68(%ebp)
.LVL34:
	.loc 1 1360 0
	movl	%ebx, %eax
.LVL35:
	call	tryget_event
.LVL36:
	.loc 1 1361 0
	movl	-68(%ebp), %edx
	testl	%edx, %edx
	jne	.L33
	testl	%eax, %eax
	je	.L24
.L33:
.LBB9:
	.loc 1 1362 0
	testl	%edx, %edx
	je	.L26
	.loc 1 1362 0 is_stmt 0 discriminator 1
	movl	4(%edx), %eax
.LVL37:
	movl	%eax, -76(%ebp)
.LVL38:
	.loc 1 1363 0 is_stmt 1 discriminator 1
	movw	10(%edx), %ax
.LVL39:
	movw	%ax, -70(%ebp)
.LVL40:
	.loc 1 1364 0 discriminator 1
	movl	12(%edx), %eax
.LVL41:
	movw	%ax, -72(%ebp)
.LVL42:
	.loc 1 1365 0 discriminator 1
	movw	14(%edx), %ax
.LVL43:
	movw	%ax, -68(%ebp)
.LVL44:
.L31:
	.loc 1 1366 0 discriminator 4
	subl	$12, %esp
	pushl	%ecx
	call	sys_arch_unprotect
.LVL45:
	.loc 1 1368 0 discriminator 4
	addl	$16, %esp
	testl	%edi, %edi
	je	.L27
	.loc 1 1368 0 discriminator 1
	movl	%ebx, %edx
	movl	$1, %eax
	movl	%ebx, %ecx
	shrl	$5, %edx
	sall	%cl, %eax
	.loc 1 1368 0 discriminator 1
	testl	%eax, (%edi,%edx,4)
	je	.L27
.LVL46:
	.loc 1 1368 0 discriminator 2
	cmpl	$0, -76(%ebp)
	jne	.L34
	cmpw	$0, -70(%ebp)
	jle	.L27
.L34:
	.loc 1 1369 0
	orl	%eax, -52(%ebp,%edx,4)
	.loc 1 1371 0
	incl	-60(%ebp)
.LVL47:
.L27:
	.loc 1 1374 0
	testl	%esi, %esi
	je	.L29
	.loc 1 1374 0 discriminator 1
	movl	%ebx, %edx
	movl	$1, %eax
	movl	%ebx, %ecx
	shrl	$5, %edx
	sall	%cl, %eax
	.loc 1 1374 0 discriminator 1
	testl	%eax, (%esi,%edx,4)
	je	.L29
.LVL48:
	cmpw	$0, -72(%ebp)
	je	.L29
	.loc 1 1375 0
	orl	%eax, -44(%ebp,%edx,4)
	.loc 1 1377 0
	incl	-60(%ebp)
.LVL49:
.L29:
	.loc 1 1380 0
	cmpl	$0, -64(%ebp)
	je	.L23
	.loc 1 1380 0 discriminator 1
	movl	%ebx, %ecx
	movl	$1, %eax
	movl	%ebx, %edx
	sall	%cl, %eax
	.loc 1 1380 0 discriminator 1
	movl	-64(%ebp), %ecx
	.loc 1 1380 0 discriminator 1
	shrl	$5, %edx
	.loc 1 1380 0 discriminator 1
	testl	%eax, (%ecx,%edx,4)
	je	.L23
	cmpw	$0, -68(%ebp)
	je	.L23
	.loc 1 1381 0
	orl	%eax, -36(%ebp,%edx,4)
	.loc 1 1383 0
	incl	-60(%ebp)
.LVL50:
	jmp	.L23
.LVL51:
.L24:
.LBE9:
	.loc 1 1386 0
	subl	$12, %esp
	pushl	%ecx
	call	sys_arch_unprotect
.LVL52:
	addl	$16, %esp
.LVL53:
.L23:
	.loc 1 1350 0 discriminator 2
	incl	%ebx
.LVL54:
	jmp	.L19
.L76:
	.loc 1 1391 0
	movl	-84(%ebp), %esi
.LVL55:
	movl	-52(%ebp), %eax
	movl	-48(%ebp), %edx
	.loc 1 1392 0
	movl	-88(%ebp), %edi
.LVL56:
	.loc 1 1391 0
	movl	%eax, (%esi)
	.loc 1 1392 0
	movl	-44(%ebp), %eax
	.loc 1 1391 0
	movl	%edx, 4(%esi)
	.loc 1 1392 0
	movl	-40(%ebp), %edx
	.loc 1 1393 0
	movl	-92(%ebp), %esi
	.loc 1 1392 0
	movl	%eax, (%edi)
	.loc 1 1393 0
	movl	-36(%ebp), %eax
	.loc 1 1392 0
	movl	%edx, 4(%edi)
	.loc 1 1393 0
	movl	-32(%ebp), %edx
	.loc 1 1397 0
	movl	-28(%ebp), %edi
	xorl	%gs:20, %edi
	.loc 1 1393 0
	movl	%eax, (%esi)
	.loc 1 1397 0
	movl	-60(%ebp), %eax
	.loc 1 1393 0
	movl	%edx, 4(%esi)
	.loc 1 1397 0
	je	.L32
	call	__stack_chk_fail
.LVL57:
.L26:
.LBB10:
	.loc 1 1363 0
	movl	12(%eax), %edx
.LVL58:
	.loc 1 1364 0
	movl	16(%eax), %eax
.LVL59:
	.loc 1 1362 0
	movl	$0, -76(%ebp)
	.loc 1 1365 0
	movw	$0, -68(%ebp)
.LVL60:
	.loc 1 1363 0
	movw	%dx, -70(%ebp)
	.loc 1 1364 0
	movw	%ax, -72(%ebp)
	jmp	.L31
.LVL61:
.L32:
.LBE10:
	.loc 1 1397 0
	leal	-12(%ebp), %esp
	popl	%ebx
	.cfi_restore 3
.LVL62:
	popl	%esi
	.cfi_restore 6
	popl	%edi
	.cfi_restore 7
	popl	%ebp
	.cfi_restore 5
	.cfi_def_cfa 4, 4
	ret
	.cfi_endproc
.LFE44:
	.size	lwip_selscan, .-lwip_selscan
	.section	.text.unlikely.lwip_selscan
.LCOLDE3:
	.section	.text.lwip_selscan
.LHOTE3:
	.section	.text.unlikely.get_socket,"ax",@progbits
.LCOLDB4:
	.section	.text.get_socket,"ax",@progbits
.LHOTB4:
	.type	get_socket, @function
get_socket:
.LFB25:
	.loc 1 364 0
	.cfi_startproc
.LVL63:
	pushl	%ebp
	.cfi_def_cfa_offset 8
	.cfi_offset 5, -8
	movl	%esp, %ebp
	.cfi_def_cfa_register 5
	subl	$8, %esp
	.loc 1 369 0
	cmpl	$37, %eax
	ja	.L82
	.loc 1 375 0
	imull	$20, %eax, %edx
.LVL64:
	.loc 1 377 0
	cmpl	$0, sockets(%edx)
	.loc 1 383 0
	leal	sockets(%edx), %eax
.LVL65:
	.loc 1 377 0
	jne	.L79
.LVL66:
.L82:
.LBB13:
.LBB14:
	.loc 1 379 0
	call	__errno
.LVL67:
	.loc 1 379 0
	movl	$9, (%eax)
.LVL68:
	xorl	%eax, %eax
.L79:
.LBE14:
.LBE13:
	.loc 1 384 0
	leave
	.cfi_restore 5
	.cfi_def_cfa 4, 4
	ret
	.cfi_endproc
.LFE25:
	.size	get_socket, .-get_socket
	.section	.text.unlikely.get_socket
.LCOLDE4:
	.section	.text.get_socket
.LHOTE4:
	.section	.text.unlikely.lwip_getaddrname,"ax",@progbits
.LCOLDB5:
	.section	.text.lwip_getaddrname,"ax",@progbits
.LHOTB5:
	.type	lwip_getaddrname, @function
lwip_getaddrname:
.LFB49:
	.loc 1 1798 0
	.cfi_startproc
.LVL69:
	pushl	%ebp
	.cfi_def_cfa_offset 8
	.cfi_offset 5, -8
	movl	%esp, %ebp
	.cfi_def_cfa_register 5
	pushl	%edi
	pushl	%esi
	pushl	%ebx
	.cfi_offset 7, -12
	.cfi_offset 6, -16
	.cfi_offset 3, -20
	movl	%ecx, %esi
	subl	$60, %esp
	.loc 1 1798 0
	movl	%edx, -60(%ebp)
	movl	8(%ebp), %edi
	movl	%gs:20, %edx
	movl	%edx, -28(%ebp)
	xorl	%edx, %edx
.LVL70:
	.loc 1 1805 0
	call	get_socket
.LVL71:
	.loc 1 1806 0
	testl	%eax, %eax
	je	.L94
	movl	%eax, %ebx
	.loc 1 1812 0
	movl	%edi, %eax
.LVL72:
	movzbl	%al, %edi
	leal	-50(%ebp), %eax
	pushl	%edi
	pushl	%eax
	leal	-48(%ebp), %eax
	pushl	%eax
	pushl	(%ebx)
	call	netconn_getaddr
.LVL73:
	.loc 1 1813 0
	addl	$16, %esp
	testb	%al, %al
	je	.L86
.LBB15:
	.loc 1 1814 0
	subl	$12, %esp
	movsbl	%al, %eax
	pushl	%eax
	call	err_to_errno
.LVL74:
	addl	$16, %esp
	testl	%eax, %eax
	movl	%eax, %esi
.LVL75:
	movb	%al, 16(%ebx)
	je	.L94
	.loc 1 1814 0 discriminator 1
	call	__errno
.LVL76:
	.loc 1 1814 0 discriminator 1
	movl	%esi, (%eax)
.LVL77:
.L94:
.LBE15:
	.loc 1 1815 0 discriminator 1
	orl	$-1, %eax
	jmp	.L85
.LVL78:
.L86:
	.loc 1 1817 0
	movzwl	-50(%ebp), %eax
.LVL79:
	subl	$12, %esp
	movb	$16, -44(%ebp)
	movb	$2, -43(%ebp)
	pushl	%eax
	call	lwip_htons
.LVL80:
	movw	%ax, -42(%ebp)
	movl	-48(%ebp), %eax
	.loc 1 1823 0
	addl	$16, %esp
	.loc 1 1817 0
	leal	-36(%ebp), %edx
	movl	$2, %ecx
	movl	%eax, -40(%ebp)
	xorl	%eax, %eax
	.loc 1 1823 0
	cmpl	$16, (%esi)
	.loc 1 1817 0
	movl	%edx, %edi
	rep stosl
	.loc 1 1823 0
	jbe	.L88
	.loc 1 1824 0
	movl	$16, (%esi)
.L88:
	.loc 1 1826 0
	leal	-44(%ebp), %eax
	movl	(%esi), %ecx
	movl	-60(%ebp), %edi
	movl	%eax, %esi
.LVL81:
	.loc 1 1829 0
	xorl	%eax, %eax
	.loc 1 1826 0
	rep movsb
.LVL82:
.LBB16:
	.loc 1 1828 0
	movb	$0, 16(%ebx)
.LVL83:
.L85:
.LBE16:
	.loc 1 1830 0
	movl	-28(%ebp), %edx
	xorl	%gs:20, %edx
	je	.L89
	call	__stack_chk_fail
.LVL84:
.L89:
	leal	-12(%ebp), %esp
	popl	%ebx
	.cfi_restore 3
	popl	%esi
	.cfi_restore 6
	popl	%edi
	.cfi_restore 7
	popl	%ebp
	.cfi_restore 5
	.cfi_def_cfa 4, 4
	ret
	.cfi_endproc
.LFE49:
	.size	lwip_getaddrname, .-lwip_getaddrname
	.section	.text.unlikely.lwip_getaddrname
.LCOLDE5:
	.section	.text.lwip_getaddrname
.LHOTE5:
	.section	.text.unlikely.event_callback,"ax",@progbits
.LCOLDB6:
	.section	.text.event_callback,"ax",@progbits
.LHOTB6:
	.type	event_callback, @function
event_callback:
.LFB47:
	.loc 1 1636 0
	.cfi_startproc
.LVL85:
	pushl	%ebp
	.cfi_def_cfa_offset 8
	.cfi_offset 5, -8
	movl	%esp, %ebp
	.cfi_def_cfa_register 5
	pushl	%edi
	pushl	%esi
	pushl	%ebx
	subl	$28, %esp
	.cfi_offset 7, -12
	.cfi_offset 6, -16
	.cfi_offset 3, -20
	.loc 1 1636 0
	movl	8(%ebp), %ebx
	movl	12(%ebp), %edi
	.loc 1 1646 0
	testl	%ebx, %ebx
	je	.L95
	.loc 1 1647 0
	movl	28(%ebx), %esi
.LVL86:
	.loc 1 1648 0
	testl	%esi, %esi
	jns	.L98
	.loc 1 1654 0
	call	sys_arch_protect
.LVL87:
	.loc 1 1655 0
	movl	28(%ebx), %esi
.LVL88:
	testl	%esi, %esi
	jns	.L99
	.loc 1 1656 0
	testl	%edi, %edi
	jne	.L136
	.loc 1 1657 0
	decl	%esi
	movl	%esi, 28(%ebx)
	jmp	.L136
.L99:
.LVL89:
	.loc 1 1663 0
	subl	$12, %esp
	pushl	%eax
	call	sys_arch_unprotect
.LVL90:
	addl	$16, %esp
.L98:
	.loc 1 1666 0
	movl	%esi, %eax
	call	get_socket
.LVL91:
	.loc 1 1667 0
	testl	%eax, %eax
	.loc 1 1666 0
	movl	%eax, %ebx
.LVL92:
	.loc 1 1667 0
	je	.L95
	.loc 1 1674 0
	call	sys_arch_protect
.LVL93:
	.loc 1 1676 0
	cmpl	$4, %edi
	ja	.L102
	jmp	*.L104(,%edi,4)
	.section	.rodata.event_callback,"a",@progbits
	.align 4
	.align 4
.L104:
	.long	.L103
	.long	.L105
	.long	.L106
	.long	.L107
	.long	.L108
	.section	.text.event_callback
.L103:
	.loc 1 1678 0
	incw	10(%ebx)
	.loc 1 1679 0
	jmp	.L102
.L105:
	.loc 1 1681 0
	decw	10(%ebx)
	.loc 1 1682 0
	jmp	.L102
.L106:
	.loc 1 1684 0
	movw	$1, 12(%ebx)
	.loc 1 1685 0
	jmp	.L102
.L107:
	.loc 1 1687 0
	movw	$0, 12(%ebx)
	.loc 1 1688 0
	jmp	.L102
.L108:
	.loc 1 1690 0
	movw	$1, 14(%ebx)
.L102:
	.loc 1 1697 0
	cmpb	$0, 17(%ebx)
	je	.L136
.LBB17:
	.loc 1 1718 0
	movl	%esi, %ecx
	movl	$1, %edi
	shrl	$5, %ecx
	movl	%ecx, -28(%ebp)
	movl	%esi, %ecx
	sall	%cl, %edi
.LVL94:
.L116:
.LBE17:
	.loc 1 1710 0
	movl	select_cb_list, %esi
.LVL95:
.L110:
	.loc 1 1710 0 is_stmt 0 discriminator 1
	testl	%esi, %esi
	je	.L136
	.loc 1 1713 0 is_stmt 1
	cmpl	$0, 20(%esi)
	.loc 1 1712 0
	movl	select_cb_ctr, %ecx
	movl	%ecx, -32(%ebp)
.LVL96:
	.loc 1 1713 0
	jne	.L111
.LVL97:
.LBB18:
	.loc 1 1715 0
	xorl	%edx, %edx
	.loc 1 1717 0
	cmpw	$0, 10(%ebx)
	jle	.L112
	.loc 1 1718 0
	movl	8(%esi), %ecx
.LVL98:
	testl	%ecx, %ecx
	je	.L112
	.loc 1 1715 0 discriminator 1
	movl	-28(%ebp), %edx
	testl	%edi, (%ecx,%edx,4)
	setne	%dl
	movzbl	%dl, %edx
.L112:
.LVL99:
	.loc 1 1722 0
	cmpw	$0, 12(%ebx)
	je	.L113
	.loc 1 1723 0
	testl	%edx, %edx
	jne	.L120
	.loc 1 1723 0 is_stmt 0 discriminator 1
	movl	12(%esi), %ecx
	testl	%ecx, %ecx
	je	.L113
	movl	-28(%ebp), %edx
.LVL100:
	testl	%edi, (%ecx,%edx,4)
	setne	%dl
	movzbl	%dl, %edx
	jmp	.L113
.LVL101:
.L120:
	movl	$1, %edx
.LVL102:
.L113:
	.loc 1 1727 0 is_stmt 1
	cmpw	$0, 14(%ebx)
	je	.L114
	.loc 1 1728 0
	testl	%edx, %edx
	jne	.L115
	.loc 1 1728 0 is_stmt 0 discriminator 1
	movl	16(%esi), %edx
.LVL103:
	testl	%edx, %edx
	je	.L111
	.loc 1 1728 0 discriminator 2
	movl	-28(%ebp), %ecx
	testl	%edi, (%edx,%ecx,4)
	jmp	.L135
.LVL104:
.L114:
	.loc 1 1732 0 is_stmt 1
	testl	%edx, %edx
.LVL105:
.L135:
	je	.L111
.L115:
	.loc 1 1736 0
	leal	24(%esi), %edx
	subl	$12, %esp
	.loc 1 1733 0
	movl	$1, 20(%esi)
	movl	%eax, -36(%ebp)
	.loc 1 1736 0
	pushl	%edx
	call	sys_sem_signal
.LVL106:
	movl	-36(%ebp), %eax
	addl	$16, %esp
.LVL107:
.L111:
.LBE18:
	.loc 1 1740 0
	subl	$12, %esp
	pushl	%eax
	call	sys_arch_unprotect
.LVL108:
	.loc 1 1742 0
	call	sys_arch_protect
.LVL109:
	.loc 1 1743 0
	movl	select_cb_ctr, %edx
	addl	$16, %esp
	cmpl	%edx, -32(%ebp)
	jne	.L116
	.loc 1 1710 0 discriminator 2
	movl	(%esi), %esi
.LVL110:
	jmp	.L110
.LVL111:
.L136:
	.loc 1 1748 0
	movl	%eax, 8(%ebp)
	.loc 1 1749 0
	leal	-12(%ebp), %esp
	popl	%ebx
	.cfi_remember_state
	.cfi_restore 3
	popl	%esi
	.cfi_restore 6
	popl	%edi
	.cfi_restore 7
	popl	%ebp
	.cfi_restore 5
	.cfi_def_cfa 4, 4
	.loc 1 1748 0
	jmp	sys_arch_unprotect
.LVL112:
.L95:
	.cfi_restore_state
	.loc 1 1749 0
	leal	-12(%ebp), %esp
	popl	%ebx
	.cfi_restore 3
	popl	%esi
	.cfi_restore 6
	popl	%edi
	.cfi_restore 7
	popl	%ebp
	.cfi_restore 5
	.cfi_def_cfa 4, 4
	ret
	.cfi_endproc
.LFE47:
	.size	event_callback, .-event_callback
	.section	.text.unlikely.event_callback
.LCOLDE6:
	.section	.text.event_callback
.LHOTE6:
	.section	.text.unlikely.lwip_socket_thread_init,"ax",@progbits
.LCOLDB7:
	.section	.text.lwip_socket_thread_init,"ax",@progbits
.LHOTB7:
	.globl	lwip_socket_thread_init
	.type	lwip_socket_thread_init, @function
lwip_socket_thread_init:
.LFB63:
	.cfi_startproc
	pushl	%ebp
	.cfi_def_cfa_offset 8
	.cfi_offset 5, -8
	movl	%esp, %ebp
	.cfi_def_cfa_register 5
	popl	%ebp
	.cfi_restore 5
	.cfi_def_cfa 4, 4
	ret
	.cfi_endproc
.LFE63:
	.size	lwip_socket_thread_init, .-lwip_socket_thread_init
	.section	.text.unlikely.lwip_socket_thread_init
.LCOLDE7:
	.section	.text.lwip_socket_thread_init
.LHOTE7:
	.section	.text.unlikely.lwip_socket_thread_cleanup,"ax",@progbits
.LCOLDB8:
	.section	.text.lwip_socket_thread_cleanup,"ax",@progbits
.LHOTB8:
	.globl	lwip_socket_thread_cleanup
	.type	lwip_socket_thread_cleanup, @function
lwip_socket_thread_cleanup:
.LFB24:
	.loc 1 352 0
	.cfi_startproc
	.loc 1 352 0
	pushl	%ebp
	.cfi_def_cfa_offset 8
	.cfi_offset 5, -8
	movl	%esp, %ebp
	.cfi_def_cfa_register 5
	.loc 1 354 0
	popl	%ebp
	.cfi_restore 5
	.cfi_def_cfa 4, 4
	ret
	.cfi_endproc
.LFE24:
	.size	lwip_socket_thread_cleanup, .-lwip_socket_thread_cleanup
	.section	.text.unlikely.lwip_socket_thread_cleanup
.LCOLDE8:
	.section	.text.lwip_socket_thread_cleanup
.LHOTE8:
	.section	.text.unlikely.lwip_accept,"ax",@progbits
.LCOLDB9:
	.section	.text.lwip_accept,"ax",@progbits
.LHOTB9:
	.globl	lwip_accept
	.type	lwip_accept, @function
lwip_accept:
.LFB30:
	.loc 1 494 0
	.cfi_startproc
.LVL113:
	pushl	%ebp
	.cfi_def_cfa_offset 8
	.cfi_offset 5, -8
	movl	%esp, %ebp
	.cfi_def_cfa_register 5
	pushl	%edi
	pushl	%esi
	pushl	%ebx
	subl	$60, %esp
	.cfi_offset 7, -12
	.cfi_offset 6, -16
	.cfi_offset 3, -20
	.loc 1 494 0
	movl	12(%ebp), %eax
	movl	16(%ebp), %esi
	.loc 1 498 0
	movw	$0, -54(%ebp)
	.loc 1 494 0
	movl	%eax, -68(%ebp)
	movl	%gs:20, %eax
	movl	%eax, -28(%ebp)
	xorl	%eax, %eax
	.loc 1 504 0
	movl	8(%ebp), %eax
	call	get_socket
.LVL114:
	.loc 1 505 0
	testl	%eax, %eax
	je	.L173
	movl	%eax, %ebx
	.loc 1 509 0
	movl	(%eax), %eax
.LVL115:
	testb	$2, 40(%eax)
	je	.L144
	.loc 1 509 0 is_stmt 0 discriminator 1
	cmpw	$0, 10(%ebx)
	jg	.L144
.LVL116:
.LBB30:
	.loc 1 511 0 is_stmt 1
	movb	$11, 16(%ebx)
	.loc 1 511 0
	call	__errno
.LVL117:
	.loc 1 511 0
	movl	$11, (%eax)
	jmp	.L173
.LVL118:
.L144:
.LBE30:
	.loc 1 516 0
	pushl	%edx
	pushl	%edx
	leal	-52(%ebp), %edx
	pushl	%edx
	pushl	%eax
	call	netconn_accept
.LVL119:
	.loc 1 517 0
	addl	$16, %esp
	testb	%al, %al
	je	.L145
	.loc 1 519 0
	movl	(%ebx), %edx
	movl	(%edx), %edx
	andl	$240, %edx
	cmpl	$16, %edx
	je	.L146
.LVL120:
.LBB31:
	.loc 1 520 0
	movb	$95, 16(%ebx)
	.loc 1 520 0
	call	__errno
.LVL121:
	.loc 1 520 0
	movl	$95, (%eax)
.LVL122:
.L173:
.LBE31:
	.loc 1 526 0
	orl	$-1, %eax
	jmp	.L143
.LVL123:
.L146:
	.loc 1 521 0
	cmpb	$-15, %al
	jne	.L147
.LVL124:
.LBB32:
	.loc 1 522 0
	movb	$22, 16(%ebx)
	.loc 1 522 0
	call	__errno
.LVL125:
	.loc 1 522 0
	movl	$22, (%eax)
	jmp	.L173
.LVL126:
.L147:
.LBE32:
.LBB33:
	.loc 1 524 0
	subl	$12, %esp
	movsbl	%al, %eax
	pushl	%eax
.LVL127:
.L176:
	call	err_to_errno
.LVL128:
	addl	$16, %esp
	testl	%eax, %eax
	movl	%eax, %esi
.LVL129:
	movb	%al, 16(%ebx)
	je	.L173
	.loc 1 524 0 discriminator 1
	call	__errno
.LVL130:
	.loc 1 524 0 discriminator 1
	movl	%esi, (%eax)
	jmp	.L173
.LVL131:
.L145:
.LBE33:
	.loc 1 530 0
	movl	-52(%ebp), %eax
.LVL132:
	movl	$1, %edx
	call	alloc_socket
.LVL133:
	movl	%eax, -60(%ebp)
.LVL134:
	.loc 1 531 0
	incl	%eax
.LVL135:
	jne	.L149
	.loc 1 532 0
	subl	$12, %esp
	pushl	-52(%ebp)
	call	netconn_delete
.LVL136:
.LBB34:
	.loc 1 533 0
	movb	$23, 16(%ebx)
	.loc 1 533 0
	call	__errno
.LVL137:
.LBE34:
	.loc 1 534 0
	addl	$16, %esp
.LBB35:
	.loc 1 533 0
	movl	$23, (%eax)
	jmp	.L173
.LVL138:
.L149:
.LBE35:
	.loc 1 545 0
	call	sys_arch_protect
.LVL139:
	.loc 1 546 0
	imull	$20, -60(%ebp), %ecx
	movl	-52(%ebp), %edx
	.loc 1 548 0
	subl	$12, %esp
	.loc 1 546 0
	movl	%ecx, -72(%ebp)
	leal	sockets(%ecx), %edi
	movw	sockets+10(%ecx), %cx
	decl	%ecx
	subl	28(%edx), %ecx
	movw	%cx, 10(%edi)
	.loc 1 547 0
	movl	-60(%ebp), %ecx
	movl	%ecx, 28(%edx)
	.loc 1 548 0
	pushl	%eax
	call	sys_arch_unprotect
.LVL140:
	.loc 1 553 0
	addl	$16, %esp
	cmpl	$0, -68(%ebp)
	je	.L150
.LBB36:
	.loc 1 556 0
	leal	-54(%ebp), %eax
	pushl	$0
	pushl	%eax
	leal	-48(%ebp), %eax
	pushl	%eax
	pushl	-52(%ebp)
	call	netconn_getaddr
.LVL141:
	.loc 1 557 0
	addl	$16, %esp
	testb	%al, %al
	.loc 1 556 0
	movb	%al, -61(%ebp)
.LVL142:
	.loc 1 557 0
	je	.L151
	.loc 1 559 0
	subl	$12, %esp
	pushl	-52(%ebp)
	call	netconn_delete
.LVL143:
.LBB37:
.LBB38:
	.loc 1 468 0
	movl	4(%edi), %esi
.LVL144:
	.loc 1 470 0
	movw	$0, 8(%edi)
	.loc 1 469 0
	movl	$0, 4(%edi)
	.loc 1 471 0
	movb	$0, 16(%edi)
.LBB39:
	.loc 1 474 0
	call	sys_arch_protect
.LVL145:
	movl	-72(%ebp), %edi
	.loc 1 474 0
	movl	%eax, (%esp)
	.loc 1 474 0
	movl	$0, sockets(%edi)
	.loc 1 474 0
	call	sys_arch_unprotect
.LVL146:
.LBE39:
	.loc 1 477 0
	addl	$16, %esp
	testl	%esi, %esi
	je	.L152
	.loc 1 479 0
	subl	$12, %esp
	pushl	%esi
	call	pbuf_free
.LVL147:
	addl	$16, %esp
.L152:
.LVL148:
.LBE38:
.LBE37:
.LBB40:
	.loc 1 561 0
	movsbl	-61(%ebp), %edi
	subl	$12, %esp
	pushl	%edi
	jmp	.L176
.LVL149:
.L151:
.LBE40:
	.loc 1 566 0
	movzwl	-54(%ebp), %eax
.LVL150:
	subl	$12, %esp
	movb	$16, -44(%ebp)
	movb	$2, -43(%ebp)
	pushl	%eax
	call	lwip_htons
.LVL151:
	movw	%ax, -42(%ebp)
	movl	-48(%ebp), %eax
	.loc 1 567 0
	addl	$16, %esp
	.loc 1 566 0
	leal	-36(%ebp), %edx
	movl	$2, %ecx
	movl	%eax, -40(%ebp)
	xorl	%eax, %eax
	.loc 1 567 0
	cmpl	$16, (%esi)
	.loc 1 566 0
	movl	%edx, %edi
	rep stosl
	.loc 1 567 0
	jbe	.L154
	.loc 1 568 0
	movl	$16, (%esi)
.L154:
	.loc 1 570 0
	leal	-44(%ebp), %eax
	movl	(%esi), %ecx
	movl	-68(%ebp), %edi
	movl	%eax, %esi
	rep movsb
.LVL152:
.L150:
.LBE36:
	.loc 1 580 0
	movl	-60(%ebp), %eax
.LBB41:
	.loc 1 579 0
	movb	$0, 16(%ebx)
.LVL153:
.L143:
.LBE41:
	.loc 1 581 0
	movl	-28(%ebp), %ebx
	xorl	%gs:20, %ebx
	je	.L155
	call	__stack_chk_fail
.LVL154:
.L155:
	leal	-12(%ebp), %esp
	popl	%ebx
	.cfi_restore 3
	popl	%esi
	.cfi_restore 6
	popl	%edi
	.cfi_restore 7
	popl	%ebp
	.cfi_restore 5
	.cfi_def_cfa 4, 4
	ret
	.cfi_endproc
.LFE30:
	.size	lwip_accept, .-lwip_accept
	.section	.text.unlikely.lwip_accept
.LCOLDE9:
	.section	.text.lwip_accept
.LHOTE9:
	.section	.rodata.str1.1,"aMS",@progbits,1
.LC10:
	.string	"lwip_bind: invalid address"
	.section	.text.unlikely.lwip_bind,"ax",@progbits
.LCOLDB11:
	.section	.text.lwip_bind,"ax",@progbits
.LHOTB11:
	.globl	lwip_bind
	.type	lwip_bind, @function
lwip_bind:
.LFB31:
	.loc 1 585 0
	.cfi_startproc
.LVL155:
	pushl	%ebp
	.cfi_def_cfa_offset 8
	.cfi_offset 5, -8
	movl	%esp, %ebp
	.cfi_def_cfa_register 5
	pushl	%esi
	pushl	%ebx
	subl	$16, %esp
	.cfi_offset 6, -12
	.cfi_offset 3, -16
	.loc 1 585 0
	movl	12(%ebp), %esi
	movl	%gs:20, %eax
	movl	%eax, -12(%ebp)
	xorl	%eax, %eax
	.loc 1 591 0
	movl	8(%ebp), %eax
	call	get_socket
.LVL156:
	.loc 1 592 0
	testl	%eax, %eax
	je	.L193
	.loc 1 603 0
	cmpl	$16, 16(%ebp)
	movl	%eax, %ebx
	jne	.L180
	.loc 1 603 0 is_stmt 0 discriminator 2
	cmpb	$2, 1(%esi)
	jne	.L180
	.loc 1 603 0 discriminator 4
	testl	$3, %esi
	je	.L181
.L180:
	.loc 1 603 0 discriminator 5
	subl	$12, %esp
	pushl	$.LC10
	call	bk_printf
.LVL157:
.LBB42:
	movl	$-16, (%esp)
	jmp	.L195
.LVL158:
.L181:
.LBE42:
	.loc 1 608 0 is_stmt 1
	movl	4(%esi), %eax
.LVL159:
	subl	$12, %esp
	movl	%eax, -16(%ebp)
	movzwl	2(%esi), %eax
	pushl	%eax
	call	lwip_htons
.LVL160:
	.loc 1 613 0
	addl	$12, %esp
	movzwl	%ax, %eax
	pushl	%eax
	leal	-16(%ebp), %eax
.LVL161:
	pushl	%eax
.LVL162:
	pushl	(%ebx)
.LVL163:
	call	netconn_bind
.LVL164:
	.loc 1 615 0
	addl	$16, %esp
	testb	%al, %al
	je	.L183
.LBB43:
	.loc 1 617 0
	subl	$12, %esp
	movsbl	%al, %eax
	pushl	%eax
.LVL165:
.L195:
	call	err_to_errno
.LVL166:
	addl	$16, %esp
	testl	%eax, %eax
	movl	%eax, %esi
.LVL167:
	movb	%al, 16(%ebx)
	je	.L193
	.loc 1 617 0 discriminator 1
	call	__errno
.LVL168:
	.loc 1 617 0 discriminator 1
	movl	%esi, (%eax)
.LVL169:
.L193:
.LBE43:
	.loc 1 618 0 discriminator 1
	orl	$-1, %eax
	jmp	.L179
.LVL170:
.L183:
.LBB44:
	.loc 1 622 0
	movb	$0, 16(%ebx)
.LBE44:
	.loc 1 623 0
	xorl	%eax, %eax
.LVL171:
.L179:
	.loc 1 624 0
	movl	-12(%ebp), %edx
	xorl	%gs:20, %edx
	je	.L184
	call	__stack_chk_fail
.LVL172:
.L184:
	leal	-8(%ebp), %esp
	popl	%ebx
	.cfi_restore 3
	popl	%esi
	.cfi_restore 6
	popl	%ebp
	.cfi_restore 5
	.cfi_def_cfa 4, 4
	ret
	.cfi_endproc
.LFE31:
	.size	lwip_bind, .-lwip_bind
	.section	.text.unlikely.lwip_bind
.LCOLDE11:
	.section	.text.lwip_bind
.LHOTE11:
	.section	.text.unlikely.lwip_close,"ax",@progbits
.LCOLDB12:
	.section	.text.lwip_close,"ax",@progbits
.LHOTB12:
	.globl	lwip_close
	.type	lwip_close, @function
lwip_close:
.LFB32:
	.loc 1 628 0
	.cfi_startproc
.LVL173:
	pushl	%ebp
	.cfi_def_cfa_offset 8
	.cfi_offset 5, -8
	movl	%esp, %ebp
	.cfi_def_cfa_register 5
	pushl	%edi
	pushl	%esi
	pushl	%ebx
	subl	$44, %esp
	.cfi_offset 7, -12
	.cfi_offset 6, -16
	.cfi_offset 3, -20
	.loc 1 628 0
	movl	8(%ebp), %esi
	movl	%gs:20, %eax
	movl	%eax, -28(%ebp)
	xorl	%eax, %eax
.LVL174:
	.loc 1 636 0
	movl	%esi, %eax
	call	tryget_event
.LVL175:
	.loc 1 637 0
	testl	%eax, %eax
	je	.L197
	.loc 1 638 0
	movl	$0, 8(%eax)
	jmp	.L219
.L197:
	.loc 1 642 0
	movl	%esi, %eax
.LVL176:
	call	get_socket
.LVL177:
	.loc 1 643 0
	testl	%eax, %eax
	.loc 1 642 0
	movl	%eax, %ebx
.LVL178:
	.loc 1 643 0
	je	.L221
	.loc 1 647 0
	movl	(%eax), %eax
.LVL179:
	.loc 1 631 0
	xorl	%edi, %edi
	.loc 1 647 0
	testl	%eax, %eax
	je	.L200
	.loc 1 648 0
	movl	(%eax), %eax
	andl	$240, %eax
	cmpl	$16, %eax
	sete	%al
	movzbl	%al, %eax
	movl	%eax, %edi
.LVL180:
.L200:
.LBB52:
.LBB53:
	.loc 1 2855 0
	movl	%esi, %eax
	call	get_socket
.LVL181:
.LBB54:
	.loc 1 2871 0
	imull	$20, %esi, %esi
.LVL182:
.LBE54:
	.loc 1 2858 0
	testl	%eax, %eax
	.loc 1 2855 0
	movl	%eax, %ecx
.LVL183:
	movl	$socket_ipv4_multicast_memberships, %edx
	.loc 1 2858 0
	jne	.L214
.LVL184:
.L206:
.LBE53:
.LBE52:
	.loc 1 658 0
	subl	$12, %esp
	pushl	(%ebx)
	call	netconn_delete
.LVL185:
	.loc 1 659 0
	addl	$16, %esp
	testb	%al, %al
	jne	.L202
	jmp	.L222
.LVL186:
.L204:
	addl	$12, %edx
.LBB57:
.LBB56:
	.loc 1 2862 0
	cmpl	$socket_ipv4_multicast_memberships+456, %edx
	je	.L206
.L214:
	.loc 1 2863 0
	cmpl	(%edx), %ecx
	jne	.L204
.LBB55:
	.loc 1 2865 0
	movl	8(%edx), %eax
	.loc 1 2867 0
	movl	$0, (%edx)
	.loc 1 2869 0
	movl	$0, 8(%edx)
	movl	%ecx, -48(%ebp)
	movl	%edx, -44(%ebp)
	.loc 1 2865 0
	movl	%eax, -36(%ebp)
	.loc 1 2866 0
	movl	4(%edx), %eax
	.loc 1 2868 0
	movl	$0, 4(%edx)
	.loc 1 2871 0
	pushl	$1
	.loc 1 2866 0
	movl	%eax, -32(%ebp)
	.loc 1 2871 0
	leal	-32(%ebp), %eax
	pushl	%eax
	leal	-36(%ebp), %eax
	pushl	%eax
	pushl	sockets(%esi)
	call	netconn_join_leave_group
.LVL187:
	addl	$16, %esp
	movl	-48(%ebp), %ecx
	movl	-44(%ebp), %edx
	jmp	.L204
.LVL188:
.L202:
.LBE55:
.LBE56:
.LBE57:
.LBB58:
	.loc 1 660 0
	subl	$12, %esp
	movsbl	%al, %eax
	pushl	%eax
	call	err_to_errno
.LVL189:
	addl	$16, %esp
	testl	%eax, %eax
	movl	%eax, %esi
.LVL190:
	movb	%al, 16(%ebx)
	je	.L221
	.loc 1 660 0 discriminator 1
	call	__errno
.LVL191:
	.loc 1 660 0 discriminator 1
	movl	%esi, (%eax)
.LVL192:
.L221:
.LBE58:
	.loc 1 661 0 discriminator 1
	orl	$-1, %eax
	jmp	.L198
.LVL193:
.L222:
.LBB59:
.LBB60:
	.loc 1 468 0
	movl	4(%ebx), %esi
.LVL194:
	.loc 1 470 0
	movw	$0, 8(%ebx)
	.loc 1 469 0
	movl	$0, 4(%ebx)
	.loc 1 471 0
	movb	$0, 16(%ebx)
.LBB61:
	.loc 1 474 0
	call	sys_arch_protect
.LVL195:
	.loc 1 474 0
	subl	$12, %esp
	.loc 1 474 0
	movl	$0, (%ebx)
	.loc 1 474 0
	pushl	%eax
	call	sys_arch_unprotect
.LVL196:
.LBE61:
	.loc 1 477 0
	addl	$16, %esp
.LBE60:
.LBE59:
	.loc 1 666 0
	xorl	%eax, %eax
.LBB63:
.LBB62:
	.loc 1 477 0
	testl	%esi, %esi
	je	.L198
	.loc 1 478 0
	testl	%edi, %edi
	je	.L208
	.loc 1 479 0
	subl	$12, %esp
	pushl	%esi
	call	pbuf_free
.LVL197:
	jmp	.L220
.L208:
	.loc 1 481 0
	subl	$12, %esp
	pushl	%esi
	call	netbuf_delete
.LVL198:
.L220:
	addl	$16, %esp
.LVL199:
.L219:
.LBE62:
.LBE63:
	.loc 1 666 0
	xorl	%eax, %eax
.L198:
	.loc 1 667 0
	movl	-28(%ebp), %edi
	xorl	%gs:20, %edi
	je	.L209
	call	__stack_chk_fail
.LVL200:
.L209:
	leal	-12(%ebp), %esp
	popl	%ebx
	.cfi_restore 3
	popl	%esi
	.cfi_restore 6
	popl	%edi
	.cfi_restore 7
	popl	%ebp
	.cfi_restore 5
	.cfi_def_cfa 4, 4
	ret
	.cfi_endproc
.LFE32:
	.size	lwip_close, .-lwip_close
	.section	.text.unlikely.lwip_close
.LCOLDE12:
	.section	.text.lwip_close
.LHOTE12:
	.section	.rodata.str1.1
.LC13:
	.string	"lwip_connect: invalid address"
	.section	.text.unlikely.lwip_connect,"ax",@progbits
.LCOLDB14:
	.section	.text.lwip_connect,"ax",@progbits
.LHOTB14:
	.globl	lwip_connect
	.type	lwip_connect, @function
lwip_connect:
.LFB33:
	.loc 1 671 0
	.cfi_startproc
.LVL201:
	pushl	%ebp
	.cfi_def_cfa_offset 8
	.cfi_offset 5, -8
	movl	%esp, %ebp
	.cfi_def_cfa_register 5
	pushl	%esi
	pushl	%ebx
	subl	$16, %esp
	.cfi_offset 6, -12
	.cfi_offset 3, -16
	.loc 1 671 0
	movl	12(%ebp), %esi
	movl	%gs:20, %eax
	movl	%eax, -12(%ebp)
	xorl	%eax, %eax
	.loc 1 675 0
	movl	8(%ebp), %eax
	call	get_socket
.LVL202:
	.loc 1 676 0
	testl	%eax, %eax
	je	.L230
	movl	%eax, %ebx
	.loc 1 687 0
	movb	1(%esi), %al
.LVL203:
	testb	%al, %al
	jne	.L226
	.loc 1 689 0
	subl	$12, %esp
	pushl	(%ebx)
	call	netconn_disconnect
.LVL204:
	jmp	.L241
.LVL205:
.L226:
.LBB64:
	.loc 1 695 0
	cmpl	$16, 16(%ebp)
	jne	.L228
	.loc 1 695 0 is_stmt 0 discriminator 2
	cmpb	$2, %al
	jne	.L228
	.loc 1 695 0 discriminator 4
	testl	$3, %esi
	je	.L229
.L228:
	.loc 1 695 0 discriminator 5
	subl	$12, %esp
	pushl	$.LC13
	call	bk_printf
.LVL206:
.LBB65:
	movl	$-16, (%esp)
.L244:
	call	err_to_errno
.LVL207:
	addl	$16, %esp
	testl	%eax, %eax
	movl	%eax, %esi
.LVL208:
	movb	%al, 16(%ebx)
	je	.L230
	.loc 1 695 0 is_stmt 1 discriminator 6
	call	__errno
.LVL209:
	.loc 1 695 0 discriminator 6
	movl	%esi, (%eax)
.LVL210:
.L230:
.LBE65:
	.loc 1 695 0 is_stmt 0 discriminator 8
	orl	$-1, %eax
	jmp	.L225
.LVL211:
.L229:
	.loc 1 699 0 is_stmt 1
	movl	4(%esi), %eax
	subl	$12, %esp
	movl	%eax, -16(%ebp)
	movzwl	2(%esi), %eax
	pushl	%eax
	call	lwip_htons
.LVL212:
	.loc 1 704 0
	addl	$12, %esp
	movzwl	%ax, %eax
	pushl	%eax
	leal	-16(%ebp), %eax
.LVL213:
	pushl	%eax
.LVL214:
	pushl	(%ebx)
.LVL215:
	call	netconn_connect
.LVL216:
.L241:
	addl	$16, %esp
.LBE64:
	.loc 1 707 0
	testb	%al, %al
	je	.L231
.LBB66:
	.loc 1 709 0
	subl	$12, %esp
	movsbl	%al, %eax
	pushl	%eax
	jmp	.L244
.L231:
.LVL217:
.LBE66:
.LBB67:
	.loc 1 714 0
	movb	$0, 16(%ebx)
.LBE67:
	.loc 1 715 0
	xorl	%eax, %eax
.LVL218:
.L225:
	.loc 1 716 0
	movl	-12(%ebp), %edx
	xorl	%gs:20, %edx
	je	.L233
	call	__stack_chk_fail
.LVL219:
.L233:
	leal	-8(%ebp), %esp
	popl	%ebx
	.cfi_restore 3
	popl	%esi
	.cfi_restore 6
	popl	%ebp
	.cfi_restore 5
	.cfi_def_cfa 4, 4
	ret
	.cfi_endproc
.LFE33:
	.size	lwip_connect, .-lwip_connect
	.section	.text.unlikely.lwip_connect
.LCOLDE14:
	.section	.text.lwip_connect
.LHOTE14:
	.section	.text.unlikely.lwip_listen,"ax",@progbits
.LCOLDB15:
	.section	.text.lwip_listen,"ax",@progbits
.LHOTB15:
	.globl	lwip_listen
	.type	lwip_listen, @function
lwip_listen:
.LFB34:
	.loc 1 728 0
	.cfi_startproc
.LVL220:
	pushl	%ebp
	.cfi_def_cfa_offset 8
	.cfi_offset 5, -8
	movl	%esp, %ebp
	.cfi_def_cfa_register 5
	pushl	%esi
	pushl	%ebx
	.cfi_offset 6, -12
	.cfi_offset 3, -16
	.loc 1 734 0
	movl	8(%ebp), %eax
	.loc 1 728 0
	movl	12(%ebp), %esi
	.loc 1 734 0
	call	get_socket
.LVL221:
	.loc 1 735 0
	testl	%eax, %eax
	je	.L257
	.loc 1 740 0
	cmpl	$254, %esi
	movl	%eax, %ebx
	movl	$255, %eax
.LVL222:
	jg	.L248
	.loc 1 740 0 is_stmt 0 discriminator 1
	testl	%esi, %esi
	movl	$0, %eax
	cmovns	%esi, %eax
.L248:
.LVL223:
	.loc 1 742 0 is_stmt 1 discriminator 4
	pushl	%edx
	pushl	%edx
	pushl	%eax
	pushl	(%ebx)
	call	netconn_listen_with_backlog
.LVL224:
	.loc 1 744 0 discriminator 4
	addl	$16, %esp
	testb	%al, %al
	je	.L249
	.loc 1 746 0
	movl	(%ebx), %edx
	movl	(%edx), %edx
	andl	$240, %edx
	cmpl	$16, %edx
	je	.L250
.LVL225:
.LBB68:
	.loc 1 747 0
	movb	$95, 16(%ebx)
	.loc 1 747 0
	call	__errno
.LVL226:
	.loc 1 747 0
	movl	$95, (%eax)
.LVL227:
.L257:
.LBE68:
	.loc 1 748 0
	orl	$-1, %eax
	jmp	.L247
.LVL228:
.L250:
.LBB69:
	.loc 1 750 0
	subl	$12, %esp
	movsbl	%al, %eax
	pushl	%eax
	call	err_to_errno
.LVL229:
	addl	$16, %esp
	testl	%eax, %eax
	movl	%eax, %esi
.LVL230:
	movb	%al, 16(%ebx)
	je	.L257
	.loc 1 750 0 discriminator 1
	call	__errno
.LVL231:
	.loc 1 750 0 discriminator 1
	movl	%esi, (%eax)
	jmp	.L257
.LVL232:
.L249:
.LBE69:
.LBB70:
	.loc 1 754 0
	movb	$0, 16(%ebx)
.LBE70:
	.loc 1 755 0
	xorl	%eax, %eax
.LVL233:
.L247:
	.loc 1 756 0
	leal	-8(%ebp), %esp
	popl	%ebx
	.cfi_restore 3
	popl	%esi
	.cfi_restore 6
	popl	%ebp
	.cfi_restore 5
	.cfi_def_cfa 4, 4
	ret
	.cfi_endproc
.LFE34:
	.size	lwip_listen, .-lwip_listen
	.section	.text.unlikely.lwip_listen
.LCOLDE15:
	.section	.text.lwip_listen
.LHOTE15:
	.section	.text.unlikely.lwip_recvfrom,"ax",@progbits
.LCOLDB16:
	.section	.text.lwip_recvfrom,"ax",@progbits
.LHOTB16:
	.globl	lwip_recvfrom
	.type	lwip_recvfrom, @function
lwip_recvfrom:
.LFB35:
	.loc 1 761 0
	.cfi_startproc
.LVL234:
	pushl	%ebp
	.cfi_def_cfa_offset 8
	.cfi_offset 5, -8
	movl	%esp, %ebp
	.cfi_def_cfa_register 5
	pushl	%edi
	pushl	%esi
	pushl	%ebx
	subl	$76, %esp
	.cfi_offset 7, -12
	.cfi_offset 6, -16
	.cfi_offset 3, -20
	.loc 1 761 0
	movl	12(%ebp), %eax
	.loc 1 763 0
	movl	$0, -52(%ebp)
.LVL235:
	.loc 1 761 0
	movl	%eax, -80(%ebp)
	movl	24(%ebp), %eax
	movl	%eax, -76(%ebp)
	movl	28(%ebp), %eax
	movl	%eax, -68(%ebp)
	movl	%gs:20, %eax
	movl	%eax, -28(%ebp)
	xorl	%eax, %eax
	.loc 1 771 0
	movl	8(%ebp), %eax
	call	get_socket
.LVL236:
	movl	%eax, %ebx
.LVL237:
	.loc 1 773 0
	orl	$-1, %eax
.LVL238:
	.loc 1 772 0
	testl	%ebx, %ebx
	je	.L259
	.loc 1 783 0
	movl	20(%ebp), %eax
	movl	$0, -60(%ebp)
	andl	$8, %eax
	movl	%eax, -84(%ebp)
.LVL239:
.L283:
	.loc 1 779 0
	movl	4(%ebx), %eax
	testl	%eax, %eax
	je	.L260
	.loc 1 780 0
	movl	%eax, -52(%ebp)
	jmp	.L261
.L260:
	.loc 1 783 0
	cmpl	$0, -84(%ebp)
	jne	.L262
	.loc 1 783 0 is_stmt 0 discriminator 2
	movl	(%ebx), %eax
	testb	$2, 40(%eax)
	je	.L263
.L262:
	.loc 1 783 0 discriminator 3
	cmpw	$0, 10(%ebx)
	jg	.L263
	.loc 1 785 0 is_stmt 1
	cmpl	$0, -60(%ebp)
	jne	.L309
.LVL240:
.LBB71:
	.loc 1 791 0
	movb	$11, 16(%ebx)
	.loc 1 791 0
	call	__errno
.LVL241:
	.loc 1 791 0
	movl	$11, (%eax)
.LBE71:
	.loc 1 792 0
	orl	$-1, %eax
	jmp	.L259
.LVL242:
.L263:
	.loc 1 797 0
	movl	(%ebx), %eax
	movl	(%eax), %edx
	andl	$240, %edx
	cmpl	$16, %edx
	jne	.L265
	.loc 1 798 0
	leal	-52(%ebp), %edi
	pushl	%ecx
	pushl	%ecx
	pushl	%edi
	pushl	%eax
	call	netconn_recv_tcp_pbuf
.LVL243:
	jmp	.L306
.L265:
	.loc 1 800 0
	leal	-52(%ebp), %ecx
	pushl	%edx
	pushl	%edx
	pushl	%ecx
	pushl	%eax
	call	netconn_recv
.LVL244:
.L306:
	addl	$16, %esp
	.loc 1 805 0
	testb	%al, %al
	.loc 1 800 0
	movb	%al, %dl
.LVL245:
	.loc 1 805 0
	je	.L267
	.loc 1 806 0
	cmpl	$0, -60(%ebp)
	je	.L268
	.loc 1 807 0
	cmpb	$-15, %al
	jne	.L309
.LVL246:
	.loc 1 809 0
	pushl	%eax
	pushl	$0
	pushl	$0
	pushl	(%ebx)
	call	event_callback
.LVL247:
	addl	$16, %esp
.LVL248:
	jmp	.L309
.LVL249:
.L268:
.LBB72:
	.loc 1 818 0
	subl	$12, %esp
	movsbl	%al, %eax
.LVL250:
	movb	%dl, -60(%ebp)
.LVL251:
	pushl	%eax
	call	err_to_errno
.LVL252:
	addl	$16, %esp
	testl	%eax, %eax
	movl	%eax, %esi
.LVL253:
	movb	%al, 16(%ebx)
	movb	-60(%ebp), %dl
	je	.L270
	.loc 1 818 0 discriminator 1
	call	__errno
.LVL254:
	.loc 1 818 0 discriminator 1
	movb	-60(%ebp), %dl
	movl	%esi, (%eax)
.L270:
.LBE72:
	.loc 1 819 0
	xorl	%eax, %eax
	cmpb	$-15, %dl
	setne	%al
	negl	%eax
	jmp	.L259
.LVL255:
.L267:
	.loc 1 826 0
	movl	-52(%ebp), %eax
.LVL256:
	movl	%eax, 4(%ebx)
.LVL257:
.L261:
	.loc 1 829 0
	movl	(%ebx), %eax
	movl	-52(%ebp), %esi
	movl	(%eax), %eax
	andl	$240, %eax
	cmpl	$16, %eax
	je	.L272
	.loc 1 832 0
	movl	(%esi), %esi
.LVL258:
.L272:
	.loc 1 838 0
	movzwl	8(%ebx), %eax
	movl	8(%esi), %edi
	subl	%eax, %edi
	.loc 1 848 0
	pushl	%eax
.LVL259:
	movl	-80(%ebp), %eax
	.loc 1 840 0
	movzwl	%di, %edx
	.loc 1 843 0
	cmpl	%edx, 16(%ebp)
	movl	%edi, %ecx
	cmovbe	16(%ebp), %cx
	.loc 1 848 0
	addl	-60(%ebp), %eax
	.loc 1 838 0
	movw	%di, -70(%ebp)
.LVL260:
	.loc 1 843 0
	movw	%cx, -72(%ebp)
.LVL261:
	.loc 1 848 0
	movzwl	%cx, %ecx
.LVL262:
	pushl	%ecx
	pushl	%eax
	pushl	%esi
	movl	%ecx, -64(%ebp)
	call	pbuf_copy_partial
.LVL263:
	.loc 1 852 0
	movl	(%ebx), %edx
	.loc 1 850 0
	movl	-64(%ebp), %edi
.LVL264:
	.loc 1 852 0
	addl	$16, %esp
	.loc 1 850 0
	addl	%edi, -60(%ebp)
.LVL265:
	.loc 1 852 0
	movl	(%edx), %eax
	andl	$240, %eax
	cmpl	$16, %eax
	jne	.L274
.LVL266:
	.loc 1 855 0
	subl	%edi, 16(%ebp)
.LVL267:
	je	.L274
	.loc 1 855 0 is_stmt 0 discriminator 1
	testb	$1, 13(%esi)
	jne	.L274
	.loc 1 856 0 is_stmt 1
	cmpw	$0, 10(%ebx)
	jle	.L274
	xorl	%esi, %esi
.LVL268:
	.loc 1 857 0
	testb	$1, 20(%ebp)
	je	.L275
.L274:
.LVL269:
	.loc 1 868 0
	cmpl	$0, -76(%ebp)
	je	.L307
	cmpl	$0, -68(%ebp)
	je	.L307
.LBB73:
	.loc 1 876 0
	cmpl	$16, %eax
	jne	.L276
.LVL270:
	.loc 1 878 0
	leal	-54(%ebp), %eax
	leal	-48(%ebp), %esi
.LVL271:
	pushl	$0
	pushl	%eax
	pushl	%esi
	pushl	%edx
	call	netconn_getaddr
.LVL272:
	addl	$16, %esp
.L277:
	.loc 1 883 0
	movzwl	-54(%ebp), %eax
	subl	$12, %esp
	movb	$16, -44(%ebp)
	movb	$2, -43(%ebp)
	pushl	%eax
	call	lwip_htons
.LVL273:
	movw	%ax, -42(%ebp)
	movl	(%esi), %eax
	leal	-36(%ebp), %edx
	movl	$2, %ecx
	.loc 1 890 0
	addl	$16, %esp
	.loc 1 883 0
	movl	%edx, %edi
	movl	%eax, -40(%ebp)
	xorl	%eax, %eax
	rep stosl
	.loc 1 890 0
	movl	-68(%ebp), %eax
	cmpl	$16, (%eax)
	jbe	.L278
	.loc 1 891 0
	movl	$16, (%eax)
.L278:
	.loc 1 893 0
	movl	-68(%ebp), %eax
	leal	-44(%ebp), %esi
.LVL274:
	movl	-76(%ebp), %edi
	movl	(%eax), %ecx
	rep movsb
.L307:
	movl	$1, %esi
.LVL275:
.L275:
.LBE73:
	.loc 1 899 0
	testb	$1, 20(%ebp)
	jne	.L279
	.loc 1 903 0
	movl	(%ebx), %eax
	movl	(%eax), %eax
	andl	$240, %eax
	cmpl	$16, %eax
	jne	.L280
	.loc 1 903 0 is_stmt 0 discriminator 1
	movzwl	-70(%ebp), %edx
	subl	-64(%ebp), %edx
	testl	%edx, %edx
	jle	.L280
	.loc 1 904 0 is_stmt 1
	movl	-52(%ebp), %eax
	movl	%eax, 4(%ebx)
	.loc 1 905 0
	movl	-72(%ebp), %eax
	addw	%ax, 8(%ebx)
	.loc 1 906 0
	jmp	.L279
.L280:
	.loc 1 911 0
	cmpl	$16, %eax
	.loc 1 908 0
	movl	$0, 4(%ebx)
	.loc 1 909 0
	movw	$0, 8(%ebx)
	.loc 1 911 0
	jne	.L281
	.loc 1 912 0
	subl	$12, %esp
	pushl	-52(%ebp)
	call	pbuf_free
.LVL276:
	jmp	.L308
.L281:
	.loc 1 914 0
	subl	$12, %esp
	pushl	-52(%ebp)
	call	netbuf_delete
.LVL277:
.L308:
	addl	$16, %esp
	.loc 1 916 0
	movl	$0, -52(%ebp)
.L279:
	.loc 1 919 0
	movl	%esi, %eax
	testb	%al, %al
	je	.L283
.LVL278:
.L309:
	.loc 1 850 0
	movl	-60(%ebp), %eax
.LBB74:
	.loc 1 921 0
	movb	$0, 16(%ebx)
.LVL279:
.L259:
.LBE74:
	.loc 1 923 0
	movl	-28(%ebp), %edi
	xorl	%gs:20, %edi
	je	.L286
	call	__stack_chk_fail
.LVL280:
.L276:
.LBB75:
	.loc 1 880 0
	movl	-52(%ebp), %esi
	movl	12(%esi), %eax
	.loc 1 881 0
	addl	$8, %esi
.LVL281:
	.loc 1 880 0
	movw	%ax, -54(%ebp)
	jmp	.L277
.LVL282:
.L286:
.LBE75:
	.loc 1 923 0
	leal	-12(%ebp), %esp
	popl	%ebx
	.cfi_restore 3
.LVL283:
	popl	%esi
	.cfi_restore 6
	popl	%edi
	.cfi_restore 7
	popl	%ebp
	.cfi_restore 5
	.cfi_def_cfa 4, 4
	ret
	.cfi_endproc
.LFE35:
	.size	lwip_recvfrom, .-lwip_recvfrom
	.section	.text.unlikely.lwip_recvfrom
.LCOLDE16:
	.section	.text.lwip_recvfrom
.LHOTE16:
	.section	.text.unlikely.lwip_read,"ax",@progbits
.LCOLDB17:
	.section	.text.lwip_read,"ax",@progbits
.LHOTB17:
	.globl	lwip_read
	.type	lwip_read, @function
lwip_read:
.LFB36:
	.loc 1 927 0
	.cfi_startproc
.LVL284:
	pushl	%ebp
	.cfi_def_cfa_offset 8
	.cfi_offset 5, -8
	movl	%esp, %ebp
	.cfi_def_cfa_register 5
	subl	$16, %esp
	.loc 1 928 0
	pushl	$0
	pushl	$0
	pushl	$0
	pushl	16(%ebp)
	pushl	12(%ebp)
	pushl	8(%ebp)
	call	lwip_recvfrom
.LVL285:
	.loc 1 929 0
	leave
	.cfi_restore 5
	.cfi_def_cfa 4, 4
	ret
	.cfi_endproc
.LFE36:
	.size	lwip_read, .-lwip_read
	.section	.text.unlikely.lwip_read
.LCOLDE17:
	.section	.text.lwip_read
.LHOTE17:
	.section	.text.unlikely.lwip_recv,"ax",@progbits
.LCOLDB18:
	.section	.text.lwip_recv,"ax",@progbits
.LHOTB18:
	.globl	lwip_recv
	.type	lwip_recv, @function
lwip_recv:
.LFB37:
	.loc 1 933 0
	.cfi_startproc
.LVL286:
	pushl	%ebp
	.cfi_def_cfa_offset 8
	.cfi_offset 5, -8
	movl	%esp, %ebp
	.cfi_def_cfa_register 5
	subl	$16, %esp
	.loc 1 934 0
	pushl	$0
	pushl	$0
	pushl	20(%ebp)
	pushl	16(%ebp)
	pushl	12(%ebp)
	pushl	8(%ebp)
	call	lwip_recvfrom
.LVL287:
	.loc 1 935 0
	leave
	.cfi_restore 5
	.cfi_def_cfa 4, 4
	ret
	.cfi_endproc
.LFE37:
	.size	lwip_recv, .-lwip_recv
	.section	.text.unlikely.lwip_recv
.LCOLDE18:
	.section	.text.lwip_recv
.LHOTE18:
	.section	.rodata.str1.1
.LC19:
	.string	"lwip_sendmsg: invalid msghdr"
.LC20:
	.string	"lwip_sendmsg: invalid msghdr iov"
.LC21:
	.string	"lwip_sendmsg: invalid msghdr name"
	.section	.text.unlikely.lwip_sendmsg,"ax",@progbits
.LCOLDB22:
	.section	.text.lwip_sendmsg,"ax",@progbits
.LHOTB22:
	.globl	lwip_sendmsg
	.type	lwip_sendmsg, @function
lwip_sendmsg:
.LFB39:
	.loc 1 979 0
	.cfi_startproc
.LVL288:
	pushl	%ebp
	.cfi_def_cfa_offset 8
	.cfi_offset 5, -8
	movl	%esp, %ebp
	.cfi_def_cfa_register 5
	pushl	%edi
	pushl	%esi
	pushl	%ebx
	subl	$44, %esp
	.cfi_offset 7, -12
	.cfi_offset 6, -16
	.cfi_offset 3, -20
	.loc 1 979 0
	movl	12(%ebp), %esi
	movl	16(%ebp), %ebx
	movl	%gs:20, %eax
	movl	%eax, -28(%ebp)
	xorl	%eax, %eax
.LVL289:
	.loc 1 989 0
	movl	8(%ebp), %eax
	call	get_socket
.LVL290:
	.loc 1 990 0
	testl	%eax, %eax
	je	.L374
	.loc 1 994 0
	testl	%esi, %esi
	movl	%eax, %edi
	jne	.L317
	.loc 1 994 0 discriminator 1
	subl	$12, %esp
	pushl	$.LC19
.LVL291:
.L379:
	call	bk_printf
.LVL292:
.LBB76:
	movl	$-16, (%esp)
.L377:
	call	err_to_errno
.LVL293:
	addl	$16, %esp
	testl	%eax, %eax
	movl	%eax, %ebx
.LVL294:
	movb	%al, 16(%edi)
	je	.L374
	.loc 1 994 0 discriminator 2
	call	__errno
.LVL295:
	.loc 1 994 0 discriminator 2
	movl	%ebx, (%eax)
.LVL296:
.L374:
.LBE76:
	orl	$-1, %ebx
	jmp	.L316
.LVL297:
.L317:
	.loc 1 1000 0
	cmpl	$0, 8(%esi)
	je	.L319
	.loc 1 1000 0 is_stmt 0 discriminator 2
	cmpl	$0, 12(%esi)
	jne	.L320
.L319:
	.loc 1 1000 0 is_stmt 1 discriminator 3
	subl	$12, %esp
	pushl	$.LC20
	jmp	.L379
.L320:
	.loc 1 1003 0
	movl	(%eax), %eax
.LVL298:
	movl	(%eax), %eax
	andl	$240, %eax
	cmpl	$16, %eax
	jne	.L321
	.loc 1 1008 0
	movl	%ebx, %eax
	andl	$16, %eax
	cmpl	$1, %eax
	sbbl	%edx, %edx
	andl	$8, %ebx
	andl	$-2, %edx
	addl	$3, %edx
	cmpl	$1, %ebx
	sbbl	%eax, %eax
	.loc 1 986 0
	xorl	%ebx, %ebx
	.loc 1 1008 0
	notl	%eax
	andl	$4, %eax
	orl	%edx, %eax
.LVL299:
	.loc 1 1013 0
	xorl	%edx, %edx
	.loc 1 1015 0
	movsbl	%al, %eax
	movl	%eax, -44(%ebp)
.LVL300:
.L324:
	.loc 1 1013 0 discriminator 1
	cmpl	12(%esi), %edx
	jge	.L344
	leal	0(,%edx,8), %ecx
	movl	%edx, -52(%ebp)
	.loc 1 1015 0
	leal	-32(%ebp), %edx
.LVL301:
	subl	$12, %esp
	.loc 1 1014 0
	movl	$0, -32(%ebp)
	.loc 1 1015 0
	movl	%ecx, %eax
	addl	8(%esi), %eax
	pushl	%edx
	pushl	-44(%ebp)
	movl	%ecx, -48(%ebp)
	pushl	4(%eax)
	pushl	(%eax)
	pushl	(%edi)
	call	netconn_write_partly
.LVL302:
	.loc 1 1016 0
	addl	$32, %esp
	testb	%al, %al
	jne	.L325
	.loc 1 1019 0
	movl	8(%esi), %edx
	movl	-48(%ebp), %ecx
	.loc 1 1017 0
	addl	-32(%ebp), %ebx
.LVL303:
	.loc 1 1019 0
	movl	4(%edx,%ecx), %ecx
	cmpl	%ecx, -32(%ebp)
	movl	-52(%ebp), %edx
	jne	.L326
	.loc 1 1013 0 discriminator 2
	incl	%edx
.LVL304:
	jmp	.L324
.LVL305:
.L325:
	.loc 1 1023 0
	cmpb	$-7, %al
	jne	.L347
	testl	%ebx, %ebx
	jg	.L344
.L347:
	.loc 1 1028 0
	orl	$-1, %ebx
.LVL306:
	jmp	.L326
.LVL307:
.L344:
	.loc 1 1024 0
	xorl	%eax, %eax
.LVL308:
.L326:
.LBB77:
	.loc 1 1032 0
	subl	$12, %esp
	movsbl	%al, %eax
	pushl	%eax
	call	err_to_errno
.LVL309:
	addl	$16, %esp
	testl	%eax, %eax
	movl	%eax, %esi
.LVL310:
	movb	%al, 16(%edi)
	je	.L316
	.loc 1 1032 0 discriminator 1
	call	__errno
.LVL311:
	.loc 1 1032 0 discriminator 1
	movl	%esi, (%eax)
	jmp	.L316
.LVL312:
.L321:
.LBE77:
.LBB78:
	.loc 1 1045 0
	cmpl	$0, (%esi)
	jne	.L330
	.loc 1 1045 0 discriminator 2
	cmpl	$0, 4(%esi)
	je	.L331
.L330:
	.loc 1 1045 0 discriminator 3
	cmpl	$16, 4(%esi)
	je	.L331
	.loc 1 1045 0 discriminator 4
	subl	$12, %esp
	pushl	$.LC21
	jmp	.L379
.L331:
	.loc 1 1050 0
	call	netbuf_new
.LVL313:
	.loc 1 1051 0
	testl	%eax, %eax
	.loc 1 1050 0
	movl	%eax, %ebx
.LVL314:
	.loc 1 1051 0
	jne	.L332
.LBB79:
	.loc 1 1052 0
	subl	$12, %esp
	pushl	$-1
	jmp	.L377
.L332:
.LBE79:
	.loc 1 1055 0
	movl	(%esi), %eax
.LVL315:
	testl	%eax, %eax
	je	.L333
.LBB80:
	.loc 1 1057 0
	movl	4(%eax), %ecx
	movzwl	2(%eax), %eax
	subl	$12, %esp
	movl	%ecx, 8(%ebx)
	pushl	%eax
	call	lwip_htons
.LVL316:
	.loc 1 1058 0
	addl	$16, %esp
	movw	%ax, 12(%ebx)
.LVL317:
.L333:
.LBE80:
.LBE78:
	movl	$0, -44(%ebp)
.L334:
.LVL318:
.LBB84:
	.loc 1 1086 0 discriminator 1
	movl	-44(%ebp), %eax
	cmpl	12(%esi), %eax
	jge	.L381
.LBB81:
	.loc 1 1087 0
	pushl	%ecx
	pushl	$2
	pushl	$0
	pushl	$0
	call	pbuf_alloc
.LVL319:
	.loc 1 1088 0
	addl	$16, %esp
	testl	%eax, %eax
	je	.L346
	.loc 1 1092 0
	movl	8(%esi), %ecx
	movl	-44(%ebp), %edx
	leal	(%ecx,%edx,8), %ecx
	movl	(%ecx), %edx
	.loc 1 1094 0
	movl	4(%ecx), %ecx
	movw	%cx, 8(%eax)
	movw	%cx, 10(%eax)
	.loc 1 1096 0
	movl	(%ebx), %ecx
	.loc 1 1092 0
	movl	%edx, 4(%eax)
	.loc 1 1096 0
	testl	%ecx, %ecx
	jne	.L336
	.loc 1 1097 0
	movl	%eax, 4(%ebx)
	movl	%eax, (%ebx)
	jmp	.L337
.L336:
	.loc 1 1100 0
	pushl	%edx
	pushl	%edx
	pushl	%eax
	pushl	%ecx
	call	pbuf_cat
.LVL320:
	addl	$16, %esp
.L337:
.LBE81:
	.loc 1 1086 0 discriminator 2
	incl	-44(%ebp)
.LVL321:
	jmp	.L334
.LVL322:
.L346:
.LBE84:
	.loc 1 986 0
	xorl	%esi, %esi
.LBB85:
.LBB82:
	movb	$-1, -44(%ebp)
.LVL323:
.L335:
.LBE82:
	.loc 1 1115 0
	subl	$12, %esp
	pushl	%ebx
	call	netbuf_delete
.LVL324:
.LBB83:
	.loc 1 1117 0
	movsbl	-44(%ebp), %eax
	movl	%eax, (%esp)
	call	err_to_errno
.LVL325:
	addl	$16, %esp
	testl	%eax, %eax
	movl	%eax, %ebx
.LVL326:
	movb	%al, 16(%edi)
	je	.L340
	.loc 1 1117 0 discriminator 1
	call	__errno
.LVL327:
	.loc 1 1117 0 discriminator 1
	movl	%ebx, (%eax)
.L340:
.LBE83:
	.loc 1 1118 0
	cmpb	$0, -44(%ebp)
	jne	.L374
	movl	%esi, %ebx
.LVL328:
.L316:
.LBE85:
	.loc 1 1124 0
	movl	-28(%ebp), %edi
	xorl	%gs:20, %edi
	movl	%ebx, %eax
	je	.L341
	call	__stack_chk_fail
.LVL329:
.L381:
.LBB86:
	.loc 1 1105 0
	movl	(%ebx), %eax
.LVL330:
	movzwl	8(%eax), %esi
.LVL331:
	.loc 1 1111 0
	pushl	%eax
	pushl	%eax
	pushl	%ebx
	pushl	(%edi)
	call	netconn_send
.LVL332:
	addl	$16, %esp
	movb	%al, -44(%ebp)
.LVL333:
	jmp	.L335
.LVL334:
.L341:
.LBE86:
	.loc 1 1124 0
	leal	-12(%ebp), %esp
	popl	%ebx
	.cfi_restore 3
	popl	%esi
	.cfi_restore 6
	popl	%edi
	.cfi_restore 7
	popl	%ebp
	.cfi_restore 5
	.cfi_def_cfa 4, 4
	ret
	.cfi_endproc
.LFE39:
	.size	lwip_sendmsg, .-lwip_sendmsg
	.section	.text.unlikely.lwip_sendmsg
.LCOLDE22:
	.section	.text.lwip_sendmsg
.LHOTE22:
	.section	.rodata.str1.1
.LC23:
	.string	"lwip_sendto: invalid address"
	.section	.text.unlikely.lwip_sendto,"ax",@progbits
.LCOLDB24:
	.section	.text.lwip_sendto,"ax",@progbits
.LHOTB24:
	.globl	lwip_sendto
	.type	lwip_sendto, @function
lwip_sendto:
.LFB40:
	.loc 1 1129 0
	.cfi_startproc
.LVL335:
	pushl	%ebp
	.cfi_def_cfa_offset 8
	.cfi_offset 5, -8
	movl	%esp, %ebp
	.cfi_def_cfa_register 5
	pushl	%edi
	pushl	%esi
	pushl	%ebx
	subl	$60, %esp
	.cfi_offset 7, -12
	.cfi_offset 6, -16
	.cfi_offset 3, -20
	.loc 1 1129 0
	movl	12(%ebp), %esi
	movl	16(%ebp), %edi
	movl	%gs:20, %eax
	movl	%eax, -28(%ebp)
	xorl	%eax, %eax
	.loc 1 1136 0
	movl	8(%ebp), %eax
	.loc 1 1129 0
	movl	24(%ebp), %ebx
	.loc 1 1136 0
	call	get_socket
.LVL336:
	.loc 1 1137 0
	testl	%eax, %eax
	.loc 1 1136 0
	movl	%eax, -60(%ebp)
.LVL337:
	.loc 1 1137 0
	je	.L410
	.loc 1 1141 0
	movl	-60(%ebp), %eax
	movl	(%eax), %eax
.LVL338:
	movl	(%eax), %eax
	andl	$240, %eax
	cmpl	$16, %eax
	jne	.L385
	.loc 1 1143 0
	pushl	20(%ebp)
	pushl	%edi
	pushl	%esi
	pushl	8(%ebp)
	call	lwip_send
.LVL339:
	addl	$16, %esp
	movl	%eax, %ebx
	jmp	.L384
.L385:
.LVL340:
	.loc 1 1160 0
	testl	%ebx, %ebx
	jne	.L396
	cmpl	$0, 28(%ebp)
	je	.L386
.L396:
	.loc 1 1160 0 is_stmt 0 discriminator 1
	cmpl	$16, 28(%ebp)
	jne	.L388
	.loc 1 1160 0 is_stmt 1 discriminator 3
	cmpb	$2, 1(%ebx)
	jne	.L388
	.loc 1 1160 0 is_stmt 0 discriminator 5
	testb	$3, %bl
	je	.L386
.L388:
	.loc 1 1160 0 discriminator 6
	subl	$12, %esp
	pushl	$.LC23
	call	bk_printf
.LVL341:
.LBB87:
	movl	$-16, (%esp)
	call	err_to_errno
.LVL342:
	movl	%eax, %ebx
.LVL343:
	movl	-60(%ebp), %eax
.LVL344:
	addl	$16, %esp
	testl	%ebx, %ebx
	movb	%bl, 16(%eax)
	je	.L410
	.loc 1 1160 0 is_stmt 1 discriminator 7
	call	__errno
.LVL345:
	.loc 1 1160 0 discriminator 7
	movl	%ebx, (%eax)
.LVL346:
.L410:
.LBE87:
	orl	$-1, %ebx
	jmp	.L384
.LVL347:
.L386:
	.loc 1 1171 0
	testl	%ebx, %ebx
	.loc 1 1167 0
	movl	$0, -40(%ebp)
	movl	$0, -44(%ebp)
	.loc 1 1171 0
	je	.L390
	.loc 1 1172 0
	movl	4(%ebx), %eax
	subl	$12, %esp
	movl	%eax, -36(%ebp)
	movzwl	2(%ebx), %eax
	pushl	%eax
	call	lwip_htons
.LVL348:
	addl	$16, %esp
	jmp	.L391
.LVL349:
.L390:
	.loc 1 1175 0
	movl	$0, -36(%ebp)
	.loc 1 1174 0
	xorl	%eax, %eax
.LVL350:
.L391:
	.loc 1 1194 0
	pushl	%edx
	pushl	%edx
	leal	-44(%ebp), %edx
	movzwl	%di, %ebx
	.loc 1 1177 0
	movw	%ax, -32(%ebp)
	.loc 1 1194 0
	pushl	%ebx
	pushl	%edx
	movl	%edx, -68(%ebp)
	call	netbuf_alloc
.LVL351:
	addl	$16, %esp
	testl	%eax, %eax
	movb	$-1, -61(%ebp)
	movl	-68(%ebp), %edx
	je	.L392
	.loc 1 1204 0
	movl	-44(%ebp), %eax
	movl	%ebx, %ecx
	movl	4(%eax), %eax
	movl	%eax, %edi
.LVL352:
	rep movsb
.LVL353:
	.loc 1 1213 0
	pushl	%eax
	pushl	%eax
	movl	-60(%ebp), %eax
	pushl	%edx
	pushl	(%eax)
	call	netconn_send
.LVL354:
	movl	-68(%ebp), %edx
	movb	%al, -61(%ebp)
.LVL355:
	addl	$16, %esp
.LVL356:
.L392:
	.loc 1 1217 0
	subl	$12, %esp
	pushl	%edx
	call	netbuf_free
.LVL357:
.LBB88:
	.loc 1 1219 0
	movsbl	-61(%ebp), %eax
	movl	%eax, (%esp)
	call	err_to_errno
.LVL358:
	movl	-60(%ebp), %ecx
	addl	$16, %esp
	testl	%eax, %eax
	movl	%eax, %edi
.LVL359:
	movb	%al, 16(%ecx)
	je	.L393
	.loc 1 1219 0 discriminator 1
	call	__errno
.LVL360:
	.loc 1 1219 0 discriminator 1
	movl	%edi, (%eax)
.L393:
.LBE88:
	.loc 1 1220 0
	cmpb	$0, -61(%ebp)
	jne	.L410
.LVL361:
.L384:
	.loc 1 1221 0
	movl	-28(%ebp), %ecx
	xorl	%gs:20, %ecx
	movl	%ebx, %eax
	je	.L394
	call	__stack_chk_fail
.LVL362:
.L394:
	leal	-12(%ebp), %esp
	popl	%ebx
	.cfi_restore 3
	popl	%esi
	.cfi_restore 6
	popl	%edi
	.cfi_restore 7
	popl	%ebp
	.cfi_restore 5
	.cfi_def_cfa 4, 4
	ret
	.cfi_endproc
.LFE40:
	.size	lwip_sendto, .-lwip_sendto
	.section	.text.unlikely.lwip_sendto
.LCOLDE24:
	.section	.text.lwip_sendto
.LHOTE24:
	.section	.text.unlikely.lwip_send,"ax",@progbits
.LCOLDB25:
	.section	.text.lwip_send,"ax",@progbits
.LHOTB25:
	.globl	lwip_send
	.type	lwip_send, @function
lwip_send:
.LFB38:
	.loc 1 939 0
	.cfi_startproc
.LVL363:
	pushl	%ebp
	.cfi_def_cfa_offset 8
	.cfi_offset 5, -8
	movl	%esp, %ebp
	.cfi_def_cfa_register 5
	pushl	%edi
	pushl	%esi
	pushl	%ebx
	subl	$28, %esp
	.cfi_offset 7, -12
	.cfi_offset 6, -16
	.cfi_offset 3, -20
	.loc 1 939 0
	movl	12(%ebp), %edi
	movl	20(%ebp), %ebx
	movl	%gs:20, %eax
	movl	%eax, -28(%ebp)
	xorl	%eax, %eax
	.loc 1 948 0
	movl	8(%ebp), %eax
	call	get_socket
.LVL364:
	.loc 1 949 0
	testl	%eax, %eax
	jne	.L412
.LVL365:
.L418:
	.loc 1 950 0
	orl	$-1, %eax
	jmp	.L413
.LVL366:
.L412:
	.loc 1 953 0
	movl	(%eax), %ecx
	movl	%eax, %esi
	movl	(%ecx), %eax
.LVL367:
	andl	$240, %eax
	cmpl	$16, %eax
	je	.L414
	.loc 1 955 0
	pushl	%eax
	pushl	%eax
	pushl	$0
	pushl	$0
	pushl	%ebx
	pushl	16(%ebp)
	pushl	%edi
	pushl	8(%ebp)
	call	lwip_sendto
.LVL368:
	addl	$32, %esp
	jmp	.L413
.L414:
	.loc 1 965 0
	movl	%ebx, %eax
	.loc 1 969 0
	movl	$0, -32(%ebp)
	.loc 1 965 0
	andl	$16, %eax
	cmpl	$1, %eax
	sbbl	%edx, %edx
	andl	$8, %ebx
	andl	$-2, %edx
	addl	$3, %edx
	cmpl	$1, %ebx
	.loc 1 970 0
	leal	-32(%ebp), %ebx
	.loc 1 965 0
	sbbl	%eax, %eax
	.loc 1 970 0
	subl	$12, %esp
	.loc 1 965 0
	notl	%eax
	.loc 1 970 0
	pushl	%ebx
	.loc 1 965 0
	andl	$4, %eax
.LVL369:
	.loc 1 970 0
	orl	%edx, %eax
.LVL370:
	movsbl	%al, %eax
	pushl	%eax
	pushl	16(%ebp)
	pushl	%edi
	pushl	%ecx
	call	netconn_write_partly
.LVL371:
.LBB89:
	.loc 1 973 0
	addl	$20, %esp
.LBE89:
	.loc 1 970 0
	movl	%eax, %edi
.LVL372:
.LBB90:
	.loc 1 973 0
	movsbl	%al, %eax
.LVL373:
	pushl	%eax
	call	err_to_errno
.LVL374:
	addl	$16, %esp
	testl	%eax, %eax
	movl	%eax, %ebx
.LVL375:
	movb	%al, 16(%esi)
	je	.L417
	.loc 1 973 0 discriminator 1
	call	__errno
.LVL376:
	.loc 1 973 0 discriminator 1
	movl	%ebx, (%eax)
.L417:
.LBE90:
	.loc 1 974 0
	movl	%edi, %eax
	testb	%al, %al
	jne	.L418
.LVL377:
	.loc 1 974 0 is_stmt 0 discriminator 1
	movl	-32(%ebp), %eax
.LVL378:
.L413:
	.loc 1 975 0 is_stmt 1
	movl	-28(%ebp), %ecx
	xorl	%gs:20, %ecx
	je	.L419
	call	__stack_chk_fail
.LVL379:
.L419:
	leal	-12(%ebp), %esp
	popl	%ebx
	.cfi_restore 3
	popl	%esi
	.cfi_restore 6
	popl	%edi
	.cfi_restore 7
	popl	%ebp
	.cfi_restore 5
	.cfi_def_cfa 4, 4
	ret
	.cfi_endproc
.LFE38:
	.size	lwip_send, .-lwip_send
	.section	.text.unlikely.lwip_send
.LCOLDE25:
	.section	.text.lwip_send
.LHOTE25:
	.section	.text.unlikely.lwip_socket,"ax",@progbits
.LCOLDB26:
	.section	.text.lwip_socket,"ax",@progbits
.LHOTB26:
	.globl	lwip_socket
	.type	lwip_socket, @function
lwip_socket:
.LFB41:
	.loc 1 1225 0
	.cfi_startproc
.LVL380:
	pushl	%ebp
	.cfi_def_cfa_offset 8
	.cfi_offset 5, -8
	movl	%esp, %ebp
	.cfi_def_cfa_register 5
	pushl	%ebx
	.cfi_offset 3, -12
	pushl	%ebx
	.loc 1 1225 0
	movl	12(%ebp), %edx
	movl	16(%ebp), %eax
	.loc 1 1234 0
	cmpl	$2, %edx
	je	.L428
	cmpl	$3, %edx
	je	.L429
	decl	%edx
.LVL381:
	jne	.L437
	.loc 1 1249 0
	pushl	%eax
	pushl	$event_callback
	pushl	$0
	pushl	$16
	jmp	.L439
.LVL382:
.L429:
	.loc 1 1236 0
	movzbl	%al, %eax
	pushl	%ecx
	pushl	$event_callback
	pushl	%eax
	pushl	$64
	jmp	.L439
.L428:
	.loc 1 1242 0
	cmpl	$136, %eax
	pushl	%edx
	pushl	$event_callback
	sete	%al
	pushl	$0
	movzbl	%al, %eax
	addl	$32, %eax
	pushl	%eax
.LVL383:
.L439:
	.loc 1 1249 0
	call	netconn_new_with_proto_and_callback
.LVL384:
	.loc 1 1252 0
	addl	$16, %esp
	.loc 1 1260 0
	testl	%eax, %eax
	.loc 1 1249 0
	movl	%eax, %ebx
.LVL385:
	.loc 1 1260 0
	jne	.L434
	.loc 1 1262 0 discriminator 1
	call	__errno
.LVL386:
	.loc 1 1262 0 discriminator 1
	movl	$105, (%eax)
	jmp	.L440
.LVL387:
.L437:
	.loc 1 1256 0 discriminator 1
	call	__errno
.LVL388:
	.loc 1 1256 0 discriminator 1
	movl	$22, (%eax)
	jmp	.L440
.LVL389:
.L434:
	.loc 1 1266 0
	xorl	%edx, %edx
	call	alloc_socket
.LVL390:
	.loc 1 1268 0
	cmpl	$-1, %eax
	jne	.L435
	.loc 1 1269 0
	subl	$12, %esp
	pushl	%ebx
	call	netconn_delete
.LVL391:
	.loc 1 1270 0
	call	__errno
.LVL392:
	.loc 1 1271 0
	addl	$16, %esp
	.loc 1 1270 0
	movl	$23, (%eax)
.LVL393:
.L440:
	.loc 1 1263 0 discriminator 1
	orl	$-1, %eax
	jmp	.L433
.LVL394:
.L435:
	.loc 1 1273 0
	movl	%eax, 28(%ebx)
.LVL395:
.L433:
	.loc 1 1277 0
	movl	-4(%ebp), %ebx
	leave
	.cfi_restore 5
	.cfi_restore 3
	.cfi_def_cfa 4, 4
	ret
	.cfi_endproc
.LFE41:
	.size	lwip_socket, .-lwip_socket
	.section	.text.unlikely.lwip_socket
.LCOLDE26:
	.section	.text.lwip_socket
.LHOTE26:
	.section	.text.unlikely.lwip_write,"ax",@progbits
.LCOLDB27:
	.section	.text.lwip_write,"ax",@progbits
.LHOTB27:
	.globl	lwip_write
	.type	lwip_write, @function
lwip_write:
.LFB42:
	.loc 1 1281 0
	.cfi_startproc
.LVL396:
	pushl	%ebp
	.cfi_def_cfa_offset 8
	.cfi_offset 5, -8
	movl	%esp, %ebp
	.cfi_def_cfa_register 5
	pushl	%edi
	pushl	%esi
	pushl	%ebx
	subl	$12, %esp
	.cfi_offset 7, -12
	.cfi_offset 6, -16
	.cfi_offset 3, -20
	.loc 1 1281 0
	movl	8(%ebp), %edi
	movl	16(%ebp), %ecx
	movl	12(%ebp), %ebx
	.loc 1 1282 0
	movl	%edi, %eax
	call	tryget_event
.LVL397:
	.loc 1 1283 0
	testl	%eax, %eax
	je	.L442
	movl	%eax, %esi
.LBB91:
	.loc 1 1287 0
	orl	$-1, %eax
.LVL398:
	.loc 1 1286 0
	cmpl	$8, %ecx
	jne	.L443
	.loc 1 1289 0
	call	sys_arch_protect
.LVL399:
	.loc 1 1290 0
	movl	(%ebx), %ecx
	addl	(%esi), %ecx
	.loc 1 1289 0
	movl	%eax, %edi
.LVL400:
	.loc 1 1290 0
	movl	4(%ebx), %ebx
	adcl	4(%esi), %ebx
	movl	%ecx, (%esi)
	.loc 1 1291 0
	movl	%ebx, %eax
.LVL401:
	.loc 1 1290 0
	movl	%ebx, 4(%esi)
	.loc 1 1291 0
	orl	%ecx, %eax
	je	.L445
	.loc 1 1293 0
	movl	20(%esi), %eax
	.loc 1 1292 0
	movl	%ecx, 12(%esi)
	.loc 1 1293 0
	testl	%eax, %eax
	je	.L445
	.loc 1 1294 0
	subl	$12, %esp
	pushl	%eax
	call	sys_sem_signal
.LVL402:
	addl	$16, %esp
.L445:
	.loc 1 1297 0
	subl	$12, %esp
	pushl	%edi
	call	sys_arch_unprotect
.LVL403:
	.loc 1 1298 0
	addl	$16, %esp
	movl	$8, %eax
	jmp	.L443
.LVL404:
.L442:
.LBE91:
	.loc 1 1300 0
	pushl	$0
	pushl	%ecx
	pushl	%ebx
	pushl	%edi
	call	lwip_send
.LVL405:
	addl	$16, %esp
.L443:
	.loc 1 1301 0
	leal	-12(%ebp), %esp
	popl	%ebx
	.cfi_restore 3
	popl	%esi
	.cfi_restore 6
	popl	%edi
	.cfi_restore 7
	popl	%ebp
	.cfi_restore 5
	.cfi_def_cfa 4, 4
	ret
	.cfi_endproc
.LFE42:
	.size	lwip_write, .-lwip_write
	.section	.text.unlikely.lwip_write
.LCOLDE27:
	.section	.text.lwip_write
.LHOTE27:
	.section	.text.unlikely.lwip_writev,"ax",@progbits
.LCOLDB28:
	.section	.text.lwip_writev,"ax",@progbits
.LHOTB28:
	.globl	lwip_writev
	.type	lwip_writev, @function
lwip_writev:
.LFB43:
	.loc 1 1305 0
	.cfi_startproc
.LVL406:
	pushl	%ebp
	.cfi_def_cfa_offset 8
	.cfi_offset 5, -8
	movl	%esp, %ebp
	.cfi_def_cfa_register 5
	subl	$44, %esp
	.loc 1 1305 0
	movl	%gs:20, %eax
	movl	%eax, -12(%ebp)
	xorl	%eax, %eax
	.loc 1 1312 0
	movl	12(%ebp), %eax
	.loc 1 1317 0
	pushl	$0
	.loc 1 1308 0
	movl	$0, -40(%ebp)
	.loc 1 1309 0
	movl	$0, -36(%ebp)
	.loc 1 1314 0
	movl	$0, -24(%ebp)
	.loc 1 1315 0
	movl	$0, -20(%ebp)
	.loc 1 1312 0
	movl	%eax, -32(%ebp)
	.loc 1 1313 0
	movl	16(%ebp), %eax
	.loc 1 1316 0
	movl	$0, -16(%ebp)
	.loc 1 1313 0
	movl	%eax, -28(%ebp)
	.loc 1 1317 0
	leal	-40(%ebp), %eax
	pushl	%eax
	pushl	8(%ebp)
	call	lwip_sendmsg
.LVL407:
	.loc 1 1318 0
	movl	-12(%ebp), %edx
	xorl	%gs:20, %edx
	je	.L453
	call	__stack_chk_fail
.LVL408:
.L453:
	leave
	.cfi_restore 5
	.cfi_def_cfa 4, 4
	ret
	.cfi_endproc
.LFE43:
	.size	lwip_writev, .-lwip_writev
	.section	.text.unlikely.lwip_writev
.LCOLDE28:
	.section	.text.lwip_writev
.LHOTE28:
	.section	.text.unlikely.lwip_eventfd,"ax",@progbits
.LCOLDB29:
	.section	.text.lwip_eventfd,"ax",@progbits
.LHOTB29:
	.globl	lwip_eventfd
	.type	lwip_eventfd, @function
lwip_eventfd:
.LFB45:
	.loc 1 1400 0
	.cfi_startproc
.LVL409:
	pushl	%ebp
	.cfi_def_cfa_offset 8
	.cfi_offset 5, -8
	movl	%esp, %ebp
	.cfi_def_cfa_register 5
	pushl	%esi
	.cfi_offset 6, -12
	movl	$events, %esi
	pushl	%ebx
	.cfi_offset 3, -16
	.loc 1 1405 0
	xorl	%ebx, %ebx
.LVL410:
.L458:
	.loc 1 1407 0
	call	sys_arch_protect
.LVL411:
	.loc 1 1408 0
	cmpl	$0, 8(%esi)
	jne	.L456
	.loc 1 1409 0
	imull	$24, %ebx, %ecx
	.loc 1 1414 0
	subl	$12, %esp
	pushl	%eax
	.loc 1 1409 0
	movl	$1, events+8(%ecx)
	.loc 1 1410 0
	movl	$0, events(%ecx)
	movl	$0, events+4(%ecx)
	.loc 1 1411 0
	movl	$0, events+12(%ecx)
	.loc 1 1412 0
	movl	$0, events+16(%ecx)
	.loc 1 1413 0
	movl	$0, events+20(%ecx)
	.loc 1 1414 0
	call	sys_arch_unprotect
.LVL412:
	.loc 1 1415 0
	leal	38(%ebx), %eax
	addl	$16, %esp
	jmp	.L457
.LVL413:
.L456:
	.loc 1 1417 0 discriminator 2
	subl	$12, %esp
	.loc 1 1405 0 discriminator 2
	incl	%ebx
.LVL414:
	addl	$24, %esi
	.loc 1 1417 0 discriminator 2
	pushl	%eax
	call	sys_arch_unprotect
.LVL415:
	.loc 1 1405 0 discriminator 2
	addl	$16, %esp
	cmpl	$38, %ebx
	jne	.L458
	.loc 1 1420 0
	orl	$-1, %eax
.L457:
	.loc 1 1421 0
	leal	-8(%ebp), %esp
	popl	%ebx
	.cfi_restore 3
.LVL416:
	popl	%esi
	.cfi_restore 6
	popl	%ebp
	.cfi_restore 5
	.cfi_def_cfa 4, 4
	ret
	.cfi_endproc
.LFE45:
	.size	lwip_eventfd, .-lwip_eventfd
	.section	.text.unlikely.lwip_eventfd
.LCOLDE29:
	.section	.text.lwip_eventfd
.LHOTE29:
	.section	.text.unlikely.lwip_select,"ax",@progbits
.LCOLDB30:
	.section	.text.lwip_select,"ax",@progbits
.LHOTB30:
	.globl	lwip_select
	.type	lwip_select, @function
lwip_select:
.LFB46:
	.loc 1 1426 0
	.cfi_startproc
.LVL417:
	pushl	%ebp
	.cfi_def_cfa_offset 8
	.cfi_offset 5, -8
	movl	%esp, %ebp
	.cfi_def_cfa_register 5
	pushl	%edi
	pushl	%esi
	pushl	%ebx
	subl	$108, %esp
	.cfi_offset 7, -12
	.cfi_offset 6, -16
	.cfi_offset 3, -20
	.loc 1 1426 0
	movl	12(%ebp), %eax
	movl	20(%ebp), %esi
	movl	24(%ebp), %ebx
	movl	%eax, -96(%ebp)
	movl	16(%ebp), %eax
	.loc 1 1446 0
	movl	-96(%ebp), %edx
	.loc 1 1426 0
	movl	%eax, -100(%ebp)
	.loc 1 1446 0
	movl	-100(%ebp), %ecx
	.loc 1 1426 0
	movl	%gs:20, %eax
	movl	%eax, -28(%ebp)
	xorl	%eax, %eax
.LVL418:
	.loc 1 1446 0
	leal	-36(%ebp), %eax
	pushl	%eax
	leal	-44(%ebp), %eax
	pushl	%eax
	leal	-52(%ebp), %eax
	pushl	%eax
	movl	8(%ebp), %eax
	pushl	%esi
	call	lwip_selscan
.LVL419:
	.loc 1 1449 0
	addl	$16, %esp
	testl	%eax, %eax
	.loc 1 1446 0
	movl	%eax, %edi
.LVL420:
	.loc 1 1449 0
	jne	.L462
	.loc 1 1450 0
	testl	%ebx, %ebx
	je	.L463
	.loc 1 1450 0 is_stmt 0 discriminator 1
	cmpl	$0, (%ebx)
	jne	.L463
	.loc 1 1450 0 discriminator 2
	cmpl	$0, 4(%ebx)
	je	.L462
.L463:
	.loc 1 1464 0 is_stmt 1
	movl	-96(%ebp), %eax
.LVL421:
	.loc 1 1471 0
	pushl	%ecx
	leal	-80(%ebp), %edi
.LVL422:
	pushl	%ecx
	pushl	$0
	.loc 1 1462 0
	movl	$0, -80(%ebp)
	.loc 1 1463 0
	movl	$0, -76(%ebp)
	.loc 1 1464 0
	movl	%eax, -72(%ebp)
	.loc 1 1465 0
	movl	-100(%ebp), %eax
	.loc 1 1466 0
	movl	%esi, -64(%ebp)
	.loc 1 1467 0
	movl	$0, -60(%ebp)
	.loc 1 1465 0
	movl	%eax, -68(%ebp)
	.loc 1 1471 0
	leal	-56(%ebp), %eax
	pushl	%eax
	call	sys_sem_new
.LVL423:
	addl	$16, %esp
	testb	%al, %al
	je	.L464
	.loc 1 1473 0 discriminator 1
	call	__errno
.LVL424:
	.loc 1 1473 0 discriminator 1
	movl	$12, (%eax)
	jmp	.L547
.L464:
	.loc 1 1479 0
	call	sys_arch_protect
.LVL425:
	.loc 1 1482 0
	movl	select_cb_list, %edx
	.loc 1 1483 0
	testl	%edx, %edx
	.loc 1 1482 0
	movl	%edx, -80(%ebp)
	.loc 1 1483 0
	je	.L466
	.loc 1 1484 0
	movl	%edi, 4(%edx)
.L466:
	.loc 1 1486 0
	leal	-80(%ebp), %edx
	.loc 1 1491 0
	subl	$12, %esp
.LBB92:
	.loc 1 1508 0
	leal	-56(%ebp), %edi
.LBE92:
	.loc 1 1491 0
	pushl	%eax
	.loc 1 1486 0
	movl	%edx, select_cb_list
	.loc 1 1488 0
	movl	select_cb_ctr, %edx
	incl	%edx
	movl	%edx, select_cb_ctr
	.loc 1 1491 0
	call	sys_arch_unprotect
.LVL426:
	.loc 1 1495 0
	addl	$16, %esp
	movl	$0, -92(%ebp)
.LVL427:
.L467:
	.loc 1 1495 0 is_stmt 0 discriminator 1
	movl	-92(%ebp), %eax
	cmpl	8(%ebp), %eax
	jge	.L548
	.loc 1 1496 0 is_stmt 1
	cmpl	$0, -96(%ebp)
	je	.L468
	.loc 1 1496 0 is_stmt 0 discriminator 1
	movl	-92(%ebp), %ecx
	.loc 1 1496 0 is_stmt 1 discriminator 1
	movl	-92(%ebp), %edx
	.loc 1 1496 0 discriminator 1
	movl	$1, %eax
	sall	%cl, %eax
	movl	-96(%ebp), %ecx
	.loc 1 1496 0 discriminator 1
	shrl	$5, %edx
	.loc 1 1496 0 discriminator 1
	testl	%eax, (%ecx,%edx,4)
	jne	.L469
.L468:
	.loc 1 1496 0 discriminator 3
	cmpl	$0, -100(%ebp)
	je	.L470
	.loc 1 1497 0
	movl	-92(%ebp), %ecx
	.loc 1 1497 0
	movl	-92(%ebp), %edx
	.loc 1 1497 0
	movl	$1, %eax
	sall	%cl, %eax
	movl	-100(%ebp), %ecx
	.loc 1 1497 0
	shrl	$5, %edx
	.loc 1 1497 0
	testl	%eax, (%ecx,%edx,4)
	jne	.L469
.L470:
	.loc 1 1497 0 discriminator 1
	testl	%esi, %esi
	je	.L471
	.loc 1 1498 0
	movl	-92(%ebp), %edx
	.loc 1 1498 0
	movl	-92(%ebp), %ecx
	movl	$1, %eax
	.loc 1 1498 0
	shrl	$5, %edx
	.loc 1 1498 0
	sall	%cl, %eax
	testl	%eax, (%esi,%edx,4)
	je	.L471
.L469:
.LBB93:
	.loc 1 1501 0
	call	sys_arch_protect
.LVL428:
	movl	%eax, -108(%ebp)
.LVL429:
	.loc 1 1502 0
	movl	-92(%ebp), %eax
.LVL430:
	call	tryget_socket
.LVL431:
	movl	%eax, -104(%ebp)
.LVL432:
	.loc 1 1503 0
	movl	-92(%ebp), %eax
.LVL433:
	call	tryget_event
.LVL434:
	.loc 1 1504 0
	cmpl	$0, -104(%ebp)
	movl	-108(%ebp), %edx
	je	.L472
	.loc 1 1505 0
	movl	-104(%ebp), %eax
.LVL435:
	incb	17(%eax)
	jmp	.L473
.LVL436:
.L472:
	.loc 1 1507 0
	testl	%eax, %eax
	je	.L474
	.loc 1 1508 0
	movl	%edi, 20(%eax)
	jmp	.L473
.L474:
.LVL437:
	.loc 1 1513 0
	subl	$12, %esp
	orl	$-1, %edi
	pushl	%edx
	call	sys_arch_unprotect
.LVL438:
	addl	$16, %esp
	jmp	.L546
.LVL439:
.L473:
	.loc 1 1516 0
	subl	$12, %esp
	pushl	%edx
	call	sys_arch_unprotect
.LVL440:
	addl	$16, %esp
.LVL441:
.L471:
.LBE93:
	.loc 1 1495 0 discriminator 2
	incl	-92(%ebp)
.LVL442:
	jmp	.L467
.LVL443:
.L548:
	.loc 1 1523 0
	leal	-36(%ebp), %eax
.LVL444:
	movl	-100(%ebp), %ecx
	movl	-96(%ebp), %edx
	pushl	%eax
	leal	-44(%ebp), %eax
	pushl	%eax
	leal	-52(%ebp), %eax
	pushl	%eax
	movl	8(%ebp), %eax
	pushl	%esi
	call	lwip_selscan
.LVL445:
	.loc 1 1524 0
	addl	$16, %esp
	testl	%eax, %eax
	.loc 1 1523 0
	movl	%eax, %edi
.LVL446:
	.loc 1 1524 0
	jne	.L549
	.loc 1 1528 0
	xorl	%eax, %eax
.LVL447:
	.loc 1 1526 0
	testl	%ebx, %ebx
	je	.L478
	.loc 1 1530 0
	movl	4(%ebx), %eax
	movl	$1000, %ecx
	addl	$500, %eax
	cltd
	idivl	%ecx
	imull	$1000, (%ebx), %ecx
.LVL448:
	.loc 1 1533 0
	movl	$1, %edx
	addl	%ecx, %eax
.LVL449:
	cmove	%edx, %eax
.LVL450:
.L478:
	.loc 1 1537 0
	pushl	%edx
	pushl	%edx
	pushl	%eax
	leal	-56(%ebp), %eax
.LVL451:
	pushl	%eax
.LVL452:
	call	sys_arch_sem_wait
.LVL453:
	movl	%eax, -104(%ebp)
.LVL454:
	movl	8(%ebp), %eax
.LVL455:
	addl	$16, %esp
	movl	%eax, -92(%ebp)
.LVL456:
.L475:
	.loc 1 1545 0
	xorl	%ebx, %ebx
.LVL457:
.L479:
	.loc 1 1545 0 is_stmt 0 discriminator 1
	cmpl	-92(%ebp), %ebx
	jl	.L486
	.loc 1 1573 0 is_stmt 1
	call	sys_arch_protect
.LVL458:
	.loc 1 1574 0
	movl	-80(%ebp), %edx
	testl	%edx, %edx
	je	.L487
	.loc 1 1575 0
	movl	-76(%ebp), %ecx
	movl	%ecx, 4(%edx)
.L487:
	.loc 1 1577 0
	leal	-80(%ebp), %ecx
	cmpl	%ecx, select_cb_list
	jne	.L488
	.loc 1 1579 0
	movl	%edx, select_cb_list
.L489:
	.loc 1 1585 0
	movl	select_cb_ctr, %edx
	.loc 1 1586 0
	subl	$12, %esp
	pushl	%eax
	.loc 1 1585 0
	incl	%edx
	movl	%edx, select_cb_ctr
	.loc 1 1586 0
	call	sys_arch_unprotect
.LVL459:
	.loc 1 1594 0
	leal	-56(%ebp), %eax
	movl	%eax, (%esp)
	call	sys_sem_free
.LVL460:
	.loc 1 1597 0
	addl	$16, %esp
	testl	%edi, %edi
	jns	.L490
	.loc 1 1599 0 discriminator 1
	call	__errno
.LVL461:
	.loc 1 1599 0 discriminator 1
	movl	$9, (%eax)
.LVL462:
.L547:
	.loc 1 1600 0 discriminator 1
	orl	$-1, %eax
	jmp	.L465
.LVL463:
.L490:
	.loc 1 1603 0
	cmpl	$-1, -104(%ebp)
	je	.L462
	.loc 1 1612 0
	leal	-36(%ebp), %eax
	movl	-100(%ebp), %ecx
	movl	-96(%ebp), %edx
	pushl	%eax
	leal	-44(%ebp), %eax
	pushl	%eax
	leal	-52(%ebp), %eax
	pushl	%eax
	movl	8(%ebp), %eax
	pushl	%esi
	call	lwip_selscan
.LVL464:
	addl	$16, %esp
	movl	%eax, %edi
.LVL465:
.L462:
	.loc 1 1618 0
	cmpl	$0, -96(%ebp)
	je	.L491
	.loc 1 1619 0
	movl	-96(%ebp), %ebx
	movl	-52(%ebp), %eax
	movl	-48(%ebp), %edx
	movl	%eax, (%ebx)
	movl	%edx, 4(%ebx)
.L491:
	.loc 1 1621 0
	cmpl	$0, -100(%ebp)
	je	.L492
	.loc 1 1622 0
	movl	-100(%ebp), %ebx
	movl	-44(%ebp), %eax
	movl	-40(%ebp), %edx
	movl	%eax, (%ebx)
	movl	%edx, 4(%ebx)
.L492:
	.loc 1 1624 0
	testl	%esi, %esi
	.loc 1 1627 0
	movl	%edi, %eax
	.loc 1 1624 0
	je	.L465
.LVL466:
	.loc 1 1625 0
	movl	-36(%ebp), %eax
.LVL467:
	movl	-32(%ebp), %edx
	movl	%eax, (%esi)
	movl	%edx, 4(%esi)
	.loc 1 1627 0
	movl	%edi, %eax
.LVL468:
.L465:
	.loc 1 1628 0
	movl	-28(%ebp), %esi
	xorl	%gs:20, %esi
	je	.L494
	call	__stack_chk_fail
.LVL469:
.L486:
	.loc 1 1546 0
	cmpl	$0, -96(%ebp)
	je	.L480
	.loc 1 1546 0 is_stmt 0 discriminator 1
	movl	%ebx, %ecx
	movl	$1, %eax
	.loc 1 1546 0 is_stmt 1 discriminator 1
	movl	%ebx, %edx
	.loc 1 1546 0 discriminator 1
	sall	%cl, %eax
	movl	-96(%ebp), %ecx
	.loc 1 1546 0 discriminator 1
	shrl	$5, %edx
	.loc 1 1546 0 discriminator 1
	testl	%eax, (%ecx,%edx,4)
	jne	.L481
.L480:
	.loc 1 1546 0 discriminator 3
	cmpl	$0, -100(%ebp)
	je	.L482
	.loc 1 1547 0
	movl	%ebx, %ecx
	movl	$1, %eax
	.loc 1 1547 0
	movl	%ebx, %edx
	.loc 1 1547 0
	sall	%cl, %eax
	movl	-100(%ebp), %ecx
	.loc 1 1547 0
	shrl	$5, %edx
	.loc 1 1547 0
	testl	%eax, (%ecx,%edx,4)
	jne	.L481
.L482:
	.loc 1 1547 0 discriminator 1
	testl	%esi, %esi
	je	.L483
	.loc 1 1548 0
	movl	%ebx, %edx
	.loc 1 1548 0
	movl	$1, %eax
	movl	%ebx, %ecx
	.loc 1 1548 0
	shrl	$5, %edx
	.loc 1 1548 0
	sall	%cl, %eax
	testl	%eax, (%esi,%edx,4)
	je	.L483
.L481:
.LBB94:
	.loc 1 1551 0
	call	sys_arch_protect
.LVL470:
	movl	%eax, -112(%ebp)
.LVL471:
	.loc 1 1552 0
	movl	%ebx, %eax
.LVL472:
	call	tryget_socket
.LVL473:
	movl	%eax, -108(%ebp)
.LVL474:
	.loc 1 1553 0
	movl	%ebx, %eax
.LVL475:
	call	tryget_event
.LVL476:
	.loc 1 1554 0
	cmpl	$0, -108(%ebp)
	movl	-112(%ebp), %edx
	je	.L484
	.loc 1 1559 0
	movl	-108(%ebp), %eax
.LVL477:
	movb	17(%eax), %al
	testb	%al, %al
	je	.L485
	.loc 1 1560 0
	movl	-108(%ebp), %ecx
	decl	%eax
	movb	%al, 17(%ecx)
	jmp	.L485
.LVL478:
.L484:
	.loc 1 1562 0
	testl	%eax, %eax
	je	.L496
	.loc 1 1563 0
	movl	$0, 20(%eax)
	jmp	.L485
.L496:
	.loc 1 1567 0
	orl	$-1, %edi
.LVL479:
.L485:
	.loc 1 1569 0
	subl	$12, %esp
	pushl	%edx
	call	sys_arch_unprotect
.LVL480:
	addl	$16, %esp
.LVL481:
.L483:
.LBE94:
	.loc 1 1545 0 discriminator 2
	incl	%ebx
.LVL482:
	jmp	.L479
.LVL483:
.L488:
	.loc 1 1582 0
	movl	-76(%ebp), %ecx
	movl	%edx, (%ecx)
	jmp	.L489
.LVL484:
.L549:
	movl	8(%ebp), %eax
.LVL485:
	movl	%eax, -92(%ebp)
.LVL486:
.L546:
	.loc 1 1427 0
	movl	$0, -104(%ebp)
	jmp	.L475
.LVL487:
.L494:
	.loc 1 1628 0
	leal	-12(%ebp), %esp
	popl	%ebx
	.cfi_restore 3
	popl	%esi
	.cfi_restore 6
	popl	%edi
	.cfi_restore 7
	popl	%ebp
	.cfi_restore 5
	.cfi_def_cfa 4, 4
	ret
	.cfi_endproc
.LFE46:
	.size	lwip_select, .-lwip_select
	.section	.text.unlikely.lwip_select
.LCOLDE30:
	.section	.text.lwip_select
.LHOTE30:
	.section	.text.unlikely.lwip_shutdown,"ax",@progbits
.LCOLDB31:
	.section	.text.lwip_shutdown,"ax",@progbits
.LHOTB31:
	.globl	lwip_shutdown
	.type	lwip_shutdown, @function
lwip_shutdown:
.LFB48:
	.loc 1 1757 0
	.cfi_startproc
.LVL488:
	pushl	%ebp
	.cfi_def_cfa_offset 8
	.cfi_offset 5, -8
	movl	%esp, %ebp
	.cfi_def_cfa_register 5
	pushl	%edi
	pushl	%esi
	pushl	%ebx
	subl	$12, %esp
	.cfi_offset 7, -12
	.cfi_offset 6, -16
	.cfi_offset 3, -20
	.loc 1 1764 0
	movl	8(%ebp), %eax
	.loc 1 1757 0
	movl	12(%ebp), %esi
	.loc 1 1764 0
	call	get_socket
.LVL489:
	movl	%eax, %ebx
.LVL490:
	.loc 1 1766 0
	orl	$-1, %eax
.LVL491:
	.loc 1 1765 0
	testl	%ebx, %ebx
	je	.L551
	.loc 1 1769 0
	movl	(%ebx), %ecx
	testl	%ecx, %ecx
	je	.L552
	.loc 1 1770 0
	movl	(%ecx), %eax
	andl	$240, %eax
	cmpl	$16, %eax
	je	.L553
.LVL492:
.LBB95:
	.loc 1 1771 0
	movb	$95, 16(%ebx)
	.loc 1 1771 0
	call	__errno
.LVL493:
	.loc 1 1771 0
	movl	$95, (%eax)
	jmp	.L565
.LVL494:
.L552:
.LBE95:
.LBB96:
	.loc 1 1775 0
	movb	$107, 16(%ebx)
	.loc 1 1775 0
	call	__errno
.LVL495:
	.loc 1 1775 0
	movl	$107, (%eax)
.LVL496:
.L565:
.LBE96:
	.loc 1 1776 0
	orl	$-1, %eax
	jmp	.L551
.L553:
	.loc 1 1779 0
	testl	%esi, %esi
	je	.L557
	.loc 1 1781 0
	cmpl	$1, %esi
	.loc 1 1782 0
	movl	$1, %edx
	.loc 1 1781 0
	je	.L558
	.loc 1 1783 0
	cmpl	$2, %esi
	.loc 1 1784 0
	movl	$1, %eax
	.loc 1 1783 0
	je	.L554
.LVL497:
.LBB97:
	.loc 1 1787 0
	movb	$22, 16(%ebx)
	.loc 1 1787 0
	call	__errno
.LVL498:
	.loc 1 1787 0
	movl	$22, (%eax)
	jmp	.L565
.LVL499:
.L557:
.LBE97:
	.loc 1 1760 0
	xorl	%edx, %edx
	.loc 1 1780 0
	movl	$1, %eax
	jmp	.L554
.L558:
	.loc 1 1760 0
	xorl	%eax, %eax
.L554:
.LVL500:
	.loc 1 1790 0
	pushl	%esi
	pushl	%edx
	pushl	%eax
	pushl	%ecx
	call	netconn_shutdown
.LVL501:
	movl	%eax, %edi
.LVL502:
.LBB98:
	.loc 1 1792 0
	movsbl	%al, %eax
.LVL503:
	movl	%eax, (%esp)
	call	err_to_errno
.LVL504:
	addl	$16, %esp
	testl	%eax, %eax
	movl	%eax, %esi
.LVL505:
	movb	%al, 16(%ebx)
	je	.L555
	.loc 1 1792 0 discriminator 1
	call	__errno
.LVL506:
	.loc 1 1792 0 discriminator 1
	movl	%esi, (%eax)
.L555:
.LBE98:
	.loc 1 1793 0
	movl	%edi, %eax
	testb	%al, %al
	setne	%al
	movzbl	%al, %eax
	negl	%eax
.LVL507:
.L551:
	.loc 1 1794 0
	leal	-12(%ebp), %esp
	popl	%ebx
	.cfi_restore 3
.LVL508:
	popl	%esi
	.cfi_restore 6
	popl	%edi
	.cfi_restore 7
	popl	%ebp
	.cfi_restore 5
	.cfi_def_cfa 4, 4
	ret
	.cfi_endproc
.LFE48:
	.size	lwip_shutdown, .-lwip_shutdown
	.section	.text.unlikely.lwip_shutdown
.LCOLDE31:
	.section	.text.lwip_shutdown
.LHOTE31:
	.section	.text.unlikely.lwip_getpeername,"ax",@progbits
.LCOLDB32:
	.section	.text.lwip_getpeername,"ax",@progbits
.LHOTB32:
	.globl	lwip_getpeername
	.type	lwip_getpeername, @function
lwip_getpeername:
.LFB50:
	.loc 1 1834 0
	.cfi_startproc
.LVL509:
	pushl	%ebp
	.cfi_def_cfa_offset 8
	.cfi_offset 5, -8
	movl	%esp, %ebp
	.cfi_def_cfa_register 5
	.loc 1 1834 0
	movl	8(%ebp), %eax
	.loc 1 1835 0
	movl	16(%ebp), %ecx
	movl	$0, 8(%ebp)
.LVL510:
	movl	12(%ebp), %edx
	.loc 1 1836 0
	popl	%ebp
	.cfi_restore 5
	.cfi_def_cfa 4, 4
	.loc 1 1835 0
	jmp	lwip_getaddrname
.LVL511:
	.cfi_endproc
.LFE50:
	.size	lwip_getpeername, .-lwip_getpeername
	.section	.text.unlikely.lwip_getpeername
.LCOLDE32:
	.section	.text.lwip_getpeername
.LHOTE32:
	.section	.text.unlikely.lwip_getsockname,"ax",@progbits
.LCOLDB33:
	.section	.text.lwip_getsockname,"ax",@progbits
.LHOTB33:
	.globl	lwip_getsockname
	.type	lwip_getsockname, @function
lwip_getsockname:
.LFB51:
	.loc 1 1840 0
	.cfi_startproc
.LVL512:
	pushl	%ebp
	.cfi_def_cfa_offset 8
	.cfi_offset 5, -8
	movl	%esp, %ebp
	.cfi_def_cfa_register 5
	.loc 1 1840 0
	movl	8(%ebp), %eax
	.loc 1 1841 0
	movl	16(%ebp), %ecx
	movl	$1, 8(%ebp)
.LVL513:
	movl	12(%ebp), %edx
	.loc 1 1842 0
	popl	%ebp
	.cfi_restore 5
	.cfi_def_cfa 4, 4
	.loc 1 1841 0
	jmp	lwip_getaddrname
.LVL514:
	.cfi_endproc
.LFE51:
	.size	lwip_getsockname, .-lwip_getsockname
	.section	.text.unlikely.lwip_getsockname
.LCOLDE33:
	.section	.text.lwip_getsockname
.LHOTE33:
	.section	.text.unlikely.lwip_getsockopt,"ax",@progbits
.LCOLDB34:
	.section	.text.lwip_getsockopt,"ax",@progbits
.LHOTB34:
	.globl	lwip_getsockopt
	.type	lwip_getsockopt, @function
lwip_getsockopt:
.LFB52:
	.loc 1 1846 0
	.cfi_startproc
.LVL515:
	pushl	%ebp
	.cfi_def_cfa_offset 8
	.cfi_offset 5, -8
	movl	%esp, %ebp
	.cfi_def_cfa_register 5
	pushl	%edi
	pushl	%esi
	pushl	%ebx
	subl	$28, %esp
	.cfi_offset 7, -12
	.cfi_offset 6, -16
	.cfi_offset 3, -20
	.loc 1 1846 0
	movl	8(%ebp), %ebx
	movl	16(%ebp), %edx
	movl	24(%ebp), %ecx
	movl	20(%ebp), %esi
	.loc 1 1848 0
	movl	%ebx, %eax
	.loc 1 1846 0
	movl	%edx, -36(%ebp)
	movl	%ecx, -32(%ebp)
	.loc 1 1848 0
	call	get_socket
.LVL516:
	movl	%eax, -28(%ebp)
.LVL517:
	.loc 1 1854 0
	orl	$-1, %eax
.LVL518:
	.loc 1 1853 0
	cmpl	$0, -28(%ebp)
	je	.L571
	.loc 1 1857 0
	testl	%esi, %esi
	je	.L656
	movl	-32(%ebp), %ecx
	movl	-36(%ebp), %edx
	testl	%ecx, %ecx
	jne	.L572
.L656:
.LVL519:
.LBB106:
	.loc 1 1858 0
	movl	-28(%ebp), %eax
	movb	$14, 16(%eax)
	.loc 1 1858 0
	call	__errno
.LVL520:
	.loc 1 1858 0
	movl	$14, (%eax)
.LBE106:
	.loc 1 1859 0
	orl	$-1, %eax
	jmp	.L571
.LVL521:
.L572:
	.loc 1 1864 0
	subl	$12, %esp
	movl	%ecx, -36(%ebp)
	movl	%edx, -32(%ebp)
	pushl	$lock_tcpip_core
	call	sys_mutex_lock
.LVL522:
.LBB107:
.LBB108:
	.loc 1 1946 0
	movl	%ebx, %eax
	.loc 1 1948 0
	movb	$9, %bl
.LVL523:
	.loc 1 1946 0
	call	tryget_socket
.LVL524:
	.loc 1 1947 0
	addl	$16, %esp
	testl	%eax, %eax
	.loc 1 1946 0
	movl	%eax, %edi
.LVL525:
	.loc 1 1947 0
	je	.L574
	.loc 1 1951 0
	cmpl	$6, 12(%ebp)
	movl	-32(%ebp), %edx
	movl	-36(%ebp), %ecx
	je	.L575
	cmpl	$4095, 12(%ebp)
	je	.L576
	cmpl	$0, 12(%ebp)
	jne	.L633
	jmp	.L683
.L576:
	.loc 1 1955 0
	cmpl	$4101, %edx
	je	.L578
	jg	.L579
	cmpl	$4, %edx
	je	.L580
	jg	.L581
	cmpl	$2, %edx
	je	.L582
	jmp	.L633
.L581:
	cmpl	$8, %edx
	je	.L580
	cmpl	$32, %edx
	je	.L580
	jmp	.L633
.LVL526:
.L579:
	cmpl	$4103, %edx
	je	.L583
	jl	.L584
	cmpl	$4104, %edx
	je	.L585
	cmpl	$4106, %edx
	je	.L586
	jmp	.L633
.L582:
	.loc 1 1959 0
	cmpl	$3, (%ecx)
	movb	$22, %bl
	jbe	.L574
	movl	(%eax), %eax
.LVL527:
	testl	%eax, %eax
	je	.L574
	.loc 1 1959 0
	movl	8(%eax), %edx
.LVL528:
	testl	%edx, %edx
	je	.L574
	.loc 1 1960 0
	movl	(%eax), %eax
	.loc 1 1961 0
	movb	$92, %bl
	.loc 1 1960 0
	andl	$240, %eax
	cmpl	$16, %eax
	jne	.L574
	.loc 1 1963 0
	cmpl	$1, 20(%edx)
	je	.L591
	.loc 1 1966 0
	movl	$0, (%esi)
	jmp	.L679
.LVL529:
.L580:
	.loc 1 1977 0
	cmpl	$3, (%ecx)
	.loc 1 1959 0
	movb	$22, %bl
	.loc 1 1977 0
	jbe	.L574
	movl	(%edi), %eax
.LVL530:
	testl	%eax, %eax
	je	.L574
	.loc 1 1977 0
	movl	8(%eax), %eax
	testl	%eax, %eax
	je	.L574
	.loc 1 1978 0
	movzbl	8(%eax), %eax
	andl	%eax, %edx
.LVL531:
	jmp	.L676
.LVL532:
.L585:
	.loc 1 1984 0
	cmpl	$3, (%ecx)
	.loc 1 1959 0
	movb	$22, %bl
	.loc 1 1984 0
	jbe	.L574
	movl	(%eax), %eax
.LVL533:
	testl	%eax, %eax
	je	.L574
	.loc 1 1985 0
	movl	(%eax), %edx
.LVL534:
	movl	%edx, %eax
	andl	$240, %eax
	cmpl	$32, %eax
	je	.L589
	cmpl	$64, %eax
	je	.L590
	cmpl	$16, %eax
	jne	.L676
	jmp	.L591
.L590:
	.loc 1 1987 0
	movl	$3, (%esi)
	jmp	.L679
.L591:
	.loc 1 1990 0
	movl	$1, (%esi)
	jmp	.L679
.L589:
	.loc 1 1993 0
	movl	$2, (%esi)
	jmp	.L679
.L676:
	.loc 1 1996 0
	movl	%edx, (%esi)
	jmp	.L679
.LVL535:
.L583:
	.loc 1 2006 0
	cmpl	$3, (%ecx)
	.loc 1 1959 0
	movb	$22, %bl
	.loc 1 2006 0
	jbe	.L574
	.loc 1 2008 0
	movb	16(%eax), %al
.LVL536:
	testb	%al, %al
	je	.L592
	cmpb	$115, %al
	jne	.L593
.L592:
	movl	(%edi), %eax
	testl	%eax, %eax
	je	.L593
.LBB109:
	.loc 1 2009 0
	movsbl	12(%eax), %eax
	subl	$12, %esp
	pushl	%eax
	call	err_to_errno
.LVL537:
	addl	$16, %esp
	testl	%eax, %eax
	movl	%eax, %ebx
.LVL538:
	movb	%al, 16(%edi)
	je	.L593
	.loc 1 2009 0
	call	__errno
.LVL539:
	.loc 1 2009 0
	movl	%ebx, (%eax)
.LVL540:
.L593:
.LBE109:
	.loc 1 2011 0
	movzbl	16(%edi), %ecx
	orl	$-1, %edx
	movl	%ecx, %eax
	incb	%al
	cmovne	%ecx, %edx
	movl	%edx, (%esi)
	.loc 1 2012 0
	movb	$0, 16(%edi)
	jmp	.L679
.LVL541:
.L578:
	.loc 1 2019 0
	cmpl	$7, (%ecx)
	.loc 1 1959 0
	movb	$22, %bl
	.loc 1 2019 0
	jbe	.L574
	movl	(%eax), %eax
.LVL542:
	testl	%eax, %eax
	je	.L574
.LVL543:
.LBB110:
	.loc 1 2020 0
	movl	32(%eax), %eax
.LVL544:
	jmp	.L682
.LVL545:
.L584:
.LBE110:
	.loc 1 2025 0
	cmpl	$7, (%ecx)
	.loc 1 1959 0
	movb	$22, %bl
	.loc 1 2025 0
	jbe	.L574
	movl	(%eax), %eax
.LVL546:
	testl	%eax, %eax
	je	.L574
.LVL547:
.LBB111:
	.loc 1 2026 0
	movl	36(%eax), %eax
.LVL548:
.L682:
	movl	$1000, %ecx
.LVL549:
	xorl	%edx, %edx
.LVL550:
	divl	%ecx
	movl	%eax, (%esi)
	imull	$1000, %edx, %eax
	movl	%eax, 4(%esi)
	jmp	.L679
.LVL551:
.L586:
.LBE111:
	.loc 1 2054 0
	cmpl	$3, (%ecx)
	.loc 1 1959 0
	movb	$22, %bl
	.loc 1 2054 0
	jbe	.L574
	movl	(%eax), %eax
.LVL552:
	testl	%eax, %eax
	je	.L574
	.loc 1 2054 0
	movl	8(%eax), %edx
.LVL553:
	testl	%edx, %edx
	je	.L574
	.loc 1 2054 0
	movl	(%eax), %eax
	movb	$92, %bl
	andl	$240, %eax
	cmpl	$32, %eax
	jne	.L574
	.loc 1 2061 0
	movb	16(%edx), %al
	jmp	.L681
.LVL554:
.L683:
	.loc 1 2074 0
	decl	%edx
.LVL555:
	cmpl	$6, %edx
	ja	.L633
	jmp	*.L597(,%edx,4)
	.section	.rodata.lwip_getsockopt,"a",@progbits
	.align 4
	.align 4
.L597:
	.long	.L596
	.long	.L598
	.long	.L633
	.long	.L633
	.long	.L599
	.long	.L600
	.long	.L601
	.section	.text.lwip_getsockopt
.L598:
	.loc 1 2076 0
	cmpl	$3, (%ecx)
	.loc 1 1959 0
	movb	$22, %bl
	.loc 1 2076 0
	jbe	.L574
	movl	(%eax), %eax
.LVL556:
	testl	%eax, %eax
	je	.L574
	.loc 1 2076 0
	movl	8(%eax), %eax
	testl	%eax, %eax
	je	.L574
	.loc 1 2077 0
	movzbl	10(%eax), %eax
	jmp	.L678
.LVL557:
.L596:
	.loc 1 2082 0
	cmpl	$3, (%ecx)
	.loc 1 1959 0
	movb	$22, %bl
	.loc 1 2082 0
	jbe	.L574
	movl	(%eax), %eax
.LVL558:
	testl	%eax, %eax
	je	.L574
	.loc 1 2082 0
	movl	8(%eax), %eax
	testl	%eax, %eax
	je	.L574
	.loc 1 2083 0
	movzbl	9(%eax), %eax
	jmp	.L678
.LVL559:
.L599:
	.loc 1 2089 0
	cmpl	$0, (%ecx)
	.loc 1 1959 0
	movb	$22, %bl
	.loc 1 2089 0
	je	.L574
	movl	(%eax), %eax
.LVL560:
	testl	%eax, %eax
	je	.L574
	.loc 1 2089 0
	movl	8(%eax), %edx
	testl	%edx, %edx
	je	.L574
	.loc 1 2090 0
	movl	(%eax), %eax
	.loc 1 2054 0
	movb	$92, %bl
	.loc 1 2090 0
	andl	$240, %eax
	cmpl	$32, %eax
	jne	.L574
	.loc 1 2093 0
	movb	28(%edx), %al
	movb	%al, (%esi)
	jmp	.L679
.LVL561:
.L600:
	.loc 1 2098 0
	cmpl	$3, (%ecx)
	.loc 1 1959 0
	movb	$22, %bl
	.loc 1 2098 0
	jbe	.L574
	movl	(%eax), %eax
.LVL562:
	testl	%eax, %eax
	je	.L574
	.loc 1 2098 0
	movl	8(%eax), %edx
	testl	%edx, %edx
	je	.L574
	.loc 1 2099 0
	movl	(%eax), %eax
	.loc 1 2054 0
	movb	$92, %bl
	.loc 1 2099 0
	andl	$240, %eax
	cmpl	$32, %eax
	jne	.L574
	.loc 1 2102 0
	movl	24(%edx), %eax
	jmp	.L678
.LVL563:
.L601:
	.loc 1 2107 0
	cmpl	$0, (%ecx)
	.loc 1 1959 0
	movb	$22, %bl
	.loc 1 2107 0
	je	.L574
	movl	(%eax), %eax
.LVL564:
	testl	%eax, %eax
	je	.L574
	.loc 1 2107 0
	movl	8(%eax), %eax
	testl	%eax, %eax
	je	.L574
	movb	16(%eax), %bl
	.loc 1 2108 0
	andb	$8, %bl
	je	.L602
	.loc 1 2109 0
	movb	$1, (%esi)
	jmp	.L679
.L602:
	.loc 1 2111 0
	movb	$0, (%esi)
	jmp	.L574
.LVL565:
.L575:
	.loc 1 2129 0
	cmpl	$3, (%ecx)
	.loc 1 1959 0
	movb	$22, %bl
	.loc 1 2129 0
	jbe	.L574
	movl	(%eax), %ecx
.LVL566:
	testl	%ecx, %ecx
	je	.L574
	.loc 1 2129 0
	movl	8(%ecx), %eax
.LVL567:
	testl	%eax, %eax
	je	.L574
	.loc 1 2129 0
	movl	(%ecx), %ecx
	.loc 1 2054 0
	movb	$92, %bl
	.loc 1 2129 0
	andl	$240, %ecx
	cmpl	$16, %ecx
	jne	.L574
	.loc 1 2130 0
	decl	%edx
.LVL568:
	cmpl	$4, %edx
	ja	.L574
	jmp	*.L604(,%edx,4)
	.section	.rodata.lwip_getsockopt
	.align 4
	.align 4
.L604:
	.long	.L603
	.long	.L605
	.long	.L606
	.long	.L607
	.long	.L608
	.section	.text.lwip_getsockopt
.L603:
	.loc 1 2132 0
	movw	30(%eax), %ax
	shrw	$6, %ax
.L681:
	andl	$1, %eax
	jmp	.L678
.L605:
	.loc 1 2137 0
	movl	148(%eax), %eax
	jmp	.L678
.L606:
	.loc 1 2144 0
	movl	148(%eax), %eax
	jmp	.L680
.L607:
	.loc 1 2149 0
	movl	152(%eax), %eax
.L680:
	movl	$1000, %ecx
	xorl	%edx, %edx
	divl	%ecx
	jmp	.L678
.L608:
	.loc 1 2154 0
	movl	156(%eax), %eax
.L678:
	movl	%eax, (%esi)
.LVL569:
.L679:
	.loc 1 1945 0
	xorl	%ebx, %ebx
	jmp	.L574
.LVL570:
.L633:
	.loc 1 2120 0
	movb	$92, %bl
.LVL571:
.L574:
.LBE108:
.LBE107:
	.loc 1 1866 0
	subl	$12, %esp
	pushl	$lock_tcpip_core
	call	sys_mutex_unlock
.LVL572:
.LBB112:
	.loc 1 1912 0
	movl	-28(%ebp), %eax
	addl	$16, %esp
	testb	%bl, %bl
	movb	%bl, 16(%eax)
	je	.L609
	.loc 1 1912 0 discriminator 1
	call	__errno
.LVL573:
	.loc 1 1912 0 discriminator 1
	movzbl	%bl, %edx
.LVL574:
	movl	%edx, (%eax)
.LVL575:
.L609:
.LBE112:
	.loc 1 1913 0
	xorl	%eax, %eax
	testb	%bl, %bl
	setne	%al
	negl	%eax
.LVL576:
.L571:
	.loc 1 1914 0
	leal	-12(%ebp), %esp
	popl	%ebx
	.cfi_restore 3
	popl	%esi
	.cfi_restore 6
	popl	%edi
	.cfi_restore 7
	popl	%ebp
	.cfi_restore 5
	.cfi_def_cfa 4, 4
	ret
	.cfi_endproc
.LFE52:
	.size	lwip_getsockopt, .-lwip_getsockopt
	.section	.text.unlikely.lwip_getsockopt
.LCOLDE34:
	.section	.text.lwip_getsockopt
.LHOTE34:
	.section	.text.unlikely.lwip_setsockopt,"ax",@progbits
.LCOLDB35:
	.section	.text.lwip_setsockopt,"ax",@progbits
.LHOTB35:
	.globl	lwip_setsockopt
	.type	lwip_setsockopt, @function
lwip_setsockopt:
.LFB54:
	.loc 1 2253 0
	.cfi_startproc
.LVL577:
	pushl	%ebp
	.cfi_def_cfa_offset 8
	.cfi_offset 5, -8
	movl	%esp, %ebp
	.cfi_def_cfa_register 5
	pushl	%edi
	pushl	%esi
	pushl	%ebx
	subl	$44, %esp
	.cfi_offset 7, -12
	.cfi_offset 6, -16
	.cfi_offset 3, -20
	.loc 1 2253 0
	movl	24(%ebp), %edx
	movl	16(%ebp), %edi
	movl	%gs:20, %eax
	movl	%eax, -28(%ebp)
	xorl	%eax, %eax
.LVL578:
	.loc 1 2255 0
	movl	8(%ebp), %eax
	.loc 1 2253 0
	movl	20(%ebp), %esi
	movl	%edx, -48(%ebp)
	.loc 1 2255 0
	call	get_socket
.LVL579:
	movl	%eax, -44(%ebp)
.LVL580:
	.loc 1 2261 0
	orl	$-1, %eax
.LVL581:
	.loc 1 2260 0
	cmpl	$0, -44(%ebp)
	je	.L685
	.loc 1 2264 0
	testl	%esi, %esi
	movl	-48(%ebp), %edx
	jne	.L686
.LVL582:
.LBB123:
	.loc 1 2265 0
	movl	-44(%ebp), %eax
	movb	$14, 16(%eax)
	.loc 1 2265 0
	call	__errno
.LVL583:
	.loc 1 2265 0
	movl	$14, (%eax)
.LBE123:
	.loc 1 2266 0
	orl	$-1, %eax
	jmp	.L685
.LVL584:
.L686:
	.loc 1 2271 0
	subl	$12, %esp
	movl	%edx, -48(%ebp)
.LBB124:
.LBB125:
	.loc 1 2350 0
	movb	$9, %bl
.LBE125:
.LBE124:
	.loc 1 2271 0
	pushl	$lock_tcpip_core
	call	sys_mutex_lock
.LVL585:
.LBB138:
.LBB137:
	.loc 1 2348 0
	movl	8(%ebp), %eax
	call	tryget_socket
.LVL586:
	.loc 1 2349 0
	addl	$16, %esp
	testl	%eax, %eax
	je	.L687
	.loc 1 2353 0
	cmpl	$6, 12(%ebp)
	movl	-48(%ebp), %edx
	je	.L688
	cmpl	$4095, 12(%ebp)
	je	.L689
	cmpl	$0, 12(%ebp)
	jne	.L726
	jmp	.L791
.L689:
	.loc 1 2357 0
	cmpl	$32, %edi
	je	.L691
	jg	.L692
	cmpl	$4, %edi
	je	.L691
	cmpl	$8, %edi
	jne	.L726
	jmp	.L691
.L692:
	cmpl	$4102, %edi
	je	.L693
	cmpl	$4106, %edi
	je	.L694
	cmpl	$4101, %edi
	jne	.L726
	jmp	.L792
.L691:
	.loc 1 2367 0
	cmpl	$3, %edx
	movb	$22, %bl
	jbe	.L687
	movl	(%eax), %eax
.LVL587:
	testl	%eax, %eax
	je	.L687
	.loc 1 2367 0
	movl	8(%eax), %eax
	testl	%eax, %eax
	je	.L687
	.loc 1 2368 0
	cmpl	$0, (%esi)
	je	.L696
	.loc 1 2369 0
	movl	%edi, %ecx
	orb	%cl, 8(%eax)
	jmp	.L789
.L696:
	.loc 1 2371 0
	movl	%edi, %edx
	notl	%edx
	andb	%dl, 8(%eax)
	jmp	.L789
.LVL588:
.L792:
	.loc 1 2382 0
	cmpl	$7, %edx
	.loc 1 2367 0
	movb	$22, %bl
	.loc 1 2382 0
	jbe	.L687
	movl	(%eax), %ecx
	testl	%ecx, %ecx
	je	.L687
	.loc 1 2383 0
	movl	4(%esi), %eax
.LVL589:
	xorl	%edx, %edx
.LVL590:
	imull	$1000, (%esi), %ebx
	movl	$1000, %esi
.LVL591:
	divl	%esi
	addl	%ebx, %eax
	movl	%eax, 32(%ecx)
	jmp	.L789
.LVL592:
.L693:
	.loc 1 2388 0
	cmpl	$7, %edx
	.loc 1 2367 0
	movb	$22, %bl
	.loc 1 2388 0
	jbe	.L687
	movl	(%eax), %ecx
	testl	%ecx, %ecx
	je	.L687
	.loc 1 2389 0
	movl	4(%esi), %eax
.LVL593:
	xorl	%edx, %edx
.LVL594:
	imull	$1000, (%esi), %ebx
	movl	$1000, %esi
.LVL595:
	divl	%esi
	addl	%ebx, %eax
	movl	%eax, 36(%ecx)
	jmp	.L789
.LVL596:
.L694:
	.loc 1 2420 0
	cmpl	$3, %edx
	.loc 1 2367 0
	movb	$22, %bl
	.loc 1 2420 0
	jbe	.L687
	movl	(%eax), %edx
.LVL597:
	testl	%edx, %edx
	je	.L687
	.loc 1 2420 0
	movl	8(%edx), %eax
.LVL598:
	testl	%eax, %eax
	je	.L687
	.loc 1 2420 0
	movl	(%edx), %edx
	movb	$92, %bl
	andl	$240, %edx
	cmpl	$32, %edx
	jne	.L687
	.loc 1 2427 0
	cmpl	$0, (%esi)
	je	.L697
	.loc 1 2428 0
	orb	$1, 16(%eax)
	jmp	.L789
.L697:
	.loc 1 2430 0
	andb	$-2, 16(%eax)
	jmp	.L789
.LVL599:
.L791:
	.loc 1 2444 0
	leal	-1(%edi), %ecx
	.loc 1 2513 0
	movb	$92, %bl
	.loc 1 2444 0
	cmpl	$6, %ecx
	ja	.L687
	.loc 1 2367 0
	movb	$22, %bl
	.loc 1 2444 0
	jmp	*.L699(,%ecx,4)
	.section	.rodata.lwip_setsockopt,"a",@progbits
	.align 4
	.align 4
.L699:
	.long	.L698
	.long	.L700
	.long	.L701
	.long	.L701
	.long	.L702
	.long	.L703
	.long	.L704
	.section	.text.lwip_setsockopt
.L700:
	.loc 1 2446 0
	cmpl	$3, %edx
	jbe	.L687
	movl	(%eax), %eax
.LVL600:
	testl	%eax, %eax
	je	.L687
	.loc 1 2446 0
	movl	8(%eax), %eax
	testl	%eax, %eax
	je	.L687
	.loc 1 2447 0
	movl	(%esi), %edx
.LVL601:
	movb	%dl, 10(%eax)
	jmp	.L789
.LVL602:
.L698:
	.loc 1 2452 0
	cmpl	$3, %edx
	jbe	.L687
	movl	(%eax), %eax
.LVL603:
	testl	%eax, %eax
	je	.L687
	.loc 1 2452 0
	movl	8(%eax), %eax
	testl	%eax, %eax
	je	.L687
	.loc 1 2453 0
	movl	(%esi), %edx
.LVL604:
	movb	%dl, 9(%eax)
	jmp	.L789
.LVL605:
.L702:
	.loc 1 2459 0
	testl	%edx, %edx
	je	.L687
	movl	(%eax), %eax
.LVL606:
	testl	%eax, %eax
	je	.L687
	.loc 1 2459 0
	movl	8(%eax), %edx
.LVL607:
	testl	%edx, %edx
	je	.L687
	.loc 1 2459 0
	movl	(%eax), %eax
	.loc 1 2420 0
	movb	$92, %bl
	.loc 1 2459 0
	andl	$240, %eax
	cmpl	$32, %eax
	jne	.L687
	.loc 1 2460 0
	movb	(%esi), %al
	movb	%al, 28(%edx)
	jmp	.L789
.LVL608:
.L703:
.LBB126:
	.loc 1 2465 0
	cmpl	$3, %edx
	jbe	.L687
	movl	(%eax), %eax
.LVL609:
	testl	%eax, %eax
	je	.L687
	.loc 1 2465 0
	movl	8(%eax), %edx
.LVL610:
	testl	%edx, %edx
	je	.L687
	.loc 1 2465 0
	movl	(%eax), %eax
.LBE126:
	.loc 1 2420 0
	movb	$92, %bl
.LBB127:
	.loc 1 2465 0
	andl	$240, %eax
	cmpl	$32, %eax
	jne	.L687
.LVL611:
	.loc 1 2467 0
	movl	(%esi), %eax
	movl	%eax, 24(%edx)
.LVL612:
	jmp	.L789
.LVL613:
.L704:
.LBE127:
	.loc 1 2471 0
	testl	%edx, %edx
	je	.L687
	movl	(%eax), %edx
.LVL614:
	testl	%edx, %edx
	je	.L687
	.loc 1 2471 0
	movl	8(%edx), %eax
.LVL615:
	testl	%eax, %eax
	je	.L687
	.loc 1 2471 0
	movl	(%edx), %edx
	.loc 1 2420 0
	movb	$92, %bl
	.loc 1 2471 0
	andl	$240, %edx
	cmpl	$32, %edx
	jne	.L687
	.loc 1 2472 0
	movb	(%esi), %bl
	testb	%bl, %bl
	je	.L705
	.loc 1 2473 0
	orb	$8, 16(%eax)
	jmp	.L789
.L705:
	.loc 1 2475 0
	andb	$-9, 16(%eax)
	jmp	.L687
.LVL616:
.L701:
.LBB128:
	.loc 1 2489 0
	cmpl	$7, %edx
	jbe	.L687
	movl	(%eax), %eax
.LVL617:
	testl	%eax, %eax
	je	.L687
	.loc 1 2489 0
	cmpl	$0, 8(%eax)
	je	.L687
	.loc 1 2489 0
	movl	(%eax), %eax
	movb	$92, %bl
	andl	$240, %eax
	cmpl	$32, %eax
	jne	.L687
	.loc 1 2490 0
	movl	4(%esi), %eax
	.loc 1 2492 0
	cmpl	$3, %edi
	.loc 1 2490 0
	movl	%eax, -36(%ebp)
	.loc 1 2491 0
	movl	(%esi), %eax
	movl	%eax, -32(%ebp)
	.loc 1 2492 0
	jne	.L707
.LVL618:
.LBB129:
.LBB130:
	.loc 1 2803 0
	movl	8(%ebp), %eax
	.loc 1 2806 0
	movb	$12, %bl
	.loc 1 2803 0
	call	get_socket
.LVL619:
	.loc 1 2806 0
	testl	%eax, %eax
	je	.L687
	xorl	%edx, %edx
.L711:
.LVL620:
	.loc 1 2811 0
	imull	$12, %edx, %ecx
	cmpl	$0, socket_ipv4_multicast_memberships(%ecx)
	jne	.L709
	.loc 1 2812 0
	movl	%eax, socket_ipv4_multicast_memberships(%ecx)
	.loc 1 2813 0
	movl	-36(%ebp), %eax
.LVL621:
.LVL622:
.LBE130:
.LBE129:
	.loc 1 2498 0
	pushl	%edx
	pushl	%edx
.LBB133:
.LBB131:
	.loc 1 2813 0
	movl	%eax, socket_ipv4_multicast_memberships+4(%ecx)
	.loc 1 2814 0
	movl	-32(%ebp), %eax
	movl	%eax, socket_ipv4_multicast_memberships+8(%ecx)
.LVL623:
.LBE131:
.LBE133:
	.loc 1 2498 0
	leal	-32(%ebp), %eax
	pushl	%eax
	leal	-36(%ebp), %eax
	pushl	%eax
	call	igmp_joingroup
.LVL624:
	addl	$16, %esp
	movb	%al, %bl
.LVL625:
	jmp	.L710
.LVL626:
.L709:
.LBB134:
.LBB132:
	.loc 1 2810 0
	incl	%edx
.LVL627:
	cmpl	$38, %edx
	jne	.L711
	movb	$12, %bl
	jmp	.L687
.LVL628:
.L707:
.LBE132:
.LBE134:
	.loc 1 2501 0
	pushl	%eax
	pushl	%eax
	leal	-32(%ebp), %eax
	pushl	%eax
	leal	-36(%ebp), %eax
	pushl	%eax
	call	igmp_leavegroup
.LVL629:
	movb	%al, %bl
.LVL630:
.LBB135:
.LBB136:
	.loc 1 2829 0
	movl	8(%ebp), %eax
.LVL631:
	call	get_socket
.LVL632:
	.loc 1 2832 0
	addl	$16, %esp
	testl	%eax, %eax
	je	.L710
	.loc 1 2838 0
	movl	-36(%ebp), %esi
.LVL633:
	.loc 1 2839 0
	movl	-32(%ebp), %edi
.LVL634:
	movl	$socket_ipv4_multicast_memberships, %ecx
	xorl	%edx, %edx
.L713:
.LVL635:
	.loc 1 2837 0
	cmpl	(%ecx), %eax
	jne	.L712
	cmpl	%esi, 4(%ecx)
	jne	.L712
	.loc 1 2838 0
	cmpl	%edi, 8(%ecx)
	jne	.L712
	.loc 1 2840 0
	imull	$12, %edx, %edx
.LVL636:
	movl	$0, socket_ipv4_multicast_memberships(%edx)
	.loc 1 2841 0
	movl	$0, socket_ipv4_multicast_memberships+4(%edx)
	.loc 1 2842 0
	movl	$0, socket_ipv4_multicast_memberships+8(%edx)
	jmp	.L710
.LVL637:
.L712:
	.loc 1 2836 0
	incl	%edx
.LVL638:
	addl	$12, %ecx
	cmpl	$38, %edx
	jne	.L713
.LVL639:
.L710:
.LBE136:
.LBE135:
	.loc 1 2504 0
	cmpb	$1, %bl
	sbbl	%ebx, %ebx
.LVL640:
	notl	%ebx
	andl	$99, %ebx
.LVL641:
	jmp	.L687
.LVL642:
.L688:
.LBE128:
	.loc 1 2522 0
	cmpl	$3, %edx
	.loc 1 2367 0
	movb	$22, %bl
	.loc 1 2522 0
	jbe	.L687
	movl	(%eax), %edx
.LVL643:
	testl	%edx, %edx
	je	.L687
	.loc 1 2522 0
	movl	8(%edx), %eax
.LVL644:
	testl	%eax, %eax
	je	.L687
	.loc 1 2522 0
	movl	(%edx), %edx
	.loc 1 2420 0
	movb	$92, %bl
	.loc 1 2522 0
	andl	$240, %edx
	cmpl	$16, %edx
	jne	.L687
	.loc 1 2523 0
	decl	%edi
.LVL645:
	cmpl	$4, %edi
	ja	.L687
	jmp	*.L715(,%edi,4)
	.section	.rodata.lwip_setsockopt
	.align 4
	.align 4
.L715:
	.long	.L714
	.long	.L716
	.long	.L717
	.long	.L718
	.long	.L719
	.section	.text.lwip_setsockopt
.L714:
	.loc 1 2525 0
	cmpl	$0, (%esi)
	je	.L720
	.loc 1 2526 0
	orw	$64, 30(%eax)
	jmp	.L789
.L720:
	.loc 1 2528 0
	andw	$-65, 30(%eax)
	jmp	.L789
.L716:
	.loc 1 2534 0
	movl	(%esi), %edx
	jmp	.L790
.L717:
	.loc 1 2541 0
	imull	$1000, (%esi), %edx
.L790:
	movl	%edx, 148(%eax)
	jmp	.L789
.L718:
	.loc 1 2546 0
	imull	$1000, (%esi), %edx
	movl	%edx, 152(%eax)
	jmp	.L789
.L719:
	.loc 1 2551 0
	movl	(%esi), %edx
	movl	%edx, 156(%eax)
.LVL646:
.L789:
	.loc 1 2347 0
	xorl	%ebx, %ebx
	jmp	.L687
.LVL647:
.L726:
	.loc 1 2437 0
	movb	$92, %bl
.LVL648:
.L687:
.LBE137:
.LBE138:
	.loc 1 2273 0
	subl	$12, %esp
	pushl	$lock_tcpip_core
	call	sys_mutex_unlock
.LVL649:
.LBB139:
	.loc 1 2314 0
	movl	-44(%ebp), %eax
	addl	$16, %esp
	testb	%bl, %bl
	movb	%bl, 16(%eax)
	je	.L721
	.loc 1 2314 0 discriminator 1
	call	__errno
.LVL650:
	.loc 1 2314 0 discriminator 1
	movzbl	%bl, %edx
.LVL651:
	movl	%edx, (%eax)
.LVL652:
.L721:
.LBE139:
	.loc 1 2315 0
	xorl	%eax, %eax
	testb	%bl, %bl
	setne	%al
	negl	%eax
.LVL653:
.L685:
	.loc 1 2316 0
	movl	-28(%ebp), %edi
	xorl	%gs:20, %edi
	je	.L722
	call	__stack_chk_fail
.LVL654:
.L722:
	leal	-12(%ebp), %esp
	popl	%ebx
	.cfi_restore 3
	popl	%esi
	.cfi_restore 6
	popl	%edi
	.cfi_restore 7
	popl	%ebp
	.cfi_restore 5
	.cfi_def_cfa 4, 4
	ret
	.cfi_endproc
.LFE54:
	.size	lwip_setsockopt, .-lwip_setsockopt
	.section	.text.unlikely.lwip_setsockopt
.LCOLDE35:
	.section	.text.lwip_setsockopt
.LHOTE35:
	.section	.text.unlikely.lwip_ioctl,"ax",@progbits
.LCOLDB36:
	.section	.text.lwip_ioctl,"ax",@progbits
.LHOTB36:
	.globl	lwip_ioctl
	.type	lwip_ioctl, @function
lwip_ioctl:
.LFB56:
	.loc 1 2665 0
	.cfi_startproc
.LVL655:
	pushl	%ebp
	.cfi_def_cfa_offset 8
	.cfi_offset 5, -8
	movl	%esp, %ebp
	.cfi_def_cfa_register 5
	pushl	%ebx
	pushl	%ecx
	.cfi_offset 3, -12
	.loc 1 2666 0
	movl	8(%ebp), %eax
	.loc 1 2665 0
	movl	16(%ebp), %ebx
	.loc 1 2666 0
	call	get_socket
.LVL656:
	movl	%eax, %ecx
.LVL657:
	.loc 1 2674 0
	orl	$-1, %eax
.LVL658:
	.loc 1 2673 0
	testl	%ecx, %ecx
	je	.L804
	.loc 1 2677 0
	cmpl	$-2147195266, 12(%ebp)
	jne	.L805
.LVL659:
	.loc 1 2740 0
	testl	%ebx, %ebx
	movl	(%ecx), %edx
	je	.L797
	.loc 1 2740 0 is_stmt 0 discriminator 1
	cmpl	$0, (%ebx)
	je	.L797
.LVL660:
	.loc 1 2743 0 is_stmt 1
	orb	$2, 40(%edx)
.LVL661:
.L799:
.LBB140:
	.loc 1 2745 0
	movb	$0, 16(%ecx)
.LBE140:
	.loc 1 2746 0
	xorl	%eax, %eax
	jmp	.L804
.LVL662:
.L805:
.LBB141:
	.loc 1 2752 0
	movb	$38, 16(%ecx)
	.loc 1 2752 0
	call	__errno
.LVL663:
	.loc 1 2752 0
	movl	$38, (%eax)
.LBE141:
	.loc 1 2753 0
	orl	$-1, %eax
	jmp	.L804
.LVL664:
.L797:
	.loc 1 2743 0
	andb	$-3, 40(%edx)
	jmp	.L799
.LVL665:
.L804:
	.loc 1 2754 0
	popl	%edx
	popl	%ebx
	.cfi_restore 3
	popl	%ebp
	.cfi_restore 5
	.cfi_def_cfa 4, 4
	ret
	.cfi_endproc
.LFE56:
	.size	lwip_ioctl, .-lwip_ioctl
	.section	.text.unlikely.lwip_ioctl
.LCOLDE36:
	.section	.text.lwip_ioctl
.LHOTE36:
	.section	.text.unlikely.lwip_fcntl,"ax",@progbits
.LCOLDB37:
	.section	.text.lwip_fcntl,"ax",@progbits
.LHOTB37:
	.globl	lwip_fcntl
	.type	lwip_fcntl, @function
lwip_fcntl:
.LFB57:
	.loc 1 2762 0
	.cfi_startproc
.LVL666:
	pushl	%ebp
	.cfi_def_cfa_offset 8
	.cfi_offset 5, -8
	movl	%esp, %ebp
	.cfi_def_cfa_register 5
	subl	$8, %esp
	.loc 1 2763 0
	movl	8(%ebp), %eax
	call	get_socket
.LVL667:
	.loc 1 2767 0
	orl	$-1, %edx
	.loc 1 2766 0
	testl	%eax, %eax
	je	.L808
	.loc 1 2770 0
	cmpl	$3, 12(%ebp)
	je	.L810
	cmpl	$4, 12(%ebp)
	je	.L811
	jmp	.L818
.L810:
	.loc 1 2772 0
	movl	(%eax), %edx
	.loc 1 2772 0
	movb	40(%edx), %dl
.LBB142:
	.loc 1 2773 0
	movb	$0, 16(%eax)
.LBE142:
	.loc 1 2772 0
	sall	$13, %edx
.LVL668:
	.loc 1 2772 0
	andl	$16384, %edx
.LVL669:
	.loc 1 2774 0
	jmp	.L808
.LVL670:
.L811:
	.loc 1 2776 0
	movl	16(%ebp), %edx
	andl	$-16385, %edx
	jne	.L818
	.loc 1 2778 0
	testl	$16384, 16(%ebp)
	movl	(%eax), %ecx
	je	.L814
	.loc 1 2778 0 discriminator 1
	orb	$2, 40(%ecx)
	jmp	.L815
.L814:
	.loc 1 2778 0 is_stmt 0 discriminator 2
	andb	$-3, 40(%ecx)
.L815:
.LVL671:
.LBB143:
	.loc 1 2780 0 is_stmt 1
	movb	$0, 16(%eax)
.LBE143:
	jmp	.L808
.LVL672:
.L818:
.LBB144:
	.loc 1 2787 0
	movb	$38, 16(%eax)
	.loc 1 2787 0
	call	__errno
.LVL673:
.LBE144:
	.loc 1 2764 0
	orl	$-1, %edx
.LBB145:
	.loc 1 2787 0
	movl	$38, (%eax)
.LVL674:
.L808:
.LBE145:
	.loc 1 2791 0
	movl	%edx, %eax
	leave
	.cfi_restore 5
	.cfi_def_cfa 4, 4
	ret
	.cfi_endproc
.LFE57:
	.size	lwip_fcntl, .-lwip_fcntl
	.section	.text.unlikely.lwip_fcntl
.LCOLDE37:
	.section	.text.lwip_fcntl
.LHOTE37:
	.section	.bss.select_cb_ctr,"aw",@nobits
	.align 4
	.type	select_cb_ctr, @object
	.size	select_cb_ctr, 4
select_cb_ctr:
	.zero	4
	.section	.bss.select_cb_list,"aw",@nobits
	.align 4
	.type	select_cb_list, @object
	.size	select_cb_list, 4
select_cb_list:
	.zero	4
	.section	.bss.events,"aw",@nobits
	.align 32
	.type	events, @object
	.size	events, 912
events:
	.zero	912
	.section	.bss.sockets,"aw",@nobits
	.align 32
	.type	sockets, @object
	.size	sockets, 760
sockets:
	.zero	760
	.globl	socket_ipv4_multicast_memberships
	.section	.bss.socket_ipv4_multicast_memberships,"aw",@nobits
	.align 32
	.type	socket_ipv4_multicast_memberships, @object
	.size	socket_ipv4_multicast_memberships, 456
socket_ipv4_multicast_memberships:
	.zero	456
	.text
.Letext0:
	.section	.text.unlikely.tryget_event
.Letext_cold0:
	.file 2 "/home/stone/Documents/Ali_IOT/build/compiler/gcc-arm-none-eabi/Linux64/lib/gcc/arm-none-eabi/5.4.1/include/stddef.h"
	.file 3 "/home/stone/Documents/Ali_IOT/build/compiler/gcc-arm-none-eabi/Linux64/arm-none-eabi/include/machine/_default_types.h"
	.file 4 "/home/stone/Documents/Ali_IOT/build/compiler/gcc-arm-none-eabi/Linux64/arm-none-eabi/include/sys/_types.h"
	.file 5 "/home/stone/Documents/Ali_IOT/build/compiler/gcc-arm-none-eabi/Linux64/arm-none-eabi/include/sys/_stdint.h"
	.file 6 "/home/stone/Documents/Ali_IOT/build/compiler/gcc-arm-none-eabi/Linux64/arm-none-eabi/include/sys/_timeval.h"
	.file 7 "/home/stone/Documents/Ali_IOT/build/compiler/gcc-arm-none-eabi/Linux64/arm-none-eabi/include/sys/select.h"
	.file 8 "/home/stone/Documents/Ali_IOT/build/compiler/gcc-arm-none-eabi/Linux64/arm-none-eabi/include/sys/types.h"
	.file 9 "././platform/mcu/moc108/include/lwip-2.0.2/arch/cc.h"
	.file 10 "./kernel/protocols/net/include/lwip/arch.h"
	.file 11 "./include/aos/kernel.h"
	.file 12 "./kernel/protocols/net/include/lwip/ip4_addr.h"
	.file 13 "./kernel/protocols/net/include/lwip/ip_addr.h"
	.file 14 "./kernel/protocols/net/include/lwip/err.h"
	.file 15 "./kernel/protocols/net/include/lwip/inet.h"
	.file 16 "./kernel/protocols/net/include/lwip/sockets.h"
	.file 17 "./kernel/protocols/net/include/lwip/pbuf.h"
	.file 18 "./kernel/protocols/net/include/lwip/netbuf.h"
	.file 19 "./kernel/protocols/net/port/include/arch/sys_arch.h"
	.file 20 "./kernel/protocols/net/include/lwip/api.h"
	.file 21 "./kernel/protocols/net/include/lwip/ip.h"
	.file 22 "./kernel/protocols/net/include/lwip/tcp.h"
	.file 23 "./kernel/protocols/net/include/lwip/udp.h"
	.file 24 "./kernel/protocols/net/include/lwip/raw.h"
	.file 25 "./kernel/protocols/net/include/lwip/memp.h"
	.file 26 "./kernel/protocols/net/include/lwip/netif.h"
	.file 27 "./include/aos/log.h"
	.file 28 "./kernel/protocols/net/include/lwip/tcpip.h"
	.file 29 "./kernel/protocols/net/include/lwip/sys.h"
	.file 30 "/home/stone/Documents/Ali_IOT/build/compiler/gcc-arm-none-eabi/Linux64/arm-none-eabi/include/sys/errno.h"
	.file 31 "./kernel/protocols/net/include/lwip/def.h"
	.file 32 "././platform/mcu/moc108/include/driver/uart_pub.h"
	.file 33 "./kernel/protocols/net/include/lwip/igmp.h"
	.section	.note.GNU-stack,"",@progbits
