	.file	"ssl_ciphersuites.c"
	.text
.Ltext0:
	.section	.text.unlikely.mbedtls_ssl_ciphersuite_from_string,"ax",@progbits
.LCOLDB0:
	.section	.text.mbedtls_ssl_ciphersuite_from_string,"ax",@progbits
.LHOTB0:
	.section	.text.unlikely.mbedtls_ssl_ciphersuite_from_string
.Ltext_cold0:
	.section	.text.mbedtls_ssl_ciphersuite_from_string
	.globl	mbedtls_ssl_ciphersuite_from_string
	.type	mbedtls_ssl_ciphersuite_from_string, @function
mbedtls_ssl_ciphersuite_from_string:
.LFB11:
	.file 1 "security/mbedtls/src/ssl_ciphersuites.c"
	.loc 1 1757 0
	.cfi_startproc
.LVL0:
	pushl	%ebp
	.cfi_def_cfa_offset 8
	.cfi_offset 5, -8
	.loc 1 1761 0
	xorl	%eax, %eax
	.loc 1 1757 0
	movl	%esp, %ebp
	.cfi_def_cfa_register 5
	pushl	%esi
	pushl	%ebx
	.cfi_offset 6, -12
	.cfi_offset 3, -16
	.loc 1 1757 0
	movl	8(%ebp), %esi
	movl	$ciphersuite_definitions, %ebx
	.loc 1 1760 0
	testl	%esi, %esi
	je	.L2
.LVL1:
.L3:
	.loc 1 1763 0
	cmpl	$0, (%ebx)
	je	.L9
	.loc 1 1765 0
	pushl	%eax
	pushl	%eax
	pushl	%esi
	pushl	4(%ebx)
	call	strcmp
.LVL2:
	addl	$16, %esp
	testl	%eax, %eax
	je	.L6
	.loc 1 1768 0
	addl	$40, %ebx
.LVL3:
	jmp	.L3
.L9:
	.loc 1 1761 0
	xorl	%eax, %eax
	jmp	.L2
.L6:
	movl	%ebx, %eax
.LVL4:
.L2:
	.loc 1 1772 0
	leal	-8(%ebp), %esp
	popl	%ebx
	.cfi_restore 3
	popl	%esi
	.cfi_restore 6
	popl	%ebp
	.cfi_restore 5
	.cfi_def_cfa 4, 4
	ret
	.cfi_endproc
.LFE11:
	.size	mbedtls_ssl_ciphersuite_from_string, .-mbedtls_ssl_ciphersuite_from_string
	.section	.text.unlikely.mbedtls_ssl_ciphersuite_from_string
.LCOLDE0:
	.section	.text.mbedtls_ssl_ciphersuite_from_string
.LHOTE0:
	.section	.text.unlikely.mbedtls_ssl_ciphersuite_from_id,"ax",@progbits
.LCOLDB1:
	.section	.text.mbedtls_ssl_ciphersuite_from_id,"ax",@progbits
.LHOTB1:
	.globl	mbedtls_ssl_ciphersuite_from_id
	.type	mbedtls_ssl_ciphersuite_from_id, @function
mbedtls_ssl_ciphersuite_from_id:
.LFB12:
	.loc 1 1775 0
	.cfi_startproc
.LVL5:
	pushl	%ebp
	.cfi_def_cfa_offset 8
	.cfi_offset 5, -8
	.loc 1 1776 0
	movl	$ciphersuite_definitions, %eax
	.loc 1 1775 0
	movl	%esp, %ebp
	.cfi_def_cfa_register 5
.LVL6:
.L11:
	.loc 1 1778 0
	movl	(%eax), %edx
	testl	%edx, %edx
	je	.L16
	.loc 1 1780 0
	cmpl	8(%ebp), %edx
	je	.L12
	.loc 1 1783 0
	addl	$40, %eax
.LVL7:
	jmp	.L11
.L16:
	.loc 1 1786 0
	xorl	%eax, %eax
.LVL8:
.L12:
	.loc 1 1787 0
	popl	%ebp
	.cfi_restore 5
	.cfi_def_cfa 4, 4
	ret
	.cfi_endproc
.LFE12:
	.size	mbedtls_ssl_ciphersuite_from_id, .-mbedtls_ssl_ciphersuite_from_id
	.section	.text.unlikely.mbedtls_ssl_ciphersuite_from_id
.LCOLDE1:
	.section	.text.mbedtls_ssl_ciphersuite_from_id
.LHOTE1:
	.section	.text.unlikely.mbedtls_ssl_list_ciphersuites,"ax",@progbits
.LCOLDB2:
	.section	.text.mbedtls_ssl_list_ciphersuites,"ax",@progbits
.LHOTB2:
	.globl	mbedtls_ssl_list_ciphersuites
	.type	mbedtls_ssl_list_ciphersuites, @function
mbedtls_ssl_list_ciphersuites:
.LFB10:
	.loc 1 1723 0
	.cfi_startproc
	.loc 1 1728 0
	cmpl	$0, supported_init
	jne	.L31
	.loc 1 1723 0 discriminator 1
	pushl	%ebp
	.cfi_def_cfa_offset 8
	.cfi_offset 5, -8
	movl	$supported_ciphersuites, %ecx
	movl	%esp, %ebp
	.cfi_def_cfa_register 5
	pushl	%esi
	pushl	%ebx
	.cfi_offset 6, -12
	.cfi_offset 3, -16
	movl	$ciphersuite_preference, %ebx
.L19:
.LVL9:
.LBB2:
	.loc 1 1734 0 discriminator 1
	movl	(%ebx), %esi
	testl	%esi, %esi
	je	.L23
	cmpl	$supported_ciphersuites+16, %ecx
	jnb	.L23
	.loc 1 1742 0
	pushl	%esi
	call	mbedtls_ssl_ciphersuite_from_id
.LVL10:
	testl	%eax, %eax
	popl	%edx
	je	.L20
.LVL11:
	.loc 1 1744 0
	movl	%esi, (%ecx)
	addl	$4, %ecx
.LVL12:
.L20:
	.loc 1 1735 0
	addl	$4, %ebx
.LVL13:
	jmp	.L19
.L23:
	.loc 1 1746 0
	movl	$0, (%ecx)
	.loc 1 1748 0
	movl	$1, supported_init
.LBE2:
	.loc 1 1752 0
	leal	-8(%ebp), %esp
	movl	$supported_ciphersuites, %eax
	popl	%ebx
	.cfi_restore 3
.LVL14:
	popl	%esi
	.cfi_restore 6
	popl	%ebp
	.cfi_restore 5
	.cfi_def_cfa 4, 4
	ret
.LVL15:
.L31:
	movl	$supported_ciphersuites, %eax
	ret
	.cfi_endproc
.LFE10:
	.size	mbedtls_ssl_list_ciphersuites, .-mbedtls_ssl_list_ciphersuites
	.section	.text.unlikely.mbedtls_ssl_list_ciphersuites
.LCOLDE2:
	.section	.text.mbedtls_ssl_list_ciphersuites
.LHOTE2:
	.section	.rodata.str1.1,"aMS",@progbits,1
.LC3:
	.string	"unknown"
	.section	.text.unlikely.mbedtls_ssl_get_ciphersuite_name,"ax",@progbits
.LCOLDB4:
	.section	.text.mbedtls_ssl_get_ciphersuite_name,"ax",@progbits
.LHOTB4:
	.globl	mbedtls_ssl_get_ciphersuite_name
	.type	mbedtls_ssl_get_ciphersuite_name, @function
mbedtls_ssl_get_ciphersuite_name:
.LFB13:
	.loc 1 1790 0
	.cfi_startproc
.LVL16:
	pushl	%ebp
	.cfi_def_cfa_offset 8
	.cfi_offset 5, -8
	movl	%esp, %ebp
	.cfi_def_cfa_register 5
	.loc 1 1793 0
	pushl	8(%ebp)
	call	mbedtls_ssl_ciphersuite_from_id
.LVL17:
	.loc 1 1795 0
	testl	%eax, %eax
	.loc 1 1793 0
	popl	%edx
.LVL18:
	movl	$.LC3, %edx
	.loc 1 1795 0
	je	.L33
	.loc 1 1798 0
	movl	4(%eax), %edx
.L33:
	.loc 1 1799 0
	movl	%edx, %eax
.LVL19:
	leave
	.cfi_restore 5
	.cfi_def_cfa 4, 4
	ret
	.cfi_endproc
.LFE13:
	.size	mbedtls_ssl_get_ciphersuite_name, .-mbedtls_ssl_get_ciphersuite_name
	.section	.text.unlikely.mbedtls_ssl_get_ciphersuite_name
.LCOLDE4:
	.section	.text.mbedtls_ssl_get_ciphersuite_name
.LHOTE4:
	.section	.text.unlikely.mbedtls_ssl_get_ciphersuite_id,"ax",@progbits
.LCOLDB5:
	.section	.text.mbedtls_ssl_get_ciphersuite_id,"ax",@progbits
.LHOTB5:
	.globl	mbedtls_ssl_get_ciphersuite_id
	.type	mbedtls_ssl_get_ciphersuite_id, @function
mbedtls_ssl_get_ciphersuite_id:
.LFB14:
	.loc 1 1802 0
	.cfi_startproc
.LVL20:
	pushl	%ebp
	.cfi_def_cfa_offset 8
	.cfi_offset 5, -8
	movl	%esp, %ebp
	.cfi_def_cfa_register 5
	subl	$20, %esp
	.loc 1 1805 0
	pushl	8(%ebp)
	call	mbedtls_ssl_ciphersuite_from_string
.LVL21:
	addl	$16, %esp
.LVL22:
	xorl	%edx, %edx
	.loc 1 1807 0
	testl	%eax, %eax
	je	.L38
	.loc 1 1810 0
	movl	(%eax), %edx
.L38:
	.loc 1 1811 0
	movl	%edx, %eax
.LVL23:
	leave
	.cfi_restore 5
	.cfi_def_cfa 4, 4
	ret
	.cfi_endproc
.LFE14:
	.size	mbedtls_ssl_get_ciphersuite_id, .-mbedtls_ssl_get_ciphersuite_id
	.section	.text.unlikely.mbedtls_ssl_get_ciphersuite_id
.LCOLDE5:
	.section	.text.mbedtls_ssl_get_ciphersuite_id
.LHOTE5:
	.section	.text.unlikely.mbedtls_ssl_get_ciphersuite_sig_pk_alg,"ax",@progbits
.LCOLDB6:
	.section	.text.mbedtls_ssl_get_ciphersuite_sig_pk_alg,"ax",@progbits
.LHOTB6:
	.globl	mbedtls_ssl_get_ciphersuite_sig_pk_alg
	.type	mbedtls_ssl_get_ciphersuite_sig_pk_alg, @function
mbedtls_ssl_get_ciphersuite_sig_pk_alg:
.LFB15:
	.loc 1 1815 0
	.cfi_startproc
.LVL24:
	pushl	%ebp
	.cfi_def_cfa_offset 8
	.cfi_offset 5, -8
	movl	%esp, %ebp
	.cfi_def_cfa_register 5
	.loc 1 1816 0
	movl	8(%ebp), %eax
	movl	16(%eax), %ecx
	.loc 1 1832 0
	xorl	%eax, %eax
	cmpl	$10, %ecx
	ja	.L43
	movl	$1, %edx
	.loc 1 1822 0
	movl	$1, %eax
	sall	%cl, %edx
	testb	$-114, %dl
	jne	.L43
	testb	$6, %dh
	.loc 1 1829 0
	movl	$2, %eax
	jne	.L43
	.loc 1 1825 0
	movl	%edx, %eax
	shrl	$2, %eax
	andl	$4, %eax
.L43:
	.loc 1 1834 0
	popl	%ebp
	.cfi_restore 5
	.cfi_def_cfa 4, 4
	ret
	.cfi_endproc
.LFE15:
	.size	mbedtls_ssl_get_ciphersuite_sig_pk_alg, .-mbedtls_ssl_get_ciphersuite_sig_pk_alg
	.section	.text.unlikely.mbedtls_ssl_get_ciphersuite_sig_pk_alg
.LCOLDE6:
	.section	.text.mbedtls_ssl_get_ciphersuite_sig_pk_alg
.LHOTE6:
	.section	.bss.supported_init,"aw",@nobits
	.align 4
	.type	supported_init, @object
	.size	supported_init, 4
supported_init:
	.zero	4
	.section	.bss.supported_ciphersuites,"aw",@nobits
	.align 4
	.type	supported_ciphersuites, @object
	.size	supported_ciphersuites, 20
supported_ciphersuites:
	.zero	20
	.section	.rodata.str1.1
.LC7:
	.string	"TLS-RSA-WITH-AES-128-CBC-SHA256"
.LC8:
	.string	"TLS-RSA-WITH-AES-256-CBC-SHA256"
.LC9:
	.string	"TLS-RSA-WITH-AES-128-CBC-SHA"
.LC10:
	.string	"TLS-RSA-WITH-AES-256-CBC-SHA"
.LC11:
	.string	""
	.section	.rodata.ciphersuite_definitions,"a",@progbits
	.align 32
	.type	ciphersuite_definitions, @object
	.size	ciphersuite_definitions, 200
ciphersuite_definitions:
	.long	60
	.long	.LC7
	.long	5
	.long	6
	.long	1
	.long	3
	.long	3
	.long	3
	.long	3
	.byte	0
	.zero	3
	.long	61
	.long	.LC8
	.long	7
	.long	6
	.long	1
	.long	3
	.long	3
	.long	3
	.long	3
	.byte	0
	.zero	3
	.long	47
	.long	.LC9
	.long	5
	.long	4
	.long	1
	.long	3
	.long	0
	.long	3
	.long	3
	.byte	0
	.zero	3
	.long	53
	.long	.LC10
	.long	7
	.long	4
	.long	1
	.long	3
	.long	0
	.long	3
	.long	3
	.byte	0
	.zero	3
	.long	0
	.long	.LC11
	.long	0
	.long	0
	.long	0
	.long	0
	.long	0
	.long	0
	.long	0
	.byte	0
	.zero	3
	.section	.rodata.ciphersuite_preference,"a",@progbits
	.align 4
	.type	ciphersuite_preference, @object
	.size	ciphersuite_preference, 20
ciphersuite_preference:
	.long	61
	.long	53
	.long	60
	.long	47
	.long	0
	.text
.Letext0:
	.section	.text.unlikely.mbedtls_ssl_ciphersuite_from_string
.Letext_cold0:
	.file 2 "./security/mbedtls/include/mbedtls/md.h"
	.file 3 "./security/mbedtls/include/mbedtls/pk.h"
	.file 4 "./security/mbedtls/include/mbedtls/cipher.h"
	.file 5 "./security/mbedtls/include/mbedtls/ssl_ciphersuites.h"
	.file 6 "/home/stone/Documents/Ali_IOT/build/compiler/gcc-arm-none-eabi/Linux64/arm-none-eabi/include/string.h"
	.section	.note.GNU-stack,"",@progbits
