	.file	"ssl_cli.c"
	.text
.Ltext0:
	.section	.text.unlikely.mbedtls_ssl_own_key,"ax",@progbits
.LCOLDB0:
	.section	.text.mbedtls_ssl_own_key,"ax",@progbits
.LHOTB0:
	.section	.text.unlikely.mbedtls_ssl_own_key
.Ltext_cold0:
	.section	.text.mbedtls_ssl_own_key
	.type	mbedtls_ssl_own_key, @function
mbedtls_ssl_own_key:
.LFB10:
	.file 1 "./security/mbedtls/include/mbedtls/ssl_internal.h"
	.loc 1 405 0
	.cfi_startproc
.LVL0:
	pushl	%ebp
	.cfi_def_cfa_offset 8
	.cfi_offset 5, -8
	.loc 1 408 0
	movl	48(%eax), %edx
	.loc 1 405 0
	movl	%esp, %ebp
	.cfi_def_cfa_register 5
	.loc 1 408 0
	testl	%edx, %edx
	je	.L2
	.loc 1 408 0 discriminator 1
	movl	8(%edx), %edx
	testl	%edx, %edx
	jne	.L3
.L2:
	.loc 1 411 0
	movl	(%eax), %eax
.LVL1:
	movl	56(%eax), %edx
.LVL2:
	.loc 1 413 0
	xorl	%eax, %eax
	testl	%edx, %edx
	je	.L4
.LVL3:
.L3:
	.loc 1 413 0 is_stmt 0 discriminator 1
	movl	4(%edx), %eax
.L4:
	.loc 1 414 0 is_stmt 1 discriminator 4
	popl	%ebp
	.cfi_restore 5
	.cfi_def_cfa 4, 4
	ret
	.cfi_endproc
.LFE10:
	.size	mbedtls_ssl_own_key, .-mbedtls_ssl_own_key
	.section	.text.unlikely.mbedtls_ssl_own_key
.LCOLDE0:
	.section	.text.mbedtls_ssl_own_key
.LHOTE0:
	.section	.text.unlikely.mbedtls_ssl_handshake_client_step,"ax",@progbits
.LCOLDB1:
	.section	.text.mbedtls_ssl_handshake_client_step,"ax",@progbits
.LHOTB1:
	.globl	mbedtls_ssl_handshake_client_step
	.type	mbedtls_ssl_handshake_client_step, @function
mbedtls_ssl_handshake_client_step:
.LFB29:
	.file 2 "security/mbedtls/src/ssl_cli.c"
	.loc 2 3273 0
	.cfi_startproc
.LVL4:
	pushl	%ebp
	.cfi_def_cfa_offset 8
	.cfi_offset 5, -8
	movl	%esp, %ebp
	.cfi_def_cfa_register 5
	pushl	%edi
	pushl	%esi
	pushl	%ebx
	subl	$108, %esp
	.cfi_offset 7, -12
	.cfi_offset 6, -16
	.cfi_offset 3, -20
	.loc 2 3273 0
	movl	8(%ebp), %ebx
	movl	%gs:20, %eax
	movl	%eax, -28(%ebp)
	xorl	%eax, %eax
.LVL5:
	.loc 2 3276 0
	cmpl	$16, 4(%ebx)
	je	.L110
	.loc 2 3276 0 is_stmt 0 discriminator 1
	cmpl	$0, 48(%ebx)
	je	.L110
	.loc 2 3281 0 is_stmt 1
	subl	$12, %esp
	pushl	%ebx
	call	mbedtls_ssl_flush_output
.LVL6:
	addl	$16, %esp
	testl	%eax, %eax
	jne	.L13
	.loc 2 3285 0
	movl	(%ebx), %eax
.LVL7:
	testb	$2, 88(%eax)
	jne	.L15
.L33:
.LVL8:
	.loc 2 3303 0
	movl	4(%ebx), %eax
	cmpl	$15, %eax
	ja	.L110
	jmp	*.L17(,%eax,4)
	.section	.rodata.mbedtls_ssl_handshake_client_step,"a",@progbits
	.align 4
	.align 4
.L17:
	.long	.L16
	.long	.L18
	.long	.L19
	.long	.L20
	.long	.L21
	.long	.L22
	.long	.L23
	.long	.L24
	.long	.L25
	.long	.L26
	.long	.L27
	.long	.L28
	.long	.L29
	.long	.L30
	.long	.L31
	.long	.L32
	.section	.text.mbedtls_ssl_handshake_client_step
.LVL9:
.L15:
	.loc 2 3286 0 discriminator 1
	movl	48(%ebx), %eax
	.loc 2 3285 0 discriminator 1
	cmpb	$1, 36(%eax)
	jne	.L33
	.loc 2 3288 0
	subl	$12, %esp
	pushl	%ebx
	call	mbedtls_ssl_resend
.LVL10:
	addl	$16, %esp
	testl	%eax, %eax
	je	.L33
	jmp	.L13
.LVL11:
.L16:
	.loc 2 3306 0
	movl	$1, 4(%ebx)
	.loc 2 3307 0
	jmp	.L13
.L18:
.LVL12:
.LBB44:
.LBB45:
	.loc 2 719 0
	movl	(%ebx), %edx
	.loc 2 722 0
	movl	$-29696, %eax
	.loc 2 719 0
	cmpl	$0, 24(%edx)
	je	.L13
	.loc 2 729 0
	movzbl	86(%edx), %eax
	movl	%eax, 8(%ebx)
	.loc 2 730 0
	movzbl	87(%edx), %eax
	movl	%eax, 12(%ebx)
	.loc 2 733 0
	movzbl	84(%edx), %eax
	testb	%al, %al
	je	.L110
	.loc 2 747 0
	movl	176(%ebx), %edi
	.loc 2 750 0
	leal	4(%edi), %ecx
	.loc 2 747 0
	movl	%edi, -92(%ebp)
.LVL13:
	.loc 2 750 0
	pushl	%ecx
	.loc 2 751 0
	movb	88(%edx), %cl
.LVL14:
	shrb	%cl
	.loc 2 750 0
	andl	$1, %ecx
	pushl	%ecx
.LVL15:
	movzbl	85(%edx), %edx
	pushl	%edx
.LVL16:
	pushl	%eax
.LVL17:
	call	mbedtls_ssl_write_version
.LVL18:
.LBB46:
.LBB47:
	.loc 2 679 0
	movl	(%ebx), %eax
	addl	$16, %esp
	.loc 2 670 0
	movl	48(%ebx), %esi
.LVL19:
	.loc 2 679 0
	testb	$2, 88(%eax)
	je	.L34
	cmpl	$0, 20(%esi)
	jne	.L35
.L34:
	.loc 2 695 0
	pushl	%edx
	.loc 2 670 0
	leal	92(%esi), %edx
	.loc 2 695 0
	pushl	$4
	pushl	%edx
	pushl	28(%eax)
	call	*24(%eax)
.LVL20:
	addl	$16, %esp
	testl	%eax, %eax
	jne	.L13
.LVL21:
	.loc 2 701 0
	movl	(%ebx), %eax
.LVL22:
	.loc 2 698 0
	leal	96(%esi), %edx
.LVL23:
.LVL24:
	.loc 2 701 0
	pushl	%edi
	pushl	$28
	pushl	%edx
	pushl	28(%eax)
	call	*24(%eax)
.LVL25:
	addl	$16, %esp
	testl	%eax, %eax
	jne	.L13
	jmp	.L35
.LVL26:
.L19:
.LBE47:
.LBE46:
.LBE45:
.LBE44:
.LBB57:
.LBB58:
	.loc 2 1414 0
	subl	$12, %esp
	.loc 2 1412 0
	movl	100(%ebx), %esi
.LVL27:
	.loc 2 1414 0
	pushl	%ebx
	call	mbedtls_ssl_read_record
.LVL28:
	addl	$16, %esp
	testl	%eax, %eax
	jne	.L13
	.loc 2 1420 0
	cmpl	$22, 108(%ebx)
	.loc 2 1441 0
	movl	$-30464, %eax
.LVL29:
	.loc 2 1420 0
	jne	.L13
	.loc 2 1445 0
	movl	(%ebx), %eax
	movb	88(%eax), %al
	testb	$2, %al
	je	.L54
	.loc 2 1447 0
	cmpb	$3, (%esi)
	jne	.L55
.LVL30:
.LBB59:
.LBB60:
	.loc 2 1322 0
	movl	100(%ebx), %edi
.LVL31:
	.loc 2 1335 0
	shrb	%al
	andl	$1, %eax
	leal	12(%edi), %edx
.LVL32:
	pushl	%edx
	pushl	%eax
	leal	-80(%ebp), %eax
	pushl	%eax
	leal	-84(%ebp), %eax
	pushl	%eax
	call	mbedtls_ssl_read_version
.LVL33:
	.loc 2 1342 0
	movl	-84(%ebp), %ecx
	addl	$16, %esp
	cmpl	$2, %ecx
	jle	.L62
	.loc 2 1343 0
	movl	-80(%ebp), %eax
	.loc 2 1342 0
	cmpl	$1, %eax
	jle	.L62
	.loc 2 1344 0
	movl	(%ebx), %edx
	.loc 2 1343 0
	movzbl	84(%edx), %esi
.LVL34:
	cmpl	%esi, %ecx
	jg	.L62
	.loc 2 1344 0
	movzbl	85(%edx), %edx
	cmpl	%edx, %eax
	jg	.L62
	.loc 2 1355 0
	movb	14(%edi), %al
	leal	15(%edi), %esi
.LVL35:
	movb	%al, -96(%ebp)
.LVL36:
	.loc 2 1358 0
	movl	112(%ebx), %eax
.LVL37:
	addl	100(%ebx), %eax
	movzbl	-96(%ebp), %edi
.LVL38:
	subl	%esi, %eax
	movl	%edi, -92(%ebp)
	cmpl	%edi, %eax
	jge	.L59
	.loc 2 1362 0
	pushl	%ecx
.LVL39:
	pushl	$50
	pushl	$2
	pushl	%ebx
	call	mbedtls_ssl_send_alert_message
.LVL40:
	addl	$16, %esp
	jmp	.L61
.LVL41:
.L59:
	.loc 2 1367 0
	movl	48(%ebx), %eax
	subl	$12, %esp
	pushl	20(%eax)
.LVL42:
	call	mbedtls_free
.LVL43:
	.loc 2 1369 0
	popl	%eax
	popl	%edx
	movl	48(%ebx), %edi
	pushl	-92(%ebp)
	pushl	$1
	call	mbedtls_calloc
.LVL44:
	movl	%eax, 20(%edi)
	.loc 2 1370 0
	movl	48(%ebx), %eax
	addl	$16, %esp
	movl	20(%eax), %edx
	.loc 2 1373 0
	movl	$-32512, %eax
	.loc 2 1370 0
	testl	%edx, %edx
	je	.L13
	.loc 2 1376 0
	movl	%edx, %edi
	movl	-92(%ebp), %ecx
	.loc 2 1381 0
	subl	$12, %esp
	.loc 2 1376 0
	rep movsb
.LVL45:
	.loc 2 1377 0
	movb	-96(%ebp), %cl
	movl	48(%ebx), %eax
	movb	%cl, 24(%eax)
	.loc 2 1380 0
	movl	$1, 4(%ebx)
	.loc 2 1381 0
	pushl	%ebx
	call	mbedtls_ssl_reset_checksum
.LVL46:
	.loc 2 1383 0
	movl	%ebx, (%esp)
	jmp	.L204
.LVL47:
.L55:
.LBE60:
.LBE59:
	.loc 2 1456 0
	movl	48(%ebx), %eax
	subl	$12, %esp
	pushl	20(%eax)
	call	mbedtls_free
.LVL48:
	.loc 2 1457 0
	movl	48(%ebx), %eax
	.loc 2 1458 0
	addl	$16, %esp
	.loc 2 1457 0
	movl	$0, 20(%eax)
	.loc 2 1458 0
	movb	$0, 24(%eax)
.L54:
	movl	(%ebx), %eax
.LVL49:
.LBB61:
.LBB62:
	.loc 1 462 0
	movb	88(%eax), %al
	movb	%al, %dl
	andl	$2, %edx
	.loc 1 463 0
	cmpb	$1, %dl
	sbbl	%edx, %edx
	andl	$-8, %edx
.LBE62:
.LBE61:
	.loc 2 1463 0
	leal	50(%edx), %ecx
.LBB64:
.LBB63:
	.loc 1 463 0
	addl	$12, %edx
.LBE63:
.LBE64:
	.loc 2 1463 0
	cmpl	%ecx, 144(%ebx)
	jb	.L61
	cmpb	$2, (%esi)
	jne	.L61
	.loc 2 1481 0
	leal	(%esi,%edx), %edi
	.loc 2 1485 0
	shrb	%al
	.loc 2 1484 0
	andl	$1, %eax
	pushl	%edi
	pushl	%eax
	leal	12(%ebx), %eax
	.loc 2 1481 0
	movl	%edi, -96(%ebp)
.LVL50:
	.loc 2 1484 0
	pushl	%eax
	leal	8(%ebx), %eax
	pushl	%eax
	call	mbedtls_ssl_read_version
.LVL51:
	.loc 2 1487 0
	movl	(%ebx), %eax
	movl	8(%ebx), %ecx
	addl	$16, %esp
	movzbl	86(%eax), %edx
	cmpl	%edx, %ecx
	jl	.L62
	movzbl	87(%eax), %esi
	.loc 2 1488 0
	movl	12(%ebx), %edx
	.loc 2 1487 0
	cmpl	%esi, %edx
	jl	.L62
	.loc 2 1488 0
	movzbl	84(%eax), %esi
	cmpl	%esi, %ecx
	jg	.L62
	.loc 2 1489 0
	movzbl	85(%eax), %eax
	cmpl	%eax, %edx
	jle	.L63
.LVL52:
.L62:
	.loc 2 1498 0
	pushl	%esi
	pushl	$70
	pushl	$2
	pushl	%ebx
	call	mbedtls_ssl_send_alert_message
.LVL53:
	addl	$16, %esp
	.loc 2 1501 0
	movl	$-28288, %eax
	jmp	.L13
.LVL54:
.L63:
	.loc 2 1512 0
	movl	48(%ebx), %eax
	movl	-96(%ebp), %edi
.LVL55:
	movl	$8, %ecx
	addl	$124, %eax
	leal	2(%edi), %esi
	movl	%eax, %edi
	.loc 2 1514 0
	movl	-96(%ebp), %eax
	.loc 2 1512 0
	rep movsl
	.loc 2 1514 0
	movzbl	34(%eax), %eax
	.loc 2 1518 0
	cmpl	$32, %eax
	.loc 2 1514 0
	movl	%eax, -92(%ebp)
.LVL56:
	.loc 2 1518 0
	ja	.L61
.LBB65:
.LBB66:
	.loc 1 462 0
	movl	(%ebx), %eax
.LVL57:
.LBE66:
.LBE65:
	.loc 2 1524 0
	movl	-92(%ebp), %edi
	movl	144(%ebx), %edx
.LVL58:
.LBB68:
.LBB67:
	.loc 1 462 0
	movb	88(%eax), %al
	andl	$2, %eax
	.loc 1 463 0
	cmpb	$1, %al
	sbbl	%eax, %eax
	andl	$-8, %eax
.LBE67:
.LBE68:
	.loc 2 1524 0
	leal	12(%edi,%eax), %eax
	leal	39(%eax), %ecx
	cmpl	%ecx, %edx
	jbe	.L65
	.loc 2 1526 0
	movl	-96(%ebp), %edi
	movl	-92(%ebp), %esi
	movzbl	38(%edi,%esi), %ecx
	movzbl	39(%edi,%esi), %esi
	sall	$8, %ecx
	orl	%esi, %ecx
	movl	%ecx, -100(%ebp)
.LVL59:
	.loc 2 1529 0
	movl	%ecx, %edi
	leal	-1(%ecx), %ecx
.LVL60:
	cmpl	$2, %ecx
	jbe	.L61
	leal	40(%eax,%edi), %eax
	cmpl	%eax, %edx
	je	.L66
	jmp	.L61
.LVL61:
.L65:
	.loc 2 1536 0
	addl	$38, %eax
	cmpl	%eax, %edx
	jne	.L61
	.loc 2 1538 0
	movl	$0, -100(%ebp)
.LVL62:
.L66:
	.loc 2 1547 0
	movl	-96(%ebp), %eax
	movl	-92(%ebp), %esi
	movl	-92(%ebp), %edi
	.loc 2 1566 0
	movl	-92(%ebp), %ecx
	.loc 2 1547 0
	movzbl	35(%eax,%esi), %esi
	movzbl	36(%eax,%edi), %eax
	.loc 2 1566 0
	movl	-96(%ebp), %edi
	.loc 2 1547 0
	sall	$8, %esi
	orl	%eax, %esi
.LVL63:
	.loc 2 1566 0
	cmpb	$0, 37(%edi,%ecx)
	.loc 2 1570 0
	movl	$-28800, %eax
	.loc 2 1566 0
	jne	.L13
	.loc 2 1576 0
	subl	$12, %esp
	movl	64(%ebx), %edi
.LVL64:
	pushl	%esi
.LVL65:
	call	mbedtls_ssl_ciphersuite_from_id
.LVL66:
	movl	%eax, (%edi)
	.loc 2 1578 0
	movl	64(%ebx), %eax
	addl	$16, %esp
	movl	(%eax), %eax
	testl	%eax, %eax
	je	.L110
	.loc 2 1584 0
	pushl	%ecx
	pushl	%ecx
	pushl	%eax
	pushl	%ebx
	call	mbedtls_ssl_optimize_checksum
.LVL67:
	.loc 2 1592 0
	movl	48(%ebx), %edi
	addl	$16, %esp
	cmpl	$0, 204(%edi)
	je	.L67
	cmpl	$0, -92(%ebp)
	je	.L67
	.loc 2 1596 0
	movl	44(%ebx), %eax
	.loc 2 1592 0
	cmpl	(%eax), %esi
	jne	.L67
	.loc 2 1596 0
	cmpl	$0, 4(%eax)
	jne	.L67
	.loc 2 1597 0
	movl	-92(%ebp), %ecx
	cmpl	8(%eax), %ecx
	jne	.L67
	.loc 2 1599 0
	pushl	%edx
	pushl	%ecx
	addl	$12, %eax
	movl	-96(%ebp), %ecx
	leal	35(%ecx), %edx
	pushl	%edx
	pushl	%eax
	call	memcmp
.LVL68:
	addl	$16, %esp
	.loc 2 1598 0
	testl	%eax, %eax
	je	.L68
.L67:
	.loc 2 1606 0
	movl	44(%ebx), %eax
	.loc 2 1601 0
	incl	4(%ebx)
	.loc 2 1602 0
	movl	$0, 204(%edi)
	.loc 2 1609 0
	movl	-92(%ebp), %ecx
	.loc 2 1606 0
	movl	%esi, (%eax)
	.loc 2 1609 0
	addl	$12, %eax
	.loc 2 1608 0
	movl	-92(%ebp), %esi
.LVL69:
	.loc 2 1607 0
	movl	$0, -8(%eax)
	.loc 2 1608 0
	movl	%esi, -4(%eax)
	.loc 2 1609 0
	movl	-96(%ebp), %esi
	movl	%eax, %edi
	addl	$35, %esi
	rep movsb
	jmp	.L69
.LVL70:
.L68:
	.loc 2 1615 0
	subl	$12, %esp
	.loc 2 1613 0
	movl	$12, 4(%ebx)
	.loc 2 1615 0
	pushl	%ebx
	call	mbedtls_ssl_derive_keys
.LVL71:
	addl	$16, %esp
	testl	%eax, %eax
	jne	.L13
.LVL72:
.L69:
	.loc 2 1628 0
	movl	44(%ebx), %eax
	subl	$12, %esp
	pushl	(%eax)
	call	mbedtls_ssl_ciphersuite_from_id
.LVL73:
	.loc 2 1629 0
	addl	$16, %esp
	testl	%eax, %eax
	je	.L61
	.loc 2 1645 0
	movl	(%ebx), %esi
	movl	12(%ebx), %eax
.LVL74:
	movl	(%esi,%eax,4), %eax
.L70:
	movl	(%eax), %ecx
	testl	%ecx, %ecx
	je	.L61
	.loc 2 1652 0
	movl	44(%ebx), %edx
	addl	$4, %eax
	.loc 2 1651 0
	cmpl	(%edx), %ecx
	jne	.L70
	.loc 2 1669 0
	movl	-96(%ebp), %eax
	movl	-92(%ebp), %edi
	.loc 2 1667 0
	movl	$0, 4(%edx)
	.loc 2 1669 0
	leal	40(%eax,%edi), %eax
.LVL75:
.L71:
	.loc 2 1673 0
	cmpl	$0, -100(%ebp)
	je	.L205
	movw	2(%eax), %di
	movw	(%eax), %dx
	rolw	$8, %di
	xchgb	%dh, %dl
.LVL76:
.LBB69:
	.loc 2 1677 0
	movzwl	%di, %ecx
.LVL77:
	movw	%di, -92(%ebp)
	.loc 2 1680 0
	leal	4(%ecx), %edi
	cmpl	-100(%ebp), %edi
	ja	.L61
	.loc 2 1686 0
	cmpw	$1, %dx
	je	.L73
	cmpw	$-255, %dx
	jne	.L72
.LVL78:
.LBB70:
.LBB71:
	.loc 2 1082 0
	cmpw	$1, -92(%ebp)
	jne	.L75
	cmpb	$0, 4(%eax)
	je	.L76
.L75:
	.loc 2 1086 0
	subl	$12, %esp
	pushl	%ebx
.LVL79:
	call	mbedtls_ssl_send_fatal_handshake_failure
.LVL80:
	addl	$16, %esp
	.loc 2 1089 0
	movl	$-31104, %edx
	testl	%eax, %eax
	cmove	%edx, %eax
.LVL81:
	jmp	.L13
.LVL82:
.L76:
	.loc 2 1092 0
	movl	$1, 200(%ebx)
.LVL83:
	jmp	.L72
.LVL84:
.L73:
.LBE71:
.LBE70:
.LBB72:
.LBB73:
	.loc 2 1107 0
	movl	88(%esi), %edx
	testw	$448, %dx
	je	.L61
	cmpw	$1, -92(%ebp)
	jne	.L61
	.loc 2 1109 0
	shrw	$6, %dx
	andl	$7, %edx
	.loc 2 1108 0
	cmpb	%dl, 4(%eax)
	jne	.L61
.LVL85:
.L72:
.LBE73:
.LBE72:
	.loc 2 1808 0
	movl	-100(%ebp), %edx
	.loc 2 1809 0
	addl	%edi, %eax
.LVL86:
	.loc 2 1808 0
	subl	%ecx, %edx
	leal	-4(%edx), %ecx
.LVL87:
	.loc 2 1811 0
	subl	$5, %edx
	cmpl	$2, %edx
	.loc 2 1808 0
	movl	%ecx, -100(%ebp)
.LVL88:
	.loc 2 1811 0
	ja	.L71
	jmp	.L61
.LVL89:
.L205:
.LBE69:
	.loc 2 1821 0
	cmpl	$0, 200(%ebx)
	jne	.L199
	movb	88(%esi), %al
.LVL90:
	andl	$48, %eax
	cmpb	$32, %al
	jne	.L199
.LVL91:
	.loc 2 1853 0
	subl	$12, %esp
	pushl	%ebx
	call	mbedtls_ssl_send_fatal_handshake_failure
.LVL92:
	addl	$16, %esp
	testl	%eax, %eax
	jne	.L13
.LVL93:
.L61:
	.loc 2 1856 0
	movl	$-31104, %eax
	jmp	.L13
.LVL94:
.L20:
.LBE58:
.LBE57:
	.loc 2 3328 0
	subl	$12, %esp
	pushl	%ebx
	call	mbedtls_ssl_parse_certificate
.LVL95:
	jmp	.L200
.LVL96:
.L21:
.LBB74:
.LBB75:
	.loc 2 2195 0
	movl	64(%ebx), %eax
	movl	(%eax), %esi
.LVL97:
	.loc 2 2201 0
	cmpl	$1, 16(%esi)
	jne	.L82
	.loc 2 2204 0
	movl	$5, 4(%ebx)
	jmp	.L199
.L82:
	.loc 2 2231 0
	subl	$12, %esp
	pushl	%ebx
	call	mbedtls_ssl_read_record
.LVL98:
	addl	$16, %esp
	testl	%eax, %eax
	jne	.L13
	.loc 2 2237 0
	cmpl	$22, 108(%ebx)
	je	.L83
.LVL99:
.L84:
	.loc 2 2240 0
	movl	$-30464, %eax
	jmp	.L13
.LVL100:
.L83:
	.loc 2 2247 0
	movl	100(%ebx), %edx
	cmpb	$12, (%edx)
	je	.L130
	.loc 2 2249 0
	movl	16(%esi), %edx
	andl	$-3, %edx
	cmpl	$5, %edx
	jne	.L84
	.loc 2 2252 0
	movl	$1, 152(%ebx)
.LDL1:
	.loc 2 2514 0
	incl	4(%ebx)
	jmp	.L13
.LVL101:
.L22:
.LBE75:
.LBE74:
.LBB77:
.LBB78:
	.loc 2 2554 0
	movl	64(%ebx), %eax
	.loc 2 2558 0
	movl	(%eax), %eax
	movl	16(%eax), %eax
	.loc 2 2561 0
	leal	-5(%eax), %edx
	cmpl	$3, %edx
	jbe	.L151
	cmpl	$11, %eax
	jne	.L85
.L151:
	.loc 2 2565 0
	movl	$6, 4(%ebx)
.LVL102:
	jmp	.L199
.LVL103:
.L85:
	.loc 2 2569 0
	cmpl	$0, 152(%ebx)
	jne	.L87
	.loc 2 2571 0
	subl	$12, %esp
	pushl	%ebx
.LVL104:
	call	mbedtls_ssl_read_record
.LVL105:
	addl	$16, %esp
	testl	%eax, %eax
	jne	.L13
	.loc 2 2577 0
	cmpl	$22, 108(%ebx)
	jne	.L84
	.loc 2 2583 0
	movl	$1, 152(%ebx)
.LVL106:
.L87:
	.loc 2 2589 0
	movl	100(%ebx), %edi
	.loc 2 2587 0
	incl	4(%ebx)
	.loc 2 2586 0
	movl	$0, 192(%ebx)
	.loc 2 2589 0
	cmpb	$13, (%edi)
	jne	.L88
	.loc 2 2590 0
	movl	$1, 192(%ebx)
.L88:
	.loc 2 2595 0
	cmpl	$0, 192(%ebx)
	je	.L199
.LBB79:
.LBB80:
	.loc 1 462 0
	movl	(%ebx), %eax
.LBE80:
.LBE79:
	.loc 2 2598 0
	movl	$0, 152(%ebx)
.LVL107:
.LBB83:
.LBB81:
	.loc 1 462 0
	movb	88(%eax), %al
	andl	$2, %eax
	.loc 1 463 0
	cmpb	$1, %al
.LBE81:
.LBE83:
	.loc 2 2630 0
	movl	144(%ebx), %eax
.LBB84:
.LBB82:
	.loc 1 463 0
	sbbl	%edx, %edx
	andl	$-8, %edx
	addl	$12, %edx
.LBE82:
.LBE84:
	.loc 2 2630 0
	movl	%eax, -92(%ebp)
	.loc 2 2627 0
	movzbl	(%edi,%edx), %ecx
.LVL108:
	.loc 2 2630 0
	leal	(%ecx,%edx), %eax
	movl	%eax, -96(%ebp)
	addl	$2, %eax
	movl	%eax, %esi
	cmpl	%esi, -92(%ebp)
	.loc 2 2633 0
	movl	$-31360, %eax
	.loc 2 2630 0
	jb	.L13
	.loc 2 2638 0
	cmpl	$3, 12(%ebx)
	jne	.L90
.LVL109:
.LBB85:
	.loc 2 2652 0
	leal	(%ecx,%edx), %eax
	leal	(%ecx,%edx), %esi
	movzbl	1(%edi,%eax), %eax
	movzbl	2(%edi,%esi), %esi
	sall	$8, %eax
	orl	%esi, %eax
	leal	2(%ecx,%eax), %ecx
.LVL110:
.LBE85:
	.loc 2 2633 0
	movl	$-31360, %eax
.LBB86:
	.loc 2 2654 0
	leal	2(%ecx,%edx), %esi
	cmpl	%esi, -92(%ebp)
	jb	.L13
.LVL111:
.L90:
.LBE86:
	.loc 2 2663 0
	leal	(%ecx,%edx), %esi
.LVL112:
	.loc 2 2667 0
	leal	3(%ecx,%edx), %edx
.LVL113:
	movzbl	1(%edi,%esi), %eax
	movzbl	2(%edi,%esi), %ebx
	sall	$8, %eax
	orl	%ebx, %eax
	addl	%edx, %eax
	.loc 2 2633 0
	cmpl	%eax, -92(%ebp)
	movl	$0, %edx
	movl	$-31360, %eax
	cmove	%edx, %eax
	jmp	.L13
.LVL114:
.L23:
.LBE78:
.LBE77:
.LBB87:
.LBB88:
	.loc 2 2691 0
	cmpl	$0, 152(%ebx)
	je	.L91
.L94:
	movl	(%ebx), %ecx
.LVL115:
	.loc 2 2705 0
	movl	$0, 152(%ebx)
.LBB89:
.LBB90:
	.loc 1 462 0
	movb	88(%ecx), %al
	andl	$2, %eax
	.loc 1 467 0
	cmpb	$1, %al
.LBE90:
.LBE89:
	.loc 2 2711 0
	movl	$-31616, %eax
.LBB92:
.LBB91:
	.loc 1 467 0
	sbbl	%edx, %edx
	andl	$-8, %edx
	addl	$12, %edx
.LBE91:
.LBE92:
	.loc 2 2707 0
	cmpl	%edx, 144(%ebx)
	je	.L195
	jmp	.L13
.LVL116:
.L91:
	.loc 2 2693 0
	subl	$12, %esp
	pushl	%ebx
	call	mbedtls_ssl_read_record
.LVL117:
	addl	$16, %esp
	testl	%eax, %eax
	jne	.L13
	.loc 2 2699 0
	cmpl	$22, 108(%ebx)
	je	.L94
	jmp	.L84
.LVL118:
.L195:
	.loc 2 2708 0
	movl	100(%ebx), %edx
	.loc 2 2711 0
	movl	$-31616, %eax
	.loc 2 2707 0
	cmpb	$14, (%edx)
	jne	.L13
	.loc 2 2714 0
	incl	4(%ebx)
	.loc 2 2717 0
	testb	$2, 88(%ecx)
	je	.L199
	.loc 2 2718 0
	subl	$12, %esp
	pushl	%ebx
.LVL119:
.L204:
	call	mbedtls_ssl_recv_flight_completed
.LVL120:
	jmp	.L202
.L24:
.LBE88:
.LBE87:
	.loc 2 3351 0
	subl	$12, %esp
	pushl	%ebx
	call	mbedtls_ssl_write_certificate
.LVL121:
	jmp	.L200
.LVL122:
.L25:
.LBB93:
.LBB94:
	.loc 2 2730 0
	movl	64(%ebx), %eax
	.loc 2 2926 0
	movl	(%eax), %edx
	.loc 2 2962 0
	movl	$-27648, %eax
	.loc 2 2926 0
	cmpl	$1, 16(%edx)
	jne	.L13
.LVL123:
.LBB95:
.LBB96:
	.loc 2 2021 0
	movl	48(%ebx), %edi
	.loc 2 2037 0
	movl	(%ebx), %edx
	.loc 2 2020 0
	cmpl	$1, 12(%ebx)
	.loc 2 2021 0
	leal	156(%edi), %eax
	.loc 2 2036 0
	pushl	%eax
.LVL124:
	.loc 2 2021 0
	movl	%eax, -92(%ebp)
	.loc 2 2020 0
	sbbl	%esi, %esi
	.loc 2 2037 0
	movb	88(%edx), %al
	.loc 2 2039 0
	addl	$158, %edi
	.loc 2 2020 0
	notl	%esi
	andl	$2, %esi
.LVL125:
	.loc 2 2037 0
	shrb	%al
	.loc 2 2036 0
	andl	$1, %eax
	pushl	%eax
	movzbl	85(%edx), %eax
	pushl	%eax
	movzbl	84(%edx), %eax
	pushl	%eax
	call	mbedtls_ssl_write_version
.LVL126:
	.loc 2 2039 0
	movl	(%ebx), %eax
	addl	$12, %esp
	pushl	$46
	pushl	%edi
	pushl	28(%eax)
	call	*24(%eax)
.LVL127:
	addl	$16, %esp
	testl	%eax, %eax
	jne	.L13
	.loc 2 2045 0
	movl	48(%ebx), %eax
.LVL128:
	movl	$48, 88(%eax)
	.loc 2 2047 0
	movl	44(%ebx), %eax
	movl	92(%eax), %edx
	.loc 2 2050 0
	movl	$-30464, %eax
	.loc 2 2047 0
	testl	%edx, %edx
	je	.L13
	.loc 2 2056 0
	addl	$188, %edx
	pushl	%ecx
	pushl	%ecx
	pushl	$1
	pushl	%edx
	call	mbedtls_pk_can_do
.LVL129:
	movl	%eax, %edx
	addl	$16, %esp
	.loc 2 2060 0
	movl	$-27904, %eax
	.loc 2 2056 0
	testl	%edx, %edx
	je	.L13
	.loc 2 2067 0
	movl	(%ebx), %eax
	.loc 2 2063 0
	pushl	28(%eax)
	pushl	24(%eax)
	movl	$4092, %eax
	subl	%esi, %eax
	pushl	%eax
	leal	-80(%ebp), %eax
.LVL130:
	pushl	%eax
	movl	176(%ebx), %eax
.LVL131:
	leal	4(%eax,%esi), %eax
	pushl	%eax
.LVL132:
	movl	48(%ebx), %eax
	pushl	88(%eax)
.LVL133:
	pushl	-92(%ebp)
.LVL134:
	movl	44(%ebx), %eax
	movl	92(%eax), %eax
	addl	$188, %eax
	pushl	%eax
.LVL135:
	call	mbedtls_pk_encrypt
.LVL136:
	addl	$32, %esp
	testl	%eax, %eax
	jne	.L13
	.loc 2 2075 0
	cmpl	$2, %esi
	jne	.L98
	.loc 2 2077 0
	movl	-80(%ebp), %eax
.LVL137:
	movl	176(%ebx), %edx
	movl	%eax, %ecx
	shrl	$8, %ecx
	movb	%cl, 4(%edx)
	.loc 2 2078 0
	movl	176(%ebx), %edx
	movb	%al, 5(%edx)
	.loc 2 2079 0
	addl	$2, %eax
	movl	%eax, -80(%ebp)
	jmp	.L98
.LVL138:
.L26:
.LBE96:
.LBE95:
.LBE94:
.LBE93:
.LBB98:
.LBB99:
	.loc 2 3019 0
	movl	64(%ebx), %eax
	.loc 2 3028 0
	subl	$12, %esp
	.loc 2 3019 0
	movl	(%eax), %esi
.LVL139:
	.loc 2 3028 0
	pushl	%ebx
	.loc 2 3020 0
	movl	$0, -80(%ebp)
.LVL140:
	.loc 2 3028 0
	call	mbedtls_ssl_derive_keys
.LVL141:
	addl	$16, %esp
	testl	%eax, %eax
	jne	.L13
	.loc 2 3034 0
	movl	16(%esi), %eax
.LVL142:
	.loc 2 3037 0
	leal	-5(%eax), %edx
	cmpl	$3, %edx
	jbe	.L102
	cmpl	$11, %eax
	jne	.L100
.LVL143:
.L102:
	.loc 2 3041 0
	incl	4(%ebx)
	jmp	.L199
.LVL144:
.L100:
	.loc 2 3045 0
	cmpl	$0, 192(%ebx)
	je	.L102
.LVL145:
.LBB100:
.LBB101:
	.loc 1 420 0
	movl	48(%ebx), %esi
.LVL146:
	testl	%esi, %esi
	je	.L103
	.loc 1 420 0
	movl	8(%esi), %eax
	testl	%eax, %eax
	jne	.L104
.L103:
	.loc 1 423 0
	movl	(%ebx), %eax
	movl	56(%eax), %eax
.LVL147:
	.loc 1 425 0
	testl	%eax, %eax
	je	.L102
.LVL148:
.L104:
.LBE101:
.LBE100:
	.loc 2 3045 0
	cmpl	$0, (%eax)
	je	.L102
	.loc 2 3052 0
	movl	%ebx, %eax
	call	mbedtls_ssl_own_key
.LVL149:
	movl	%eax, %edx
	.loc 2 3055 0
	movl	$-30208, %eax
	.loc 2 3052 0
	testl	%edx, %edx
	je	.L13
	.loc 2 3061 0
	leal	-76(%ebp), %edi
.LVL150:
	pushl	%eax
	pushl	%eax
	pushl	%edi
	pushl	%ebx
	call	*76(%esi)
.LVL151:
	.loc 2 3096 0
	addl	$16, %esp
	cmpl	$3, 12(%ebx)
	.loc 2 3134 0
	movl	$-27648, %eax
	.loc 2 3096 0
	jne	.L13
	.loc 2 3113 0
	movl	64(%ebx), %eax
	movl	(%eax), %eax
	cmpl	$7, 12(%eax)
	movl	176(%ebx), %eax
	jne	.L105
.LVL152:
	.loc 2 3117 0
	movb	$5, 4(%eax)
	.loc 2 3116 0
	movl	$7, %esi
	jmp	.L106
.LVL153:
.L105:
	.loc 2 3122 0
	movb	$4, 4(%eax)
	.loc 2 3121 0
	movl	$6, %esi
.LVL154:
.L106:
	.loc 2 3124 0
	movl	176(%ebx), %edx
	movl	%ebx, %eax
	movl	%edx, -92(%ebp)
	call	mbedtls_ssl_own_key
.LVL155:
	subl	$12, %esp
	pushl	%eax
	call	mbedtls_ssl_sig_from_pk
.LVL156:
	movl	-92(%ebp), %edx
	movb	%al, 5(%edx)
.LVL157:
	.loc 2 3139 0
	movl	(%ebx), %eax
	movl	%eax, -92(%ebp)
	.loc 2 3137 0
	movl	%ebx, %eax
	call	mbedtls_ssl_own_key
.LVL158:
	movl	-92(%ebp), %ecx
	leal	-80(%ebp), %edx
	pushl	28(%ecx)
	pushl	24(%ecx)
	pushl	%edx
	movl	176(%ebx), %ecx
	leal	8(%ecx), %edx
	pushl	%edx
	pushl	$0
	pushl	%edi
	pushl	%esi
	pushl	%eax
	call	mbedtls_pk_sign
.LVL159:
	addl	$48, %esp
	testl	%eax, %eax
	jne	.L13
	.loc 2 3145 0
	movl	-80(%ebp), %eax
.LVL160:
	movl	176(%ebx), %edx
	movl	%eax, %ecx
	shrl	$8, %ecx
	movb	%cl, 6(%edx)
	.loc 2 3146 0
	movl	176(%ebx), %edx
	movb	%al, 7(%edx)
	.loc 2 3148 0
	addl	$8, %eax
	.loc 2 3149 0
	movl	$22, 180(%ebx)
	.loc 2 3148 0
	movl	%eax, 184(%ebx)
	.loc 2 3150 0
	movl	176(%ebx), %eax
	movb	$15, (%eax)
	jmp	.L201
.LVL161:
.L27:
.LBE99:
.LBE98:
	.loc 2 3363 0
	subl	$12, %esp
	pushl	%ebx
	call	mbedtls_ssl_write_change_cipher_spec
.LVL162:
	jmp	.L200
.LVL163:
.L28:
	.loc 2 3367 0
	subl	$12, %esp
	pushl	%ebx
	call	mbedtls_ssl_write_finished
.LVL164:
	jmp	.L200
.LVL165:
.L29:
	.loc 2 3382 0
	subl	$12, %esp
	pushl	%ebx
	call	mbedtls_ssl_parse_change_cipher_spec
.LVL166:
	jmp	.L200
.LVL167:
.L30:
	.loc 2 3386 0
	subl	$12, %esp
	pushl	%ebx
	call	mbedtls_ssl_parse_finished
.LVL168:
	jmp	.L200
.LVL169:
.L31:
	.loc 2 3391 0
	movl	$15, 4(%ebx)
	jmp	.L199
.L32:
	.loc 2 3395 0
	subl	$12, %esp
	pushl	%ebx
	call	mbedtls_ssl_handshake_wrapup
.LVL170:
.L202:
	.loc 2 3396 0
	addl	$16, %esp
.L199:
	xorl	%eax, %eax
	jmp	.L13
.L110:
	.loc 2 3400 0
	movl	$-28928, %eax
	jmp	.L13
.LVL171:
.L130:
.LBB102:
.LBB76:
	.loc 2 2332 0
	movl	$-27648, %eax
.LVL172:
.L13:
.LBE76:
.LBE102:
	.loc 2 3404 0
	movl	-28(%ebp), %esi
	xorl	%gs:20, %esi
	je	.L108
	call	__stack_chk_fail
.LVL173:
.L35:
.LBB103:
.LBB56:
	.loc 2 763 0
	movl	-92(%ebp), %eax
	movl	48(%ebx), %esi
	movl	$8, %ecx
	addl	$6, %eax
	addl	$92, %esi
	movl	%eax, %edi
	rep movsl
.LVL174:
	.loc 2 779 0
	movl	44(%ebx), %eax
	movl	8(%eax), %eax
.LVL175:
	.loc 2 781 0
	leal	-16(%eax), %edx
	cmpl	$16, %edx
	ja	.L149
	.loc 2 785 0
	movl	48(%ebx), %edx
	.loc 2 787 0
	cmpl	$0, 204(%edx)
	cmove	%ecx, %eax
.LVL176:
	jmp	.L37
.LVL177:
.L149:
	xorl	%eax, %eax
.LVL178:
.L37:
	.loc 2 812 0
	movl	-92(%ebp), %edi
	.loc 2 814 0
	xorl	%ecx, %ecx
	.loc 2 812 0
	leal	39(%edi), %esi
.LVL179:
	movb	%al, 38(%edi)
.LVL180:
.L38:
	.loc 2 814 0
	cmpl	%ecx, %eax
	je	.L206
.LVL181:
	.loc 2 815 0
	movl	44(%ebx), %edx
	movb	12(%edx,%ecx), %dl
	movb	%dl, (%esi,%ecx)
	.loc 2 814 0
	incl	%ecx
.LVL182:
	jmp	.L38
.L206:
	leal	(%esi,%eax), %ecx
.LVL183:
	.loc 2 824 0
	movl	(%ebx), %eax
.LVL184:
	testb	$2, 88(%eax)
	je	.L40
	.loc 2 826 0
	movl	48(%ebx), %edx
	leal	1(%ecx), %eax
	cmpl	$0, 20(%edx)
	jne	.L41
.LVL185:
	.loc 2 829 0
	movb	$0, (%ecx)
	movl	%eax, %ecx
	jmp	.L40
.LVL186:
.L41:
	.loc 2 837 0
	movb	24(%edx), %dl
	.loc 2 838 0
	movl	%eax, %edi
	.loc 2 837 0
	movb	%dl, (%ecx)
	.loc 2 839 0
	movl	48(%ebx), %edx
	.loc 2 838 0
	movzbl	24(%edx), %ecx
	movl	20(%edx), %esi
	rep movsb
	.loc 2 840 0
	movl	48(%ebx), %edx
	movzbl	24(%edx), %edx
	leal	(%eax,%edx), %ecx
.LVL187:
.L40:
	.loc 2 848 0
	movl	(%ebx), %eax
	movl	12(%ebx), %edx
	.loc 2 853 0
	leal	2(%ecx), %edi
.LVL188:
	.loc 2 851 0
	movl	$0, -100(%ebp)
	movl	(%eax,%edx,4), %esi
.LVL189:
.L42:
	.loc 2 855 0
	movl	(%esi), %eax
	testl	%eax, %eax
	je	.L207
	.loc 2 857 0
	subl	$12, %esp
	movl	%ecx, -96(%ebp)
	pushl	%eax
	call	mbedtls_ssl_ciphersuite_from_id
.LVL190:
	.loc 2 859 0
	addl	$16, %esp
	testl	%eax, %eax
	.loc 2 857 0
	movl	%eax, %edx
.LVL191:
	.loc 2 859 0
	movl	-96(%ebp), %ecx
	je	.L43
	.loc 2 862 0
	movl	(%ebx), %eax
.LVL192:
	movl	%eax, -96(%ebp)
	movzbl	85(%eax), %eax
	cmpl	%eax, 24(%edx)
	jg	.L43
	movl	-96(%ebp), %eax
	movzbl	87(%eax), %eax
	cmpl	%eax, 32(%edx)
	jl	.L43
	.loc 2 867 0
	movl	-96(%ebp), %eax
	testb	$2, 88(%eax)
	je	.L44
	testb	$4, 36(%edx)
	jne	.L43
.L44:
.LVL193:
	.loc 2 888 0
	movl	(%esi), %eax
	.loc 2 887 0
	incl	-100(%ebp)
.LVL194:
	.loc 2 889 0
	addl	$2, %edi
.LVL195:
	.loc 2 888 0
	sarl	$8, %eax
	movb	%al, -2(%edi)
	.loc 2 889 0
	movl	(%esi), %eax
	movb	%al, -1(%edi)
.L43:
.LVL196:
	addl	$4, %esi
	jmp	.L42
.LVL197:
.L207:
	.loc 2 901 0
	movl	-100(%ebp), %eax
	.loc 2 899 0
	movb	$0, (%edi)
.LVL198:
	.loc 2 900 0
	movb	$-1, 1(%edi)
	.loc 2 901 0
	incl	%eax
.LVL199:
	.loc 2 915 0
	movl	%eax, %edx
	.loc 2 916 0
	addl	%eax, %eax
.LVL200:
	movb	%al, 1(%ecx)
	.loc 2 954 0
	leal	4(%edi), %eax
	.loc 2 915 0
	shrl	$7, %edx
.LVL201:
	movb	%dl, (%ecx)
.LVL202:
	.loc 2 953 0
	movb	$1, 2(%edi)
.LBB48:
.LBB49:
	.loc 2 173 0
	xorl	%ecx, %ecx
.LVL203:
.LBE49:
.LBE48:
	.loc 2 954 0
	movl	%eax, -96(%ebp)
.LVL204:
	.loc 2 971 0
	leal	6(%edi), %eax
.LVL205:
	.loc 2 954 0
	movb	$0, 3(%edi)
	.loc 2 971 0
	movl	%eax, -100(%ebp)
.LVL206:
.LBB51:
.LBB50:
	.loc 2 175 0
	movl	(%ebx), %eax
.LVL207:
	cmpb	$3, 85(%eax)
	jne	.L46
	.loc 2 180 0
	movl	68(%eax), %esi
.LVL208:
	.loc 2 167 0
	xorl	%eax, %eax
.LVL209:
.L47:
	.loc 2 180 0
	cmpl	$0, (%esi,%eax,2)
	je	.L208
	.loc 2 186 0
	addl	$2, %eax
.LVL210:
	jmp	.L47
.L208:
	.loc 2 166 0
	movl	176(%ebx), %ecx
	leal	4096(%ecx), %edx
	.loc 2 173 0
	xorl	%ecx, %ecx
	.loc 2 190 0
	cmpl	%edx, -100(%ebp)
	ja	.L46
	subl	-100(%ebp), %edx
	addl	$6, %eax
.LVL211:
	cmpl	%eax, %edx
	jb	.L46
	.loc 2 170 0
	leal	12(%edi), %edx
.LVL212:
.L49:
	.loc 2 201 0
	movl	(%esi,%ecx,2), %eax
	testl	%eax, %eax
	je	.L209
	.loc 2 208 0
	subl	$12, %esp
	movl	%ecx, -108(%ebp)
	movl	%edx, -104(%ebp)
.LVL213:
	pushl	%eax
	call	mbedtls_ssl_hash_from_md_alg
.LVL214:
	movl	-104(%ebp), %edx
	movl	-108(%ebp), %ecx
	.loc 2 209 0
	addl	$16, %esp
	.loc 2 208 0
	movb	%al, (%edx,%ecx)
	.loc 2 209 0
	addl	$2, %ecx
.LVL215:
	movb	$1, -1(%edx,%ecx)
.LVL216:
	jmp	.L49
.L209:
.LVL217:
	.loc 2 233 0
	leal	2(%ecx), %eax
	.loc 2 237 0
	movb	%cl, 11(%edi)
	.loc 2 230 0
	movb	$0, 6(%edi)
.LVL218:
	.loc 2 231 0
	movb	$13, 7(%edi)
.LVL219:
	.loc 2 233 0
	shrl	$8, %eax
	movb	%al, 8(%edi)
.LVL220:
	.loc 2 234 0
	leal	2(%ecx), %eax
	movb	%al, 9(%edi)
.LVL221:
	.loc 2 236 0
	movl	%ecx, %eax
	.loc 2 239 0
	addl	$6, %ecx
.LVL222:
	.loc 2 236 0
	shrl	$8, %eax
.LVL223:
	movb	%al, 10(%edi)
.LVL224:
.L46:
.LBE50:
.LBE51:
	.loc 2 990 0
	movl	-96(%ebp), %eax
.LBB52:
.LBB53:
	.loc 2 436 0
	movl	(%ebx), %esi
.LBE53:
.LBE52:
	.loc 2 990 0
	leal	2(%eax,%ecx), %edx
.LVL225:
.LBB55:
.LBB54:
	.loc 2 432 0
	movl	176(%ebx), %eax
	addl	$4096, %eax
.LVL226:
	.loc 2 442 0
	testw	$448, 88(%esi)
	je	.L119
	cmpl	%eax, %edx
	ja	.L119
	subl	%edx, %eax
.LVL227:
	movl	%eax, %esi
	.loc 2 434 0
	xorl	%eax, %eax
	.loc 2 442 0
	cmpl	$4, %esi
	jbe	.L51
.LVL228:
	.loc 2 448 0
	movb	$0, (%edx)
.LVL229:
	.loc 2 449 0
	movb	$1, 1(%edx)
.LVL230:
	.loc 2 451 0
	movb	$0, 2(%edx)
.LVL231:
	.loc 2 452 0
	movb	$1, 3(%edx)
.LVL232:
	.loc 2 454 0
	movl	(%ebx), %eax
	movl	88(%eax), %eax
	shrw	$6, %ax
	andl	$7, %eax
	movb	%al, 4(%edx)
.LVL233:
	.loc 2 456 0
	movl	$5, %eax
	jmp	.L51
.LVL234:
.L119:
	.loc 2 434 0
	xorl	%eax, %eax
.LVL235:
.L51:
.LBE54:
.LBE55:
	.loc 2 1025 0
	addl	%ecx, %eax
.LVL236:
	movl	%eax, %edx
	je	.L52
.LVL237:
	.loc 2 1028 0
	movb	%dl, 5(%edi)
	.loc 2 1029 0
	addl	-100(%ebp), %edx
	.loc 2 1027 0
	shrl	$8, %eax
.LVL238:
	movb	%al, 4(%edi)
.LVL239:
	.loc 2 1029 0
	movl	%edx, -96(%ebp)
.LVL240:
.L52:
	.loc 2 1032 0
	movl	-96(%ebp), %eax
	subl	-92(%ebp), %eax
	.loc 2 1033 0
	movl	$22, 180(%ebx)
	.loc 2 1032 0
	movl	%eax, 184(%ebx)
	.loc 2 1034 0
	movl	176(%ebx), %eax
	movb	$1, (%eax)
	.loc 2 1039 0
	movl	(%ebx), %eax
	.loc 2 1036 0
	incl	4(%ebx)
	.loc 2 1039 0
	testb	$2, 88(%eax)
	je	.L203
	.loc 2 1040 0
	subl	$12, %esp
	pushl	%ebx
	call	mbedtls_ssl_send_flight_completed
.LVL241:
	addl	$16, %esp
	jmp	.L203
.LVL242:
.L98:
.LBE56:
.LBE103:
.LBB104:
.LBB97:
	.loc 2 2965 0
	movl	-80(%ebp), %eax
	.loc 2 2966 0
	movl	$22, 180(%ebx)
	.loc 2 2965 0
	addl	$4, %eax
	movl	%eax, 184(%ebx)
	.loc 2 2967 0
	movl	176(%ebx), %eax
	movb	$16, (%eax)
.LVL243:
.L201:
	.loc 2 2969 0
	incl	4(%ebx)
.L203:
	.loc 2 2971 0
	subl	$12, %esp
	pushl	%ebx
	call	mbedtls_ssl_write_record
.LVL244:
.L200:
	addl	$16, %esp
	jmp	.L13
.LVL245:
.L108:
.LBE97:
.LBE104:
	.loc 2 3404 0
	leal	-12(%ebp), %esp
	popl	%ebx
	.cfi_restore 3
	popl	%esi
	.cfi_restore 6
	popl	%edi
	.cfi_restore 7
	popl	%ebp
	.cfi_restore 5
	.cfi_def_cfa 4, 4
	ret
	.cfi_endproc
.LFE29:
	.size	mbedtls_ssl_handshake_client_step, .-mbedtls_ssl_handshake_client_step
	.section	.text.unlikely.mbedtls_ssl_handshake_client_step
.LCOLDE1:
	.section	.text.mbedtls_ssl_handshake_client_step
.LHOTE1:
	.text
.Letext0:
	.section	.text.unlikely.mbedtls_ssl_own_key
.Letext_cold0:
	.file 3 "/home/stone/Documents/Ali_IOT/build/compiler/gcc-arm-none-eabi/Linux64/arm-none-eabi/include/machine/_default_types.h"
	.file 4 "/home/stone/Documents/Ali_IOT/build/compiler/gcc-arm-none-eabi/Linux64/lib/gcc/arm-none-eabi/5.4.1/include/stddef.h"
	.file 5 "/home/stone/Documents/Ali_IOT/build/compiler/gcc-arm-none-eabi/Linux64/arm-none-eabi/include/sys/_stdint.h"
	.file 6 "./security/mbedtls/include/mbedtls/md.h"
	.file 7 "./security/mbedtls/include/mbedtls/pk.h"
	.file 8 "./security/mbedtls/include/mbedtls/cipher.h"
	.file 9 "./security/mbedtls/include/mbedtls/ssl_ciphersuites.h"
	.file 10 "./security/mbedtls/include/mbedtls/asn1.h"
	.file 11 "./security/mbedtls/include/mbedtls/x509.h"
	.file 12 "./security/mbedtls/include/mbedtls/x509_crl.h"
	.file 13 "./security/mbedtls/include/mbedtls/x509_crt.h"
	.file 14 "./security/mbedtls/include/mbedtls/ssl.h"
	.file 15 "./security/mbedtls/include/mbedtls/sha256_alt.h"
	.file 16 "./security/mbedtls/include/mbedtls/platform_alt.h"
	.file 17 "/home/stone/Documents/Ali_IOT/build/compiler/gcc-arm-none-eabi/Linux64/arm-none-eabi/include/string.h"
	.section	.note.GNU-stack,"",@progbits
