	.file	"sys.c"
	.text
.Ltext0:
	.section	.text.unlikely.sys_msleep,"ax",@progbits
.LCOLDB0:
	.section	.text.sys_msleep,"ax",@progbits
.LHOTB0:
	.section	.text.unlikely.sys_msleep
.Ltext_cold0:
	.section	.text.sys_msleep
	.globl	sys_msleep
	.type	sys_msleep, @function
sys_msleep:
.LFB17:
	.file 1 "kernel/protocols/net/core/sys.c"
	.loc 1 56 0
	.cfi_startproc
.LVL0:
	pushl	%ebp
	.cfi_def_cfa_offset 8
	.cfi_offset 5, -8
	movl	%esp, %ebp
	.cfi_def_cfa_register 5
	pushl	%esi
	pushl	%ebx
	subl	$16, %esp
	.cfi_offset 6, -12
	.cfi_offset 3, -16
	.loc 1 56 0
	movl	8(%ebp), %esi
	movl	%gs:20, %eax
	movl	%eax, -12(%ebp)
	xorl	%eax, %eax
	.loc 1 57 0
	testl	%esi, %esi
	je	.L1
.LBB2:
	.loc 1 59 0
	leal	-16(%ebp), %ebx
	pushl	%edx
	pushl	%edx
	pushl	$0
	pushl	%ebx
	call	sys_sem_new
.LVL1:
	.loc 1 60 0
	addl	$16, %esp
	testb	%al, %al
	jne	.L1
.LVL2:
	.loc 1 61 0
	pushl	%eax
	pushl	%eax
	pushl	%esi
	pushl	%ebx
	call	sys_arch_sem_wait
.LVL3:
	.loc 1 62 0
	movl	%ebx, (%esp)
	call	sys_sem_free
.LVL4:
	addl	$16, %esp
.L1:
.LBE2:
	.loc 1 65 0
	movl	-12(%ebp), %eax
	xorl	%gs:20, %eax
	je	.L4
	call	__stack_chk_fail
.LVL5:
.L4:
	leal	-8(%ebp), %esp
	popl	%ebx
	.cfi_restore 3
	popl	%esi
	.cfi_restore 6
	popl	%ebp
	.cfi_restore 5
	.cfi_def_cfa 4, 4
	ret
	.cfi_endproc
.LFE17:
	.size	sys_msleep, .-sys_msleep
	.section	.text.unlikely.sys_msleep
.LCOLDE0:
	.section	.text.sys_msleep
.LHOTE0:
	.text
.Letext0:
	.section	.text.unlikely.sys_msleep
.Letext_cold0:
	.file 2 "././platform/mcu/moc108/include/lwip-2.0.2/arch/cc.h"
	.file 3 "./kernel/protocols/net/include/lwip/err.h"
	.file 4 "./include/aos/kernel.h"
	.file 5 "./kernel/protocols/net/port/include/arch/sys_arch.h"
	.file 6 "./kernel/protocols/net/include/lwip/sys.h"
	.file 7 "./include/aos/log.h"
	.section	.note.GNU-stack,"",@progbits
