	.file	"sys_arch.c"
	.text
.Ltext0:
	.section	.text.unlikely.sys_sem_new,"ax",@progbits
.LCOLDB0:
	.section	.text.sys_sem_new,"ax",@progbits
.LHOTB0:
	.section	.text.unlikely.sys_sem_new
.Ltext_cold0:
	.section	.text.sys_sem_new
	.globl	sys_sem_new
	.type	sys_sem_new, @function
sys_sem_new:
.LFB17:
	.file 1 "kernel/protocols/net/port/sys_arch.c"
	.loc 1 57 0
	.cfi_startproc
.LVL0:
	pushl	%ebp
	.cfi_def_cfa_offset 8
	.cfi_offset 5, -8
	movl	%esp, %ebp
	.cfi_def_cfa_register 5
	subl	$16, %esp
	.loc 1 59 0
	movzbl	12(%ebp), %eax
	pushl	%eax
	pushl	8(%ebp)
	call	aos_sem_new
.LVL1:
	.loc 1 64 0
	addl	$16, %esp
	testl	%eax, %eax
	setne	%al
.LVL2:
	.loc 1 65 0
	leave
	.cfi_restore 5
	.cfi_def_cfa 4, 4
	.loc 1 64 0
	negl	%eax
	.loc 1 65 0
	ret
	.cfi_endproc
.LFE17:
	.size	sys_sem_new, .-sys_sem_new
	.section	.text.unlikely.sys_sem_new
.LCOLDE0:
	.section	.text.sys_sem_new
.LHOTE0:
	.section	.text.unlikely.sys_sem_free,"ax",@progbits
.LCOLDB1:
	.section	.text.sys_sem_free,"ax",@progbits
.LHOTB1:
	.globl	sys_sem_free
	.type	sys_sem_free, @function
sys_sem_free:
.LFB18:
	.loc 1 74 0
	.cfi_startproc
.LVL3:
	pushl	%ebp
	.cfi_def_cfa_offset 8
	.cfi_offset 5, -8
	movl	%esp, %ebp
	.cfi_def_cfa_register 5
	.loc 1 74 0
	movl	8(%ebp), %eax
	.loc 1 75 0
	testl	%eax, %eax
	je	.L3
	.loc 1 78 0
	popl	%ebp
	.cfi_remember_state
	.cfi_restore 5
	.cfi_def_cfa 4, 4
	.loc 1 76 0
	jmp	aos_sem_free
.LVL4:
.L3:
	.cfi_restore_state
	.loc 1 78 0
	popl	%ebp
	.cfi_restore 5
	.cfi_def_cfa 4, 4
	ret
	.cfi_endproc
.LFE18:
	.size	sys_sem_free, .-sys_sem_free
	.section	.text.unlikely.sys_sem_free
.LCOLDE1:
	.section	.text.sys_sem_free
.LHOTE1:
	.section	.text.unlikely.sys_sem_signal,"ax",@progbits
.LCOLDB2:
	.section	.text.sys_sem_signal,"ax",@progbits
.LHOTB2:
	.globl	sys_sem_signal
	.type	sys_sem_signal, @function
sys_sem_signal:
.LFB19:
	.loc 1 88 0
	.cfi_startproc
.LVL5:
	pushl	%ebp
	.cfi_def_cfa_offset 8
	.cfi_offset 5, -8
	movl	%esp, %ebp
	.cfi_def_cfa_register 5
	.loc 1 90 0
	popl	%ebp
	.cfi_restore 5
	.cfi_def_cfa 4, 4
	.loc 1 89 0
	jmp	aos_sem_signal
.LVL6:
	.cfi_endproc
.LFE19:
	.size	sys_sem_signal, .-sys_sem_signal
	.section	.text.unlikely.sys_sem_signal
.LCOLDE2:
	.section	.text.sys_sem_signal
.LHOTE2:
	.section	.text.unlikely.sys_mbox_new,"ax",@progbits
.LCOLDB3:
	.section	.text.sys_mbox_new,"ax",@progbits
.LHOTB3:
	.globl	sys_mbox_new
	.type	sys_mbox_new, @function
sys_mbox_new:
.LFB21:
	.loc 1 386 0
	.cfi_startproc
.LVL7:
	pushl	%ebp
	.cfi_def_cfa_offset 8
	.cfi_offset 5, -8
	movl	%esp, %ebp
	.cfi_def_cfa_register 5
	pushl	%ebx
	subl	$16, %esp
	.cfi_offset 3, -12
	.loc 1 390 0
	movl	12(%ebp), %eax
	leal	0(,%eax,4), %ebx
	pushl	%ebx
	call	malloc
.LVL8:
	.loc 1 391 0
	addl	$16, %esp
	testl	%eax, %eax
	movb	$-1, %dl
	je	.L10
	.loc 1 395 0
	pushl	$4
	pushl	%ebx
	pushl	%eax
	pushl	8(%ebp)
	call	aos_queue_new
.LVL9:
	.loc 1 397 0
	addl	$16, %esp
	testl	%eax, %eax
	setne	%dl
	negl	%edx
.LVL10:
.L10:
	.loc 1 401 0
	movb	%dl, %al
	movl	-4(%ebp), %ebx
	leave
	.cfi_restore 5
	.cfi_restore 3
	.cfi_def_cfa 4, 4
	ret
	.cfi_endproc
.LFE21:
	.size	sys_mbox_new, .-sys_mbox_new
	.section	.text.unlikely.sys_mbox_new
.LCOLDE3:
	.section	.text.sys_mbox_new
.LHOTE3:
	.section	.text.unlikely.sys_mbox_free,"ax",@progbits
.LCOLDB4:
	.section	.text.sys_mbox_free,"ax",@progbits
.LHOTB4:
	.globl	sys_mbox_free
	.type	sys_mbox_free, @function
sys_mbox_free:
.LFB22:
	.loc 1 410 0
	.cfi_startproc
.LVL11:
	pushl	%ebp
	.cfi_def_cfa_offset 8
	.cfi_offset 5, -8
	movl	%esp, %ebp
	.cfi_def_cfa_register 5
	pushl	%ebx
	pushl	%eax
	.cfi_offset 3, -12
	.loc 1 410 0
	movl	8(%ebp), %ebx
	.loc 1 413 0
	testl	%ebx, %ebx
	je	.L14
	.loc 1 414 0
	subl	$12, %esp
	pushl	%ebx
	call	aos_queue_buf_ptr
.LVL12:
	.loc 1 415 0
	addl	$16, %esp
	testl	%eax, %eax
	je	.L16
.LBB2:
	.loc 1 416 0
	subl	$12, %esp
	pushl	%eax
	call	free
.LVL13:
	addl	$16, %esp
.L16:
.LBE2:
	.loc 1 417 0
	movl	%ebx, 8(%ebp)
	.loc 1 419 0
	movl	-4(%ebp), %ebx
	leave
	.cfi_remember_state
	.cfi_restore 5
	.cfi_restore 3
	.cfi_def_cfa 4, 4
	.loc 1 417 0
	jmp	aos_queue_free
.LVL14:
.L14:
	.cfi_restore_state
	.loc 1 419 0
	movl	-4(%ebp), %ebx
	leave
	.cfi_restore 5
	.cfi_restore 3
	.cfi_def_cfa 4, 4
	ret
	.cfi_endproc
.LFE22:
	.size	sys_mbox_free, .-sys_mbox_free
	.section	.text.unlikely.sys_mbox_free
.LCOLDE4:
	.section	.text.sys_mbox_free
.LHOTE4:
	.section	.text.unlikely.sys_mbox_post,"ax",@progbits
.LCOLDB5:
	.section	.text.sys_mbox_post,"ax",@progbits
.LHOTB5:
	.globl	sys_mbox_post
	.type	sys_mbox_post, @function
sys_mbox_post:
.LFB23:
	.loc 1 428 0
	.cfi_startproc
.LVL15:
	pushl	%ebp
	.cfi_def_cfa_offset 8
	.cfi_offset 5, -8
	movl	%esp, %ebp
	.cfi_def_cfa_register 5
	subl	$12, %esp
	.loc 1 429 0
	leal	12(%ebp), %eax
.LVL16:
	pushl	$4
	pushl	%eax
	pushl	8(%ebp)
	call	aos_queue_send
.LVL17:
	.loc 1 430 0
	addl	$16, %esp
	leave
	.cfi_restore 5
	.cfi_def_cfa 4, 4
	ret
	.cfi_endproc
.LFE23:
	.size	sys_mbox_post, .-sys_mbox_post
	.section	.text.unlikely.sys_mbox_post
.LCOLDE5:
	.section	.text.sys_mbox_post
.LHOTE5:
	.section	.text.unlikely.sys_mbox_trypost,"ax",@progbits
.LCOLDB6:
	.section	.text.sys_mbox_trypost,"ax",@progbits
.LHOTB6:
	.globl	sys_mbox_trypost
	.type	sys_mbox_trypost, @function
sys_mbox_trypost:
.LFB24:
	.loc 1 438 0
	.cfi_startproc
.LVL18:
	pushl	%ebp
	.cfi_def_cfa_offset 8
	.cfi_offset 5, -8
	movl	%esp, %ebp
	.cfi_def_cfa_register 5
	subl	$12, %esp
	.loc 1 439 0
	leal	12(%ebp), %eax
.LVL19:
	pushl	$4
	pushl	%eax
	pushl	8(%ebp)
	call	aos_queue_send
.LVL20:
	addl	$16, %esp
	testl	%eax, %eax
	setne	%al
	.loc 1 443 0
	leave
	.cfi_restore 5
	.cfi_def_cfa 4, 4
	negl	%eax
	ret
	.cfi_endproc
.LFE24:
	.size	sys_mbox_trypost, .-sys_mbox_trypost
	.section	.text.unlikely.sys_mbox_trypost
.LCOLDE6:
	.section	.text.sys_mbox_trypost
.LHOTE6:
	.section	.text.unlikely.sys_arch_mbox_tryfetch,"ax",@progbits
.LCOLDB7:
	.section	.text.sys_arch_mbox_tryfetch,"ax",@progbits
.LHOTB7:
	.globl	sys_arch_mbox_tryfetch
	.type	sys_arch_mbox_tryfetch, @function
sys_arch_mbox_tryfetch:
.LFB26:
	.loc 1 503 0
	.cfi_startproc
.LVL21:
	pushl	%ebp
	.cfi_def_cfa_offset 8
	.cfi_offset 5, -8
	movl	%esp, %ebp
	.cfi_def_cfa_register 5
	subl	$24, %esp
	.loc 1 503 0
	movl	%gs:20, %eax
	movl	%eax, -12(%ebp)
	xorl	%eax, %eax
	.loc 1 506 0
	leal	-16(%ebp), %eax
	pushl	%eax
	pushl	12(%ebp)
	pushl	$0
	pushl	8(%ebp)
	call	aos_queue_recv
.LVL22:
	addl	$16, %esp
	testl	%eax, %eax
	setne	%al
	movzbl	%al, %eax
	negl	%eax
	.loc 1 511 0
	movl	-12(%ebp), %edx
	xorl	%gs:20, %edx
	je	.L26
	call	__stack_chk_fail
.LVL23:
.L26:
	leave
	.cfi_restore 5
	.cfi_def_cfa 4, 4
	ret
	.cfi_endproc
.LFE26:
	.size	sys_arch_mbox_tryfetch, .-sys_arch_mbox_tryfetch
	.section	.text.unlikely.sys_arch_mbox_tryfetch
.LCOLDE7:
	.section	.text.sys_arch_mbox_tryfetch
.LHOTE7:
	.section	.text.unlikely.sys_mutex_new,"ax",@progbits
.LCOLDB8:
	.section	.text.sys_mutex_new,"ax",@progbits
.LHOTB8:
	.globl	sys_mutex_new
	.type	sys_mutex_new, @function
sys_mutex_new:
.LFB27:
	.loc 1 520 0
	.cfi_startproc
.LVL24:
	pushl	%ebp
	.cfi_def_cfa_offset 8
	.cfi_offset 5, -8
	movl	%esp, %ebp
	.cfi_def_cfa_register 5
	subl	$20, %esp
	.loc 1 522 0
	pushl	8(%ebp)
	call	aos_mutex_new
.LVL25:
	.loc 1 527 0
	addl	$16, %esp
	testl	%eax, %eax
	setne	%al
.LVL26:
	.loc 1 528 0
	leave
	.cfi_restore 5
	.cfi_def_cfa 4, 4
	.loc 1 527 0
	negl	%eax
	.loc 1 528 0
	ret
	.cfi_endproc
.LFE27:
	.size	sys_mutex_new, .-sys_mutex_new
	.section	.text.unlikely.sys_mutex_new
.LCOLDE8:
	.section	.text.sys_mutex_new
.LHOTE8:
	.section	.text.unlikely.sys_mutex_lock,"ax",@progbits
.LCOLDB9:
	.section	.text.sys_mutex_lock,"ax",@progbits
.LHOTB9:
	.globl	sys_mutex_lock
	.type	sys_mutex_lock, @function
sys_mutex_lock:
.LFB28:
	.loc 1 534 0
	.cfi_startproc
.LVL27:
	pushl	%ebp
	.cfi_def_cfa_offset 8
	.cfi_offset 5, -8
	movl	%esp, %ebp
	.cfi_def_cfa_register 5
	subl	$16, %esp
	.loc 1 535 0
	pushl	$-1
	pushl	8(%ebp)
	call	aos_mutex_lock
.LVL28:
	.loc 1 536 0
	addl	$16, %esp
	leave
	.cfi_restore 5
	.cfi_def_cfa 4, 4
	ret
	.cfi_endproc
.LFE28:
	.size	sys_mutex_lock, .-sys_mutex_lock
	.section	.text.unlikely.sys_mutex_lock
.LCOLDE9:
	.section	.text.sys_mutex_lock
.LHOTE9:
	.section	.text.unlikely.sys_mutex_unlock,"ax",@progbits
.LCOLDB10:
	.section	.text.sys_mutex_unlock,"ax",@progbits
.LHOTB10:
	.globl	sys_mutex_unlock
	.type	sys_mutex_unlock, @function
sys_mutex_unlock:
.LFB29:
	.loc 1 541 0
	.cfi_startproc
.LVL29:
	pushl	%ebp
	.cfi_def_cfa_offset 8
	.cfi_offset 5, -8
	movl	%esp, %ebp
	.cfi_def_cfa_register 5
	.loc 1 543 0
	popl	%ebp
	.cfi_restore 5
	.cfi_def_cfa 4, 4
	.loc 1 542 0
	jmp	aos_mutex_unlock
.LVL30:
	.cfi_endproc
.LFE29:
	.size	sys_mutex_unlock, .-sys_mutex_unlock
	.section	.text.unlikely.sys_mutex_unlock
.LCOLDE10:
	.section	.text.sys_mutex_unlock
.LHOTE10:
	.section	.text.unlikely.sys_mutex_free,"ax",@progbits
.LCOLDB11:
	.section	.text.sys_mutex_free,"ax",@progbits
.LHOTB11:
	.globl	sys_mutex_free
	.type	sys_mutex_free, @function
sys_mutex_free:
.LFB30:
	.loc 1 550 0
	.cfi_startproc
.LVL31:
	pushl	%ebp
	.cfi_def_cfa_offset 8
	.cfi_offset 5, -8
	movl	%esp, %ebp
	.cfi_def_cfa_register 5
	.loc 1 552 0
	popl	%ebp
	.cfi_restore 5
	.cfi_def_cfa 4, 4
	.loc 1 551 0
	jmp	aos_mutex_free
.LVL32:
	.cfi_endproc
.LFE30:
	.size	sys_mutex_free, .-sys_mutex_free
	.section	.text.unlikely.sys_mutex_free
.LCOLDE11:
	.section	.text.sys_mutex_free
.LHOTE11:
	.section	.text.unlikely.sys_now,"ax",@progbits
.LCOLDB12:
	.section	.text.sys_now,"ax",@progbits
.LHOTB12:
	.globl	sys_now
	.type	sys_now, @function
sys_now:
.LFB31:
	.loc 1 561 0
	.cfi_startproc
	pushl	%ebp
	.cfi_def_cfa_offset 8
	.cfi_offset 5, -8
	movl	%esp, %ebp
	.cfi_def_cfa_register 5
	subl	$8, %esp
	.loc 1 562 0
	call	aos_now_ms
.LVL33:
	.loc 1 563 0
	leave
	.cfi_restore 5
	.cfi_def_cfa 4, 4
	ret
	.cfi_endproc
.LFE31:
	.size	sys_now, .-sys_now
	.section	.text.unlikely.sys_now
.LCOLDE12:
	.section	.text.sys_now
.LHOTE12:
	.section	.text.unlikely.sys_arch_sem_wait,"ax",@progbits
.LCOLDB13:
	.section	.text.sys_arch_sem_wait,"ax",@progbits
.LHOTB13:
	.globl	sys_arch_sem_wait
	.type	sys_arch_sem_wait, @function
sys_arch_sem_wait:
.LFB20:
	.loc 1 110 0
	.cfi_startproc
.LVL34:
	pushl	%ebp
	.cfi_def_cfa_offset 8
	.cfi_offset 5, -8
	movl	%esp, %ebp
	.cfi_def_cfa_register 5
	pushl	%edi
	pushl	%esi
	pushl	%ebx
	subl	$12, %esp
	.cfi_offset 7, -12
	.cfi_offset 6, -16
	.cfi_offset 3, -20
	.loc 1 110 0
	movl	8(%ebp), %esi
	movl	12(%ebp), %edi
	.loc 1 114 0
	testl	%esi, %esi
	jne	.L39
.L42:
	.loc 1 115 0
	orl	$-1, %eax
	jmp	.L40
.L39:
	.loc 1 117 0
	call	sys_now
.LVL35:
	.loc 1 119 0
	testl	%edi, %edi
	.loc 1 117 0
	movl	%eax, %ebx
.LVL36:
	.loc 1 119 0
	je	.L45
	.loc 1 120 0
	pushl	%edx
	pushl	%edx
	pushl	%edi
	pushl	%esi
	call	aos_sem_wait
.LVL37:
	.loc 1 121 0
	addl	$16, %esp
	testl	%eax, %eax
	jne	.L42
	.loc 1 122 0
	call	sys_now
.LVL38:
	.loc 1 126 0
	subl	%ebx, %eax
.LVL39:
	jmp	.L40
.LVL40:
.L45:
	.loc 1 131 0 discriminator 1
	pushl	%eax
	pushl	%eax
	pushl	$-1
	pushl	%esi
	call	aos_sem_wait
.LVL41:
	addl	$16, %esp
	testl	%eax, %eax
	jne	.L45
	.loc 1 132 0
	call	sys_now
.LVL42:
	.loc 1 137 0
	movl	$1, %edx
	subl	%ebx, %eax
.LVL43:
	cmove	%edx, %eax
.LVL44:
.L40:
	.loc 1 144 0
	leal	-12(%ebp), %esp
	popl	%ebx
	.cfi_restore 3
	popl	%esi
	.cfi_restore 6
	popl	%edi
	.cfi_restore 7
	popl	%ebp
	.cfi_restore 5
	.cfi_def_cfa 4, 4
	ret
	.cfi_endproc
.LFE20:
	.size	sys_arch_sem_wait, .-sys_arch_sem_wait
	.section	.text.unlikely.sys_arch_sem_wait
.LCOLDE13:
	.section	.text.sys_arch_sem_wait
.LHOTE13:
	.section	.text.unlikely.sys_arch_mbox_fetch,"ax",@progbits
.LCOLDB14:
	.section	.text.sys_arch_mbox_fetch,"ax",@progbits
.LHOTB14:
	.globl	sys_arch_mbox_fetch
	.type	sys_arch_mbox_fetch, @function
sys_arch_mbox_fetch:
.LFB25:
	.loc 1 462 0
	.cfi_startproc
.LVL45:
	pushl	%ebp
	.cfi_def_cfa_offset 8
	.cfi_offset 5, -8
	movl	%esp, %ebp
	.cfi_def_cfa_register 5
	pushl	%edi
	pushl	%esi
	pushl	%ebx
	subl	$44, %esp
	.cfi_offset 7, -12
	.cfi_offset 6, -16
	.cfi_offset 3, -20
	.loc 1 462 0
	movl	8(%ebp), %edi
	movl	12(%ebp), %esi
	movl	%gs:20, %eax
	movl	%eax, -28(%ebp)
	xorl	%eax, %eax
	.loc 1 467 0
	testl	%edi, %edi
	jne	.L50
.L53:
	.loc 1 468 0
	orl	$-1, %eax
	jmp	.L51
.L50:
	.loc 1 470 0
	call	sys_now
.LVL46:
	.loc 1 472 0
	cmpl	$0, 16(%ebp)
	.loc 1 470 0
	movl	%eax, %ebx
.LVL47:
	leal	-32(%ebp), %ecx
	.loc 1 472 0
	je	.L57
	.loc 1 474 0
	pushl	%ecx
	pushl	%esi
	pushl	16(%ebp)
	pushl	%edi
	call	aos_queue_recv
.LVL48:
	addl	$16, %esp
	testl	%eax, %eax
	jne	.L53
	.loc 1 475 0
	call	sys_now
.LVL49:
	.loc 1 477 0
	subl	%ebx, %eax
.LVL50:
	jmp	.L51
.LVL51:
.L57:
	.loc 1 482 0 discriminator 1
	pushl	%ecx
	pushl	%esi
	pushl	$-1
	pushl	%edi
	movl	%ecx, -44(%ebp)
	call	aos_queue_recv
.LVL52:
	addl	$16, %esp
	testl	%eax, %eax
	movl	-44(%ebp), %ecx
	jne	.L57
	.loc 1 483 0
	call	sys_now
.LVL53:
	.loc 1 487 0
	movl	$1, %edx
	subl	%ebx, %eax
.LVL54:
	cmove	%edx, %eax
.LVL55:
.L51:
	.loc 1 494 0
	movl	-28(%ebp), %edx
	xorl	%gs:20, %edx
	je	.L54
	call	__stack_chk_fail
.LVL56:
.L54:
	leal	-12(%ebp), %esp
	popl	%ebx
	.cfi_restore 3
	popl	%esi
	.cfi_restore 6
	popl	%edi
	.cfi_restore 7
	popl	%ebp
	.cfi_restore 5
	.cfi_def_cfa 4, 4
	ret
	.cfi_endproc
.LFE25:
	.size	sys_arch_mbox_fetch, .-sys_arch_mbox_fetch
	.section	.text.unlikely.sys_arch_mbox_fetch
.LCOLDE14:
	.section	.text.sys_arch_mbox_fetch
.LHOTE14:
	.section	.text.unlikely.sys_jiffies,"ax",@progbits
.LCOLDB15:
	.section	.text.sys_jiffies,"ax",@progbits
.LHOTB15:
	.globl	sys_jiffies
	.type	sys_jiffies, @function
sys_jiffies:
.LFB32:
	.loc 1 572 0
	.cfi_startproc
	pushl	%ebp
	.cfi_def_cfa_offset 8
	.cfi_offset 5, -8
	movl	%esp, %ebp
	.cfi_def_cfa_register 5
	subl	$8, %esp
	.loc 1 573 0
	call	aos_now
.LVL57:
	.loc 1 574 0
	leave
	.cfi_restore 5
	.cfi_def_cfa 4, 4
	ret
	.cfi_endproc
.LFE32:
	.size	sys_jiffies, .-sys_jiffies
	.section	.text.unlikely.sys_jiffies
.LCOLDE15:
	.section	.text.sys_jiffies
.LHOTE15:
	.section	.text.unlikely.sys_thread_new,"ax",@progbits
.LCOLDB16:
	.section	.text.sys_thread_new,"ax",@progbits
.LHOTB16:
	.globl	sys_thread_new
	.type	sys_thread_new, @function
sys_thread_new:
.LFB33:
	.loc 1 577 0
	.cfi_startproc
.LVL58:
	pushl	%ebp
	.cfi_def_cfa_offset 8
	.cfi_offset 5, -8
	movl	%esp, %ebp
	.cfi_def_cfa_register 5
	subl	$32, %esp
	.loc 1 577 0
	movl	%gs:20, %eax
	movl	%eax, -12(%ebp)
	xorl	%eax, %eax
	.loc 1 580 0
	leal	-16(%ebp), %eax
	pushl	24(%ebp)
	pushl	20(%ebp)
	pushl	16(%ebp)
	pushl	12(%ebp)
	pushl	8(%ebp)
	pushl	%eax
	call	aos_task_new_ext
.LVL59:
	.loc 1 583 0
	movl	-12(%ebp), %edx
	xorl	%gs:20, %edx
	movl	-16(%ebp), %eax
	je	.L64
	call	__stack_chk_fail
.LVL60:
.L64:
	leave
	.cfi_restore 5
	.cfi_def_cfa 4, 4
	ret
	.cfi_endproc
.LFE33:
	.size	sys_thread_new, .-sys_thread_new
	.section	.text.unlikely.sys_thread_new
.LCOLDE16:
	.section	.text.sys_thread_new
.LHOTE16:
	.section	.text.unlikely.sys_arch_protect,"ax",@progbits
.LCOLDB17:
	.section	.text.sys_arch_protect,"ax",@progbits
.LHOTB17:
	.globl	sys_arch_protect
	.type	sys_arch_protect, @function
sys_arch_protect:
.LFB34:
	.loc 1 600 0
	.cfi_startproc
	pushl	%ebp
	.cfi_def_cfa_offset 8
	.cfi_offset 5, -8
	movl	%esp, %ebp
	.cfi_def_cfa_register 5
	subl	$16, %esp
	.loc 1 601 0
	pushl	$-1
	pushl	$sys_arch_mutex
	call	aos_mutex_lock
.LVL61:
	.loc 1 603 0
	xorl	%eax, %eax
	leave
	.cfi_restore 5
	.cfi_def_cfa 4, 4
	ret
	.cfi_endproc
.LFE34:
	.size	sys_arch_protect, .-sys_arch_protect
	.section	.text.unlikely.sys_arch_protect
.LCOLDE17:
	.section	.text.sys_arch_protect
.LHOTE17:
	.section	.text.unlikely.sys_arch_unprotect,"ax",@progbits
.LCOLDB18:
	.section	.text.sys_arch_unprotect,"ax",@progbits
.LHOTB18:
	.globl	sys_arch_unprotect
	.type	sys_arch_unprotect, @function
sys_arch_unprotect:
.LFB35:
	.loc 1 612 0
	.cfi_startproc
.LVL62:
	pushl	%ebp
	.cfi_def_cfa_offset 8
	.cfi_offset 5, -8
	movl	%esp, %ebp
	.cfi_def_cfa_register 5
	.loc 1 613 0
	movl	$sys_arch_mutex, 8(%ebp)
.LVL63:
	.loc 1 614 0
	popl	%ebp
	.cfi_restore 5
	.cfi_def_cfa 4, 4
	.loc 1 613 0
	jmp	aos_mutex_unlock
.LVL64:
	.cfi_endproc
.LFE35:
	.size	sys_arch_unprotect, .-sys_arch_unprotect
	.section	.text.unlikely.sys_arch_unprotect
.LCOLDE18:
	.section	.text.sys_arch_unprotect
.LHOTE18:
	.section	.text.unlikely.sys_arch_assert,"ax",@progbits
.LCOLDB19:
	.section	.text.sys_arch_assert,"ax",@progbits
.LHOTB19:
	.globl	sys_arch_assert
	.type	sys_arch_assert, @function
sys_arch_assert:
.LFB36:
	.loc 1 621 0
	.cfi_startproc
.LVL65:
	pushl	%ebp
	.cfi_def_cfa_offset 8
	.cfi_offset 5, -8
	movl	%esp, %ebp
	.cfi_def_cfa_register 5
	.loc 1 622 0
	popl	%ebp
	.cfi_restore 5
	.cfi_def_cfa 4, 4
	ret
	.cfi_endproc
.LFE36:
	.size	sys_arch_assert, .-sys_arch_assert
	.section	.text.unlikely.sys_arch_assert
.LCOLDE19:
	.section	.text.sys_arch_assert
.LHOTE19:
	.section	.text.unlikely.net_close,"ax",@progbits
.LCOLDB20:
	.section	.text.net_close,"ax",@progbits
.LHOTB20:
	.globl	net_close
	.type	net_close, @function
net_close:
.LFB37:
	.loc 1 627 0
	.cfi_startproc
.LVL66:
	pushl	%ebp
	.cfi_def_cfa_offset 8
	.cfi_offset 5, -8
	.loc 1 629 0
	xorl	%eax, %eax
	.loc 1 627 0
	movl	%esp, %ebp
	.cfi_def_cfa_register 5
	.loc 1 629 0
	popl	%ebp
	.cfi_restore 5
	.cfi_def_cfa 4, 4
	ret
	.cfi_endproc
.LFE37:
	.size	net_close, .-net_close
	.section	.text.unlikely.net_close
.LCOLDE20:
	.section	.text.net_close
.LHOTE20:
	.section	.text.unlikely.sys_init,"ax",@progbits
.LCOLDB21:
	.section	.text.sys_init,"ax",@progbits
.LHOTB21:
	.globl	sys_init
	.type	sys_init, @function
sys_init:
.LFB38:
	.loc 1 637 0
	.cfi_startproc
	pushl	%ebp
	.cfi_def_cfa_offset 8
	.cfi_offset 5, -8
	movl	%esp, %ebp
	.cfi_def_cfa_register 5
	subl	$20, %esp
	.loc 1 638 0
	pushl	$sys_arch_mutex
	call	aos_mutex_new
.LVL67:
	.loc 1 639 0
	addl	$16, %esp
	leave
	.cfi_restore 5
	.cfi_def_cfa 4, 4
	ret
	.cfi_endproc
.LFE38:
	.size	sys_init, .-sys_init
	.section	.text.unlikely.sys_init
.LCOLDE21:
	.section	.text.sys_init
.LHOTE21:
	.section	.bss.sys_arch_mutex,"aw",@nobits
	.align 4
	.type	sys_arch_mutex, @object
	.size	sys_arch_mutex, 4
sys_arch_mutex:
	.zero	4
	.text
.Letext0:
	.section	.text.unlikely.sys_sem_new
.Letext_cold0:
	.file 2 "./include/aos/kernel.h"
	.file 3 "././platform/mcu/moc108/include/lwip-2.0.2/arch/cc.h"
	.file 4 "./kernel/protocols/net/include/lwip/err.h"
	.file 5 "./kernel/protocols/net/port/include/arch/sys_arch.h"
	.file 6 "./kernel/protocols/net/include/lwip/sys.h"
	.file 7 "<built-in>"
	.file 8 "./include/aos/log.h"
	.section	.note.GNU-stack,"",@progbits
