	.file	"tcp.c"
	.text
.Ltext0:
	.section	.text.unlikely.tcp_new_port,"ax",@progbits
.LCOLDB0:
	.section	.text.tcp_new_port,"ax",@progbits
.LHOTB0:
	.section	.text.unlikely.tcp_new_port
.Ltext_cold0:
	.section	.text.tcp_new_port
	.type	tcp_new_port, @function
tcp_new_port:
.LFB39:
	.file 1 "kernel/protocols/net/core/tcp.c"
	.loc 1 784 0
	.cfi_startproc
.LVL0:
	pushl	%ebp
	.cfi_def_cfa_offset 8
	.cfi_offset 5, -8
	movw	tcp_port, %ax
	movl	%esp, %ebp
	.cfi_def_cfa_register 5
	pushl	%esi
	.cfi_offset 6, -12
	.loc 1 790 0
	movl	$-16384, %esi
	.loc 1 784 0
	pushl	%ebx
	.cfi_offset 3, -16
	.loc 1 784 0
	movl	$16384, %ebx
.LVL1:
.L2:
	.loc 1 790 0
	leal	1(%eax), %edx
	incw	%ax
	movl	%edx, %eax
	cmove	%esi, %eax
.LVL2:
	.loc 1 791 0
	xorl	%edx, %edx
.LVL3:
.L8:
	.loc 1 795 0
	movl	tcp_pcb_lists(%edx), %ecx
	movl	(%ecx), %ecx
.LVL4:
.L4:
	.loc 1 795 0 is_stmt 0 discriminator 1
	testl	%ecx, %ecx
	je	.L14
	.loc 1 796 0 is_stmt 1
	cmpw	%ax, 26(%ecx)
	jne	.L5
.LVL5:
	.loc 1 797 0
	decw	%bx
.LVL6:
	jne	.L2
	movw	%ax, tcp_port
	.loc 1 798 0
	xorl	%eax, %eax
	jmp	.L6
.L5:
	.loc 1 795 0 discriminator 2
	movl	12(%ecx), %ecx
.LVL7:
	jmp	.L4
.L14:
	addl	$4, %edx
	.loc 1 794 0 discriminator 2
	cmpl	$16, %edx
	jne	.L8
	movw	%ax, tcp_port
.LVL8:
.L6:
	.loc 1 805 0
	popl	%ebx
	.cfi_restore 3
	popl	%esi
	.cfi_restore 6
	popl	%ebp
	.cfi_restore 5
	.cfi_def_cfa 4, 4
	ret
	.cfi_endproc
.LFE39:
	.size	tcp_new_port, .-tcp_new_port
	.section	.text.unlikely.tcp_new_port
.LCOLDE0:
	.section	.text.tcp_new_port
.LHOTE0:
	.section	.text.unlikely.tcp_init,"ax",@progbits
.LCOLDB1:
	.section	.text.tcp_init,"ax",@progbits
.LHOTB1:
	.globl	tcp_init
	.type	tcp_init, @function
tcp_init:
.LFB23:
	.loc 1 140 0
	.cfi_startproc
	pushl	%ebp
	.cfi_def_cfa_offset 8
	.cfi_offset 5, -8
	movl	%esp, %ebp
	.cfi_def_cfa_register 5
	subl	$8, %esp
	.loc 1 142 0
	call	rand
.LVL9:
	orw	$-16384, %ax
	movw	%ax, tcp_port
	.loc 1 144 0
	leave
	.cfi_restore 5
	.cfi_def_cfa 4, 4
	ret
	.cfi_endproc
.LFE23:
	.size	tcp_init, .-tcp_init
	.section	.text.unlikely.tcp_init
.LCOLDE1:
	.section	.text.tcp_init
.LHOTE1:
	.section	.text.unlikely.tcp_backlog_delayed,"ax",@progbits
.LCOLDB2:
	.section	.text.tcp_backlog_delayed,"ax",@progbits
.LHOTB2:
	.globl	tcp_backlog_delayed
	.type	tcp_backlog_delayed, @function
tcp_backlog_delayed:
.LFB27:
	.loc 1 208 0
	.cfi_startproc
.LVL10:
	pushl	%ebp
	.cfi_def_cfa_offset 8
	.cfi_offset 5, -8
	movl	%esp, %ebp
	.cfi_def_cfa_register 5
	.loc 1 208 0
	movl	8(%ebp), %eax
	.loc 1 210 0
	testb	$2, 31(%eax)
	jne	.L17
	.loc 1 211 0
	movl	124(%eax), %edx
	testl	%edx, %edx
	je	.L17
	.loc 1 212 0
	incb	33(%edx)
	.loc 1 214 0
	orw	$512, 30(%eax)
.L17:
	.loc 1 217 0
	popl	%ebp
	.cfi_restore 5
	.cfi_def_cfa 4, 4
	ret
	.cfi_endproc
.LFE27:
	.size	tcp_backlog_delayed, .-tcp_backlog_delayed
	.section	.text.unlikely.tcp_backlog_delayed
.LCOLDE2:
	.section	.text.tcp_backlog_delayed
.LHOTE2:
	.section	.text.unlikely.tcp_backlog_accepted,"ax",@progbits
.LCOLDB3:
	.section	.text.tcp_backlog_accepted,"ax",@progbits
.LHOTB3:
	.globl	tcp_backlog_accepted
	.type	tcp_backlog_accepted, @function
tcp_backlog_accepted:
.LFB28:
	.loc 1 230 0
	.cfi_startproc
.LVL11:
	pushl	%ebp
	.cfi_def_cfa_offset 8
	.cfi_offset 5, -8
	movl	%esp, %ebp
	.cfi_def_cfa_register 5
	.loc 1 230 0
	movl	8(%ebp), %eax
	.loc 1 232 0
	testb	$2, 31(%eax)
	je	.L23
.LVL12:
.LBB5:
.LBB6:
	.loc 1 233 0
	movl	124(%eax), %edx
	testl	%edx, %edx
	je	.L23
	.loc 1 235 0
	decb	33(%edx)
	.loc 1 236 0
	andw	$-513, 30(%eax)
.LVL13:
.L23:
.LBE6:
.LBE5:
	.loc 1 239 0
	popl	%ebp
	.cfi_restore 5
	.cfi_def_cfa 4, 4
	ret
	.cfi_endproc
.LFE28:
	.size	tcp_backlog_accepted, .-tcp_backlog_accepted
	.section	.text.unlikely.tcp_backlog_accepted
.LCOLDE3:
	.section	.text.tcp_backlog_accepted
.LHOTE3:
	.section	.rodata.str1.1,"aMS",@progbits,1
.LC4:
	.string	"tcp_bind: can only bind in state CLOSED"
	.section	.text.unlikely.tcp_bind,"ax",@progbits
.LCOLDB5:
	.section	.text.tcp_bind,"ax",@progbits
.LHOTB5:
	.globl	tcp_bind
	.type	tcp_bind, @function
tcp_bind:
.LFB34:
	.loc 1 541 0
	.cfi_startproc
.LVL14:
	pushl	%ebp
	.cfi_def_cfa_offset 8
	.cfi_offset 5, -8
	.loc 1 549 0
	movl	$ip_addr_any, %eax
	.loc 1 541 0
	movl	%esp, %ebp
	.cfi_def_cfa_register 5
	pushl	%edi
	pushl	%esi
	pushl	%ebx
	subl	$28, %esp
	.cfi_offset 7, -12
	.cfi_offset 6, -16
	.cfi_offset 3, -20
	.loc 1 549 0
	cmpl	$0, 12(%ebp)
	.loc 1 541 0
	movl	8(%ebp), %ebx
	.loc 1 549 0
	cmovne	12(%ebp), %eax
	.loc 1 541 0
	movl	16(%ebp), %edx
	.loc 1 554 0
	testl	%ebx, %ebx
	.loc 1 549 0
	movl	%eax, 12(%ebp)
.LVL15:
	.loc 1 555 0
	movb	$-6, %al
.LVL16:
	.loc 1 554 0
	je	.L34
	.loc 1 558 0
	cmpl	$0, 20(%ebx)
	je	.L35
	.loc 1 558 0 is_stmt 0 discriminator 1
	subl	$12, %esp
	pushl	$.LC4
	call	bk_printf
.LVL17:
	addl	$16, %esp
	movb	$-6, %al
	jmp	.L34
.L35:
	movb	8(%ebx), %al
	movl	%edx, %ecx
	movl	$0, -28(%ebp)
	andl	$4, %eax
	.loc 1 567 0 is_stmt 1
	cmpb	$1, %al
	movb	%al, -29(%ebp)
	sbbl	%edi, %edi
	notl	%edi
	addl	$4, %edi
.LVL18:
	.loc 1 571 0
	testw	%dx, %dx
	jne	.L54
	.loc 1 572 0
	call	tcp_new_port
.LVL19:
	movl	%eax, %ecx
.LVL20:
	.loc 1 574 0
	movb	$-2, %al
.LVL21:
	.loc 1 573 0
	testw	%cx, %cx
	jne	.L38
	jmp	.L34
.LVL22:
.L42:
	.loc 1 580 0
	cmpw	26(%edx), %cx
	je	.L59
.L40:
	.loc 1 579 0 discriminator 2
	movl	12(%edx), %edx
.LVL23:
.L39:
	.loc 1 579 0 discriminator 1
	testl	%edx, %edx
	jne	.L42
	.loc 1 578 0 discriminator 2
	incl	-28(%ebp)
.LVL24:
	cmpl	-28(%ebp), %edi
	je	.L38
.LVL25:
.L54:
	.loc 1 579 0
	movl	-28(%ebp), %eax
	movl	tcp_pcb_lists(,%eax,4), %edx
	movl	(%edx), %edx
.LVL26:
	jmp	.L39
.L59:
	.loc 1 585 0
	cmpb	$0, -29(%ebp)
	je	.L41
	.loc 1 585 0 is_stmt 0 discriminator 1
	testb	$4, 8(%edx)
	jne	.L40
.L41:
	.loc 1 591 0 is_stmt 1
	movl	(%edx), %eax
	testl	%eax, %eax
	movl	%eax, %esi
	je	.L49
	.loc 1 592 0
	movl	12(%ebp), %eax
	movl	(%eax), %eax
	movl	%eax, -36(%ebp)
	.loc 1 590 0
	movl	%esi, %eax
	movl	-36(%ebp), %esi
	cmpl	%esi, %eax
	je	.L49
	testl	%esi, %esi
	jne	.L40
	jmp	.L49
.LVL27:
.L38:
	.loc 1 602 0
	movl	12(%ebp), %eax
	movl	(%eax), %eax
	.loc 1 602 0
	testl	%eax, %eax
	je	.L44
	.loc 1 603 0 discriminator 4
	movl	%eax, (%ebx)
.L44:
	.loc 1 606 0
	movl	tcp_bound_pcbs, %eax
	.loc 1 605 0
	movw	%cx, 26(%ebx)
	.loc 1 606 0
	movl	%ebx, tcp_bound_pcbs
	movl	%eax, 12(%ebx)
	call	tcp_timer_needed
.LVL28:
	.loc 1 608 0
	xorl	%eax, %eax
	jmp	.L34
.LVL29:
.L49:
	.loc 1 594 0
	movb	$-8, %al
.LVL30:
.L34:
	.loc 1 609 0
	leal	-12(%ebp), %esp
	popl	%ebx
	.cfi_restore 3
	popl	%esi
	.cfi_restore 6
	popl	%edi
	.cfi_restore 7
	popl	%ebp
	.cfi_restore 5
	.cfi_def_cfa 4, 4
	ret
	.cfi_endproc
.LFE34:
	.size	tcp_bind, .-tcp_bind
	.section	.text.unlikely.tcp_bind
.LCOLDE5:
	.section	.text.tcp_bind
.LHOTE5:
	.section	.rodata.str1.1
.LC6:
	.string	"tcp_listen: pcb already connected"
	.section	.text.unlikely.tcp_listen_with_backlog,"ax",@progbits
.LCOLDB7:
	.section	.text.tcp_listen_with_backlog,"ax",@progbits
.LHOTB7:
	.globl	tcp_listen_with_backlog
	.type	tcp_listen_with_backlog, @function
tcp_listen_with_backlog:
.LFB36:
	.loc 1 643 0
	.cfi_startproc
.LVL31:
	pushl	%ebp
	.cfi_def_cfa_offset 8
	.cfi_offset 5, -8
	movl	%esp, %ebp
	.cfi_def_cfa_register 5
	pushl	%edi
	pushl	%esi
	pushl	%ebx
	subl	$12, %esp
	.cfi_offset 7, -12
	.cfi_offset 6, -16
	.cfi_offset 3, -20
	.loc 1 643 0
	movl	8(%ebp), %esi
	movl	12(%ebp), %edi
	.loc 1 647 0
	cmpl	$0, 20(%esi)
	je	.L61
	.loc 1 647 0 is_stmt 0 discriminator 1
	subl	$12, %esp
	pushl	$.LC6
	call	bk_printf
.LVL32:
	.loc 1 647 0 is_stmt 1 discriminator 1
	addl	$16, %esp
	jmp	.L67
.L61:
	.loc 1 654 0
	testb	$4, 8(%esi)
	.loc 1 658 0
	movl	tcp_listen_pcbs, %eax
	.loc 1 654 0
	jne	.L64
	jmp	.L63
.LVL33:
.L65:
	.loc 1 658 0 discriminator 2
	movl	12(%eax), %eax
.LVL34:
.L64:
	.loc 1 658 0 discriminator 1
	testl	%eax, %eax
	je	.L63
	.loc 1 659 0
	movw	26(%esi), %cx
	cmpw	%cx, 26(%eax)
	jne	.L65
	.loc 1 659 0 is_stmt 0 discriminator 1
	movl	(%esi), %ecx
	cmpl	%ecx, (%eax)
	jne	.L65
.LVL35:
.L67:
	.loc 1 662 0 is_stmt 1
	xorl	%eax, %eax
	jmp	.L62
.L63:
	.loc 1 667 0
	subl	$12, %esp
	pushl	$3
	call	memp_malloc
.LVL36:
	.loc 1 668 0
	addl	$16, %esp
	testl	%eax, %eax
	.loc 1 667 0
	movl	%eax, %ebx
.LVL37:
	.loc 1 668 0
	je	.L67
	.loc 1 671 0
	movl	16(%esi), %eax
.LVL38:
	movl	%eax, 16(%ebx)
	.loc 1 672 0
	movw	26(%esi), %ax
	.loc 1 673 0
	movl	$1, 20(%ebx)
	.loc 1 672 0
	movw	%ax, 26(%ebx)
	.loc 1 674 0
	movb	24(%esi), %al
	movb	%al, 24(%ebx)
	.loc 1 675 0
	movb	8(%esi), %al
	movb	%al, 8(%ebx)
	.loc 1 676 0
	movb	10(%esi), %al
	movb	%al, 10(%ebx)
	.loc 1 677 0
	movb	9(%esi), %al
	movb	%al, 9(%ebx)
	.loc 1 682 0
	cmpw	$0, 26(%esi)
	.loc 1 681 0
	movl	(%esi), %eax
	movl	%eax, (%ebx)
	.loc 1 682 0
	je	.L68
	.loc 1 683 0
	movl	tcp_bound_pcbs, %eax
	cmpl	%eax, %esi
	jne	.L80
	.loc 1 683 0 is_stmt 0 discriminator 1
	movl	12(%esi), %eax
	movl	%eax, tcp_bound_pcbs
	jmp	.L70
.LVL39:
.L74:
.LBB7:
	movl	%edx, %eax
.LVL40:
.L80:
	.loc 1 683 0 discriminator 8
	testl	%eax, %eax
	je	.L70
	.loc 1 683 0 is_stmt 1 discriminator 9
	movl	12(%eax), %edx
	cmpl	%edx, %esi
	jne	.L74
	.loc 1 683 0 is_stmt 0 discriminator 5
	movl	12(%esi), %edx
	movl	%edx, 12(%eax)
.LVL41:
.L70:
.LBE7:
	.loc 1 683 0 discriminator 10
	movl	$0, 12(%esi)
.L68:
	.loc 1 685 0 is_stmt 1
	pushl	%eax
	pushl	%eax
	pushl	%esi
	pushl	$2
	call	memp_free
.LVL42:
	.loc 1 691 0
	movl	%edi, %eax
	addl	$16, %esp
	.loc 1 687 0
	movl	$tcp_accept_null, 28(%ebx)
	.loc 1 691 0
	testb	%al, %al
	movb	$1, %al
	.loc 1 690 0
	movb	$0, 33(%ebx)
	.loc 1 691 0
	cmovne	%edi, %eax
	movb	%al, 32(%ebx)
	.loc 1 693 0
	movl	tcp_listen_pcbs, %eax
	movl	%ebx, tcp_listen_pcbs
	movl	%eax, 12(%ebx)
	call	tcp_timer_needed
.LVL43:
	.loc 1 694 0
	movl	%ebx, %eax
.LVL44:
.L62:
	.loc 1 695 0
	leal	-12(%ebp), %esp
	popl	%ebx
	.cfi_restore 3
	popl	%esi
	.cfi_restore 6
	popl	%edi
	.cfi_restore 7
	popl	%ebp
	.cfi_restore 5
	.cfi_def_cfa 4, 4
	ret
	.cfi_endproc
.LFE36:
	.size	tcp_listen_with_backlog, .-tcp_listen_with_backlog
	.section	.text.unlikely.tcp_listen_with_backlog
.LCOLDE7:
	.section	.text.tcp_listen_with_backlog
.LHOTE7:
	.section	.text.unlikely.tcp_update_rcv_ann_wnd,"ax",@progbits
.LCOLDB8:
	.section	.text.tcp_update_rcv_ann_wnd,"ax",@progbits
.LHOTB8:
	.globl	tcp_update_rcv_ann_wnd
	.type	tcp_update_rcv_ann_wnd, @function
tcp_update_rcv_ann_wnd:
.LFB37:
	.loc 1 705 0
	.cfi_startproc
.LVL45:
	pushl	%ebp
	.cfi_def_cfa_offset 8
	.cfi_offset 5, -8
	movl	%esp, %ebp
	.cfi_def_cfa_register 5
	pushl	%edi
	pushl	%esi
	movl	8(%ebp), %edx
	pushl	%ebx
	.cfi_offset 7, -12
	.cfi_offset 6, -16
	.cfi_offset 3, -20
	.loc 1 708 0
	movl	$2190, %ebx
	cmpw	$2190, 54(%edx)
	movzwl	54(%edx), %eax
	.loc 1 706 0
	movl	44(%edx), %esi
	.loc 1 708 0
	movl	48(%edx), %ecx
	.loc 1 706 0
	movl	40(%edx), %edi
.LVL46:
	.loc 1 708 0
	cmovbe	%eax, %ebx
	movzwl	%si, %eax
	subl	%ecx, %eax
	addl	%edi, %eax
	cmpl	%ebx, %eax
	js	.L86
	.loc 1 710 0
	movw	%si, 46(%edx)
	.loc 1 711 0
	jmp	.L87
.L86:
	.loc 1 713 0
	movl	%edi, %eax
	subl	%ecx, %eax
	testl	%eax, %eax
	jle	.L88
	.loc 1 716 0
	movw	$0, 46(%edx)
	jmp	.L91
.LVL47:
.L88:
.LBB8:
	.loc 1 723 0
	subl	%edi, %ecx
.LVL48:
	movw	%cx, 46(%edx)
.LVL49:
.L91:
.LBE8:
	.loc 1 725 0
	xorl	%eax, %eax
.L87:
	.loc 1 727 0
	popl	%ebx
	.cfi_restore 3
	popl	%esi
	.cfi_restore 6
.LVL50:
	popl	%edi
	.cfi_restore 7
.LVL51:
	popl	%ebp
	.cfi_restore 5
	.cfi_def_cfa 4, 4
	ret
	.cfi_endproc
.LFE37:
	.size	tcp_update_rcv_ann_wnd, .-tcp_update_rcv_ann_wnd
	.section	.text.unlikely.tcp_update_rcv_ann_wnd
.LCOLDE8:
	.section	.text.tcp_update_rcv_ann_wnd
.LHOTE8:
	.section	.text.unlikely.tcp_recved,"ax",@progbits
.LCOLDB9:
	.section	.text.tcp_recved,"ax",@progbits
.LHOTB9:
	.globl	tcp_recved
	.type	tcp_recved, @function
tcp_recved:
.LFB38:
	.loc 1 740 0
	.cfi_startproc
.LVL52:
	pushl	%ebp
	.cfi_def_cfa_offset 8
	.cfi_offset 5, -8
	movl	%esp, %ebp
	.cfi_def_cfa_register 5
	pushl	%ebx
	pushl	%ecx
	.cfi_offset 3, -12
	.loc 1 740 0
	movl	8(%ebp), %ebx
	.loc 1 747 0
	movl	44(%ebx), %eax
	addl	12(%ebp), %eax
	.loc 1 748 0
	cmpw	$4380, %ax
	.loc 1 747 0
	movw	%ax, 44(%ebx)
	.loc 1 748 0
	jbe	.L93
.L95:
	.loc 1 749 0
	movw	$4380, 44(%ebx)
	jmp	.L94
.L93:
	.loc 1 750 0
	testw	%ax, %ax
	jne	.L94
	.loc 1 752 0
	movl	20(%ebx), %eax
	subl	$7, %eax
	andl	$-3, %eax
	je	.L95
.L94:
	.loc 1 762 0
	pushl	%ebx
	call	tcp_update_rcv_ann_wnd
.LVL53:
	.loc 1 768 0
	cmpl	$1094, %eax
	popl	%edx
	jle	.L92
.LVL54:
.LBB11:
.LBB12:
	.loc 1 769 0
	orw	$2, 30(%ebx)
	.loc 1 770 0
	movl	%ebx, 8(%ebp)
.LBE12:
.LBE11:
	.loc 1 775 0
	movl	-4(%ebp), %ebx
.LVL55:
	leave
	.cfi_remember_state
	.cfi_restore 5
	.cfi_restore 3
	.cfi_def_cfa 4, 4
.LBB14:
.LBB13:
	.loc 1 770 0
	jmp	tcp_output
.LVL56:
.L92:
	.cfi_restore_state
.LBE13:
.LBE14:
	.loc 1 775 0
	movl	-4(%ebp), %ebx
	leave
	.cfi_restore 5
	.cfi_restore 3
	.cfi_def_cfa 4, 4
	ret
	.cfi_endproc
.LFE38:
	.size	tcp_recved, .-tcp_recved
	.section	.text.unlikely.tcp_recved
.LCOLDE9:
	.section	.text.tcp_recved
.LHOTE9:
	.section	.text.unlikely.tcp_txnow,"ax",@progbits
.LCOLDB10:
	.section	.text.tcp_txnow,"ax",@progbits
.LHOTB10:
	.globl	tcp_txnow
	.type	tcp_txnow, @function
tcp_txnow:
.LFB43:
	.loc 1 1235 0
	.cfi_startproc
	pushl	%ebp
	.cfi_def_cfa_offset 8
	.cfi_offset 5, -8
	movl	%esp, %ebp
	.cfi_def_cfa_register 5
	pushl	%ebx
	pushl	%eax
	.cfi_offset 3, -12
	.loc 1 1238 0
	movl	tcp_active_pcbs, %ebx
.LVL57:
.L102:
	.loc 1 1238 0 is_stmt 0 discriminator 1
	testl	%ebx, %ebx
	je	.L109
	.loc 1 1239 0 is_stmt 1
	testb	$-128, 30(%ebx)
	je	.L103
	.loc 1 1240 0
	subl	$12, %esp
	pushl	%ebx
	call	tcp_output
.LVL58:
	addl	$16, %esp
.L103:
	.loc 1 1238 0 discriminator 2
	movl	12(%ebx), %ebx
.LVL59:
	jmp	.L102
.L109:
	.loc 1 1243 0
	movl	-4(%ebp), %ebx
.LVL60:
	leave
	.cfi_restore 5
	.cfi_restore 3
	.cfi_def_cfa 4, 4
	ret
	.cfi_endproc
.LFE43:
	.size	tcp_txnow, .-tcp_txnow
	.section	.text.unlikely.tcp_txnow
.LCOLDE10:
	.section	.text.tcp_txnow
.LHOTE10:
	.section	.text.unlikely.tcp_seg_free,"ax",@progbits
.LCOLDB11:
	.section	.text.tcp_seg_free,"ax",@progbits
.LHOTB11:
	.globl	tcp_seg_free
	.type	tcp_seg_free, @function
tcp_seg_free:
.LFB46:
	.loc 1 1327 0
	.cfi_startproc
.LVL61:
	pushl	%ebp
	.cfi_def_cfa_offset 8
	.cfi_offset 5, -8
	movl	%esp, %ebp
	.cfi_def_cfa_register 5
	pushl	%ebx
	pushl	%edx
	.cfi_offset 3, -12
	.loc 1 1327 0
	movl	8(%ebp), %ebx
	.loc 1 1328 0
	testl	%ebx, %ebx
	je	.L110
	.loc 1 1329 0
	movl	4(%ebx), %eax
	testl	%eax, %eax
	je	.L112
	.loc 1 1330 0
	subl	$12, %esp
	pushl	%eax
	call	pbuf_free
.LVL62:
	addl	$16, %esp
.L112:
	.loc 1 1335 0
	pushl	%eax
	pushl	%eax
	pushl	%ebx
	pushl	$4
	call	memp_free
.LVL63:
	addl	$16, %esp
.L110:
	.loc 1 1337 0
	movl	-4(%ebp), %ebx
	leave
	.cfi_restore 5
	.cfi_restore 3
	.cfi_def_cfa 4, 4
	ret
	.cfi_endproc
.LFE46:
	.size	tcp_seg_free, .-tcp_seg_free
	.section	.text.unlikely.tcp_seg_free
.LCOLDE11:
	.section	.text.tcp_seg_free
.LHOTE11:
	.section	.text.unlikely.tcp_segs_free,"ax",@progbits
.LCOLDB12:
	.section	.text.tcp_segs_free,"ax",@progbits
.LHOTB12:
	.globl	tcp_segs_free
	.type	tcp_segs_free, @function
tcp_segs_free:
.LFB45:
	.loc 1 1312 0
	.cfi_startproc
.LVL64:
	pushl	%ebp
	.cfi_def_cfa_offset 8
	.cfi_offset 5, -8
	movl	%esp, %ebp
	.cfi_def_cfa_register 5
	pushl	%ebx
	pushl	%eax
	.cfi_offset 3, -12
	movl	8(%ebp), %eax
.LVL65:
.L121:
	.loc 1 1313 0
	testl	%eax, %eax
	je	.L124
.LBB15:
	.loc 1 1314 0
	movl	(%eax), %ebx
.LVL66:
	.loc 1 1315 0
	subl	$12, %esp
	pushl	%eax
	call	tcp_seg_free
.LVL67:
	addl	$16, %esp
	.loc 1 1316 0
	movl	%ebx, %eax
	jmp	.L121
.LVL68:
.L124:
.LBE15:
	.loc 1 1318 0
	movl	-4(%ebp), %ebx
	leave
	.cfi_restore 5
	.cfi_restore 3
	.cfi_def_cfa 4, 4
	ret
	.cfi_endproc
.LFE45:
	.size	tcp_segs_free, .-tcp_segs_free
	.section	.text.unlikely.tcp_segs_free
.LCOLDE12:
	.section	.text.tcp_segs_free
.LHOTE12:
	.section	.text.unlikely.tcp_setprio,"ax",@progbits
.LCOLDB13:
	.section	.text.tcp_setprio,"ax",@progbits
.LHOTB13:
	.globl	tcp_setprio
	.type	tcp_setprio, @function
tcp_setprio:
.LFB47:
	.loc 1 1347 0
	.cfi_startproc
.LVL69:
	pushl	%ebp
	.cfi_def_cfa_offset 8
	.cfi_offset 5, -8
	movl	%esp, %ebp
	.cfi_def_cfa_register 5
	.loc 1 1348 0
	movl	12(%ebp), %edx
	movl	8(%ebp), %eax
	movb	%dl, 24(%eax)
	.loc 1 1349 0
	popl	%ebp
	.cfi_restore 5
	.cfi_def_cfa 4, 4
	ret
	.cfi_endproc
.LFE47:
	.size	tcp_setprio, .-tcp_setprio
	.section	.text.unlikely.tcp_setprio
.LCOLDE13:
	.section	.text.tcp_setprio
.LHOTE13:
	.section	.text.unlikely.tcp_seg_copy,"ax",@progbits
.LCOLDB14:
	.section	.text.tcp_seg_copy,"ax",@progbits
.LHOTB14:
	.globl	tcp_seg_copy
	.type	tcp_seg_copy, @function
tcp_seg_copy:
.LFB48:
	.loc 1 1361 0
	.cfi_startproc
.LVL70:
	pushl	%ebp
	.cfi_def_cfa_offset 8
	.cfi_offset 5, -8
	movl	%esp, %ebp
	.cfi_def_cfa_register 5
	pushl	%edi
	pushl	%esi
	subl	$28, %esp
	.cfi_offset 7, -12
	.cfi_offset 6, -16
	.loc 1 1361 0
	movl	8(%ebp), %esi
	.loc 1 1364 0
	pushl	$4
	call	memp_malloc
.LVL71:
	.loc 1 1365 0
	addl	$16, %esp
	testl	%eax, %eax
	je	.L128
	.loc 1 1368 0
	movl	%eax, %edi
	movl	$5, %ecx
	.loc 1 1369 0
	subl	$12, %esp
	.loc 1 1368 0
	rep movsl
	.loc 1 1369 0
	movl	%eax, -12(%ebp)
	pushl	4(%eax)
	call	pbuf_ref
.LVL72:
	.loc 1 1370 0
	movl	-12(%ebp), %eax
	addl	$16, %esp
.LVL73:
.L128:
	.loc 1 1371 0
	leal	-8(%ebp), %esp
	popl	%esi
	.cfi_restore 6
	popl	%edi
	.cfi_restore 7
	popl	%ebp
	.cfi_restore 5
	.cfi_def_cfa 4, 4
	ret
	.cfi_endproc
.LFE48:
	.size	tcp_seg_copy, .-tcp_seg_copy
	.section	.text.unlikely.tcp_seg_copy
.LCOLDE14:
	.section	.text.tcp_seg_copy
.LHOTE14:
	.section	.text.unlikely.tcp_arg,"ax",@progbits
.LCOLDB15:
	.section	.text.tcp_arg,"ax",@progbits
.LHOTB15:
	.globl	tcp_arg
	.type	tcp_arg, @function
tcp_arg:
.LFB56:
	.loc 1 1636 0
	.cfi_startproc
.LVL74:
	pushl	%ebp
	.cfi_def_cfa_offset 8
	.cfi_offset 5, -8
	movl	%esp, %ebp
	.cfi_def_cfa_register 5
	.loc 1 1636 0
	movl	8(%ebp), %eax
	.loc 1 1639 0
	testl	%eax, %eax
	je	.L133
	.loc 1 1640 0
	movl	12(%ebp), %edx
	movl	%edx, 16(%eax)
.L133:
	.loc 1 1642 0
	popl	%ebp
	.cfi_restore 5
	.cfi_def_cfa 4, 4
	ret
	.cfi_endproc
.LFE56:
	.size	tcp_arg, .-tcp_arg
	.section	.text.unlikely.tcp_arg
.LCOLDE15:
	.section	.text.tcp_arg
.LHOTE15:
	.section	.text.unlikely.tcp_recv,"ax",@progbits
.LCOLDB16:
	.section	.text.tcp_recv,"ax",@progbits
.LHOTB16:
	.globl	tcp_recv
	.type	tcp_recv, @function
tcp_recv:
.LFB57:
	.loc 1 1655 0
	.cfi_startproc
.LVL75:
	pushl	%ebp
	.cfi_def_cfa_offset 8
	.cfi_offset 5, -8
	movl	%esp, %ebp
	.cfi_def_cfa_register 5
	.loc 1 1655 0
	movl	8(%ebp), %eax
	.loc 1 1656 0
	testl	%eax, %eax
	je	.L139
	.loc 1 1658 0
	movl	12(%ebp), %edx
	movl	%edx, 132(%eax)
.L139:
	.loc 1 1660 0
	popl	%ebp
	.cfi_restore 5
	.cfi_def_cfa 4, 4
	ret
	.cfi_endproc
.LFE57:
	.size	tcp_recv, .-tcp_recv
	.section	.text.unlikely.tcp_recv
.LCOLDE16:
	.section	.text.tcp_recv
.LHOTE16:
	.section	.text.unlikely.tcp_sent,"ax",@progbits
.LCOLDB17:
	.section	.text.tcp_sent,"ax",@progbits
.LHOTB17:
	.globl	tcp_sent
	.type	tcp_sent, @function
tcp_sent:
.LFB58:
	.loc 1 1672 0
	.cfi_startproc
.LVL76:
	pushl	%ebp
	.cfi_def_cfa_offset 8
	.cfi_offset 5, -8
	movl	%esp, %ebp
	.cfi_def_cfa_register 5
	.loc 1 1672 0
	movl	8(%ebp), %eax
	.loc 1 1673 0
	testl	%eax, %eax
	je	.L145
	.loc 1 1675 0
	movl	12(%ebp), %edx
	movl	%edx, 128(%eax)
.L145:
	.loc 1 1677 0
	popl	%ebp
	.cfi_restore 5
	.cfi_def_cfa 4, 4
	ret
	.cfi_endproc
.LFE58:
	.size	tcp_sent, .-tcp_sent
	.section	.text.unlikely.tcp_sent
.LCOLDE17:
	.section	.text.tcp_sent
.LHOTE17:
	.section	.text.unlikely.tcp_err,"ax",@progbits
.LCOLDB18:
	.section	.text.tcp_err,"ax",@progbits
.LHOTB18:
	.globl	tcp_err
	.type	tcp_err, @function
tcp_err:
.LFB59:
	.loc 1 1692 0
	.cfi_startproc
.LVL77:
	pushl	%ebp
	.cfi_def_cfa_offset 8
	.cfi_offset 5, -8
	movl	%esp, %ebp
	.cfi_def_cfa_register 5
	.loc 1 1692 0
	movl	8(%ebp), %eax
	.loc 1 1693 0
	testl	%eax, %eax
	je	.L151
	.loc 1 1695 0
	movl	12(%ebp), %edx
	movl	%edx, 144(%eax)
.L151:
	.loc 1 1697 0
	popl	%ebp
	.cfi_restore 5
	.cfi_def_cfa 4, 4
	ret
	.cfi_endproc
.LFE59:
	.size	tcp_err, .-tcp_err
	.section	.text.unlikely.tcp_err
.LCOLDE18:
	.section	.text.tcp_err
.LHOTE18:
	.section	.text.unlikely.tcp_accept,"ax",@progbits
.LCOLDB19:
	.section	.text.tcp_accept,"ax",@progbits
.LHOTB19:
	.globl	tcp_accept
	.type	tcp_accept, @function
tcp_accept:
.LFB60:
	.loc 1 1710 0
	.cfi_startproc
.LVL78:
	pushl	%ebp
	.cfi_def_cfa_offset 8
	.cfi_offset 5, -8
	movl	%esp, %ebp
	.cfi_def_cfa_register 5
	.loc 1 1710 0
	movl	8(%ebp), %eax
	.loc 1 1711 0
	testl	%eax, %eax
	je	.L157
	.loc 1 1711 0 discriminator 1
	cmpl	$1, 20(%eax)
	jne	.L157
.LVL79:
.LBB16:
	.loc 1 1713 0
	movl	12(%ebp), %edx
	movl	%edx, 28(%eax)
.LVL80:
.L157:
.LBE16:
	.loc 1 1715 0
	popl	%ebp
	.cfi_restore 5
	.cfi_def_cfa 4, 4
	ret
	.cfi_endproc
.LFE60:
	.size	tcp_accept, .-tcp_accept
	.section	.text.unlikely.tcp_accept
.LCOLDE19:
	.section	.text.tcp_accept
.LHOTE19:
	.section	.text.unlikely.tcp_poll,"ax",@progbits
.LCOLDB20:
	.section	.text.tcp_poll,"ax",@progbits
.LHOTB20:
	.globl	tcp_poll
	.type	tcp_poll, @function
tcp_poll:
.LFB61:
	.loc 1 1728 0
	.cfi_startproc
.LVL81:
	pushl	%ebp
	.cfi_def_cfa_offset 8
	.cfi_offset 5, -8
	movl	%esp, %ebp
	.cfi_def_cfa_register 5
	.loc 1 1728 0
	movl	8(%ebp), %eax
	.loc 1 1731 0
	movl	12(%ebp), %edx
	movl	%edx, 140(%eax)
	.loc 1 1735 0
	movl	16(%ebp), %edx
	movb	%dl, 33(%eax)
	.loc 1 1736 0
	popl	%ebp
	.cfi_restore 5
	.cfi_def_cfa 4, 4
	ret
	.cfi_endproc
.LFE61:
	.size	tcp_poll, .-tcp_poll
	.section	.text.unlikely.tcp_poll
.LCOLDE20:
	.section	.text.tcp_poll
.LHOTE20:
	.section	.text.unlikely.tcp_pcb_purge,"ax",@progbits
.LCOLDB21:
	.section	.text.tcp_pcb_purge,"ax",@progbits
.LHOTB21:
	.globl	tcp_pcb_purge
	.type	tcp_pcb_purge, @function
tcp_pcb_purge:
.LFB62:
	.loc 1 1746 0
	.cfi_startproc
.LVL82:
	pushl	%ebp
	.cfi_def_cfa_offset 8
	.cfi_offset 5, -8
	movl	%esp, %ebp
	.cfi_def_cfa_register 5
	pushl	%ebx
	.cfi_offset 3, -12
	pushl	%ebx
	.loc 1 1746 0
	movl	8(%ebp), %ebx
	.loc 1 1747 0
	movl	20(%ebx), %eax
	.loc 1 1748 0
	cmpl	$10, %eax
	je	.L165
	cmpl	$1, %eax
	jbe	.L165
.LVL83:
.LBB19:
.LBB20:
	.loc 1 1753 0
	pushl	%ebx
	call	tcp_backlog_accepted
.LVL84:
	.loc 1 1755 0
	movl	120(%ebx), %eax
	popl	%ecx
	testl	%eax, %eax
	je	.L167
	.loc 1 1757 0
	subl	$12, %esp
	pushl	%eax
	call	pbuf_free
.LVL85:
	.loc 1 1758 0
	movl	$0, 120(%ebx)
	addl	$16, %esp
.L167:
	.loc 1 1770 0
	subl	$12, %esp
	pushl	116(%ebx)
	call	tcp_segs_free
.LVL86:
	.loc 1 1771 0
	movl	$0, 116(%ebx)
	.loc 1 1776 0
	movw	$-1, 52(%ebx)
	.loc 1 1778 0
	popl	%eax
	pushl	108(%ebx)
	call	tcp_segs_free
.LVL87:
	.loc 1 1779 0
	popl	%edx
	pushl	112(%ebx)
	call	tcp_segs_free
.LVL88:
	.loc 1 1780 0
	movl	$0, 108(%ebx)
	movl	$0, 112(%ebx)
	.loc 1 1782 0
	addl	$16, %esp
	movw	$0, 104(%ebx)
.LVL89:
.L165:
.LBE20:
.LBE19:
	.loc 1 1785 0
	movl	-4(%ebp), %ebx
	leave
	.cfi_restore 5
	.cfi_restore 3
	.cfi_def_cfa 4, 4
	ret
	.cfi_endproc
.LFE62:
	.size	tcp_pcb_purge, .-tcp_pcb_purge
	.section	.text.unlikely.tcp_pcb_purge
.LCOLDE21:
	.section	.text.tcp_pcb_purge
.LHOTE21:
	.section	.text.unlikely.tcp_slowtmr,"ax",@progbits
.LCOLDB22:
	.section	.text.tcp_slowtmr,"ax",@progbits
.LHOTB22:
	.globl	tcp_slowtmr
	.type	tcp_slowtmr, @function
tcp_slowtmr:
.LFB41:
	.loc 1 932 0
	.cfi_startproc
.LVL90:
	pushl	%ebp
	.cfi_def_cfa_offset 8
	.cfi_offset 5, -8
	movl	%esp, %ebp
	.cfi_def_cfa_register 5
	pushl	%edi
	pushl	%esi
	pushl	%ebx
	subl	$28, %esp
	.cfi_offset 7, -12
	.cfi_offset 6, -16
	.cfi_offset 3, -20
	.loc 1 941 0
	incl	tcp_ticks
	.loc 1 942 0
	incb	tcp_timer_ctr
.LVL91:
.L179:
	.loc 1 947 0
	movl	tcp_active_pcbs, %ebx
.LVL92:
	.loc 1 946 0
	movl	$0, -28(%ebp)
.LVL93:
.L180:
	.loc 1 951 0
	testl	%ebx, %ebx
	je	.L249
	.loc 1 956 0
	movb	tcp_timer_ctr, %al
	cmpb	%al, 34(%ebx)
	jne	.L181
	.loc 1 958 0
	movl	12(%ebx), %edi
.LVL94:
	jmp	.L248
.LVL95:
.L181:
	.loc 1 966 0
	movl	20(%ebx), %ecx
	.loc 1 961 0
	movb	%al, 34(%ebx)
.LVL96:
	.loc 1 966 0
	cmpl	$2, %ecx
	jne	.L183
	.loc 1 966 0 is_stmt 0 discriminator 1
	cmpb	$6, 70(%ebx)
	.loc 1 967 0 is_stmt 1 discriminator 1
	movl	$1, %esi
	.loc 1 966 0 discriminator 1
	je	.L184
.L183:
	.loc 1 970 0
	movzbl	70(%ebx), %edx
	.loc 1 967 0
	movl	$1, %esi
	.loc 1 970 0
	cmpb	$12, %dl
	je	.L184
	.loc 1 974 0
	movzbl	161(%ebx), %eax
	testb	%al, %al
	je	.L185
.LBB21:
	.loc 1 977 0
	movb	tcp_persist_backoff-1(%eax), %dl
.LVL97:
	.loc 1 978 0
	movb	160(%ebx), %al
	cmpb	%al, %dl
	jbe	.L186
	.loc 1 979 0
	incl	%eax
	movb	%al, 160(%ebx)
.L186:
	.loc 1 981 0
	cmpb	160(%ebx), %dl
	ja	.L245
	.loc 1 982 0
	subl	$12, %esp
	pushl	%ebx
	call	tcp_zero_window_probe
.LVL98:
	addl	$16, %esp
	testb	%al, %al
	jne	.L245
	.loc 1 984 0
	movb	161(%ebx), %al
	.loc 1 983 0
	movb	$0, 160(%ebx)
	.loc 1 984 0
	cmpb	$6, %al
	ja	.L245
	.loc 1 985 0
	incl	%eax
	movb	%al, 161(%ebx)
	jmp	.L245
.L185:
.LBE21:
	.loc 1 991 0
	movl	52(%ebx), %eax
	testw	%ax, %ax
	js	.L189
	.loc 1 992 0
	incl	%eax
	movw	%ax, 52(%ebx)
.L189:
	.loc 1 995 0
	cmpl	$0, 112(%ebx)
	je	.L245
	.loc 1 995 0 discriminator 1
	movl	68(%ebx), %eax
	cmpw	%ax, 52(%ebx)
	jl	.L245
	.loc 1 1003 0
	cmpl	$2, %ecx
	je	.L190
	.loc 1 1004 0
	movl	64(%ebx), %eax
	movswl	66(%ebx), %ecx
	sarw	$3, %ax
	cwtl
	addl	%ecx, %eax
	movzbl	tcp_backoff(%edx), %ecx
	sall	%cl, %eax
	movw	%ax, 68(%ebx)
.L190:
	.loc 1 1012 0
	movl	76(%ebx), %eax
	cmpw	%ax, 96(%ebx)
	cmovbe	96(%ebx), %ax
	.loc 1 1013 0
	movw	54(%ebx), %dx
	.loc 1 1008 0
	movw	$0, 52(%ebx)
.LVL99:
	.loc 1 1013 0
	leal	(%edx,%edx), %ecx
	.loc 1 1012 0
	shrw	%ax
	.loc 1 1013 0
	cmpw	%cx, %ax
	.loc 1 1012 0
	movw	%ax, 78(%ebx)
	.loc 1 1013 0
	jnb	.L191
	.loc 1 1014 0
	movw	%cx, 78(%ebx)
.L191:
	.loc 1 1023 0
	subl	$12, %esp
	.loc 1 1016 0
	movw	%dx, 76(%ebx)
.LVL100:
	.loc 1 1023 0
	pushl	%ebx
	call	tcp_rexmit_rto
.LVL101:
	addl	$16, %esp
.L245:
	.loc 1 963 0
	xorl	%esi, %esi
.L184:
.LVL102:
	.loc 1 1028 0
	movl	20(%ebx), %eax
	cmpl	$6, %eax
	jne	.L192
	.loc 1 1030 0
	testb	$16, 30(%ebx)
	je	.L192
	.loc 1 1033 0
	movl	tcp_ticks, %edx
	subl	36(%ebx), %edx
	.loc 1 1035 0
	movl	%esi, %ecx
	cmpl	$41, %edx
	sbbb	$-1, %cl
	movl	%ecx, %esi
.LVL103:
.L192:
	.loc 1 964 0
	xorl	%edi, %edi
	.loc 1 1042 0
	testb	$8, 8(%ebx)
	je	.L193
	.loc 1 1042 0 is_stmt 0 discriminator 1
	cmpl	$4, %eax
	je	.L223
	cmpl	$7, %eax
	jne	.L193
.L223:
	.loc 1 1045 0 is_stmt 1
	movl	tcp_ticks, %eax
	subl	36(%ebx), %eax
	xorl	%edx, %edx
	.loc 1 1046 0
	movl	152(%ebx), %edi
	.loc 1 1045 0
	movl	$500, %ecx
	movl	%eax, -32(%ebp)
	.loc 1 1046 0
	movl	148(%ebx), %eax
	movl	%eax, -36(%ebp)
	.loc 1 1045 0
	movl	156(%ebx), %eax
	imull	%edi, %eax
	addl	-36(%ebp), %eax
	divl	%ecx
	cmpl	%eax, -32(%ebp)
	jbe	.L195
	.loc 1 1052 0
	incl	%esi
.LVL104:
	.loc 1 1053 0
	movl	$1, %edi
	jmp	.L193
.LVL105:
.L195:
	.loc 1 1054 0
	movzbl	162(%ebx), %eax
	xorl	%edx, %edx
	imull	%eax, %edi
	movl	-36(%ebp), %eax
	addl	%edi, %eax
	.loc 1 964 0
	xorl	%edi, %edi
	.loc 1 1054 0
	divl	%ecx
	cmpl	%eax, -32(%ebp)
	jbe	.L193
	.loc 1 1058 0
	subl	$12, %esp
	pushl	%ebx
	call	tcp_keepalive
.LVL106:
	.loc 1 1059 0
	addl	$16, %esp
	testb	%al, %al
	jne	.L193
	.loc 1 1060 0
	incb	162(%ebx)
.LVL107:
.L193:
	.loc 1 1069 0
	movl	116(%ebx), %ecx
	testl	%ecx, %ecx
	je	.L196
	.loc 1 1069 0 discriminator 1
	movswl	68(%ebx), %eax
	movl	tcp_ticks, %edx
	subl	36(%ebx), %edx
	imull	$24, %eax, %eax
	cmpl	%eax, %edx
	jb	.L196
	.loc 1 1071 0
	subl	$12, %esp
	pushl	%ecx
	call	tcp_segs_free
.LVL108:
	.loc 1 1072 0
	movl	$0, 116(%ebx)
	addl	$16, %esp
.L196:
	.loc 1 1078 0
	movl	20(%ebx), %eax
	cmpl	$3, %eax
	jne	.L197
	.loc 1 1079 0
	movl	tcp_ticks, %eax
	subl	36(%ebx), %eax
	cmpl	$40, %eax
	jmp	.L247
.L197:
	.loc 1 1087 0
	cmpl	$9, %eax
	jne	.L199
	.loc 1 1088 0
	movl	tcp_ticks, %eax
	subl	36(%ebx), %eax
	cmpl	$1, %eax
.L247:
	ja	.L198
.L199:
	.loc 1 1095 0
	movl	%esi, %eax
	testb	%al, %al
	je	.L200
.L198:
.LVL109:
.LBB22:
	.loc 1 1101 0
	subl	$12, %esp
	.loc 1 1098 0
	movl	144(%ebx), %esi
.LVL110:
	.loc 1 1101 0
	pushl	%ebx
	call	tcp_pcb_purge
.LVL111:
	.loc 1 1103 0
	addl	$16, %esp
	cmpl	$0, -28(%ebp)
	movl	12(%ebx), %eax
	je	.L201
	.loc 1 1105 0
	movl	-28(%ebp), %ecx
	movl	%eax, 12(%ecx)
	jmp	.L202
.L201:
	.loc 1 1109 0
	movl	%eax, tcp_active_pcbs
.L202:
	.loc 1 1112 0
	movl	%edi, %eax
	testb	%al, %al
	je	.L203
.LVL112:
.LVL113:
	.loc 1 1113 0
	pushl	%eax
	pushl	%eax
	movzwl	28(%ebx), %eax
	pushl	%eax
	movzwl	26(%ebx), %eax
	pushl	%eax
	leal	4(%ebx), %eax
	pushl	%eax
	pushl	%ebx
	pushl	40(%ebx)
	pushl	80(%ebx)
	call	tcp_rst
.LVL114:
	addl	$32, %esp
.L203:
	.loc 1 1117 0
	movl	16(%ebx), %eax
	.loc 1 1119 0
	movl	12(%ebx), %edi
.LVL115:
	.loc 1 1117 0
	movl	%eax, -32(%ebp)
.LVL116:
.LVL117:
	.loc 1 1120 0
	pushl	%eax
	pushl	%eax
	pushl	%ebx
	pushl	$2
	call	memp_free
.LVL118:
	.loc 1 1123 0
	addl	$16, %esp
	testl	%esi, %esi
	.loc 1 1122 0
	movb	$0, tcp_active_pcbs_changed
	.loc 1 1123 0
	je	.L204
	.loc 1 1123 0 discriminator 1
	movl	-32(%ebp), %eax
.LVL119:
	pushl	%ebx
	pushl	%ebx
	pushl	$-13
	pushl	%eax
	call	*%esi
.LVL120:
	addl	$16, %esp
.L204:
	.loc 1 1124 0
	cmpb	$0, tcp_active_pcbs_changed
	jne	.L179
.LVL121:
.L248:
	movl	-28(%ebp), %ebx
	jmp	.L182
.LVL122:
.L200:
.LBE22:
	.loc 1 1133 0
	movb	32(%ebx), %al
.LVL123:
	.loc 1 1130 0
	movl	12(%ebx), %edi
.LVL124:
	.loc 1 1133 0
	incl	%eax
	.loc 1 1134 0
	cmpb	33(%ebx), %al
	.loc 1 1133 0
	movb	%al, 32(%ebx)
	.loc 1 1134 0
	jb	.L182
	.loc 1 1138 0
	movl	140(%ebx), %edx
	.loc 1 1138 0
	xorl	%eax, %eax
	.loc 1 1135 0
	movb	$0, 32(%ebx)
	.loc 1 1137 0
	movb	$0, tcp_active_pcbs_changed
	.loc 1 1138 0
	testl	%edx, %edx
	je	.L206
	.loc 1 1138 0 discriminator 1
	pushl	%ecx
	pushl	%ecx
	pushl	%ebx
	pushl	16(%ebx)
	call	*%edx
.LVL125:
	addl	$16, %esp
.LVL126:
.L206:
	.loc 1 1139 0
	cmpb	$0, tcp_active_pcbs_changed
	jne	.L179
	.loc 1 1143 0
	testb	%al, %al
	jne	.L182
.LVL127:
	.loc 1 1144 0
	subl	$12, %esp
	pushl	%ebx
	call	tcp_output
.LVL128:
	addl	$16, %esp
.LVL129:
.L182:
.LBB23:
	movl	%ebx, -28(%ebp)
	movl	%edi, %ebx
	jmp	.L180
.LVL130:
.L249:
.LBE23:
	.loc 1 1153 0
	movl	tcp_tw_pcbs, %esi
.LVL131:
.L208:
	.loc 1 1154 0
	testl	%esi, %esi
	je	.L250
.LVL132:
	.loc 1 1159 0
	movl	tcp_ticks, %eax
	subl	36(%esi), %eax
	cmpl	$1, %eax
	ja	.L209
.LVL133:
	.loc 1 1181 0
	movl	12(%esi), %edi
.LVL134:
.L213:
	movl	%esi, %ebx
	movl	%edi, %esi
.LVL135:
	jmp	.L208
.LVL136:
.L209:
.LBB24:
	.loc 1 1166 0
	subl	$12, %esp
	pushl	%esi
	call	tcp_pcb_purge
.LVL137:
	.loc 1 1168 0
	addl	$16, %esp
	testl	%ebx, %ebx
	movl	12(%esi), %eax
	je	.L251
	.loc 1 1170 0
	movl	%eax, 12(%ebx)
	jmp	.L211
.L251:
	.loc 1 1174 0
	movl	%eax, tcp_tw_pcbs
.L211:
.LVL138:
	.loc 1 1177 0
	movl	12(%esi), %edi
.LVL139:
	.loc 1 1178 0
	pushl	%eax
	pushl	%eax
	pushl	%esi
.LBE24:
	movl	%ebx, %esi
.LVL140:
.LBB25:
	pushl	$2
.LVL141:
	call	memp_free
.LVL142:
.LBE25:
	addl	$16, %esp
	jmp	.L213
.LVL143:
.L250:
	.loc 1 1184 0
	leal	-12(%ebp), %esp
	popl	%ebx
	.cfi_restore 3
.LVL144:
	popl	%esi
	.cfi_restore 6
.LVL145:
	popl	%edi
	.cfi_restore 7
	popl	%ebp
	.cfi_restore 5
	.cfi_def_cfa 4, 4
	ret
	.cfi_endproc
.LFE41:
	.size	tcp_slowtmr, .-tcp_slowtmr
	.section	.text.unlikely.tcp_slowtmr
.LCOLDE22:
	.section	.text.tcp_slowtmr
.LHOTE22:
	.section	.text.unlikely.tcp_pcb_remove,"ax",@progbits
.LCOLDB23:
	.section	.text.tcp_pcb_remove,"ax",@progbits
.LHOTB23:
	.globl	tcp_pcb_remove
	.type	tcp_pcb_remove, @function
tcp_pcb_remove:
.LFB63:
	.loc 1 1795 0
	.cfi_startproc
.LVL146:
	pushl	%ebp
	.cfi_def_cfa_offset 8
	.cfi_offset 5, -8
	movl	%esp, %ebp
	.cfi_def_cfa_register 5
	pushl	%ebx
	pushl	%eax
	.cfi_offset 3, -12
	.loc 1 1795 0
	movl	8(%ebp), %edx
	movl	12(%ebp), %ebx
	.loc 1 1796 0
	movl	(%edx), %eax
	cmpl	%ebx, %eax
	jne	.L265
	.loc 1 1796 0 is_stmt 0 discriminator 1
	movl	12(%ebx), %eax
	movl	%eax, (%edx)
	jmp	.L254
.LVL147:
.L258:
.LBB26:
	movl	%edx, %eax
.LVL148:
.L265:
	.loc 1 1796 0 discriminator 8
	testl	%eax, %eax
	je	.L254
	.loc 1 1796 0 is_stmt 1 discriminator 9
	movl	12(%eax), %edx
	cmpl	%edx, %ebx
	jne	.L258
	.loc 1 1796 0 is_stmt 0 discriminator 5
	movl	12(%ebx), %edx
	movl	%edx, 12(%eax)
.LVL149:
.L254:
.LBE26:
	.loc 1 1798 0 is_stmt 1 discriminator 10
	subl	$12, %esp
	.loc 1 1796 0 discriminator 10
	movl	$0, 12(%ebx)
	.loc 1 1798 0 discriminator 10
	pushl	%ebx
	call	tcp_pcb_purge
.LVL150:
	.loc 1 1801 0 discriminator 10
	movl	20(%ebx), %eax
	addl	$16, %esp
	cmpl	$10, %eax
	je	.L257
	decl	%eax
	je	.L257
	.loc 1 1803 0
	movw	30(%ebx), %ax
	.loc 1 1802 0
	testb	$1, %al
	je	.L257
	.loc 1 1805 0
	subl	$12, %esp
	.loc 1 1804 0
	orl	$2, %eax
	movw	%ax, 30(%ebx)
	.loc 1 1805 0
	pushl	%ebx
	call	tcp_output
.LVL151:
	addl	$16, %esp
.L257:
	.loc 1 1816 0
	movl	$0, 20(%ebx)
	.loc 1 1818 0
	movw	$0, 26(%ebx)
	.loc 1 1821 0
	movl	-4(%ebp), %ebx
	leave
	.cfi_restore 5
	.cfi_restore 3
	.cfi_def_cfa 4, 4
	ret
	.cfi_endproc
.LFE63:
	.size	tcp_pcb_remove, .-tcp_pcb_remove
	.section	.text.unlikely.tcp_pcb_remove
.LCOLDE23:
	.section	.text.tcp_pcb_remove
.LHOTE23:
	.section	.text.unlikely.tcp_close_shutdown,"ax",@progbits
.LCOLDB24:
	.section	.text.tcp_close_shutdown,"ax",@progbits
.LHOTB24:
	.type	tcp_close_shutdown, @function
tcp_close_shutdown:
.LFB29:
	.loc 1 260 0
	.cfi_startproc
.LVL152:
	pushl	%ebp
	.cfi_def_cfa_offset 8
	.cfi_offset 5, -8
	movl	%esp, %ebp
	.cfi_def_cfa_register 5
	pushl	%ebx
	.cfi_offset 3, -12
	movl	%eax, %ebx
	subl	$20, %esp
	.loc 1 263 0
	testb	%dl, %dl
	je	.L271
	.loc 1 263 0 is_stmt 0 discriminator 1
	movl	20(%eax), %eax
.LVL153:
	cmpl	$4, %eax
	je	.L302
	cmpl	$7, %eax
	jne	.L271
.L302:
	.loc 1 264 0 is_stmt 1
	cmpl	$0, 120(%ebx)
	jne	.L273
	.loc 1 264 0 discriminator 1
	cmpw	$4380, 44(%ebx)
	je	.L271
.L273:
	.loc 1 271 0
	pushl	%eax
	pushl	%eax
	movzwl	28(%ebx), %eax
	pushl	%eax
	movzwl	26(%ebx), %eax
	pushl	%eax
	leal	4(%ebx), %eax
	pushl	%eax
	pushl	%ebx
	pushl	40(%ebx)
	pushl	80(%ebx)
	call	tcp_rst
.LVL154:
	.loc 1 274 0
	addl	$20, %esp
	pushl	%ebx
	call	tcp_pcb_purge
.LVL155:
	.loc 1 275 0
	movl	tcp_active_pcbs, %eax
	addl	$16, %esp
	cmpl	%eax, %ebx
	jne	.L310
	.loc 1 275 0 is_stmt 0 discriminator 1
	movl	12(%ebx), %eax
	movl	%eax, tcp_active_pcbs
	jmp	.L275
.LVL156:
.L298:
.LBB33:
	movl	%edx, %eax
.LVL157:
.L310:
	.loc 1 275 0 discriminator 8
	testl	%eax, %eax
	je	.L275
	.loc 1 275 0 is_stmt 1 discriminator 9
	movl	12(%eax), %edx
	cmpl	%edx, %ebx
	jne	.L298
	.loc 1 275 0 is_stmt 0 discriminator 5
	movl	12(%ebx), %edx
	movl	%edx, 12(%eax)
.LVL158:
.L275:
.LBE33:
	.loc 1 276 0 is_stmt 1 discriminator 10
	cmpl	$4, 20(%ebx)
	.loc 1 275 0 discriminator 10
	movl	$0, 12(%ebx)
	.loc 1 275 0 discriminator 10
	movb	$1, tcp_active_pcbs_changed
	.loc 1 276 0 discriminator 10
	jne	.L278
	.loc 1 279 0
	movl	tcp_tw_pcbs, %eax
	.loc 1 278 0
	movl	$10, 20(%ebx)
	.loc 1 279 0
	movl	%ebx, tcp_tw_pcbs
	movl	%eax, 12(%ebx)
	call	tcp_timer_needed
.LVL159:
	jmp	.L316
.L278:
	.loc 1 282 0
	cmpl	tcp_input_pcb, %ebx
	jne	.L280
	.loc 1 284 0
	call	tcp_trigger_input_pcb_close
.LVL160:
.L316:
	.loc 1 289 0
	xorl	%eax, %eax
	jmp	.L279
.L280:
	.loc 1 286 0
	pushl	%eax
	pushl	%eax
	pushl	%ebx
	pushl	$2
	call	memp_free
.LVL161:
	addl	$16, %esp
	jmp	.L316
.LVL162:
.L271:
	.loc 1 293 0
	cmpl	$7, 20(%ebx)
	ja	.L299
	movl	20(%ebx), %eax
	jmp	*.L283(,%eax,4)
	.section	.rodata.tcp_close_shutdown,"a",@progbits
	.align 4
	.align 4
.L283:
	.long	.L282
	.long	.L284
	.long	.L285
	.long	.L286
	.long	.L287
	.long	.L299
	.long	.L299
	.long	.L288
	.section	.text.tcp_close_shutdown
.L282:
.LVL163:
	.loc 1 303 0
	cmpw	$0, 26(%ebx)
	je	.L289
	.loc 1 304 0
	movl	tcp_bound_pcbs, %eax
	cmpl	%eax, %ebx
	jne	.L311
	.loc 1 304 0 is_stmt 0 discriminator 1
	movl	12(%ebx), %eax
	movl	%eax, tcp_bound_pcbs
	jmp	.L291
.LVL164:
.L300:
.LBB34:
	movl	%edx, %eax
.LVL165:
.L311:
	.loc 1 304 0 discriminator 8
	testl	%eax, %eax
	je	.L291
	.loc 1 304 0 is_stmt 1 discriminator 9
	movl	12(%eax), %edx
	cmpl	%edx, %ebx
	jne	.L300
	.loc 1 304 0 is_stmt 0 discriminator 5
	movl	12(%ebx), %edx
	movl	%edx, 12(%eax)
.LVL166:
.L291:
.LBE34:
	.loc 1 304 0 discriminator 10
	movl	$0, 12(%ebx)
.L289:
	.loc 1 306 0 is_stmt 1
	pushl	%ecx
	pushl	%ecx
	jmp	.L318
.LVL167:
.L284:
	.loc 1 293 0
	xorl	%edx, %edx
.LVL168:
.L297:
.LBB35:
.LBB36:
	.loc 1 189 0
	movl	tcp_pcb_lists+4(%edx), %eax
	movl	(%eax), %eax
.LVL169:
.L294:
.LBB37:
.LBB38:
	.loc 1 170 0
	testl	%eax, %eax
	je	.L319
	.loc 1 171 0
	cmpl	124(%eax), %ebx
	jne	.L295
	.loc 1 172 0
	movl	$0, 124(%eax)
.L295:
	.loc 1 170 0
	movl	12(%eax), %eax
.LVL170:
	jmp	.L294
.L319:
.LVL171:
	addl	$4, %edx
.LBE38:
.LBE37:
	.loc 1 188 0
	cmpl	$12, %edx
	jne	.L297
.LVL172:
.LBE36:
.LBE35:
	.loc 1 312 0
	pushl	%eax
	pushl	%eax
	pushl	%ebx
	pushl	$tcp_listen_pcbs
	call	tcp_pcb_remove
.LVL173:
	.loc 1 313 0
	popl	%eax
	popl	%edx
	pushl	%ebx
	pushl	$3
.L317:
	call	memp_free
.LVL174:
	.loc 1 315 0
	addl	$16, %esp
	jmp	.L299
.LVL175:
.L285:
	.loc 1 318 0
	pushl	%eax
	pushl	%eax
	pushl	%ebx
	pushl	$tcp_active_pcbs
	call	tcp_pcb_remove
.LVL176:
	.loc 1 319 0
	popl	%edx
	popl	%ecx
	.loc 1 318 0
	movb	$1, tcp_active_pcbs_changed
.L318:
	.loc 1 319 0
	pushl	%ebx
	pushl	$2
	jmp	.L317
.LVL177:
.L286:
	.loc 1 324 0
	subl	$12, %esp
	pushl	%ebx
	call	tcp_send_fin
.LVL178:
	.loc 1 325 0
	addl	$16, %esp
	testb	%al, %al
	.loc 1 324 0
	movb	%al, %dl
.LVL179:
	.loc 1 325 0
	jne	.L281
	.loc 1 326 0
	subl	$12, %esp
	movb	%al, -9(%ebp)
	pushl	%ebx
	call	tcp_backlog_accepted
.LVL180:
	.loc 1 328 0
	movl	$5, 20(%ebx)
	addl	$16, %esp
	movb	-9(%ebp), %dl
	jmp	.L281
.LVL181:
.L287:
	.loc 1 332 0
	subl	$12, %esp
	pushl	%ebx
	call	tcp_send_fin
.LVL182:
	.loc 1 333 0
	addl	$16, %esp
	testb	%al, %al
	.loc 1 332 0
	movb	%al, %dl
.LVL183:
	.loc 1 333 0
	jne	.L281
	.loc 1 335 0
	movl	$5, 20(%ebx)
	jmp	.L281
.LVL184:
.L288:
	.loc 1 339 0
	subl	$12, %esp
	pushl	%ebx
	call	tcp_send_fin
.LVL185:
	.loc 1 340 0
	addl	$16, %esp
	testb	%al, %al
	.loc 1 339 0
	movb	%al, %dl
.LVL186:
	.loc 1 340 0
	jne	.L281
	.loc 1 342 0
	movl	$9, 20(%ebx)
	jmp	.L281
.LVL187:
.L299:
	.loc 1 347 0
	xorl	%edx, %edx
	.loc 1 348 0
	xorl	%ebx, %ebx
.L281:
.LVL188:
	.loc 1 352 0
	testl	%ebx, %ebx
	je	.L301
	testb	%dl, %dl
	jne	.L301
	.loc 1 358 0
	subl	$12, %esp
	movb	%dl, -9(%ebp)
.LVL189:
	pushl	%ebx
	call	tcp_output
.LVL190:
	movb	-9(%ebp), %dl
	addl	$16, %esp
.LVL191:
.L301:
	movb	%dl, %al
.L279:
	.loc 1 361 0
	movl	-4(%ebp), %ebx
.LVL192:
	leave
	.cfi_restore 5
	.cfi_restore 3
	.cfi_def_cfa 4, 4
	ret
	.cfi_endproc
.LFE29:
	.size	tcp_close_shutdown, .-tcp_close_shutdown
	.section	.text.unlikely.tcp_close_shutdown
.LCOLDE24:
	.section	.text.tcp_close_shutdown
.LHOTE24:
	.section	.text.unlikely.tcp_close,"ax",@progbits
.LCOLDB25:
	.section	.text.tcp_close,"ax",@progbits
.LHOTB25:
	.globl	tcp_close
	.type	tcp_close, @function
tcp_close:
.LFB30:
	.loc 1 380 0
	.cfi_startproc
.LVL193:
	pushl	%ebp
	.cfi_def_cfa_offset 8
	.cfi_offset 5, -8
	movl	%esp, %ebp
	.cfi_def_cfa_register 5
	.loc 1 380 0
	movl	8(%ebp), %eax
	.loc 1 384 0
	cmpl	$1, 20(%eax)
	je	.L321
	.loc 1 386 0
	orw	$16, 30(%eax)
.L321:
	.loc 1 390 0
	popl	%ebp
	.cfi_restore 5
	.cfi_def_cfa 4, 4
	.loc 1 389 0
	movl	$1, %edx
	jmp	tcp_close_shutdown
.LVL194:
	.cfi_endproc
.LFE30:
	.size	tcp_close, .-tcp_close
	.section	.text.unlikely.tcp_close
.LCOLDE25:
	.section	.text.tcp_close
.LHOTE25:
	.section	.text.unlikely.tcp_recv_null,"ax",@progbits
.LCOLDB26:
	.section	.text.tcp_recv_null,"ax",@progbits
.LHOTB26:
	.globl	tcp_recv_null
	.type	tcp_recv_null, @function
tcp_recv_null:
.LFB49:
	.loc 1 1381 0
	.cfi_startproc
.LVL195:
	pushl	%ebp
	.cfi_def_cfa_offset 8
	.cfi_offset 5, -8
	movl	%esp, %ebp
	.cfi_def_cfa_register 5
	pushl	%ebx
	pushl	%ecx
	.cfi_offset 3, -12
	.loc 1 1381 0
	movl	16(%ebp), %ebx
	movl	12(%ebp), %eax
	movl	20(%ebp), %edx
	.loc 1 1383 0
	testl	%ebx, %ebx
	je	.L324
	.loc 1 1384 0
	pushl	%edx
	pushl	%edx
	movzwl	8(%ebx), %edx
	pushl	%edx
	pushl	%eax
	call	tcp_recved
.LVL196:
	.loc 1 1385 0
	movl	%ebx, (%esp)
	call	pbuf_free
.LVL197:
	addl	$16, %esp
	jmp	.L325
.L324:
.LVL198:
.LBB41:
.LBB42:
	.loc 1 1386 0
	testb	%dl, %dl
	jne	.L325
	.loc 1 1387 0
	movl	%eax, 8(%ebp)
.LVL199:
.LBE42:
.LBE41:
	.loc 1 1390 0
	movl	-4(%ebp), %ebx
	leave
	.cfi_remember_state
	.cfi_restore 5
	.cfi_restore 3
	.cfi_def_cfa 4, 4
.LBB44:
.LBB43:
	.loc 1 1387 0
	jmp	tcp_close
.LVL200:
.L325:
	.cfi_restore_state
.LBE43:
.LBE44:
	.loc 1 1390 0
	xorl	%eax, %eax
	movl	-4(%ebp), %ebx
	leave
	.cfi_restore 5
	.cfi_restore 3
	.cfi_def_cfa 4, 4
	ret
	.cfi_endproc
.LFE49:
	.size	tcp_recv_null, .-tcp_recv_null
	.section	.text.unlikely.tcp_recv_null
.LCOLDE26:
	.section	.text.tcp_recv_null
.LHOTE26:
	.section	.text.unlikely.tcp_process_refused_data,"ax",@progbits
.LCOLDB27:
	.section	.text.tcp_process_refused_data,"ax",@progbits
.LHOTB27:
	.globl	tcp_process_refused_data
	.type	tcp_process_refused_data, @function
tcp_process_refused_data:
.LFB44:
	.loc 1 1248 0
	.cfi_startproc
.LVL201:
	pushl	%ebp
	.cfi_def_cfa_offset 8
	.cfi_offset 5, -8
	movl	%esp, %ebp
	.cfi_def_cfa_register 5
	pushl	%edi
	pushl	%esi
	pushl	%ebx
	subl	$12, %esp
	.cfi_offset 7, -12
	.cfi_offset 6, -16
	.cfi_offset 3, -20
	.loc 1 1248 0
	movl	8(%ebp), %ebx
.LBB49:
	.loc 1 1267 0
	movl	132(%ebx), %eax
	.loc 1 1255 0
	movl	120(%ebx), %esi
	.loc 1 1267 0
	testl	%eax, %eax
	.loc 1 1255 0
	movzbl	13(%esi), %edi
.LVL202:
	.loc 1 1263 0
	movl	$0, 120(%ebx)
	.loc 1 1267 0
	je	.L329
	.loc 1 1267 0 discriminator 1
	pushl	$0
	pushl	%esi
	pushl	%ebx
	pushl	16(%ebx)
	call	*%eax
.LVL203:
	jmp	.L349
.LVL204:
.L329:
	.loc 1 1267 0 is_stmt 0 discriminator 2
	pushl	$0
	pushl	%esi
	pushl	%ebx
	pushl	$0
	call	tcp_recv_null
.LVL205:
.L349:
	addl	$16, %esp
	.loc 1 1268 0 is_stmt 1 discriminator 2
	testb	%al, %al
	jne	.L331
	.loc 1 1270 0
	andl	$32, %edi
.LVL206:
	je	.L332
.LVL207:
.LBE49:
.LBB50:
.LBB51:
.LBB52:
	.loc 1 1277 0
	movl	44(%ebx), %eax
.LVL208:
	cmpw	$4380, %ax
	je	.L333
	.loc 1 1278 0
	incl	%eax
	movw	%ax, 44(%ebx)
.L333:
	.loc 1 1280 0
	movl	132(%ebx), %eax
	testl	%eax, %eax
	je	.L332
	.loc 1 1280 0
	pushl	$0
	pushl	$0
	pushl	%ebx
	pushl	16(%ebx)
	call	*%eax
.LVL209:
	.loc 1 1281 0
	addl	$16, %esp
	cmpb	$-13, %al
	jne	.L332
.LVL210:
.L335:
	.loc 1 1282 0
	movb	$-13, %al
	jmp	.L334
.L332:
.LBE52:
	.loc 1 1302 0
	xorl	%eax, %eax
	jmp	.L334
.LVL211:
.L331:
.LBE51:
.LBE50:
.LBB53:
	.loc 1 1285 0
	cmpb	$-13, %al
	je	.L335
	.loc 1 1298 0
	movl	%esi, 120(%ebx)
	.loc 1 1299 0
	movb	$-5, %al
.LVL212:
.L334:
.LBE53:
	.loc 1 1303 0
	leal	-12(%ebp), %esp
	popl	%ebx
	.cfi_restore 3
	popl	%esi
	.cfi_restore 6
.LVL213:
	popl	%edi
	.cfi_restore 7
	popl	%ebp
	.cfi_restore 5
	.cfi_def_cfa 4, 4
	ret
	.cfi_endproc
.LFE44:
	.size	tcp_process_refused_data, .-tcp_process_refused_data
	.section	.text.unlikely.tcp_process_refused_data
.LCOLDE27:
	.section	.text.tcp_process_refused_data
.LHOTE27:
	.section	.text.unlikely.tcp_fasttmr,"ax",@progbits
.LCOLDB28:
	.section	.text.tcp_fasttmr,"ax",@progbits
.LHOTB28:
	.globl	tcp_fasttmr
	.type	tcp_fasttmr, @function
tcp_fasttmr:
.LFB42:
	.loc 1 1194 0
	.cfi_startproc
	pushl	%ebp
	.cfi_def_cfa_offset 8
	.cfi_offset 5, -8
	.loc 1 1197 0
	incb	tcp_timer_ctr
	.loc 1 1194 0
	movl	%esp, %ebp
	.cfi_def_cfa_register 5
	pushl	%esi
	pushl	%ebx
	.cfi_offset 6, -12
	.cfi_offset 3, -16
.L351:
	.loc 1 1200 0
	movl	tcp_active_pcbs, %ebx
.LVL214:
.L352:
	.loc 1 1202 0
	testl	%ebx, %ebx
	je	.L362
	.loc 1 1203 0
	movb	tcp_timer_ctr, %al
	cmpb	%al, 34(%ebx)
	je	.L353
.LBB54:
	.loc 1 1205 0
	movb	%al, 34(%ebx)
	.loc 1 1207 0
	movw	30(%ebx), %ax
	testb	$1, %al
	je	.L354
	.loc 1 1210 0
	subl	$12, %esp
	.loc 1 1209 0
	orl	$2, %eax
	movw	%ax, 30(%ebx)
	.loc 1 1210 0
	pushl	%ebx
	call	tcp_output
.LVL215:
	.loc 1 1211 0
	andw	$-4, 30(%ebx)
	addl	$16, %esp
.L354:
	.loc 1 1217 0
	cmpl	$0, 120(%ebx)
	.loc 1 1214 0
	movl	12(%ebx), %esi
.LVL216:
	.loc 1 1217 0
	je	.L355
	.loc 1 1219 0
	subl	$12, %esp
	.loc 1 1218 0
	movb	$0, tcp_active_pcbs_changed
	.loc 1 1219 0
	pushl	%ebx
	call	tcp_process_refused_data
.LVL217:
	.loc 1 1220 0
	addl	$16, %esp
	cmpb	$0, tcp_active_pcbs_changed
	je	.L355
	jmp	.L351
.LVL218:
.L353:
.LBE54:
	.loc 1 1227 0
	movl	12(%ebx), %esi
.LVL219:
.L355:
	.loc 1 1194 0
	movl	%esi, %ebx
	jmp	.L352
.LVL220:
.L362:
	.loc 1 1230 0
	leal	-8(%ebp), %esp
	popl	%ebx
	.cfi_restore 3
.LVL221:
	popl	%esi
	.cfi_restore 6
	popl	%ebp
	.cfi_restore 5
	.cfi_def_cfa 4, 4
	ret
	.cfi_endproc
.LFE42:
	.size	tcp_fasttmr, .-tcp_fasttmr
	.section	.text.unlikely.tcp_fasttmr
.LCOLDE28:
	.section	.text.tcp_fasttmr
.LHOTE28:
	.section	.text.unlikely.tcp_tmr,"ax",@progbits
.LCOLDB29:
	.section	.text.tcp_tmr,"ax",@progbits
.LHOTB29:
	.globl	tcp_tmr
	.type	tcp_tmr, @function
tcp_tmr:
.LFB24:
	.loc 1 151 0
	.cfi_startproc
	pushl	%ebp
	.cfi_def_cfa_offset 8
	.cfi_offset 5, -8
	movl	%esp, %ebp
	.cfi_def_cfa_register 5
	subl	$8, %esp
	.loc 1 153 0
	call	tcp_fasttmr
.LVL222:
	.loc 1 155 0
	movb	tcp_timer, %al
	incl	%eax
	testb	$1, %al
	movb	%al, tcp_timer
	je	.L363
	.loc 1 160 0
	leave
	.cfi_remember_state
	.cfi_restore 5
	.cfi_def_cfa 4, 4
	.loc 1 158 0
	jmp	tcp_slowtmr
.LVL223:
.L363:
	.cfi_restore_state
	.loc 1 160 0
	leave
	.cfi_restore 5
	.cfi_def_cfa 4, 4
	ret
	.cfi_endproc
.LFE24:
	.size	tcp_tmr, .-tcp_tmr
	.section	.text.unlikely.tcp_tmr
.LCOLDE29:
	.section	.text.tcp_tmr
.LHOTE29:
	.section	.text.unlikely.tcp_shutdown,"ax",@progbits
.LCOLDB30:
	.section	.text.tcp_shutdown,"ax",@progbits
.LHOTB30:
	.globl	tcp_shutdown
	.type	tcp_shutdown, @function
tcp_shutdown:
.LFB31:
	.loc 1 407 0
	.cfi_startproc
.LVL224:
	pushl	%ebp
	.cfi_def_cfa_offset 8
	.cfi_offset 5, -8
	movl	%esp, %ebp
	.cfi_def_cfa_register 5
	pushl	%ebx
	pushl	%eax
	.cfi_offset 3, -12
	.loc 1 407 0
	movl	8(%ebp), %ebx
	movl	12(%ebp), %edx
	movl	16(%ebp), %eax
	.loc 1 408 0
	movl	20(%ebx), %ecx
	cmpl	$1, %ecx
	je	.L373
	.loc 1 411 0
	testl	%edx, %edx
	je	.L368
	.loc 1 413 0
	orw	$16, 30(%ebx)
	.loc 1 414 0
	testl	%eax, %eax
	.loc 1 416 0
	movl	$1, %edx
	.loc 1 414 0
	jne	.L382
	.loc 1 419 0
	movl	120(%ebx), %eax
	testl	%eax, %eax
	je	.L370
	.loc 1 420 0
	subl	$12, %esp
	pushl	%eax
	call	pbuf_free
.LVL225:
	.loc 1 421 0
	movl	$0, 120(%ebx)
	addl	$16, %esp
	jmp	.L370
.L368:
	.loc 1 424 0
	testl	%eax, %eax
	je	.L370
	cmpl	$7, %ecx
	ja	.L373
	movl	$1, %eax
	sall	%cl, %eax
	testb	$-104, %al
	je	.L373
	.loc 1 431 0
	xorl	%edx, %edx
.L382:
	movl	%ebx, %eax
	.loc 1 439 0
	movl	-4(%ebp), %ebx
	leave
	.cfi_remember_state
	.cfi_restore 5
	.cfi_restore 3
	.cfi_def_cfa 4, 4
	.loc 1 431 0
	jmp	tcp_close_shutdown
.LVL226:
.L373:
	.cfi_restore_state
	.loc 1 409 0
	movb	$-11, %al
	jmp	.L380
.L370:
	.loc 1 438 0
	xorl	%eax, %eax
.L380:
	.loc 1 439 0
	movl	-4(%ebp), %ebx
	leave
	.cfi_restore 5
	.cfi_restore 3
	.cfi_def_cfa 4, 4
	ret
	.cfi_endproc
.LFE31:
	.size	tcp_shutdown, .-tcp_shutdown
	.section	.text.unlikely.tcp_shutdown
.LCOLDE30:
	.section	.text.tcp_shutdown
.LHOTE30:
	.section	.text.unlikely.tcp_abandon,"ax",@progbits
.LCOLDB31:
	.section	.text.tcp_abandon,"ax",@progbits
.LHOTB31:
	.globl	tcp_abandon
	.type	tcp_abandon, @function
tcp_abandon:
.LFB32:
	.loc 1 451 0
	.cfi_startproc
.LVL227:
	pushl	%ebp
	.cfi_def_cfa_offset 8
	.cfi_offset 5, -8
	movl	%esp, %ebp
	.cfi_def_cfa_register 5
	pushl	%edi
	pushl	%esi
	pushl	%ebx
	subl	$28, %esp
	.cfi_offset 7, -12
	.cfi_offset 6, -16
	.cfi_offset 3, -20
	.loc 1 451 0
	movl	8(%ebp), %edi
	movl	12(%ebp), %esi
	.loc 1 464 0
	movl	20(%edi), %edx
	cmpl	$10, %edx
	jne	.L384
	.loc 1 465 0
	pushl	%ebx
	pushl	%ebx
	pushl	%edi
	pushl	$tcp_tw_pcbs
	call	tcp_pcb_remove
.LVL228:
	.loc 1 466 0
	movl	%edi, 12(%ebp)
	movl	$2, 8(%ebp)
	addl	$16, %esp
	.loc 1 505 0
	leal	-12(%ebp), %esp
	popl	%ebx
	.cfi_remember_state
	.cfi_restore 3
	popl	%esi
	.cfi_restore 6
	popl	%edi
	.cfi_restore 7
	popl	%ebp
	.cfi_restore 5
	.cfi_def_cfa 4, 4
	.loc 1 466 0
	jmp	memp_free
.LVL229:
.L384:
	.cfi_restore_state
.LBB55:
	.loc 1 470 0
	movl	80(%edi), %eax
	.loc 1 476 0
	testl	%edx, %edx
	.loc 1 470 0
	movl	%eax, -32(%ebp)
.LVL230:
	.loc 1 471 0
	movl	40(%edi), %eax
.LVL231:
	movl	%eax, -36(%ebp)
.LVL232:
	.loc 1 473 0
	movl	144(%edi), %eax
.LVL233:
	movl	%eax, -28(%ebp)
.LVL234:
	.loc 1 475 0
	movl	16(%edi), %eax
.LVL235:
	movl	%eax, -40(%ebp)
.LVL236:
	.loc 1 476 0
	jne	.L385
	.loc 1 477 0
	cmpw	$0, 26(%edi)
	je	.L396
	.loc 1 479 0
	movl	tcp_bound_pcbs, %edx
	cmpl	%edx, %edi
	jne	.L406
	.loc 1 479 0 is_stmt 0 discriminator 1
	movl	12(%edi), %edx
	movl	%edx, tcp_bound_pcbs
	jmp	.L388
.LVL237:
.L397:
.LBB56:
	movl	%ecx, %edx
.LVL238:
.L406:
	.loc 1 479 0 discriminator 8
	testl	%edx, %edx
	je	.L388
	.loc 1 479 0 is_stmt 1 discriminator 9
	movl	12(%edx), %ecx
	cmpl	%ecx, %edi
	jne	.L397
	.loc 1 479 0 is_stmt 0 discriminator 5
	movl	12(%edi), %ecx
	movl	%ecx, 12(%edx)
.LVL239:
.L388:
.LBE56:
	.loc 1 479 0 discriminator 10
	movl	$0, 12(%edi)
	jmp	.L396
.L385:
.LVL240:
	.loc 1 483 0 is_stmt 1
	movzwl	26(%edi), %ebx
.LVL241:
	.loc 1 484 0
	pushl	%ecx
.LVL242:
	pushl	%ecx
	pushl	%edi
	pushl	$tcp_active_pcbs
	call	tcp_pcb_remove
.LVL243:
	movb	$1, tcp_active_pcbs_changed
	addl	$16, %esp
	jmp	.L386
.LVL244:
.L396:
	.loc 1 469 0
	xorl	%ebx, %ebx
	.loc 1 468 0
	xorl	%esi, %esi
.LVL245:
.L386:
	.loc 1 486 0
	movl	112(%edi), %edx
	testl	%edx, %edx
	je	.L391
	.loc 1 487 0
	subl	$12, %esp
	pushl	%edx
	call	tcp_segs_free
.LVL246:
	addl	$16, %esp
.L391:
	.loc 1 489 0
	movl	108(%edi), %edx
	testl	%edx, %edx
	je	.L392
	.loc 1 490 0
	subl	$12, %esp
	pushl	%edx
	call	tcp_segs_free
.LVL247:
	addl	$16, %esp
.L392:
	.loc 1 493 0
	movl	116(%edi), %edx
	testl	%edx, %edx
	je	.L393
	.loc 1 494 0
	subl	$12, %esp
	pushl	%edx
	call	tcp_segs_free
.LVL248:
	addl	$16, %esp
.L393:
	.loc 1 497 0
	subl	$12, %esp
	pushl	%edi
	call	tcp_backlog_accepted
.LVL249:
	.loc 1 498 0
	addl	$16, %esp
	testl	%esi, %esi
	je	.L394
	.loc 1 500 0
	pushl	%edx
	pushl	%edx
	movzwl	28(%edi), %edx
	pushl	%edx
	leal	4(%edi), %edx
	pushl	%ebx
	pushl	%edx
	pushl	%edi
	pushl	-36(%ebp)
	pushl	-32(%ebp)
	call	tcp_rst
.LVL250:
	addl	$32, %esp
.L394:
	.loc 1 502 0
	pushl	%eax
	pushl	%eax
	pushl	%edi
	pushl	$2
	call	memp_free
.LVL251:
	.loc 1 503 0
	addl	$16, %esp
	cmpl	$0, -28(%ebp)
	je	.L383
	.loc 1 503 0 discriminator 1
	movl	-40(%ebp), %eax
	movl	$-13, 12(%ebp)
	movl	%eax, 8(%ebp)
	movl	-28(%ebp), %eax
.LBE55:
	.loc 1 505 0 discriminator 1
	leal	-12(%ebp), %esp
	popl	%ebx
	.cfi_remember_state
	.cfi_restore 3
.LVL252:
	popl	%esi
	.cfi_restore 6
.LVL253:
	popl	%edi
	.cfi_restore 7
	popl	%ebp
	.cfi_restore 5
	.cfi_def_cfa 4, 4
.LBB57:
	.loc 1 503 0 discriminator 1
	jmp	*%eax
.LVL254:
.L383:
	.cfi_restore_state
.LBE57:
	.loc 1 505 0
	leal	-12(%ebp), %esp
	popl	%ebx
	.cfi_restore 3
.LVL255:
	popl	%esi
	.cfi_restore 6
.LVL256:
	popl	%edi
	.cfi_restore 7
	popl	%ebp
	.cfi_restore 5
	.cfi_def_cfa 4, 4
	ret
	.cfi_endproc
.LFE32:
	.size	tcp_abandon, .-tcp_abandon
	.section	.text.unlikely.tcp_abandon
.LCOLDE31:
	.section	.text.tcp_abandon
.LHOTE31:
	.section	.text.unlikely.tcp_abort,"ax",@progbits
.LCOLDB32:
	.section	.text.tcp_abort,"ax",@progbits
.LHOTB32:
	.globl	tcp_abort
	.type	tcp_abort, @function
tcp_abort:
.LFB33:
	.loc 1 520 0
	.cfi_startproc
.LVL257:
	pushl	%ebp
	.cfi_def_cfa_offset 8
	.cfi_offset 5, -8
	movl	%esp, %ebp
	.cfi_def_cfa_register 5
	subl	$16, %esp
	.loc 1 521 0
	pushl	$1
	pushl	8(%ebp)
	call	tcp_abandon
.LVL258:
	.loc 1 522 0
	addl	$16, %esp
	leave
	.cfi_restore 5
	.cfi_def_cfa 4, 4
	ret
	.cfi_endproc
.LFE33:
	.size	tcp_abort, .-tcp_abort
	.section	.text.unlikely.tcp_abort
.LCOLDE32:
	.section	.text.tcp_abort
.LHOTE32:
	.section	.text.unlikely.tcp_accept_null,"ax",@progbits
.LCOLDB33:
	.section	.text.tcp_accept_null,"ax",@progbits
.LHOTB33:
	.type	tcp_accept_null, @function
tcp_accept_null:
.LFB35:
	.loc 1 616 0
	.cfi_startproc
.LVL259:
	pushl	%ebp
	.cfi_def_cfa_offset 8
	.cfi_offset 5, -8
	movl	%esp, %ebp
	.cfi_def_cfa_register 5
	subl	$20, %esp
	.loc 1 620 0
	pushl	12(%ebp)
	call	tcp_abort
.LVL260:
	.loc 1 623 0
	movb	$-13, %al
	leave
	.cfi_restore 5
	.cfi_def_cfa 4, 4
	ret
	.cfi_endproc
.LFE35:
	.size	tcp_accept_null, .-tcp_accept_null
	.section	.text.unlikely.tcp_accept_null
.LCOLDE33:
	.section	.text.tcp_accept_null
.LHOTE33:
	.section	.text.unlikely.tcp_netif_ip_addr_changed_pcblist,"ax",@progbits
.LCOLDB34:
	.section	.text.tcp_netif_ip_addr_changed_pcblist,"ax",@progbits
.LHOTB34:
	.type	tcp_netif_ip_addr_changed_pcblist, @function
tcp_netif_ip_addr_changed_pcblist:
.LFB66:
	.loc 1 1906 0
	.cfi_startproc
.LVL261:
	pushl	%ebp
	.cfi_def_cfa_offset 8
	.cfi_offset 5, -8
	movl	%esp, %ebp
	.cfi_def_cfa_register 5
	pushl	%esi
	pushl	%ebx
	.cfi_offset 6, -12
	.cfi_offset 3, -16
	movl	%eax, %esi
.LVL262:
.L417:
	.loc 1 1909 0
	testl	%edx, %edx
	je	.L422
	.loc 1 1911 0
	movl	(%esi), %eax
	cmpl	%eax, (%edx)
	movl	12(%edx), %ebx
	jne	.L418
.LVL263:
.LBB58:
	.loc 1 1920 0
	subl	$12, %esp
	pushl	%edx
	call	tcp_abort
.LVL264:
.LBE58:
	addl	$16, %esp
.LVL265:
.L418:
	.loc 1 1923 0
	movl	%ebx, %edx
.LVL266:
	jmp	.L417
.LVL267:
.L422:
	.loc 1 1926 0
	leal	-8(%ebp), %esp
	popl	%ebx
	.cfi_restore 3
	popl	%esi
	.cfi_restore 6
.LVL268:
	popl	%ebp
	.cfi_restore 5
	.cfi_def_cfa 4, 4
	ret
	.cfi_endproc
.LFE66:
	.size	tcp_netif_ip_addr_changed_pcblist, .-tcp_netif_ip_addr_changed_pcblist
	.section	.text.unlikely.tcp_netif_ip_addr_changed_pcblist
.LCOLDE34:
	.section	.text.tcp_netif_ip_addr_changed_pcblist
.LHOTE34:
	.section	.text.unlikely.tcp_kill_state,"ax",@progbits
.LCOLDB35:
	.section	.text.tcp_kill_state,"ax",@progbits
.LHOTB35:
	.type	tcp_kill_state, @function
tcp_kill_state:
.LFB51:
	.loc 1 1432 0
	.cfi_startproc
.LVL269:
	pushl	%ebp
	.cfi_def_cfa_offset 8
	.cfi_offset 5, -8
	.loc 1 1439 0
	xorl	%ecx, %ecx
	.loc 1 1432 0
	movl	%esp, %ebp
	.cfi_def_cfa_register 5
	pushl	%edi
	pushl	%esi
	pushl	%ebx
	.cfi_offset 7, -12
	.cfi_offset 6, -16
	.cfi_offset 3, -20
	.loc 1 1438 0
	xorl	%ebx, %ebx
	.loc 1 1432 0
	subl	$12, %esp
	.loc 1 1442 0
	movl	tcp_active_pcbs, %edx
.LVL270:
	.loc 1 1444 0
	movl	tcp_ticks, %edi
.LVL271:
.L424:
	.loc 1 1442 0 discriminator 1
	testl	%edx, %edx
	je	.L432
	.loc 1 1443 0
	cmpl	%eax, 20(%edx)
	jne	.L425
	.loc 1 1444 0
	movl	%edi, %esi
	subl	36(%edx), %esi
	cmpl	%esi, %ebx
	ja	.L425
	movl	%esi, %ebx
.LVL272:
	movl	%edx, %ecx
.LVL273:
.L425:
	.loc 1 1442 0 discriminator 2
	movl	12(%edx), %edx
.LVL274:
	jmp	.L424
.L432:
	.loc 1 1450 0
	testl	%ecx, %ecx
	je	.L423
.LVL275:
	.loc 1 1454 0
	pushl	%eax
	pushl	%eax
	pushl	$0
	pushl	%ecx
	call	tcp_abandon
.LVL276:
	addl	$16, %esp
.L423:
	.loc 1 1456 0
	leal	-12(%ebp), %esp
	popl	%ebx
	.cfi_restore 3
.LVL277:
	popl	%esi
	.cfi_restore 6
	popl	%edi
	.cfi_restore 7
	popl	%ebp
	.cfi_restore 5
	.cfi_def_cfa 4, 4
	ret
	.cfi_endproc
.LFE51:
	.size	tcp_kill_state, .-tcp_kill_state
	.section	.text.unlikely.tcp_kill_state
.LCOLDE35:
	.section	.text.tcp_kill_state
.LHOTE35:
	.section	.text.unlikely.tcp_next_iss,"ax",@progbits
.LCOLDB36:
	.section	.text.tcp_next_iss,"ax",@progbits
.LHOTB36:
	.globl	tcp_next_iss
	.type	tcp_next_iss, @function
tcp_next_iss:
.LFB64:
	.loc 1 1830 0
	.cfi_startproc
	.loc 1 1833 0
	movl	tcp_ticks, %eax
	addl	iss.4806, %eax
	.loc 1 1830 0
	pushl	%ebp
	.cfi_def_cfa_offset 8
	.cfi_offset 5, -8
	movl	%esp, %ebp
	.cfi_def_cfa_register 5
	.loc 1 1833 0
	movl	%eax, iss.4806
	.loc 1 1835 0
	popl	%ebp
	.cfi_restore 5
	.cfi_def_cfa 4, 4
	ret
	.cfi_endproc
.LFE64:
	.size	tcp_next_iss, .-tcp_next_iss
	.section	.text.unlikely.tcp_next_iss
.LCOLDE36:
	.section	.text.tcp_next_iss
.LHOTE36:
	.section	.text.unlikely.tcp_alloc,"ax",@progbits
.LCOLDB37:
	.section	.text.tcp_alloc,"ax",@progbits
.LHOTB37:
	.globl	tcp_alloc
	.type	tcp_alloc, @function
tcp_alloc:
.LFB53:
	.loc 1 1492 0
	.cfi_startproc
.LVL278:
	pushl	%ebp
	.cfi_def_cfa_offset 8
	.cfi_offset 5, -8
	movl	%esp, %ebp
	.cfi_def_cfa_register 5
	pushl	%edi
	pushl	%esi
	pushl	%ebx
	subl	$40, %esp
	.cfi_offset 7, -12
	.cfi_offset 6, -16
	.cfi_offset 3, -20
	.loc 1 1492 0
	movl	8(%ebp), %ebx
	.loc 1 1496 0
	pushl	$2
	call	memp_malloc
.LVL279:
	.loc 1 1497 0
	addl	$16, %esp
	testl	%eax, %eax
	.loc 1 1496 0
	movl	%eax, %edx
.LVL280:
	.loc 1 1497 0
	jne	.L447
.LVL281:
.LBB63:
.LBB64:
	.loc 1 1471 0
	movl	tcp_tw_pcbs, %eax
.LVL282:
	.loc 1 1472 0
	movl	tcp_ticks, %edi
	.loc 1 1468 0
	xorl	%ecx, %ecx
.LVL283:
.L437:
	.loc 1 1471 0
	testl	%eax, %eax
	je	.L459
	.loc 1 1472 0
	movl	%edi, %esi
	subl	36(%eax), %esi
	cmpl	%ecx, %esi
	jb	.L438
	movl	%esi, %ecx
.LVL284:
	movl	%eax, %edx
.LVL285:
.L438:
	.loc 1 1471 0
	movl	12(%eax), %eax
.LVL286:
	jmp	.L437
.L459:
	.loc 1 1477 0
	testl	%edx, %edx
	je	.L440
	.loc 1 1480 0
	subl	$12, %esp
	pushl	%edx
	call	tcp_abort
.LVL287:
	addl	$16, %esp
.L440:
.LBE64:
.LBE63:
	.loc 1 1502 0
	subl	$12, %esp
	pushl	$2
	call	memp_malloc
.LVL288:
	.loc 1 1503 0
	addl	$16, %esp
	testl	%eax, %eax
	.loc 1 1502 0
	movl	%eax, %edx
.LVL289:
	.loc 1 1503 0
	jne	.L447
	.loc 1 1506 0
	movl	$9, %eax
.LVL290:
	call	tcp_kill_state
.LVL291:
	.loc 1 1508 0
	subl	$12, %esp
	pushl	$2
	call	memp_malloc
.LVL292:
	.loc 1 1509 0
	addl	$16, %esp
	testl	%eax, %eax
	.loc 1 1508 0
	movl	%eax, %edx
.LVL293:
	.loc 1 1509 0
	jne	.L447
	.loc 1 1512 0
	movl	$8, %eax
.LVL294:
	call	tcp_kill_state
.LVL295:
	.loc 1 1514 0
	subl	$12, %esp
	pushl	$2
	call	memp_malloc
.LVL296:
	.loc 1 1515 0
	addl	$16, %esp
	testl	%eax, %eax
	.loc 1 1514 0
	movl	%eax, %edx
.LVL297:
	.loc 1 1515 0
	jne	.L447
.LVL298:
.LBB65:
.LBB66:
	.loc 1 1406 0
	movb	$127, %dl
	testb	%bl, %bl
	.loc 1 1413 0
	movl	tcp_ticks, %ecx
	.loc 1 1406 0
	movb	%dl, %al
.LVL299:
	cmovns	%ebx, %eax
	.loc 1 1409 0
	xorl	%esi, %esi
	.loc 1 1406 0
	movb	%al, -25(%ebp)
.LVL300:
	.loc 1 1411 0
	movl	tcp_active_pcbs, %eax
.LVL301:
	.loc 1 1413 0
	movl	%ecx, -32(%ebp)
	.loc 1 1410 0
	xorl	%ecx, %ecx
.LVL302:
.L442:
	.loc 1 1411 0
	testl	%eax, %eax
	je	.L460
	.loc 1 1412 0
	movb	24(%eax), %dl
	cmpb	-25(%ebp), %dl
	ja	.L443
	.loc 1 1413 0
	movl	-32(%ebp), %edi
	subl	36(%eax), %edi
	.loc 1 1412 0
	cmpl	%esi, %edi
	jb	.L443
	movb	%dl, -25(%ebp)
.LVL303:
	movl	%edi, %esi
.LVL304:
	movl	%eax, %ecx
.LVL305:
.L443:
	.loc 1 1411 0
	movl	12(%eax), %eax
.LVL306:
	jmp	.L442
.L460:
	.loc 1 1419 0
	testl	%ecx, %ecx
	je	.L445
	.loc 1 1422 0
	subl	$12, %esp
	pushl	%ecx
	call	tcp_abort
.LVL307:
	addl	$16, %esp
.L445:
.LVL308:
.LBE66:
.LBE65:
	.loc 1 1520 0
	subl	$12, %esp
	pushl	$2
	call	memp_malloc
.LVL309:
	.loc 1 1541 0
	addl	$16, %esp
	testl	%eax, %eax
	.loc 1 1520 0
	movl	%eax, %edx
.LVL310:
	.loc 1 1541 0
	je	.L446
.L447:
	.loc 1 1543 0
	xorl	%eax, %eax
.LVL311:
	movl	%edx, %edi
	movl	$41, %ecx
	rep stosl
	.loc 1 1544 0
	movb	%bl, 24(%edx)
	.loc 1 1545 0
	movw	$14600, 100(%edx)
	.loc 1 1548 0
	movw	$4380, 46(%edx)
	movw	$4380, 44(%edx)
	.loc 1 1549 0
	movb	$-1, 10(%edx)
	.loc 1 1552 0
	movw	$536, 54(%edx)
	.loc 1 1553 0
	movw	$1, 68(%edx)
	.loc 1 1554 0
	movw	$1, 66(%edx)
	.loc 1 1555 0
	movw	$-1, 52(%edx)
	.loc 1 1556 0
	movw	$1, 76(%edx)
	.loc 1 1557 0
	call	tcp_next_iss
.LVL312:
	.loc 1 1558 0
	movl	%eax, 88(%edx)
	.loc 1 1559 0
	movl	%eax, 80(%edx)
	.loc 1 1560 0
	movl	%eax, 72(%edx)
	.loc 1 1561 0
	movl	%eax, 92(%edx)
	.loc 1 1562 0
	movl	tcp_ticks, %eax
.LVL313:
	.loc 1 1566 0
	movl	$tcp_recv_null, 132(%edx)
	.loc 1 1570 0
	movl	$7200000, 148(%edx)
	.loc 1 1573 0
	movl	$75000, 152(%edx)
	.loc 1 1574 0
	movl	$9, 156(%edx)
	.loc 1 1562 0
	movl	%eax, 36(%edx)
	.loc 1 1563 0
	movb	tcp_timer_ctr, %al
	movb	%al, 34(%edx)
.LVL314:
.L446:
	.loc 1 1578 0
	leal	-12(%ebp), %esp
	movl	%edx, %eax
	popl	%ebx
	.cfi_restore 3
	popl	%esi
	.cfi_restore 6
	popl	%edi
	.cfi_restore 7
	popl	%ebp
	.cfi_restore 5
	.cfi_def_cfa 4, 4
	ret
	.cfi_endproc
.LFE53:
	.size	tcp_alloc, .-tcp_alloc
	.section	.text.unlikely.tcp_alloc
.LCOLDE37:
	.section	.text.tcp_alloc
.LHOTE37:
	.section	.text.unlikely.tcp_new,"ax",@progbits
.LCOLDB38:
	.section	.text.tcp_new,"ax",@progbits
.LHOTB38:
	.globl	tcp_new
	.type	tcp_new, @function
tcp_new:
.LFB54:
	.loc 1 1595 0
	.cfi_startproc
	pushl	%ebp
	.cfi_def_cfa_offset 8
	.cfi_offset 5, -8
	movl	%esp, %ebp
	.cfi_def_cfa_register 5
	subl	$20, %esp
	.loc 1 1596 0
	pushl	$64
	call	tcp_alloc
.LVL315:
	.loc 1 1597 0
	leave
	.cfi_restore 5
	.cfi_def_cfa 4, 4
	ret
	.cfi_endproc
.LFE54:
	.size	tcp_new, .-tcp_new
	.section	.text.unlikely.tcp_new
.LCOLDE38:
	.section	.text.tcp_new
.LHOTE38:
	.section	.text.unlikely.tcp_new_ip_type,"ax",@progbits
.LCOLDB39:
	.section	.text.tcp_new_ip_type,"ax",@progbits
.LHOTB39:
	.globl	tcp_new_ip_type
	.type	tcp_new_ip_type, @function
tcp_new_ip_type:
.LFB55:
	.loc 1 1612 0
	.cfi_startproc
.LVL316:
	pushl	%ebp
	.cfi_def_cfa_offset 8
	.cfi_offset 5, -8
	movl	%esp, %ebp
	.cfi_def_cfa_register 5
	.loc 1 1614 0
	movl	$64, 8(%ebp)
.LVL317:
	.loc 1 1624 0
	popl	%ebp
	.cfi_restore 5
	.cfi_def_cfa 4, 4
	.loc 1 1614 0
	jmp	tcp_alloc
.LVL318:
	.cfi_endproc
.LFE55:
	.size	tcp_new_ip_type, .-tcp_new_ip_type
	.section	.text.unlikely.tcp_new_ip_type
.LCOLDE39:
	.section	.text.tcp_new_ip_type
.LHOTE39:
	.section	.text.unlikely.tcp_eff_send_mss_impl,"ax",@progbits
.LCOLDB40:
	.section	.text.tcp_eff_send_mss_impl,"ax",@progbits
.LHOTB40:
	.globl	tcp_eff_send_mss_impl
	.type	tcp_eff_send_mss_impl, @function
tcp_eff_send_mss_impl:
.LFB65:
	.loc 1 1849 0
	.cfi_startproc
.LVL319:
	pushl	%ebp
	.cfi_def_cfa_offset 8
	.cfi_offset 5, -8
	movl	%esp, %ebp
	.cfi_def_cfa_register 5
	pushl	%esi
	pushl	%ebx
	.cfi_offset 6, -12
	.cfi_offset 3, -16
	.loc 1 1849 0
	movl	8(%ebp), %ebx
	.loc 1 1854 0
	subl	$12, %esp
	pushl	12(%ebp)
	call	ip4_route
.LVL320:
	.loc 1 1869 0
	addl	$16, %esp
	testl	%eax, %eax
	.loc 1 1849 0
	movl	%ebx, %esi
	.loc 1 1869 0
	je	.L466
	.loc 1 1872 0
	movl	52(%eax), %eax
.LVL321:
	.loc 1 1876 0
	testw	%ax, %ax
	je	.L466
.LVL322:
	.loc 1 1897 0
	subl	$40, %eax
.LVL323:
	cmpw	%ax, %bx
	cmovbe	%ebx, %eax
	movl	%eax, %esi
.LVL324:
.L466:
	.loc 1 1900 0
	leal	-8(%ebp), %esp
	movl	%esi, %eax
	popl	%ebx
	.cfi_restore 3
	popl	%esi
	.cfi_restore 6
	popl	%ebp
	.cfi_restore 5
	.cfi_def_cfa 4, 4
	ret
	.cfi_endproc
.LFE65:
	.size	tcp_eff_send_mss_impl, .-tcp_eff_send_mss_impl
	.section	.text.unlikely.tcp_eff_send_mss_impl
.LCOLDE40:
	.section	.text.tcp_eff_send_mss_impl
.LHOTE40:
	.section	.rodata.str1.1
.LC41:
	.string	"tcp_connect: can only connect from state CLOSED"
	.section	.text.unlikely.tcp_connect,"ax",@progbits
.LCOLDB42:
	.section	.text.tcp_connect,"ax",@progbits
.LHOTB42:
	.globl	tcp_connect
	.type	tcp_connect, @function
tcp_connect:
.LFB40:
	.loc 1 824 0
	.cfi_startproc
.LVL325:
	pushl	%ebp
	.cfi_def_cfa_offset 8
	.cfi_offset 5, -8
	movl	%esp, %ebp
	.cfi_def_cfa_register 5
	pushl	%edi
	pushl	%esi
	pushl	%ebx
	subl	$28, %esp
	.cfi_offset 7, -12
	.cfi_offset 6, -16
	.cfi_offset 3, -20
	.loc 1 824 0
	movl	8(%ebp), %ebx
	movl	16(%ebp), %eax
	.loc 1 829 0
	testl	%ebx, %ebx
	je	.L490
	cmpl	$0, 12(%ebp)
	je	.L490
	.loc 1 833 0
	cmpl	$0, 20(%ebx)
	je	.L476
	.loc 1 833 0 is_stmt 0 discriminator 1
	subl	$12, %esp
	pushl	$.LC41
	call	bk_printf
.LVL326:
	addl	$16, %esp
	movb	$-10, %dl
	jmp	.L475
.L476:
	.loc 1 836 0 is_stmt 1 discriminator 1
	movl	12(%ebp), %esi
	.loc 1 840 0 discriminator 1
	cmpl	$0, (%ebx)
	movl	%eax, %edx
	.loc 1 836 0 discriminator 1
	movl	(%esi), %ecx
	.loc 1 837 0 discriminator 1
	movw	%ax, 28(%ebx)
	.loc 1 836 0 discriminator 1
	movl	%ecx, 4(%ebx)
	.loc 1 840 0 discriminator 1
	jne	.L477
.LBB67:
	.loc 1 844 0
	leal	4(%ebx), %eax
	subl	$12, %esp
	movl	%edx, -28(%ebp)
	.loc 1 844 0
	movl	$0, %esi
	.loc 1 844 0
	pushl	%eax
	call	ip4_route
.LVL327:
	.loc 1 844 0
	leal	4(%eax), %ecx
	addl	$16, %esp
	testl	%eax, %eax
	cmove	%esi, %ecx
.LVL328:
	.loc 1 845 0
	je	.L492
	.loc 1 845 0 is_stmt 0 discriminator 4
	testl	%ecx, %ecx
	je	.L492
	.loc 1 851 0 is_stmt 1
	movl	(%ecx), %eax
.LVL329:
	movl	-28(%ebp), %edx
	movl	%eax, (%ebx)
.LVL330:
.L477:
.LBE67:
	.loc 1 854 0
	movw	26(%ebx), %si
.LVL331:
	.loc 1 855 0
	testw	%si, %si
	jne	.L479
	.loc 1 856 0
	call	tcp_new_port
.LVL332:
	.loc 1 857 0
	testw	%ax, %ax
	.loc 1 856 0
	movw	%ax, 26(%ebx)
	.loc 1 858 0
	movb	$-2, %dl
	.loc 1 857 0
	je	.L475
.L481:
	.loc 1 883 0
	call	tcp_next_iss
.LVL333:
	.loc 1 885 0
	movl	%eax, 80(%ebx)
	.loc 1 886 0
	decl	%eax
.LVL334:
	.loc 1 884 0
	movl	$0, 40(%ebx)
	.loc 1 886 0
	movl	%eax, 72(%ebx)
	.loc 1 887 0
	movl	%eax, 92(%ebx)
	.loc 1 890 0
	movw	$4380, 46(%ebx)
	movw	$4380, 44(%ebx)
	.loc 1 891 0
	movl	$0, 48(%ebx)
	.loc 1 892 0
	movw	$4380, 96(%ebx)
	.loc 1 895 0
	movw	$536, 54(%ebx)
	.loc 1 897 0
	pushl	%eax
.LVL335:
	pushl	%eax
	leal	4(%ebx), %eax
	pushl	%eax
	pushl	$536
	call	tcp_eff_send_mss_impl
.LVL336:
	movw	%ax, 54(%ebx)
	.loc 1 902 0
	movl	20(%ebp), %eax
	.loc 1 899 0
	movw	$1, 76(%ebx)
	.loc 1 900 0
	movw	$4380, 78(%ebx)
	.loc 1 902 0
	movl	%eax, 136(%ebx)
	.loc 1 908 0
	popl	%edx
	popl	%ecx
	pushl	$2
	pushl	%ebx
	call	tcp_enqueue_flags
.LVL337:
	.loc 1 909 0
	addl	$16, %esp
	testb	%al, %al
	movb	%al, %dl
	je	.L505
	jmp	.L475
.LVL338:
.L479:
	.loc 1 862 0
	testb	$4, 8(%ebx)
	je	.L481
	movl	$tcp_pcb_lists, %ecx
.L485:
.LBB68:
	.loc 1 869 0
	movl	8(%ecx), %eax
	movl	(%eax), %eax
.LVL339:
.L482:
	.loc 1 869 0 is_stmt 0 discriminator 1
	testl	%eax, %eax
	je	.L506
	.loc 1 870 0 is_stmt 1
	cmpw	26(%eax), %si
	jne	.L483
	.loc 1 870 0 is_stmt 0 discriminator 1
	cmpw	28(%eax), %dx
	jne	.L483
	.loc 1 871 0 is_stmt 1
	movl	(%ebx), %edi
	cmpl	%edi, (%eax)
	jne	.L483
	.loc 1 872 0
	movl	12(%ebp), %edi
	movl	(%edi), %edi
	cmpl	%edi, 4(%eax)
	je	.L494
.L483:
	.loc 1 869 0 discriminator 2
	movl	12(%eax), %eax
.LVL340:
	jmp	.L482
.L506:
.LVL341:
	addl	$4, %ecx
	.loc 1 868 0 discriminator 2
	cmpl	$tcp_pcb_lists+8, %ecx
	je	.L481
	jmp	.L485
.LVL342:
.L505:
.LBE68:
	.loc 1 912 0
	testw	%si, %si
	.loc 1 911 0
	movl	$2, 20(%ebx)
	.loc 1 912 0
	je	.L486
	.loc 1 913 0
	movl	tcp_bound_pcbs, %eax
.LVL343:
	cmpl	%eax, %ebx
	jne	.L501
	.loc 1 913 0 is_stmt 0 discriminator 1
	movl	12(%ebx), %eax
	movl	%eax, tcp_bound_pcbs
	jmp	.L486
.LVL344:
.L495:
.LBB69:
	movl	%edx, %eax
.LVL345:
.L501:
	.loc 1 913 0 discriminator 8
	testl	%eax, %eax
	je	.L486
	.loc 1 913 0 is_stmt 1 discriminator 9
	movl	12(%eax), %edx
	cmpl	%edx, %ebx
	jne	.L495
	.loc 1 913 0 is_stmt 0 discriminator 5
	movl	12(%ebx), %edx
	movl	%edx, 12(%eax)
.LVL346:
.L486:
.LBE69:
	.loc 1 915 0 is_stmt 1 discriminator 10
	movl	tcp_active_pcbs, %eax
	movl	%ebx, tcp_active_pcbs
	movl	%eax, 12(%ebx)
	call	tcp_timer_needed
.LVL347:
	.loc 1 918 0 discriminator 10
	subl	$12, %esp
	.loc 1 915 0 discriminator 10
	movb	$1, tcp_active_pcbs_changed
	.loc 1 918 0 discriminator 10
	pushl	%ebx
	call	tcp_output
.LVL348:
	addl	$16, %esp
	xorl	%edx, %edx
	jmp	.L475
.LVL349:
.L490:
	.loc 1 830 0
	movb	$-6, %dl
	jmp	.L475
.LVL350:
.L492:
.LBB70:
	.loc 1 848 0
	movb	$-4, %dl
	jmp	.L475
.LVL351:
.L494:
.LBE70:
.LBB71:
	.loc 1 875 0
	movb	$-8, %dl
.LVL352:
.L475:
.LBE71:
	.loc 1 921 0
	leal	-12(%ebp), %esp
	movb	%dl, %al
	popl	%ebx
	.cfi_restore 3
	popl	%esi
	.cfi_restore 6
	popl	%edi
	.cfi_restore 7
	popl	%ebp
	.cfi_restore 5
	.cfi_def_cfa 4, 4
	ret
	.cfi_endproc
.LFE40:
	.size	tcp_connect, .-tcp_connect
	.section	.text.unlikely.tcp_connect
.LCOLDE42:
	.section	.text.tcp_connect
.LHOTE42:
	.section	.text.unlikely.tcp_netif_ip_addr_changed,"ax",@progbits
.LCOLDB43:
	.section	.text.tcp_netif_ip_addr_changed,"ax",@progbits
.LHOTB43:
	.globl	tcp_netif_ip_addr_changed
	.type	tcp_netif_ip_addr_changed, @function
tcp_netif_ip_addr_changed:
.LFB67:
	.loc 1 1935 0
	.cfi_startproc
.LVL353:
	pushl	%ebp
	.cfi_def_cfa_offset 8
	.cfi_offset 5, -8
	movl	%esp, %ebp
	.cfi_def_cfa_register 5
	pushl	%esi
	pushl	%ebx
	.cfi_offset 6, -12
	.cfi_offset 3, -16
	.loc 1 1935 0
	movl	8(%ebp), %ebx
	movl	12(%ebp), %esi
	.loc 1 1938 0
	testl	%ebx, %ebx
	je	.L507
	.loc 1 1938 0 is_stmt 0 discriminator 1
	cmpl	$0, (%ebx)
	je	.L507
	.loc 1 1939 0 is_stmt 1
	movl	tcp_active_pcbs, %edx
	movl	%ebx, %eax
	call	tcp_netif_ip_addr_changed_pcblist
.LVL354:
	.loc 1 1940 0
	movl	tcp_bound_pcbs, %edx
	movl	%ebx, %eax
	call	tcp_netif_ip_addr_changed_pcblist
.LVL355:
	.loc 1 1942 0
	testl	%esi, %esi
	je	.L507
	.loc 1 1942 0 is_stmt 0 discriminator 1
	cmpl	$0, (%esi)
	.loc 1 1944 0 is_stmt 1 discriminator 1
	movl	tcp_listen_pcbs, %eax
	.loc 1 1942 0 discriminator 1
	je	.L507
.L510:
.LVL356:
	.loc 1 1944 0 discriminator 1
	testl	%eax, %eax
	je	.L507
	.loc 1 1947 0
	movl	(%ebx), %ecx
	cmpl	%ecx, (%eax)
	.loc 1 1945 0
	movl	12(%eax), %edx
.LVL357:
	.loc 1 1947 0
	jne	.L511
	.loc 1 1950 0
	movl	(%esi), %ecx
	movl	%ecx, (%eax)
.L511:
	.loc 1 1935 0 discriminator 1
	movl	%edx, %eax
.LVL358:
	jmp	.L510
.LVL359:
.L507:
	.loc 1 1955 0
	popl	%ebx
	.cfi_restore 3
	popl	%esi
	.cfi_restore 6
	popl	%ebp
	.cfi_restore 5
	.cfi_def_cfa 4, 4
	ret
	.cfi_endproc
.LFE67:
	.size	tcp_netif_ip_addr_changed, .-tcp_netif_ip_addr_changed
	.section	.text.unlikely.tcp_netif_ip_addr_changed
.LCOLDE43:
	.section	.text.tcp_netif_ip_addr_changed
.LHOTE43:
	.section	.text.unlikely.tcp_debug_state_str,"ax",@progbits
.LCOLDB44:
	.section	.text.tcp_debug_state_str,"ax",@progbits
.LHOTB44:
	.globl	tcp_debug_state_str
	.type	tcp_debug_state_str, @function
tcp_debug_state_str:
.LFB68:
	.loc 1 1959 0
	.cfi_startproc
.LVL360:
	pushl	%ebp
	.cfi_def_cfa_offset 8
	.cfi_offset 5, -8
	movl	%esp, %ebp
	.cfi_def_cfa_register 5
	.loc 1 1960 0
	movl	8(%ebp), %eax
	.loc 1 1961 0
	popl	%ebp
	.cfi_restore 5
	.cfi_def_cfa 4, 4
	.loc 1 1960 0
	movl	tcp_state_str(,%eax,4), %eax
	.loc 1 1961 0
	ret
	.cfi_endproc
.LFE68:
	.size	tcp_debug_state_str, .-tcp_debug_state_str
	.section	.text.unlikely.tcp_debug_state_str
.LCOLDE44:
	.section	.text.tcp_debug_state_str
.LHOTE44:
	.section	.data.iss.4806,"aw",@progbits
	.align 4
	.type	iss.4806, @object
	.size	iss.4806, 4
iss.4806:
	.long	6510
	.section	.bss.tcp_timer_ctr,"aw",@nobits
	.type	tcp_timer_ctr, @object
	.size	tcp_timer_ctr, 1
tcp_timer_ctr:
	.zero	1
	.section	.bss.tcp_timer,"aw",@nobits
	.type	tcp_timer, @object
	.size	tcp_timer, 1
tcp_timer:
	.zero	1
	.globl	tcp_active_pcbs_changed
	.section	.bss.tcp_active_pcbs_changed,"aw",@nobits
	.type	tcp_active_pcbs_changed, @object
	.size	tcp_active_pcbs_changed, 1
tcp_active_pcbs_changed:
	.zero	1
	.globl	tcp_pcb_lists
	.section	.rodata.tcp_pcb_lists,"a",@progbits
	.align 4
	.type	tcp_pcb_lists, @object
	.size	tcp_pcb_lists, 16
tcp_pcb_lists:
	.long	tcp_listen_pcbs
	.long	tcp_bound_pcbs
	.long	tcp_active_pcbs
	.long	tcp_tw_pcbs
	.globl	tcp_tw_pcbs
	.section	.bss.tcp_tw_pcbs,"aw",@nobits
	.align 4
	.type	tcp_tw_pcbs, @object
	.size	tcp_tw_pcbs, 4
tcp_tw_pcbs:
	.zero	4
	.globl	tcp_active_pcbs
	.section	.bss.tcp_active_pcbs,"aw",@nobits
	.align 4
	.type	tcp_active_pcbs, @object
	.size	tcp_active_pcbs, 4
tcp_active_pcbs:
	.zero	4
	.globl	tcp_listen_pcbs
	.section	.bss.tcp_listen_pcbs,"aw",@nobits
	.align 4
	.type	tcp_listen_pcbs, @object
	.size	tcp_listen_pcbs, 4
tcp_listen_pcbs:
	.zero	4
	.globl	tcp_bound_pcbs
	.section	.bss.tcp_bound_pcbs,"aw",@nobits
	.align 4
	.type	tcp_bound_pcbs, @object
	.size	tcp_bound_pcbs, 4
tcp_bound_pcbs:
	.zero	4
	.section	.rodata.tcp_persist_backoff,"a",@progbits
	.align 4
	.type	tcp_persist_backoff, @object
	.size	tcp_persist_backoff, 7
tcp_persist_backoff:
	.byte	3
	.byte	6
	.byte	12
	.byte	24
	.byte	48
	.byte	96
	.byte	120
	.section	.rodata.tcp_backoff,"a",@progbits
	.align 4
	.type	tcp_backoff, @object
	.size	tcp_backoff, 13
tcp_backoff:
	.byte	1
	.byte	2
	.byte	3
	.byte	4
	.byte	5
	.byte	6
	.byte	7
	.byte	7
	.byte	7
	.byte	7
	.byte	7
	.byte	7
	.byte	7
	.globl	tcp_ticks
	.section	.bss.tcp_ticks,"aw",@nobits
	.align 4
	.type	tcp_ticks, @object
	.size	tcp_ticks, 4
tcp_ticks:
	.zero	4
	.section	.data.tcp_port,"aw",@progbits
	.align 2
	.type	tcp_port, @object
	.size	tcp_port, 2
tcp_port:
	.value	-16384
	.section	.rodata.str1.1
.LC45:
	.string	"CLOSED"
.LC46:
	.string	"LISTEN"
.LC47:
	.string	"SYN_SENT"
.LC48:
	.string	"SYN_RCVD"
.LC49:
	.string	"ESTABLISHED"
.LC50:
	.string	"FIN_WAIT_1"
.LC51:
	.string	"FIN_WAIT_2"
.LC52:
	.string	"CLOSE_WAIT"
.LC53:
	.string	"CLOSING"
.LC54:
	.string	"LAST_ACK"
.LC55:
	.string	"TIME_WAIT"
	.section	.rodata.tcp_state_str,"a",@progbits
	.align 32
	.type	tcp_state_str, @object
	.size	tcp_state_str, 44
tcp_state_str:
	.long	.LC45
	.long	.LC46
	.long	.LC47
	.long	.LC48
	.long	.LC49
	.long	.LC50
	.long	.LC51
	.long	.LC52
	.long	.LC53
	.long	.LC54
	.long	.LC55
	.text
.Letext0:
	.section	.text.unlikely.tcp_new_port
.Letext_cold0:
	.file 2 "/home/stone/Documents/Ali_IOT/build/compiler/gcc-arm-none-eabi/Linux64/lib/gcc/arm-none-eabi/5.4.1/include/stddef.h"
	.file 3 "././platform/mcu/moc108/include/lwip-2.0.2/arch/cc.h"
	.file 4 "./kernel/protocols/net/include/lwip/err.h"
	.file 5 "./kernel/protocols/net/include/lwip/memp.h"
	.file 6 "./kernel/protocols/net/include/lwip/pbuf.h"
	.file 7 "./kernel/protocols/net/include/lwip/ip4_addr.h"
	.file 8 "./kernel/protocols/net/include/lwip/ip_addr.h"
	.file 9 "./kernel/protocols/net/include/lwip/netif.h"
	.file 10 "./kernel/protocols/net/include/lwip/tcp.h"
	.file 11 "./kernel/protocols/net/include/lwip/priv/tcp_priv.h"
	.file 12 "./kernel/protocols/net/include/lwip/prot/tcp.h"
	.file 13 "./include/aos/log.h"
	.file 14 "././platform/mcu/moc108/include/driver/uart_pub.h"
	.file 15 "./kernel/protocols/net/include/lwip/ip4.h"
	.section	.note.GNU-stack,"",@progbits
