	.file	"tcp_out.c"
	.text
.Ltext0:
	.section	.text.unlikely.tcp_pbuf_prealloc,"ax",@progbits
.LCOLDB0:
	.section	.text.tcp_pbuf_prealloc,"ax",@progbits
.LHOTB0:
	.section	.text.unlikely.tcp_pbuf_prealloc
.Ltext_cold0:
	.section	.text.tcp_pbuf_prealloc
	.type	tcp_pbuf_prealloc, @function
tcp_pbuf_prealloc:
.LFB20:
	.file 1 "kernel/protocols/net/core/tcp_out.c"
	.loc 1 236 0
	.cfi_startproc
.LVL0:
	pushl	%ebp
	.cfi_def_cfa_offset 8
	.cfi_offset 5, -8
	movl	%esp, %ebp
	.cfi_def_cfa_register 5
	pushl	%edi
	pushl	%esi
	pushl	%ebx
	.cfi_offset 7, -12
	.cfi_offset 6, -16
	.cfi_offset 3, -20
	movl	%edx, %esi
.LVL1:
	subl	$28, %esp
	.loc 1 236 0
	movl	20(%ebp), %ebx
	.loc 1 247 0
	cmpw	%cx, %si
	.loc 1 236 0
	movl	12(%ebp), %edx
.LVL2:
	movl	16(%ebp), %edi
	movl	%ebx, -28(%ebp)
	movl	%esi, %ebx
	.loc 1 247 0
	jnb	.L2
	.loc 1 259 0
	andl	$2, %edi
	jne	.L3
	.loc 1 259 0 is_stmt 0 discriminator 1
	testb	$64, 30(%edx)
	jne	.L2
	.loc 1 260 0 is_stmt 1
	cmpb	$0, -28(%ebp)
	je	.L3
	.loc 1 261 0
	cmpl	$0, 108(%edx)
	jne	.L3
	.loc 1 262 0
	cmpl	$0, 112(%edx)
	je	.L2
.L3:
	.loc 1 264 0
	movzwl	%si, %ebx
	movzwl	%cx, %ecx
	addl	$1463, %ebx
	andl	$-4, %ebx
	cmpl	%ecx, %ebx
	cmovbe	%ebx, %ecx
.LVL3:
	movl	%ecx, %ebx
.LVL4:
.L2:
	.loc 1 268 0
	movzwl	%bx, %ebx
	pushl	%edx
	pushl	$0
	pushl	%ebx
	pushl	%eax
	call	pbuf_alloc
.LVL5:
	.loc 1 269 0
	addl	$16, %esp
	testl	%eax, %eax
	je	.L4
	.loc 1 273 0
	movw	10(%eax), %dx
	movl	8(%ebp), %ecx
	subl	%esi, %edx
	movw	%dx, (%ecx)
	.loc 1 275 0
	movw	%si, 8(%eax)
	movw	%si, 10(%eax)
.L4:
	.loc 1 277 0
	leal	-12(%ebp), %esp
	popl	%ebx
	.cfi_restore 3
.LVL6:
	popl	%esi
	.cfi_restore 6
	popl	%edi
	.cfi_restore 7
	popl	%ebp
	.cfi_restore 5
	.cfi_def_cfa 4, 4
	ret
	.cfi_endproc
.LFE20:
	.size	tcp_pbuf_prealloc, .-tcp_pbuf_prealloc
	.section	.text.unlikely.tcp_pbuf_prealloc
.LCOLDE0:
	.section	.text.tcp_pbuf_prealloc
.LHOTE0:
	.section	.text.unlikely.tcp_create_segment,"ax",@progbits
.LCOLDB1:
	.section	.text.tcp_create_segment,"ax",@progbits
.LHOTB1:
	.type	tcp_create_segment, @function
tcp_create_segment:
.LFB19:
	.loc 1 174 0
	.cfi_startproc
.LVL7:
	pushl	%ebp
	.cfi_def_cfa_offset 8
	.cfi_offset 5, -8
	movl	%esp, %ebp
	.cfi_def_cfa_register 5
	pushl	%edi
	pushl	%esi
	pushl	%ebx
	.cfi_offset 7, -12
	.cfi_offset 6, -16
	.cfi_offset 3, -20
	movl	%eax, %edi
	subl	$40, %esp
	.loc 1 174 0
	movl	%ecx, -28(%ebp)
	movl	12(%ebp), %ecx
.LVL8:
	.loc 1 178 0
	pushl	$4
	.loc 1 174 0
	movl	%edx, -36(%ebp)
	.loc 1 176 0
	movb	%cl, %bl
	movl	%ecx, -32(%ebp)
	andl	$1, %ebx
	negl	%ebx
	.loc 1 178 0
	call	memp_malloc
.LVL9:
	.loc 1 176 0
	andl	$4, %ebx
.LVL10:
	.loc 1 178 0
	addl	$16, %esp
	testl	%eax, %eax
	movl	-32(%ebp), %ecx
	movl	-36(%ebp), %edx
	jne	.L15
	.loc 1 180 0
	subl	$12, %esp
	pushl	%edx
	call	pbuf_free
.LVL11:
	jmp	.L20
.LVL12:
.L15:
	.loc 1 183 0
	movb	%cl, 12(%eax)
	.loc 1 187 0
	movl	8(%edx), %ecx
	movl	%eax, %esi
	.loc 1 184 0
	movl	$0, (%eax)
	.loc 1 185 0
	movl	%edx, 4(%eax)
	.loc 1 187 0
	movzbl	%bl, %eax
.LVL13:
	.loc 1 189 0
	movw	$0, 10(%esi)
	.loc 1 187 0
	subl	%eax, %ecx
	movw	%cx, 8(%esi)
	.loc 1 200 0
	pushl	%ecx
	pushl	%ecx
	pushl	$20
	pushl	%edx
	call	pbuf_header
.LVL14:
	addl	$16, %esp
	testb	%al, %al
	je	.L17
	.loc 1 203 0
	subl	$12, %esp
	pushl	%esi
	call	tcp_seg_free
.LVL15:
.L20:
	.loc 1 204 0
	addl	$16, %esp
	xorl	%eax, %eax
	jmp	.L16
.LVL16:
.L17:
	.loc 1 206 0
	movl	4(%esi), %eax
	.loc 1 207 0
	subl	$12, %esp
	.loc 1 211 0
	shrb	$2, %bl
.LVL17:
	movzbl	%bl, %ebx
	addl	$5, %ebx
	.loc 1 206 0
	movl	4(%eax), %edx
	.loc 1 207 0
	movzwl	26(%edi), %eax
	.loc 1 211 0
	sall	$12, %ebx
	.loc 1 206 0
	movl	%edx, 16(%esi)
	movl	%edx, -32(%ebp)
	.loc 1 207 0
	pushl	%eax
	call	lwip_htons
.LVL18:
	movl	-32(%ebp), %edx
	movw	%ax, (%edx)
	.loc 1 208 0
	movzwl	28(%edi), %eax
	movl	16(%esi), %edx
	movl	%eax, (%esp)
	movl	%edx, -32(%ebp)
	call	lwip_htons
.LVL19:
	movl	-32(%ebp), %edx
	.loc 1 209 0
	movl	16(%esi), %edi
.LVL20:
	.loc 1 208 0
	movw	%ax, 2(%edx)
	.loc 1 209 0
	popl	%eax
	pushl	8(%ebp)
	call	lwip_htonl
.LVL21:
	movl	%eax, 4(%edi)
	.loc 1 211 0
	movzbl	-28(%ebp), %eax
	movl	16(%esi), %edi
	orl	%eax, %ebx
	movswl	%bx, %ebx
	movl	%ebx, (%esp)
	call	lwip_htons
.LVL22:
	movw	%ax, 12(%edi)
	.loc 1 213 0
	movl	16(%esi), %eax
	.loc 1 214 0
	addl	$16, %esp
	.loc 1 213 0
	movw	$0, 18(%eax)
	.loc 1 214 0
	movl	%esi, %eax
.LVL23:
.L16:
	.loc 1 215 0
	leal	-12(%ebp), %esp
	popl	%ebx
	.cfi_restore 3
	popl	%esi
	.cfi_restore 6
	popl	%edi
	.cfi_restore 7
	popl	%ebp
	.cfi_restore 5
	.cfi_def_cfa 4, 4
	ret
	.cfi_endproc
.LFE19:
	.size	tcp_create_segment, .-tcp_create_segment
	.section	.text.unlikely.tcp_create_segment
.LCOLDE1:
	.section	.text.tcp_create_segment
.LHOTE1:
	.section	.text.unlikely.tcp_output_alloc_header.constprop.1,"ax",@progbits
.LCOLDB2:
	.section	.text.tcp_output_alloc_header.constprop.1,"ax",@progbits
.LHOTB2:
	.type	tcp_output_alloc_header.constprop.1, @function
tcp_output_alloc_header.constprop.1:
.LFB33:
	.loc 1 108 0
	.cfi_startproc
.LVL24:
	pushl	%ebp
	.cfi_def_cfa_offset 8
	.cfi_offset 5, -8
	.loc 1 112 0
	addl	$20, %edx
.LVL25:
	movzwl	%dx, %edx
	.loc 1 108 0
	movl	%esp, %ebp
	.cfi_def_cfa_register 5
	pushl	%edi
	pushl	%esi
	pushl	%ebx
	.cfi_offset 7, -12
	.cfi_offset 6, -16
	.cfi_offset 3, -20
	movl	%eax, %esi
	movl	%ecx, %edi
	subl	$32, %esp
	.loc 1 112 0
	pushl	$0
	pushl	%edx
	pushl	$1
	call	pbuf_alloc
.LVL26:
	.loc 1 113 0
	addl	$16, %esp
	testl	%eax, %eax
	.loc 1 112 0
	movl	%eax, %edx
.LVL27:
	.loc 1 113 0
	je	.L22
	.loc 1 116 0
	movl	4(%eax), %ebx
	movl	%eax, -28(%ebp)
.LVL28:
	.loc 1 117 0
	subl	$12, %esp
	movzwl	26(%esi), %eax
.LVL29:
	pushl	%eax
	call	lwip_htons
.LVL30:
	movw	%ax, (%ebx)
	.loc 1 118 0
	movzwl	28(%esi), %eax
	movl	%eax, (%esp)
	call	lwip_htons
.LVL31:
	.loc 1 119 0
	movl	%edi, 4(%ebx)
	.loc 1 118 0
	movw	%ax, 2(%ebx)
	.loc 1 120 0
	popl	%eax
	pushl	40(%esi)
	call	lwip_htonl
.LVL32:
	movl	%eax, 8(%ebx)
	.loc 1 121 0
	movl	$20496, (%esp)
	call	lwip_htons
.LVL33:
	movw	%ax, 12(%ebx)
	.loc 1 122 0
	movzwl	46(%esi), %eax
	movl	%eax, (%esp)
	call	lwip_htons
.LVL34:
	movw	%ax, 14(%ebx)
	.loc 1 127 0
	movzwl	46(%esi), %eax
	addl	$16, %esp
	addl	40(%esi), %eax
	movl	-28(%ebp), %edx
	.loc 1 123 0
	movw	$0, 16(%ebx)
	.loc 1 124 0
	movw	$0, 18(%ebx)
	.loc 1 127 0
	movl	%eax, 48(%esi)
.LVL35:
.L22:
	.loc 1 130 0
	leal	-12(%ebp), %esp
	movl	%edx, %eax
	popl	%ebx
	.cfi_restore 3
	popl	%esi
	.cfi_restore 6
.LVL36:
	popl	%edi
	.cfi_restore 7
.LVL37:
	popl	%ebp
	.cfi_restore 5
	.cfi_def_cfa 4, 4
	ret
	.cfi_endproc
.LFE33:
	.size	tcp_output_alloc_header.constprop.1, .-tcp_output_alloc_header.constprop.1
	.section	.text.unlikely.tcp_output_alloc_header.constprop.1
.LCOLDE2:
	.section	.text.tcp_output_alloc_header.constprop.1
.LHOTE2:
	.section	.rodata.str1.1,"aMS",@progbits,1
.LC3:
	.string	"tcp_write: arg == NULL (programmer violates API)"
	.section	.text.unlikely.tcp_write,"ax",@progbits
.LCOLDB4:
	.section	.text.tcp_write,"ax",@progbits
.LHOTB4:
	.globl	tcp_write
	.type	tcp_write, @function
tcp_write:
.LFB22:
	.loc 1 369 0
	.cfi_startproc
.LVL38:
	pushl	%ebp
	.cfi_def_cfa_offset 8
	.cfi_offset 5, -8
	movl	%esp, %ebp
	.cfi_def_cfa_register 5
	pushl	%edi
	pushl	%esi
	pushl	%ebx
	subl	$92, %esp
	.cfi_offset 7, -12
	.cfi_offset 6, -16
	.cfi_offset 3, -20
	.loc 1 369 0
	movl	8(%ebp), %eax
	.loc 1 377 0
	movw	$0, -30(%ebp)
	.loc 1 369 0
	movl	%eax, -44(%ebp)
	movl	12(%ebp), %eax
	movl	%eax, -72(%ebp)
	movl	16(%ebp), %eax
	movl	%eax, -60(%ebp)
	movl	20(%ebp), %eax
	movl	%eax, -76(%ebp)
	movl	-60(%ebp), %eax
	movw	%ax, -88(%ebp)
	movb	-76(%ebp), %al
	movb	%al, -89(%ebp)
	movl	%gs:20, %eax
	movl	%eax, -28(%ebp)
	xorl	%eax, %eax
.LVL39:
	.loc 1 387 0
	movl	-44(%ebp), %eax
	movw	54(%eax), %ax
	movw	%ax, -66(%ebp)
	movl	-44(%ebp), %eax
	movw	98(%eax), %ax
	movw	%ax, -48(%ebp)
	shrw	%ax
	cmpw	-66(%ebp), %ax
	cmova	-66(%ebp), %ax
.LVL40:
	.loc 1 388 0
	testw	%ax, %ax
	cmove	-66(%ebp), %ax
.LVL41:
	.loc 1 397 0
	cmpl	$0, -72(%ebp)
	.loc 1 388 0
	movw	%ax, -66(%ebp)
.LVL42:
	.loc 1 397 0
	jne	.L29
	.loc 1 397 0 discriminator 1
	subl	$12, %esp
	movb	$-16, %bl
	pushl	$.LC3
	call	bk_printf
.LVL43:
	addl	$16, %esp
	jmp	.L30
.LVL44:
.L29:
.LBB10:
.LBB11:
	.loc 1 310 0
	movl	-44(%ebp), %eax
.LVL45:
	movl	20(%eax), %eax
	.loc 1 312 0
	leal	-2(%eax), %edx
	cmpl	$2, %edx
	jbe	.L71
	cmpl	$7, %eax
	.loc 1 315 0
	movb	$-11, %bl
	.loc 1 312 0
	jne	.L30
.L71:
	.loc 1 316 0
	cmpw	$0, -60(%ebp)
	je	.L33
	.loc 1 321 0
	movl	-44(%ebp), %eax
	movl	-60(%ebp), %edi
	cmpw	100(%eax), %di
	jbe	.L34
.L35:
	.loc 1 324 0
	movl	-44(%ebp), %eax
	.loc 1 325 0
	movb	$-1, %bl
	.loc 1 324 0
	orw	$128, 30(%eax)
	jmp	.L30
.L34:
	.loc 1 333 0
	movl	-44(%ebp), %eax
	cmpw	$19, 102(%eax)
	jbe	.L33
	jmp	.L35
.LVL46:
.L56:
.LBE11:
.LBE10:
	.loc 1 696 0
	testl	%ebx, %ebx
	jne	.L57
	.loc 1 697 0
	movl	-44(%ebp), %ebx
.LVL47:
	movl	-56(%ebp), %edi
	movl	%edi, 108(%ebx)
.LVL48:
.L58:
	.loc 1 705 0
	movl	-44(%ebp), %ebx
	.loc 1 707 0
	movl	-68(%ebp), %ecx
	.loc 1 705 0
	movzwl	-60(%ebp), %edx
	addl	%edx, 92(%ebx)
	.loc 1 707 0
	movw	%cx, 102(%ebx)
	.loc 1 706 0
	movl	-60(%ebp), %edx
	subw	%dx, 100(%ebx)
	.loc 1 721 0
	xorl	%ebx, %ebx
	.loc 1 717 0
	testl	%eax, %eax
	jne	.L110
.LVL49:
.L30:
	.loc 1 738 0
	movb	%bl, %al
	movl	-28(%ebp), %ebx
	xorl	%gs:20, %ebx
	je	.L61
	call	__stack_chk_fail
.LVL50:
.L33:
	.loc 1 404 0
	movl	-44(%ebp), %eax
	movw	102(%eax), %ax
	movw	%ax, -68(%ebp)
.LVL51:
	.loc 1 441 0
	movl	-44(%ebp), %eax
.LVL52:
	movl	108(%eax), %ebx
	testl	%ebx, %ebx
	je	.L111
.LVL53:
.L94:
.LBB12:
	.loc 1 446 0 discriminator 1
	movl	(%ebx), %eax
	testl	%eax, %eax
	movl	%eax, -56(%ebp)
	je	.L112
	movl	-56(%ebp), %ebx
.LVL54:
	jmp	.L94
.LVL55:
.L112:
	.loc 1 450 0
	movb	12(%ebx), %al
	.loc 1 452 0
	movl	8(%ebx), %esi
	movw	-66(%ebp), %cx
	.loc 1 450 0
	andl	$1, %eax
	cmpb	$1, %al
	sbbl	%eax, %eax
	.loc 1 452 0
	subl	%esi, %ecx
	.loc 1 450 0
	notl	%eax
	andl	$4, %eax
.LVL56:
	.loc 1 452 0
	subl	%eax, %ecx
.LVL57:
	.loc 1 467 0
	movl	-44(%ebp), %eax
.LVL58:
	movl	104(%eax), %eax
	.loc 1 468 0
	testw	%ax, %ax
	jne	.L38
	.loc 1 467 0
	movw	$0, -30(%ebp)
.LBE12:
	.loc 1 371 0
	xorl	%eax, %eax
	.loc 1 372 0
	movw	$0, -52(%ebp)
	jmp	.L39
.L38:
.LVL59:
.LBB14:
	.loc 1 471 0
	cmpw	%ax, -60(%ebp)
	movl	-60(%ebp), %edx
	cmova	%eax, %edx
	cmpw	%cx, %dx
	cmova	%ecx, %edx
	.loc 1 473 0
	subl	%edx, %eax
	.loc 1 471 0
	movw	%dx, -52(%ebp)
.LVL60:
	.loc 1 474 0
	subl	%edx, %ecx
.LVL61:
	.loc 1 473 0
	movw	%ax, -30(%ebp)
	.loc 1 474 0
	movl	%ebx, %eax
.LVL62:
.L39:
	.loc 1 487 0
	movl	-60(%ebp), %edx
	cmpw	%dx, -52(%ebp)
	setb	%dl
	testw	%cx, %cx
	setne	-48(%ebp)
	testb	%dl, -48(%ebp)
	je	.L65
	testw	%si, %si
	je	.L65
.LBB13:
	.loc 1 488 0
	movzwl	-60(%ebp), %eax
.LVL63:
	movzwl	-52(%ebp), %esi
	movzwl	%cx, %ecx
	subl	%esi, %eax
	cmpl	%ecx, %eax
	cmovg	%ecx, %eax
	.loc 1 494 0
	testb	$1, -76(%ebp)
	.loc 1 488 0
	movl	%eax, -80(%ebp)
.LVL64:
	movzwl	-80(%ebp), %eax
	movl	%eax, -64(%ebp)
	.loc 1 494 0
	je	.L41
	.loc 1 496 0
	movzbl	-76(%ebp), %eax
	pushl	$1
	movl	-64(%ebp), %edx
	pushl	%eax
	leal	-30(%ebp), %eax
	pushl	-44(%ebp)
	pushl	%eax
	movl	$4, %eax
	call	tcp_pbuf_prealloc
.LVL65:
	addl	$16, %esp
	testl	%eax, %eax
	movl	%eax, -48(%ebp)
.LVL66:
	je	.L42
	.loc 1 503 0
	movw	-30(%ebp), %ax
.LVL67:
	addw	%ax, 10(%ebx)
	.loc 1 505 0
	movl	-48(%ebp), %eax
	addl	-72(%ebp), %esi
	movl	-64(%ebp), %ecx
	movl	4(%eax), %eax
	movl	%eax, %edi
	rep movsb
	jmp	.L43
.LVL68:
.L41:
	.loc 1 511 0
	pushl	%eax
	pushl	$1
	pushl	-64(%ebp)
	pushl	$4
	call	pbuf_alloc
.LVL69:
	addl	$16, %esp
	testl	%eax, %eax
	movl	%eax, -48(%ebp)
.LVL70:
	je	.L42
	.loc 1 523 0
	addl	-72(%ebp), %esi
	movl	%esi, 4(%eax)
.LVL71:
.L43:
	.loc 1 526 0
	movl	-80(%ebp), %eax
	addl	-52(%ebp), %eax
	.loc 1 527 0
	subl	$12, %esp
	pushl	-48(%ebp)
	.loc 1 526 0
	movw	%ax, -64(%ebp)
.LVL72:
	.loc 1 527 0
	call	pbuf_clen
.LVL73:
	addl	$16, %esp
	addw	%ax, -68(%ebp)
.LVL74:
	movl	%ebx, %eax
	jmp	.L40
.LVL75:
.L65:
.LBE13:
	movl	-52(%ebp), %esi
	movw	%si, -64(%ebp)
.LVL76:
.L107:
.LBE14:
	.loc 1 370 0
	movl	$0, -48(%ebp)
.LVL77:
.L40:
.LBB15:
	.loc 1 555 0
	movzwl	-66(%ebp), %ecx
	movzbl	-89(%ebp), %esi
	movl	$0, -56(%ebp)
	movl	$0, -84(%ebp)
	movl	%ecx, -96(%ebp)
	movl	%esi, -100(%ebp)
.LVL78:
.L44:
.LBE15:
	.loc 1 542 0
	movl	-88(%ebp), %ecx
	cmpw	%cx, -64(%ebp)
	jnb	.L113
.LVL79:
.LBB17:
	.loc 1 546 0
	movl	-88(%ebp), %eax
.LVL80:
	subl	-64(%ebp), %eax
	cmpw	-66(%ebp), %ax
	cmova	-66(%ebp), %ax
	.loc 1 552 0
	testb	$1, -89(%ebp)
	.loc 1 546 0
	movw	%ax, -86(%ebp)
.LVL81:
	movzwl	%ax, %eax
.LVL82:
	movl	%eax, -80(%ebp)
	.loc 1 552 0
	je	.L45
	.loc 1 555 0
	xorl	%eax, %eax
	cmpl	$0, -56(%ebp)
	movl	-80(%ebp), %edx
	movl	-96(%ebp), %ecx
.LVL83:
	sete	%al
	pushl	%eax
	leal	-30(%ebp), %eax
	pushl	-100(%ebp)
	pushl	-44(%ebp)
	pushl	%eax
	xorl	%eax, %eax
	call	tcp_pbuf_prealloc
.LVL84:
	addl	$16, %esp
	testl	%eax, %eax
	movl	%eax, %edx
.LVL85:
	je	.L46
	.loc 1 561 0
	movzwl	-64(%ebp), %esi
	movl	4(%eax), %edi
	addl	-72(%ebp), %esi
	movl	-80(%ebp), %ecx
	rep movsb
	jmp	.L47
.LVL86:
.L45:
.LBB16:
	.loc 1 572 0
	pushl	%eax
	pushl	$1
	pushl	-80(%ebp)
	pushl	$0
	call	pbuf_alloc
.LVL87:
	addl	$16, %esp
	testl	%eax, %eax
	movl	%eax, %esi
.LVL88:
	je	.L46
	.loc 1 585 0
	movzwl	-64(%ebp), %eax
.LVL89:
	addl	-72(%ebp), %eax
	movl	%eax, 4(%esi)
	.loc 1 588 0
	pushl	%eax
	pushl	$0
	pushl	$0
	pushl	$0
	call	pbuf_alloc
.LVL90:
	addl	$16, %esp
	testl	%eax, %eax
	jne	.L48
	.loc 1 591 0
	subl	$12, %esp
	pushl	%esi
	jmp	.L108
.L48:
	.loc 1 596 0
	pushl	%edi
	pushl	%edi
	pushl	%esi
	pushl	%eax
	movl	%eax, -80(%ebp)
	call	pbuf_cat
.LVL91:
	movl	-80(%ebp), %edx
	addl	$16, %esp
.LVL92:
.L47:
.LBE16:
	.loc 1 599 0
	subl	$12, %esp
	movl	%edx, -80(%ebp)
	pushl	%edx
	call	pbuf_clen
.LVL93:
	addw	%ax, -68(%ebp)
.LVL94:
	.loc 1 604 0
	addl	$16, %esp
	movl	-80(%ebp), %edx
	cmpw	$20, -68(%ebp)
	jbe	.L49
	.loc 1 607 0
	subl	$12, %esp
	pushl	%edx
.LVL95:
.L108:
	call	pbuf_free
.LVL96:
	.loc 1 608 0
	addl	$16, %esp
	jmp	.L46
.LVL97:
.L49:
	.loc 1 611 0
	movl	-44(%ebp), %edi
	movzwl	-64(%ebp), %eax
	pushl	%ecx
	pushl	%ecx
	xorl	%ecx, %ecx
	pushl	$0
	addl	92(%edi), %eax
	pushl	%eax
	movl	%edi, %eax
	call	tcp_create_segment
.LVL98:
	addl	$16, %esp
	testl	%eax, %eax
	je	.L46
	.loc 1 624 0
	cmpl	$0, -56(%ebp)
	.loc 1 615 0
	movw	-30(%ebp), %dx
	movw	%dx, 10(%eax)
	.loc 1 624 0
	je	.L66
	.loc 1 629 0
	movl	-84(%ebp), %ecx
	movl	%eax, (%ecx)
	jmp	.L50
.L66:
	movl	%eax, -56(%ebp)
.LVL99:
.L50:
	.loc 1 638 0
	movw	-86(%ebp), %si
	movl	%eax, -84(%ebp)
	addw	%si, -64(%ebp)
.LVL100:
	jmp	.L44
.LVL101:
.L113:
.LBE17:
	.loc 1 651 0
	cmpw	$0, -52(%ebp)
	je	.L52
.LBB18:
	.loc 1 657 0
	movzwl	-52(%ebp), %esi
	.loc 1 654 0
	movl	4(%ebx), %edx
.LVL102:
	.loc 1 657 0
	movl	%esi, -64(%ebp)
.LVL103:
.L53:
	.loc 1 654 0 discriminator 1
	testl	%edx, %edx
	je	.L114
	.loc 1 655 0
	movl	-52(%ebp), %edi
	addw	%di, 8(%edx)
	.loc 1 656 0
	cmpl	$0, (%edx)
	jne	.L54
	.loc 1 657 0
	movzwl	10(%edx), %ecx
	movl	-72(%ebp), %esi
	addl	4(%edx), %ecx
	movl	%ecx, %edi
	movl	-64(%ebp), %ecx
	rep movsb
	.loc 1 658 0
	movl	-52(%ebp), %esi
	addw	%si, 10(%edx)
.L54:
	.loc 1 654 0 discriminator 2
	movl	(%edx), %edx
.LVL104:
	jmp	.L53
.L114:
	.loc 1 661 0
	movl	-52(%ebp), %ecx
	addw	%cx, 8(%ebx)
	.loc 1 665 0
	subw	%cx, 10(%ebx)
.LVL105:
.L52:
.LBE18:
	.loc 1 674 0
	cmpl	$0, -48(%ebp)
	.loc 1 668 0
	movw	-30(%ebp), %dx
	movl	-44(%ebp), %esi
	movw	%dx, 104(%esi)
	.loc 1 674 0
	je	.L56
	movl	%eax, -52(%ebp)
.LVL106:
.LVL107:
	.loc 1 677 0
	pushl	%eax
	pushl	%eax
	pushl	-48(%ebp)
	pushl	4(%ebx)
	call	pbuf_cat
.LVL108:
	.loc 1 678 0
	movl	-48(%ebp), %eax
	addl	$16, %esp
	movl	8(%eax), %edx
	addw	%dx, 8(%ebx)
	movl	-52(%ebp), %eax
.LVL109:
.L57:
	.loc 1 699 0
	movl	-56(%ebp), %esi
	movl	%esi, (%ebx)
	jmp	.L58
.LVL110:
.L110:
	.loc 1 717 0 discriminator 1
	movl	16(%eax), %esi
	testl	%esi, %esi
	je	.L30
	.loc 1 717 0 discriminator 2
	testb	$2, -76(%ebp)
	jne	.L30
	.loc 1 718 0
	movw	12(%esi), %di
	subl	$12, %esp
	pushl	$8
	call	lwip_htons
.LVL111:
	orl	%edi, %eax
	movw	%ax, 12(%esi)
	jmp	.L109
.LVL112:
.L42:
.LBB19:
	.loc 1 638 0
	movl	$0, -48(%ebp)
.LVL113:
.L46:
.LBE19:
	.loc 1 723 0
	movl	-44(%ebp), %eax
	orw	$128, 30(%eax)
	.loc 1 726 0
	cmpl	$0, -48(%ebp)
	je	.L59
	.loc 1 727 0
	subl	$12, %esp
	pushl	-48(%ebp)
	call	pbuf_free
.LVL114:
	addl	$16, %esp
.L59:
	.loc 1 729 0
	cmpl	$0, -56(%ebp)
	.loc 1 737 0
	movb	$-1, %bl
.LVL115:
	.loc 1 729 0
	je	.L30
	.loc 1 730 0
	subl	$12, %esp
	pushl	-56(%ebp)
	call	tcp_segs_free
.LVL116:
.L109:
	addl	$16, %esp
	jmp	.L30
.LVL117:
.L111:
	.loc 1 371 0
	xorl	%eax, %eax
	.loc 1 378 0
	movw	$0, -52(%ebp)
	.loc 1 372 0
	movw	$0, -64(%ebp)
	jmp	.L107
.LVL118:
.L61:
	.loc 1 738 0
	leal	-12(%ebp), %esp
	popl	%ebx
	.cfi_restore 3
	popl	%esi
	.cfi_restore 6
	popl	%edi
	.cfi_restore 7
	popl	%ebp
	.cfi_restore 5
	.cfi_def_cfa 4, 4
	ret
	.cfi_endproc
.LFE22:
	.size	tcp_write, .-tcp_write
	.section	.text.unlikely.tcp_write
.LCOLDE4:
	.section	.text.tcp_write
.LHOTE4:
	.section	.text.unlikely.tcp_enqueue_flags,"ax",@progbits
.LCOLDB5:
	.section	.text.tcp_enqueue_flags,"ax",@progbits
.LHOTB5:
	.globl	tcp_enqueue_flags
	.type	tcp_enqueue_flags, @function
tcp_enqueue_flags:
.LFB23:
	.loc 1 750 0
	.cfi_startproc
.LVL119:
	pushl	%ebp
	.cfi_def_cfa_offset 8
	.cfi_offset 5, -8
	movl	%esp, %ebp
	.cfi_def_cfa_register 5
	pushl	%edi
	pushl	%esi
	pushl	%ebx
	subl	$12, %esp
	.cfi_offset 7, -12
	.cfi_offset 6, -16
	.cfi_offset 3, -20
	.loc 1 750 0
	movl	8(%ebp), %esi
	movl	12(%ebp), %edi
	.loc 1 762 0
	cmpw	$19, 102(%esi)
	jbe	.L116
	.loc 1 762 0 is_stmt 0 discriminator 1
	testl	$1, %edi
	je	.L137
.L116:
	.loc 1 771 0 is_stmt 1
	movl	%edi, %eax
	.loc 1 791 0
	pushl	%ecx
	pushl	$0
	.loc 1 771 0
	andb	$2, %al
	setne	%bl
.LVL120:
	.loc 1 788 0
	cmpb	$1, %al
	sbbl	%eax, %eax
	notl	%eax
	andl	$4, %eax
.LVL121:
	.loc 1 791 0
	movzbl	%al, %eax
	pushl	%eax
	pushl	$0
	call	pbuf_alloc
.LVL122:
	addl	$16, %esp
	testl	%eax, %eax
	je	.L137
	.loc 1 800 0
	movl	%edi, %edx
	movzbl	%bl, %ebx
	movzbl	%dl, %ecx
	pushl	%edx
	pushl	%edx
	pushl	%ebx
	pushl	92(%esi)
	movl	%eax, %edx
	movl	%esi, %eax
.LVL123:
	call	tcp_create_segment
.LVL124:
	addl	$16, %esp
	testl	%eax, %eax
	jne	.L120
.LVL125:
.L137:
	.loc 1 801 0
	orw	$128, 30(%esi)
	.loc 1 803 0
	movb	$-1, %al
	jmp	.L117
.LVL126:
.L120:
	.loc 1 815 0
	movl	108(%esi), %edx
	testl	%edx, %edx
	jne	.L132
	.loc 1 816 0
	movl	%eax, 108(%esi)
	jmp	.L122
.L132:
.LVL127:
.LBB20:
	.loc 1 819 0 discriminator 1
	movl	(%edx), %ecx
	testl	%ecx, %ecx
	je	.L138
	movl	%ecx, %edx
.LVL128:
	jmp	.L132
.LVL129:
.L138:
	.loc 1 820 0
	movl	%eax, (%edx)
.LVL130:
.L122:
.LBE20:
	.loc 1 828 0
	testl	$3, %edi
	.loc 1 824 0
	movw	$0, 104(%esi)
	.loc 1 828 0
	je	.L124
	.loc 1 829 0
	incl	92(%esi)
.L124:
	.loc 1 832 0
	andl	$1, %edi
.LVL131:
	je	.L125
	.loc 1 833 0
	orw	$32, 30(%esi)
.L125:
	.loc 1 837 0
	subl	$12, %esp
	pushl	4(%eax)
	call	pbuf_clen
.LVL132:
	.loc 1 844 0
	addl	$16, %esp
	.loc 1 837 0
	addw	%ax, 102(%esi)
	.loc 1 844 0
	xorl	%eax, %eax
.LVL133:
.L117:
	.loc 1 845 0
	leal	-12(%ebp), %esp
	popl	%ebx
	.cfi_restore 3
	popl	%esi
	.cfi_restore 6
	popl	%edi
	.cfi_restore 7
	popl	%ebp
	.cfi_restore 5
	.cfi_def_cfa 4, 4
	ret
	.cfi_endproc
.LFE23:
	.size	tcp_enqueue_flags, .-tcp_enqueue_flags
	.section	.text.unlikely.tcp_enqueue_flags
.LCOLDE5:
	.section	.text.tcp_enqueue_flags
.LHOTE5:
	.section	.text.unlikely.tcp_send_fin,"ax",@progbits
.LCOLDB6:
	.section	.text.tcp_send_fin,"ax",@progbits
.LHOTB6:
	.globl	tcp_send_fin
	.type	tcp_send_fin, @function
tcp_send_fin:
.LFB18:
	.loc 1 140 0
	.cfi_startproc
.LVL134:
	pushl	%ebp
	.cfi_def_cfa_offset 8
	.cfi_offset 5, -8
	movl	%esp, %ebp
	.cfi_def_cfa_register 5
	pushl	%edi
	pushl	%esi
	pushl	%ebx
	subl	$12, %esp
	.cfi_offset 7, -12
	.cfi_offset 6, -16
	.cfi_offset 3, -20
	.loc 1 140 0
	movl	8(%ebp), %esi
	.loc 1 142 0
	movl	108(%esi), %ebx
	testl	%ebx, %ebx
	je	.L140
.L141:
.LVL135:
.LBB21:
	.loc 1 144 0 discriminator 1
	movl	(%ebx), %eax
	testl	%eax, %eax
	je	.L148
	movl	%eax, %ebx
.LVL136:
	jmp	.L141
.LVL137:
.L148:
	.loc 1 147 0
	movl	16(%ebx), %eax
	subl	$12, %esp
	movzwl	12(%eax), %eax
	pushl	%eax
	call	lwip_htons
.LVL138:
	addl	$16, %esp
	testb	$7, %al
	jne	.L140
	.loc 1 149 0
	movl	16(%ebx), %edi
	subl	$12, %esp
	movw	12(%edi), %bx
.LVL139:
	pushl	$1
	call	lwip_htons
.LVL140:
	orl	%ebx, %eax
	.loc 1 151 0
	addl	$16, %esp
	.loc 1 149 0
	movw	%ax, 12(%edi)
	.loc 1 150 0
	orw	$32, 30(%esi)
	.loc 1 151 0
	xorl	%eax, %eax
	jmp	.L142
.L140:
.LBE21:
	.loc 1 155 0
	pushl	%eax
	pushl	%eax
	pushl	$1
	pushl	%esi
	call	tcp_enqueue_flags
.LVL141:
	addl	$16, %esp
.L142:
	.loc 1 156 0
	leal	-12(%ebp), %esp
	popl	%ebx
	.cfi_restore 3
	popl	%esi
	.cfi_restore 6
	popl	%edi
	.cfi_restore 7
	popl	%ebp
	.cfi_restore 5
	.cfi_def_cfa 4, 4
	ret
	.cfi_endproc
.LFE18:
	.size	tcp_send_fin, .-tcp_send_fin
	.section	.text.unlikely.tcp_send_fin
.LCOLDE6:
	.section	.text.tcp_send_fin
.LHOTE6:
	.section	.text.unlikely.tcp_send_empty_ack,"ax",@progbits
.LCOLDB7:
	.section	.text.tcp_send_empty_ack,"ax",@progbits
.LHOTB7:
	.globl	tcp_send_empty_ack
	.type	tcp_send_empty_ack, @function
tcp_send_empty_ack:
.LFB24:
	.loc 1 883 0
	.cfi_startproc
.LVL142:
	pushl	%ebp
	.cfi_def_cfa_offset 8
	.cfi_offset 5, -8
	movl	%esp, %ebp
	.cfi_def_cfa_register 5
	pushl	%edi
	pushl	%esi
	pushl	%ebx
	subl	$40, %esp
	.cfi_offset 7, -12
	.cfi_offset 6, -16
	.cfi_offset 3, -20
	.loc 1 883 0
	movl	8(%ebp), %ebx
	.loc 1 898 0
	pushl	80(%ebx)
	call	lwip_htonl
.LVL143:
	xorl	%edx, %edx
	movl	%eax, %ecx
	movl	%ebx, %eax
	call	tcp_output_alloc_header.constprop.1
.LVL144:
	.loc 1 899 0
	addl	$16, %esp
	testl	%eax, %eax
	jne	.L150
	.loc 1 901 0
	orw	$3, 30(%ebx)
	.loc 1 903 0
	movb	$-2, %al
.LVL145:
	jmp	.L151
.LVL146:
.L150:
	.loc 1 920 0
	leal	4(%ebx), %esi
	subl	$12, %esp
	movl	%eax, %edi
	.loc 1 906 0
	movl	4(%eax), %eax
.LVL147:
	.loc 1 920 0
	pushl	%esi
	.loc 1 906 0
	movl	%eax, -28(%ebp)
.LVL148:
	.loc 1 920 0
	call	ip4_route
.LVL149:
	.loc 1 921 0
	addl	$16, %esp
	testl	%eax, %eax
	.loc 1 922 0
	movb	$-4, %dl
	.loc 1 921 0
	movl	%eax, -32(%ebp)
	je	.L152
	.loc 1 926 0
	movzwl	8(%edi), %eax
.LVL150:
	subl	$12, %esp
	pushl	%esi
	pushl	%ebx
	pushl	%eax
	pushl	$6
	pushl	%edi
	call	ip_chksum_pseudo
.LVL151:
	movl	-28(%ebp), %ecx
	.loc 1 931 0
	addl	$28, %esp
	.loc 1 926 0
	movw	%ax, 16(%ecx)
	.loc 1 931 0
	movl	-32(%ebp), %ecx
	pushl	%ecx
	pushl	$6
	movzbl	9(%ebx), %eax
	pushl	%eax
	movzbl	10(%ebx), %eax
	pushl	%eax
	pushl	%esi
	pushl	%ebx
	pushl	%edi
	call	ip4_output_if
.LVL152:
	addl	$32, %esp
	movb	%al, %dl
.LVL153:
.L152:
	.loc 1 935 0
	subl	$12, %esp
	movb	%dl, -28(%ebp)
.LVL154:
	pushl	%edi
	call	pbuf_free
.LVL155:
	.loc 1 937 0
	movb	-28(%ebp), %dl
	addl	$16, %esp
	testb	%dl, %dl
	je	.L153
.LVL156:
	.loc 1 939 0
	orw	$3, 30(%ebx)
	movb	%dl, %al
	jmp	.L151
.LVL157:
.L153:
	.loc 1 942 0
	andw	$-4, 30(%ebx)
	xorl	%eax, %eax
.LVL158:
.L151:
	.loc 1 946 0
	leal	-12(%ebp), %esp
	popl	%ebx
	.cfi_restore 3
	popl	%esi
	.cfi_restore 6
	popl	%edi
	.cfi_restore 7
	popl	%ebp
	.cfi_restore 5
	.cfi_def_cfa 4, 4
	ret
	.cfi_endproc
.LFE24:
	.size	tcp_send_empty_ack, .-tcp_send_empty_ack
	.section	.text.unlikely.tcp_send_empty_ack
.LCOLDE7:
	.section	.text.tcp_send_empty_ack
.LHOTE7:
	.section	.text.unlikely.tcp_output,"ax",@progbits
.LCOLDB8:
	.section	.text.tcp_output,"ax",@progbits
.LHOTB8:
	.globl	tcp_output
	.type	tcp_output, @function
tcp_output:
.LFB25:
	.loc 1 958 0
	.cfi_startproc
.LVL159:
	pushl	%ebp
	.cfi_def_cfa_offset 8
	.cfi_offset 5, -8
	movl	%esp, %ebp
	.cfi_def_cfa_register 5
	pushl	%edi
	pushl	%esi
	pushl	%ebx
	subl	$44, %esp
	.cfi_offset 7, -12
	.cfi_offset 6, -16
	.cfi_offset 3, -20
	.loc 1 958 0
	movl	8(%ebp), %ebx
	.loc 1 975 0
	cmpl	%ebx, tcp_input_pcb
	je	.L188
	.loc 1 979 0
	movl	96(%ebx), %eax
	cmpw	%ax, 76(%ebx)
	cmovbe	76(%ebx), %ax
	.loc 1 989 0
	testb	$2, 30(%ebx)
	.loc 1 981 0
	movl	108(%ebx), %edi
	.loc 1 979 0
	movzwl	%ax, %eax
	movl	%eax, -40(%ebp)
.LVL160:
	.loc 1 989 0
	je	.L158
	.loc 1 989 0 is_stmt 0 discriminator 1
	testl	%edi, %edi
	jne	.L159
.LVL161:
.L160:
	.loc 1 992 0 is_stmt 1
	movl	%ebx, 8(%ebp)
	.loc 1 1124 0
	leal	-12(%ebp), %esp
	popl	%ebx
	.cfi_remember_state
	.cfi_restore 3
	popl	%esi
	.cfi_restore 6
	popl	%edi
	.cfi_restore 7
.LVL162:
	popl	%ebp
	.cfi_restore 5
	.cfi_def_cfa 4, 4
	.loc 1 992 0
	jmp	tcp_send_empty_ack
.LVL163:
.L159:
	.cfi_restore_state
	.loc 1 991 0
	movl	16(%edi), %eax
.LVL164:
	subl	$12, %esp
	pushl	4(%eax)
	call	lwip_htonl
.LVL165:
	.loc 1 990 0
	movzwl	8(%edi), %edx
	addl	$16, %esp
	subl	72(%ebx), %edx
	addl	%edx, %eax
	cmpl	%eax, -40(%ebp)
	jb	.L160
.L158:
	.loc 1 996 0
	movl	112(%ebx), %eax
	.loc 1 997 0
	testl	%eax, %eax
	.loc 1 996 0
	movl	%eax, -28(%ebp)
.LVL166:
	.loc 1 997 0
	je	.L161
.LVL167:
.L162:
	.loc 1 998 0 discriminator 1
	movl	-28(%ebp), %eax
	movl	(%eax), %eax
	testl	%eax, %eax
	je	.L161
	movl	%eax, -28(%ebp)
.LVL168:
	jmp	.L162
.LVL169:
.L161:
	.loc 1 1001 0
	leal	4(%ebx), %eax
	subl	$12, %esp
	pushl	%eax
	movl	%eax, -32(%ebp)
	call	ip4_route
.LVL170:
	.loc 1 1002 0
	addl	$16, %esp
	.loc 1 1001 0
	movl	%eax, -36(%ebp)
.LVL171:
	.loc 1 1002 0
	cmpl	$0, -36(%ebp)
	.loc 1 1003 0
	movb	$-4, %al
.LVL172:
	.loc 1 1002 0
	je	.L209
	.loc 1 1007 0
	cmpl	$0, (%ebx)
	jne	.L164
.LVL173:
.LBB27:
	.loc 1 1012 0 discriminator 1
	movl	-36(%ebp), %eax
	movl	4(%eax), %eax
	movl	%eax, (%ebx)
	jmp	.L164
.LVL174:
.L183:
.LBE27:
	.loc 1 1038 0 discriminator 1
	movl	16(%edi), %eax
	subl	$12, %esp
	pushl	4(%eax)
	call	lwip_htonl
.LVL175:
	.loc 1 1037 0 discriminator 1
	movzwl	8(%edi), %esi
	addl	$16, %esp
	subl	72(%ebx), %esi
	addl	%esi, %eax
	cmpl	%eax, -40(%ebp)
	jb	.L187
	.loc 1 1048 0
	cmpl	$0, 112(%ebx)
	jne	.L212
.L165:
	.loc 1 1061 0
	cmpl	$2, 20(%ebx)
	je	.L168
	.loc 1 1062 0
	movl	16(%edi), %edx
	subl	$12, %esp
	movw	12(%edx), %si
	pushl	$16
	movl	%edx, -44(%ebp)
	call	lwip_htons
.LVL176:
	movl	-44(%ebp), %edx
	orl	%eax, %esi
	addl	$16, %esp
	movw	%si, 12(%edx)
.L168:
.LBB28:
.LBB29:
	.loc 1 1140 0
	movl	4(%edi), %eax
.LBE29:
.LBE28:
	.loc 1 1066 0
	movw	$0, 10(%edi)
.LVL177:
.LBB33:
.LBB31:
	.loc 1 1140 0
	cmpw	$1, 14(%eax)
	je	.L213
.LVL178:
.L169:
.LBE31:
.LBE33:
	.loc 1 1075 0
	cmpl	$2, 20(%ebx)
	.loc 1 1074 0
	movl	(%edi), %eax
	movl	%eax, 108(%ebx)
	.loc 1 1075 0
	je	.L173
	.loc 1 1076 0
	andw	$-4, 30(%ebx)
.L173:
	.loc 1 1078 0
	movl	16(%edi), %eax
	subl	$12, %esp
	pushl	4(%eax)
	call	lwip_htonl
.LVL179:
	movl	%eax, -44(%ebp)
	movl	16(%edi), %eax
	movzwl	8(%edi), %esi
	movzwl	12(%eax), %eax
	movl	%eax, (%esp)
	call	lwip_htons
.LVL180:
	addl	$16, %esp
	testb	$3, %al
	setne	%al
	addl	-44(%ebp), %esi
	movzbl	%al, %eax
	addl	%eax, %esi
.LVL181:
	.loc 1 1079 0
	cmpl	%esi, 80(%ebx)
	jns	.L174
	.loc 1 1080 0
	movl	%esi, 80(%ebx)
.L174:
	.loc 1 1083 0
	movl	16(%edi), %eax
	subl	$12, %esp
	movzwl	8(%edi), %esi
.LVL182:
	movzwl	12(%eax), %eax
	pushl	%eax
	call	lwip_htons
.LVL183:
	addl	$16, %esp
	testb	$3, %al
	setne	%al
	movzbl	%al, %eax
	addl	%esi, %eax
	je	.L175
	.loc 1 1086 0
	cmpl	$0, 112(%ebx)
	.loc 1 1084 0
	movl	$0, (%edi)
	.loc 1 1086 0
	jne	.L176
	.loc 1 1087 0
	movl	%edi, 112(%ebx)
.LVL184:
.L177:
	.loc 1 1113 0
	movl	%edi, -28(%ebp)
	movl	108(%ebx), %edi
.LVL185:
.L164:
	.loc 1 1037 0
	testl	%edi, %edi
	jne	.L183
.L187:
	.loc 1 1116 0
	cmpl	$0, 108(%ebx)
	jne	.L185
	.loc 1 1118 0
	movw	$0, 104(%ebx)
	jmp	.L185
.L212:
	.loc 1 1048 0 discriminator 2
	movw	30(%ebx), %si
	testw	$68, %si
	jne	.L165
	.loc 1 1048 0 is_stmt 0 discriminator 4
	movl	108(%ebx), %eax
	testl	%eax, %eax
	je	.L166
	.loc 1 1048 0 is_stmt 1 discriminator 5
	cmpl	$0, (%eax)
	jne	.L165
	.loc 1 1048 0 discriminator 8
	movw	54(%ebx), %cx
	cmpw	%cx, 8(%eax)
	jnb	.L165
.L166:
	.loc 1 1048 0 is_stmt 0 discriminator 10
	cmpw	$0, 100(%ebx)
	je	.L165
	.loc 1 1048 0 discriminator 12
	cmpw	$19, 102(%ebx)
	jbe	.L167
	jmp	.L165
.LVL186:
.L213:
.LBB34:
.LBB32:
	.loc 1 1149 0 is_stmt 1
	movl	16(%edi), %esi
	subl	$12, %esp
	pushl	40(%ebx)
	call	lwip_htonl
.LVL187:
	movl	%eax, 8(%esi)
	.loc 1 1160 0
	movzwl	46(%ebx), %eax
	movl	16(%edi), %esi
	movl	%eax, (%esp)
	call	lwip_htons
.LVL188:
	movw	%ax, 14(%esi)
	.loc 1 1163 0
	movzwl	46(%ebx), %eax
	.loc 1 1169 0
	addl	$16, %esp
	.loc 1 1163 0
	addl	40(%ebx), %eax
	movl	%eax, 48(%ebx)
.LVL189:
	.loc 1 1169 0
	testb	$1, 12(%edi)
	je	.L170
	.loc 1 1168 0
	movl	16(%edi), %esi
.LBB30:
	.loc 1 1172 0
	pushl	%ecx
.LVL190:
	pushl	%ecx
	pushl	-32(%ebp)
	pushl	$1460
	call	tcp_eff_send_mss_impl
.LVL191:
	.loc 1 1176 0
	movzwl	%ax, %eax
	orl	$33816576, %eax
.LVL192:
	movl	%eax, (%esp)
	call	lwip_htonl
.LVL193:
	addl	$16, %esp
	movl	%eax, 20(%esi)
.LVL194:
.L170:
.LBE30:
	.loc 1 1196 0
	cmpw	$0, 52(%ebx)
	jns	.L171
	.loc 1 1197 0
	movw	$0, 52(%ebx)
.L171:
	.loc 1 1200 0
	cmpl	$0, 56(%ebx)
	jne	.L172
	.loc 1 1201 0
	movl	tcp_ticks, %eax
	.loc 1 1202 0
	subl	$12, %esp
	.loc 1 1201 0
	movl	%eax, 56(%ebx)
	.loc 1 1202 0
	movl	16(%edi), %eax
	pushl	4(%eax)
	call	lwip_htonl
.LVL195:
	addl	$16, %esp
	movl	%eax, 60(%ebx)
.L172:
	.loc 1 1210 0
	movl	16(%edi), %esi
	movl	4(%edi), %eax
	.loc 1 1254 0
	subl	$12, %esp
	.loc 1 1210 0
	movl	%esi, %edx
	subl	4(%eax), %edx
.LVL196:
	.loc 1 1217 0
	movl	8(%eax), %ecx
	.loc 1 1216 0
	subw	%dx, 10(%eax)
	.loc 1 1219 0
	movl	%esi, 4(%eax)
	.loc 1 1217 0
	subl	%edx, %ecx
	movzwl	%cx, %edx
.LVL197:
	movw	%dx, 8(%eax)
	.loc 1 1221 0
	movw	$0, 16(%esi)
	.loc 1 1254 0
	pushl	-32(%ebp)
	pushl	%ebx
	pushl	%edx
	pushl	$6
	pushl	%eax
	call	ip_chksum_pseudo
.LVL198:
	.loc 1 1262 0
	addl	$28, %esp
	.loc 1 1254 0
	movw	%ax, 16(%esi)
	.loc 1 1262 0
	pushl	-36(%ebp)
	pushl	$6
	movzbl	9(%ebx), %eax
	pushl	%eax
	movzbl	10(%ebx), %eax
	pushl	%eax
	pushl	-32(%ebp)
	pushl	%ebx
	pushl	4(%edi)
	call	ip4_output_if
.LVL199:
.LBE32:
.LBE34:
	.loc 1 1069 0
	addl	$32, %esp
	testb	%al, %al
	je	.L169
	.loc 1 1071 0
	orw	$128, 30(%ebx)
	.loc 1 1072 0
	jmp	.L209
.L176:
	.loc 1 1094 0
	movl	16(%edi), %eax
	subl	$12, %esp
	pushl	4(%eax)
	call	lwip_htonl
.LVL200:
	movl	%eax, %esi
	movl	-28(%ebp), %eax
	popl	%edx
	movl	16(%eax), %eax
	pushl	4(%eax)
	call	lwip_htonl
.LVL201:
	addl	$16, %esp
	cmpl	%eax, %esi
	jns	.L178
.LBB35:
	.loc 1 1096 0
	leal	112(%ebx), %esi
.LVL202:
.L179:
	.loc 1 1097 0
	movl	(%esi), %eax
	testl	%eax, %eax
	jne	.L180
.L182:
	.loc 1 1101 0
	movl	(%esi), %eax
	movl	%eax, (%edi)
	.loc 1 1102 0
	movl	%edi, (%esi)
	jmp	.L211
.L180:
	.loc 1 1098 0 discriminator 1
	movl	16(%eax), %eax
	subl	$12, %esp
	pushl	4(%eax)
	call	lwip_htonl
.LVL203:
	movl	%eax, -44(%ebp)
	popl	%eax
	movl	16(%edi), %eax
	pushl	4(%eax)
	call	lwip_htonl
.LVL204:
	.loc 1 1097 0 discriminator 1
	addl	$16, %esp
	cmpl	%eax, -44(%ebp)
	jns	.L182
	.loc 1 1099 0
	movl	(%esi), %esi
.LVL205:
	jmp	.L179
.LVL206:
.L178:
.LBE35:
	.loc 1 1105 0
	movl	-28(%ebp), %eax
	movl	%edi, (%eax)
.LVL207:
	jmp	.L177
.LVL208:
.L175:
	.loc 1 1111 0
	subl	$12, %esp
	pushl	%edi
	call	tcp_seg_free
.LVL209:
	addl	$16, %esp
.L211:
	movl	-28(%ebp), %edi
.LVL210:
	jmp	.L177
.LVL211:
.L185:
	.loc 1 1122 0
	andw	$-129, 30(%ebx)
.LVL212:
.L188:
	.loc 1 976 0
	xorl	%eax, %eax
	jmp	.L209
.LVL213:
.L167:
	.loc 1 1048 0
	testw	$160, %si
	jne	.L165
	jmp	.L187
.LVL214:
.L209:
	.loc 1 1124 0
	leal	-12(%ebp), %esp
	popl	%ebx
	.cfi_restore 3
	popl	%esi
	.cfi_restore 6
	popl	%edi
	.cfi_restore 7
	popl	%ebp
	.cfi_restore 5
	.cfi_def_cfa 4, 4
	ret
	.cfi_endproc
.LFE25:
	.size	tcp_output, .-tcp_output
	.section	.text.unlikely.tcp_output
.LCOLDE8:
	.section	.text.tcp_output
.LHOTE8:
	.section	.text.unlikely.tcp_rst,"ax",@progbits
.LCOLDB9:
	.section	.text.tcp_rst,"ax",@progbits
.LHOTB9:
	.globl	tcp_rst
	.type	tcp_rst, @function
tcp_rst:
.LFB27:
	.loc 1 1292 0
	.cfi_startproc
.LVL215:
	pushl	%ebp
	.cfi_def_cfa_offset 8
	.cfi_offset 5, -8
	movl	%esp, %ebp
	.cfi_def_cfa_register 5
	pushl	%edi
	pushl	%esi
	pushl	%ebx
	subl	$48, %esp
	.cfi_offset 7, -12
	.cfi_offset 6, -16
	.cfi_offset 3, -20
	.loc 1 1292 0
	movl	8(%ebp), %eax
	movl	24(%ebp), %edi
	.loc 1 1296 0
	pushl	$0
	pushl	$20
	pushl	$1
	.loc 1 1292 0
	movl	%eax, -36(%ebp)
	movl	12(%ebp), %eax
	movl	%eax, -40(%ebp)
	movl	16(%ebp), %eax
	movl	%eax, -32(%ebp)
	movl	20(%ebp), %eax
	movl	%eax, -28(%ebp)
	movl	28(%ebp), %eax
	movl	%eax, -44(%ebp)
	.loc 1 1296 0
	call	pbuf_alloc
.LVL216:
	.loc 1 1297 0
	addl	$16, %esp
	testl	%eax, %eax
	je	.L214
	.loc 1 1305 0
	subl	$12, %esp
	.loc 1 1304 0
	movl	4(%eax), %ebx
.LVL217:
	.loc 1 1305 0
	movzwl	%di, %edi
	pushl	%edi
	movl	%eax, %esi
	call	lwip_htons
.LVL218:
	movw	%ax, (%ebx)
	.loc 1 1306 0
	movzwl	-44(%ebp), %eax
	movl	%eax, (%esp)
	call	lwip_htons
.LVL219:
	movw	%ax, 2(%ebx)
	.loc 1 1307 0
	popl	%eax
	pushl	-36(%ebp)
	call	lwip_htonl
.LVL220:
	movl	%eax, 4(%ebx)
	.loc 1 1308 0
	popl	%edx
	pushl	-40(%ebp)
	call	lwip_htonl
.LVL221:
	movl	%eax, 8(%ebx)
	.loc 1 1309 0
	movl	$20500, (%esp)
	call	lwip_htons
.LVL222:
	.loc 1 1313 0
	movw	$7185, 14(%ebx)
	.loc 1 1309 0
	movw	%ax, 12(%ebx)
	.loc 1 1315 0
	movw	$0, 16(%ebx)
	.loc 1 1316 0
	movw	$0, 18(%ebx)
	.loc 1 1321 0
	popl	%ecx
	pushl	-28(%ebp)
	call	ip4_route
.LVL223:
	.loc 1 1322 0
	addl	$16, %esp
	testl	%eax, %eax
	.loc 1 1321 0
	movl	%eax, %edi
.LVL224:
	.loc 1 1322 0
	je	.L216
	.loc 1 1325 0
	subl	$12, %esp
	pushl	-28(%ebp)
	pushl	-32(%ebp)
	movzwl	8(%esi), %eax
.LVL225:
	pushl	%eax
	pushl	$6
	pushl	%esi
	call	ip_chksum_pseudo
.LVL226:
	.loc 1 1330 0
	addl	$28, %esp
	.loc 1 1325 0
	movw	%ax, 16(%ebx)
	.loc 1 1330 0
	pushl	%edi
	pushl	$6
	pushl	$0
	pushl	$255
	pushl	-28(%ebp)
	pushl	-32(%ebp)
	pushl	%esi
	call	ip4_output_if
.LVL227:
	addl	$32, %esp
.L216:
	.loc 1 1332 0
	movl	%esi, 8(%ebp)
	.loc 1 1334 0
	leal	-12(%ebp), %esp
	popl	%ebx
	.cfi_remember_state
	.cfi_restore 3
.LVL228:
	popl	%esi
	.cfi_restore 6
.LVL229:
	popl	%edi
	.cfi_restore 7
.LVL230:
	popl	%ebp
	.cfi_restore 5
	.cfi_def_cfa 4, 4
	.loc 1 1332 0
	jmp	pbuf_free
.LVL231:
.L214:
	.cfi_restore_state
	.loc 1 1334 0
	leal	-12(%ebp), %esp
	popl	%ebx
	.cfi_restore 3
	popl	%esi
	.cfi_restore 6
	popl	%edi
	.cfi_restore 7
	popl	%ebp
	.cfi_restore 5
	.cfi_def_cfa 4, 4
	ret
	.cfi_endproc
.LFE27:
	.size	tcp_rst, .-tcp_rst
	.section	.text.unlikely.tcp_rst
.LCOLDE9:
	.section	.text.tcp_rst
.LHOTE9:
	.section	.text.unlikely.tcp_rexmit_rto,"ax",@progbits
.LCOLDB10:
	.section	.text.tcp_rexmit_rto,"ax",@progbits
.LHOTB10:
	.globl	tcp_rexmit_rto
	.type	tcp_rexmit_rto, @function
tcp_rexmit_rto:
.LFB28:
	.loc 1 1345 0
	.cfi_startproc
.LVL232:
	pushl	%ebp
	.cfi_def_cfa_offset 8
	.cfi_offset 5, -8
	movl	%esp, %ebp
	.cfi_def_cfa_register 5
	pushl	%ebx
	.cfi_offset 3, -12
	.loc 1 1345 0
	movl	8(%ebp), %eax
	.loc 1 1348 0
	movl	112(%eax), %ecx
	testl	%ecx, %ecx
	movl	%ecx, %edx
	je	.L227
.L223:
.LVL233:
	.loc 1 1353 0 discriminator 1
	movl	(%edx), %ebx
	testl	%ebx, %ebx
	je	.L228
	movl	%ebx, %edx
.LVL234:
	jmp	.L223
.LVL235:
.L228:
	.loc 1 1355 0
	movl	108(%eax), %ebx
	.loc 1 1358 0
	testl	%ebx, %ebx
	.loc 1 1355 0
	movl	%ebx, (%edx)
	.loc 1 1358 0
	jne	.L224
	.loc 1 1359 0
	movw	10(%edx), %dx
.LVL236:
	movw	%dx, 104(%eax)
.L224:
	.loc 1 1368 0
	incb	70(%eax)
	.loc 1 1363 0
	movl	%ecx, 108(%eax)
	.loc 1 1365 0
	movl	$0, 112(%eax)
	.loc 1 1371 0
	movl	$0, 56(%eax)
	.loc 1 1374 0
	movl	%eax, 8(%ebp)
.LVL237:
	.loc 1 1375 0
	popl	%ebx
	.cfi_remember_state
	.cfi_restore 3
	popl	%ebp
	.cfi_restore 5
	.cfi_def_cfa 4, 4
	.loc 1 1374 0
	jmp	tcp_output
.LVL238:
.L227:
	.cfi_restore_state
	.loc 1 1375 0
	popl	%ebx
	.cfi_restore 3
	popl	%ebp
	.cfi_restore 5
	.cfi_def_cfa 4, 4
	ret
	.cfi_endproc
.LFE28:
	.size	tcp_rexmit_rto, .-tcp_rexmit_rto
	.section	.text.unlikely.tcp_rexmit_rto
.LCOLDE10:
	.section	.text.tcp_rexmit_rto
.LHOTE10:
	.section	.text.unlikely.tcp_rexmit,"ax",@progbits
.LCOLDB11:
	.section	.text.tcp_rexmit,"ax",@progbits
.LHOTB11:
	.globl	tcp_rexmit
	.type	tcp_rexmit, @function
tcp_rexmit:
.LFB29:
	.loc 1 1386 0
	.cfi_startproc
.LVL239:
	pushl	%ebp
	.cfi_def_cfa_offset 8
	.cfi_offset 5, -8
	movl	%esp, %ebp
	.cfi_def_cfa_register 5
	pushl	%edi
	pushl	%esi
	pushl	%ebx
	subl	$28, %esp
	.cfi_offset 7, -12
	.cfi_offset 6, -16
	.cfi_offset 3, -20
	.loc 1 1386 0
	movl	8(%ebp), %ebx
	.loc 1 1390 0
	movl	112(%ebx), %esi
	testl	%esi, %esi
	je	.L229
.LVL240:
	.loc 1 1397 0
	movl	(%esi), %eax
	.loc 1 1399 0
	leal	108(%ebx), %edi
.LVL241:
	.loc 1 1397 0
	movl	%eax, 112(%ebx)
.L231:
	.loc 1 1400 0
	movl	(%edi), %eax
	testl	%eax, %eax
	jne	.L232
.L236:
	.loc 1 1404 0
	movl	(%edi), %eax
	movl	%eax, (%esi)
	.loc 1 1405 0
	movl	%esi, (%edi)
	.loc 1 1407 0
	cmpl	$0, (%esi)
	jne	.L234
	.loc 1 1409 0
	movw	$0, 104(%ebx)
	jmp	.L234
.L232:
	.loc 1 1401 0 discriminator 1
	movl	16(%eax), %eax
	subl	$12, %esp
	pushl	4(%eax)
	call	lwip_htonl
.LVL242:
	movl	%eax, -28(%ebp)
	popl	%eax
	movl	16(%esi), %eax
	pushl	4(%eax)
	call	lwip_htonl
.LVL243:
	.loc 1 1400 0 discriminator 1
	addl	$16, %esp
	cmpl	%eax, -28(%ebp)
	jns	.L236
	.loc 1 1402 0
	movl	(%edi), %edi
.LVL244:
	jmp	.L231
.L234:
	.loc 1 1413 0
	incb	70(%ebx)
	.loc 1 1416 0
	movl	$0, 56(%ebx)
.LVL245:
.L229:
	.loc 1 1422 0
	leal	-12(%ebp), %esp
	popl	%ebx
	.cfi_restore 3
	popl	%esi
	.cfi_restore 6
	popl	%edi
	.cfi_restore 7
	popl	%ebp
	.cfi_restore 5
	.cfi_def_cfa 4, 4
	ret
	.cfi_endproc
.LFE29:
	.size	tcp_rexmit, .-tcp_rexmit
	.section	.text.unlikely.tcp_rexmit
.LCOLDE11:
	.section	.text.tcp_rexmit
.LHOTE11:
	.section	.text.unlikely.tcp_rexmit_fast,"ax",@progbits
.LCOLDB12:
	.section	.text.tcp_rexmit_fast,"ax",@progbits
.LHOTB12:
	.globl	tcp_rexmit_fast
	.type	tcp_rexmit_fast, @function
tcp_rexmit_fast:
.LFB30:
	.loc 1 1432 0
	.cfi_startproc
.LVL246:
	pushl	%ebp
	.cfi_def_cfa_offset 8
	.cfi_offset 5, -8
	movl	%esp, %ebp
	.cfi_def_cfa_register 5
	pushl	%ebx
	pushl	%eax
	.cfi_offset 3, -12
	.loc 1 1432 0
	movl	8(%ebp), %ebx
	.loc 1 1433 0
	cmpl	$0, 112(%ebx)
	je	.L241
	.loc 1 1433 0 discriminator 1
	testb	$4, 30(%ebx)
	jne	.L241
	.loc 1 1440 0
	subl	$12, %esp
	pushl	%ebx
	call	tcp_rexmit
.LVL247:
	.loc 1 1444 0
	movl	76(%ebx), %eax
	movl	96(%ebx), %edx
	addl	$16, %esp
	cmpw	%dx, %ax
	jbe	.L243
	.loc 1 1445 0
	shrw	%dx
	movw	%dx, 78(%ebx)
	jmp	.L244
.L243:
	.loc 1 1447 0
	shrw	%ax
	movw	%ax, 78(%ebx)
.L244:
	.loc 1 1451 0
	movzwl	54(%ebx), %edx
	movzwl	78(%ebx), %ecx
	movl	%edx, %eax
	addl	%edx, %edx
	cmpl	%edx, %ecx
	jnb	.L245
	.loc 1 1456 0
	leal	(%eax,%eax), %edx
	movw	%dx, 78(%ebx)
.L245:
	.loc 1 1459 0
	leal	(%eax,%eax,2), %eax
	addw	78(%ebx), %ax
	.loc 1 1460 0
	orw	$4, 30(%ebx)
	.loc 1 1463 0
	movw	$0, 52(%ebx)
	.loc 1 1459 0
	movw	%ax, 76(%ebx)
.L241:
	.loc 1 1465 0
	movl	-4(%ebp), %ebx
	leave
	.cfi_restore 5
	.cfi_restore 3
	.cfi_def_cfa 4, 4
	ret
	.cfi_endproc
.LFE30:
	.size	tcp_rexmit_fast, .-tcp_rexmit_fast
	.section	.text.unlikely.tcp_rexmit_fast
.LCOLDE12:
	.section	.text.tcp_rexmit_fast
.LHOTE12:
	.section	.text.unlikely.tcp_keepalive,"ax",@progbits
.LCOLDB13:
	.section	.text.tcp_keepalive,"ax",@progbits
.LHOTB13:
	.globl	tcp_keepalive
	.type	tcp_keepalive, @function
tcp_keepalive:
.LFB31:
	.loc 1 1478 0
	.cfi_startproc
.LVL248:
	pushl	%ebp
	.cfi_def_cfa_offset 8
	.cfi_offset 5, -8
	movl	%esp, %ebp
	.cfi_def_cfa_register 5
	pushl	%edi
	pushl	%esi
	pushl	%ebx
	subl	$40, %esp
	.cfi_offset 7, -12
	.cfi_offset 6, -16
	.cfi_offset 3, -20
	.loc 1 1478 0
	movl	8(%ebp), %esi
	.loc 1 1490 0
	movl	80(%esi), %eax
	decl	%eax
	pushl	%eax
	call	lwip_htonl
.LVL249:
	xorl	%edx, %edx
	movl	%eax, %ecx
	movl	%esi, %eax
	call	tcp_output_alloc_header.constprop.1
.LVL250:
	movl	%eax, %ebx
.LVL251:
	.loc 1 1491 0
	addl	$16, %esp
	movb	$-1, %al
.LVL252:
	testl	%ebx, %ebx
	je	.L248
	.loc 1 1496 0
	leal	4(%esi), %edx
	subl	$12, %esp
	.loc 1 1498 0
	movl	$-4, %edi
	.loc 1 1496 0
	pushl	%edx
	movl	%edx, -28(%ebp)
	call	ip4_route
.LVL253:
	.loc 1 1497 0
	addl	$16, %esp
	testl	%eax, %eax
	movl	%eax, -32(%ebp)
	je	.L249
.LBB36:
	.loc 1 1503 0
	movzwl	8(%ebx), %eax
.LVL254:
	movl	-28(%ebp), %edx
	subl	$12, %esp
	.loc 1 1502 0
	movl	4(%ebx), %edi
.LVL255:
	.loc 1 1503 0
	pushl	%edx
	pushl	%esi
	pushl	%eax
	pushl	$6
	pushl	%ebx
	call	ip_chksum_pseudo
.LVL256:
.LBE36:
	.loc 1 1511 0
	movl	-32(%ebp), %ecx
	addl	$28, %esp
.LBB37:
	.loc 1 1503 0
	movw	%ax, 16(%edi)
.LBE37:
	.loc 1 1511 0
	movl	-28(%ebp), %edx
	pushl	%ecx
	pushl	$6
	pushl	$0
	movzbl	10(%esi), %eax
	pushl	%eax
	pushl	%edx
	pushl	%esi
	pushl	%ebx
	call	ip4_output_if
.LVL257:
	addl	$32, %esp
	movl	%eax, %edi
.LVL258:
.L249:
	.loc 1 1514 0
	subl	$12, %esp
	pushl	%ebx
	call	pbuf_free
.LVL259:
	.loc 1 1518 0
	addl	$16, %esp
	movl	%edi, %eax
.LVL260:
.L248:
	.loc 1 1519 0
	leal	-12(%ebp), %esp
	popl	%ebx
	.cfi_restore 3
.LVL261:
	popl	%esi
	.cfi_restore 6
	popl	%edi
	.cfi_restore 7
	popl	%ebp
	.cfi_restore 5
	.cfi_def_cfa 4, 4
	ret
	.cfi_endproc
.LFE31:
	.size	tcp_keepalive, .-tcp_keepalive
	.section	.text.unlikely.tcp_keepalive
.LCOLDE13:
	.section	.text.tcp_keepalive
.LHOTE13:
	.section	.text.unlikely.tcp_zero_window_probe,"ax",@progbits
.LCOLDB14:
	.section	.text.tcp_zero_window_probe,"ax",@progbits
.LHOTB14:
	.globl	tcp_zero_window_probe
	.type	tcp_zero_window_probe, @function
tcp_zero_window_probe:
.LFB32:
	.loc 1 1532 0
	.cfi_startproc
.LVL262:
	pushl	%ebp
	.cfi_def_cfa_offset 8
	.cfi_offset 5, -8
	movl	%esp, %ebp
	.cfi_def_cfa_register 5
	pushl	%edi
	pushl	%esi
	pushl	%ebx
	subl	$28, %esp
	.cfi_offset 7, -12
	.cfi_offset 6, -16
	.cfi_offset 3, -20
	.loc 1 1532 0
	movl	8(%ebp), %ebx
	.loc 1 1551 0
	movl	112(%ebx), %esi
.LVL263:
	.loc 1 1553 0
	testl	%esi, %esi
	jne	.L255
	.loc 1 1554 0
	movl	108(%ebx), %esi
.LVL264:
	.loc 1 1558 0
	xorl	%eax, %eax
	.loc 1 1556 0
	testl	%esi, %esi
	je	.L256
.L255:
	.loc 1 1561 0
	movl	16(%esi), %eax
	subl	$12, %esp
	movzwl	12(%eax), %eax
	pushl	%eax
	call	lwip_htons
.LVL265:
	addl	$16, %esp
	testb	$1, %al
	movl	$0, -32(%ebp)
	je	.L257
	.loc 1 1561 0 is_stmt 0 discriminator 1
	xorl	%eax, %eax
	cmpw	$0, 8(%esi)
	sete	%al
	movl	%eax, -32(%ebp)
.L257:
.LVL266:
	.loc 1 1565 0 is_stmt 1 discriminator 6
	movl	16(%esi), %eax
	movl	-32(%ebp), %edx
	movl	4(%eax), %ecx
	xorl	$1, %edx
	movl	%ebx, %eax
	call	tcp_output_alloc_header.constprop.1
.LVL267:
	movl	%eax, %edi
.LVL268:
	.loc 1 1568 0 discriminator 6
	movb	$-1, %al
.LVL269:
	.loc 1 1566 0 discriminator 6
	testl	%edi, %edi
	je	.L256
	.loc 1 1572 0
	cmpl	$0, -32(%ebp)
	.loc 1 1570 0
	movl	4(%edi), %eax
	movl	%eax, -28(%ebp)
.LVL270:
	.loc 1 1572 0
	je	.L258
	.loc 1 1574 0
	movw	12(%eax), %ax
.LVL271:
	subl	$12, %esp
	pushl	$17
	andb	$192, %ah
	movw	%ax, -32(%ebp)
.LVL272:
	call	lwip_htons
.LVL273:
	orl	-32(%ebp), %eax
	movl	-28(%ebp), %ecx
	movw	%ax, 12(%ecx)
	jmp	.L269
.LVL274:
.L258:
.LBB38:
	.loc 1 1581 0
	movl	4(%esi), %edx
	movl	8(%edx), %eax
	subl	8(%esi), %eax
	movzwl	%ax, %eax
	pushl	%eax
	movl	-28(%ebp), %eax
	pushl	$1
	addl	$20, %eax
.LVL275:
	pushl	%eax
	pushl	%edx
	call	pbuf_copy_partial
.LVL276:
.L269:
.LBE38:
	.loc 1 1585 0
	movl	16(%esi), %eax
.LBB39:
	.loc 1 1581 0
	addl	$16, %esp
.LBE39:
	.loc 1 1585 0
	subl	$12, %esp
	pushl	4(%eax)
	call	lwip_htonl
.LVL277:
	.loc 1 1586 0
	addl	$16, %esp
	.loc 1 1585 0
	incl	%eax
.LVL278:
	.loc 1 1586 0
	cmpl	%eax, 80(%ebx)
	jns	.L260
	.loc 1 1587 0
	movl	%eax, 80(%ebx)
.L260:
	.loc 1 1590 0
	leal	4(%ebx), %esi
.LVL279:
	subl	$12, %esp
	pushl	%esi
	call	ip4_route
.LVL280:
	.loc 1 1591 0
	addl	$16, %esp
	testl	%eax, %eax
	.loc 1 1592 0
	movb	$-4, %cl
	.loc 1 1591 0
	movl	%eax, -32(%ebp)
	je	.L261
	.loc 1 1596 0
	movzwl	8(%edi), %eax
.LVL281:
	subl	$12, %esp
	pushl	%esi
	pushl	%ebx
	pushl	%eax
	pushl	$6
	pushl	%edi
	call	ip_chksum_pseudo
.LVL282:
	movl	-28(%ebp), %ecx
	.loc 1 1604 0
	movl	-32(%ebp), %edx
	addl	$28, %esp
	.loc 1 1596 0
	movw	%ax, 16(%ecx)
	.loc 1 1604 0
	pushl	%edx
	pushl	$6
	pushl	$0
	movzbl	10(%ebx), %eax
	pushl	%eax
	pushl	%esi
	pushl	%ebx
	pushl	%edi
	call	ip4_output_if
.LVL283:
	addl	$32, %esp
	movb	%al, %cl
.LVL284:
.L261:
	.loc 1 1609 0
	subl	$12, %esp
	movb	%cl, -28(%ebp)
.LVL285:
	pushl	%edi
	call	pbuf_free
.LVL286:
	.loc 1 1614 0
	movb	-28(%ebp), %cl
	addl	$16, %esp
	movb	%cl, %al
.LVL287:
.L256:
	.loc 1 1615 0
	leal	-12(%ebp), %esp
	popl	%ebx
	.cfi_restore 3
	popl	%esi
	.cfi_restore 6
	popl	%edi
	.cfi_restore 7
	popl	%ebp
	.cfi_restore 5
	.cfi_def_cfa 4, 4
	ret
	.cfi_endproc
.LFE32:
	.size	tcp_zero_window_probe, .-tcp_zero_window_probe
	.section	.text.unlikely.tcp_zero_window_probe
.LCOLDE14:
	.section	.text.tcp_zero_window_probe
.LHOTE14:
	.text
.Letext0:
	.section	.text.unlikely.tcp_pbuf_prealloc
.Letext_cold0:
	.file 2 "././platform/mcu/moc108/include/lwip-2.0.2/arch/cc.h"
	.file 3 "./kernel/protocols/net/include/lwip/err.h"
	.file 4 "./kernel/protocols/net/include/lwip/pbuf.h"
	.file 5 "./kernel/protocols/net/include/lwip/ip4_addr.h"
	.file 6 "./kernel/protocols/net/include/lwip/ip_addr.h"
	.file 7 "./kernel/protocols/net/include/lwip/memp.h"
	.file 8 "./kernel/protocols/net/include/lwip/netif.h"
	.file 9 "./kernel/protocols/net/include/lwip/tcp.h"
	.file 10 "./kernel/protocols/net/include/lwip/priv/tcp_priv.h"
	.file 11 "./kernel/protocols/net/include/lwip/prot/tcp.h"
	.file 12 "./include/aos/log.h"
	.file 13 "./kernel/protocols/net/include/lwip/def.h"
	.file 14 "././platform/mcu/moc108/include/driver/uart_pub.h"
	.file 15 "./kernel/protocols/net/include/lwip/ip4.h"
	.file 16 "./kernel/protocols/net/include/lwip/inet_chksum.h"
	.section	.note.GNU-stack,"",@progbits
