	.file	"tcpip.c"
	.text
.Ltext0:
	.section	.text.unlikely.tcpip_thread,"ax",@progbits
.LCOLDB0:
	.section	.text.tcpip_thread,"ax",@progbits
.LHOTB0:
	.section	.text.unlikely.tcpip_thread
.Ltext_cold0:
	.section	.text.tcpip_thread
	.type	tcpip_thread, @function
tcpip_thread:
.LFB17:
	.file 1 "kernel/protocols/net/api/tcpip.c"
	.loc 1 88 0
	.cfi_startproc
.LVL0:
	pushl	%ebp
	.cfi_def_cfa_offset 8
	.cfi_offset 5, -8
	movl	%esp, %ebp
	.cfi_def_cfa_register 5
	pushl	%ebx
	subl	$20, %esp
	.cfi_offset 3, -12
	.loc 1 88 0
	movl	%gs:20, %eax
	movl	%eax, -12(%ebp)
	xorl	%eax, %eax
	.loc 1 92 0
	movl	tcpip_init_done, %eax
	testl	%eax, %eax
	je	.L2
	.loc 1 93 0
	subl	$12, %esp
	pushl	tcpip_init_done_arg
	call	*%eax
.LVL1:
	addl	$16, %esp
.L2:
	.loc 1 96 0
	subl	$12, %esp
	.loc 1 101 0
	leal	-16(%ebp), %ebx
	.loc 1 96 0
	pushl	$lock_tcpip_core
	call	sys_mutex_lock
.LVL2:
	addl	$16, %esp
.L3:
	.loc 1 98 0
	subl	$12, %esp
	pushl	$lock_tcpip_core
	call	sys_mutex_unlock
.LVL3:
	.loc 1 101 0
	popl	%ecx
	popl	%eax
	pushl	%ebx
	pushl	$mbox
	call	sys_timeouts_mbox_fetch
.LVL4:
	.loc 1 102 0
	movl	$lock_tcpip_core, (%esp)
	call	sys_mutex_lock
.LVL5:
	.loc 1 103 0
	movl	-16(%ebp), %eax
	addl	$16, %esp
	testl	%eax, %eax
	je	.L3
	.loc 1 108 0
	movl	(%eax), %edx
	cmpl	$3, %edx
	je	.L5
	cmpl	$4, %edx
	je	.L6
	cmpl	$2, %edx
	jne	.L3
	.loc 1 124 0
	pushl	%ecx
	pushl	%ecx
	pushl	8(%eax)
	pushl	4(%eax)
	call	*12(%eax)
.LVL6:
	.loc 1 125 0
	popl	%eax
	popl	%edx
	pushl	-16(%ebp)
	pushl	$8
	jmp	.L17
.L5:
	.loc 1 144 0
	subl	$12, %esp
	pushl	8(%eax)
	call	*4(%eax)
.LVL7:
	.loc 1 145 0
	popl	%eax
	popl	%edx
	pushl	-16(%ebp)
	pushl	$7
.L17:
	call	memp_free
.LVL8:
	jmp	.L16
.L6:
	.loc 1 150 0
	subl	$12, %esp
	pushl	8(%eax)
	call	*4(%eax)
.LVL9:
.L16:
	.loc 1 151 0
	addl	$16, %esp
	jmp	.L3
	.cfi_endproc
.LFE17:
	.size	tcpip_thread, .-tcpip_thread
	.section	.text.unlikely.tcpip_thread
.LCOLDE0:
	.section	.text.tcpip_thread
.LHOTE0:
	.section	.text.unlikely.pbuf_free_int,"ax",@progbits
.LCOLDB1:
	.section	.text.pbuf_free_int,"ax",@progbits
.LHOTB1:
	.type	pbuf_free_int, @function
pbuf_free_int:
.LFB27:
	.loc 1 527 0
	.cfi_startproc
.LVL10:
	pushl	%ebp
	.cfi_def_cfa_offset 8
	.cfi_offset 5, -8
	movl	%esp, %ebp
	.cfi_def_cfa_register 5
.LVL11:
	.loc 1 530 0
	popl	%ebp
	.cfi_restore 5
	.cfi_def_cfa 4, 4
	.loc 1 529 0
	jmp	pbuf_free
.LVL12:
	.cfi_endproc
.LFE27:
	.size	pbuf_free_int, .-pbuf_free_int
	.section	.text.unlikely.pbuf_free_int
.LCOLDE1:
	.section	.text.pbuf_free_int
.LHOTE1:
	.section	.text.unlikely.tcpip_inpkt,"ax",@progbits
.LCOLDB2:
	.section	.text.tcpip_inpkt,"ax",@progbits
.LHOTB2:
	.globl	tcpip_inpkt
	.type	tcpip_inpkt, @function
tcpip_inpkt:
.LFB18:
	.loc 1 209 0
	.cfi_startproc
.LVL13:
	pushl	%ebp
	.cfi_def_cfa_offset 8
	.cfi_offset 5, -8
	movl	%esp, %ebp
	.cfi_def_cfa_register 5
	pushl	%ebx
	subl	$16, %esp
	.cfi_offset 3, -12
	.loc 1 222 0
	pushl	$8
	call	memp_malloc
.LVL14:
	movl	%eax, %ebx
.LVL15:
	.loc 1 223 0
	addl	$16, %esp
	.loc 1 224 0
	movb	$-1, %al
.LVL16:
	.loc 1 223 0
	testl	%ebx, %ebx
	je	.L22
	.loc 1 228 0
	movl	8(%ebp), %eax
	.loc 1 227 0
	movl	$2, (%ebx)
	.loc 1 228 0
	movl	%eax, 4(%ebx)
	.loc 1 229 0
	movl	12(%ebp), %eax
	movl	%eax, 8(%ebx)
	.loc 1 230 0
	movl	16(%ebp), %eax
	movl	%eax, 12(%ebx)
	.loc 1 231 0
	pushl	%edx
	pushl	%edx
	pushl	%ebx
	pushl	$mbox
	call	sys_mbox_trypost
.LVL17:
	addl	$16, %esp
	testb	%al, %al
	je	.L22
	.loc 1 232 0
	pushl	%eax
	pushl	%eax
	pushl	%ebx
	pushl	$8
	call	memp_free
.LVL18:
	.loc 1 233 0
	addl	$16, %esp
	movb	$-1, %al
.L22:
	.loc 1 237 0
	movl	-4(%ebp), %ebx
.LVL19:
	leave
	.cfi_restore 5
	.cfi_restore 3
	.cfi_def_cfa 4, 4
	ret
	.cfi_endproc
.LFE18:
	.size	tcpip_inpkt, .-tcpip_inpkt
	.section	.text.unlikely.tcpip_inpkt
.LCOLDE2:
	.section	.text.tcpip_inpkt
.LHOTE2:
	.section	.text.unlikely.tcpip_input,"ax",@progbits
.LCOLDB3:
	.section	.text.tcpip_input,"ax",@progbits
.LHOTB3:
	.globl	tcpip_input
	.type	tcpip_input, @function
tcpip_input:
.LFB19:
	.loc 1 252 0
	.cfi_startproc
.LVL20:
	pushl	%ebp
	.cfi_def_cfa_offset 8
	.cfi_offset 5, -8
	movl	%esp, %ebp
	.cfi_def_cfa_register 5
	subl	$8, %esp
	.loc 1 252 0
	movl	12(%ebp), %eax
	movl	8(%ebp), %edx
	.loc 1 254 0
	testb	$24, 61(%eax)
	je	.L29
	.loc 1 255 0
	pushl	%ecx
	pushl	$ethernet_input
	jmp	.L32
.L29:
	.loc 1 258 0
	pushl	%ecx
	pushl	$ip4_input
.L32:
	pushl	%eax
	pushl	%edx
	call	tcpip_inpkt
.LVL21:
	addl	$16, %esp
	.loc 1 259 0
	leave
	.cfi_restore 5
	.cfi_def_cfa 4, 4
	ret
	.cfi_endproc
.LFE19:
	.size	tcpip_input, .-tcpip_input
	.section	.text.unlikely.tcpip_input
.LCOLDE3:
	.section	.text.tcpip_input
.LHOTE3:
	.section	.text.unlikely.tcpip_callback_with_block,"ax",@progbits
.LCOLDB4:
	.section	.text.tcpip_callback_with_block,"ax",@progbits
.LHOTB4:
	.globl	tcpip_callback_with_block
	.type	tcpip_callback_with_block, @function
tcpip_callback_with_block:
.LFB20:
	.loc 1 274 0
	.cfi_startproc
.LVL22:
	pushl	%ebp
	.cfi_def_cfa_offset 8
	.cfi_offset 5, -8
	movl	%esp, %ebp
	.cfi_def_cfa_register 5
	pushl	%esi
	pushl	%ebx
	.cfi_offset 6, -12
	.cfi_offset 3, -16
	.loc 1 274 0
	movl	16(%ebp), %esi
	.loc 1 279 0
	subl	$12, %esp
	pushl	$7
	call	memp_malloc
.LVL23:
	movl	%eax, %ebx
.LVL24:
	.loc 1 280 0
	addl	$16, %esp
	.loc 1 281 0
	movb	$-1, %al
.LVL25:
	.loc 1 280 0
	testl	%ebx, %ebx
	je	.L34
	.loc 1 285 0
	movl	8(%ebp), %eax
	.loc 1 284 0
	movl	$3, (%ebx)
	.loc 1 285 0
	movl	%eax, 4(%ebx)
	.loc 1 286 0
	movl	12(%ebp), %eax
	movl	%eax, 8(%ebx)
	.loc 1 287 0
	movl	%esi, %eax
	testb	%al, %al
	je	.L35
	.loc 1 288 0
	pushl	%ecx
	pushl	%ecx
	pushl	%ebx
	pushl	$mbox
	call	sys_mbox_post
.LVL26:
	addl	$16, %esp
	.loc 1 295 0
	xorl	%eax, %eax
	jmp	.L34
.L35:
	.loc 1 290 0
	pushl	%edx
	pushl	%edx
	pushl	%ebx
	pushl	$mbox
	call	sys_mbox_trypost
.LVL27:
	addl	$16, %esp
	testb	%al, %al
	je	.L34
	.loc 1 291 0
	pushl	%eax
	pushl	%eax
	pushl	%ebx
	pushl	$7
	call	memp_free
.LVL28:
	.loc 1 292 0
	addl	$16, %esp
	movb	$-1, %al
.L34:
	.loc 1 296 0
	leal	-8(%ebp), %esp
	popl	%ebx
	.cfi_restore 3
.LVL29:
	popl	%esi
	.cfi_restore 6
	popl	%ebp
	.cfi_restore 5
	.cfi_def_cfa 4, 4
	ret
	.cfi_endproc
.LFE20:
	.size	tcpip_callback_with_block, .-tcpip_callback_with_block
	.section	.text.unlikely.tcpip_callback_with_block
.LCOLDE4:
	.section	.text.tcpip_callback_with_block
.LHOTE4:
	.section	.text.unlikely.tcpip_send_msg_wait_sem,"ax",@progbits
.LCOLDB5:
	.section	.text.tcpip_send_msg_wait_sem,"ax",@progbits
.LHOTB5:
	.globl	tcpip_send_msg_wait_sem
	.type	tcpip_send_msg_wait_sem, @function
tcpip_send_msg_wait_sem:
.LFB21:
	.loc 1 369 0
	.cfi_startproc
.LVL30:
	pushl	%ebp
	.cfi_def_cfa_offset 8
	.cfi_offset 5, -8
	movl	%esp, %ebp
	.cfi_def_cfa_register 5
	subl	$20, %esp
	.loc 1 372 0
	pushl	$lock_tcpip_core
	call	sys_mutex_lock
.LVL31:
	.loc 1 373 0
	popl	%eax
	pushl	12(%ebp)
	call	*8(%ebp)
.LVL32:
	.loc 1 374 0
	movl	$lock_tcpip_core, (%esp)
	call	sys_mutex_unlock
.LVL33:
	.loc 1 391 0
	xorl	%eax, %eax
	leave
	.cfi_restore 5
	.cfi_def_cfa 4, 4
	ret
	.cfi_endproc
.LFE21:
	.size	tcpip_send_msg_wait_sem, .-tcpip_send_msg_wait_sem
	.section	.text.unlikely.tcpip_send_msg_wait_sem
.LCOLDE5:
	.section	.text.tcpip_send_msg_wait_sem
.LHOTE5:
	.section	.text.unlikely.tcpip_api_call,"ax",@progbits
.LCOLDB6:
	.section	.text.tcpip_api_call,"ax",@progbits
.LHOTB6:
	.globl	tcpip_api_call
	.type	tcpip_api_call, @function
tcpip_api_call:
.LFB22:
	.loc 1 405 0
	.cfi_startproc
.LVL34:
	pushl	%ebp
	.cfi_def_cfa_offset 8
	.cfi_offset 5, -8
	movl	%esp, %ebp
	.cfi_def_cfa_register 5
	subl	$36, %esp
	.loc 1 408 0
	pushl	$lock_tcpip_core
	call	sys_mutex_lock
.LVL35:
	.loc 1 409 0
	popl	%eax
	pushl	12(%ebp)
	call	*8(%ebp)
.LVL36:
	movb	%al, -9(%ebp)
.LVL37:
	.loc 1 410 0
	movl	$lock_tcpip_core, (%esp)
	call	sys_mutex_unlock
.LVL38:
	.loc 1 443 0
	movb	-9(%ebp), %al
	leave
	.cfi_restore 5
	.cfi_def_cfa 4, 4
	ret
	.cfi_endproc
.LFE22:
	.size	tcpip_api_call, .-tcpip_api_call
	.section	.text.unlikely.tcpip_api_call
.LCOLDE6:
	.section	.text.tcpip_api_call
.LHOTE6:
	.section	.text.unlikely.tcpip_callbackmsg_new,"ax",@progbits
.LCOLDB7:
	.section	.text.tcpip_callbackmsg_new,"ax",@progbits
.LHOTB7:
	.globl	tcpip_callbackmsg_new
	.type	tcpip_callbackmsg_new, @function
tcpip_callbackmsg_new:
.LFB23:
	.loc 1 455 0
	.cfi_startproc
.LVL39:
	pushl	%ebp
	.cfi_def_cfa_offset 8
	.cfi_offset 5, -8
	movl	%esp, %ebp
	.cfi_def_cfa_register 5
	subl	$20, %esp
	.loc 1 456 0
	pushl	$7
	call	memp_malloc
.LVL40:
	.loc 1 457 0
	addl	$16, %esp
	testl	%eax, %eax
	je	.L46
	.loc 1 461 0
	movl	8(%ebp), %edx
	.loc 1 460 0
	movl	$4, (%eax)
	.loc 1 461 0
	movl	%edx, 4(%eax)
	.loc 1 462 0
	movl	12(%ebp), %edx
	movl	%edx, 8(%eax)
.L46:
	.loc 1 464 0
	leave
	.cfi_restore 5
	.cfi_def_cfa 4, 4
	ret
	.cfi_endproc
.LFE23:
	.size	tcpip_callbackmsg_new, .-tcpip_callbackmsg_new
	.section	.text.unlikely.tcpip_callbackmsg_new
.LCOLDE7:
	.section	.text.tcpip_callbackmsg_new
.LHOTE7:
	.section	.text.unlikely.tcpip_callbackmsg_delete,"ax",@progbits
.LCOLDB8:
	.section	.text.tcpip_callbackmsg_delete,"ax",@progbits
.LHOTB8:
	.globl	tcpip_callbackmsg_delete
	.type	tcpip_callbackmsg_delete, @function
tcpip_callbackmsg_delete:
.LFB24:
	.loc 1 473 0
	.cfi_startproc
.LVL41:
	pushl	%ebp
	.cfi_def_cfa_offset 8
	.cfi_offset 5, -8
	movl	%esp, %ebp
	.cfi_def_cfa_register 5
	subl	$16, %esp
	.loc 1 474 0
	pushl	8(%ebp)
	pushl	$7
	call	memp_free
.LVL42:
	.loc 1 475 0
	addl	$16, %esp
	leave
	.cfi_restore 5
	.cfi_def_cfa 4, 4
	ret
	.cfi_endproc
.LFE24:
	.size	tcpip_callbackmsg_delete, .-tcpip_callbackmsg_delete
	.section	.text.unlikely.tcpip_callbackmsg_delete
.LCOLDE8:
	.section	.text.tcpip_callbackmsg_delete
.LHOTE8:
	.section	.text.unlikely.tcpip_trycallback,"ax",@progbits
.LCOLDB9:
	.section	.text.tcpip_trycallback,"ax",@progbits
.LHOTB9:
	.globl	tcpip_trycallback
	.type	tcpip_trycallback, @function
tcpip_trycallback:
.LFB25:
	.loc 1 486 0
	.cfi_startproc
.LVL43:
	pushl	%ebp
	.cfi_def_cfa_offset 8
	.cfi_offset 5, -8
	movl	%esp, %ebp
	.cfi_def_cfa_register 5
	subl	$16, %esp
	.loc 1 488 0
	pushl	8(%ebp)
	pushl	$mbox
	call	sys_mbox_trypost
.LVL44:
	.loc 1 489 0
	leave
	.cfi_restore 5
	.cfi_def_cfa 4, 4
	ret
	.cfi_endproc
.LFE25:
	.size	tcpip_trycallback, .-tcpip_trycallback
	.section	.text.unlikely.tcpip_trycallback
.LCOLDE9:
	.section	.text.tcpip_trycallback
.LHOTE9:
	.section	.rodata.str1.1,"aMS",@progbits,1
.LC10:
	.string	"tcp/ip"
	.section	.text.unlikely.tcpip_init,"ax",@progbits
.LCOLDB11:
	.section	.text.tcpip_init,"ax",@progbits
.LHOTB11:
	.globl	tcpip_init
	.type	tcpip_init, @function
tcpip_init:
.LFB26:
	.loc 1 502 0
	.cfi_startproc
.LVL45:
	pushl	%ebp
	.cfi_def_cfa_offset 8
	.cfi_offset 5, -8
	movl	%esp, %ebp
	.cfi_def_cfa_register 5
	subl	$8, %esp
	.loc 1 503 0
	call	lwip_init
.LVL46:
	.loc 1 505 0
	movl	8(%ebp), %eax
	.loc 1 507 0
	pushl	%edx
	pushl	%edx
	pushl	$16
	pushl	$mbox
	.loc 1 505 0
	movl	%eax, tcpip_init_done
	.loc 1 506 0
	movl	12(%ebp), %eax
	movl	%eax, tcpip_init_done_arg
	.loc 1 507 0
	call	sys_mbox_new
.LVL47:
	.loc 1 511 0
	movl	$lock_tcpip_core, (%esp)
	call	sys_mutex_new
.LVL48:
	.loc 1 516 0
	movl	$7, (%esp)
	pushl	$3072
	pushl	$0
	pushl	$tcpip_thread
	pushl	$.LC10
	call	sys_thread_new
.LVL49:
	.loc 1 517 0
	addl	$32, %esp
	leave
	.cfi_restore 5
	.cfi_def_cfa 4, 4
	ret
	.cfi_endproc
.LFE26:
	.size	tcpip_init, .-tcpip_init
	.section	.text.unlikely.tcpip_init
.LCOLDE11:
	.section	.text.tcpip_init
.LHOTE11:
	.section	.text.unlikely.pbuf_free_callback,"ax",@progbits
.LCOLDB12:
	.section	.text.pbuf_free_callback,"ax",@progbits
.LHOTB12:
	.globl	pbuf_free_callback
	.type	pbuf_free_callback, @function
pbuf_free_callback:
.LFB28:
	.loc 1 540 0
	.cfi_startproc
.LVL50:
	pushl	%ebp
	.cfi_def_cfa_offset 8
	.cfi_offset 5, -8
	movl	%esp, %ebp
	.cfi_def_cfa_register 5
	subl	$12, %esp
	.loc 1 541 0
	pushl	$0
	pushl	8(%ebp)
	pushl	$pbuf_free_int
	call	tcpip_callback_with_block
.LVL51:
	.loc 1 542 0
	leave
	.cfi_restore 5
	.cfi_def_cfa 4, 4
	ret
	.cfi_endproc
.LFE28:
	.size	pbuf_free_callback, .-pbuf_free_callback
	.section	.text.unlikely.pbuf_free_callback
.LCOLDE12:
	.section	.text.pbuf_free_callback
.LHOTE12:
	.section	.text.unlikely.mem_free_callback,"ax",@progbits
.LCOLDB13:
	.section	.text.mem_free_callback,"ax",@progbits
.LHOTB13:
	.globl	mem_free_callback
	.type	mem_free_callback, @function
mem_free_callback:
.LFB29:
	.loc 1 553 0
	.cfi_startproc
.LVL52:
	pushl	%ebp
	.cfi_def_cfa_offset 8
	.cfi_offset 5, -8
	movl	%esp, %ebp
	.cfi_def_cfa_register 5
	subl	$12, %esp
	.loc 1 554 0
	pushl	$0
	pushl	8(%ebp)
	pushl	$mem_free
	call	tcpip_callback_with_block
.LVL53:
	.loc 1 555 0
	leave
	.cfi_restore 5
	.cfi_def_cfa 4, 4
	ret
	.cfi_endproc
.LFE29:
	.size	mem_free_callback, .-mem_free_callback
	.section	.text.unlikely.mem_free_callback
.LCOLDE13:
	.section	.text.mem_free_callback
.LHOTE13:
	.globl	lock_tcpip_core
	.section	.bss.lock_tcpip_core,"aw",@nobits
	.align 4
	.type	lock_tcpip_core, @object
	.size	lock_tcpip_core, 4
lock_tcpip_core:
	.zero	4
	.section	.bss.mbox,"aw",@nobits
	.align 4
	.type	mbox, @object
	.size	mbox, 4
mbox:
	.zero	4
	.section	.bss.tcpip_init_done_arg,"aw",@nobits
	.align 4
	.type	tcpip_init_done_arg, @object
	.size	tcpip_init_done_arg, 4
tcpip_init_done_arg:
	.zero	4
	.section	.bss.tcpip_init_done,"aw",@nobits
	.align 4
	.type	tcpip_init_done, @object
	.size	tcpip_init_done, 4
tcpip_init_done:
	.zero	4
	.text
.Letext0:
	.section	.text.unlikely.tcpip_thread
.Letext_cold0:
	.file 2 "././platform/mcu/moc108/include/lwip-2.0.2/arch/cc.h"
	.file 3 "./kernel/protocols/net/include/lwip/err.h"
	.file 4 "./include/aos/kernel.h"
	.file 5 "./kernel/protocols/net/port/include/arch/sys_arch.h"
	.file 6 "./kernel/protocols/net/include/lwip/ip4_addr.h"
	.file 7 "./kernel/protocols/net/include/lwip/ip_addr.h"
	.file 8 "./kernel/protocols/net/include/lwip/pbuf.h"
	.file 9 "./kernel/protocols/net/include/lwip/memp.h"
	.file 10 "./kernel/protocols/net/include/lwip/netif.h"
	.file 11 "./kernel/protocols/net/include/lwip/tcpip.h"
	.file 12 "./kernel/protocols/net/include/lwip/priv/tcpip_priv.h"
	.file 13 "./include/aos/log.h"
	.file 14 "./kernel/protocols/net/include/lwip/sys.h"
	.file 15 "./kernel/protocols/net/include/lwip/timeouts.h"
	.file 16 "./kernel/protocols/net/include/lwip/init.h"
	.section	.note.GNU-stack,"",@progbits
