	.file	"tftp_common.c"
	.text
.Ltext0:
	.section	.text.unlikely.tftp_send_error,"ax",@progbits
.LCOLDB0:
	.section	.text.tftp_send_error,"ax",@progbits
.LHOTB0:
	.section	.text.unlikely.tftp_send_error
.Ltext_cold0:
	.section	.text.tftp_send_error
	.globl	tftp_send_error
	.type	tftp_send_error, @function
tftp_send_error:
.LFB23:
	.file 1 "kernel/protocols/net/apps/tftp/tftp_common.c"
	.loc 1 61 0
	.cfi_startproc
.LVL0:
	pushl	%ebp
	.cfi_def_cfa_offset 8
	.cfi_offset 5, -8
	.loc 1 62 0
	orl	$-1, %ecx
	.loc 1 61 0
	movl	%esp, %ebp
	.cfi_def_cfa_register 5
.LVL1:
	pushl	%edi
	pushl	%esi
	pushl	%ebx
	subl	$48, %esp
	.cfi_offset 7, -12
	.cfi_offset 6, -16
	.cfi_offset 3, -20
	.loc 1 61 0
	movl	8(%ebp), %eax
	movl	20(%ebp), %esi
	movl	%eax, -36(%ebp)
	movl	12(%ebp), %eax
	movl	%eax, -40(%ebp)
	movl	16(%ebp), %eax
	movl	%eax, -44(%ebp)
	movl	24(%ebp), %eax
	movl	%eax, -28(%ebp)
	.loc 1 62 0
	movl	-28(%ebp), %edi
	xorl	%eax, %eax
	repnz scasb
.LVL2:
	.loc 1 66 0
	pushl	$0
	.loc 1 62 0
	notl	%ecx
	movl	%ecx, -32(%ebp)
.LVL3:
	.loc 1 66 0
	movl	-32(%ebp), %eax
	addl	$4, %eax
	movzwl	%ax, %eax
	pushl	%eax
	pushl	$0
	call	pbuf_alloc
.LVL4:
	.loc 1 67 0
	addl	$16, %esp
	testl	%eax, %eax
	je	.L1
	.loc 1 71 0
	movl	4(%eax), %edi
.LVL5:
	.loc 1 73 0
	subl	$12, %esp
	movzwl	%si, %esi
	movl	%eax, %ebx
	.loc 1 72 0
	movw	$1280, (%edi)
	.loc 1 73 0
	pushl	%esi
	call	lwip_htons
.LVL6:
	.loc 1 74 0
	leal	4(%edi), %edx
	.loc 1 73 0
	movw	%ax, 2(%edi)
	.loc 1 74 0
	movl	-28(%ebp), %esi
	movl	-32(%ebp), %ecx
	.loc 1 76 0
	movzwl	-44(%ebp), %eax
	.loc 1 74 0
	movl	%edx, %edi
.LVL7:
	rep movsb
	.loc 1 76 0
	pushl	%eax
	pushl	-40(%ebp)
	pushl	%ebx
	pushl	-36(%ebp)
	call	udp_sendto
.LVL8:
	.loc 1 77 0
	movl	%ebx, 8(%ebp)
	addl	$32, %esp
	.loc 1 78 0
	leal	-12(%ebp), %esp
	popl	%ebx
	.cfi_remember_state
	.cfi_restore 3
.LVL9:
	popl	%esi
	.cfi_restore 6
	popl	%edi
	.cfi_restore 7
	popl	%ebp
	.cfi_restore 5
	.cfi_def_cfa 4, 4
	.loc 1 77 0
	jmp	pbuf_free
.LVL10:
.L1:
	.cfi_restore_state
	.loc 1 78 0
	leal	-12(%ebp), %esp
	popl	%ebx
	.cfi_restore 3
	popl	%esi
	.cfi_restore 6
	popl	%edi
	.cfi_restore 7
	popl	%ebp
	.cfi_restore 5
	.cfi_def_cfa 4, 4
	ret
	.cfi_endproc
.LFE23:
	.size	tftp_send_error, .-tftp_send_error
	.section	.text.unlikely.tftp_send_error
.LCOLDE0:
	.section	.text.tftp_send_error
.LHOTE0:
	.section	.text.unlikely.tftp_send_ack,"ax",@progbits
.LCOLDB1:
	.section	.text.tftp_send_ack,"ax",@progbits
.LHOTB1:
	.globl	tftp_send_ack
	.type	tftp_send_ack, @function
tftp_send_ack:
.LFB24:
	.loc 1 82 0
	.cfi_startproc
.LVL11:
	pushl	%ebp
	.cfi_def_cfa_offset 8
	.cfi_offset 5, -8
	movl	%esp, %ebp
	.cfi_def_cfa_register 5
	pushl	%edi
	pushl	%esi
	pushl	%ebx
	subl	$32, %esp
	.cfi_offset 7, -12
	.cfi_offset 6, -16
	.cfi_offset 3, -20
	.loc 1 82 0
	movl	8(%ebp), %eax
	movl	12(%ebp), %edi
	.loc 1 86 0
	pushl	$0
	pushl	$4
	pushl	$0
	.loc 1 82 0
	movl	20(%ebp), %ebx
	movl	%eax, -28(%ebp)
	movl	16(%ebp), %eax
	movl	%eax, -32(%ebp)
	.loc 1 86 0
	call	pbuf_alloc
.LVL12:
	.loc 1 87 0
	addl	$16, %esp
	testl	%eax, %eax
	je	.L5
	.loc 1 90 0
	movl	4(%eax), %ecx
.LVL13:
	.loc 1 93 0
	subl	$12, %esp
	movzwl	%bx, %ebx
	movl	%eax, %esi
	.loc 1 92 0
	movw	$1024, (%ecx)
	.loc 1 93 0
	pushl	%ebx
	.loc 1 92 0
	movl	%ecx, -36(%ebp)
	.loc 1 93 0
	call	lwip_htons
.LVL14:
	movl	-36(%ebp), %ecx
	movw	%ax, 2(%ecx)
	.loc 1 94 0
	movzwl	-32(%ebp), %eax
	pushl	%eax
	pushl	%edi
	pushl	%esi
	pushl	-28(%ebp)
	call	udp_sendto
.LVL15:
	.loc 1 95 0
	movl	%esi, 8(%ebp)
	addl	$32, %esp
	.loc 1 96 0
	leal	-12(%ebp), %esp
	popl	%ebx
	.cfi_remember_state
	.cfi_restore 3
	popl	%esi
	.cfi_restore 6
.LVL16:
	popl	%edi
	.cfi_restore 7
	popl	%ebp
	.cfi_restore 5
	.cfi_def_cfa 4, 4
	.loc 1 95 0
	jmp	pbuf_free
.LVL17:
.L5:
	.cfi_restore_state
	.loc 1 96 0
	leal	-12(%ebp), %esp
	popl	%ebx
	.cfi_restore 3
	popl	%esi
	.cfi_restore 6
	popl	%edi
	.cfi_restore 7
	popl	%ebp
	.cfi_restore 5
	.cfi_def_cfa 4, 4
	ret
	.cfi_endproc
.LFE24:
	.size	tftp_send_ack, .-tftp_send_ack
	.section	.text.unlikely.tftp_send_ack
.LCOLDE1:
	.section	.text.tftp_send_ack
.LHOTE1:
	.text
.Letext0:
	.section	.text.unlikely.tftp_send_error
.Letext_cold0:
	.file 2 "././platform/mcu/moc108/include/lwip-2.0.2/arch/cc.h"
	.file 3 "./kernel/protocols/net/include/lwip/pbuf.h"
	.file 4 "./kernel/protocols/net/include/lwip/ip4_addr.h"
	.file 5 "./kernel/protocols/net/include/lwip/ip_addr.h"
	.file 6 "./kernel/protocols/net/include/lwip/udp.h"
	.file 7 "./kernel/protocols/net/include/lwip/apps/tftp.h"
	.file 8 "./kernel/protocols/net/include/lwip/def.h"
	.file 9 "./include/aos/log.h"
	.section	.note.GNU-stack,"",@progbits
