	.file	"ticker.c"
	.text
.Ltext0:
	.section	.text.unlikely.ticker_init,"ax",@progbits
.LCOLDB0:
	.section	.text.ticker_init,"ax",@progbits
.LHOTB0:
	.section	.text.unlikely.ticker_init
.Ltext_cold0:
	.section	.text.ticker_init
	.globl	ticker_init
	.type	ticker_init, @function
ticker_init:
.LFB210:
	.file 1 "src/ticker.c"
	.loc 1 6448 0
	.cfi_startproc
.LVL0:
	pushl	%ebp
	.cfi_def_cfa_offset 8
	.cfi_offset 5, -8
	.loc 1 6491 0
	movl	$1, %eax
	.loc 1 6448 0
	movl	%esp, %ebp
	.cfi_def_cfa_register 5
.LVL1:
	.loc 1 6491 0
	popl	%ebp
	.cfi_restore 5
	.cfi_def_cfa 4, 4
	ret
	.cfi_endproc
.LFE210:
	.size	ticker_init, .-ticker_init
	.section	.text.unlikely.ticker_init
.LCOLDE0:
	.section	.text.ticker_init
.LHOTE0:
	.section	.text.unlikely.ticker_is_initialized,"ax",@progbits
.LCOLDB1:
	.section	.text.ticker_is_initialized,"ax",@progbits
.LHOTB1:
	.globl	ticker_is_initialized
	.type	ticker_is_initialized, @function
ticker_is_initialized:
.LFB211:
	.loc 1 6494 0
	.cfi_startproc
.LVL2:
	pushl	%ebp
	.cfi_def_cfa_offset 8
	.cfi_offset 5, -8
	.loc 1 6496 0
	xorl	%eax, %eax
	.loc 1 6494 0
	movl	%esp, %ebp
	.cfi_def_cfa_register 5
	.loc 1 6496 0
	popl	%ebp
	.cfi_restore 5
	.cfi_def_cfa 4, 4
	ret
	.cfi_endproc
.LFE211:
	.size	ticker_is_initialized, .-ticker_is_initialized
	.section	.text.unlikely.ticker_is_initialized
.LCOLDE1:
	.section	.text.ticker_is_initialized
.LHOTE1:
	.section	.text.unlikely.ticker_trigger,"ax",@progbits
.LCOLDB2:
	.section	.text.ticker_trigger,"ax",@progbits
.LHOTB2:
	.globl	ticker_trigger
	.type	ticker_trigger, @function
ticker_trigger:
.LFB212:
	.loc 1 6498 0
	.cfi_startproc
.LVL3:
	pushl	%ebp
	.cfi_def_cfa_offset 8
	.cfi_offset 5, -8
	movl	%esp, %ebp
	.cfi_def_cfa_register 5
	.loc 1 6505 0
	popl	%ebp
	.cfi_restore 5
	.cfi_def_cfa 4, 4
	ret
	.cfi_endproc
.LFE212:
	.size	ticker_trigger, .-ticker_trigger
	.section	.text.unlikely.ticker_trigger
.LCOLDE2:
	.section	.text.ticker_trigger
.LHOTE2:
	.section	.text.unlikely.ticker_start,"ax",@progbits
.LCOLDB3:
	.section	.text.ticker_start,"ax",@progbits
.LHOTB3:
	.globl	ticker_start
	.type	ticker_start, @function
ticker_start:
.LFB213:
	.loc 1 6511 0
	.cfi_startproc
.LVL4:
	pushl	%ebp
	.cfi_def_cfa_offset 8
	.cfi_offset 5, -8
	movl	%esp, %ebp
	.cfi_def_cfa_register 5
.LVL5:
	pushl	%edi
	pushl	%esi
	pushl	%ebx
	subl	$28, %esp
	.cfi_offset 7, -12
	.cfi_offset 6, -16
	.cfi_offset 3, -20
	.loc 1 6516 0
	movzbl	12(%ebp), %edx
.LVL6:
	.loc 1 6511 0
	movl	16(%ebp), %eax
	movl	36(%ebp), %edi
	movl	40(%ebp), %esi
	movl	%eax, -28(%ebp)
	.loc 1 6519 0
	movb	$0, %al
	.loc 1 6517 0
	movzbl	3(,%edx,8), %ebx
	leal	1(%ebx), %ecx
.LVL7:
	.loc 1 6519 0
	cmpb	0(,%edx,8), %cl
	cmovnb	%eax, %ecx
.LVL8:
	.loc 1 6521 0
	cmpb	1(,%edx,8), %cl
	movl	$1, %eax
	je	.L9
	.loc 1 6524 0
	imull	$48, %ebx, %ebx
	addl	4(,%edx,8), %ebx
.LVL9:
	.loc 1 6526 0
	movb	-28(%ebp), %al
	.loc 1 6539 0
	subl	$12, %esp
	.loc 1 6526 0
	movb	%al, 4(%ebx)
	.loc 1 6527 0
	movl	20(%ebp), %eax
	.loc 1 6531 0
	movw	%si, 26(%ebx)
	.loc 1 6525 0
	movl	$3, (%ebx)
	.loc 1 6539 0
	xorl	%esi, %esi
	.loc 1 6532 0
	movw	%di, 24(%ebx)
	.loc 1 6535 0
	movl	$2, 36(%ebx)
	.loc 1 6527 0
	movl	%eax, 8(%ebx)
	.loc 1 6528 0
	movl	24(%ebp), %eax
	movl	%eax, 12(%ebx)
	.loc 1 6529 0
	movl	28(%ebp), %eax
	movl	%eax, 16(%ebx)
	.loc 1 6530 0
	movl	32(%ebp), %eax
	movl	%eax, 20(%ebx)
	.loc 1 6533 0
	movl	44(%ebp), %eax
	movl	%eax, 28(%ebx)
	.loc 1 6534 0
	movl	48(%ebp), %eax
	movl	%eax, 32(%ebx)
	.loc 1 6536 0
	movl	52(%ebp), %eax
	movl	%eax, 40(%ebx)
	.loc 1 6537 0
	movl	56(%ebp), %eax
	movl	%eax, 44(%ebx)
	.loc 1 6538 0
	movb	%cl, 3(,%edx,8)
	.loc 1 6539 0
	pushl	%edx
	call	*%esi
.LVL10:
	addl	$12, %esp
	movzbl	%al, %eax
	pushl	$0
	pushl	$2
	pushl	%eax
	call	*%esi
.LVL11:
	.loc 1 6540 0
	movl	36(%ebx), %eax
	addl	$16, %esp
.LVL12:
.L9:
	.loc 1 6541 0
	leal	-12(%ebp), %esp
	popl	%ebx
	.cfi_restore 3
	popl	%esi
	.cfi_restore 6
	popl	%edi
	.cfi_restore 7
	popl	%ebp
	.cfi_restore 5
	.cfi_def_cfa 4, 4
	ret
	.cfi_endproc
.LFE213:
	.size	ticker_start, .-ticker_start
	.section	.text.unlikely.ticker_start
.LCOLDE3:
	.section	.text.ticker_start
.LHOTE3:
	.section	.text.unlikely.ticker_update,"ax",@progbits
.LCOLDB4:
	.section	.text.ticker_update,"ax",@progbits
.LHOTB4:
	.globl	ticker_update
	.type	ticker_update, @function
ticker_update:
.LFB214:
	.loc 1 6546 0
	.cfi_startproc
.LVL13:
	pushl	%ebp
	.cfi_def_cfa_offset 8
	.cfi_offset 5, -8
	movl	%esp, %ebp
	.cfi_def_cfa_register 5
.LVL14:
	pushl	%edi
	pushl	%esi
	pushl	%ebx
	subl	$44, %esp
	.cfi_offset 7, -12
	.cfi_offset 6, -16
	.cfi_offset 3, -20
	.loc 1 6546 0
	movl	16(%ebp), %eax
	.loc 1 6551 0
	movzbl	12(%ebp), %edx
.LVL15:
	.loc 1 6546 0
	movl	20(%ebp), %esi
	movl	36(%ebp), %edi
	movl	%eax, -28(%ebp)
	movl	24(%ebp), %eax
	.loc 1 6552 0
	movzbl	3(,%edx,8), %ebx
	.loc 1 6546 0
	movl	%eax, -32(%ebp)
	movl	28(%ebp), %eax
	.loc 1 6552 0
	leal	1(%ebx), %ecx
.LVL16:
	.loc 1 6554 0
	cmpb	0(,%edx,8), %cl
	.loc 1 6546 0
	movl	%eax, -36(%ebp)
	movl	32(%ebp), %eax
	movl	%eax, -40(%ebp)
	movl	40(%ebp), %eax
	movl	%eax, -44(%ebp)
	.loc 1 6554 0
	movb	$0, %al
	cmovnb	%eax, %ecx
.LVL17:
	.loc 1 6556 0
	cmpb	1(,%edx,8), %cl
	movl	$1, %eax
	je	.L16
	.loc 1 6559 0
	imull	$48, %ebx, %ebx
	addl	4(,%edx,8), %ebx
.LVL18:
	.loc 1 6561 0
	movb	-28(%ebp), %al
	.loc 1 6572 0
	subl	$12, %esp
	.loc 1 6561 0
	movb	%al, 4(%ebx)
	.loc 1 6563 0
	movl	-32(%ebp), %eax
	.loc 1 6562 0
	movw	%si, 8(%ebx)
	.loc 1 6560 0
	movl	$4, (%ebx)
	.loc 1 6572 0
	xorl	%esi, %esi
	.loc 1 6566 0
	movw	%di, 16(%ebx)
	.loc 1 6568 0
	movl	$2, 36(%ebx)
	.loc 1 6563 0
	movw	%ax, 10(%ebx)
	.loc 1 6564 0
	movl	-36(%ebp), %eax
	movw	%ax, 12(%ebx)
	.loc 1 6565 0
	movl	-40(%ebp), %eax
	movw	%ax, 14(%ebx)
	.loc 1 6567 0
	movb	-44(%ebp), %al
	movb	%al, 18(%ebx)
	.loc 1 6569 0
	movl	44(%ebp), %eax
	movl	%eax, 40(%ebx)
	.loc 1 6570 0
	movl	48(%ebp), %eax
	movl	%eax, 44(%ebx)
	.loc 1 6571 0
	movb	%cl, 3(,%edx,8)
	.loc 1 6572 0
	pushl	%edx
	call	*%esi
.LVL19:
	addl	$12, %esp
	movzbl	%al, %eax
	pushl	$0
	pushl	$2
	pushl	%eax
	call	*%esi
.LVL20:
	.loc 1 6573 0
	movl	36(%ebx), %eax
	addl	$16, %esp
.LVL21:
.L16:
	.loc 1 6574 0
	leal	-12(%ebp), %esp
	popl	%ebx
	.cfi_restore 3
	popl	%esi
	.cfi_restore 6
	popl	%edi
	.cfi_restore 7
	popl	%ebp
	.cfi_restore 5
	.cfi_def_cfa 4, 4
	ret
	.cfi_endproc
.LFE214:
	.size	ticker_update, .-ticker_update
	.section	.text.unlikely.ticker_update
.LCOLDE4:
	.section	.text.ticker_update
.LHOTE4:
	.section	.text.unlikely.ticker_stop,"ax",@progbits
.LCOLDB5:
	.section	.text.ticker_stop,"ax",@progbits
.LHOTB5:
	.globl	ticker_stop
	.type	ticker_stop, @function
ticker_stop:
.LFB215:
	.loc 1 6577 0
	.cfi_startproc
.LVL22:
	pushl	%ebp
	.cfi_def_cfa_offset 8
	.cfi_offset 5, -8
	.loc 1 6585 0
	movb	$0, %al
	.loc 1 6577 0
	movl	%esp, %ebp
	.cfi_def_cfa_register 5
.LVL23:
	pushl	%esi
	pushl	%ebx
	.cfi_offset 6, -12
	.cfi_offset 3, -16
	.loc 1 6582 0
	movzbl	12(%ebp), %edx
.LVL24:
	.loc 1 6577 0
	movl	16(%ebp), %esi
	.loc 1 6583 0
	movzbl	3(,%edx,8), %ebx
	leal	1(%ebx), %ecx
.LVL25:
	.loc 1 6585 0
	cmpb	0(,%edx,8), %cl
	cmovnb	%eax, %ecx
.LVL26:
	.loc 1 6587 0
	cmpb	1(,%edx,8), %cl
	movl	$1, %eax
	je	.L22
	.loc 1 6590 0
	imull	$48, %ebx, %ebx
	addl	4(,%edx,8), %ebx
.LVL27:
	.loc 1 6592 0
	movl	%esi, %eax
	.loc 1 6597 0
	subl	$12, %esp
	xorl	%esi, %esi
	.loc 1 6592 0
	movb	%al, 4(%ebx)
	.loc 1 6594 0
	movl	20(%ebp), %eax
	.loc 1 6591 0
	movl	$5, (%ebx)
	.loc 1 6593 0
	movl	$2, 36(%ebx)
	.loc 1 6594 0
	movl	%eax, 40(%ebx)
	.loc 1 6595 0
	movl	24(%ebp), %eax
	movl	%eax, 44(%ebx)
	.loc 1 6596 0
	movb	%cl, 3(,%edx,8)
	.loc 1 6597 0
	pushl	%edx
	call	*%esi
.LVL28:
	addl	$12, %esp
	movzbl	%al, %eax
	pushl	$0
	pushl	$2
	pushl	%eax
	call	*%esi
.LVL29:
	.loc 1 6598 0
	movl	36(%ebx), %eax
	addl	$16, %esp
.LVL30:
.L22:
	.loc 1 6599 0
	leal	-8(%ebp), %esp
	popl	%ebx
	.cfi_restore 3
	popl	%esi
	.cfi_restore 6
	popl	%ebp
	.cfi_restore 5
	.cfi_def_cfa 4, 4
	ret
	.cfi_endproc
.LFE215:
	.size	ticker_stop, .-ticker_stop
	.section	.text.unlikely.ticker_stop
.LCOLDE5:
	.section	.text.ticker_stop
.LHOTE5:
	.section	.text.unlikely.ticker_next_slot_get,"ax",@progbits
.LCOLDB6:
	.section	.text.ticker_next_slot_get,"ax",@progbits
.LHOTB6:
	.globl	ticker_next_slot_get
	.type	ticker_next_slot_get, @function
ticker_next_slot_get:
.LFB216:
	.loc 1 6603 0
	.cfi_startproc
.LVL31:
	pushl	%ebp
	.cfi_def_cfa_offset 8
	.cfi_offset 5, -8
	.loc 1 6611 0
	movb	$0, %al
	.loc 1 6603 0
	movl	%esp, %ebp
	.cfi_def_cfa_register 5
.LVL32:
	pushl	%esi
	pushl	%ebx
	.cfi_offset 6, -12
	.cfi_offset 3, -16
	.loc 1 6608 0
	movzbl	12(%ebp), %edx
.LVL33:
	.loc 1 6609 0
	movzbl	3(,%edx,8), %ebx
	leal	1(%ebx), %ecx
.LVL34:
	.loc 1 6611 0
	cmpb	0(,%edx,8), %cl
	cmovnb	%eax, %ecx
.LVL35:
	.loc 1 6613 0
	cmpb	1(,%edx,8), %cl
	movl	$1, %eax
	je	.L28
	.loc 1 6616 0
	imull	$48, %ebx, %ebx
	addl	4(,%edx,8), %ebx
.LVL36:
	.loc 1 6619 0
	movl	16(%ebp), %eax
	.loc 1 6626 0
	subl	$12, %esp
	xorl	%esi, %esi
	.loc 1 6619 0
	movl	%eax, 8(%ebx)
	.loc 1 6620 0
	movl	20(%ebp), %eax
	.loc 1 6617 0
	movl	$2, (%ebx)
	.loc 1 6618 0
	movb	$-1, 4(%ebx)
	.loc 1 6622 0
	movl	$2, 36(%ebx)
	.loc 1 6620 0
	movl	%eax, 12(%ebx)
	.loc 1 6621 0
	movl	24(%ebp), %eax
	movl	%eax, 16(%ebx)
	.loc 1 6623 0
	movl	28(%ebp), %eax
	movl	%eax, 40(%ebx)
	.loc 1 6624 0
	movl	32(%ebp), %eax
	movl	%eax, 44(%ebx)
	.loc 1 6625 0
	movb	%cl, 3(,%edx,8)
	.loc 1 6626 0
	pushl	%edx
	call	*%esi
.LVL37:
	addl	$12, %esp
	movzbl	%al, %eax
	pushl	$0
	pushl	$2
	pushl	%eax
	call	*%esi
.LVL38:
	.loc 1 6627 0
	movl	36(%ebx), %eax
	addl	$16, %esp
.LVL39:
.L28:
	.loc 1 6628 0
	leal	-8(%ebp), %esp
	popl	%ebx
	.cfi_restore 3
	popl	%esi
	.cfi_restore 6
	popl	%ebp
	.cfi_restore 5
	.cfi_def_cfa 4, 4
	ret
	.cfi_endproc
.LFE216:
	.size	ticker_next_slot_get, .-ticker_next_slot_get
	.section	.text.unlikely.ticker_next_slot_get
.LCOLDE6:
	.section	.text.ticker_next_slot_get
.LHOTE6:
	.section	.text.unlikely.ticker_job_idle_get,"ax",@progbits
.LCOLDB7:
	.section	.text.ticker_job_idle_get,"ax",@progbits
.LHOTB7:
	.globl	ticker_job_idle_get
	.type	ticker_job_idle_get, @function
ticker_job_idle_get:
.LFB217:
	.loc 1 6631 0
	.cfi_startproc
.LVL40:
	pushl	%ebp
	.cfi_def_cfa_offset 8
	.cfi_offset 5, -8
	.loc 1 6639 0
	movb	$0, %al
	.loc 1 6631 0
	movl	%esp, %ebp
	.cfi_def_cfa_register 5
.LVL41:
	pushl	%esi
	pushl	%ebx
	.cfi_offset 6, -12
	.cfi_offset 3, -16
	.loc 1 6636 0
	movzbl	12(%ebp), %edx
.LVL42:
	.loc 1 6637 0
	movzbl	3(,%edx,8), %ebx
	leal	1(%ebx), %ecx
.LVL43:
	.loc 1 6639 0
	cmpb	0(,%edx,8), %cl
	cmovnb	%eax, %ecx
.LVL44:
	.loc 1 6641 0
	cmpb	1(,%edx,8), %cl
	movl	$1, %eax
	je	.L34
	.loc 1 6644 0
	imull	$48, %ebx, %ebx
	addl	4(,%edx,8), %ebx
.LVL45:
	.loc 1 6648 0
	movl	16(%ebp), %eax
	.loc 1 6651 0
	subl	$12, %esp
	xorl	%esi, %esi
	.loc 1 6648 0
	movl	%eax, 40(%ebx)
	.loc 1 6649 0
	movl	20(%ebp), %eax
	.loc 1 6645 0
	movl	$1, (%ebx)
	.loc 1 6646 0
	movb	$-1, 4(%ebx)
	.loc 1 6647 0
	movl	$2, 36(%ebx)
	.loc 1 6649 0
	movl	%eax, 44(%ebx)
	.loc 1 6650 0
	movb	%cl, 3(,%edx,8)
	.loc 1 6651 0
	pushl	%edx
	call	*%esi
.LVL46:
	addl	$12, %esp
	movzbl	%al, %eax
	pushl	$0
	pushl	$2
	pushl	%eax
	call	*%esi
.LVL47:
	.loc 1 6652 0
	movl	36(%ebx), %eax
	addl	$16, %esp
.LVL48:
.L34:
	.loc 1 6653 0
	leal	-8(%ebp), %esp
	popl	%ebx
	.cfi_restore 3
	popl	%esi
	.cfi_restore 6
	popl	%ebp
	.cfi_restore 5
	.cfi_def_cfa 4, 4
	ret
	.cfi_endproc
.LFE217:
	.size	ticker_job_idle_get, .-ticker_job_idle_get
	.section	.text.unlikely.ticker_job_idle_get
.LCOLDE7:
	.section	.text.ticker_job_idle_get
.LHOTE7:
	.section	.text.unlikely.ticker_job_sched,"ax",@progbits
.LCOLDB8:
	.section	.text.ticker_job_sched,"ax",@progbits
.LHOTB8:
	.globl	ticker_job_sched
	.type	ticker_job_sched, @function
ticker_job_sched:
.LFB218:
	.loc 1 6655 0
	.cfi_startproc
.LVL49:
	pushl	%ebp
	.cfi_def_cfa_offset 8
	.cfi_offset 5, -8
	movl	%esp, %ebp
	.cfi_def_cfa_register 5
.LVL50:
	pushl	%ebx
	.cfi_offset 3, -12
	.loc 1 6657 0
	xorl	%ebx, %ebx
	.loc 1 6655 0
	subl	$16, %esp
	.loc 1 6657 0
	movzbl	12(%ebp), %eax
	pushl	%eax
	call	*%ebx
.LVL51:
	addl	$12, %esp
	movzbl	%al, %eax
	pushl	$0
	pushl	$2
	pushl	%eax
	call	*%ebx
.LVL52:
	.loc 1 6658 0
	addl	$16, %esp
	movl	-4(%ebp), %ebx
	leave
	.cfi_restore 5
	.cfi_restore 3
	.cfi_def_cfa 4, 4
	ret
	.cfi_endproc
.LFE218:
	.size	ticker_job_sched, .-ticker_job_sched
	.section	.text.unlikely.ticker_job_sched
.LCOLDE8:
	.section	.text.ticker_job_sched
.LHOTE8:
	.section	.text.unlikely.ticker_ticks_now_get,"ax",@progbits
.LCOLDB9:
	.section	.text.ticker_ticks_now_get,"ax",@progbits
.LHOTB9:
	.globl	ticker_ticks_now_get
	.type	ticker_ticks_now_get, @function
ticker_ticks_now_get:
.LFB219:
	.loc 1 6660 0
	.cfi_startproc
	pushl	%ebp
	.cfi_def_cfa_offset 8
	.cfi_offset 5, -8
	movl	%esp, %ebp
	.cfi_def_cfa_register 5
	.loc 1 6662 0
	popl	%ebp
	.cfi_restore 5
	.cfi_def_cfa 4, 4
	.loc 1 6661 0
	jmp	cntr_cnt_get
.LVL53:
	.cfi_endproc
.LFE219:
	.size	ticker_ticks_now_get, .-ticker_ticks_now_get
	.section	.text.unlikely.ticker_ticks_now_get
.LCOLDE9:
	.section	.text.ticker_ticks_now_get
.LHOTE9:
	.section	.text.unlikely.ticker_ticks_diff_get,"ax",@progbits
.LCOLDB10:
	.section	.text.ticker_ticks_diff_get,"ax",@progbits
.LHOTB10:
	.globl	ticker_ticks_diff_get
	.type	ticker_ticks_diff_get, @function
ticker_ticks_diff_get:
.LFB220:
	.loc 1 6664 0
	.cfi_startproc
.LVL54:
	pushl	%ebp
	.cfi_def_cfa_offset 8
	.cfi_offset 5, -8
	movl	%esp, %ebp
	.cfi_def_cfa_register 5
	.loc 1 6665 0
	movl	8(%ebp), %eax
	subl	12(%ebp), %eax
	.loc 1 6666 0
	popl	%ebp
	.cfi_restore 5
	.cfi_def_cfa 4, 4
	.loc 1 6665 0
	andl	$16777215, %eax
	.loc 1 6666 0
	ret
	.cfi_endproc
.LFE220:
	.size	ticker_ticks_diff_get, .-ticker_ticks_diff_get
	.section	.text.unlikely.ticker_ticks_diff_get
.LCOLDE10:
	.section	.text.ticker_ticks_diff_get
.LHOTE10:
	.text
.Letext0:
	.section	.text.unlikely.ticker_init
.Letext_cold0:
	.section	.note.GNU-stack,"",@progbits
