	.file	"timeouts.c"
	.text
.Ltext0:
	.section	.text.unlikely.sys_timeout,"ax",@progbits
.LCOLDB0:
	.section	.text.sys_timeout,"ax",@progbits
.LHOTB0:
	.section	.text.unlikely.sys_timeout
.Ltext_cold0:
	.section	.text.sys_timeout
	.globl	sys_timeout
	.type	sys_timeout, @function
sys_timeout:
.LFB21:
	.file 1 "kernel/protocols/net/core/timeouts.c"
	.loc 1 206 0
	.cfi_startproc
.LVL0:
	pushl	%ebp
	.cfi_def_cfa_offset 8
	.cfi_offset 5, -8
	movl	%esp, %ebp
	.cfi_def_cfa_register 5
	pushl	%edi
	pushl	%esi
	pushl	%ebx
	subl	$40, %esp
	.cfi_offset 7, -12
	.cfi_offset 6, -16
	.cfi_offset 3, -20
	.loc 1 206 0
	movl	8(%ebp), %esi
	.loc 1 210 0
	pushl	$10
	call	memp_malloc
.LVL1:
	.loc 1 211 0
	addl	$16, %esp
	testl	%eax, %eax
	je	.L1
	movl	%eax, %ebx
	.loc 1 216 0
	call	sys_now
.LVL2:
	.loc 1 217 0
	movl	next_timeout, %edx
	testl	%edx, %edx
	jne	.L3
.LVL3:
	.loc 1 219 0
	movl	%eax, timeouts_last_time
	.loc 1 218 0
	xorl	%eax, %eax
.LVL4:
	jmp	.L4
.LVL5:
.L3:
	.loc 1 221 0
	subl	timeouts_last_time, %eax
.LVL6:
.L4:
	.loc 1 225 0
	movl	12(%ebp), %ecx
	.loc 1 227 0
	addl	%esi, %eax
	.loc 1 234 0
	testl	%edx, %edx
	.loc 1 224 0
	movl	$0, (%ebx)
	.loc 1 227 0
	movl	%eax, 4(%ebx)
	.loc 1 225 0
	movl	%ecx, 8(%ebx)
	.loc 1 226 0
	movl	16(%ebp), %ecx
	movl	%ecx, 12(%ebx)
	.loc 1 234 0
	je	.L19
	.loc 1 239 0
	movl	4(%edx), %eax
	movl	%edx, %edi
	cmpl	%eax, %esi
	jnb	.L15
	.loc 1 240 0
	subl	%esi, %eax
	movl	%eax, 4(%edx)
	.loc 1 241 0
	movl	%edx, (%ebx)
.L19:
	.loc 1 242 0
	movl	%ebx, next_timeout
	jmp	.L1
.LVL7:
.L17:
	.loc 1 246 0 discriminator 1
	movl	4(%ecx), %eax
	cmpl	%eax, -28(%ebp)
	jb	.L7
	movl	%ecx, %edi
.LVL8:
.L15:
	.loc 1 245 0 discriminator 1
	movl	4(%ebx), %eax
	.loc 1 246 0 discriminator 1
	movl	(%edi), %ecx
	.loc 1 245 0 discriminator 1
	subl	4(%edi), %eax
	.loc 1 246 0 discriminator 1
	testl	%ecx, %ecx
	.loc 1 245 0 discriminator 1
	movl	%eax, -28(%ebp)
	movl	%eax, 4(%ebx)
	.loc 1 246 0 discriminator 1
	jne	.L17
	.loc 1 249 0
	cmpl	%eax, %esi
	jnb	.L12
	.loc 1 254 0
	addl	4(%edx), %esi
	movl	%esi, 4(%ebx)
.L12:
	.loc 1 256 0
	movl	%ecx, (%ebx)
	.loc 1 257 0
	movl	%ebx, (%edi)
	.loc 1 258 0
	jmp	.L1
.L7:
	.loc 1 248 0
	movl	%eax, %edx
	subl	-28(%ebp), %edx
	movl	%edx, 4(%ecx)
	jmp	.L12
.LVL9:
.L1:
	.loc 1 262 0
	leal	-12(%ebp), %esp
	popl	%ebx
	.cfi_restore 3
	popl	%esi
	.cfi_restore 6
	popl	%edi
	.cfi_restore 7
	popl	%ebp
	.cfi_restore 5
	.cfi_def_cfa 4, 4
	ret
	.cfi_endproc
.LFE21:
	.size	sys_timeout, .-sys_timeout
	.section	.text.unlikely.sys_timeout
.LCOLDE0:
	.section	.text.sys_timeout
.LHOTE0:
	.section	.text.unlikely.tcp_timer_needed,"ax",@progbits
.LCOLDB1:
	.section	.text.tcp_timer_needed,"ax",@progbits
.LHOTB1:
	.globl	tcp_timer_needed
	.type	tcp_timer_needed, @function
tcp_timer_needed:
.LFB18:
	.loc 1 148 0
	.cfi_startproc
	pushl	%ebp
	.cfi_def_cfa_offset 8
	.cfi_offset 5, -8
	movl	%esp, %ebp
	.cfi_def_cfa_register 5
	subl	$8, %esp
	.loc 1 150 0
	cmpl	$0, tcpip_tcp_timer_active
	jne	.L21
	.loc 1 150 0 is_stmt 0 discriminator 1
	cmpl	$0, tcp_active_pcbs
	jne	.L23
	.loc 1 150 0 discriminator 2
	cmpl	$0, tcp_tw_pcbs
	je	.L21
.L23:
	.loc 1 153 0 is_stmt 1
	pushl	%eax
	pushl	$0
	pushl	$tcpip_tcp_timer
	pushl	$250
	.loc 1 152 0
	movl	$1, tcpip_tcp_timer_active
	.loc 1 153 0
	call	sys_timeout
.LVL10:
	addl	$16, %esp
.L21:
	.loc 1 155 0
	leave
	.cfi_restore 5
	.cfi_def_cfa 4, 4
	ret
	.cfi_endproc
.LFE18:
	.size	tcp_timer_needed, .-tcp_timer_needed
	.section	.text.unlikely.tcp_timer_needed
.LCOLDE1:
	.section	.text.tcp_timer_needed
.LHOTE1:
	.section	.text.unlikely.tcpip_tcp_timer,"ax",@progbits
.LCOLDB2:
	.section	.text.tcpip_tcp_timer,"ax",@progbits
.LHOTB2:
	.type	tcpip_tcp_timer, @function
tcpip_tcp_timer:
.LFB17:
	.loc 1 126 0
	.cfi_startproc
.LVL11:
	pushl	%ebp
	.cfi_def_cfa_offset 8
	.cfi_offset 5, -8
	movl	%esp, %ebp
	.cfi_def_cfa_register 5
	subl	$8, %esp
	.loc 1 130 0
	call	tcp_tmr
.LVL12:
	.loc 1 132 0
	cmpl	$0, tcp_active_pcbs
	jne	.L26
	.loc 1 132 0 is_stmt 0 discriminator 1
	cmpl	$0, tcp_tw_pcbs
	je	.L27
.L26:
	.loc 1 134 0 is_stmt 1
	pushl	%eax
	pushl	$0
	pushl	$tcpip_tcp_timer
	pushl	$250
	call	sys_timeout
.LVL13:
	addl	$16, %esp
	jmp	.L25
.L27:
	.loc 1 137 0
	movl	$0, tcpip_tcp_timer_active
.L25:
	.loc 1 139 0
	leave
	.cfi_restore 5
	.cfi_def_cfa 4, 4
	ret
	.cfi_endproc
.LFE17:
	.size	tcpip_tcp_timer, .-tcpip_tcp_timer
	.section	.text.unlikely.tcpip_tcp_timer
.LCOLDE2:
	.section	.text.tcpip_tcp_timer
.LHOTE2:
	.section	.text.unlikely.sys_timeouts_init,"ax",@progbits
.LCOLDB3:
	.section	.text.sys_timeouts_init,"ax",@progbits
.LHOTB3:
	.globl	sys_timeouts_init
	.type	sys_timeouts_init, @function
sys_timeouts_init:
.LFB20:
	.loc 1 176 0
	.cfi_startproc
.LVL14:
	pushl	%ebp
	.cfi_def_cfa_offset 8
	.cfi_offset 5, -8
	movl	%esp, %ebp
	.cfi_def_cfa_register 5
	pushl	%ebx
	pushl	%edx
	.cfi_offset 3, -12
	movl	$lwip_cyclic_timers+8, %ebx
.LVL15:
.L31:
	.loc 1 182 0 discriminator 3
	pushl	%eax
	pushl	%ebx
	addl	$8, %ebx
	pushl	$cyclic_timer
	pushl	-8(%ebx)
	call	sys_timeout
.LVL16:
	.loc 1 179 0 discriminator 3
	addl	$16, %esp
	cmpl	$lwip_cyclic_timers+48, %ebx
	jne	.L31
	.loc 1 186 0
	call	sys_now
.LVL17:
	.loc 1 187 0
	movl	-4(%ebp), %ebx
	.loc 1 186 0
	movl	%eax, timeouts_last_time
	.loc 1 187 0
	leave
	.cfi_restore 5
	.cfi_restore 3
	.cfi_def_cfa 4, 4
	ret
	.cfi_endproc
.LFE20:
	.size	sys_timeouts_init, .-sys_timeouts_init
	.section	.text.unlikely.sys_timeouts_init
.LCOLDE3:
	.section	.text.sys_timeouts_init
.LHOTE3:
	.section	.text.unlikely.cyclic_timer,"ax",@progbits
.LCOLDB4:
	.section	.text.cyclic_timer,"ax",@progbits
.LHOTB4:
	.type	cyclic_timer, @function
cyclic_timer:
.LFB19:
	.loc 1 165 0
	.cfi_startproc
.LVL18:
	pushl	%ebp
	.cfi_def_cfa_offset 8
	.cfi_offset 5, -8
	movl	%esp, %ebp
	.cfi_def_cfa_register 5
	pushl	%ebx
	pushl	%eax
	.cfi_offset 3, -12
	.loc 1 165 0
	movl	8(%ebp), %ebx
.LVL19:
	.loc 1 170 0
	call	*4(%ebx)
.LVL20:
	.loc 1 171 0
	pushl	%edx
	pushl	%ebx
	pushl	$cyclic_timer
	pushl	(%ebx)
	call	sys_timeout
.LVL21:
	.loc 1 172 0
	addl	$16, %esp
	movl	-4(%ebp), %ebx
.LVL22:
	leave
	.cfi_restore 5
	.cfi_restore 3
	.cfi_def_cfa 4, 4
	ret
	.cfi_endproc
.LFE19:
	.size	cyclic_timer, .-cyclic_timer
	.section	.text.unlikely.cyclic_timer
.LCOLDE4:
	.section	.text.cyclic_timer
.LHOTE4:
	.section	.text.unlikely.sys_untimeout,"ax",@progbits
.LCOLDB5:
	.section	.text.sys_untimeout,"ax",@progbits
.LHOTB5:
	.globl	sys_untimeout
	.type	sys_untimeout, @function
sys_untimeout:
.LFB22:
	.loc 1 274 0
	.cfi_startproc
.LVL23:
	.loc 1 277 0
	movl	next_timeout, %eax
	.loc 1 274 0
	pushl	%ebp
	.cfi_def_cfa_offset 8
	.cfi_offset 5, -8
	xorl	%ecx, %ecx
	movl	%esp, %ebp
	.cfi_def_cfa_register 5
	pushl	%esi
	pushl	%ebx
	.cfi_offset 6, -12
	.cfi_offset 3, -16
	.loc 1 277 0
	testl	%eax, %eax
	.loc 1 274 0
	movl	8(%ebp), %ebx
	movl	12(%ebp), %esi
	.loc 1 277 0
	je	.L36
.L42:
.LVL24:
	.loc 1 282 0
	cmpl	%ebx, 8(%eax)
	movl	(%eax), %edx
	jne	.L38
	.loc 1 282 0 is_stmt 0 discriminator 1
	cmpl	%esi, 12(%eax)
	jne	.L38
	.loc 1 285 0 is_stmt 1
	testl	%ecx, %ecx
	jne	.L39
	.loc 1 286 0
	movl	%edx, next_timeout
	jmp	.L40
.L39:
	.loc 1 288 0
	movl	%edx, (%ecx)
.L40:
	.loc 1 291 0
	movl	(%eax), %edx
	testl	%edx, %edx
	je	.L41
	.loc 1 292 0
	movl	4(%eax), %ecx
.LVL25:
	addl	%ecx, 4(%edx)
.L41:
	.loc 1 299 0
	popl	%ebx
	.cfi_remember_state
	.cfi_restore 3
	.loc 1 294 0
	movl	%eax, 12(%ebp)
.LVL26:
	movl	$10, 8(%ebp)
.LVL27:
	.loc 1 299 0
	popl	%esi
	.cfi_restore 6
.LVL28:
	popl	%ebp
	.cfi_restore 5
	.cfi_def_cfa 4, 4
	.loc 1 294 0
	jmp	memp_free
.LVL29:
.L38:
	.cfi_restore_state
	.loc 1 281 0 discriminator 2
	testl	%edx, %edx
	movl	%eax, %ecx
	je	.L36
	movl	%edx, %eax
.LVL30:
	jmp	.L42
.LVL31:
.L36:
	.loc 1 299 0
	popl	%ebx
	.cfi_restore 3
.LVL32:
	popl	%esi
	.cfi_restore 6
.LVL33:
	popl	%ebp
	.cfi_restore 5
	.cfi_def_cfa 4, 4
	ret
	.cfi_endproc
.LFE22:
	.size	sys_untimeout, .-sys_untimeout
	.section	.text.unlikely.sys_untimeout
.LCOLDE5:
	.section	.text.sys_untimeout
.LHOTE5:
	.section	.text.unlikely.sys_restart_timeouts,"ax",@progbits
.LCOLDB6:
	.section	.text.sys_restart_timeouts,"ax",@progbits
.LHOTB6:
	.globl	sys_restart_timeouts
	.type	sys_restart_timeouts, @function
sys_restart_timeouts:
.LFB24:
	.loc 1 370 0
	.cfi_startproc
	pushl	%ebp
	.cfi_def_cfa_offset 8
	.cfi_offset 5, -8
	movl	%esp, %ebp
	.cfi_def_cfa_register 5
	subl	$8, %esp
	.loc 1 371 0
	call	sys_now
.LVL34:
	movl	%eax, timeouts_last_time
	.loc 1 372 0
	leave
	.cfi_restore 5
	.cfi_def_cfa 4, 4
	ret
	.cfi_endproc
.LFE24:
	.size	sys_restart_timeouts, .-sys_restart_timeouts
	.section	.text.unlikely.sys_restart_timeouts
.LCOLDE6:
	.section	.text.sys_restart_timeouts
.LHOTE6:
	.section	.text.unlikely.sys_timeouts_mbox_fetch,"ax",@progbits
.LCOLDB7:
	.section	.text.sys_timeouts_mbox_fetch,"ax",@progbits
.LHOTB7:
	.globl	sys_timeouts_mbox_fetch
	.type	sys_timeouts_mbox_fetch, @function
sys_timeouts_mbox_fetch:
.LFB26:
	.loc 1 406 0
	.cfi_startproc
.L54:
.LVL35:
	pushl	%ebp
	.cfi_def_cfa_offset 8
	.cfi_offset 5, -8
	movl	%esp, %ebp
	.cfi_def_cfa_register 5
	pushl	%edi
	pushl	%esi
	pushl	%ebx
	subl	$12, %esp
	.cfi_offset 7, -12
	.cfi_offset 6, -16
	.cfi_offset 3, -20
.L59:
	.loc 1 410 0
	cmpl	$0, next_timeout
	jne	.L55
	.loc 1 411 0
	pushl	%ebx
	pushl	$0
	pushl	12(%ebp)
	pushl	8(%ebp)
	call	sys_arch_mbox_fetch
.LVL36:
	.loc 1 412 0
	addl	$16, %esp
	jmp	.L53
.L55:
.LBB7:
.LBB8:
	.loc 1 387 0
	call	sys_now
.LVL37:
	.loc 1 388 0
	movl	next_timeout, %edx
	.loc 1 387 0
	subl	timeouts_last_time, %eax
.LVL38:
	.loc 1 388 0
	movl	4(%edx), %edx
	cmpl	%edx, %eax
	jbe	.L57
.LVL39:
.L60:
.LBE8:
.LBE7:
.LBB9:
.LBB10:
	.loc 1 315 0
	cmpl	$0, next_timeout
	je	.L59
.LBB11:
	.loc 1 323 0
	call	sys_now
.LVL40:
	.loc 1 325 0
	subl	timeouts_last_time, %eax
.LVL41:
	movl	%eax, %ebx
.LVL42:
	jmp	.L63
.LVL43:
.L57:
.LBE11:
.LBE10:
.LBE9:
	.loc 1 416 0
	subl	%eax, %edx
	je	.L60
	.loc 1 416 0 is_stmt 0 discriminator 1
	pushl	%ecx
	pushl	%edx
	pushl	12(%ebp)
	pushl	8(%ebp)
	call	sys_arch_mbox_fetch
.LVL44:
	addl	$16, %esp
	incl	%eax
	je	.L60
	jmp	.L53
.LVL45:
.L76:
.LBB14:
.LBB13:
.LBB12:
	.loc 1 330 0 is_stmt 1
	movl	4(%eax), %edx
	cmpl	%ebx, %edx
	ja	.L59
.LVL46:
	.loc 1 333 0
	addl	%edx, timeouts_last_time
	.loc 1 334 0
	subl	%edx, %ebx
.LVL47:
	.loc 1 335 0
	movl	(%eax), %edx
	.loc 1 336 0
	movl	8(%eax), %esi
.LVL48:
	.loc 1 337 0
	movl	12(%eax), %edi
.LVL49:
	.loc 1 335 0
	movl	%edx, next_timeout
	.loc 1 344 0
	pushl	%edx
	pushl	%edx
	pushl	%eax
	pushl	$10
	call	memp_free
.LVL50:
	.loc 1 345 0
	addl	$16, %esp
	testl	%esi, %esi
	je	.L63
	.loc 1 349 0
	subl	$12, %esp
	pushl	$lock_tcpip_core
	call	sys_mutex_lock
.LVL51:
	.loc 1 351 0
	movl	%edi, (%esp)
	call	*%esi
.LVL52:
	.loc 1 353 0
	movl	$lock_tcpip_core, (%esp)
	call	sys_mutex_unlock
.LVL53:
	addl	$16, %esp
.LVL54:
.L63:
	.loc 1 329 0
	movl	next_timeout, %eax
.LVL55:
	.loc 1 330 0
	testl	%eax, %eax
	jne	.L76
	jmp	.L59
.LVL56:
.L53:
.LBE12:
.LBE13:
.LBE14:
	.loc 1 423 0
	leal	-12(%ebp), %esp
	popl	%ebx
	.cfi_restore 3
	popl	%esi
	.cfi_restore 6
	popl	%edi
	.cfi_restore 7
	popl	%ebp
	.cfi_restore 5
	.cfi_def_cfa 4, 4
	ret
	.cfi_endproc
.LFE26:
	.size	sys_timeouts_mbox_fetch, .-sys_timeouts_mbox_fetch
	.section	.text.unlikely.sys_timeouts_mbox_fetch
.LCOLDE7:
	.section	.text.sys_timeouts_mbox_fetch
.LHOTE7:
	.section	.bss.tcpip_tcp_timer_active,"aw",@nobits
	.align 4
	.type	tcpip_tcp_timer_active, @object
	.size	tcpip_tcp_timer_active, 4
tcpip_tcp_timer_active:
	.zero	4
	.section	.bss.timeouts_last_time,"aw",@nobits
	.align 4
	.type	timeouts_last_time, @object
	.size	timeouts_last_time, 4
timeouts_last_time:
	.zero	4
	.section	.bss.next_timeout,"aw",@nobits
	.align 4
	.type	next_timeout, @object
	.size	next_timeout, 4
next_timeout:
	.zero	4
	.globl	lwip_cyclic_timers
	.section	.rodata.lwip_cyclic_timers,"a",@progbits
	.align 32
	.type	lwip_cyclic_timers, @object
	.size	lwip_cyclic_timers, 48
lwip_cyclic_timers:
	.long	250
	.long	tcp_tmr
	.long	1000
	.long	etharp_tmr
	.long	60000
	.long	dhcp_coarse_tmr
	.long	500
	.long	dhcp_fine_tmr
	.long	100
	.long	igmp_tmr
	.long	1000
	.long	dns_tmr
	.text
.Letext0:
	.section	.text.unlikely.sys_timeout
.Letext_cold0:
	.file 2 "/home/stone/Documents/Ali_IOT/build/compiler/gcc-arm-none-eabi/Linux64/lib/gcc/arm-none-eabi/5.4.1/include/stddef.h"
	.file 3 "././platform/mcu/moc108/include/lwip-2.0.2/arch/cc.h"
	.file 4 "./kernel/protocols/net/include/lwip/err.h"
	.file 5 "./include/aos/kernel.h"
	.file 6 "./kernel/protocols/net/port/include/arch/sys_arch.h"
	.file 7 "./kernel/protocols/net/include/lwip/timeouts.h"
	.file 8 "./kernel/protocols/net/include/lwip/pbuf.h"
	.file 9 "./kernel/protocols/net/include/lwip/ip4_addr.h"
	.file 10 "./kernel/protocols/net/include/lwip/ip_addr.h"
	.file 11 "./kernel/protocols/net/include/lwip/tcp.h"
	.file 12 "./kernel/protocols/net/include/lwip/netif.h"
	.file 13 "./kernel/protocols/net/include/lwip/priv/tcp_priv.h"
	.file 14 "./kernel/protocols/net/include/lwip/prot/tcp.h"
	.file 15 "./include/aos/log.h"
	.file 16 "./kernel/protocols/net/include/lwip/tcpip.h"
	.file 17 "./kernel/protocols/net/include/lwip/memp.h"
	.file 18 "./kernel/protocols/net/include/lwip/sys.h"
	.section	.note.GNU-stack,"",@progbits
