	.file	"timing.c"
	.text
.Ltext0:
	.section	.text.unlikely.sighandler,"ax",@progbits
.LCOLDB0:
	.section	.text.sighandler,"ax",@progbits
.LHOTB0:
	.section	.text.unlikely.sighandler
.Ltext_cold0:
	.section	.text.sighandler
	.type	sighandler, @function
sighandler:
.LFB19:
	.file 1 "security/mbedtls/src/timing.c"
	.loc 1 302 0
	.cfi_startproc
.LVL0:
	pushl	%ebp
	.cfi_def_cfa_offset 8
	.cfi_offset 5, -8
	movl	%esp, %ebp
	.cfi_def_cfa_register 5
	subl	$16, %esp
	.loc 1 303 0
	movl	$1, mbedtls_timing_alarmed
	.loc 1 304 0
	pushl	$sighandler
	pushl	8(%ebp)
	call	signal
.LVL1:
	.loc 1 305 0
	addl	$16, %esp
	leave
	.cfi_restore 5
	.cfi_def_cfa 4, 4
	ret
	.cfi_endproc
.LFE19:
	.size	sighandler, .-sighandler
	.section	.text.unlikely.sighandler
.LCOLDE0:
	.section	.text.sighandler
.LHOTE0:
	.section	.text.unlikely.mbedtls_timing_hardclock,"ax",@progbits
.LCOLDB1:
	.section	.text.mbedtls_timing_hardclock,"ax",@progbits
.LHOTB1:
	.globl	mbedtls_timing_hardclock
	.type	mbedtls_timing_hardclock, @function
mbedtls_timing_hardclock:
.LFB17:
	.loc 1 220 0
	.cfi_startproc
	pushl	%ebp
	.cfi_def_cfa_offset 8
	.cfi_offset 5, -8
	movl	%esp, %ebp
	.cfi_def_cfa_register 5
	subl	$24, %esp
	.loc 1 220 0
	movl	%gs:20, %eax
	movl	%eax, -12(%ebp)
	xorl	%eax, %eax
	.loc 1 223 0
	cmpl	$0, hardclock_init
	jne	.L4
	.loc 1 225 0
	pushl	%edx
	pushl	%edx
	pushl	$0
	pushl	$tv_init
	call	gettimeofday
.LVL2:
	.loc 1 226 0
	movl	$1, hardclock_init
	addl	$16, %esp
.L4:
	.loc 1 229 0
	pushl	%eax
	pushl	%eax
	leal	-20(%ebp), %eax
	pushl	$0
	pushl	%eax
	call	gettimeofday
.LVL3:
	.loc 1 230 0
	movl	-20(%ebp), %eax
	subl	tv_init, %eax
	imull	$1000000, %eax, %eax
	subl	tv_init+4, %eax
	addl	-16(%ebp), %eax
	.loc 1 232 0
	movl	-12(%ebp), %edx
	xorl	%gs:20, %edx
	je	.L5
	call	__stack_chk_fail
.LVL4:
.L5:
	leave
	.cfi_restore 5
	.cfi_def_cfa 4, 4
	ret
	.cfi_endproc
.LFE17:
	.size	mbedtls_timing_hardclock, .-mbedtls_timing_hardclock
	.section	.text.unlikely.mbedtls_timing_hardclock
.LCOLDE1:
	.section	.text.mbedtls_timing_hardclock
.LHOTE1:
	.section	.text.unlikely.mbedtls_timing_get_timer,"ax",@progbits
.LCOLDB2:
	.section	.text.mbedtls_timing_get_timer,"ax",@progbits
.LHOTB2:
	.globl	mbedtls_timing_get_timer
	.type	mbedtls_timing_get_timer, @function
mbedtls_timing_get_timer:
.LFB18:
	.loc 1 281 0
	.cfi_startproc
.LVL5:
	pushl	%ebp
	.cfi_def_cfa_offset 8
	.cfi_offset 5, -8
	movl	%esp, %ebp
	.cfi_def_cfa_register 5
	pushl	%ebx
	subl	$28, %esp
	.cfi_offset 3, -12
	.loc 1 281 0
	movl	8(%ebp), %ebx
	movl	%gs:20, %eax
	movl	%eax, -12(%ebp)
	xorl	%eax, %eax
.LVL6:
	.loc 1 286 0
	leal	-20(%ebp), %eax
	pushl	$0
	pushl	%eax
	call	gettimeofday
.LVL7:
	.loc 1 288 0
	addl	$16, %esp
	cmpl	$0, 12(%ebp)
	movl	-20(%ebp), %ecx
	movl	-16(%ebp), %eax
	je	.L9
	.loc 1 291 0
	movl	%eax, 4(%ebx)
	.loc 1 290 0
	movl	%ecx, (%ebx)
	.loc 1 292 0
	xorl	%eax, %eax
	jmp	.L10
.L9:
	.loc 1 295 0
	subl	4(%ebx), %eax
	subl	(%ebx), %ecx
	movl	$1000, %ebx
.LVL8:
	cltd
	idivl	%ebx
	imull	$1000, %ecx, %ecx
.LVL9:
	.loc 1 298 0
	addl	%ecx, %eax
.LVL10:
.L10:
	.loc 1 299 0
	movl	-12(%ebp), %edx
	xorl	%gs:20, %edx
	je	.L11
	call	__stack_chk_fail
.LVL11:
.L11:
	movl	-4(%ebp), %ebx
	leave
	.cfi_restore 5
	.cfi_restore 3
	.cfi_def_cfa 4, 4
	ret
	.cfi_endproc
.LFE18:
	.size	mbedtls_timing_get_timer, .-mbedtls_timing_get_timer
	.section	.text.unlikely.mbedtls_timing_get_timer
.LCOLDE2:
	.section	.text.mbedtls_timing_get_timer
.LHOTE2:
	.section	.text.unlikely.mbedtls_set_alarm,"ax",@progbits
.LCOLDB3:
	.section	.text.mbedtls_set_alarm,"ax",@progbits
.LHOTB3:
	.globl	mbedtls_set_alarm
	.type	mbedtls_set_alarm, @function
mbedtls_set_alarm:
.LFB20:
	.loc 1 308 0
	.cfi_startproc
.LVL12:
	pushl	%ebp
	.cfi_def_cfa_offset 8
	.cfi_offset 5, -8
	movl	%esp, %ebp
	.cfi_def_cfa_register 5
	pushl	%ebx
	subl	$12, %esp
	.cfi_offset 3, -12
	.loc 1 308 0
	movl	8(%ebp), %ebx
	.loc 1 309 0
	movl	$0, mbedtls_timing_alarmed
	.loc 1 310 0
	pushl	$sighandler
	pushl	$14
	call	signal
.LVL13:
	.loc 1 311 0
	movl	%ebx, 8(%ebp)
	addl	$16, %esp
	.loc 1 312 0
	movl	-4(%ebp), %ebx
	leave
	.cfi_restore 5
	.cfi_restore 3
	.cfi_def_cfa 4, 4
	.loc 1 311 0
	jmp	alarm
.LVL14:
	.cfi_endproc
.LFE20:
	.size	mbedtls_set_alarm, .-mbedtls_set_alarm
	.section	.text.unlikely.mbedtls_set_alarm
.LCOLDE3:
	.section	.text.mbedtls_set_alarm
.LHOTE3:
	.section	.text.unlikely.mbedtls_timing_set_delay,"ax",@progbits
.LCOLDB4:
	.section	.text.mbedtls_timing_set_delay,"ax",@progbits
.LHOTB4:
	.globl	mbedtls_timing_set_delay
	.type	mbedtls_timing_set_delay, @function
mbedtls_timing_set_delay:
.LFB21:
	.loc 1 320 0
	.cfi_startproc
.LVL15:
	pushl	%ebp
	.cfi_def_cfa_offset 8
	.cfi_offset 5, -8
	movl	%esp, %ebp
	.cfi_def_cfa_register 5
	.loc 1 320 0
	movl	16(%ebp), %edx
	movl	8(%ebp), %eax
.LVL16:
	.loc 1 323 0
	movl	12(%ebp), %ecx
	.loc 1 326 0
	testl	%edx, %edx
	.loc 1 324 0
	movl	%edx, 36(%eax)
	.loc 1 323 0
	movl	%ecx, 32(%eax)
	.loc 1 326 0
	je	.L15
	.loc 1 327 0
	movl	$1, 12(%ebp)
.LVL17:
	.loc 1 328 0
	popl	%ebp
	.cfi_remember_state
	.cfi_restore 5
	.cfi_def_cfa 4, 4
	.loc 1 327 0
	jmp	mbedtls_timing_get_timer
.LVL18:
.L15:
	.cfi_restore_state
	.loc 1 328 0
	popl	%ebp
	.cfi_restore 5
	.cfi_def_cfa 4, 4
	ret
	.cfi_endproc
.LFE21:
	.size	mbedtls_timing_set_delay, .-mbedtls_timing_set_delay
	.section	.text.unlikely.mbedtls_timing_set_delay
.LCOLDE4:
	.section	.text.mbedtls_timing_set_delay
.LHOTE4:
	.section	.text.unlikely.mbedtls_timing_get_delay,"ax",@progbits
.LCOLDB5:
	.section	.text.mbedtls_timing_get_delay,"ax",@progbits
.LHOTB5:
	.globl	mbedtls_timing_get_delay
	.type	mbedtls_timing_get_delay, @function
mbedtls_timing_get_delay:
.LFB22:
	.loc 1 334 0
	.cfi_startproc
.LVL19:
	pushl	%ebp
	.cfi_def_cfa_offset 8
	.cfi_offset 5, -8
	movl	%esp, %ebp
	.cfi_def_cfa_register 5
	pushl	%ebx
	pushl	%edx
	.cfi_offset 3, -12
	.loc 1 334 0
	movl	8(%ebp), %ebx
.LVL20:
	.loc 1 339 0
	orl	$-1, %edx
	.loc 1 338 0
	cmpl	$0, 36(%ebx)
	je	.L19
	.loc 1 341 0
	pushl	%eax
	pushl	%eax
	pushl	$0
	pushl	%ebx
	call	mbedtls_timing_get_timer
.LVL21:
	.loc 1 343 0
	addl	$16, %esp
	cmpl	36(%ebx), %eax
	.loc 1 344 0
	movl	$2, %edx
	.loc 1 343 0
	jnb	.L19
	.loc 1 339 0
	xorl	%edx, %edx
	cmpl	32(%ebx), %eax
	setnb	%dl
.LVL22:
.L19:
	.loc 1 350 0
	movl	%edx, %eax
	movl	-4(%ebp), %ebx
.LVL23:
	leave
	.cfi_restore 5
	.cfi_restore 3
	.cfi_def_cfa 4, 4
	ret
	.cfi_endproc
.LFE22:
	.size	mbedtls_timing_get_delay, .-mbedtls_timing_get_delay
	.section	.text.unlikely.mbedtls_timing_get_delay
.LCOLDE5:
	.section	.text.mbedtls_timing_get_delay
.LHOTE5:
	.globl	mbedtls_timing_alarmed
	.section	.bss.mbedtls_timing_alarmed,"aw",@nobits
	.align 4
	.type	mbedtls_timing_alarmed, @object
	.size	mbedtls_timing_alarmed, 4
mbedtls_timing_alarmed:
	.zero	4
	.section	.bss.tv_init,"aw",@nobits
	.align 4
	.type	tv_init, @object
	.size	tv_init, 8
tv_init:
	.zero	8
	.section	.bss.hardclock_init,"aw",@nobits
	.align 4
	.type	hardclock_init, @object
	.size	hardclock_init, 4
hardclock_init:
	.zero	4
	.text
.Letext0:
	.section	.text.unlikely.sighandler
.Letext_cold0:
	.file 2 "/home/stone/Documents/Ali_IOT/build/compiler/gcc-arm-none-eabi/Linux64/arm-none-eabi/include/machine/_default_types.h"
	.file 3 "/home/stone/Documents/Ali_IOT/build/compiler/gcc-arm-none-eabi/Linux64/arm-none-eabi/include/sys/_types.h"
	.file 4 "/home/stone/Documents/Ali_IOT/build/compiler/gcc-arm-none-eabi/Linux64/arm-none-eabi/include/sys/_stdint.h"
	.file 5 "/home/stone/Documents/Ali_IOT/build/compiler/gcc-arm-none-eabi/Linux64/arm-none-eabi/include/sys/_timeval.h"
	.file 6 "./security/mbedtls/include/mbedtls/timing.h"
	.file 7 "/home/stone/Documents/Ali_IOT/build/compiler/gcc-arm-none-eabi/Linux64/arm-none-eabi/include/signal.h"
	.file 8 "/home/stone/Documents/Ali_IOT/build/compiler/gcc-arm-none-eabi/Linux64/arm-none-eabi/include/sys/time.h"
	.file 9 "/home/stone/Documents/Ali_IOT/build/compiler/gcc-arm-none-eabi/Linux64/arm-none-eabi/include/sys/unistd.h"
	.section	.note.GNU-stack,"",@progbits
