	.file	"udp.c"
	.text
.Ltext0:
	.section	.text.unlikely.udp_input_local_match,"ax",@progbits
.LCOLDB0:
	.section	.text.udp_input_local_match,"ax",@progbits
.LHOTB0:
	.section	.text.unlikely.udp_input_local_match
.Ltext_cold0:
	.section	.text.udp_input_local_match
	.type	udp_input_local_match, @function
udp_input_local_match:
.LFB19:
	.file 1 "kernel/protocols/net/core/udp.c"
	.loc 1 149 0
	.cfi_startproc
.LVL0:
	pushl	%ebp
	.cfi_def_cfa_offset 8
	.cfi_offset 5, -8
	.loc 1 168 0
	testb	%cl, %cl
	.loc 1 176 0
	movb	$1, %cl
.LVL1:
	.loc 1 149 0
	movl	%esp, %ebp
	.cfi_def_cfa_register 5
	pushl	%ebx
	.cfi_offset 3, -12
	.loc 1 168 0
	je	.L2
	.loc 1 173 0
	testl	%eax, %eax
	je	.L3
	.loc 1 173 0 discriminator 1
	movl	(%eax), %ebx
	testl	%ebx, %ebx
	je	.L3
	.loc 1 174 0 discriminator 2
	movl	ip_data+20, %eax
.LVL2:
	.loc 1 173 0 discriminator 2
	cmpl	$-1, %eax
	je	.L3
	.loc 1 194 0
	xorl	%ebx, %eax
	testl	%eax, 8(%edx)
	sete	%cl
	jmp	.L3
.LVL3:
.L2:
	.loc 1 182 0
	testl	%eax, %eax
	je	.L3
	.loc 1 182 0 discriminator 1
	movl	(%eax), %ebx
	testl	%ebx, %ebx
	je	.L3
	.loc 1 187 0 discriminator 2
	movl	ip_data+20, %edx
.LVL4:
	.loc 1 194 0 discriminator 2
	movl	%edx, %eax
.LVL5:
	andl	$240, %eax
	cmpl	$224, %eax
	sete	%cl
	cmpl	%edx, %ebx
	sete	%al
	orl	%eax, %ecx
.L3:
	.loc 1 195 0
	movb	%cl, %al
	popl	%ebx
	.cfi_restore 3
	popl	%ebp
	.cfi_restore 5
	.cfi_def_cfa 4, 4
	ret
	.cfi_endproc
.LFE19:
	.size	udp_input_local_match, .-udp_input_local_match
	.section	.text.unlikely.udp_input_local_match
.LCOLDE0:
	.section	.text.udp_input_local_match
.LHOTE0:
	.section	.text.unlikely.udp_init,"ax",@progbits
.LCOLDB1:
	.section	.text.udp_init,"ax",@progbits
.LHOTB1:
	.globl	udp_init
	.type	udp_init, @function
udp_init:
.LFB17:
	.loc 1 88 0
	.cfi_startproc
	pushl	%ebp
	.cfi_def_cfa_offset 8
	.cfi_offset 5, -8
	movl	%esp, %ebp
	.cfi_def_cfa_register 5
	subl	$8, %esp
	.loc 1 90 0
	call	rand
.LVL6:
	orw	$-16384, %ax
	movw	%ax, udp_port
	.loc 1 92 0
	leave
	.cfi_restore 5
	.cfi_def_cfa 4, 4
	ret
	.cfi_endproc
.LFE17:
	.size	udp_init, .-udp_init
	.section	.text.unlikely.udp_init
.LCOLDE1:
	.section	.text.udp_init
.LHOTE1:
	.section	.text.unlikely.udp_input,"ax",@progbits
.LCOLDB2:
	.section	.text.udp_input,"ax",@progbits
.LHOTB2:
	.globl	udp_input
	.type	udp_input, @function
udp_input:
.LFB20:
	.loc 1 211 0
	.cfi_startproc
.LVL7:
	pushl	%ebp
	.cfi_def_cfa_offset 8
	.cfi_offset 5, -8
	movl	%esp, %ebp
	.cfi_def_cfa_register 5
	pushl	%edi
	pushl	%esi
	pushl	%ebx
	subl	$44, %esp
	.cfi_offset 7, -12
	.cfi_offset 6, -16
	.cfi_offset 3, -20
	.loc 1 211 0
	movl	8(%ebp), %ebx
	movl	12(%ebp), %eax
	.loc 1 226 0
	cmpw	$7, 10(%ebx)
	.loc 1 211 0
	movl	%eax, -40(%ebp)
	.loc 1 226 0
	jbe	.L29
	.loc 1 237 0
	movl	4(%ebx), %eax
	.loc 1 259 0
	xorl	%edi, %edi
	.loc 1 237 0
	movl	%eax, -36(%ebp)
.LVL8:
.LVL9:
	.loc 1 240 0
	pushl	%eax
.LVL10:
	pushl	%eax
	pushl	ip_data
	pushl	ip_data+20
	call	ip4_addr_isbroadcast_u32
.LVL11:
	movb	%al, -29(%ebp)
.LVL12:
	.loc 1 245 0
	movl	-36(%ebp), %eax
.LVL13:
	movzwl	(%eax), %eax
	movl	%eax, (%esp)
	call	lwip_htons
.LVL14:
	movw	%ax, -32(%ebp)
.LVL15:
	.loc 1 246 0
	movl	-36(%ebp), %eax
.LVL16:
	movzwl	2(%eax), %eax
	movl	%eax, (%esp)
	call	lwip_htons
.LVL17:
	movw	%ax, -42(%ebp)
.LVL18:
	.loc 1 264 0
	movl	udp_pcbs, %eax
.LVL19:
	addl	$16, %esp
	.loc 1 258 0
	movl	$0, -28(%ebp)
	.loc 1 264 0
	movl	%eax, -48(%ebp)
.LVL20:
	.loc 1 289 0
	movl	ip_data+16, %eax
.LVL21:
	.loc 1 264 0
	movl	-48(%ebp), %esi
	.loc 1 289 0
	movl	%eax, -52(%ebp)
	.loc 1 274 0
	movzbl	-29(%ebp), %eax
	movl	%eax, -56(%ebp)
.LVL22:
.L17:
	.loc 1 264 0 discriminator 1
	testl	%esi, %esi
	je	.L68
	.loc 1 273 0
	movw	-42(%ebp), %ax
	cmpw	18(%esi), %ax
	jne	.L18
	.loc 1 274 0 discriminator 1
	movl	-56(%ebp), %ecx
	movl	-40(%ebp), %edx
	movl	%esi, %eax
	call	udp_input_local_match
.LVL23:
	.loc 1 273 0 discriminator 1
	testb	%al, %al
	je	.L18
	.loc 1 275 0
	testb	$4, 16(%esi)
	jne	.L19
	.loc 1 275 0 is_stmt 0 discriminator 1
	testl	%edi, %edi
	je	.L46
	cmpl	$0, (%esi)
	cmovne	%esi, %edi
.LVL24:
	jmp	.L19
.LVL25:
.L46:
	movl	%esi, %edi
.LVL26:
.L19:
	.loc 1 287 0 is_stmt 1
	movl	-32(%ebp), %eax
	cmpw	20(%esi), %ax
	jne	.L18
	.loc 1 288 0 discriminator 1
	movl	4(%esi), %eax
	.loc 1 287 0 discriminator 1
	testl	%eax, %eax
	jne	.L20
.L23:
	.loc 1 291 0
	cmpl	$0, -28(%ebp)
	je	.L22
	.loc 1 294 0
	movl	12(%esi), %eax
	movl	-28(%ebp), %ecx
	.loc 1 296 0
	movl	%esi, udp_pcbs
	.loc 1 294 0
	movl	%eax, 12(%ecx)
	.loc 1 295 0
	movl	-48(%ebp), %eax
	movl	%eax, 12(%esi)
	jmp	.L22
.L20:
	.loc 1 288 0
	cmpl	-52(%ebp), %eax
	je	.L23
.L18:
.LVL27:
	.loc 1 264 0 discriminator 2
	movl	%esi, -28(%ebp)
	movl	12(%esi), %esi
.LVL28:
	jmp	.L17
.L68:
.LVL29:
	.loc 1 312 0
	testl	%edi, %edi
	jne	.L45
.LVL30:
	.loc 1 327 0
	movl	-40(%ebp), %eax
	movl	ip_data+20, %ecx
	cmpl	%ecx, 4(%eax)
	je	.L45
.LVL31:
.L29:
	.loc 1 454 0
	movl	%ebx, 8(%ebp)
	.loc 1 457 0
	leal	-12(%ebp), %esp
	popl	%ebx
	.cfi_remember_state
	.cfi_restore 3
	popl	%esi
	.cfi_restore 6
	popl	%edi
	.cfi_restore 7
	popl	%ebp
	.cfi_restore 5
	.cfi_def_cfa 4, 4
	.loc 1 454 0
	jmp	pbuf_free
.LVL32:
.L42:
.L22:
	.cfi_restore_state
.LBB2:
	.loc 1 381 0
	movl	%esi, %edi
.LVL33:
.L45:
.LBE2:
	.loc 1 354 0
	movl	-36(%ebp), %eax
	cmpw	$0, 6(%eax)
	jne	.L27
.L30:
	.loc 1 364 0
	pushl	%eax
	pushl	%eax
	pushl	$-8
	pushl	%ebx
	call	pbuf_header
.LVL34:
	addl	$16, %esp
	testb	%al, %al
	je	.L64
	jmp	.L29
.L27:
	.loc 1 355 0
	subl	$12, %esp
	pushl	$ip_data+20
	pushl	$ip_data+16
	movzwl	8(%ebx), %eax
	pushl	%eax
	pushl	$17
	pushl	%ebx
	call	ip_chksum_pseudo
.LVL35:
	addl	$32, %esp
	testw	%ax, %ax
	je	.L30
	jmp	.L29
.L64:
	.loc 1 373 0
	testl	%edi, %edi
	je	.L31
	.loc 1 376 0
	testb	$4, 8(%edi)
	je	.L33
	.loc 1 376 0 is_stmt 0 discriminator 1
	cmpb	$0, -29(%ebp)
	jne	.L34
	.loc 1 377 0 is_stmt 1
	movl	ip_data+20, %eax
	andl	$240, %eax
	cmpl	$224, %eax
	jne	.L33
.L34:
.LVL36:
.LBB7:
	.loc 1 382 0
	movl	ip_data+12, %eax
	.loc 1 383 0
	movl	udp_pcbs, %esi
	.loc 1 381 0
	movb	$0, -28(%ebp)
.LVL37:
	.loc 1 382 0
	addl	$8, %eax
	movw	%ax, -36(%ebp)
.LVL38:
.LBB3:
.LBB4:
	.loc 1 401 0
	negl	%eax
.LVL39:
	cwtl
	movl	%eax, -48(%ebp)
.LVL40:
.L36:
.LBE4:
.LBE3:
	.loc 1 383 0 discriminator 1
	testl	%esi, %esi
	je	.L69
	.loc 1 384 0
	cmpl	%edi, %esi
	je	.L37
	.loc 1 386 0
	movw	-42(%ebp), %ax
	cmpw	18(%esi), %ax
	jne	.L37
	.loc 1 387 0 discriminator 1
	movzbl	-29(%ebp), %ecx
	movl	-40(%ebp), %edx
	movl	%esi, %eax
	call	udp_input_local_match
.LVL41:
	.loc 1 386 0 discriminator 1
	testb	%al, %al
	je	.L37
	.loc 1 389 0
	cmpl	$0, 32(%esi)
	je	.L37
.LBB6:
	.loc 1 392 0
	cmpb	$0, -28(%ebp)
	jne	.L38
	.loc 1 393 0
	pushl	%eax
	pushl	%eax
	movswl	-36(%ebp), %eax
	pushl	%eax
	pushl	%ebx
	call	pbuf_header_force
.LVL42:
	addl	$16, %esp
.LVL43:
.L38:
	.loc 1 396 0
	pushl	%eax
	pushl	$0
	movzwl	8(%ebx), %eax
	pushl	%eax
	pushl	$4
	call	pbuf_alloc
.LVL44:
	.loc 1 397 0
	addl	$16, %esp
	testl	%eax, %eax
	.loc 1 396 0
	movl	%eax, %edx
.LVL45:
	.loc 1 397 0
	je	.L67
.LVL46:
.LBB5:
	.loc 1 398 0
	pushl	%eax
	pushl	%eax
	pushl	%ebx
	pushl	%edx
	movl	%edx, -28(%ebp)
	call	pbuf_copy
.LVL47:
	.loc 1 399 0
	addl	$16, %esp
	testb	%al, %al
	movl	-28(%ebp), %edx
	jne	.L67
.LVL48:
	.loc 1 401 0
	pushl	%eax
	pushl	%eax
	pushl	-48(%ebp)
	pushl	%edx
	call	pbuf_header
.LVL49:
	.loc 1 402 0
	movzwl	-32(%ebp), %eax
	movl	-28(%ebp), %edx
	movl	%eax, (%esp)
	pushl	$ip_data+16
	pushl	%edx
	pushl	%esi
	pushl	36(%esi)
	call	*32(%esi)
.LVL50:
	addl	$32, %esp
.LVL51:
.L67:
	movb	$1, -28(%ebp)
.LVL52:
.L37:
.LBE5:
.LBE6:
	.loc 1 383 0 discriminator 2
	movl	12(%esi), %esi
.LVL53:
	jmp	.L36
.L69:
	.loc 1 409 0
	cmpb	$0, -28(%ebp)
	je	.L33
	.loc 1 411 0
	movl	-36(%ebp), %eax
.LVL54:
	pushl	%esi
	pushl	%esi
	negl	%eax
	cwtl
	pushl	%eax
	pushl	%ebx
	call	pbuf_header
.LVL55:
	addl	$16, %esp
.LVL56:
.L33:
.LBE7:
	.loc 1 416 0
	movl	32(%edi), %eax
	testl	%eax, %eax
	je	.L29
	.loc 1 418 0
	movzwl	-32(%ebp), %edx
	subl	$12, %esp
	pushl	%edx
	pushl	$ip_data+16
	pushl	%ebx
	pushl	%edi
	pushl	36(%edi)
	call	*%eax
.LVL57:
	addl	$32, %esp
	.loc 1 457 0
	leal	-12(%ebp), %esp
	popl	%ebx
	.cfi_remember_state
	.cfi_restore 3
	popl	%esi
	.cfi_restore 6
	popl	%edi
	.cfi_restore 7
.LVL58:
	popl	%ebp
	.cfi_restore 5
	.cfi_def_cfa 4, 4
	ret
.LVL59:
.L31:
	.cfi_restore_state
	.loc 1 430 0
	cmpb	$0, -29(%ebp)
	jne	.L29
	.loc 1 430 0 is_stmt 0 discriminator 1
	movl	ip_data+20, %eax
	andl	$240, %eax
	cmpl	$224, %eax
	je	.L29
	.loc 1 432 0 is_stmt 1
	pushl	%eax
	pushl	%eax
	movl	ip_data+12, %eax
	addl	$8, %eax
	cwtl
	pushl	%eax
	pushl	%ebx
	call	pbuf_header_force
.LVL60:
	.loc 1 433 0
	popl	%edx
	popl	%ecx
	pushl	$3
	pushl	%ebx
	call	icmp_dest_unreach
.LVL61:
	addl	$16, %esp
	jmp	.L29
	.cfi_endproc
.LFE20:
	.size	udp_input, .-udp_input
	.section	.text.unlikely.udp_input
.LCOLDE2:
	.section	.text.udp_input
.LHOTE2:
	.section	.text.unlikely.udp_bind,"ax",@progbits
.LCOLDB3:
	.section	.text.udp_bind,"ax",@progbits
.LHOTB3:
	.globl	udp_bind
	.type	udp_bind, @function
udp_bind:
.LFB25:
	.loc 1 904 0
	.cfi_startproc
.LVL62:
	pushl	%ebp
	.cfi_def_cfa_offset 8
	.cfi_offset 5, -8
	.loc 1 911 0
	movl	$ip_addr_any, %eax
	.loc 1 904 0
	movl	%esp, %ebp
	.cfi_def_cfa_register 5
	pushl	%edi
	pushl	%esi
	pushl	%ebx
	pushl	%ecx
	.cfi_offset 7, -12
	.cfi_offset 6, -16
	.cfi_offset 3, -20
	.loc 1 904 0
	movl	12(%ebp), %ebx
	movl	8(%ebp), %ecx
	movl	16(%ebp), %edi
	.loc 1 911 0
	testl	%ebx, %ebx
	cmove	%eax, %ebx
.LVL63:
	.loc 1 916 0
	testl	%ecx, %ecx
	.loc 1 917 0
	movb	$-6, %al
	.loc 1 916 0
	je	.L72
	.loc 1 926 0
	movl	udp_pcbs, %esi
	movl	%edi, %edx
.LVL64:
	movl	%esi, %eax
.LVL65:
.L73:
	.loc 1 926 0 is_stmt 0 discriminator 1
	testl	%eax, %eax
	je	.L97
	.loc 1 928 0 is_stmt 1
	cmpl	%ecx, %eax
	je	.L89
	.loc 1 926 0 discriminator 2
	movl	12(%eax), %eax
.LVL66:
	jmp	.L73
.L97:
	.loc 1 924 0
	movb	$0, -13(%ebp)
	jmp	.L74
.L89:
	.loc 1 929 0
	movb	$1, -13(%ebp)
.L74:
.LVL67:
	.loc 1 935 0
	testw	%di, %di
	movl	%esi, %eax
.LVL68:
	jne	.L77
	movw	udp_port, %ax
	movl	$16384, %edi
.L81:
.LVL69:
.LBB10:
.LBB11:
	.loc 1 106 0
	leal	1(%eax), %edx
	incw	%ax
	movl	$-16384, %eax
	cmove	%eax, %edx
.LVL70:
	.loc 1 110 0
	movl	%esi, %eax
.LVL71:
.L79:
	testl	%eax, %eax
	je	.L98
	.loc 1 111 0
	cmpw	18(%eax), %dx
	jne	.L80
.LVL72:
	.loc 1 112 0
	decw	%di
.LVL73:
	movl	%edx, %eax
.LVL74:
	jne	.L81
	movw	%dx, udp_port
.LVL75:
.L86:
.LBE11:
.LBE10:
	.loc 1 940 0
	movb	$-8, %al
	jmp	.L72
.LVL76:
.L80:
.LBB13:
.LBB12:
	.loc 1 110 0
	movl	12(%eax), %eax
.LVL77:
	jmp	.L79
.L98:
	movw	%dx, udp_port
.LVL78:
	jmp	.L83
.LVL79:
.L87:
.LBE12:
.LBE13:
	.loc 1 944 0
	cmpl	%ecx, %eax
	jne	.L99
.L84:
	.loc 1 943 0 discriminator 2
	movl	12(%eax), %eax
.LVL80:
.L77:
	.loc 1 943 0 discriminator 1
	testl	%eax, %eax
	jne	.L87
	jmp	.L83
.L99:
	.loc 1 949 0
	testb	$4, 8(%ecx)
	je	.L85
	.loc 1 949 0 is_stmt 0 discriminator 1
	testb	$4, 8(%eax)
	jne	.L84
.L85:
	.loc 1 954 0 is_stmt 1
	cmpw	18(%eax), %dx
	jne	.L84
	.loc 1 954 0 is_stmt 0 discriminator 1
	movl	(%ebx), %edi
	cmpl	%edi, (%eax)
	jne	.L84
	jmp	.L86
.LVL81:
.L83:
	.loc 1 967 0 is_stmt 1
	movl	(%ebx), %eax
	.loc 1 969 0
	movw	%dx, 18(%ecx)
	.loc 1 967 0
	movl	%eax, (%ecx)
	.loc 1 980 0
	xorl	%eax, %eax
	.loc 1 972 0
	cmpb	$0, -13(%ebp)
	jne	.L72
	.loc 1 974 0
	movl	%esi, 12(%ecx)
	.loc 1 975 0
	movl	%ecx, udp_pcbs
.LVL82:
.L72:
	.loc 1 981 0
	popl	%edx
	popl	%ebx
	.cfi_restore 3
.LVL83:
	popl	%esi
	.cfi_restore 6
	popl	%edi
	.cfi_restore 7
	popl	%ebp
	.cfi_restore 5
	.cfi_def_cfa 4, 4
	ret
	.cfi_endproc
.LFE25:
	.size	udp_bind, .-udp_bind
	.section	.text.unlikely.udp_bind
.LCOLDE3:
	.section	.text.udp_bind
.LHOTE3:
	.section	.text.unlikely.udp_sendto_if_src,"ax",@progbits
.LCOLDB4:
	.section	.text.udp_sendto_if_src,"ax",@progbits
.LHOTB4:
	.globl	udp_sendto_if_src
	.type	udp_sendto_if_src, @function
udp_sendto_if_src:
.LFB24:
	.loc 1 684 0
	.cfi_startproc
.LVL84:
	pushl	%ebp
	.cfi_def_cfa_offset 8
	.cfi_offset 5, -8
	movl	%esp, %ebp
	.cfi_def_cfa_register 5
	pushl	%edi
	pushl	%esi
	pushl	%ebx
	subl	$28, %esp
	.cfi_offset 7, -12
	.cfi_offset 6, -16
	.cfi_offset 3, -20
	.loc 1 684 0
	movl	8(%ebp), %ebx
	movl	20(%ebp), %eax
	.loc 1 702 0
	testl	%ebx, %ebx
	.loc 1 684 0
	movl	%eax, -28(%ebp)
	.loc 1 702 0
	je	.L111
	cmpl	$0, 16(%ebp)
	je	.L111
	.loc 1 721 0
	cmpw	$0, 18(%ebx)
	je	.L102
.L105:
	.loc 1 731 0
	pushl	%eax
	pushl	%eax
	pushl	$8
	pushl	12(%ebp)
	call	pbuf_header
.LVL85:
	addl	$16, %esp
	testb	%al, %al
	jne	.L103
	movl	12(%ebp), %esi
	jmp	.L104
.L102:
	.loc 1 723 0
	pushl	%edi
	pushl	$0
	pushl	%ebx
	pushl	%ebx
	call	udp_bind
.LVL86:
	.loc 1 724 0
	addl	$16, %esp
	testb	%al, %al
	je	.L105
	jmp	.L101
.LVL87:
.L103:
	.loc 1 733 0
	pushl	%esi
	pushl	$0
	pushl	$8
	pushl	$1
	call	pbuf_alloc
.LVL88:
	movl	%eax, %esi
.LVL89:
	.loc 1 735 0
	addl	$16, %esp
	.loc 1 737 0
	movb	$-1, %al
.LVL90:
	.loc 1 735 0
	testl	%esi, %esi
	je	.L101
	.loc 1 739 0
	movl	12(%ebp), %eax
	cmpw	$0, 8(%eax)
	je	.L104
	.loc 1 741 0
	pushl	%ecx
	pushl	%ecx
	pushl	%eax
	pushl	%esi
	call	pbuf_chain
.LVL91:
	addl	$16, %esp
.LVL92:
.L104:
	.loc 1 756 0
	movzwl	18(%ebx), %eax
	subl	$12, %esp
	.loc 1 755 0
	movl	4(%esi), %edi
.LVL93:
	.loc 1 756 0
	pushl	%eax
	call	lwip_htons
.LVL94:
	movw	%ax, (%edi)
	.loc 1 757 0
	movzwl	-28(%ebp), %eax
	movl	%eax, (%esp)
	call	lwip_htons
.LVL95:
	.loc 1 759 0
	movw	$0, 6(%edi)
	.loc 1 757 0
	movw	%ax, 2(%edi)
	.loc 1 763 0
	addl	$16, %esp
	testb	$8, 16(%ebx)
	je	.L106
	.loc 1 763 0 is_stmt 0 discriminator 1
	movl	16(%ebp), %eax
	movl	(%eax), %eax
	movl	%eax, -28(%ebp)
	andl	$240, %eax
	cmpl	$224, %eax
	jne	.L106
	.loc 1 764 0 is_stmt 1
	orb	$4, 13(%esi)
.L106:
	.loc 1 821 0
	movzwl	8(%esi), %eax
	subl	$12, %esp
	pushl	%eax
	call	lwip_htons
.LVL96:
	.loc 1 826 0
	addl	$16, %esp
	.loc 1 821 0
	movw	%ax, 4(%edi)
	.loc 1 826 0
	testb	$1, 16(%ebx)
	jne	.L107
.LBB14:
	.loc 1 838 0
	movzwl	8(%esi), %eax
	subl	$12, %esp
	pushl	16(%ebp)
	pushl	28(%ebp)
	pushl	%eax
	pushl	$17
	pushl	%esi
	call	ip_chksum_pseudo
.LVL97:
	.loc 1 843 0
	addl	$32, %esp
	.loc 1 844 0
	movl	$-1, %ecx
	testw	%ax, %ax
	cmove	%ecx, %eax
.LVL98:
	.loc 1 846 0
	movw	%ax, 6(%edi)
.LVL99:
.L107:
.LBE14:
	.loc 1 855 0
	movl	16(%ebp), %eax
	movl	(%eax), %eax
	movl	%eax, -28(%ebp)
	andl	$240, %eax
	cmpl	$224, %eax
	jne	.L109
	.loc 1 855 0 is_stmt 0 discriminator 1
	movzbl	28(%ebx), %eax
	jmp	.L110
.L109:
	.loc 1 855 0 discriminator 2
	movzbl	10(%ebx), %eax
.L110:
.LVL100:
	.loc 1 864 0 is_stmt 1 discriminator 4
	pushl	%edx
	pushl	24(%ebp)
	pushl	$17
	movzbl	9(%ebx), %ecx
	pushl	%ecx
	pushl	%eax
	pushl	16(%ebp)
	pushl	28(%ebp)
	pushl	%esi
	call	ip4_output_if_src
.LVL101:
	.loc 1 871 0 discriminator 4
	addl	$32, %esp
	cmpl	12(%ebp), %esi
	.loc 1 864 0 discriminator 4
	movb	%al, %bl
.LVL102:
	.loc 1 871 0 discriminator 4
	je	.L101
	.loc 1 873 0
	subl	$12, %esp
	pushl	%esi
	call	pbuf_free
.LVL103:
	addl	$16, %esp
	.loc 1 879 0
	movb	%bl, %al
	jmp	.L101
.LVL104:
.L111:
	.loc 1 704 0
	movb	$-6, %al
.L101:
	.loc 1 880 0
	leal	-12(%ebp), %esp
	popl	%ebx
	.cfi_restore 3
	popl	%esi
	.cfi_restore 6
	popl	%edi
	.cfi_restore 7
	popl	%ebp
	.cfi_restore 5
	.cfi_def_cfa 4, 4
	ret
	.cfi_endproc
.LFE24:
	.size	udp_sendto_if_src, .-udp_sendto_if_src
	.section	.text.unlikely.udp_sendto_if_src
.LCOLDE4:
	.section	.text.udp_sendto_if_src
.LHOTE4:
	.section	.text.unlikely.udp_sendto_if,"ax",@progbits
.LCOLDB5:
	.section	.text.udp_sendto_if,"ax",@progbits
.LHOTB5:
	.globl	udp_sendto_if
	.type	udp_sendto_if, @function
udp_sendto_if:
.LFB23:
	.loc 1 615 0
	.cfi_startproc
.LVL105:
	pushl	%ebp
	.cfi_def_cfa_offset 8
	.cfi_offset 5, -8
	movl	%esp, %ebp
	.cfi_def_cfa_register 5
	pushl	%edi
	pushl	%esi
	pushl	%ebx
	subl	$12, %esp
	.cfi_offset 7, -12
	.cfi_offset 6, -16
	.cfi_offset 3, -20
	.loc 1 615 0
	movl	8(%ebp), %edx
	movl	16(%ebp), %esi
	movl	20(%ebp), %ecx
	movl	24(%ebp), %ebx
	.loc 1 629 0
	testl	%edx, %edx
	je	.L124
	testl	%esi, %esi
	je	.L124
	.loc 1 656 0
	movl	(%edx), %edi
	testl	%edi, %edi
	je	.L121
	.loc 1 656 0 is_stmt 0 discriminator 2
	movl	%edi, %eax
	andl	$240, %eax
	cmpl	$224, %eax
	jne	.L122
.L121:
	.loc 1 660 0 is_stmt 1
	leal	4(%ebx), %eax
.LVL106:
	jmp	.L123
.LVL107:
.L122:
	.loc 1 664 0
	cmpl	4(%ebx), %edi
	.loc 1 630 0
	movb	$-6, %al
	.loc 1 664 0
	jne	.L120
	.loc 1 656 0
	movl	%edx, %eax
.L123:
.LVL108:
	.loc 1 675 0
	pushl	%edi
	pushl	%edi
	pushl	%eax
	movzwl	%cx, %eax
.LVL109:
	pushl	%ebx
.LVL110:
	pushl	%eax
.LVL111:
	pushl	%esi
.LVL112:
	pushl	12(%ebp)
.LVL113:
	pushl	%edx
.LVL114:
	call	udp_sendto_if_src
.LVL115:
	addl	$32, %esp
	jmp	.L120
.L124:
	.loc 1 630 0
	movb	$-6, %al
.L120:
	.loc 1 677 0
	leal	-12(%ebp), %esp
	popl	%ebx
	.cfi_restore 3
	popl	%esi
	.cfi_restore 6
	popl	%edi
	.cfi_restore 7
	popl	%ebp
	.cfi_restore 5
	.cfi_def_cfa 4, 4
	ret
	.cfi_endproc
.LFE23:
	.size	udp_sendto_if, .-udp_sendto_if
	.section	.text.unlikely.udp_sendto_if
.LCOLDE5:
	.section	.text.udp_sendto_if
.LHOTE5:
	.section	.text.unlikely.udp_sendto,"ax",@progbits
.LCOLDB6:
	.section	.text.udp_sendto,"ax",@progbits
.LHOTB6:
	.globl	udp_sendto
	.type	udp_sendto, @function
udp_sendto:
.LFB22:
	.loc 1 529 0
	.cfi_startproc
.LVL116:
	pushl	%ebp
	.cfi_def_cfa_offset 8
	.cfi_offset 5, -8
	movl	%esp, %ebp
	.cfi_def_cfa_register 5
	pushl	%edi
	pushl	%esi
	pushl	%ebx
	subl	$12, %esp
	.cfi_offset 7, -12
	.cfi_offset 6, -16
	.cfi_offset 3, -20
	.loc 1 529 0
	movl	8(%ebp), %edi
	movl	16(%ebp), %ebx
.LVL117:
	movl	20(%ebp), %esi
	.loc 1 544 0
	testl	%edi, %edi
	je	.L133
	testl	%ebx, %ebx
	je	.L133
	.loc 1 551 0
	movl	(%ebx), %edx
	movl	%ebx, %eax
	andl	$240, %edx
	cmpl	$224, %edx
	jne	.L132
	.loc 1 565 0
	movl	24(%edi), %edx
	testl	%edx, %edx
	je	.L132
	.loc 1 567 0 discriminator 1
	cmpl	ip_addr_broadcast, %edx
	leal	24(%edi), %eax
	cmove	%ebx, %eax
.L132:
.LVL118:
	.loc 1 575 0
	subl	$12, %esp
	pushl	%eax
	call	ip4_route
.LVL119:
	movl	%eax, %edx
.LVL120:
	.loc 1 578 0
	addl	$16, %esp
	.loc 1 583 0
	movb	$-4, %al
.LVL121:
	.loc 1 578 0
	testl	%edx, %edx
	je	.L131
	.loc 1 588 0
	subl	$12, %esp
	movzwl	%si, %esi
	pushl	%edx
	pushl	%esi
	pushl	%ebx
	pushl	12(%ebp)
	pushl	%edi
	call	udp_sendto_if
.LVL122:
	addl	$32, %esp
	jmp	.L131
.LVL123:
.L133:
	.loc 1 545 0
	movb	$-6, %al
.LVL124:
.L131:
	.loc 1 590 0
	leal	-12(%ebp), %esp
	popl	%ebx
	.cfi_restore 3
	popl	%esi
	.cfi_restore 6
	popl	%edi
	.cfi_restore 7
	popl	%ebp
	.cfi_restore 5
	.cfi_def_cfa 4, 4
	ret
	.cfi_endproc
.LFE22:
	.size	udp_sendto, .-udp_sendto
	.section	.text.unlikely.udp_sendto
.LCOLDE6:
	.section	.text.udp_sendto
.LHOTE6:
	.section	.text.unlikely.udp_send,"ax",@progbits
.LCOLDB7:
	.section	.text.udp_send,"ax",@progbits
.LHOTB7:
	.globl	udp_send
	.type	udp_send, @function
udp_send:
.LFB21:
	.loc 1 481 0
	.cfi_startproc
.LVL125:
	pushl	%ebp
	.cfi_def_cfa_offset 8
	.cfi_offset 5, -8
	movb	$-6, %al
	movl	%esp, %ebp
	.cfi_def_cfa_register 5
	subl	$8, %esp
	.loc 1 481 0
	movl	8(%ebp), %edx
	.loc 1 482 0
	testl	%edx, %edx
	je	.L141
	.loc 1 487 0
	movzwl	20(%edx), %eax
	pushl	%eax
	leal	4(%edx), %eax
	pushl	%eax
	pushl	12(%ebp)
	pushl	%edx
	call	udp_sendto
.LVL126:
	addl	$16, %esp
.L141:
	.loc 1 488 0
	leave
	.cfi_restore 5
	.cfi_def_cfa 4, 4
	ret
	.cfi_endproc
.LFE21:
	.size	udp_send, .-udp_send
	.section	.text.unlikely.udp_send
.LCOLDE7:
	.section	.text.udp_send
.LHOTE7:
	.section	.text.unlikely.udp_connect,"ax",@progbits
.LCOLDB8:
	.section	.text.udp_connect,"ax",@progbits
.LHOTB8:
	.globl	udp_connect
	.type	udp_connect, @function
udp_connect:
.LFB26:
	.loc 1 1003 0
	.cfi_startproc
.LVL127:
	pushl	%ebp
	.cfi_def_cfa_offset 8
	.cfi_offset 5, -8
	movl	%esp, %ebp
	.cfi_def_cfa_register 5
	pushl	%edi
	pushl	%esi
	pushl	%ebx
	.cfi_offset 7, -12
	.cfi_offset 6, -16
	.cfi_offset 3, -20
	.loc 1 1003 0
	movl	8(%ebp), %ebx
	movl	12(%ebp), %esi
	movl	16(%ebp), %edi
	.loc 1 1006 0
	testl	%ebx, %ebx
	je	.L151
	testl	%esi, %esi
	je	.L151
	.loc 1 1010 0
	cmpw	$0, 18(%ebx)
	je	.L147
.L149:
	.loc 1 1017 0
	movl	(%esi), %eax
	.loc 1 1027 0
	movl	udp_pcbs, %edx
.LVL128:
	.loc 1 1018 0
	movw	%di, 20(%ebx)
	.loc 1 1019 0
	orb	$4, 16(%ebx)
	.loc 1 1017 0
	movl	%eax, 4(%ebx)
	.loc 1 1027 0
	movl	%edx, %eax
	jmp	.L148
.LVL129:
.L147:
.LBB15:
	.loc 1 1011 0
	pushl	$0
	pushl	%ebx
	pushl	%ebx
	call	udp_bind
.LVL130:
	.loc 1 1012 0
	addl	$12, %esp
	testb	%al, %al
	je	.L149
	jmp	.L146
.LVL131:
.L150:
.LBE15:
	.loc 1 1028 0
	cmpl	%ebx, %eax
	je	.L153
	.loc 1 1027 0 discriminator 2
	movl	12(%eax), %eax
.LVL132:
.L148:
	.loc 1 1027 0 discriminator 1
	testl	%eax, %eax
	jne	.L150
	.loc 1 1034 0
	movl	%edx, 12(%ebx)
	.loc 1 1035 0
	movl	%ebx, udp_pcbs
	.loc 1 1036 0
	jmp	.L146
.LVL133:
.L151:
	.loc 1 1007 0
	movb	$-6, %al
	jmp	.L146
.LVL134:
.L153:
	.loc 1 1030 0
	xorl	%eax, %eax
.LVL135:
.L146:
	.loc 1 1037 0
	leal	-12(%ebp), %esp
	popl	%ebx
	.cfi_restore 3
	popl	%esi
	.cfi_restore 6
	popl	%edi
	.cfi_restore 7
	popl	%ebp
	.cfi_restore 5
	.cfi_def_cfa 4, 4
	ret
	.cfi_endproc
.LFE26:
	.size	udp_connect, .-udp_connect
	.section	.text.unlikely.udp_connect
.LCOLDE8:
	.section	.text.udp_connect
.LHOTE8:
	.section	.text.unlikely.udp_disconnect,"ax",@progbits
.LCOLDB9:
	.section	.text.udp_disconnect,"ax",@progbits
.LHOTB9:
	.globl	udp_disconnect
	.type	udp_disconnect, @function
udp_disconnect:
.LFB27:
	.loc 1 1047 0
	.cfi_startproc
.LVL136:
	pushl	%ebp
	.cfi_def_cfa_offset 8
	.cfi_offset 5, -8
	movl	%esp, %ebp
	.cfi_def_cfa_register 5
	.loc 1 1047 0
	movl	8(%ebp), %eax
	.loc 1 1060 0
	andb	$-5, 16(%eax)
	.loc 1 1054 0
	movl	$0, 4(%eax)
	.loc 1 1058 0
	movw	$0, 20(%eax)
	.loc 1 1061 0
	popl	%ebp
	.cfi_restore 5
	.cfi_def_cfa 4, 4
	ret
	.cfi_endproc
.LFE27:
	.size	udp_disconnect, .-udp_disconnect
	.section	.text.unlikely.udp_disconnect
.LCOLDE9:
	.section	.text.udp_disconnect
.LHOTE9:
	.section	.text.unlikely.udp_recv,"ax",@progbits
.LCOLDB10:
	.section	.text.udp_recv,"ax",@progbits
.LHOTB10:
	.globl	udp_recv
	.type	udp_recv, @function
udp_recv:
.LFB28:
	.loc 1 1075 0
	.cfi_startproc
.LVL137:
	pushl	%ebp
	.cfi_def_cfa_offset 8
	.cfi_offset 5, -8
	movl	%esp, %ebp
	.cfi_def_cfa_register 5
	.loc 1 1075 0
	movl	8(%ebp), %eax
	.loc 1 1077 0
	movl	12(%ebp), %edx
	movl	%edx, 32(%eax)
	.loc 1 1078 0
	movl	16(%ebp), %edx
	movl	%edx, 36(%eax)
	.loc 1 1079 0
	popl	%ebp
	.cfi_restore 5
	.cfi_def_cfa 4, 4
	ret
	.cfi_endproc
.LFE28:
	.size	udp_recv, .-udp_recv
	.section	.text.unlikely.udp_recv
.LCOLDE10:
	.section	.text.udp_recv
.LHOTE10:
	.section	.text.unlikely.udp_remove,"ax",@progbits
.LCOLDB11:
	.section	.text.udp_remove,"ax",@progbits
.LHOTB11:
	.globl	udp_remove
	.type	udp_remove, @function
udp_remove:
.LFB29:
	.loc 1 1092 0
	.cfi_startproc
.LVL138:
	pushl	%ebp
	.cfi_def_cfa_offset 8
	.cfi_offset 5, -8
	movl	%esp, %ebp
	.cfi_def_cfa_register 5
	subl	$8, %esp
	.loc 1 1097 0
	movl	udp_pcbs, %edx
	.loc 1 1092 0
	movl	8(%ebp), %eax
	.loc 1 1097 0
	cmpl	%eax, %edx
	jne	.L161
	.loc 1 1099 0
	movl	12(%eax), %edx
	movl	%edx, udp_pcbs
	jmp	.L162
.LVL139:
.L164:
	.loc 1 1104 0
	movl	12(%edx), %ecx
	testl	%ecx, %ecx
	jne	.L169
.L163:
	.loc 1 1092 0 discriminator 1
	movl	%ecx, %edx
.LVL140:
.L161:
	.loc 1 1102 0 discriminator 1
	testl	%edx, %edx
	jne	.L164
	jmp	.L162
.L169:
	.loc 1 1104 0 discriminator 1
	cmpl	%ecx, %eax
	jne	.L163
	.loc 1 1106 0
	movl	12(%eax), %ecx
	movl	%ecx, 12(%edx)
.LVL141:
.L162:
	.loc 1 1111 0
	pushl	%edx
	pushl	%edx
	pushl	%eax
	pushl	$1
	call	memp_free
.LVL142:
	.loc 1 1112 0
	addl	$16, %esp
	leave
	.cfi_restore 5
	.cfi_def_cfa 4, 4
	ret
	.cfi_endproc
.LFE29:
	.size	udp_remove, .-udp_remove
	.section	.text.unlikely.udp_remove
.LCOLDE11:
	.section	.text.udp_remove
.LHOTE11:
	.section	.text.unlikely.udp_new,"ax",@progbits
.LCOLDB12:
	.section	.text.udp_new,"ax",@progbits
.LHOTB12:
	.globl	udp_new
	.type	udp_new, @function
udp_new:
.LFB30:
	.loc 1 1125 0
	.cfi_startproc
	pushl	%ebp
	.cfi_def_cfa_offset 8
	.cfi_offset 5, -8
	movl	%esp, %ebp
	.cfi_def_cfa_register 5
	pushl	%edi
	subl	$16, %esp
	.cfi_offset 7, -12
	.loc 1 1127 0
	pushl	$1
	call	memp_malloc
.LVL143:
	.loc 1 1129 0
	addl	$16, %esp
	testl	%eax, %eax
	.loc 1 1127 0
	movl	%eax, %edx
.LVL144:
	.loc 1 1129 0
	je	.L171
	.loc 1 1134 0
	movl	$10, %ecx
	xorl	%eax, %eax
.LVL145:
	movl	%edx, %edi
	rep stosl
	.loc 1 1135 0
	movb	$-1, 10(%edx)
	.loc 1 1137 0
	movb	$-1, 28(%edx)
.L171:
	.loc 1 1141 0
	movl	%edx, %eax
	movl	-4(%ebp), %edi
	leave
	.cfi_restore 5
	.cfi_restore 7
	.cfi_def_cfa 4, 4
	ret
	.cfi_endproc
.LFE30:
	.size	udp_new, .-udp_new
	.section	.text.unlikely.udp_new
.LCOLDE12:
	.section	.text.udp_new
.LHOTE12:
	.section	.text.unlikely.udp_new_ip_type,"ax",@progbits
.LCOLDB13:
	.section	.text.udp_new_ip_type,"ax",@progbits
.LHOTB13:
	.globl	udp_new_ip_type
	.type	udp_new_ip_type, @function
udp_new_ip_type:
.LFB31:
	.loc 1 1157 0
	.cfi_startproc
.LVL146:
	pushl	%ebp
	.cfi_def_cfa_offset 8
	.cfi_offset 5, -8
	movl	%esp, %ebp
	.cfi_def_cfa_register 5
	.loc 1 1169 0
	popl	%ebp
	.cfi_restore 5
	.cfi_def_cfa 4, 4
	.loc 1 1159 0
	jmp	udp_new
.LVL147:
	.cfi_endproc
.LFE31:
	.size	udp_new_ip_type, .-udp_new_ip_type
	.section	.text.unlikely.udp_new_ip_type
.LCOLDE13:
	.section	.text.udp_new_ip_type
.LHOTE13:
	.section	.text.unlikely.udp_netif_ip_addr_changed,"ax",@progbits
.LCOLDB14:
	.section	.text.udp_netif_ip_addr_changed,"ax",@progbits
.LHOTB14:
	.globl	udp_netif_ip_addr_changed
	.type	udp_netif_ip_addr_changed, @function
udp_netif_ip_addr_changed:
.LFB32:
	.loc 1 1177 0
	.cfi_startproc
.LVL148:
	pushl	%ebp
	.cfi_def_cfa_offset 8
	.cfi_offset 5, -8
	movl	%esp, %ebp
	.cfi_def_cfa_register 5
	pushl	%ebx
	.cfi_offset 3, -12
	.loc 1 1177 0
	movl	8(%ebp), %edx
	movl	12(%ebp), %ecx
	.loc 1 1180 0
	testl	%edx, %edx
	je	.L178
	.loc 1 1180 0 discriminator 1
	cmpl	$0, (%edx)
	je	.L178
	testl	%ecx, %ecx
	je	.L178
	.loc 1 1180 0 is_stmt 0 discriminator 3
	cmpl	$0, (%ecx)
	.loc 1 1181 0 is_stmt 1 discriminator 3
	movl	udp_pcbs, %eax
	.loc 1 1180 0 discriminator 3
	je	.L178
.L181:
.LVL149:
	.loc 1 1181 0 discriminator 1
	testl	%eax, %eax
	je	.L178
	.loc 1 1183 0
	movl	(%edx), %ebx
	cmpl	%ebx, (%eax)
	jne	.L182
	.loc 1 1186 0
	movl	(%ecx), %ebx
	movl	%ebx, (%eax)
.LVL150:
.L182:
	.loc 1 1181 0 discriminator 2
	movl	12(%eax), %eax
.LVL151:
	jmp	.L181
.LVL152:
.L178:
	.loc 1 1190 0
	popl	%ebx
	.cfi_restore 3
	popl	%ebp
	.cfi_restore 5
	.cfi_def_cfa 4, 4
	ret
	.cfi_endproc
.LFE32:
	.size	udp_netif_ip_addr_changed, .-udp_netif_ip_addr_changed
	.section	.text.unlikely.udp_netif_ip_addr_changed
.LCOLDE14:
	.section	.text.udp_netif_ip_addr_changed
.LHOTE14:
	.globl	udp_pcbs
	.section	.bss.udp_pcbs,"aw",@nobits
	.align 4
	.type	udp_pcbs, @object
	.size	udp_pcbs, 4
udp_pcbs:
	.zero	4
	.section	.data.udp_port,"aw",@progbits
	.align 2
	.type	udp_port, @object
	.size	udp_port, 2
udp_port:
	.value	-16384
	.text
.Letext0:
	.section	.text.unlikely.udp_input_local_match
.Letext_cold0:
	.file 2 "././platform/mcu/moc108/include/lwip-2.0.2/arch/cc.h"
	.file 3 "./kernel/protocols/net/include/lwip/err.h"
	.file 4 "./kernel/protocols/net/include/lwip/pbuf.h"
	.file 5 "./kernel/protocols/net/include/lwip/ip4_addr.h"
	.file 6 "./kernel/protocols/net/include/lwip/ip_addr.h"
	.file 7 "./kernel/protocols/net/include/lwip/memp.h"
	.file 8 "./kernel/protocols/net/include/lwip/netif.h"
	.file 9 "./kernel/protocols/net/include/lwip/prot/ip4.h"
	.file 10 "./kernel/protocols/net/include/lwip/ip.h"
	.file 11 "./kernel/protocols/net/include/lwip/prot/udp.h"
	.file 12 "./kernel/protocols/net/include/lwip/udp.h"
	.file 13 "./kernel/protocols/net/include/lwip/icmp.h"
	.file 14 "./include/aos/log.h"
	.file 15 "./kernel/protocols/net/include/lwip/def.h"
	.file 16 "./kernel/protocols/net/include/lwip/inet_chksum.h"
	.file 17 "./kernel/protocols/net/include/lwip/ip4.h"
	.section	.note.GNU-stack,"",@progbits
