	.file	"utils_sha1.c"
	.text
.Ltext0:
	.section	.text.unlikely.utils_sha1_init,"ax",@progbits
.LCOLDB0:
	.section	.text.utils_sha1_init,"ax",@progbits
.LHOTB0:
	.section	.text.unlikely.utils_sha1_init
.Ltext_cold0:
	.section	.text.utils_sha1_init
	.globl	utils_sha1_init
	.type	utils_sha1_init, @function
utils_sha1_init:
.LFB2:
	.file 1 "framework/protocol/linkkit/iotkit/base/utils//digest/utils_sha1.c"
	.loc 1 60 0
	.cfi_startproc
.LVL0:
	pushl	%ebp
	.cfi_def_cfa_offset 8
	.cfi_offset 5, -8
	.loc 1 61 0
	movl	$23, %ecx
	xorl	%eax, %eax
	.loc 1 60 0
	movl	%esp, %ebp
	.cfi_def_cfa_register 5
	pushl	%edi
	.cfi_offset 7, -12
	.loc 1 61 0
	movl	8(%ebp), %edi
	rep stosl
	.loc 1 62 0
	popl	%edi
	.cfi_restore 7
	popl	%ebp
	.cfi_restore 5
	.cfi_def_cfa 4, 4
	ret
	.cfi_endproc
.LFE2:
	.size	utils_sha1_init, .-utils_sha1_init
	.section	.text.unlikely.utils_sha1_init
.LCOLDE0:
	.section	.text.utils_sha1_init
.LHOTE0:
	.section	.text.unlikely.utils_sha1_free,"ax",@progbits
.LCOLDB1:
	.section	.text.utils_sha1_free,"ax",@progbits
.LHOTB1:
	.globl	utils_sha1_free
	.type	utils_sha1_free, @function
utils_sha1_free:
.LFB3:
	.loc 1 65 0
	.cfi_startproc
.LVL1:
	pushl	%ebp
	.cfi_def_cfa_offset 8
	.cfi_offset 5, -8
	movl	%esp, %ebp
	.cfi_def_cfa_register 5
	.loc 1 65 0
	movl	8(%ebp), %eax
	.loc 1 66 0
	testl	%eax, %eax
	leal	92(%eax), %edx
	je	.L3
.L5:
.LVL2:
.LBB6:
.LBB7:
	.loc 1 31 0
	cmpl	%edx, %eax
	je	.L3
.LVL3:
	.loc 1 32 0
	movb	$0, (%eax)
	incl	%eax
.LVL4:
	jmp	.L5
.LVL5:
.L3:
.LBE7:
.LBE6:
	.loc 1 71 0
	popl	%ebp
	.cfi_restore 5
	.cfi_def_cfa 4, 4
	ret
	.cfi_endproc
.LFE3:
	.size	utils_sha1_free, .-utils_sha1_free
	.section	.text.unlikely.utils_sha1_free
.LCOLDE1:
	.section	.text.utils_sha1_free
.LHOTE1:
	.section	.text.unlikely.utils_sha1_clone,"ax",@progbits
.LCOLDB2:
	.section	.text.utils_sha1_clone,"ax",@progbits
.LHOTB2:
	.globl	utils_sha1_clone
	.type	utils_sha1_clone, @function
utils_sha1_clone:
.LFB4:
	.loc 1 75 0
	.cfi_startproc
.LVL6:
	pushl	%ebp
	.cfi_def_cfa_offset 8
	.cfi_offset 5, -8
	.loc 1 76 0
	movl	$23, %ecx
	.loc 1 75 0
	movl	%esp, %ebp
	.cfi_def_cfa_register 5
	pushl	%edi
	pushl	%esi
	.cfi_offset 7, -12
	.cfi_offset 6, -16
	.loc 1 76 0
	movl	8(%ebp), %edi
	.loc 1 75 0
	movl	12(%ebp), %esi
	.loc 1 76 0
	rep movsl
	.loc 1 77 0
	popl	%esi
	.cfi_restore 6
	popl	%edi
	.cfi_restore 7
	popl	%ebp
	.cfi_restore 5
	.cfi_def_cfa 4, 4
	ret
	.cfi_endproc
.LFE4:
	.size	utils_sha1_clone, .-utils_sha1_clone
	.section	.text.unlikely.utils_sha1_clone
.LCOLDE2:
	.section	.text.utils_sha1_clone
.LHOTE2:
	.section	.text.unlikely.utils_sha1_starts,"ax",@progbits
.LCOLDB3:
	.section	.text.utils_sha1_starts,"ax",@progbits
.LHOTB3:
	.globl	utils_sha1_starts
	.type	utils_sha1_starts, @function
utils_sha1_starts:
.LFB5:
	.loc 1 83 0
	.cfi_startproc
.LVL7:
	pushl	%ebp
	.cfi_def_cfa_offset 8
	.cfi_offset 5, -8
	movl	%esp, %ebp
	.cfi_def_cfa_register 5
	.loc 1 83 0
	movl	8(%ebp), %eax
	.loc 1 84 0
	movl	$0, (%eax)
	.loc 1 85 0
	movl	$0, 4(%eax)
	.loc 1 87 0
	movl	$1732584193, 8(%eax)
	.loc 1 88 0
	movl	$-271733879, 12(%eax)
	.loc 1 89 0
	movl	$-1732584194, 16(%eax)
	.loc 1 90 0
	movl	$271733878, 20(%eax)
	.loc 1 91 0
	movl	$-1009589776, 24(%eax)
	.loc 1 92 0
	popl	%ebp
	.cfi_restore 5
	.cfi_def_cfa 4, 4
	ret
	.cfi_endproc
.LFE5:
	.size	utils_sha1_starts, .-utils_sha1_starts
	.section	.text.unlikely.utils_sha1_starts
.LCOLDE3:
	.section	.text.utils_sha1_starts
.LHOTE3:
	.section	.text.unlikely.utils_sha1_process,"ax",@progbits
.LCOLDB4:
	.section	.text.utils_sha1_process,"ax",@progbits
.LHOTB4:
	.globl	utils_sha1_process
	.type	utils_sha1_process, @function
utils_sha1_process:
.LFB6:
	.loc 1 95 0
	.cfi_startproc
.LVL8:
	pushl	%ebp
	.cfi_def_cfa_offset 8
	.cfi_offset 5, -8
	movl	%esp, %ebp
	.cfi_def_cfa_register 5
	pushl	%edi
	pushl	%esi
	pushl	%ebx
	subl	$92, %esp
	.cfi_offset 7, -12
	.cfi_offset 6, -16
	.cfi_offset 3, -20
	.loc 1 95 0
	movl	12(%ebp), %eax
	movl	(%eax), %esi
	movl	8(%eax), %edx
	movl	16(%eax), %edi
	movl	4(%eax), %ebx
	movl	12(%eax), %ecx
	bswap	%esi
	bswap	%edx
	bswap	%edi
	movl	%esi, -48(%ebp)
.LVL9:
	movl	%edx, -40(%ebp)
	movl	%edi, -52(%ebp)
	movl	24(%eax), %esi
	bswap	%ebx
	movl	20(%eax), %edi
	movl	32(%eax), %edx
	bswap	%ecx
	movl	%ebx, -96(%ebp)
.LVL10:
	movl	%ecx, -44(%ebp)
.LVL11:
	bswap	%esi
	movl	28(%eax), %ebx
	movl	36(%eax), %ecx
	bswap	%edi
	bswap	%edx
	movl	%esi, -60(%ebp)
	movl	%edi, -56(%ebp)
.LVL12:
	movl	%edx, -64(%ebp)
	movl	44(%eax), %edi
	movl	40(%eax), %edx
	bswap	%ebx
	movl	48(%eax), %esi
	bswap	%ecx
	movl	%ebx, -92(%ebp)
.LVL13:
	movl	%ecx, -68(%ebp)
	bswap	%edx
	bswap	%edi
	bswap	%esi
	movl	%edx, -72(%ebp)
	movl	%edi, -76(%ebp)
	movl	%esi, -80(%ebp)
	movl	52(%eax), %ebx
	movl	56(%eax), %edx
	movl	60(%eax), %ecx
	.loc 1 129 0
	movl	8(%ebp), %eax
.LVL14:
	bswap	%ebx
	bswap	%edx
	bswap	%ecx
	movl	%ebx, -16(%ebp)
	movl	8(%eax), %eax
	movl	%edx, -20(%ebp)
	movl	%ecx, -24(%ebp)
	movl	%eax, -84(%ebp)
.LVL15:
	.loc 1 130 0
	movl	8(%ebp), %eax
.LVL16:
	movl	12(%eax), %eax
.LVL17:
	movl	%eax, -100(%ebp)
.LVL18:
	.loc 1 131 0
	movl	8(%ebp), %eax
.LVL19:
	.loc 1 138 0
	movl	-100(%ebp), %esi
	.loc 1 131 0
	movl	16(%eax), %eax
	.loc 1 138 0
	rorl	$2, %esi
	.loc 1 131 0
	movl	%eax, -28(%ebp)
.LVL20:
	.loc 1 132 0
	movl	8(%ebp), %eax
.LVL21:
	movl	-28(%ebp), %edx
	movl	20(%eax), %eax
	movl	%eax, -88(%ebp)
.LVL22:
	.loc 1 133 0
	movl	8(%ebp), %eax
.LVL23:
	xorl	-88(%ebp), %edx
	andl	-100(%ebp), %edx
	movl	24(%eax), %eax
	xorl	-88(%ebp), %edx
	movl	%eax, -104(%ebp)
.LVL24:
	movl	-84(%ebp), %eax
.LVL25:
	movl	-104(%ebp), %edi
	roll	$5, %eax
	leal	1518500249(%edi,%eax), %eax
	addl	%eax, %edx
	movl	-28(%ebp), %eax
	.loc 1 138 0
	addl	-48(%ebp), %edx
.LVL26:
	xorl	%esi, %eax
	andl	-84(%ebp), %eax
	xorl	-28(%ebp), %eax
	movl	-88(%ebp), %edi
	.loc 1 139 0
	movl	-84(%ebp), %ebx
	leal	1518500249(%edi,%eax), %ecx
	addl	-96(%ebp), %ecx
	movl	%edx, %eax
	rorl	$2, %ebx
	roll	$5, %eax
	movl	%esi, %edi
	movl	%ebx, -32(%ebp)
	xorl	%ebx, %edi
	movl	-28(%ebp), %ebx
	andl	%edx, %edi
	.loc 1 140 0
	rorl	$2, %edx
.LVL27:
	.loc 1 139 0
	addl	%eax, %ecx
.LVL28:
	movl	-40(%ebp), %eax
	xorl	%esi, %edi
	leal	1518500249(%eax,%ebx), %eax
	movl	-44(%ebp), %ebx
	addl	%eax, %edi
	.loc 1 140 0
	movl	%ecx, %eax
	roll	$5, %eax
	leal	1518500249(%ebx,%esi), %esi
.LVL29:
	movl	-52(%ebp), %ebx
	addl	%eax, %edi
.LVL30:
	movl	-32(%ebp), %eax
	xorl	%edx, %eax
	andl	%ecx, %eax
	xorl	-32(%ebp), %eax
	.loc 1 141 0
	rorl	$2, %ecx
.LVL31:
	addl	%esi, %eax
	movl	%edi, %esi
	roll	$5, %esi
	addl	%esi, %eax
.LVL32:
	movl	%edx, %esi
	xorl	%ecx, %esi
	andl	%edi, %esi
	xorl	%edx, %esi
	movl	%esi, -36(%ebp)
	movl	-32(%ebp), %esi
	leal	1518500249(%ebx,%esi), %ebx
	movl	-36(%ebp), %esi
	addl	%ebx, %esi
	.loc 1 142 0
	movl	%eax, %ebx
	rorl	$2, %edi
.LVL33:
	roll	$5, %ebx
	movl	%edi, -32(%ebp)
.LVL34:
	addl	%ebx, %esi
.LVL35:
	movl	%ecx, %ebx
	xorl	%edi, %ebx
	movl	-56(%ebp), %edi
.LVL36:
	andl	%eax, %ebx
	.loc 1 143 0
	rorl	$2, %eax
.LVL37:
	xorl	%ecx, %ebx
	leal	1518500249(%edi,%edx), %edx
.LVL38:
	movl	-60(%ebp), %edi
	addl	%edx, %ebx
	movl	%esi, %edx
	roll	$5, %edx
	leal	1518500249(%edi,%ecx), %ecx
.LVL39:
	movl	-92(%ebp), %edi
	addl	%edx, %ebx
.LVL40:
	movl	-32(%ebp), %edx
	xorl	%eax, %edx
	andl	%esi, %edx
	xorl	-32(%ebp), %edx
	.loc 1 144 0
	rorl	$2, %esi
.LVL41:
	addl	%ecx, %edx
	movl	%ebx, %ecx
	roll	$5, %ecx
	addl	%ecx, %edx
.LVL42:
	movl	%eax, %ecx
	xorl	%esi, %ecx
	andl	%ebx, %ecx
	.loc 1 145 0
	rorl	$2, %ebx
.LVL43:
	xorl	%eax, %ecx
	movl	%ecx, -36(%ebp)
	movl	-32(%ebp), %ecx
	movl	%ebx, -32(%ebp)
.LVL44:
	leal	1518500249(%edi,%ecx), %edi
	movl	-36(%ebp), %ecx
.LVL45:
	addl	%edi, %ecx
	movl	%edx, %edi
	roll	$5, %edi
	addl	%edi, %ecx
.LVL46:
	movl	%esi, %edi
	xorl	%ebx, %edi
	movl	-64(%ebp), %ebx
.LVL47:
	andl	%edx, %edi
	.loc 1 146 0
	rorl	$2, %edx
.LVL48:
	xorl	%esi, %edi
	leal	1518500249(%ebx,%eax), %eax
.LVL49:
	movl	-68(%ebp), %ebx
	addl	%eax, %edi
	movl	%ecx, %eax
	roll	$5, %eax
	leal	1518500249(%ebx,%esi), %esi
.LVL50:
	movl	-72(%ebp), %ebx
	addl	%eax, %edi
.LVL51:
	movl	-32(%ebp), %eax
	xorl	%edx, %eax
	andl	%ecx, %eax
	xorl	-32(%ebp), %eax
	.loc 1 147 0
	rorl	$2, %ecx
.LVL52:
	addl	%esi, %eax
	movl	%edi, %esi
	roll	$5, %esi
	addl	%esi, %eax
.LVL53:
	movl	%edx, %esi
	xorl	%ecx, %esi
	andl	%edi, %esi
	.loc 1 148 0
	rorl	$2, %edi
.LVL54:
	xorl	%edx, %esi
	movl	%esi, -36(%ebp)
	movl	-32(%ebp), %esi
	movl	%edi, -32(%ebp)
.LVL55:
	leal	1518500249(%ebx,%esi), %ebx
	movl	-36(%ebp), %esi
.LVL56:
	addl	%ebx, %esi
	movl	%eax, %ebx
	roll	$5, %ebx
	addl	%ebx, %esi
.LVL57:
	movl	%ecx, %ebx
	xorl	%edi, %ebx
	movl	-76(%ebp), %edi
.LVL58:
	andl	%eax, %ebx
	.loc 1 149 0
	rorl	$2, %eax
.LVL59:
	xorl	%ecx, %ebx
	leal	1518500249(%edi,%edx), %edx
.LVL60:
	movl	-80(%ebp), %edi
	addl	%edx, %ebx
	movl	%esi, %edx
	roll	$5, %edx
	leal	1518500249(%edi,%ecx), %ecx
.LVL61:
	movl	-16(%ebp), %edi
	addl	%edx, %ebx
.LVL62:
	movl	-32(%ebp), %edx
	xorl	%eax, %edx
	andl	%esi, %edx
	xorl	-32(%ebp), %edx
	.loc 1 150 0
	rorl	$2, %esi
.LVL63:
	addl	%ecx, %edx
	movl	%ebx, %ecx
	roll	$5, %ecx
	addl	%ecx, %edx
.LVL64:
	movl	%eax, %ecx
	xorl	%esi, %ecx
	andl	%ebx, %ecx
	xorl	%eax, %ecx
	movl	%ecx, -36(%ebp)
	movl	-32(%ebp), %ecx
	leal	1518500249(%edi,%ecx), %edi
	movl	-36(%ebp), %ecx
	addl	%edi, %ecx
	.loc 1 151 0
	movl	%edx, %edi
	roll	$5, %edi
	rorl	$2, %ebx
.LVL65:
	addl	%edi, %ecx
.LVL66:
	movl	%esi, %edi
	movl	%ebx, -36(%ebp)
.LVL67:
	xorl	%ebx, %edi
	movl	-20(%ebp), %ebx
.LVL68:
	andl	%edx, %edi
	.loc 1 152 0
	rorl	$2, %edx
.LVL69:
	xorl	%esi, %edi
	leal	1518500249(%ebx,%eax), %eax
.LVL70:
	movl	-24(%ebp), %ebx
	addl	%eax, %edi
	movl	%ecx, %eax
	roll	$5, %eax
	leal	1518500249(%ebx,%esi), %esi
.LVL71:
	addl	%eax, %edi
.LVL72:
	movl	-36(%ebp), %eax
	xorl	%edx, %eax
	andl	%ecx, %eax
	xorl	-36(%ebp), %eax
	.loc 1 153 0
	rorl	$2, %ecx
.LVL73:
	addl	%esi, %eax
	movl	%edi, %esi
	roll	$5, %esi
	addl	%esi, %eax
.LVL74:
	.loc 1 154 0
	movl	-48(%ebp), %esi
	xorl	-40(%ebp), %esi
	xorl	-64(%ebp), %esi
	xorl	-16(%ebp), %esi
.LVL75:
	roll	%esi
.LVL76:
	movl	%esi, -32(%ebp)
.LVL77:
	movl	%edx, %esi
.LVL78:
	movl	-32(%ebp), %ebx
	xorl	%ecx, %esi
	andl	%edi, %esi
	rorl	$2, %edi
.LVL79:
	xorl	%edx, %esi
	movl	%esi, -48(%ebp)
.LVL80:
	movl	-36(%ebp), %esi
	leal	1518500249(%esi,%ebx), %ebx
	movl	-48(%ebp), %esi
	movl	%edi, -48(%ebp)
	addl	%ebx, %esi
	movl	%eax, %ebx
	roll	$5, %ebx
	addl	%ebx, %esi
.LVL81:
	.loc 1 155 0
	movl	-96(%ebp), %ebx
	xorl	-44(%ebp), %ebx
	xorl	-68(%ebp), %ebx
	xorl	-20(%ebp), %ebx
.LVL82:
	roll	%ebx
.LVL83:
	movl	%ebx, -36(%ebp)
.LVL84:
	movl	%ecx, %ebx
.LVL85:
	xorl	%edi, %ebx
	movl	-36(%ebp), %edi
.LVL86:
	andl	%eax, %ebx
	rorl	$2, %eax
.LVL87:
	xorl	%ecx, %ebx
	leal	1518500249(%edx,%edi), %edx
.LVL88:
	addl	%edx, %ebx
	movl	%esi, %edx
	roll	$5, %edx
	addl	%edx, %ebx
.LVL89:
	.loc 1 156 0
	movl	-40(%ebp), %edx
	xorl	-52(%ebp), %edx
	xorl	-72(%ebp), %edx
	xorl	-24(%ebp), %edx
.LVL90:
	roll	%edx
.LVL91:
	movl	%edx, -40(%ebp)
.LVL92:
	movl	-48(%ebp), %edx
.LVL93:
	movl	-40(%ebp), %edi
	xorl	%eax, %edx
	andl	%esi, %edx
	xorl	-48(%ebp), %edx
	leal	1518500249(%ecx,%edi), %ecx
.LVL94:
	rorl	$2, %esi
.LVL95:
	addl	%ecx, %edx
	movl	%ebx, %ecx
	roll	$5, %ecx
	addl	%ecx, %edx
.LVL96:
	.loc 1 157 0
	movl	-44(%ebp), %ecx
	xorl	-56(%ebp), %ecx
	xorl	-76(%ebp), %ecx
	xorl	-32(%ebp), %ecx
.LVL97:
	roll	%ecx
.LVL98:
	movl	%ecx, -44(%ebp)
.LVL99:
	movl	%eax, %ecx
.LVL100:
	movl	-44(%ebp), %edi
	xorl	%esi, %ecx
	andl	%ebx, %ecx
	rorl	$2, %ebx
.LVL101:
	xorl	%eax, %ecx
	movl	%ecx, -96(%ebp)
	movl	-48(%ebp), %ecx
	leal	1518500249(%ecx,%edi), %edi
	movl	-96(%ebp), %ecx
	movl	%ebx, -96(%ebp)
	addl	%edi, %ecx
	movl	%edx, %edi
	roll	$5, %edi
	addl	%edi, %ecx
.LVL102:
	.loc 1 165 0
	movl	-52(%ebp), %edi
	xorl	-60(%ebp), %edi
	xorl	-80(%ebp), %edi
	xorl	-36(%ebp), %edi
.LVL103:
	roll	%edi
.LVL104:
	movl	%edi, -48(%ebp)
.LVL105:
	movl	%esi, %edi
.LVL106:
	xorl	%ebx, %edi
	movl	-48(%ebp), %ebx
.LVL107:
	xorl	%edx, %edi
	rorl	$2, %edx
.LVL108:
	leal	1859775393(%eax,%ebx), %eax
.LVL109:
	addl	%edi, %eax
	movl	%ecx, %edi
	roll	$5, %edi
	addl	%edi, %eax
.LVL110:
	.loc 1 166 0
	movl	-56(%ebp), %edi
	xorl	-92(%ebp), %edi
	xorl	-16(%ebp), %edi
	xorl	-40(%ebp), %edi
.LVL111:
	roll	%edi
.LVL112:
	movl	%edi, -52(%ebp)
.LVL113:
	movl	-96(%ebp), %edi
.LVL114:
	movl	-52(%ebp), %ebx
	xorl	%edx, %edi
	leal	1859775393(%esi,%ebx), %esi
.LVL115:
	xorl	%ecx, %edi
	rorl	$2, %ecx
.LVL116:
	addl	%esi, %edi
	movl	%eax, %esi
	roll	$5, %esi
	addl	%esi, %edi
.LVL117:
	.loc 1 167 0
	movl	-60(%ebp), %esi
	xorl	-64(%ebp), %esi
	xorl	-20(%ebp), %esi
	xorl	-44(%ebp), %esi
.LVL118:
	roll	%esi
.LVL119:
	movl	%esi, -56(%ebp)
.LVL120:
	movl	%edx, %esi
.LVL121:
	movl	-56(%ebp), %ebx
	xorl	%ecx, %esi
	xorl	%eax, %esi
	rorl	$2, %eax
.LVL122:
	movl	%esi, -60(%ebp)
.LVL123:
	movl	-96(%ebp), %esi
	movl	%eax, -96(%ebp)
.LVL124:
	leal	1859775393(%esi,%ebx), %ebx
	movl	-60(%ebp), %esi
.LVL125:
	addl	%ebx, %esi
	movl	%edi, %ebx
	roll	$5, %ebx
	addl	%ebx, %esi
.LVL126:
	.loc 1 168 0
	movl	-92(%ebp), %ebx
	xorl	-68(%ebp), %ebx
	xorl	-24(%ebp), %ebx
	xorl	-48(%ebp), %ebx
.LVL127:
	roll	%ebx
.LVL128:
	movl	%ebx, -60(%ebp)
.LVL129:
	movl	%ecx, %ebx
.LVL130:
	xorl	%eax, %ebx
	movl	-60(%ebp), %eax
.LVL131:
	xorl	%edi, %ebx
	rorl	$2, %edi
.LVL132:
	leal	1859775393(%edx,%eax), %edx
.LVL133:
	addl	%edx, %ebx
	movl	%esi, %edx
	roll	$5, %edx
	addl	%edx, %ebx
.LVL134:
	.loc 1 169 0
	movl	-64(%ebp), %edx
	xorl	-72(%ebp), %edx
	xorl	-32(%ebp), %edx
	xorl	-52(%ebp), %edx
.LVL135:
	roll	%edx
.LVL136:
	movl	%edx, -64(%ebp)
.LVL137:
	movl	-96(%ebp), %edx
	movl	-64(%ebp), %eax
	xorl	%edi, %edx
	leal	1859775393(%ecx,%eax), %ecx
.LVL138:
	xorl	%esi, %edx
	rorl	$2, %esi
.LVL139:
	addl	%ecx, %edx
	movl	%ebx, %ecx
	roll	$5, %ecx
	addl	%ecx, %edx
.LVL140:
	.loc 1 170 0
	movl	-68(%ebp), %ecx
	xorl	-76(%ebp), %ecx
	xorl	-36(%ebp), %ecx
	xorl	-56(%ebp), %ecx
.LVL141:
	roll	%ecx
.LVL142:
	movl	%ecx, -68(%ebp)
.LVL143:
	movl	%edi, %ecx
	movl	-68(%ebp), %eax
	xorl	%esi, %ecx
	xorl	%ebx, %ecx
	rorl	$2, %ebx
.LVL144:
	movl	%ecx, -92(%ebp)
	movl	-96(%ebp), %ecx
	leal	1859775393(%ecx,%eax), %eax
	movl	-92(%ebp), %ecx
	movl	%ebx, -92(%ebp)
	addl	%eax, %ecx
	movl	%edx, %eax
	roll	$5, %eax
	addl	%eax, %ecx
.LVL145:
	.loc 1 171 0
	movl	-72(%ebp), %eax
	xorl	-80(%ebp), %eax
	xorl	-40(%ebp), %eax
	xorl	-60(%ebp), %eax
.LVL146:
	roll	%eax
.LVL147:
	movl	%eax, -72(%ebp)
.LVL148:
	movl	%esi, %eax
	xorl	%ebx, %eax
	movl	-72(%ebp), %ebx
.LVL149:
	xorl	%edx, %eax
	leal	1859775393(%edi,%ebx), %edi
.LVL150:
	addl	%edi, %eax
	movl	%ecx, %edi
	roll	$5, %edi
	rorl	$2, %edx
.LVL151:
	addl	%edi, %eax
.LVL152:
	.loc 1 172 0
	movl	-76(%ebp), %edi
	xorl	-16(%ebp), %edi
	xorl	-44(%ebp), %edi
	xorl	-64(%ebp), %edi
.LVL153:
	roll	%edi
.LVL154:
	movl	%edi, -76(%ebp)
.LVL155:
	movl	-92(%ebp), %edi
	movl	-76(%ebp), %ebx
	xorl	%edx, %edi
	leal	1859775393(%esi,%ebx), %esi
.LVL156:
	xorl	%ecx, %edi
	rorl	$2, %ecx
.LVL157:
	addl	%esi, %edi
	movl	%eax, %esi
	roll	$5, %esi
	addl	%esi, %edi
.LVL158:
	.loc 1 173 0
	movl	-80(%ebp), %esi
	xorl	-20(%ebp), %esi
	xorl	-48(%ebp), %esi
	xorl	-68(%ebp), %esi
.LVL159:
	roll	%esi
.LVL160:
	movl	%esi, -80(%ebp)
.LVL161:
	movl	%edx, %esi
	movl	-80(%ebp), %ebx
	xorl	%ecx, %esi
	xorl	%eax, %esi
	rorl	$2, %eax
.LVL162:
	movl	%esi, -96(%ebp)
	movl	-92(%ebp), %esi
	movl	%eax, -92(%ebp)
.LVL163:
	leal	1859775393(%esi,%ebx), %ebx
	movl	-96(%ebp), %esi
.LVL164:
	addl	%ebx, %esi
	movl	%edi, %ebx
	roll	$5, %ebx
	addl	%ebx, %esi
.LVL165:
	.loc 1 174 0
	movl	-16(%ebp), %ebx
	xorl	-24(%ebp), %ebx
	xorl	-52(%ebp), %ebx
	xorl	-72(%ebp), %ebx
.LVL166:
	roll	%ebx
.LVL167:
	movl	%ebx, -16(%ebp)
.LVL168:
	movl	%ecx, %ebx
	xorl	%eax, %ebx
	movl	-16(%ebp), %eax
.LVL169:
	xorl	%edi, %ebx
	leal	1859775393(%edx,%eax), %edx
.LVL170:
	addl	%edx, %ebx
	movl	%esi, %edx
	roll	$5, %edx
	addl	%edx, %ebx
.LVL171:
	rorl	$2, %edi
.LVL172:
	.loc 1 175 0
	movl	-20(%ebp), %edx
	xorl	-32(%ebp), %edx
	xorl	-56(%ebp), %edx
	xorl	-76(%ebp), %edx
.LVL173:
	roll	%edx
.LVL174:
	movl	%edx, -20(%ebp)
.LVL175:
	movl	-92(%ebp), %edx
	movl	-20(%ebp), %eax
	xorl	%edi, %edx
	leal	1859775393(%ecx,%eax), %ecx
.LVL176:
	xorl	%esi, %edx
	rorl	$2, %esi
.LVL177:
	addl	%ecx, %edx
	movl	%ebx, %ecx
	roll	$5, %ecx
	addl	%ecx, %edx
.LVL178:
	.loc 1 176 0
	movl	-24(%ebp), %ecx
	xorl	-36(%ebp), %ecx
	xorl	-60(%ebp), %ecx
	xorl	-80(%ebp), %ecx
.LVL179:
	roll	%ecx
.LVL180:
	movl	%ecx, -24(%ebp)
.LVL181:
	movl	%edi, %ecx
	movl	-24(%ebp), %eax
	xorl	%esi, %ecx
	xorl	%ebx, %ecx
	rorl	$2, %ebx
.LVL182:
	movl	%ecx, -96(%ebp)
	movl	-92(%ebp), %ecx
	movl	%ebx, -92(%ebp)
.LVL183:
	leal	1859775393(%ecx,%eax), %eax
	movl	-96(%ebp), %ecx
.LVL184:
	addl	%eax, %ecx
	movl	%edx, %eax
	roll	$5, %eax
	addl	%eax, %ecx
.LVL185:
	.loc 1 177 0
	movl	-32(%ebp), %eax
	xorl	-40(%ebp), %eax
	xorl	-64(%ebp), %eax
	xorl	-16(%ebp), %eax
.LVL186:
	roll	%eax
.LVL187:
	movl	%eax, -32(%ebp)
.LVL188:
	movl	%esi, %eax
.LVL189:
	xorl	%ebx, %eax
	movl	-32(%ebp), %ebx
.LVL190:
	xorl	%edx, %eax
	rorl	$2, %edx
.LVL191:
	leal	1859775393(%edi,%ebx), %edi
.LVL192:
	addl	%edi, %eax
	movl	%ecx, %edi
	roll	$5, %edi
	addl	%edi, %eax
.LVL193:
	.loc 1 178 0
	movl	-36(%ebp), %edi
	xorl	-44(%ebp), %edi
	xorl	-68(%ebp), %edi
	xorl	-20(%ebp), %edi
.LVL194:
	roll	%edi
.LVL195:
	movl	%edi, -36(%ebp)
.LVL196:
	movl	-92(%ebp), %edi
.LVL197:
	movl	-36(%ebp), %ebx
	xorl	%edx, %edi
	leal	1859775393(%esi,%ebx), %esi
.LVL198:
	xorl	%ecx, %edi
	rorl	$2, %ecx
.LVL199:
	addl	%esi, %edi
	movl	%eax, %esi
	roll	$5, %esi
	addl	%esi, %edi
.LVL200:
	.loc 1 179 0
	movl	-40(%ebp), %esi
	xorl	-48(%ebp), %esi
	xorl	-72(%ebp), %esi
	xorl	-24(%ebp), %esi
.LVL201:
	roll	%esi
.LVL202:
	movl	%esi, -40(%ebp)
.LVL203:
	movl	%edx, %esi
.LVL204:
	movl	-40(%ebp), %ebx
	xorl	%ecx, %esi
	xorl	%eax, %esi
	rorl	$2, %eax
.LVL205:
	movl	%esi, -96(%ebp)
	movl	-92(%ebp), %esi
	movl	%eax, -92(%ebp)
.LVL206:
	leal	1859775393(%esi,%ebx), %ebx
	movl	-96(%ebp), %esi
.LVL207:
	addl	%ebx, %esi
	movl	%edi, %ebx
	roll	$5, %ebx
	addl	%ebx, %esi
.LVL208:
	.loc 1 180 0
	movl	-44(%ebp), %ebx
	xorl	-52(%ebp), %ebx
	xorl	-76(%ebp), %ebx
	xorl	-32(%ebp), %ebx
.LVL209:
	roll	%ebx
.LVL210:
	movl	%ebx, -44(%ebp)
.LVL211:
	movl	%ecx, %ebx
.LVL212:
	xorl	%eax, %ebx
	movl	-44(%ebp), %eax
.LVL213:
	xorl	%edi, %ebx
	rorl	$2, %edi
.LVL214:
	leal	1859775393(%edx,%eax), %edx
.LVL215:
	addl	%edx, %ebx
	movl	%esi, %edx
	roll	$5, %edx
	addl	%edx, %ebx
.LVL216:
	.loc 1 181 0
	movl	-48(%ebp), %edx
	xorl	-56(%ebp), %edx
	xorl	-80(%ebp), %edx
	xorl	-36(%ebp), %edx
.LVL217:
	roll	%edx
.LVL218:
	movl	%edx, -48(%ebp)
.LVL219:
	movl	-92(%ebp), %edx
.LVL220:
	movl	-48(%ebp), %eax
	xorl	%edi, %edx
	leal	1859775393(%ecx,%eax), %ecx
.LVL221:
	xorl	%esi, %edx
	rorl	$2, %esi
.LVL222:
	addl	%ecx, %edx
	movl	%ebx, %ecx
	roll	$5, %ecx
	leal	(%edx,%ecx), %eax
	.loc 1 182 0
	movl	-52(%ebp), %ecx
	xorl	-60(%ebp), %ecx
	xorl	-16(%ebp), %ecx
	movl	-92(%ebp), %edx
	xorl	-40(%ebp), %ecx
	.loc 1 181 0
	movl	%eax, -96(%ebp)
.LVL223:
	.loc 1 182 0
	roll	%ecx
.LVL224:
	movl	%ecx, -52(%ebp)
.LVL225:
	movl	-52(%ebp), %eax
.LVL226:
	movl	%edi, %ecx
.LVL227:
	xorl	%esi, %ecx
	xorl	%ebx, %ecx
	rorl	$2, %ebx
.LVL228:
	leal	1859775393(%edx,%eax), %eax
.LVL229:
	addl	%eax, %ecx
	movl	-96(%ebp), %eax
	roll	$5, %eax
	addl	%eax, %ecx
.LVL230:
	.loc 1 183 0
	movl	-56(%ebp), %eax
	xorl	-64(%ebp), %eax
	xorl	-20(%ebp), %eax
	xorl	-44(%ebp), %eax
.LVL231:
	roll	%eax
.LVL232:
	movl	%eax, -56(%ebp)
.LVL233:
	movl	%esi, %eax
.LVL234:
	movl	-56(%ebp), %edx
	xorl	%ebx, %eax
	xorl	-96(%ebp), %eax
	leal	1859775393(%edi,%edx), %edi
.LVL235:
	.loc 1 184 0
	movl	-60(%ebp), %edx
	addl	%edi, %eax
	.loc 1 183 0
	movl	%ecx, %edi
	roll	$5, %edi
	addl	%edi, %eax
.LVL236:
	movl	-96(%ebp), %edi
	rorl	$2, %edi
	movl	%edi, -96(%ebp)
.LVL237:
	.loc 1 184 0
	xorl	-68(%ebp), %edx
	xorl	-24(%ebp), %edx
	xorl	-48(%ebp), %edx
.LVL238:
	roll	%edx
.LVL239:
	movl	%edx, -60(%ebp)
.LVL240:
	movl	%ebx, %edx
.LVL241:
	xorl	%edi, %edx
	movl	-60(%ebp), %edi
.LVL242:
	xorl	%ecx, %edx
	leal	1859775393(%esi,%edi), %esi
.LVL243:
	.loc 1 192 0
	movl	%eax, %edi
	addl	%esi, %edx
	.loc 1 184 0
	movl	%eax, %esi
	rorl	$2, %ecx
.LVL244:
	roll	$5, %esi
	.loc 1 192 0
	andl	%ecx, %edi
	.loc 1 184 0
	addl	%esi, %edx
.LVL245:
	.loc 1 192 0
	movl	-64(%ebp), %esi
	xorl	-72(%ebp), %esi
	xorl	-32(%ebp), %esi
	xorl	-52(%ebp), %esi
.LVL246:
	roll	%esi
.LVL247:
	movl	%esi, -64(%ebp)
.LVL248:
	leal	-1894007588(%ebx,%esi), %esi
	movl	%edx, %ebx
.LVL249:
	roll	$5, %ebx
	addl	%ebx, %esi
	movl	%eax, %ebx
	rorl	$2, %eax
.LVL250:
	movl	%eax, -92(%ebp)
	.loc 1 193 0
	movl	-68(%ebp), %eax
	.loc 1 192 0
	orl	%ecx, %ebx
.LVL251:
	.loc 1 193 0
	xorl	-76(%ebp), %eax
	.loc 1 192 0
	andl	-96(%ebp), %ebx
	.loc 1 193 0
	xorl	-36(%ebp), %eax
	xorl	-56(%ebp), %eax
	.loc 1 192 0
	orl	%edi, %ebx
	movl	-96(%ebp), %edi
	addl	%esi, %ebx
.LVL252:
	movl	-92(%ebp), %esi
	.loc 1 193 0
	roll	%eax
.LVL253:
	movl	%eax, -68(%ebp)
.LVL254:
	movl	-92(%ebp), %eax
	andl	%edx, %esi
	orl	%edx, %eax
	rorl	$2, %edx
.LVL255:
	andl	%ecx, %eax
	orl	%eax, %esi
	movl	-68(%ebp), %eax
	leal	-1894007588(%edi,%eax), %eax
	.loc 1 194 0
	movl	%ebx, %edi
	addl	%eax, %esi
	.loc 1 193 0
	movl	%ebx, %eax
	roll	$5, %eax
	addl	%esi, %eax
.LVL256:
	.loc 1 194 0
	movl	-72(%ebp), %esi
	xorl	-80(%ebp), %esi
	xorl	-40(%ebp), %esi
	xorl	-60(%ebp), %esi
.LVL257:
	roll	%esi
.LVL258:
	movl	%esi, -72(%ebp)
.LVL259:
	leal	-1894007588(%ecx,%esi), %esi
	movl	%eax, %ecx
.LVL260:
	roll	$5, %ecx
	orl	%edx, %edi
	andl	-92(%ebp), %edi
	addl	%ecx, %esi
	movl	%ebx, %ecx
	rorl	$2, %ebx
.LVL261:
	andl	%edx, %ecx
.LVL262:
	movl	%ebx, -96(%ebp)
	orl	%eax, %ebx
	andl	%edx, %ebx
	orl	%edi, %ecx
	.loc 1 195 0
	movl	-76(%ebp), %edi
	xorl	-16(%ebp), %edi
	xorl	-44(%ebp), %edi
	.loc 1 194 0
	addl	%ecx, %esi
.LVL263:
	.loc 1 195 0
	xorl	-64(%ebp), %edi
.LVL264:
	roll	%edi
.LVL265:
	movl	%edi, -76(%ebp)
.LVL266:
	movl	-96(%ebp), %ecx
	movl	-92(%ebp), %edi
	andl	%eax, %ecx
	rorl	$2, %eax
.LVL267:
	orl	%ebx, %ecx
	movl	-76(%ebp), %ebx
	leal	-1894007588(%edi,%ebx), %ebx
	.loc 1 196 0
	movl	%esi, %edi
	orl	%eax, %edi
	andl	-96(%ebp), %edi
	addl	%ebx, %ecx
	.loc 1 195 0
	movl	%esi, %ebx
	roll	$5, %ebx
	addl	%ecx, %ebx
.LVL268:
	.loc 1 196 0
	movl	-80(%ebp), %ecx
	xorl	-20(%ebp), %ecx
	xorl	-48(%ebp), %ecx
	xorl	-68(%ebp), %ecx
.LVL269:
	roll	%ecx
.LVL270:
	movl	%ecx, -80(%ebp)
.LVL271:
	leal	-1894007588(%edx,%ecx), %ecx
	movl	%ebx, %edx
.LVL272:
	roll	$5, %edx
	addl	%edx, %ecx
	movl	%esi, %edx
	rorl	$2, %esi
.LVL273:
	andl	%eax, %edx
.LVL274:
	movl	%esi, -92(%ebp)
	orl	%edi, %edx
	movl	-96(%ebp), %edi
	addl	%edx, %ecx
.LVL275:
	.loc 1 197 0
	movl	-16(%ebp), %edx
	xorl	-24(%ebp), %edx
	xorl	-52(%ebp), %edx
	orl	%ebx, %esi
.LVL276:
	xorl	-72(%ebp), %edx
.LVL277:
	andl	%eax, %esi
	roll	%edx
.LVL278:
	movl	%edx, -16(%ebp)
.LVL279:
	movl	-92(%ebp), %edx
	andl	%ebx, %edx
	rorl	$2, %ebx
.LVL280:
	orl	%esi, %edx
	movl	-16(%ebp), %esi
	leal	-1894007588(%edi,%esi), %esi
	.loc 1 198 0
	movl	%ecx, %edi
	orl	%ebx, %edi
	andl	-92(%ebp), %edi
	addl	%esi, %edx
	.loc 1 197 0
	movl	%ecx, %esi
	roll	$5, %esi
	addl	%edx, %esi
.LVL281:
	.loc 1 198 0
	movl	-20(%ebp), %edx
	xorl	-32(%ebp), %edx
	xorl	-56(%ebp), %edx
	xorl	-76(%ebp), %edx
.LVL282:
	roll	%edx
.LVL283:
	movl	%edx, -20(%ebp)
.LVL284:
	leal	-1894007588(%eax,%edx), %edx
	movl	%esi, %eax
.LVL285:
	roll	$5, %eax
	addl	%eax, %edx
	movl	%ecx, %eax
	andl	%ebx, %eax
	orl	%edi, %eax
	movl	%ecx, %edi
	.loc 1 199 0
	movl	-24(%ebp), %ecx
.LVL286:
	xorl	-36(%ebp), %ecx
	.loc 1 198 0
	rorl	$2, %edi
.LVL287:
	addl	%edx, %eax
	.loc 1 199 0
	xorl	-60(%ebp), %ecx
	.loc 1 198 0
	movl	%eax, -96(%ebp)
.LVL288:
	movl	%esi, %eax
.LVL289:
	.loc 1 199 0
	xorl	-80(%ebp), %ecx
.LVL290:
	andl	%edi, %eax
	roll	%ecx
.LVL291:
	movl	%ecx, -24(%ebp)
.LVL292:
	movl	%esi, %ecx
	movl	-24(%ebp), %edx
	orl	%edi, %ecx
	andl	%ebx, %ecx
	orl	%ecx, %eax
	movl	-92(%ebp), %ecx
	leal	-1894007588(%ecx,%edx), %ecx
	addl	%ecx, %eax
	movl	-96(%ebp), %ecx
	rorl	$2, %esi
.LVL293:
	roll	$5, %ecx
	addl	%eax, %ecx
.LVL294:
	.loc 1 200 0
	movl	-32(%ebp), %eax
	xorl	-40(%ebp), %eax
	xorl	-64(%ebp), %eax
	xorl	-16(%ebp), %eax
.LVL295:
	roll	%eax
.LVL296:
	movl	%eax, -32(%ebp)
.LVL297:
	leal	-1894007588(%ebx,%eax), %ebx
.LVL298:
	movl	%ecx, %eax
.LVL299:
	roll	$5, %eax
	addl	%eax, %ebx
	movl	-96(%ebp), %eax
	orl	%esi, %eax
	andl	%edi, %eax
	movl	%eax, %edx
	movl	-96(%ebp), %eax
	andl	%esi, %eax
	orl	%edx, %eax
	movl	-96(%ebp), %edx
	addl	%eax, %ebx
.LVL300:
	.loc 1 201 0
	movl	-36(%ebp), %eax
	xorl	-44(%ebp), %eax
	xorl	-68(%ebp), %eax
	xorl	-20(%ebp), %eax
	.loc 1 200 0
	rorl	$2, %edx
	movl	%edx, -92(%ebp)
.LVL301:
	orl	%ecx, %edx
.LVL302:
	andl	%esi, %edx
	.loc 1 201 0
	roll	%eax
.LVL303:
	movl	%eax, -36(%ebp)
.LVL304:
	movl	-92(%ebp), %eax
.LVL305:
	andl	%ecx, %eax
	rorl	$2, %ecx
.LVL306:
	orl	%edx, %eax
	movl	-36(%ebp), %edx
	leal	-1894007588(%edi,%edx), %edx
	.loc 1 202 0
	movl	%ebx, %edi
.LVL307:
	addl	%edx, %eax
	.loc 1 201 0
	movl	%ebx, %edx
	roll	$5, %edx
	addl	%eax, %edx
.LVL308:
	.loc 1 202 0
	movl	-40(%ebp), %eax
	xorl	-48(%ebp), %eax
	xorl	-72(%ebp), %eax
	xorl	-24(%ebp), %eax
.LVL309:
	roll	%eax
.LVL310:
	movl	%eax, -40(%ebp)
.LVL311:
	leal	-1894007588(%esi,%eax), %esi
.LVL312:
	movl	%edx, %eax
.LVL313:
	roll	$5, %eax
	orl	%ecx, %edi
	andl	-92(%ebp), %edi
	addl	%eax, %esi
	movl	%ebx, %eax
	andl	%ecx, %eax
	orl	%edi, %eax
	movl	%ebx, %edi
	.loc 1 203 0
	movl	-44(%ebp), %ebx
.LVL314:
	xorl	-52(%ebp), %ebx
	.loc 1 202 0
	rorl	$2, %edi
.LVL315:
	addl	%esi, %eax
	.loc 1 203 0
	xorl	-76(%ebp), %ebx
	.loc 1 202 0
	movl	%eax, -96(%ebp)
.LVL316:
	movl	%edx, %eax
.LVL317:
	.loc 1 203 0
	xorl	-32(%ebp), %ebx
.LVL318:
	andl	%edi, %eax
	roll	%ebx
.LVL319:
	movl	%ebx, -44(%ebp)
.LVL320:
	movl	%edx, %ebx
.LVL321:
	movl	-44(%ebp), %esi
	orl	%edi, %ebx
	rorl	$2, %edx
.LVL322:
	andl	%ecx, %ebx
	orl	%ebx, %eax
	movl	-92(%ebp), %ebx
	leal	-1894007588(%ebx,%esi), %ebx
	addl	%ebx, %eax
	movl	-96(%ebp), %ebx
	roll	$5, %ebx
	addl	%eax, %ebx
.LVL323:
	.loc 1 204 0
	movl	-48(%ebp), %eax
	xorl	-56(%ebp), %eax
	xorl	-80(%ebp), %eax
	xorl	-36(%ebp), %eax
.LVL324:
	roll	%eax
.LVL325:
	movl	%eax, -48(%ebp)
.LVL326:
	leal	-1894007588(%ecx,%eax), %ecx
.LVL327:
	movl	%ebx, %eax
.LVL328:
	roll	$5, %eax
	addl	%eax, %ecx
	movl	-96(%ebp), %eax
	orl	%edx, %eax
	andl	%edi, %eax
	movl	%eax, %esi
	movl	-96(%ebp), %eax
	andl	%edx, %eax
	orl	%esi, %eax
	movl	-96(%ebp), %esi
	addl	%eax, %ecx
.LVL329:
	.loc 1 205 0
	movl	-52(%ebp), %eax
	.loc 1 204 0
	rorl	$2, %esi
	.loc 1 205 0
	xorl	-60(%ebp), %eax
	xorl	-16(%ebp), %eax
	.loc 1 204 0
	movl	%esi, -92(%ebp)
.LVL330:
	orl	%ebx, %esi
.LVL331:
	.loc 1 205 0
	xorl	-40(%ebp), %eax
.LVL332:
	andl	%edx, %esi
	roll	%eax
.LVL333:
	movl	%eax, -52(%ebp)
.LVL334:
	movl	-92(%ebp), %eax
.LVL335:
	andl	%ebx, %eax
	rorl	$2, %ebx
.LVL336:
	orl	%esi, %eax
	movl	-52(%ebp), %esi
	leal	-1894007588(%edi,%esi), %esi
	.loc 1 206 0
	movl	%ecx, %edi
.LVL337:
	orl	%ebx, %edi
	andl	-92(%ebp), %edi
	addl	%esi, %eax
	.loc 1 205 0
	movl	%ecx, %esi
	roll	$5, %esi
	addl	%eax, %esi
.LVL338:
	.loc 1 206 0
	movl	-56(%ebp), %eax
	xorl	-64(%ebp), %eax
	xorl	-20(%ebp), %eax
	xorl	-44(%ebp), %eax
.LVL339:
	roll	%eax
.LVL340:
	movl	%eax, -56(%ebp)
.LVL341:
	leal	-1894007588(%edx,%eax), %edx
.LVL342:
	movl	%esi, %eax
.LVL343:
	roll	$5, %eax
	addl	%eax, %edx
	movl	%ecx, %eax
	andl	%ebx, %eax
	orl	%edi, %eax
	movl	%ecx, %edi
	movl	%esi, %ecx
.LVL344:
	addl	%edx, %eax
	rorl	$2, %edi
.LVL345:
	movl	%eax, -96(%ebp)
.LVL346:
	.loc 1 207 0
	movl	-60(%ebp), %eax
.LVL347:
	andl	%edi, %ecx
	xorl	-68(%ebp), %eax
	xorl	-24(%ebp), %eax
	xorl	-48(%ebp), %eax
.LVL348:
	roll	%eax
.LVL349:
	movl	%eax, -60(%ebp)
.LVL350:
	movl	%esi, %eax
.LVL351:
	movl	-60(%ebp), %edx
	orl	%edi, %eax
	andl	%ebx, %eax
	orl	%eax, %ecx
	movl	-92(%ebp), %eax
	leal	-1894007588(%eax,%edx), %eax
	addl	%eax, %ecx
	movl	-96(%ebp), %eax
	rorl	$2, %esi
.LVL352:
	roll	$5, %eax
	addl	%ecx, %eax
.LVL353:
	.loc 1 208 0
	movl	-64(%ebp), %ecx
	xorl	-72(%ebp), %ecx
	xorl	-32(%ebp), %ecx
	xorl	-52(%ebp), %ecx
.LVL354:
	roll	%ecx
.LVL355:
	movl	%ecx, -64(%ebp)
.LVL356:
	leal	-1894007588(%ebx,%ecx), %ebx
.LVL357:
	movl	%eax, %ecx
	roll	$5, %ecx
	addl	%ecx, %ebx
	movl	-96(%ebp), %ecx
	orl	%esi, %ecx
	andl	%edi, %ecx
	movl	%ecx, %edx
	movl	-96(%ebp), %ecx
	andl	%esi, %ecx
	orl	%edx, %ecx
	movl	-96(%ebp), %edx
	addl	%ecx, %ebx
.LVL358:
	rorl	$2, %edx
	movl	%edx, -92(%ebp)
.LVL359:
	.loc 1 209 0
	movl	-68(%ebp), %edx
.LVL360:
	xorl	-76(%ebp), %edx
	movl	-92(%ebp), %ecx
	xorl	-36(%ebp), %edx
	xorl	-56(%ebp), %edx
.LVL361:
	andl	%eax, %ecx
	roll	%edx
.LVL362:
	movl	%edx, -68(%ebp)
.LVL363:
	movl	-92(%ebp), %edx
	orl	%eax, %edx
	rorl	$2, %eax
.LVL364:
	andl	%esi, %edx
	orl	%edx, %ecx
	movl	-68(%ebp), %edx
	leal	-1894007588(%edi,%edx), %edx
	.loc 1 210 0
	movl	%ebx, %edi
.LVL365:
	addl	%edx, %ecx
	.loc 1 209 0
	movl	%ebx, %edx
	roll	$5, %edx
	addl	%ecx, %edx
.LVL366:
	.loc 1 210 0
	movl	-72(%ebp), %ecx
	xorl	-80(%ebp), %ecx
	xorl	-40(%ebp), %ecx
	xorl	-60(%ebp), %ecx
.LVL367:
	roll	%ecx
.LVL368:
	movl	%ecx, -72(%ebp)
.LVL369:
	leal	-1894007588(%esi,%ecx), %esi
.LVL370:
	movl	%edx, %ecx
	roll	$5, %ecx
	orl	%eax, %edi
	andl	-92(%ebp), %edi
	addl	%esi, %ecx
	movl	%ebx, %esi
	rorl	$2, %ebx
.LVL371:
	andl	%eax, %esi
.LVL372:
	movl	%ebx, -96(%ebp)
	orl	%edi, %esi
	leal	(%esi,%ecx), %edi
.LVL373:
	.loc 1 211 0
	movl	-76(%ebp), %ecx
	xorl	-16(%ebp), %ecx
	xorl	-44(%ebp), %ecx
	movl	%edx, %esi
	xorl	-64(%ebp), %ecx
.LVL374:
	orl	%ebx, %esi
	andl	%eax, %esi
	roll	%ecx
.LVL375:
	movl	%ecx, -76(%ebp)
.LVL376:
	movl	%edx, %ecx
	rorl	$2, %edx
.LVL377:
	andl	%ebx, %ecx
.LVL378:
	movl	-76(%ebp), %ebx
.LVL379:
	orl	%esi, %ecx
	movl	-92(%ebp), %esi
	leal	-1894007588(%esi,%ebx), %esi
	addl	%esi, %ecx
	movl	%edi, %esi
	roll	$5, %esi
	addl	%esi, %ecx
.LVL380:
	.loc 1 219 0
	movl	-80(%ebp), %esi
	xorl	-20(%ebp), %esi
	xorl	-48(%ebp), %esi
	xorl	-68(%ebp), %esi
.LVL381:
	roll	%esi
.LVL382:
	movl	%esi, -80(%ebp)
.LVL383:
	movl	-96(%ebp), %esi
	movl	-80(%ebp), %ebx
	xorl	%edx, %esi
	leal	-899497514(%eax,%ebx), %eax
.LVL384:
	xorl	%edi, %esi
	rorl	$2, %edi
.LVL385:
	addl	%esi, %eax
	movl	%ecx, %esi
	roll	$5, %esi
	addl	%eax, %esi
.LVL386:
	.loc 1 220 0
	movl	-16(%ebp), %eax
	xorl	-24(%ebp), %eax
	xorl	-52(%ebp), %eax
	xorl	-72(%ebp), %eax
.LVL387:
	roll	%eax
.LVL388:
	movl	%eax, -16(%ebp)
.LVL389:
	movl	%edx, %eax
	movl	-16(%ebp), %ebx
	xorl	%edi, %eax
	xorl	%ecx, %eax
	rorl	$2, %ecx
.LVL390:
	movl	%eax, -92(%ebp)
	movl	-96(%ebp), %eax
	leal	-899497514(%eax,%ebx), %ebx
	movl	-92(%ebp), %eax
	movl	%ecx, -92(%ebp)
	addl	%ebx, %eax
	movl	%esi, %ebx
	roll	$5, %ebx
	addl	%eax, %ebx
.LVL391:
	.loc 1 221 0
	movl	-20(%ebp), %eax
	xorl	-32(%ebp), %eax
	xorl	-56(%ebp), %eax
	xorl	-76(%ebp), %eax
.LVL392:
	roll	%eax
.LVL393:
	movl	%eax, -20(%ebp)
.LVL394:
	movl	%edi, %eax
	xorl	%ecx, %eax
	movl	-20(%ebp), %ecx
.LVL395:
	xorl	%esi, %eax
	rorl	$2, %esi
.LVL396:
	leal	-899497514(%edx,%ecx), %edx
.LVL397:
	addl	%edx, %eax
	movl	%ebx, %edx
	roll	$5, %edx
	addl	%edx, %eax
.LVL398:
	.loc 1 222 0
	movl	-24(%ebp), %edx
	xorl	-36(%ebp), %edx
	xorl	-60(%ebp), %edx
	xorl	-80(%ebp), %edx
.LVL399:
	roll	%edx
.LVL400:
	movl	%edx, -24(%ebp)
.LVL401:
	movl	-92(%ebp), %edx
	movl	-24(%ebp), %ecx
	xorl	%esi, %edx
	leal	-899497514(%edi,%ecx), %edi
.LVL402:
	xorl	%ebx, %edx
	rorl	$2, %ebx
.LVL403:
	addl	%edi, %edx
	movl	%eax, %edi
	roll	$5, %edi
	addl	%edx, %edi
.LVL404:
	.loc 1 223 0
	movl	-32(%ebp), %edx
	xorl	-40(%ebp), %edx
	xorl	-64(%ebp), %edx
	xorl	-16(%ebp), %edx
.LVL405:
	roll	%edx
.LVL406:
	movl	%edx, -32(%ebp)
.LVL407:
	movl	%esi, %edx
.LVL408:
	movl	-32(%ebp), %ecx
	xorl	%ebx, %edx
	xorl	%eax, %edx
	rorl	$2, %eax
.LVL409:
	movl	%edx, -96(%ebp)
	movl	-92(%ebp), %edx
	movl	%eax, -92(%ebp)
.LVL410:
	.loc 1 224 0
	movl	-36(%ebp), %eax
	xorl	-44(%ebp), %eax
	xorl	-68(%ebp), %eax
	leal	-899497514(%edx,%ecx), %ecx
	movl	-96(%ebp), %edx
.LVL411:
	xorl	-20(%ebp), %eax
	addl	%ecx, %edx
	.loc 1 223 0
	movl	%edi, %ecx
	roll	$5, %ecx
	.loc 1 224 0
	roll	%eax
	.loc 1 223 0
	addl	%ecx, %edx
.LVL412:
	.loc 1 224 0
	movl	%eax, -36(%ebp)
.LVL413:
	movl	-92(%ebp), %eax
.LVL414:
	movl	-36(%ebp), %ecx
	xorl	%ebx, %eax
	leal	-899497514(%esi,%ecx), %esi
.LVL415:
	xorl	%edi, %eax
	rorl	$2, %edi
.LVL416:
	addl	%esi, %eax
	movl	%edx, %esi
	roll	$5, %esi
	addl	%eax, %esi
.LVL417:
	.loc 1 225 0
	movl	-40(%ebp), %eax
	xorl	-48(%ebp), %eax
	xorl	-72(%ebp), %eax
	xorl	-24(%ebp), %eax
.LVL418:
	roll	%eax
.LVL419:
	movl	%eax, -40(%ebp)
.LVL420:
	movl	-92(%ebp), %eax
.LVL421:
	movl	-40(%ebp), %ecx
	xorl	%edi, %eax
	leal	-899497514(%ebx,%ecx), %ebx
.LVL422:
	xorl	%edx, %eax
	addl	%ebx, %eax
	movl	%esi, %ebx
	roll	$5, %ebx
	addl	%ebx, %eax
.LVL423:
	movl	%edx, %ebx
	.loc 1 226 0
	movl	-44(%ebp), %edx
.LVL424:
	xorl	-52(%ebp), %edx
	.loc 1 225 0
	rorl	$2, %ebx
.LVL425:
	.loc 1 226 0
	xorl	-76(%ebp), %edx
	xorl	-32(%ebp), %edx
.LVL426:
	roll	%edx
.LVL427:
	movl	%edx, -44(%ebp)
.LVL428:
	movl	%edi, %edx
.LVL429:
	movl	-44(%ebp), %ecx
	xorl	%ebx, %edx
	xorl	%esi, %edx
	movl	%edx, -96(%ebp)
	movl	-92(%ebp), %edx
	leal	-899497514(%edx,%ecx), %ecx
	movl	-96(%ebp), %edx
	addl	%ecx, %edx
	movl	%eax, %ecx
	roll	$5, %ecx
	rorl	$2, %esi
.LVL430:
	addl	%edx, %ecx
.LVL431:
	.loc 1 227 0
	movl	-48(%ebp), %edx
	xorl	-56(%ebp), %edx
	xorl	-80(%ebp), %edx
	.loc 1 226 0
	movl	%esi, -92(%ebp)
.LVL432:
	.loc 1 227 0
	xorl	-36(%ebp), %edx
.LVL433:
	roll	%edx
.LVL434:
	movl	%edx, -48(%ebp)
.LVL435:
	movl	%ebx, %edx
.LVL436:
	xorl	%esi, %edx
	movl	-48(%ebp), %esi
.LVL437:
	xorl	%eax, %edx
	rorl	$2, %eax
.LVL438:
	leal	-899497514(%edi,%esi), %edi
.LVL439:
	addl	%edi, %edx
	movl	%ecx, %edi
	roll	$5, %edi
	addl	%edi, %edx
.LVL440:
	movl	%eax, %edi
.LVL441:
	.loc 1 228 0
	movl	-52(%ebp), %eax
.LVL442:
	xorl	-60(%ebp), %eax
	xorl	-16(%ebp), %eax
	xorl	-40(%ebp), %eax
.LVL443:
	roll	%eax
.LVL444:
	movl	%eax, -52(%ebp)
.LVL445:
	movl	-92(%ebp), %eax
.LVL446:
	movl	-52(%ebp), %esi
	xorl	%edi, %eax
	leal	-899497514(%ebx,%esi), %ebx
.LVL447:
	xorl	%ecx, %eax
	rorl	$2, %ecx
.LVL448:
	addl	%ebx, %eax
	movl	%edx, %ebx
	roll	$5, %ebx
	addl	%eax, %ebx
.LVL449:
	.loc 1 229 0
	movl	-56(%ebp), %eax
	xorl	-64(%ebp), %eax
	xorl	-20(%ebp), %eax
	xorl	-44(%ebp), %eax
.LVL450:
	roll	%eax
.LVL451:
	movl	%eax, -56(%ebp)
.LVL452:
	movl	%edi, %eax
.LVL453:
	movl	-56(%ebp), %esi
	xorl	%ecx, %eax
	xorl	%edx, %eax
	movl	%eax, -96(%ebp)
	movl	-92(%ebp), %eax
	leal	-899497514(%eax,%esi), %esi
	movl	-96(%ebp), %eax
	addl	%esi, %eax
	movl	%ebx, %esi
	roll	$5, %esi
	addl	%esi, %eax
.LVL454:
	movl	%edx, %esi
	.loc 1 230 0
	movl	-60(%ebp), %edx
.LVL455:
	.loc 1 229 0
	rorl	$2, %esi
.LVL456:
	.loc 1 230 0
	xorl	-68(%ebp), %edx
	xorl	-24(%ebp), %edx
	.loc 1 229 0
	movl	%esi, -92(%ebp)
.LVL457:
	.loc 1 230 0
	xorl	-48(%ebp), %edx
.LVL458:
	roll	%edx
.LVL459:
	movl	%edx, -60(%ebp)
.LVL460:
	movl	%ecx, %edx
.LVL461:
	xorl	%esi, %edx
	movl	-60(%ebp), %esi
.LVL462:
	xorl	%ebx, %edx
	rorl	$2, %ebx
.LVL463:
	leal	-899497514(%edi,%esi), %edi
.LVL464:
	addl	%edi, %edx
	movl	%eax, %edi
	roll	$5, %edi
	addl	%edx, %edi
.LVL465:
	.loc 1 231 0
	movl	-64(%ebp), %edx
	xorl	-72(%ebp), %edx
	xorl	-32(%ebp), %edx
	xorl	-52(%ebp), %edx
.LVL466:
	roll	%edx
.LVL467:
	movl	%edx, -96(%ebp)
	movl	-92(%ebp), %edx
	movl	-96(%ebp), %esi
	xorl	%ebx, %edx
	leal	-899497514(%ecx,%esi), %ecx
.LVL468:
	xorl	%eax, %edx
	rorl	$2, %eax
.LVL469:
	addl	%ecx, %edx
	movl	%edi, %ecx
	roll	$5, %ecx
	addl	%ecx, %edx
.LVL470:
	movl	%eax, %ecx
.LVL471:
	.loc 1 232 0
	movl	-68(%ebp), %eax
.LVL472:
	xorl	-76(%ebp), %eax
	xorl	-36(%ebp), %eax
	xorl	-56(%ebp), %eax
.LVL473:
	roll	%eax
.LVL474:
	movl	%eax, -68(%ebp)
.LVL475:
	movl	%ebx, %eax
	movl	-68(%ebp), %esi
	xorl	%ecx, %eax
	xorl	%edi, %eax
	rorl	$2, %edi
.LVL476:
	movl	%eax, -64(%ebp)
	movl	-92(%ebp), %eax
	leal	-899497514(%eax,%esi), %esi
	movl	-64(%ebp), %eax
	movl	%edi, -64(%ebp)
	addl	%esi, %eax
	movl	%edx, %esi
	roll	$5, %esi
	addl	%eax, %esi
.LVL477:
	.loc 1 233 0
	movl	-72(%ebp), %eax
	xorl	-80(%ebp), %eax
	xorl	-40(%ebp), %eax
	xorl	-60(%ebp), %eax
.LVL478:
	roll	%eax
.LVL479:
	movl	%eax, -72(%ebp)
.LVL480:
	movl	%ecx, %eax
	xorl	%edi, %eax
	movl	-72(%ebp), %edi
.LVL481:
	xorl	%edx, %eax
	rorl	$2, %edx
.LVL482:
	leal	-899497514(%ebx,%edi), %ebx
.LVL483:
	addl	%ebx, %eax
	movl	%esi, %ebx
	roll	$5, %ebx
	addl	%ebx, %eax
.LVL484:
	.loc 1 234 0
	movl	-76(%ebp), %ebx
	xorl	-16(%ebp), %ebx
	xorl	-44(%ebp), %ebx
	xorl	-96(%ebp), %ebx
.LVL485:
	roll	%ebx
.LVL486:
	movl	%ebx, -44(%ebp)
.LVL487:
	movl	-64(%ebp), %ebx
	movl	-44(%ebp), %edi
	xorl	%edx, %ebx
	leal	-899497514(%ecx,%edi), %ecx
.LVL488:
	xorl	%esi, %ebx
	rorl	$2, %esi
.LVL489:
	addl	%ebx, %ecx
	movl	%eax, %ebx
	roll	$5, %ebx
	addl	%ebx, %ecx
.LVL490:
	.loc 1 235 0
	movl	-80(%ebp), %ebx
	xorl	-20(%ebp), %ebx
	xorl	-48(%ebp), %ebx
	xorl	-68(%ebp), %ebx
.LVL491:
	roll	%ebx
.LVL492:
	movl	%ebx, -48(%ebp)
.LVL493:
	movl	%edx, %ebx
	movl	-48(%ebp), %edi
	xorl	%esi, %ebx
	xorl	%eax, %ebx
	rorl	$2, %eax
.LVL494:
	movl	%ebx, -40(%ebp)
.LVL495:
	movl	-64(%ebp), %ebx
	leal	-899497514(%ebx,%edi), %edi
	movl	-40(%ebp), %ebx
	movl	%eax, -40(%ebp)
	addl	%edi, %ebx
	movl	%ecx, %edi
	roll	$5, %edi
	addl	%ebx, %edi
.LVL496:
	movl	-16(%ebp), %ebx
	xorl	-24(%ebp), %ebx
	xorl	-52(%ebp), %ebx
	xorl	-72(%ebp), %ebx
.LVL497:
	roll	%ebx
.LVL498:
	leal	-899497514(%edx,%ebx), %ebx
	movl	%esi, %edx
.LVL499:
	xorl	%eax, %edx
	xorl	%ecx, %edx
	.loc 1 236 0
	rorl	$2, %ecx
.LVL500:
	addl	%ebx, %edx
	movl	%edi, %ebx
	roll	$5, %ebx
	addl	%ebx, %edx
.LVL501:
	movl	-20(%ebp), %ebx
	xorl	-32(%ebp), %ebx
	xorl	-56(%ebp), %ebx
	xorl	-44(%ebp), %ebx
.LVL502:
	roll	%ebx
.LVL503:
	leal	-899497514(%esi,%ebx), %ebx
	movl	%eax, %esi
.LVL504:
	.loc 1 243 0
	movl	-84(%ebp), %eax
.LVL505:
	xorl	%ecx, %esi
.LVL506:
	xorl	%edi, %esi
	.loc 1 237 0
	rorl	$2, %edi
.LVL507:
	addl	%esi, %ebx
	movl	%edx, %esi
	roll	$5, %esi
	addl	%ebx, %esi
.LVL508:
	.loc 1 243 0
	movl	-24(%ebp), %ebx
	xorl	-36(%ebp), %ebx
	xorl	-60(%ebp), %ebx
	xorl	-48(%ebp), %ebx
.LVL509:
	roll	%ebx
.LVL510:
	leal	-899497514(%eax,%ebx), %ebx
.LVL511:
	movl	-40(%ebp), %eax
	addl	%ebx, %eax
	movl	%ecx, %ebx
	.loc 1 247 0
	addl	-104(%ebp), %ecx
.LVL512:
	.loc 1 243 0
	xorl	%edi, %ebx
.LVL513:
	.loc 1 246 0
	addl	-88(%ebp), %edi
.LVL514:
	.loc 1 243 0
	xorl	%edx, %ebx
	.loc 1 245 0
	rorl	$2, %edx
.LVL515:
	addl	-28(%ebp), %edx
.LVL516:
	.loc 1 243 0
	addl	%ebx, %eax
	movl	%esi, %ebx
	.loc 1 244 0
	addl	-100(%ebp), %esi
.LVL517:
	.loc 1 243 0
	roll	$5, %ebx
.LVL518:
	addl	%ebx, %eax
	movl	8(%ebp), %ebx
	movl	%eax, 8(%ebx)
	.loc 1 244 0
	movl	%esi, 12(%ebx)
	.loc 1 245 0
	movl	%edx, 16(%ebx)
	.loc 1 246 0
	movl	%edi, 20(%ebx)
	.loc 1 247 0
	movl	%ecx, 24(%ebx)
	.loc 1 248 0
	addl	$92, %esp
	popl	%ebx
	.cfi_restore 3
	popl	%esi
	.cfi_restore 6
	popl	%edi
	.cfi_restore 7
	popl	%ebp
	.cfi_restore 5
	.cfi_def_cfa 4, 4
	ret
	.cfi_endproc
.LFE6:
	.size	utils_sha1_process, .-utils_sha1_process
	.section	.text.unlikely.utils_sha1_process
.LCOLDE4:
	.section	.text.utils_sha1_process
.LHOTE4:
	.section	.text.unlikely.utils_sha1_update.part.0,"ax",@progbits
.LCOLDB5:
	.section	.text.utils_sha1_update.part.0,"ax",@progbits
.LHOTB5:
	.type	utils_sha1_update.part.0, @function
utils_sha1_update.part.0:
.LFB10:
	.loc 1 253 0
	.cfi_startproc
.LVL519:
	pushl	%ebp
	.cfi_def_cfa_offset 8
	.cfi_offset 5, -8
	movl	%esp, %ebp
	.cfi_def_cfa_register 5
	pushl	%edi
	pushl	%esi
	pushl	%ebx
	.cfi_offset 7, -12
	.cfi_offset 6, -16
	.cfi_offset 3, -20
	movl	%eax, %ebx
	movl	%edx, %esi
	.loc 1 263 0
	movl	$64, %edx
.LVL520:
	.loc 1 253 0
	subl	$8, %esp
	.loc 1 262 0
	movl	(%eax), %eax
.LVL521:
	.loc 1 253 0
	movl	%ecx, -16(%ebp)
	.loc 1 262 0
	movl	%eax, %edi
	.loc 1 265 0
	addl	%ecx, %eax
	.loc 1 262 0
	andl	$63, %edi
.LVL522:
	.loc 1 265 0
	movl	%eax, (%ebx)
	.loc 1 263 0
	subl	%edi, %edx
	.loc 1 268 0
	cmpl	%eax, %ecx
	.loc 1 263 0
	movl	%edx, -20(%ebp)
.LVL523:
	.loc 1 268 0
	jbe	.L19
	.loc 1 269 0
	incl	4(%ebx)
.L19:
	.loc 1 272 0
	testl	%edi, %edi
	je	.L20
	movl	-16(%ebp), %ecx
.LVL524:
	cmpl	%ecx, -20(%ebp)
	ja	.L20
	.loc 1 273 0
	leal	28(%ebx), %edx
.LVL525:
	movl	-20(%ebp), %ecx
	leal	(%edx,%edi), %eax
	movl	%eax, %edi
.LVL526:
	rep movsb
.LVL527:
	.loc 1 274 0
	pushl	%edx
	pushl	%ebx
	call	utils_sha1_process
.LVL528:
	.loc 1 276 0
	movl	-20(%ebp), %edi
	subl	%edi, -16(%ebp)
.LVL529:
	popl	%edi
	popl	%eax
	.loc 1 277 0
	xorl	%edi, %edi
.LVL530:
.L20:
	movl	-16(%ebp), %eax
.LVL531:
.L21:
	movl	-16(%ebp), %edx
	subl	%eax, %edx
	addl	%esi, %edx
.LVL532:
	.loc 1 280 0
	cmpl	$63, %eax
	jbe	.L34
	.loc 1 281 0
	pushl	%edx
	pushl	%ebx
	movl	%eax, -20(%ebp)
	call	utils_sha1_process
.LVL533:
	.loc 1 283 0
	movl	-20(%ebp), %eax
	popl	%edx
	popl	%ecx
	subl	$64, %eax
.LVL534:
	jmp	.L21
.LVL535:
.L34:
	movl	-16(%ebp), %ecx
	shrl	$6, %ecx
	movl	%ecx, %edx
.LVL536:
	sall	$6, %edx
	addl	%edx, %esi
.LVL537:
	imull	$-64, %ecx, %ecx
	.loc 1 286 0
	addl	-16(%ebp), %ecx
	je	.L18
	.loc 1 287 0
	leal	28(%ebx,%edi), %eax
.LVL538:
	movl	%eax, %edi
.LVL539:
	rep movsb
.L18:
	.loc 1 289 0
	leal	-12(%ebp), %esp
	popl	%ebx
	.cfi_restore 3
.LVL540:
	popl	%esi
	.cfi_restore 6
	popl	%edi
	.cfi_restore 7
	popl	%ebp
	.cfi_restore 5
	.cfi_def_cfa 4, 4
	ret
	.cfi_endproc
.LFE10:
	.size	utils_sha1_update.part.0, .-utils_sha1_update.part.0
	.section	.text.unlikely.utils_sha1_update.part.0
.LCOLDE5:
	.section	.text.utils_sha1_update.part.0
.LHOTE5:
	.section	.text.unlikely.utils_sha1_update,"ax",@progbits
.LCOLDB6:
	.section	.text.utils_sha1_update,"ax",@progbits
.LHOTB6:
	.globl	utils_sha1_update
	.type	utils_sha1_update, @function
utils_sha1_update:
.LFB7:
	.loc 1 254 0
	.cfi_startproc
.LVL541:
	pushl	%ebp
	.cfi_def_cfa_offset 8
	.cfi_offset 5, -8
	movl	%esp, %ebp
	.cfi_def_cfa_register 5
	.loc 1 254 0
	movl	16(%ebp), %ecx
	movl	8(%ebp), %eax
	movl	12(%ebp), %edx
	.loc 1 258 0
	testl	%ecx, %ecx
	je	.L35
	.loc 1 289 0
	popl	%ebp
	.cfi_remember_state
	.cfi_restore 5
	.cfi_def_cfa 4, 4
	jmp	utils_sha1_update.part.0
.LVL542:
.L35:
	.cfi_restore_state
	popl	%ebp
	.cfi_restore 5
	.cfi_def_cfa 4, 4
	ret
	.cfi_endproc
.LFE7:
	.size	utils_sha1_update, .-utils_sha1_update
	.section	.text.unlikely.utils_sha1_update
.LCOLDE6:
	.section	.text.utils_sha1_update
.LHOTE6:
	.section	.text.unlikely.utils_sha1_finish,"ax",@progbits
.LCOLDB7:
	.section	.text.utils_sha1_finish,"ax",@progbits
.LHOTB7:
	.globl	utils_sha1_finish
	.type	utils_sha1_finish, @function
utils_sha1_finish:
.LFB8:
	.loc 1 302 0
	.cfi_startproc
.LVL543:
	pushl	%ebp
	.cfi_def_cfa_offset 8
	.cfi_offset 5, -8
	movl	%esp, %ebp
	.cfi_def_cfa_register 5
	pushl	%edi
	pushl	%esi
	pushl	%ebx
	subl	$44, %esp
	.cfi_offset 7, -12
	.cfi_offset 6, -16
	.cfi_offset 3, -20
	.loc 1 302 0
	movl	8(%ebp), %ebx
	movl	12(%ebp), %esi
	movl	%gs:20, %eax
	movl	%eax, -28(%ebp)
	xorl	%eax, %eax
	.loc 1 307 0
	movl	(%ebx), %eax
	movl	%eax, -44(%ebp)
	movl	4(%ebx), %eax
	movl	-44(%ebp), %ecx
	leal	0(,%eax,8), %edx
	.loc 1 309 0
	movl	-44(%ebp), %eax
	.loc 1 307 0
	shrl	$29, %ecx
	orl	%ecx, %edx
.LVL544:
	.loc 1 311 0
	movl	%edx, %edi
	.loc 1 309 0
	leal	0(,%eax,8), %ecx
.LVL545:
	.loc 1 311 0
	movb	%dl, -33(%ebp)
	shrl	$24, %edi
	movl	%edi, %eax
	movl	%edx, %edi
	.loc 1 312 0
	movb	%cl, -29(%ebp)
	.loc 1 311 0
	shrl	$16, %edi
	movb	%al, -36(%ebp)
	movl	%edi, %eax
	movl	%edx, %edi
	.loc 1 312 0
	movl	%ecx, %edx
.LVL546:
	.loc 1 311 0
	shrl	$8, %edi
.LVL547:
	movb	%al, -35(%ebp)
	.loc 1 312 0
	shrl	$24, %edx
	.loc 1 311 0
	movl	%edi, %eax
	.loc 1 312 0
	movb	%dl, -32(%ebp)
	movl	%ecx, %edx
	.loc 1 311 0
	movb	%al, -34(%ebp)
	.loc 1 314 0
	movl	-44(%ebp), %eax
	.loc 1 312 0
	shrl	$16, %edx
	movb	%dl, -31(%ebp)
	movl	%ecx, %edx
	shrl	$8, %edx
	.loc 1 314 0
	andl	$63, %eax
.LVL548:
	.loc 1 312 0
	movb	%dl, -30(%ebp)
	.loc 1 315 0
	movl	$56, %edx
	cmpl	$55, %eax
	jbe	.L43
	.loc 1 315 0 is_stmt 0 discriminator 2
	movl	$120, %edx
.L43:
	subl	%eax, %edx
.LVL549:
	.loc 1 317 0 is_stmt 1 discriminator 2
	pushl	%edx
.LVL550:
	pushl	$iot_sha1_padding
	pushl	%ebx
	call	utils_sha1_update
.LVL551:
.LBB8:
.LBB9:
	leal	-36(%ebp), %edx
.LVL552:
	movl	%ebx, %eax
	movl	$8, %ecx
	call	utils_sha1_update.part.0
.LVL553:
.LBE9:
.LBE8:
	.loc 1 320 0 discriminator 2
	movzbl	11(%ebx), %eax
	.loc 1 325 0 discriminator 2
	addl	$12, %esp
	.loc 1 320 0 discriminator 2
	movb	%al, (%esi)
	movzwl	10(%ebx), %eax
	movb	%al, 1(%esi)
	movl	8(%ebx), %eax
	shrl	$8, %eax
	movb	%al, 2(%esi)
	movl	8(%ebx), %eax
	movb	%al, 3(%esi)
	.loc 1 321 0 discriminator 2
	movzbl	15(%ebx), %eax
	movb	%al, 4(%esi)
	movzwl	14(%ebx), %eax
	movb	%al, 5(%esi)
	movl	12(%ebx), %eax
	shrl	$8, %eax
	movb	%al, 6(%esi)
	movl	12(%ebx), %eax
	movb	%al, 7(%esi)
	.loc 1 322 0 discriminator 2
	movzbl	19(%ebx), %eax
	movb	%al, 8(%esi)
	movzwl	18(%ebx), %eax
	movb	%al, 9(%esi)
	movl	16(%ebx), %eax
	shrl	$8, %eax
	movb	%al, 10(%esi)
	movl	16(%ebx), %eax
	movb	%al, 11(%esi)
	.loc 1 323 0 discriminator 2
	movzbl	23(%ebx), %eax
	movb	%al, 12(%esi)
	movzwl	22(%ebx), %eax
	movb	%al, 13(%esi)
	movl	20(%ebx), %eax
	shrl	$8, %eax
	movb	%al, 14(%esi)
	movl	20(%ebx), %eax
	movb	%al, 15(%esi)
	.loc 1 324 0 discriminator 2
	movzbl	27(%ebx), %eax
	movb	%al, 16(%esi)
	movzwl	26(%ebx), %eax
	movb	%al, 17(%esi)
	movl	24(%ebx), %eax
	shrl	$8, %eax
	movb	%al, 18(%esi)
	movl	24(%ebx), %eax
	movb	%al, 19(%esi)
	.loc 1 325 0 discriminator 2
	movl	-28(%ebp), %eax
	xorl	%gs:20, %eax
	je	.L41
	.loc 1 325 0 is_stmt 0
	call	__stack_chk_fail
.LVL554:
.L41:
	leal	-12(%ebp), %esp
	popl	%ebx
	.cfi_restore 3
	popl	%esi
	.cfi_restore 6
	popl	%edi
	.cfi_restore 7
	popl	%ebp
	.cfi_restore 5
	.cfi_def_cfa 4, 4
	ret
	.cfi_endproc
.LFE8:
	.size	utils_sha1_finish, .-utils_sha1_finish
	.section	.text.unlikely.utils_sha1_finish
.LCOLDE7:
	.section	.text.utils_sha1_finish
.LHOTE7:
	.section	.text.unlikely.utils_sha1,"ax",@progbits
.LCOLDB8:
	.section	.text.utils_sha1,"ax",@progbits
.LHOTB8:
	.globl	utils_sha1
	.type	utils_sha1, @function
utils_sha1:
.LFB9:
	.loc 1 332 0 is_stmt 1
	.cfi_startproc
.LVL555:
	pushl	%ebp
	.cfi_def_cfa_offset 8
	.cfi_offset 5, -8
	movl	%esp, %ebp
	.cfi_def_cfa_register 5
	pushl	%esi
	pushl	%ebx
	.cfi_offset 6, -12
	.cfi_offset 3, -16
	.loc 1 335 0
	leal	-104(%ebp), %ebx
	.loc 1 332 0
	subl	$96, %esp
	.loc 1 332 0
	movl	8(%ebp), %edx
	movl	16(%ebp), %esi
	.loc 1 335 0
	pushl	%ebx
	.loc 1 332 0
	movl	%gs:20, %eax
	movl	%eax, -12(%ebp)
	xorl	%eax, %eax
	.loc 1 335 0
	call	utils_sha1_init
.LVL556:
	.loc 1 336 0
	pushl	%ebx
	call	utils_sha1_starts
.LVL557:
	.loc 1 337 0
	pushl	12(%ebp)
	pushl	%edx
	pushl	%ebx
	call	utils_sha1_update
.LVL558:
	.loc 1 338 0
	addl	$12, %esp
	pushl	%esi
	pushl	%ebx
	call	utils_sha1_finish
.LVL559:
	.loc 1 339 0
	movl	%ebx, (%esp)
	call	utils_sha1_free
.LVL560:
	.loc 1 340 0
	addl	$16, %esp
	movl	-12(%ebp), %eax
	xorl	%gs:20, %eax
	je	.L45
	call	__stack_chk_fail
.LVL561:
.L45:
	leal	-8(%ebp), %esp
	popl	%ebx
	.cfi_restore 3
	popl	%esi
	.cfi_restore 6
	popl	%ebp
	.cfi_restore 5
	.cfi_def_cfa 4, 4
	ret
	.cfi_endproc
.LFE9:
	.size	utils_sha1, .-utils_sha1
	.section	.text.unlikely.utils_sha1
.LCOLDE8:
	.section	.text.utils_sha1
.LHOTE8:
	.section	.rodata.iot_sha1_padding,"a",@progbits
	.align 32
	.type	iot_sha1_padding, @object
	.size	iot_sha1_padding, 64
iot_sha1_padding:
	.byte	-128
	.byte	0
	.byte	0
	.byte	0
	.byte	0
	.byte	0
	.byte	0
	.byte	0
	.byte	0
	.byte	0
	.byte	0
	.byte	0
	.byte	0
	.byte	0
	.byte	0
	.byte	0
	.byte	0
	.byte	0
	.byte	0
	.byte	0
	.byte	0
	.byte	0
	.byte	0
	.byte	0
	.byte	0
	.byte	0
	.byte	0
	.byte	0
	.byte	0
	.byte	0
	.byte	0
	.byte	0
	.byte	0
	.byte	0
	.byte	0
	.byte	0
	.byte	0
	.byte	0
	.byte	0
	.byte	0
	.byte	0
	.byte	0
	.byte	0
	.byte	0
	.byte	0
	.byte	0
	.byte	0
	.byte	0
	.byte	0
	.byte	0
	.byte	0
	.byte	0
	.byte	0
	.byte	0
	.byte	0
	.byte	0
	.byte	0
	.byte	0
	.byte	0
	.byte	0
	.byte	0
	.byte	0
	.byte	0
	.byte	0
	.text
.Letext0:
	.section	.text.unlikely.utils_sha1_init
.Letext_cold0:
	.file 2 "/home/stone/Documents/Ali_IOT/build/compiler/gcc-arm-none-eabi/Linux64/lib/gcc/arm-none-eabi/5.4.1/include/stddef.h"
	.file 3 "/home/stone/Documents/Ali_IOT/build/compiler/gcc-arm-none-eabi/Linux64/arm-none-eabi/include/machine/_default_types.h"
	.file 4 "/home/stone/Documents/Ali_IOT/build/compiler/gcc-arm-none-eabi/Linux64/arm-none-eabi/include/sys/_stdint.h"
	.file 5 "framework/protocol/linkkit/iotkit/base/utils//digest/utils_sha1.h"
	.section	.note.GNU-stack,"",@progbits
