	.file	"utils_list.c"
	.text
.Ltext0:
	.section	.text.unlikely.list_new,"ax",@progbits
.LCOLDB0:
	.section	.text.list_new,"ax",@progbits
.LHOTB0:
	.section	.text.unlikely.list_new
.Ltext_cold0:
	.section	.text.list_new
	.globl	list_new
	.type	list_new, @function
list_new:
.LFB18:
	.file 1 "framework/protocol/linkkit/iotkit/base/utils//misc/utils_list.c"
	.loc 1 32 0
	.cfi_startproc
	pushl	%ebp
	.cfi_def_cfa_offset 8
	.cfi_offset 5, -8
	movl	%esp, %ebp
	.cfi_def_cfa_register 5
	subl	$12, %esp
	.loc 1 34 0
	pushl	$20
	pushl	$34
	pushl	$__func__.3528
	call	LITE_malloc_internal
.LVL0:
	.loc 1 35 0
	addl	$16, %esp
	testl	%eax, %eax
	je	.L2
	.loc 1 38 0
	movl	$0, (%eax)
	.loc 1 39 0
	movl	$0, 4(%eax)
	.loc 1 40 0
	movl	$0, 12(%eax)
	.loc 1 41 0
	movl	$0, 16(%eax)
	.loc 1 42 0
	movl	$0, 8(%eax)
.L2:
	.loc 1 44 0
	leave
	.cfi_restore 5
	.cfi_def_cfa 4, 4
	ret
	.cfi_endproc
.LFE18:
	.size	list_new, .-list_new
	.section	.text.unlikely.list_new
.LCOLDE0:
	.section	.text.list_new
.LHOTE0:
	.section	.text.unlikely.list_destroy,"ax",@progbits
.LCOLDB1:
	.section	.text.list_destroy,"ax",@progbits
.LHOTB1:
	.globl	list_destroy
	.type	list_destroy, @function
list_destroy:
.LFB19:
	.loc 1 50 0
	.cfi_startproc
.LVL1:
	pushl	%ebp
	.cfi_def_cfa_offset 8
	.cfi_offset 5, -8
	movl	%esp, %ebp
	.cfi_def_cfa_register 5
	pushl	%edi
	pushl	%esi
	pushl	%ebx
	subl	$28, %esp
	.cfi_offset 7, -12
	.cfi_offset 6, -16
	.cfi_offset 3, -20
	.loc 1 50 0
	movl	8(%ebp), %ebx
.LVL2:
	.loc 1 53 0
	movl	(%ebx), %edi
.LVL3:
	.loc 1 55 0
	movl	8(%ebx), %esi
.LVL4:
.L9:
	testl	%esi, %esi
	je	.L16
	.loc 1 57 0
	movl	12(%ebx), %edx
	.loc 1 56 0
	movl	4(%edi), %eax
	.loc 1 57 0
	testl	%edx, %edx
	.loc 1 56 0
	movl	%eax, -28(%ebp)
.LVL5:
	.loc 1 57 0
	je	.L10
	.loc 1 58 0
	subl	$12, %esp
	pushl	8(%edi)
	call	*%edx
.LVL6:
	addl	$16, %esp
.L10:
	.loc 1 60 0
	subl	$12, %esp
	decl	%esi
.LVL7:
	pushl	%edi
	call	LITE_free_internal
.LVL8:
	addl	$16, %esp
	movl	-28(%ebp), %edi
	jmp	.L9
.LVL9:
.L16:
	.loc 1 64 0 discriminator 2
	movl	%ebx, 8(%ebp)
	.loc 1 65 0 discriminator 2
	leal	-12(%ebp), %esp
	popl	%ebx
	.cfi_restore 3
	popl	%esi
	.cfi_restore 6
.LVL10:
	popl	%edi
	.cfi_restore 7
.LVL11:
	popl	%ebp
	.cfi_restore 5
	.cfi_def_cfa 4, 4
	.loc 1 64 0 discriminator 2
	jmp	LITE_free_internal
.LVL12:
	.cfi_endproc
.LFE19:
	.size	list_destroy, .-list_destroy
	.section	.text.unlikely.list_destroy
.LCOLDE1:
	.section	.text.list_destroy
.LHOTE1:
	.section	.text.unlikely.list_rpush,"ax",@progbits
.LCOLDB2:
	.section	.text.list_rpush,"ax",@progbits
.LHOTB2:
	.globl	list_rpush
	.type	list_rpush, @function
list_rpush:
.LFB20:
	.loc 1 72 0
	.cfi_startproc
.LVL13:
	pushl	%ebp
	.cfi_def_cfa_offset 8
	.cfi_offset 5, -8
	xorl	%eax, %eax
	movl	%esp, %ebp
	.cfi_def_cfa_register 5
	pushl	%ebx
	.cfi_offset 3, -12
	.loc 1 72 0
	movl	12(%ebp), %edx
	movl	8(%ebp), %ecx
	.loc 1 73 0
	testl	%edx, %edx
	je	.L18
	.loc 1 77 0
	movl	8(%ecx), %eax
	testl	%eax, %eax
	je	.L19
	.loc 1 78 0
	movl	4(%ecx), %ebx
	.loc 1 79 0
	movl	$0, 4(%edx)
	.loc 1 78 0
	movl	%ebx, (%edx)
	.loc 1 80 0
	movl	%edx, 4(%ebx)
	.loc 1 81 0
	movl	%edx, 4(%ecx)
	jmp	.L20
.LVL14:
.L19:
	.loc 1 83 0
	movl	%edx, 4(%ecx)
	movl	%edx, (%ecx)
	.loc 1 84 0
	movl	$0, 4(%edx)
	movl	$0, (%edx)
.LVL15:
.L20:
	.loc 1 87 0
	incl	%eax
	movl	%eax, 8(%ecx)
	.loc 1 88 0
	movl	%edx, %eax
.L18:
	.loc 1 89 0
	popl	%ebx
	.cfi_restore 3
	popl	%ebp
	.cfi_restore 5
	.cfi_def_cfa 4, 4
	ret
	.cfi_endproc
.LFE20:
	.size	list_rpush, .-list_rpush
	.section	.text.unlikely.list_rpush
.LCOLDE2:
	.section	.text.list_rpush
.LHOTE2:
	.section	.text.unlikely.list_rpop,"ax",@progbits
.LCOLDB3:
	.section	.text.list_rpop,"ax",@progbits
.LHOTB3:
	.globl	list_rpop
	.type	list_rpop, @function
list_rpop:
.LFB21:
	.loc 1 95 0
	.cfi_startproc
.LVL16:
	pushl	%ebp
	.cfi_def_cfa_offset 8
	.cfi_offset 5, -8
	xorl	%eax, %eax
	movl	%esp, %ebp
	.cfi_def_cfa_register 5
	.loc 1 95 0
	movl	8(%ebp), %edx
	.loc 1 97 0
	movl	8(%edx), %ecx
	testl	%ecx, %ecx
	je	.L25
	.loc 1 103 0
	decl	%ecx
	.loc 1 101 0
	movl	4(%edx), %eax
.LVL17:
	.loc 1 103 0
	testl	%ecx, %ecx
	movl	%ecx, 8(%edx)
	je	.L26
	.loc 1 104 0
	movl	(%eax), %ecx
	movl	%ecx, 4(%edx)
	movl	$0, 4(%ecx)
	jmp	.L27
.L26:
	.loc 1 106 0
	movl	$0, (%edx)
	movl	$0, 4(%edx)
.LVL18:
.L27:
	.loc 1 109 0
	movl	$0, (%eax)
	movl	$0, 4(%eax)
.LVL19:
.L25:
	.loc 1 111 0
	popl	%ebp
	.cfi_restore 5
	.cfi_def_cfa 4, 4
	ret
	.cfi_endproc
.LFE21:
	.size	list_rpop, .-list_rpop
	.section	.text.unlikely.list_rpop
.LCOLDE3:
	.section	.text.list_rpop
.LHOTE3:
	.section	.text.unlikely.list_lpop,"ax",@progbits
.LCOLDB4:
	.section	.text.list_lpop,"ax",@progbits
.LHOTB4:
	.globl	list_lpop
	.type	list_lpop, @function
list_lpop:
.LFB22:
	.loc 1 117 0
	.cfi_startproc
.LVL20:
	pushl	%ebp
	.cfi_def_cfa_offset 8
	.cfi_offset 5, -8
	xorl	%eax, %eax
	movl	%esp, %ebp
	.cfi_def_cfa_register 5
	.loc 1 117 0
	movl	8(%ebp), %edx
	.loc 1 119 0
	movl	8(%edx), %ecx
	testl	%ecx, %ecx
	je	.L32
	.loc 1 125 0
	decl	%ecx
	.loc 1 123 0
	movl	(%edx), %eax
.LVL21:
	.loc 1 125 0
	testl	%ecx, %ecx
	movl	%ecx, 8(%edx)
	je	.L33
	.loc 1 126 0
	movl	4(%eax), %ecx
	movl	%ecx, (%edx)
	movl	$0, (%ecx)
	jmp	.L34
.L33:
	.loc 1 128 0
	movl	$0, 4(%edx)
	movl	$0, (%edx)
.LVL22:
.L34:
	.loc 1 131 0
	movl	$0, (%eax)
	movl	$0, 4(%eax)
.LVL23:
.L32:
	.loc 1 133 0
	popl	%ebp
	.cfi_restore 5
	.cfi_def_cfa 4, 4
	ret
	.cfi_endproc
.LFE22:
	.size	list_lpop, .-list_lpop
	.section	.text.unlikely.list_lpop
.LCOLDE4:
	.section	.text.list_lpop
.LHOTE4:
	.section	.text.unlikely.list_lpush,"ax",@progbits
.LCOLDB5:
	.section	.text.list_lpush,"ax",@progbits
.LHOTB5:
	.globl	list_lpush
	.type	list_lpush, @function
list_lpush:
.LFB23:
	.loc 1 140 0
	.cfi_startproc
.LVL24:
	pushl	%ebp
	.cfi_def_cfa_offset 8
	.cfi_offset 5, -8
	xorl	%eax, %eax
	movl	%esp, %ebp
	.cfi_def_cfa_register 5
	pushl	%ebx
	.cfi_offset 3, -12
	.loc 1 140 0
	movl	12(%ebp), %edx
	movl	8(%ebp), %ecx
	.loc 1 141 0
	testl	%edx, %edx
	je	.L39
	.loc 1 145 0
	movl	8(%ecx), %eax
	testl	%eax, %eax
	je	.L40
	.loc 1 146 0
	movl	(%ecx), %ebx
	.loc 1 147 0
	movl	$0, (%edx)
	.loc 1 146 0
	movl	%ebx, 4(%edx)
	.loc 1 148 0
	movl	%edx, (%ebx)
	.loc 1 149 0
	movl	%edx, (%ecx)
	jmp	.L41
.LVL25:
.L40:
	.loc 1 151 0
	movl	%edx, 4(%ecx)
	movl	%edx, (%ecx)
	.loc 1 152 0
	movl	$0, 4(%edx)
	movl	$0, (%edx)
.LVL26:
.L41:
	.loc 1 155 0
	incl	%eax
	movl	%eax, 8(%ecx)
	.loc 1 156 0
	movl	%edx, %eax
.L39:
	.loc 1 157 0
	popl	%ebx
	.cfi_restore 3
	popl	%ebp
	.cfi_restore 5
	.cfi_def_cfa 4, 4
	ret
	.cfi_endproc
.LFE23:
	.size	list_lpush, .-list_lpush
	.section	.text.unlikely.list_lpush
.LCOLDE5:
	.section	.text.list_lpush
.LHOTE5:
	.section	.text.unlikely.list_remove,"ax",@progbits
.LCOLDB6:
	.section	.text.list_remove,"ax",@progbits
.LHOTB6:
	.globl	list_remove
	.type	list_remove, @function
list_remove:
.LFB26:
	.loc 1 225 0
	.cfi_startproc
.LVL27:
	pushl	%ebp
	.cfi_def_cfa_offset 8
	.cfi_offset 5, -8
	movl	%esp, %ebp
	.cfi_def_cfa_register 5
	pushl	%esi
	pushl	%ebx
	.cfi_offset 6, -12
	.cfi_offset 3, -16
	.loc 1 225 0
	movl	12(%ebp), %esi
	movl	8(%ebp), %ebx
	.loc 1 226 0
	movl	(%esi), %eax
	movl	4(%esi), %edx
	testl	%eax, %eax
	je	.L46
	.loc 1 226 0 is_stmt 0 discriminator 1
	movl	%edx, 4(%eax)
	jmp	.L47
.L46:
	.loc 1 226 0 discriminator 2
	movl	%edx, (%ebx)
.LVL28:
.L47:
	.loc 1 228 0 is_stmt 1
	movl	4(%esi), %edx
	testl	%edx, %edx
	je	.L48
	.loc 1 228 0 is_stmt 0 discriminator 1
	movl	%eax, (%edx)
	jmp	.L49
.L48:
	.loc 1 228 0 discriminator 2
	movl	%eax, 4(%ebx)
.L49:
	.loc 1 230 0 is_stmt 1
	movl	12(%ebx), %eax
	testl	%eax, %eax
	je	.L50
	.loc 1 231 0
	subl	$12, %esp
	pushl	8(%esi)
	call	*%eax
.LVL29:
	addl	$16, %esp
.L50:
	.loc 1 234 0
	subl	$12, %esp
	pushl	%esi
	call	LITE_free_internal
.LVL30:
	.loc 1 235 0
	decl	8(%ebx)
	.loc 1 236 0
	addl	$16, %esp
	leal	-8(%ebp), %esp
	popl	%ebx
	.cfi_restore 3
.LVL31:
	popl	%esi
	.cfi_restore 6
	popl	%ebp
	.cfi_restore 5
	.cfi_def_cfa 4, 4
	ret
	.cfi_endproc
.LFE26:
	.size	list_remove, .-list_remove
	.section	.text.unlikely.list_remove
.LCOLDE6:
	.section	.text.list_remove
.LHOTE6:
	.section	.text.unlikely.list_iterator_new_from_node,"ax",@progbits
.LCOLDB7:
	.section	.text.list_iterator_new_from_node,"ax",@progbits
.LHOTB7:
	.globl	list_iterator_new_from_node
	.type	list_iterator_new_from_node, @function
list_iterator_new_from_node:
.LFB28:
	.loc 1 253 0
	.cfi_startproc
.LVL32:
	pushl	%ebp
	.cfi_def_cfa_offset 8
	.cfi_offset 5, -8
	movl	%esp, %ebp
	.cfi_def_cfa_register 5
	subl	$12, %esp
	.loc 1 255 0
	pushl	$8
	pushl	$255
	pushl	$__func__.3592
	call	LITE_malloc_internal
.LVL33:
	.loc 1 256 0
	addl	$16, %esp
	testl	%eax, %eax
	je	.L56
	.loc 1 259 0
	movl	8(%ebp), %edx
	movl	%edx, (%eax)
	.loc 1 260 0
	movl	12(%ebp), %edx
	movl	%edx, 4(%eax)
.L56:
	.loc 1 262 0
	leave
	.cfi_restore 5
	.cfi_def_cfa 4, 4
	ret
	.cfi_endproc
.LFE28:
	.size	list_iterator_new_from_node, .-list_iterator_new_from_node
	.section	.text.unlikely.list_iterator_new_from_node
.LCOLDE7:
	.section	.text.list_iterator_new_from_node
.LHOTE7:
	.section	.text.unlikely.list_iterator_new,"ax",@progbits
.LCOLDB8:
	.section	.text.list_iterator_new,"ax",@progbits
.LHOTB8:
	.globl	list_iterator_new
	.type	list_iterator_new, @function
list_iterator_new:
.LFB27:
	.loc 1 243 0
	.cfi_startproc
.LVL34:
	pushl	%ebp
	.cfi_def_cfa_offset 8
	.cfi_offset 5, -8
	movl	%esp, %ebp
	.cfi_def_cfa_register 5
	.loc 1 243 0
	movl	8(%ebp), %ecx
	movl	12(%ebp), %edx
	.loc 1 244 0
	movl	4(%ecx), %eax
	testl	%edx, %edx
	cmove	(%ecx), %eax
.LVL35:
	.loc 1 245 0
	movl	%eax, 8(%ebp)
.LVL36:
	.loc 1 246 0
	popl	%ebp
	.cfi_restore 5
	.cfi_def_cfa 4, 4
	.loc 1 245 0
	jmp	list_iterator_new_from_node
.LVL37:
	.cfi_endproc
.LFE27:
	.size	list_iterator_new, .-list_iterator_new
	.section	.text.unlikely.list_iterator_new
.LCOLDE8:
	.section	.text.list_iterator_new
.LHOTE8:
	.section	.text.unlikely.list_iterator_next,"ax",@progbits
.LCOLDB9:
	.section	.text.list_iterator_next,"ax",@progbits
.LHOTB9:
	.globl	list_iterator_next
	.type	list_iterator_next, @function
list_iterator_next:
.LFB29:
	.loc 1 269 0
	.cfi_startproc
.LVL38:
	pushl	%ebp
	.cfi_def_cfa_offset 8
	.cfi_offset 5, -8
	movl	%esp, %ebp
	.cfi_def_cfa_register 5
	.loc 1 269 0
	movl	8(%ebp), %edx
	.loc 1 270 0
	movl	(%edx), %eax
.LVL39:
	.loc 1 271 0
	testl	%eax, %eax
	je	.L65
	.loc 1 272 0
	cmpl	$0, 4(%edx)
	movl	4(%eax), %ecx
	cmovne	(%eax), %ecx
	movl	%ecx, (%edx)
.L65:
	.loc 1 275 0
	popl	%ebp
	.cfi_restore 5
	.cfi_def_cfa 4, 4
	ret
	.cfi_endproc
.LFE29:
	.size	list_iterator_next, .-list_iterator_next
	.section	.text.unlikely.list_iterator_next
.LCOLDE9:
	.section	.text.list_iterator_next
.LHOTE9:
	.section	.rodata.str1.1,"aMS",@progbits,1
.LC10:
	.string	"self"
.LC11:
	.string	"%s == NULL! LITE_free(%s) aborted."
	.section	.text.unlikely.list_iterator_destroy,"ax",@progbits
.LCOLDB12:
	.section	.text.list_iterator_destroy,"ax",@progbits
.LHOTB12:
	.globl	list_iterator_destroy
	.type	list_iterator_destroy, @function
list_iterator_destroy:
.LFB30:
	.loc 1 281 0
	.cfi_startproc
.LVL40:
	pushl	%ebp
	.cfi_def_cfa_offset 8
	.cfi_offset 5, -8
	movl	%esp, %ebp
	.cfi_def_cfa_register 5
	subl	$8, %esp
	.loc 1 281 0
	movl	8(%ebp), %eax
	.loc 1 282 0
	testl	%eax, %eax
	jne	.L72
.LVL41:
.LBB4:
.LBB5:
	pushl	%eax
	pushl	%eax
	pushl	$.LC10
	pushl	$.LC10
	pushl	$.LC11
	pushl	$2
	pushl	$282
	pushl	$__FUNCTION__.3600
	call	LITE_syslog
.LVL42:
	addl	$32, %esp
.LBE5:
.LBE4:
	.loc 1 284 0
	leave
	.cfi_remember_state
	.cfi_restore 5
	.cfi_def_cfa 4, 4
	ret
.LVL43:
.L72:
	.cfi_restore_state
	.loc 1 282 0 discriminator 2
	movl	%eax, 8(%ebp)
.LVL44:
	.loc 1 284 0 discriminator 2
	leave
	.cfi_restore 5
	.cfi_def_cfa 4, 4
	.loc 1 282 0 discriminator 2
	jmp	LITE_free_internal
.LVL45:
	.cfi_endproc
.LFE30:
	.size	list_iterator_destroy, .-list_iterator_destroy
	.section	.text.unlikely.list_iterator_destroy
.LCOLDE12:
	.section	.text.list_iterator_destroy
.LHOTE12:
	.section	.text.unlikely.list_find,"ax",@progbits
.LCOLDB13:
	.section	.text.list_find,"ax",@progbits
.LHOTB13:
	.globl	list_find
	.type	list_find, @function
list_find:
.LFB24:
	.loc 1 163 0
	.cfi_startproc
.LVL46:
	pushl	%ebp
	.cfi_def_cfa_offset 8
	.cfi_offset 5, -8
	movl	%esp, %ebp
	.cfi_def_cfa_register 5
	pushl	%edi
	pushl	%esi
	pushl	%ebx
	subl	$20, %esp
	.cfi_offset 7, -12
	.cfi_offset 6, -16
	.cfi_offset 3, -20
	.loc 1 163 0
	movl	12(%ebp), %edi
	.loc 1 167 0
	pushl	$0
	pushl	8(%ebp)
	call	list_iterator_new
.LVL47:
	movl	%eax, %esi
.LVL48:
	addl	$16, %esp
	.loc 1 168 0
	xorl	%eax, %eax
.LVL49:
	.loc 1 167 0
	testl	%esi, %esi
	je	.L77
.L80:
	.loc 1 183 0
	subl	$12, %esp
	pushl	%esi
	call	list_iterator_next
.LVL50:
	addl	$16, %esp
	.loc 1 171 0
	testl	%eax, %eax
	.loc 1 183 0
	movl	%eax, %ebx
.LVL51:
	.loc 1 171 0
	je	.L88
	.loc 1 172 0
	movl	8(%ebp), %eax
.LVL52:
	movl	16(%eax), %eax
	testl	%eax, %eax
	je	.L79
	.loc 1 173 0
	pushl	%edx
	pushl	%edx
	pushl	8(%ebx)
	pushl	%edi
	call	*%eax
.LVL53:
	addl	$16, %esp
	testl	%eax, %eax
	je	.L80
	jmp	.L87
.L79:
	.loc 1 178 0
	cmpl	%edi, 8(%ebx)
	jne	.L80
.L87:
	.loc 1 179 0
	subl	$12, %esp
	pushl	%esi
	call	list_iterator_destroy
.LVL54:
	.loc 1 180 0
	addl	$16, %esp
	movl	%ebx, %eax
	jmp	.L77
.LVL55:
.L88:
	.loc 1 186 0
	subl	$12, %esp
	pushl	%esi
	call	list_iterator_destroy
.LVL56:
	.loc 1 187 0
	addl	$16, %esp
	xorl	%eax, %eax
.LVL57:
.L77:
	.loc 1 188 0
	leal	-12(%ebp), %esp
	popl	%ebx
	.cfi_restore 3
	popl	%esi
	.cfi_restore 6
.LVL58:
	popl	%edi
	.cfi_restore 7
	popl	%ebp
	.cfi_restore 5
	.cfi_def_cfa 4, 4
	ret
	.cfi_endproc
.LFE24:
	.size	list_find, .-list_find
	.section	.text.unlikely.list_find
.LCOLDE13:
	.section	.text.list_find
.LHOTE13:
	.section	.text.unlikely.list_at,"ax",@progbits
.LCOLDB14:
	.section	.text.list_at,"ax",@progbits
.LHOTB14:
	.globl	list_at
	.type	list_at, @function
list_at:
.LFB25:
	.loc 1 194 0
	.cfi_startproc
.LVL59:
	pushl	%ebp
	.cfi_def_cfa_offset 8
	.cfi_offset 5, -8
	xorl	%edx, %edx
	movl	%esp, %ebp
	.cfi_def_cfa_register 5
	pushl	%esi
	pushl	%ebx
	subl	$16, %esp
	.cfi_offset 6, -12
	.cfi_offset 3, -16
	.loc 1 194 0
	movl	12(%ebp), %ebx
	movl	8(%ebp), %eax
	.loc 1 197 0
	testl	%ebx, %ebx
	jns	.L90
.LVL60:
	.loc 1 199 0
	notl	%ebx
.LVL61:
	.loc 1 198 0
	movl	$1, %edx
.LVL62:
.L90:
	.loc 1 202 0
	cmpl	%ebx, 8(%eax)
	ja	.L91
.LVL63:
.L93:
	.loc 1 218 0
	xorl	%eax, %eax
	jmp	.L92
.LVL64:
.L91:
.LBB6:
	.loc 1 206 0
	pushl	%ecx
	pushl	%ecx
	pushl	%edx
	pushl	%eax
	call	list_iterator_new
.LVL65:
	addl	$16, %esp
	testl	%eax, %eax
	movl	%eax, %esi
.LVL66:
	je	.L93
.LVL67:
.L95:
	.loc 1 212 0
	subl	$12, %esp
	.loc 1 211 0
	decl	%ebx
.LVL68:
	.loc 1 212 0
	pushl	%esi
	call	list_iterator_next
.LVL69:
	addl	$16, %esp
.LVL70:
	.loc 1 211 0
	cmpl	$-1, %ebx
	jne	.L95
	.loc 1 214 0
	subl	$12, %esp
	movl	%eax, -12(%ebp)
	pushl	%esi
	call	list_iterator_destroy
.LVL71:
	.loc 1 215 0
	movl	-12(%ebp), %eax
	addl	$16, %esp
.LVL72:
.L92:
.LBE6:
	.loc 1 219 0
	leal	-8(%ebp), %esp
	popl	%ebx
	.cfi_restore 3
.LVL73:
	popl	%esi
	.cfi_restore 6
	popl	%ebp
	.cfi_restore 5
	.cfi_def_cfa 4, 4
	ret
	.cfi_endproc
.LFE25:
	.size	list_at, .-list_at
	.section	.text.unlikely.list_at
.LCOLDE14:
	.section	.text.list_at
.LHOTE14:
	.section	.text.unlikely.list_node_new,"ax",@progbits
.LCOLDB15:
	.section	.text.list_node_new,"ax",@progbits
.LHOTB15:
	.globl	list_node_new
	.type	list_node_new, @function
list_node_new:
.LFB31:
	.loc 1 290 0
	.cfi_startproc
.LVL74:
	pushl	%ebp
	.cfi_def_cfa_offset 8
	.cfi_offset 5, -8
	movl	%esp, %ebp
	.cfi_def_cfa_register 5
	subl	$12, %esp
	.loc 1 292 0
	pushl	$12
	pushl	$292
	pushl	$__func__.3606
	call	LITE_malloc_internal
.LVL75:
	.loc 1 293 0
	addl	$16, %esp
	testl	%eax, %eax
	je	.L103
	.loc 1 299 0
	movl	8(%ebp), %edx
	.loc 1 297 0
	movl	$0, (%eax)
	.loc 1 298 0
	movl	$0, 4(%eax)
	.loc 1 299 0
	movl	%edx, 8(%eax)
.L103:
	.loc 1 301 0
	leave
	.cfi_restore 5
	.cfi_def_cfa 4, 4
	ret
	.cfi_endproc
.LFE31:
	.size	list_node_new, .-list_node_new
	.section	.text.unlikely.list_node_new
.LCOLDE15:
	.section	.text.list_node_new
.LHOTE15:
	.section	.rodata.__func__.3606,"a",@progbits
	.align 4
	.type	__func__.3606, @object
	.size	__func__.3606, 14
__func__.3606:
	.string	"list_node_new"
	.section	.rodata.__FUNCTION__.3600,"a",@progbits
	.align 4
	.type	__FUNCTION__.3600, @object
	.size	__FUNCTION__.3600, 22
__FUNCTION__.3600:
	.string	"list_iterator_destroy"
	.section	.rodata.__func__.3592,"a",@progbits
	.align 4
	.type	__func__.3592, @object
	.size	__func__.3592, 28
__func__.3592:
	.string	"list_iterator_new_from_node"
	.section	.rodata.__func__.3528,"a",@progbits
	.align 4
	.type	__func__.3528, @object
	.size	__func__.3528, 9
__func__.3528:
	.string	"list_new"
	.text
.Letext0:
	.section	.text.unlikely.list_new
.Letext_cold0:
	.file 2 "framework/protocol/linkkit/iotkit/base/utils//misc/utils_list.h"
	.file 3 "./framework/protocol/linkkit/iotkit/base/utils/LITE-utils/src/lite-utils.h"
	.file 4 "./framework/protocol/linkkit/iotkit/base/log/LITE-log/lite-log.h"
	.section	.note.GNU-stack,"",@progbits
