	.file	"utils_base64.c"
	.text
.Ltext0:
	.section	.rodata.str1.1,"aMS",@progbits,1
.LC0:
	.string	"pointer of encodedData is NULL!"
.LC1:
	.string	"the length of output memory is not enough!"
	.section	.text.unlikely.utils_base64encode,"ax",@progbits
.LCOLDB2:
	.section	.text.utils_base64encode,"ax",@progbits
.LHOTB2:
	.section	.text.unlikely.utils_base64encode
.Ltext_cold0:
	.section	.text.utils_base64encode
	.globl	utils_base64encode
	.type	utils_base64encode, @function
utils_base64encode:
.LFB2:
	.file 1 "framework/protocol/linkkit/iotkit/base/utils//digest/utils_base64.c"
	.loc 1 62 0
	.cfi_startproc
.LVL0:
	pushl	%ebp
	.cfi_def_cfa_offset 8
	.cfi_offset 5, -8
	movl	%esp, %ebp
	.cfi_def_cfa_register 5
	pushl	%edi
	pushl	%esi
	pushl	%ebx
	subl	$12, %esp
	.cfi_offset 7, -12
	.cfi_offset 6, -16
	.cfi_offset 3, -20
	.loc 1 66 0
	cmpl	$0, 20(%ebp)
	.loc 1 62 0
	movl	8(%ebp), %esi
	.loc 1 66 0
	jne	.L2
	.loc 1 67 0
	pushl	$.LC0
	pushl	$2
	pushl	$67
	jmp	.L13
.L2:
	.loc 1 71 0
	movl	12(%ebp), %eax
	xorl	%edx, %edx
	movl	$3, %ecx
	movl	24(%ebp), %ebx
	addl	$2, %eax
	divl	%ecx
	sall	$2, %eax
	.loc 1 73 0
	cmpl	16(%ebp), %eax
	.loc 1 71 0
	movl	%eax, (%ebx)
	.loc 1 73 0
	ja	.L4
	movl	20(%ebp), %edx
	xorl	%ebx, %ebx
	jmp	.L5
.L4:
	.loc 1 74 0
	pushl	$.LC1
	pushl	$2
	pushl	$74
.L13:
	pushl	$__FUNCTION__.3580
	call	LITE_syslog
.LVL1:
	.loc 1 75 0
	addl	$16, %esp
	orl	$-1, %eax
	jmp	.L3
.LVL2:
.L7:
.LBB2:
	.loc 1 79 0 discriminator 1
	leal	1(%ebx), %eax
.LVL3:
	.loc 1 80 0 discriminator 1
	cmpl	%eax, 12(%ebp)
	.loc 1 79 0 discriminator 1
	movzbl	(%esi,%ebx), %edi
.LVL4:
	.loc 1 80 0 discriminator 1
	jbe	.L10
	leal	2(%ebx), %eax
.LVL5:
	.loc 1 81 0 discriminator 1
	cmpl	%eax, 12(%ebp)
	.loc 1 80 0 discriminator 1
	movzbl	1(%esi,%ebx), %ecx
.LVL6:
	.loc 1 81 0 discriminator 1
	jbe	.L11
	leal	3(%ebx), %eax
.LVL7:
	movzbl	2(%esi,%ebx), %ebx
.LVL8:
.L6:
	.loc 1 83 0 discriminator 4
	sall	$16, %edi
.LVL9:
	sall	$8, %ecx
	addl	$4, %edx
.LVL10:
	addl	%ebx, %edi
	.loc 1 88 0 discriminator 4
	movl	%eax, %ebx
.LVL11:
	.loc 1 83 0 discriminator 4
	addl	%ecx, %edi
.LVL12:
	.loc 1 85 0 discriminator 4
	movl	%edi, %ecx
	shrl	$18, %ecx
	movb	g_encodingTable(%ecx), %cl
	movb	%cl, -4(%edx)
	.loc 1 86 0 discriminator 4
	movl	%edi, %ecx
	shrl	$12, %ecx
	andl	$63, %ecx
	movb	g_encodingTable(%ecx), %cl
	movb	%cl, -3(%edx)
	.loc 1 87 0 discriminator 4
	movl	%edi, %ecx
	.loc 1 88 0 discriminator 4
	andl	$63, %edi
.LVL13:
	.loc 1 87 0 discriminator 4
	shrl	$6, %ecx
.LVL14:
	andl	$63, %ecx
	movb	g_encodingTable(%ecx), %cl
	movb	%cl, -2(%edx)
	.loc 1 88 0 discriminator 4
	movb	g_encodingTable(%edi), %cl
	movb	%cl, -1(%edx)
.LVL15:
.L5:
.LBE2:
	.loc 1 78 0 discriminator 1
	cmpl	12(%ebp), %ebx
	jb	.L7
	jmp	.L15
.LVL16:
.L10:
.LBB3:
	xorl	%ecx, %ecx
.L11:
	.loc 1 81 0
	xorl	%ebx, %ebx
	jmp	.L6
.LVL17:
.L15:
.LBE3:
	.loc 1 91 0
	movl	12(%ebp), %eax
	movl	$3, %ecx
	xorl	%edx, %edx
.LVL18:
	divl	%ecx
	xorl	%eax, %eax
	movl	g_modTable(,%edx,4), %ecx
.LVL19:
.L8:
	.loc 1 91 0 is_stmt 0 discriminator 1
	cmpl	%ecx, %eax
	je	.L16
	.loc 1 92 0 is_stmt 1 discriminator 3
	movl	24(%ebp), %esi
	movl	%eax, %edx
	.loc 1 91 0 discriminator 3
	incl	%eax
.LVL20:
	.loc 1 92 0 discriminator 3
	notl	%edx
	addl	(%esi), %edx
	movl	20(%ebp), %esi
	movb	$61, (%esi,%edx)
	jmp	.L8
.L16:
	.loc 1 95 0
	xorl	%eax, %eax
.LVL21:
.L3:
	.loc 1 96 0
	leal	-12(%ebp), %esp
	popl	%ebx
	.cfi_restore 3
	popl	%esi
	.cfi_restore 6
	popl	%edi
	.cfi_restore 7
	popl	%ebp
	.cfi_restore 5
	.cfi_def_cfa 4, 4
	ret
	.cfi_endproc
.LFE2:
	.size	utils_base64encode, .-utils_base64encode
	.section	.text.unlikely.utils_base64encode
.LCOLDE2:
	.section	.text.utils_base64encode
.LHOTE2:
	.section	.rodata.str1.1
.LC3:
	.string	"the input length is error!"
	.section	.text.unlikely.utils_base64decode,"ax",@progbits
.LCOLDB4:
	.section	.text.utils_base64decode,"ax",@progbits
.LHOTB4:
	.globl	utils_base64decode
	.type	utils_base64decode, @function
utils_base64decode:
.LFB3:
	.loc 1 100 0
	.cfi_startproc
.LVL22:
	pushl	%ebp
	.cfi_def_cfa_offset 8
	.cfi_offset 5, -8
	movl	%esp, %ebp
	.cfi_def_cfa_register 5
	pushl	%edi
	pushl	%esi
	pushl	%ebx
	subl	$28, %esp
	.cfi_offset 7, -12
	.cfi_offset 6, -16
	.cfi_offset 3, -20
.LBB6:
.LBB7:
	.loc 1 48 0
	cmpl	$0, signal.3566
.LBE7:
.LBE6:
	.loc 1 100 0
	movl	8(%ebp), %edi
	movl	24(%ebp), %ecx
.LBB9:
.LBB8:
	.loc 1 48 0
	jne	.L18
	xorl	%eax, %eax
.LVL23:
.L19:
	.loc 1 53 0
	movzbl	g_encodingTable(%eax), %edx
	movb	%al, g_decodingTable(%edx)
	.loc 1 52 0
	incl	%eax
.LVL24:
	cmpl	$64, %eax
	jne	.L19
	.loc 1 56 0
	movl	$1, signal.3566
.LVL25:
.L18:
.LBE8:
.LBE9:
	.loc 1 106 0
	testb	$3, 12(%ebp)
	je	.L20
	.loc 1 107 0
	pushl	$.LC3
	pushl	$2
	pushl	$107
	jmp	.L40
.L20:
	.loc 1 111 0
	movl	12(%ebp), %eax
	.loc 1 114 0
	movl	12(%ebp), %esi
	.loc 1 111 0
	shrl	$2, %eax
	leal	(%eax,%eax,2), %eax
	movl	%eax, (%ecx)
	.loc 1 114 0
	cmpb	$61, -1(%edi,%esi)
	jne	.L22
	.loc 1 115 0
	decl	%eax
	movl	%eax, (%ecx)
.L22:
	.loc 1 118 0
	movl	12(%ebp), %eax
	cmpb	$61, -2(%edi,%eax)
	jne	.L23
	.loc 1 119 0
	decl	(%ecx)
.L23:
	.loc 1 122 0
	movl	16(%ebp), %eax
	cmpl	%eax, (%ecx)
	ja	.L24
	movl	$3, %esi
	xorl	%eax, %eax
	jmp	.L25
.L24:
	.loc 1 123 0
	pushl	$.LC1
	pushl	$2
	pushl	$123
.L40:
	pushl	$__FUNCTION__.3600
	call	LITE_syslog
.LVL26:
	.loc 1 124 0
	addl	$16, %esp
	orl	$-1, %eax
	jmp	.L21
.LVL27:
.L33:
	.loc 1 134 0
	movzbl	-3(%edi,%esi), %edx
.LVL28:
	movl	$0, -28(%ebp)
	cmpb	$61, %dl
	je	.L26
.LVL29:
	.loc 1 134 0 is_stmt 0 discriminator 2
	movsbl	g_decodingTable(%edx), %ebx
	movl	%ebx, -28(%ebp)
.LVL30:
.L26:
	.loc 1 135 0 is_stmt 1 discriminator 4
	movzbl	-2(%edi,%esi), %edx
	movl	$0, -32(%ebp)
	cmpb	$61, %dl
	je	.L27
.LVL31:
	.loc 1 135 0 is_stmt 0 discriminator 2
	movsbl	g_decodingTable(%edx), %ebx
	movl	%ebx, -32(%ebp)
.LVL32:
.L27:
	.loc 1 136 0 is_stmt 1 discriminator 4
	movzbl	-1(%edi,%esi), %ebx
	xorl	%edx, %edx
	cmpb	$61, %bl
	je	.L28
.LVL33:
	.loc 1 136 0 is_stmt 0 discriminator 2
	movsbl	g_decodingTable(%ebx), %edx
.LVL34:
.L28:
	.loc 1 137 0 is_stmt 1 discriminator 4
	movzbl	(%edi,%esi), %ebx
	movl	$0, -36(%ebp)
	cmpb	$61, %bl
	je	.L29
.LVL35:
	.loc 1 137 0 is_stmt 0 discriminator 2
	movsbl	g_decodingTable(%ebx), %ebx
	movl	%ebx, -36(%ebp)
.LVL36:
.L29:
	.loc 1 139 0 is_stmt 1 discriminator 4
	movl	-28(%ebp), %ebx
	sall	$6, %edx
.LVL37:
	sall	$18, %ebx
	movl	%ebx, -28(%ebp)
.LVL38:
	movl	-32(%ebp), %ebx
	sall	$12, %ebx
	addl	-28(%ebp), %ebx
	addl	%edx, %ebx
	addl	-36(%ebp), %ebx
	.loc 1 141 0 discriminator 4
	cmpl	(%ecx), %eax
	.loc 1 139 0 discriminator 4
	movl	%ebx, -28(%ebp)
.LVL39:
	.loc 1 141 0 discriminator 4
	jnb	.L30
.LVL40:
	.loc 1 142 0
	movl	%ebx, %edx
	movl	20(%ebp), %ebx
.LVL41:
	shrl	$16, %edx
.LVL42:
	movb	%dl, (%ebx,%eax)
	incl	%eax
.LVL43:
.L30:
	.loc 1 145 0
	cmpl	(%ecx), %eax
	jnb	.L31
.LVL44:
	.loc 1 146 0
	movl	-28(%ebp), %edx
	movl	20(%ebp), %ebx
	shrl	$8, %edx
	movb	%dl, (%ebx,%eax)
	incl	%eax
.LVL45:
.L31:
	.loc 1 149 0
	cmpl	(%ecx), %eax
	jnb	.L32
.LVL46:
	.loc 1 150 0
	movl	20(%ebp), %edx
	movb	-28(%ebp), %bl
	movb	%bl, (%edx,%eax)
	incl	%eax
.LVL47:
.L32:
	addl	$4, %esi
.LVL48:
.L25:
	.loc 1 133 0 discriminator 1
	leal	-3(%esi), %edx
.LVL49:
	cmpl	%edx, 12(%ebp)
	ja	.L33
	.loc 1 154 0
	xorl	%eax, %eax
.LVL50:
.L21:
	.loc 1 155 0
	leal	-12(%ebp), %esp
	popl	%ebx
	.cfi_restore 3
	popl	%esi
	.cfi_restore 6
	popl	%edi
	.cfi_restore 7
	popl	%ebp
	.cfi_restore 5
	.cfi_def_cfa 4, 4
	ret
	.cfi_endproc
.LFE3:
	.size	utils_base64decode, .-utils_base64decode
	.section	.text.unlikely.utils_base64decode
.LCOLDE4:
	.section	.text.utils_base64decode
.LHOTE4:
	.section	.bss.signal.3566,"aw",@nobits
	.align 4
	.type	signal.3566, @object
	.size	signal.3566, 4
signal.3566:
	.zero	4
	.section	.rodata.__FUNCTION__.3600,"a",@progbits
	.align 4
	.type	__FUNCTION__.3600, @object
	.size	__FUNCTION__.3600, 19
__FUNCTION__.3600:
	.string	"utils_base64decode"
	.section	.rodata.__FUNCTION__.3580,"a",@progbits
	.align 4
	.type	__FUNCTION__.3580, @object
	.size	__FUNCTION__.3580, 19
__FUNCTION__.3580:
	.string	"utils_base64encode"
	.section	.rodata.g_modTable,"a",@progbits
	.align 4
	.type	g_modTable, @object
	.size	g_modTable, 12
g_modTable:
	.long	0
	.long	2
	.long	1
	.section	.bss.g_decodingTable,"aw",@nobits
	.align 32
	.type	g_decodingTable, @object
	.size	g_decodingTable, 256
g_decodingTable:
	.zero	256
	.section	.rodata.g_encodingTable,"a",@progbits
	.align 32
	.type	g_encodingTable, @object
	.size	g_encodingTable, 64
g_encodingTable:
	.byte	65
	.byte	66
	.byte	67
	.byte	68
	.byte	69
	.byte	70
	.byte	71
	.byte	72
	.byte	73
	.byte	74
	.byte	75
	.byte	76
	.byte	77
	.byte	78
	.byte	79
	.byte	80
	.byte	81
	.byte	82
	.byte	83
	.byte	84
	.byte	85
	.byte	86
	.byte	87
	.byte	88
	.byte	89
	.byte	90
	.byte	97
	.byte	98
	.byte	99
	.byte	100
	.byte	101
	.byte	102
	.byte	103
	.byte	104
	.byte	105
	.byte	106
	.byte	107
	.byte	108
	.byte	109
	.byte	110
	.byte	111
	.byte	112
	.byte	113
	.byte	114
	.byte	115
	.byte	116
	.byte	117
	.byte	118
	.byte	119
	.byte	120
	.byte	121
	.byte	122
	.byte	48
	.byte	49
	.byte	50
	.byte	51
	.byte	52
	.byte	53
	.byte	54
	.byte	55
	.byte	56
	.byte	57
	.byte	43
	.byte	47
	.text
.Letext0:
	.section	.text.unlikely.utils_base64encode
.Letext_cold0:
	.file 2 "/home/stone/Documents/Ali_IOT/build/compiler/gcc-arm-none-eabi/Linux64/arm-none-eabi/include/machine/_default_types.h"
	.file 3 "/home/stone/Documents/Ali_IOT/build/compiler/gcc-arm-none-eabi/Linux64/arm-none-eabi/include/sys/_stdint.h"
	.file 4 "./framework/protocol/linkkit/iotkit/base/utils/exports/iot_export_errno.h"
	.file 5 "./framework/protocol/linkkit/iotkit/base/log/LITE-log/lite-log.h"
	.section	.note.GNU-stack,"",@progbits
