	.file	"utils_httpc.c"
	.text
.Ltext0:
	.section	.rodata.str1.1,"aMS",@progbits,1
.LC0:
	.string	"%u bytes has been read"
.LC1:
	.string	"Connection closed."
.LC2:
	.string	"Connection error (recv returned %d)"
	.section	.text.unlikely.httpclient_recv.isra.1,"ax",@progbits
.LCOLDB3:
	.section	.text.httpclient_recv.isra.1,"ax",@progbits
.LHOTB3:
	.section	.text.unlikely.httpclient_recv.isra.1
.Ltext_cold0:
	.section	.text.httpclient_recv.isra.1
	.type	httpclient_recv.isra.1, @function
httpclient_recv.isra.1:
.LFB22:
	.file 1 "framework/protocol/linkkit/iotkit/base/utils//misc/utils_httpc.c"
	.loc 1 359 0
	.cfi_startproc
.LVL0:
	pushl	%ebp
	.cfi_def_cfa_offset 8
	.cfi_offset 5, -8
	movl	%esp, %ebp
	.cfi_def_cfa_register 5
	pushl	%edi
	pushl	%esi
	pushl	%ebx
	.cfi_offset 7, -12
	.cfi_offset 6, -16
	.cfi_offset 3, -20
	.loc 1 364 0
	leal	-32(%ebp), %edi
	.loc 1 359 0
	movl	%eax, %ebx
	.loc 1 369 0
	addl	$4, %ebx
	.loc 1 359 0
	subl	$56, %esp
	.loc 1 359 0
	movl	%ecx, -48(%ebp)
	movl	%edx, -52(%ebp)
	.loc 1 364 0
	pushl	%edi
	.loc 1 359 0
	movl	8(%ebp), %esi
	movl	%gs:20, %eax
	movl	%eax, -28(%ebp)
	xorl	%eax, %eax
.LVL1:
	.loc 1 364 0
	call	iotx_time_init
.LVL2:
	.loc 1 365 0
	popl	%eax
	popl	%edx
	pushl	12(%ebp)
	pushl	%edi
	call	utils_time_countdown_ms
.LVL3:
	.loc 1 369 0
	movl	16(%ebx), %eax
	.loc 1 367 0
	movl	$0, (%esi)
	.loc 1 369 0
	movl	%edi, (%esp)
	movl	%eax, -44(%ebp)
	call	iotx_time_left
.LVL4:
	movl	-52(%ebp), %edx
	movl	-48(%ebp), %ecx
	pushl	%eax
	movl	-44(%ebp), %eax
	pushl	%ecx
	pushl	%edx
	pushl	%ebx
	call	*%eax
.LVL5:
	.loc 1 372 0
	addl	$32, %esp
	cmpl	$0, %eax
	.loc 1 369 0
	movl	%eax, %edx
.LVL6:
	.loc 1 372 0
	jle	.L2
	.loc 1 384 0
	subl	$12, %esp
	.loc 1 373 0
	movl	%eax, (%esi)
	.loc 1 384 0
	pushl	%eax
	pushl	$.LC0
	pushl	$4
	pushl	$384
	pushl	$__FUNCTION__.3799
	call	LITE_syslog
.LVL7:
	addl	$32, %esp
	.loc 1 385 0
	xorl	%eax, %eax
	jmp	.L3
.LVL8:
.L2:
	.loc 1 376 0
	movl	$-1, %eax
.LVL9:
	.loc 1 374 0
	je	.L3
	.loc 1 377 0
	cmpl	$-1, %edx
	jne	.L4
	.loc 1 378 0
	pushl	$.LC1
	pushl	$4
	pushl	$378
	pushl	$__FUNCTION__.3799
	call	LITE_syslog
.LVL10:
	addl	$16, %esp
	jmp	.L8
.LVL11:
.L4:
	.loc 1 381 0
	subl	$12, %esp
	pushl	%edx
	pushl	$.LC2
	pushl	$2
	pushl	$381
	pushl	$__FUNCTION__.3799
	call	LITE_syslog
.LVL12:
	addl	$32, %esp
.L8:
	.loc 1 382 0
	movl	$-8, %eax
.L3:
	.loc 1 414 0
	movl	-28(%ebp), %esi
	xorl	%gs:20, %esi
	je	.L5
	call	__stack_chk_fail
.LVL13:
.L5:
	leal	-12(%ebp), %esp
	popl	%ebx
	.cfi_restore 3
.LVL14:
	popl	%esi
	.cfi_restore 6
	popl	%edi
	.cfi_restore 7
	popl	%ebp
	.cfi_restore 5
	.cfi_def_cfa 4, 4
	ret
	.cfi_endproc
.LFE22:
	.size	httpclient_recv.isra.1, .-httpclient_recv.isra.1
	.section	.text.unlikely.httpclient_recv.isra.1
.LCOLDE3:
	.section	.text.httpclient_recv.isra.1
.LHOTE3:
	.section	.rodata.str1.1
.LC4:
	.string	"Current data: %s"
.LC5:
	.string	"data len: %d %d"
.LC6:
	.string	"ret == ERROR_HTTP_CONN"
.LC7:
	.string	"no more len == 0"
.LC8:
	.string	"no more (last chunk)"
.LC9:
	.string	"Could not read chunk length"
.LC10:
	.string	"Total-Payload: %d Bytes; Read: %d Bytes"
.LC11:
	.string	"memmove %d %d %d\n"
.LC12:
	.string	"Format error, %s"
.LC13:
	.string	"no more (content-length)"
	.section	.text.unlikely.httpclient_retrieve_content,"ax",@progbits
.LCOLDB14:
	.section	.text.httpclient_retrieve_content,"ax",@progbits
.LHOTB14:
	.type	httpclient_retrieve_content, @function
httpclient_retrieve_content:
.LFB12:
	.loc 1 418 0
	.cfi_startproc
.LVL15:
	pushl	%ebp
	.cfi_def_cfa_offset 8
	.cfi_offset 5, -8
	movl	%esp, %ebp
	.cfi_def_cfa_register 5
	pushl	%edi
	pushl	%esi
	pushl	%ebx
	.cfi_offset 7, -12
	.cfi_offset 6, -16
	.cfi_offset 3, -20
	.loc 1 424 0
	leal	-36(%ebp), %esi
	.loc 1 418 0
	subl	$72, %esp
	.loc 1 418 0
	movl	%ecx, -44(%ebp)
	movl	12(%ebp), %ebx
	.loc 1 424 0
	pushl	%esi
	.loc 1 418 0
	movl	%eax, -60(%ebp)
	movl	%edx, -48(%ebp)
	movl	%gs:20, %eax
	movl	%eax, -28(%ebp)
	xorl	%eax, %eax
.LVL16:
	.loc 1 424 0
	call	iotx_time_init
.LVL17:
	.loc 1 425 0
	popl	%eax
	popl	%edx
	pushl	8(%ebp)
	pushl	%esi
	call	utils_time_countdown_ms
.LVL18:
	.loc 1 428 0
	popl	%ecx
	pushl	-48(%ebp)
	pushl	$.LC4
	pushl	$5
	pushl	$428
	pushl	$__FUNCTION__.3811
	call	LITE_syslog
.LVL19:
	.loc 1 433 0
	addl	$32, %esp
	cmpl	$-1, 12(%ebx)
	.loc 1 430 0
	movl	$1, (%ebx)
	movl	$0, -56(%ebp)
	.loc 1 433 0
	jne	.L13
	.loc 1 433 0 is_stmt 0 discriminator 1
	cmpl	$0, 4(%ebx)
	jne	.L13
	movl	$0, -52(%ebp)
.LBB2:
	.loc 1 449 0 is_stmt 1
	movl	%esi, -56(%ebp)
.LVL20:
.L18:
	.loc 1 437 0
	movl	24(%ebx), %eax
	movl	-44(%ebp), %ecx
	leal	-1(%eax), %edx
	movl	-52(%ebp), %eax
	addl	%ecx, %eax
	cmpl	%edx, %eax
	movl	36(%ebx), %eax
	jge	.L14
	.loc 1 438 0
	addl	-52(%ebp), %eax
	movl	-48(%ebp), %esi
	movl	%eax, %edi
	.loc 1 439 0
	movl	-52(%ebp), %eax
	.loc 1 438 0
	rep movsb
	.loc 1 439 0
	addl	-44(%ebp), %eax
	movl	%eax, -52(%ebp)
.LVL21:
	.loc 1 440 0
	movl	-52(%ebp), %edi
	movl	36(%ebx), %eax
.LVL22:
	.loc 1 448 0
	movl	%edi, %esi
	.loc 1 440 0
	movb	$0, (%eax,%edi)
	.loc 1 448 0
	notl	%esi
	addl	24(%ebx), %esi
	movl	$32, %eax
	cmpl	$32, %esi
	cmovg	%eax, %esi
.LVL23:
	.loc 1 449 0
	subl	$12, %esp
	pushl	-56(%ebp)
	call	iotx_time_left
.LVL24:
	popl	%edi
.LVL25:
	popl	%edx
	pushl	%eax
	leal	-44(%ebp), %eax
.LVL26:
	movl	-48(%ebp), %edx
	movl	%esi, %ecx
	pushl	%eax
	movl	-60(%ebp), %eax
.LVL27:
	call	httpclient_recv.isra.1
.LVL28:
	.loc 1 452 0
	popl	%ecx
	popl	%edi
	pushl	-52(%ebp)
	pushl	-44(%ebp)
	.loc 1 449 0
	movl	%eax, %esi
.LVL29:
	.loc 1 452 0
	pushl	$.LC5
	pushl	$5
	pushl	$452
	pushl	$__FUNCTION__.3811
	call	LITE_syslog
.LVL30:
	.loc 1 454 0
	addl	$32, %esp
	cmpl	$-8, %esi
	jne	.L52
	.loc 1 455 0
	pushl	$.LC6
	pushl	$5
	pushl	$455
	pushl	$__FUNCTION__.3811
	call	LITE_syslog
.LVL31:
	.loc 1 456 0
	addl	$16, %esp
	jmp	.L45
.LVL32:
.L14:
	.loc 1 442 0
	addl	-52(%ebp), %eax
	movl	%edx, %ecx
	subl	-52(%ebp), %ecx
	movl	-48(%ebp), %esi
	movl	%eax, %edi
	rep movsb
	.loc 1 443 0
	movl	36(%ebx), %edx
	movl	24(%ebx), %eax
	movb	$0, -1(%edx,%eax)
	jmp	.L58
.LVL33:
.L52:
	.loc 1 459 0
	movl	-44(%ebp), %esi
.LVL34:
	testl	%esi, %esi
	jne	.L18
	.loc 1 461 0
	pushl	$.LC7
	pushl	$5
	pushl	$461
	jmp	.L59
.LVL35:
.L63:
.LBE2:
.LBB3:
	.loc 1 471 0 discriminator 1
	cmpl	$0, 8(%ebx)
	jle	.L49
.L19:
	.loc 1 531 0
	movl	8(%ebx), %eax
	movl	%eax, -52(%ebp)
.LVL36:
.L39:
	.loc 1 534 0
	pushl	%esi
	pushl	%esi
	pushl	-44(%ebp)
	pushl	-52(%ebp)
	pushl	$.LC10
	pushl	$5
	pushl	$534
	pushl	$__FUNCTION__.3811
	call	LITE_syslog
.LVL37:
	movl	-56(%ebp), %edx
	addl	$32, %esp
.L33:
	.loc 1 537 0
	movl	-52(%ebp), %eax
	cmpl	%eax, -44(%ebp)
	cmovbe	-44(%ebp), %eax
	.loc 1 538 0
	addl	%eax, -56(%ebp)
.LVL38:
	.loc 1 537 0
	movl	%eax, -64(%ebp)
.LVL39:
	.loc 1 538 0
	movl	24(%ebx), %eax
.LVL40:
	leal	-1(%eax), %ecx
	cmpl	%ecx, -56(%ebp)
	movl	36(%ebx), %eax
	jge	.L28
	.loc 1 539 0
	addl	%eax, %edx
	movl	-48(%ebp), %esi
	movl	-64(%ebp), %ecx
	movl	%edx, %edi
	rep movsb
.LVL41:
	.loc 1 541 0
	movl	-56(%ebp), %edi
	movl	36(%ebx), %eax
	movb	$0, (%eax,%edi)
	.loc 1 542 0
	movl	8(%ebx), %edx
	.loc 1 550 0
	movl	-44(%ebp), %eax
	.loc 1 542 0
	subl	-64(%ebp), %edx
	.loc 1 550 0
	cmpl	%eax, -52(%ebp)
	.loc 1 542 0
	movl	%edx, 8(%ebx)
	.loc 1 550 0
	jnb	.L54
	.loc 1 551 0
	pushl	%ecx
	pushl	%edx
	pushl	%eax
	pushl	-52(%ebp)
	pushl	$.LC11
	pushl	$5
	pushl	$551
	pushl	$__FUNCTION__.3811
	call	LITE_syslog
.LVL42:
	.loc 1 552 0
	movl	-44(%ebp), %esi
	movl	-52(%ebp), %eax
	addl	$28, %esp
	subl	-52(%ebp), %esi
	addl	-48(%ebp), %eax
	pushl	%esi
	pushl	%eax
	pushl	-48(%ebp)
	call	memmove
.LVL43:
	.loc 1 553 0
	movl	%esi, -44(%ebp)
.LVL44:
	.loc 1 555 0
	movl	$0, 8(%ebx)
	addl	$16, %esp
.LVL45:
.L31:
	.loc 1 571 0
	movl	4(%ebx), %esi
	testl	%esi, %esi
	je	.L61
	.loc 1 572 0
	cmpl	$1, -44(%ebp)
	jle	.L62
.L34:
	.loc 1 582 0
	movl	-48(%ebp), %eax
	cmpb	$13, (%eax)
	jne	.L36
	.loc 1 582 0 is_stmt 0 discriminator 1
	cmpb	$10, 1(%eax)
	jne	.L36
	.loc 1 586 0 is_stmt 1
	movl	-44(%ebp), %eax
	pushl	%edi
	leal	-2(%eax), %esi
	movl	-48(%ebp), %eax
	pushl	%esi
	addl	$2, %eax
	pushl	%eax
	pushl	-48(%ebp)
	call	memmove
.LVL46:
	.loc 1 587 0
	movl	%esi, -44(%ebp)
.LBE3:
	.loc 1 594 0
	addl	$16, %esp
.LVL47:
.L13:
.LBB11:
	.loc 1 471 0
	cmpl	$0, 4(%ebx)
	je	.L19
	jmp	.L63
.LVL48:
.L20:
.LBB4:
.LBB5:
	.loc 1 491 0
	leal	-36(%ebp), %eax
	subl	$12, %esp
	pushl	%eax
	call	iotx_time_left
.LVL49:
	movl	-44(%ebp), %edx
	movl	$1023, %ecx
	popl	%edi
	popl	%esi
	pushl	%eax
	leal	-32(%ebp), %eax
	subl	%edx, %ecx
	addl	-48(%ebp), %edx
	pushl	%eax
	movl	-60(%ebp), %eax
	call	httpclient_recv.isra.1
.LVL50:
	.loc 1 497 0
	movl	-32(%ebp), %edx
	.loc 1 498 0
	addl	$16, %esp
	.loc 1 497 0
	addl	%edx, -44(%ebp)
	.loc 1 498 0
	cmpl	$-8, %eax
	je	.L45
.LVL51:
.L49:
.LBE5:
	.loc 1 478 0
	movl	-44(%ebp), %eax
	movl	-48(%ebp), %edi
	.loc 1 479 0
	cmpl	$1, %eax
	.loc 1 478 0
	movb	$0, (%edi,%eax)
	.loc 1 479 0
	jle	.L20
	.loc 1 480 0 discriminator 1
	leal	-2(%eax), %ecx
	xorl	%esi, %esi
.LVL52:
.L21:
	cmpl	%ecx, %esi
	jge	.L64
	movl	-48(%ebp), %edi
	.loc 1 481 0
	cmpb	$13, (%edi,%esi)
	leal	(%edi,%esi), %edx
	jne	.L22
	.loc 1 481 0 is_stmt 0 discriminator 1
	cmpb	$10, 1(%edi,%esi)
	je	.L23
.L22:
	.loc 1 480 0 is_stmt 1
	incl	%esi
.LVL53:
	jmp	.L21
.LVL54:
.L28:
.LBE4:
	.loc 1 544 0
	addl	%edx, %eax
	subl	%edx, %ecx
	movl	-48(%ebp), %esi
	movl	%eax, %edi
	.loc 1 546 0
	notl	%edx
	.loc 1 544 0
	rep movsb
	.loc 1 545 0
	movl	36(%ebx), %ecx
	movl	24(%ebx), %eax
	movb	$0, -1(%ecx,%eax)
	.loc 1 546 0
	addl	24(%ebx), %edx
	subl	%edx, 8(%ebx)
.LVL55:
.L58:
	.loc 1 547 0
	movl	$1, %esi
	jmp	.L17
.LVL56:
.L54:
	.loc 1 560 0
	subl	%eax, -52(%ebp)
.LVL57:
	je	.L31
.LVL58:
.LBB6:
	.loc 1 563 0
	movl	-56(%ebp), %ecx
	movl	$1023, %eax
	notl	%ecx
	addl	24(%ebx), %ecx
	cmpl	$1023, %ecx
	cmovg	%eax, %ecx
	cmpl	-52(%ebp), %ecx
	.loc 1 564 0
	leal	-36(%ebp), %eax
	.loc 1 563 0
	cmova	-52(%ebp), %ecx
	.loc 1 564 0
	subl	$12, %esp
	pushl	%eax
.LVL59:
	.loc 1 563 0
	movl	%ecx, %esi
.LVL60:
	.loc 1 564 0
	call	iotx_time_left
.LVL61:
	addl	$16, %esp
	testl	%eax, %eax
	movl	$100, %edx
	je	.L32
	.loc 1 564 0 is_stmt 0 discriminator 1
	leal	-36(%ebp), %eax
	subl	$12, %esp
	pushl	%eax
	call	iotx_time_left
.LVL62:
	addl	$16, %esp
	movl	%eax, %edx
.L32:
	.loc 1 564 0 discriminator 4
	pushl	%eax
	pushl	%eax
	leal	-44(%ebp), %eax
.LVL63:
	pushl	%edx
	movl	-48(%ebp), %edx
	movl	%esi, %ecx
	pushl	%eax
	movl	-60(%ebp), %eax
.LVL64:
	call	httpclient_recv.isra.1
.LVL65:
	.loc 1 565 0 is_stmt 1 discriminator 4
	addl	$16, %esp
	cmpl	$-8, %eax
	movl	-56(%ebp), %edx
	jne	.L33
	jmp	.L45
.LVL66:
.L61:
.LBE6:
	.loc 1 589 0
	pushl	$.LC13
	pushl	$5
	pushl	$589
.LVL67:
.L59:
	pushl	$__FUNCTION__.3811
	call	LITE_syslog
.LVL68:
	.loc 1 590 0
	movl	$0, (%ebx)
.LBE11:
	.loc 1 596 0
	addl	$16, %esp
	jmp	.L17
.L45:
.LBB12:
.LBB7:
	movl	$-8, %esi
.L17:
.LBE7:
.LBE12:
	.loc 1 597 0
	movl	-28(%ebp), %ebx
	xorl	%gs:20, %ebx
	movl	%esi, %eax
	je	.L42
	call	__stack_chk_fail
.LVL69:
.L64:
.LBB13:
.LBB8:
	.loc 1 489 0
	cmpl	$1023, %eax
	jle	.L20
	.loc 1 504 0
	movl	$-4, %esi
	jmp	.L17
.LVL70:
.L23:
	.loc 1 508 0
	movb	$0, (%edx)
	.loc 1 513 0
	pushl	%ecx
	pushl	$16
	pushl	$0
	pushl	-48(%ebp)
	call	strtoul
.LVL71:
	.loc 1 517 0
	addl	$16, %esp
	.loc 1 516 0
	addl	%eax, 12(%ebx)
	.loc 1 517 0
	testl	%eax, %eax
	.loc 1 513 0
	movl	%eax, -52(%ebp)
.LVL72:
	.loc 1 515 0
	movl	%eax, 8(%ebx)
	.loc 1 517 0
	jne	.L65
	.loc 1 519 0
	movl	$0, (%ebx)
	.loc 1 520 0
	pushl	$.LC8
	pushl	$5
	pushl	$520
	pushl	$__FUNCTION__.3811
	call	LITE_syslog
.LVL73:
	.loc 1 524 0
	pushl	$.LC9
	pushl	$2
	pushl	$524
	pushl	$__FUNCTION__.3811
	call	LITE_syslog
.LVL74:
	jmp	.L60
.LVL75:
.L36:
.LBE8:
	.loc 1 583 0
	subl	$12, %esp
	pushl	-48(%ebp)
	pushl	$.LC12
	pushl	$2
	pushl	$583
	pushl	$__FUNCTION__.3811
	call	LITE_syslog
.LVL76:
.L60:
	.loc 1 584 0
	addl	$32, %esp
	movl	$-6, %esi
	jmp	.L17
.LVL77:
.L65:
.LBB9:
	.loc 1 528 0
	leal	2(%esi), %eax
.LVL78:
	movl	-44(%ebp), %esi
.LVL79:
	pushl	%edx
	subl	%eax, %esi
	addl	-48(%ebp), %eax
.LVL80:
	pushl	%esi
	pushl	%eax
	pushl	-48(%ebp)
	call	memmove
.LVL81:
	.loc 1 529 0
	movl	%esi, -44(%ebp)
.LBE9:
	.loc 1 471 0
	addl	$16, %esp
	jmp	.L39
.LVL82:
.L62:
.LBB10:
	.loc 1 575 0
	leal	-36(%ebp), %eax
	subl	$12, %esp
	pushl	%eax
	call	iotx_time_left
.LVL83:
	movl	-44(%ebp), %edx
	movl	$1023, %ecx
	popl	%esi
	popl	%edi
.LVL84:
	pushl	%eax
	leal	-32(%ebp), %eax
	subl	%edx, %ecx
	addl	-48(%ebp), %edx
	pushl	%eax
	movl	-60(%ebp), %eax
	call	httpclient_recv.isra.1
.LVL85:
	.loc 1 577 0
	addl	$16, %esp
	cmpl	$-8, %eax
	je	.L45
	.loc 1 580 0
	movl	-32(%ebp), %eax
.LVL86:
	addl	%eax, -44(%ebp)
	jmp	.L34
.LVL87:
.L42:
.LBE10:
.LBE13:
	.loc 1 597 0
	leal	-12(%ebp), %esp
	popl	%ebx
	.cfi_restore 3
	popl	%esi
	.cfi_restore 6
	popl	%edi
	.cfi_restore 7
	popl	%ebp
	.cfi_restore 5
	.cfi_def_cfa 4, 4
	ret
	.cfi_endproc
.LFE12:
	.size	httpclient_retrieve_content, .-httpclient_retrieve_content
	.section	.text.unlikely.httpclient_retrieve_content
.LCOLDE14:
	.section	.text.httpclient_retrieve_content
.LHOTE14:
	.section	.rodata.str1.1
.LC15:
	.string	"://"
.LC16:
	.string	"Could not find host"
.LC17:
	.string	"Host str is too small (%d >= %d)"
	.section	.text.unlikely.httpclient_parse_host.constprop.3,"ax",@progbits
.LCOLDB18:
	.section	.text.httpclient_parse_host.constprop.3,"ax",@progbits
.LHOTB18:
	.type	httpclient_parse_host.constprop.3, @function
httpclient_parse_host.constprop.3:
.LFB25:
	.loc 1 153 0
	.cfi_startproc
.LVL88:
	pushl	%ebp
	.cfi_def_cfa_offset 8
	.cfi_offset 5, -8
	movl	%esp, %ebp
	.cfi_def_cfa_register 5
	pushl	%edi
	pushl	%esi
	pushl	%ebx
	.cfi_offset 7, -12
	.cfi_offset 6, -16
	.cfi_offset 3, -20
	movl	%edx, %ebx
	subl	$20, %esp
	.loc 1 155 0
	pushl	$.LC15
	pushl	%eax
	call	strstr
.LVL89:
	addl	$16, %esp
.LVL90:
	.loc 1 159 0
	testl	%eax, %eax
	jne	.L67
.LVL91:
.LBB16:
.LBB17:
	.loc 1 160 0
	pushl	$.LC16
	pushl	$2
	pushl	$160
	pushl	$__FUNCTION__.3735
	call	LITE_syslog
.LVL92:
	addl	$16, %esp
	jmp	.L71
.LVL93:
.L67:
.LBE17:
.LBE16:
	.loc 1 163 0
	leal	3(%eax), %esi
.LVL94:
	.loc 1 165 0
	pushl	%edx
	pushl	%edx
	pushl	$47
	pushl	%esi
	call	strchr
.LVL95:
	.loc 1 167 0
	subl	%esi, %eax
	.loc 1 165 0
	addl	$16, %esp
.LVL96:
	.loc 1 170 0
	leal	1(%eax), %edx
	cmpl	$128, %edx
	jbe	.L69
.LVL97:
	.loc 1 172 0
	pushl	%eax
	pushl	%eax
	pushl	%edx
	pushl	$128
	pushl	$.LC17
	pushl	$2
	pushl	$172
	pushl	$__FUNCTION__.3735
	call	LITE_syslog
.LVL98:
	addl	$32, %esp
.LVL99:
.L71:
	.loc 1 173 0
	movl	$-7, %eax
	jmp	.L68
.LVL100:
.L69:
	.loc 1 175 0
	movl	%eax, %ecx
	movl	%ebx, %edi
	rep movsb
.LVL101:
	.loc 1 176 0
	movb	$0, (%ebx,%eax)
	.loc 1 178 0
	xorl	%eax, %eax
.LVL102:
.L68:
	.loc 1 179 0
	leal	-12(%ebp), %esp
	popl	%ebx
	.cfi_restore 3
.LVL103:
	popl	%esi
	.cfi_restore 6
	popl	%edi
	.cfi_restore 7
	popl	%ebp
	.cfi_restore 5
	.cfi_def_cfa 4, 4
	ret
	.cfi_endproc
.LFE25:
	.size	httpclient_parse_host.constprop.3, .-httpclient_parse_host.constprop.3
	.section	.text.unlikely.httpclient_parse_host.constprop.3
.LCOLDE18:
	.section	.text.httpclient_parse_host.constprop.3
.LHOTE18:
	.section	.text.unlikely.httpclient_get_info,"ax",@progbits
.LCOLDB19:
	.section	.text.httpclient_get_info,"ax",@progbits
.LHOTB19:
	.globl	httpclient_get_info
	.type	httpclient_get_info, @function
httpclient_get_info:
.LFB5:
	.loc 1 183 0
	.cfi_startproc
.LVL104:
	pushl	%ebp
	.cfi_def_cfa_offset 8
	.cfi_offset 5, -8
	movl	%esp, %ebp
	.cfi_def_cfa_register 5
	pushl	%edi
	pushl	%esi
	pushl	%ebx
	subl	$28, %esp
	.cfi_offset 7, -12
	.cfi_offset 6, -16
	.cfi_offset 3, -20
	.loc 1 183 0
	movl	24(%ebp), %edx
	.loc 1 186 0
	movl	16(%ebp), %eax
	.loc 1 188 0
	testl	%edx, %edx
	.loc 1 186 0
	movl	(%eax), %ebx
.LVL105:
	.loc 1 188 0
	jne	.L73
	.loc 1 189 0
	movl	20(%ebp), %edi
	xorl	%eax, %eax
	orl	$-1, %ecx
	repnz scasb
.LVL106:
	notl	%ecx
	leal	-1(%ecx), %edx
.LVL107:
.L73:
	.loc 1 210 0
	movl	8(%ebp), %eax
	addl	$4, %eax
	movl	%eax, -28(%ebp)
.L76:
.LVL108:
	.loc 1 193 0
	movl	$1024, %eax
	.loc 1 199 0
	movl	12(%ebp), %esi
	.loc 1 193 0
	subl	%ebx, %eax
	.loc 1 194 0
	cmpl	%eax, %edx
	cmovbe	%edx, %eax
.LVL109:
	.loc 1 199 0
	addl	%ebx, %esi
	.loc 1 200 0
	addl	%eax, %ebx
.LVL110:
	.loc 1 201 0
	subl	%eax, %edx
.LVL111:
	.loc 1 199 0
	movl	%esi, %edi
	.loc 1 203 0
	cmpl	$1024, %ebx
	.loc 1 199 0
	movl	20(%ebp), %esi
	movl	%eax, %ecx
	rep movsb
	.loc 1 203 0
	je	.L75
.LVL112:
.L79:
	.loc 1 215 0
	testl	%edx, %edx
	jne	.L76
	.loc 1 217 0
	movl	16(%ebp), %eax
	movl	%ebx, (%eax)
	.loc 1 218 0
	xorl	%eax, %eax
	jmp	.L78
.LVL113:
.L75:
	.loc 1 210 0
	movl	8(%ebp), %eax
.LVL114:
	pushl	$5000
	pushl	$1024
	pushl	12(%ebp)
	pushl	-28(%ebp)
	movl	%edx, -32(%ebp)
	call	*24(%eax)
.LVL115:
	.loc 1 211 0
	addl	$16, %esp
	testl	%eax, %eax
	movl	-32(%ebp), %edx
	je	.L79
.LVL116:
.L78:
	.loc 1 219 0
	leal	-12(%ebp), %esp
	popl	%ebx
	.cfi_restore 3
.LVL117:
	popl	%esi
	.cfi_restore 6
	popl	%edi
	.cfi_restore 7
	popl	%ebp
	.cfi_restore 5
	.cfi_def_cfa 4, 4
	ret
	.cfi_endproc
.LFE5:
	.size	httpclient_get_info, .-httpclient_get_info
	.section	.text.unlikely.httpclient_get_info
.LCOLDE19:
	.section	.text.httpclient_get_info
.LHOTE19:
	.section	.text.unlikely.httpclient_set_custom_header,"ax",@progbits
.LCOLDB20:
	.section	.text.httpclient_set_custom_header,"ax",@progbits
.LHOTB20:
	.globl	httpclient_set_custom_header
	.type	httpclient_set_custom_header, @function
httpclient_set_custom_header:
.LFB6:
	.loc 1 222 0
	.cfi_startproc
.LVL118:
	pushl	%ebp
	.cfi_def_cfa_offset 8
	.cfi_offset 5, -8
	movl	%esp, %ebp
	.cfi_def_cfa_register 5
	.loc 1 223 0
	movl	12(%ebp), %edx
	movl	8(%ebp), %eax
	movl	%edx, 40(%eax)
	.loc 1 224 0
	popl	%ebp
	.cfi_restore 5
	.cfi_def_cfa 4, 4
	ret
	.cfi_endproc
.LFE6:
	.size	httpclient_set_custom_header, .-httpclient_set_custom_header
	.section	.text.unlikely.httpclient_set_custom_header
.LCOLDE20:
	.section	.text.httpclient_set_custom_header
.LHOTE20:
	.section	.text.unlikely.httpclient_basic_auth,"ax",@progbits
.LCOLDB21:
	.section	.text.httpclient_basic_auth,"ax",@progbits
.LHOTB21:
	.globl	httpclient_basic_auth
	.type	httpclient_basic_auth, @function
httpclient_basic_auth:
.LFB7:
	.loc 1 227 0
	.cfi_startproc
.LVL119:
	pushl	%ebp
	.cfi_def_cfa_offset 8
	.cfi_offset 5, -8
	.loc 1 228 0
	xorl	%eax, %eax
	.loc 1 227 0
	movl	%esp, %ebp
	.cfi_def_cfa_register 5
	pushl	%edi
	pushl	%esi
	.cfi_offset 7, -12
	.cfi_offset 6, -16
	.loc 1 228 0
	movl	12(%ebp), %edi
	.loc 1 227 0
	pushl	%ebx
	.cfi_offset 3, -20
	.loc 1 228 0
	orl	$-1, %ebx
	movl	%ebx, %ecx
	.loc 1 227 0
	movl	8(%ebp), %esi
	.loc 1 228 0
	repnz scasb
.LVL120:
	movl	16(%ebp), %edi
	movl	%ecx, %edx
	movl	%ebx, %ecx
	notl	%edx
	repnz scasb
.LVL121:
	movl	%ecx, %eax
	notl	%eax
	leal	-2(%edx,%eax), %edx
	movl	$-4, %eax
	cmpl	$127, %edx
	ja	.L87
	.loc 1 231 0
	movl	12(%ebp), %eax
	movl	%eax, 44(%esi)
	.loc 1 232 0
	movl	16(%ebp), %eax
	movl	%eax, 48(%esi)
	.loc 1 233 0
	xorl	%eax, %eax
.L87:
	.loc 1 234 0
	popl	%ebx
	.cfi_restore 3
	popl	%esi
	.cfi_restore 6
	popl	%edi
	.cfi_restore 7
	popl	%ebp
	.cfi_restore 5
	.cfi_def_cfa 4, 4
	ret
	.cfi_endproc
.LFE7:
	.size	httpclient_basic_auth, .-httpclient_basic_auth
	.section	.text.unlikely.httpclient_basic_auth
.LCOLDE21:
	.section	.text.httpclient_basic_auth
.LHOTE21:
	.section	.rodata.str1.1
.LC22:
	.string	"Authorization: Basic "
.LC23:
	.string	"%s:%s"
.LC24:
	.string	"bAuth: %s"
.LC26:
	.string	"b_auth:%s"
.LC25:
	.string	"ABCDEFGHIJKLMNOPQRSTUVWXYZabcdefghijklmnopqrstuvwxyz0123456789+/="
	.section	.text.unlikely.httpclient_send_auth,"ax",@progbits
.LCOLDB27:
	.section	.text.httpclient_send_auth,"ax",@progbits
.LHOTB27:
	.globl	httpclient_send_auth
	.type	httpclient_send_auth, @function
httpclient_send_auth:
.LFB8:
	.loc 1 237 0
	.cfi_startproc
.LVL122:
	pushl	%ebp
	.cfi_def_cfa_offset 8
	.cfi_offset 5, -8
	movl	%esp, %ebp
	.cfi_def_cfa_register 5
	pushl	%edi
	pushl	%esi
	pushl	%ebx
	.cfi_offset 7, -12
	.cfi_offset 6, -16
	.cfi_offset 3, -20
	.loc 1 242 0
	leal	-334(%ebp), %ebx
.LBB20:
.LBB21:
	.loc 1 60 0
	leal	-400(%ebp), %edi
	movl	$.LC25, %esi
.LBE21:
.LBE20:
	.loc 1 237 0
	subl	$424, %esp
	.loc 1 237 0
	movl	8(%ebp), %eax
	.loc 1 241 0
	pushl	$0
	pushl	$.LC22
	.loc 1 237 0
	movl	%eax, -412(%ebp)
	movl	12(%ebp), %eax
	movl	%eax, -416(%ebp)
	movl	16(%ebp), %eax
	movl	%eax, -420(%ebp)
	.loc 1 241 0
	pushl	-420(%ebp)
	pushl	-416(%ebp)
	pushl	-412(%ebp)
	.loc 1 237 0
	movl	%gs:20, %eax
	movl	%eax, -28(%ebp)
	xorl	%eax, %eax
	.loc 1 241 0
	call	httpclient_get_info
.LVL123:
	.loc 1 242 0
	movl	-412(%ebp), %eax
	addl	$32, %esp
	pushl	48(%eax)
	pushl	44(%eax)
	pushl	$.LC23
	pushl	%ebx
	call	sprintf
.LVL124:
	.loc 1 243 0
	movl	%ebx, (%esp)
	pushl	$.LC24
	pushl	$5
	pushl	$243
	pushl	$__FUNCTION__.3764
	call	LITE_syslog
.LVL125:
.LBB24:
.LBB22:
	.loc 1 60 0
	movl	$66, %ecx
	addl	$32, %esp
	.loc 1 61 0
	xorl	%edx, %edx
	.loc 1 60 0
	rep movsb
.LVL126:
	.loc 1 61 0
	xorl	%eax, %eax
	.loc 1 60 0
	movl	%ebx, %esi
.LVL127:
.L92:
	.loc 1 63 0
	movsbl	(%esi), %ebx
	testb	%bl, %bl
	je	.L101
	.loc 1 64 0
	sall	$8, %edx
.LVL128:
	.loc 1 65 0
	addl	$8, %ecx
.LVL129:
	.loc 1 64 0
	orl	%ebx, %edx
.LVL130:
.L93:
	.loc 1 65 0
	cmpl	$5, %ecx
	jle	.L102
	.loc 1 66 0
	subl	$6, %ecx
.LVL131:
	movl	%edx, %ebx
	incl	%eax
.LVL132:
	sarl	%cl, %ebx
	andl	$63, %ebx
	movb	-400(%ebp,%ebx), %bl
	movb	%bl, -204(%ebp,%eax)
.LVL133:
	jmp	.L93
.L102:
	.loc 1 63 0
	incl	%esi
.LVL134:
	jmp	.L92
.L101:
	.loc 1 69 0
	testl	%ecx, %ecx
	jle	.L97
.LVL135:
	.loc 1 71 0
	movl	$6, %ebx
	subl	%ecx, %ebx
	movl	%ebx, %ecx
.LVL136:
	sall	%cl, %edx
	andl	$63, %edx
	movb	-400(%ebp,%edx), %dl
	movb	%dl, -203(%ebp,%eax)
	incl	%eax
.LVL137:
.L97:
	.loc 1 73 0
	testb	$3, %al
	je	.L103
	.loc 1 74 0
	incl	%eax
.LVL138:
	movb	$61, -204(%ebp,%eax)
	jmp	.L97
.L103:
.LBE22:
.LBE24:
	.loc 1 245 0
	leal	-203(%ebp), %ebx
.LVL139:
	orl	$-1, %edx
.LBB25:
.LBB23:
	.loc 1 76 0
	movb	$0, -203(%ebp,%eax)
.LVL140:
.LBE23:
.LBE25:
	.loc 1 245 0
	movl	%edx, %ecx
	xorl	%eax, %eax
	.loc 1 247 0
	subl	$12, %esp
	.loc 1 245 0
	movl	%ebx, %edi
	repnz scasb
	.loc 1 246 0
	movl	%ebx, %edi
	.loc 1 245 0
	notl	%ecx
	movb	$0, -203(%ebp,%ecx)
	.loc 1 246 0
	movl	%edx, %ecx
	repnz scasb
	.loc 1 247 0
	pushl	%ebx
	pushl	$.LC26
	.loc 1 246 0
	movl	%ecx, %eax
	.loc 1 247 0
	pushl	$5
	pushl	$247
	pushl	$__FUNCTION__.3764
	.loc 1 246 0
	notl	%eax
	movb	$10, -204(%ebp,%eax)
	.loc 1 247 0
	call	LITE_syslog
.LVL141:
	.loc 1 248 0
	addl	$20, %esp
	pushl	$0
	pushl	%ebx
	pushl	-420(%ebp)
	pushl	-416(%ebp)
	pushl	-412(%ebp)
	call	httpclient_get_info
.LVL142:
	.loc 1 250 0
	xorl	%eax, %eax
	movl	-28(%ebp), %esi
	xorl	%gs:20, %esi
	je	.L99
	call	__stack_chk_fail
.LVL143:
.L99:
	leal	-12(%ebp), %esp
	popl	%ebx
	.cfi_restore 3
	popl	%esi
	.cfi_restore 6
	popl	%edi
	.cfi_restore 7
	popl	%ebp
	.cfi_restore 5
	.cfi_def_cfa 4, 4
	ret
	.cfi_endproc
.LFE8:
	.size	httpclient_send_auth, .-httpclient_send_auth
	.section	.text.unlikely.httpclient_send_auth
.LCOLDE27:
	.section	.text.httpclient_send_auth
.LHOTE27:
	.section	.rodata.str1.1
.LC28:
	.string	"POST"
.LC29:
	.string	"GET"
.LC30:
	.string	"PUT"
.LC31:
	.string	"DELETE"
.LC32:
	.string	""
.LC33:
	.string	"HEAD"
.LC34:
	.string	"Scheme str is too small (%u >= %u)"
.LC35:
	.string	"invalid path"
.LC36:
	.string	"Host str is too long (host_len(%d) >= max_len(%d))"
.LC37:
	.string	"Path str is too small (%d >= %d)"
.LC38:
	.string	"%s %s HTTP/1.1\r\nHost: %s\r\n"
.LC39:
	.string	"Could not write request"
.LC40:
	.string	"Content-Length: %d\r\n"
.LC41:
	.string	"Content-Type: %s\r\n"
.LC42:
	.string	"\r\n"
.LC43:
	.string	">"
.LC44:
	.string	"REQUEST"
.LC45:
	.string	"Written %d bytes"
.LC46:
	.string	"ret == 0,Connection was closed by server"
.LC47:
	.string	"Connection error (send returned %d)"
.LC48:
	.string	"httpclient_parse_url returned %d"
	.section	.text.unlikely.httpclient_send_header,"ax",@progbits
.LCOLDB49:
	.section	.text.httpclient_send_header,"ax",@progbits
.LHOTB49:
	.globl	httpclient_send_header
	.type	httpclient_send_header, @function
httpclient_send_header:
.LFB9:
	.loc 1 253 0
	.cfi_startproc
.LVL144:
	pushl	%ebp
	.cfi_def_cfa_offset 8
	.cfi_offset 5, -8
	.loc 1 255 0
	movl	$32, %ecx
	.loc 1 253 0
	movl	%esp, %ebp
	.cfi_def_cfa_register 5
	pushl	%edi
	pushl	%esi
	pushl	%ebx
	.cfi_offset 7, -12
	.cfi_offset 6, -16
	.cfi_offset 3, -20
	.loc 1 255 0
	leal	-3228(%ebp), %edi
	.loc 1 253 0
	subl	$3244, %esp
	.loc 1 253 0
	movl	8(%ebp), %eax
	movl	16(%ebp), %edx
	movl	12(%ebp), %esi
	.loc 1 254 0
	movl	$0, -3236(%ebp)
	movl	$0, -3232(%ebp)
	.loc 1 260 0
	movl	$.LC29, -3248(%ebp)
	.loc 1 253 0
	movl	%eax, -3244(%ebp)
	movl	20(%ebp), %eax
	movl	%eax, -3256(%ebp)
	movl	%gs:20, %eax
	movl	%eax, -28(%ebp)
	xorl	%eax, %eax
	.loc 1 260 0
	testl	%edx, %edx
	.loc 1 255 0
	rep stosl
	.loc 1 256 0
	leal	-3100(%ebp), %edi
	movl	$256, %ecx
	rep stosl
	.loc 1 258 0
	leal	-2076(%ebp), %edi
	movl	$256, %ecx
	rep stosl
	.loc 1 259 0
	leal	-1052(%ebp), %edi
	movl	$256, %ecx
	rep stosl
	.loc 1 260 0
	je	.L105
	.loc 1 260 0 is_stmt 0 discriminator 1
	cmpl	$1, %edx
	movl	$.LC28, -3248(%ebp)
	je	.L105
	.loc 1 261 0 is_stmt 1
	cmpl	$2, %edx
	movl	$.LC30, -3248(%ebp)
	je	.L105
	.loc 1 261 0 is_stmt 0 discriminator 1
	cmpl	$3, %edx
	movl	$.LC31, -3248(%ebp)
	je	.L105
	.loc 1 262 0 is_stmt 1
	cmpl	$4, %edx
	movl	$.LC32, %eax
	movl	$.LC33, %edx
	cmove	%edx, %eax
	movl	%eax, -3248(%ebp)
.L105:
.LVL145:
.LBB28:
.LBB29:
	.loc 1 93 0 discriminator 7
	pushl	%eax
	pushl	%eax
	pushl	$.LC15
	pushl	%esi
	call	strstr
.LVL146:
	addl	$16, %esp
.LVL147:
	.loc 1 100 0 discriminator 7
	testl	%eax, %eax
	jne	.L106
	.loc 1 101 0
	pushl	$.LC16
	pushl	$2
	pushl	$101
	pushl	$__FUNCTION__.3726
	call	LITE_syslog
.LVL148:
	addl	$16, %esp
	jmp	.L140
.LVL149:
.L106:
	.loc 1 105 0
	movl	%eax, %ebx
	subl	%esi, %ebx
	leal	1(%ebx), %edx
	cmpl	$8, %edx
	jbe	.L108
.LVL150:
	.loc 1 107 0
	pushl	%eax
	pushl	%eax
	pushl	%edx
	pushl	$8
	pushl	$.LC34
	pushl	$2
	pushl	$107
	jmp	.L139
.LVL151:
.L108:
	.loc 1 110 0
	leal	-3236(%ebp), %edx
.LVL152:
	movl	%ebx, %ecx
	movl	%edx, %edi
	rep movsb
.LVL153:
	.loc 1 111 0
	movb	$0, -3236(%ebp,%ebx)
	.loc 1 113 0
	leal	3(%eax), %ebx
.LVL154:
	.loc 1 117 0
	pushl	%eax
	pushl	%eax
	pushl	$47
	pushl	%ebx
	call	strchr
.LVL155:
	addl	$16, %esp
	.loc 1 118 0
	testl	%eax, %eax
	.loc 1 117 0
	movl	%eax, -3252(%ebp)
.LVL156:
	.loc 1 118 0
	jne	.L109
	.loc 1 119 0
	pushl	$.LC35
	pushl	$2
	.loc 1 120 0
	orl	$-1, %ebx
.LVL157:
	.loc 1 119 0
	pushl	$119
	pushl	$__FUNCTION__.3726
	call	LITE_syslog
.LVL158:
	addl	$16, %esp
	jmp	.L107
.LVL159:
.L109:
	.loc 1 124 0
	movl	-3252(%ebp), %eax
.LVL160:
	subl	%ebx, %eax
.LVL161:
	.loc 1 127 0
	leal	1(%eax), %edx
	cmpl	$128, %edx
	jbe	.L110
	.loc 1 129 0
	pushl	%edi
	pushl	%edi
	pushl	$128
	pushl	%edx
	pushl	$.LC36
	pushl	$2
	pushl	$129
	jmp	.L139
.L110:
	.loc 1 132 0
	leal	-3228(%ebp), %edx
.LVL162:
	movl	%eax, %ecx
	movl	%ebx, %esi
	movl	%edx, %edi
	rep movsb
	.loc 1 133 0
	movb	$0, -3228(%ebp,%eax)
	.loc 1 135 0
	pushl	%esi
	pushl	%esi
	pushl	$35
	pushl	%ebx
	call	strchr
.LVL163:
	addl	$16, %esp
.LVL164:
	.loc 1 136 0
	testl	%eax, %eax
	je	.L111
	.loc 1 137 0
	subl	-3252(%ebp), %eax
.LVL165:
	jmp	.L112
.LVL166:
.L111:
	.loc 1 139 0
	movl	-3252(%ebp), %edi
	xorl	%eax, %eax
.LVL167:
	orl	$-1, %ecx
	repnz scasb
.LVL168:
	movl	%ecx, %eax
	notl	%eax
	decl	%eax
.LVL169:
.L112:
	.loc 1 142 0
	leal	1(%eax), %edx
	cmpl	$1024, %edx
	jbe	.L113
.LVL170:
	.loc 1 144 0
	pushl	%ebx
	pushl	%ebx
	pushl	%edx
	pushl	$1024
	pushl	$.LC37
	pushl	$2
	pushl	$144
.LVL171:
.L139:
	pushl	$__FUNCTION__.3726
	call	LITE_syslog
.LVL172:
	addl	$32, %esp
.L140:
	.loc 1 145 0
	movl	$-7, %ebx
	jmp	.L107
.LVL173:
.L113:
	.loc 1 147 0
	leal	-3100(%ebp), %edx
.LVL174:
	movl	-3252(%ebp), %esi
	movl	%eax, %ecx
.LBE29:
.LBE28:
	.loc 1 284 0
	leal	-2076(%ebp), %ebx
.LVL175:
	.loc 1 285 0
	movl	$0, -3240(%ebp)
.LBB32:
.LBB30:
	.loc 1 147 0
	movl	%edx, %edi
	rep movsb
	.loc 1 148 0
	movb	$0, -3100(%ebp,%eax)
.LVL176:
.LBE30:
.LBE32:
	.loc 1 284 0
	movl	%ebx, %edi
.LBB33:
.LBB31:
	.loc 1 147 0
	movl	%ecx, %esi
.LBE31:
.LBE33:
	.loc 1 284 0
	movl	$256, %ecx
	movl	%esi, %eax
	.loc 1 287 0
	leal	-1052(%ebp), %esi
	.loc 1 284 0
	rep stosl
	.loc 1 287 0
	leal	-3228(%ebp), %eax
	.loc 1 288 0
	movl	%esi, %edi
	.loc 1 287 0
	pushl	%ecx
	pushl	%ecx
	pushl	%eax
	pushl	%edx
	pushl	-3248(%ebp)
	pushl	$.LC38
	pushl	$1024
	pushl	%esi
	call	HAL_Snprintf
.LVL177:
	.loc 1 288 0
	xorl	%eax, %eax
	orl	$-1, %ecx
	addl	$20, %esp
	repnz scasb
	notl	%ecx
	decl	%ecx
	pushl	%ecx
	pushl	%esi
	leal	-3240(%ebp), %esi
	pushl	%esi
	pushl	%ebx
	pushl	-3244(%ebp)
	call	httpclient_get_info
.LVL178:
	.loc 1 289 0
	addl	$32, %esp
	testl	%eax, %eax
	je	.L114
	.loc 1 290 0
	pushl	$.LC39
	pushl	$2
	pushl	$290
	pushl	$__FUNCTION__.3781
	call	LITE_syslog
.LVL179:
	.loc 1 291 0
	addl	$16, %esp
	jmp	.L138
.LVL180:
.L114:
	.loc 1 295 0
	movl	-3244(%ebp), %eax
.LVL181:
	cmpl	$0, 44(%eax)
	je	.L116
	.loc 1 296 0
	pushl	%edx
	pushl	%esi
	pushl	%ebx
	pushl	%eax
	call	httpclient_send_auth
.LVL182:
	addl	$16, %esp
.L116:
	.loc 1 300 0
	movl	-3244(%ebp), %eax
	movl	40(%eax), %edx
	testl	%edx, %edx
	je	.L117
	.loc 1 301 0
	xorl	%eax, %eax
	movl	%edx, %edi
	orl	$-1, %ecx
	repnz scasb
	leal	-3240(%ebp), %eax
	subl	$12, %esp
	notl	%ecx
	decl	%ecx
	pushl	%ecx
	pushl	%edx
	pushl	%eax
	pushl	%ebx
	pushl	-3244(%ebp)
	call	httpclient_get_info
.LVL183:
	addl	$32, %esp
.L117:
	.loc 1 304 0
	movl	-3256(%ebp), %eax
	cmpl	$0, 32(%eax)
	je	.L119
	.loc 1 305 0
	leal	-1052(%ebp), %ebx
	pushl	20(%eax)
	pushl	$.LC40
	pushl	$1024
	.loc 1 306 0
	leal	-3240(%ebp), %esi
	.loc 1 305 0
	pushl	%ebx
	.loc 1 306 0
	movl	%ebx, %edi
	.loc 1 305 0
	call	HAL_Snprintf
.LVL184:
	.loc 1 306 0
	xorl	%eax, %eax
	orl	$-1, %ecx
	repnz scasb
	leal	-2076(%ebp), %eax
	notl	%ecx
	decl	%ecx
	movl	%ecx, (%esp)
	pushl	%ebx
	pushl	%esi
	pushl	%eax
	pushl	-3244(%ebp)
	call	httpclient_get_info
.LVL185:
	.loc 1 308 0
	movl	-3256(%ebp), %eax
	addl	$32, %esp
	movl	28(%eax), %eax
	testl	%eax, %eax
	je	.L119
	.loc 1 309 0
	pushl	%eax
	pushl	$.LC41
	.loc 1 310 0
	movl	%ebx, %edi
	.loc 1 309 0
	pushl	$1024
	pushl	%ebx
	call	HAL_Snprintf
.LVL186:
	.loc 1 310 0
	xorl	%eax, %eax
	orl	$-1, %ecx
	repnz scasb
	leal	-2076(%ebp), %eax
	notl	%ecx
	decl	%ecx
	movl	%ecx, (%esp)
	pushl	%ebx
	pushl	%esi
	pushl	%eax
	pushl	-3244(%ebp)
	call	httpclient_get_info
.LVL187:
	addl	$32, %esp
.L119:
	.loc 1 315 0
	leal	-2076(%ebp), %ebx
	leal	-3240(%ebp), %eax
	subl	$12, %esp
	pushl	$0
	pushl	$.LC42
	pushl	%eax
	pushl	%ebx
	pushl	-3244(%ebp)
	call	httpclient_get_info
.LVL188:
	.loc 1 317 0
	addl	$24, %esp
	pushl	$.LC43
	pushl	%ebx
	pushl	$5
	pushl	$.LC44
	pushl	$317
	pushl	$__func__.3782
	call	log_multi_line_internal
.LVL189:
	.loc 1 320 0
	movl	-3244(%ebp), %eax
	addl	$32, %esp
	pushl	$5000
	pushl	-3240(%ebp)
	pushl	%ebx
	addl	$4, %eax
	pushl	%eax
	movl	-3244(%ebp), %eax
	call	*24(%eax)
.LVL190:
	.loc 1 321 0
	addl	$16, %esp
	cmpl	$0, %eax
	jle	.L121
	.loc 1 322 0
	subl	$12, %esp
	.loc 1 331 0
	xorl	%ebx, %ebx
	.loc 1 322 0
	pushl	%eax
	pushl	$.LC45
	pushl	$5
	pushl	$322
	pushl	$__FUNCTION__.3781
	call	LITE_syslog
.LVL191:
	.loc 1 331 0
	addl	$32, %esp
	jmp	.L115
.LVL192:
.L121:
	.loc 1 323 0
	jne	.L122
	.loc 1 324 0
	pushl	$.LC46
	pushl	$2
	.loc 1 325 0
	movl	$-3, %ebx
	.loc 1 324 0
	pushl	$324
	pushl	$__FUNCTION__.3781
	call	LITE_syslog
.LVL193:
	.loc 1 325 0
	addl	$16, %esp
	jmp	.L115
.LVL194:
.L122:
	.loc 1 327 0
	subl	$12, %esp
	pushl	%eax
	pushl	$.LC47
	pushl	$2
	pushl	$327
	pushl	$__FUNCTION__.3781
	call	LITE_syslog
.LVL195:
	.loc 1 328 0
	addl	$32, %esp
.L138:
	movl	$-8, %ebx
.LVL196:
.L115:
	.loc 1 332 0
	movl	-28(%ebp), %esi
	xorl	%gs:20, %esi
	movl	%ebx, %eax
	je	.L123
	call	__stack_chk_fail
.LVL197:
.L107:
	.loc 1 270 0
	subl	$12, %esp
	pushl	%ebx
	pushl	$.LC48
	pushl	$2
	pushl	$270
	pushl	$__FUNCTION__.3781
	call	LITE_syslog
.LVL198:
	.loc 1 271 0
	addl	$32, %esp
	jmp	.L115
.L123:
	.loc 1 332 0
	leal	-12(%ebp), %esp
	popl	%ebx
	.cfi_restore 3
	popl	%esi
	.cfi_restore 6
	popl	%edi
	.cfi_restore 7
	popl	%ebp
	.cfi_restore 5
	.cfi_def_cfa 4, 4
	ret
	.cfi_endproc
.LFE9:
	.size	httpclient_send_header, .-httpclient_send_header
	.section	.text.unlikely.httpclient_send_header
.LCOLDE49:
	.section	.text.httpclient_send_header
.LHOTE49:
	.section	.rodata.str1.1
.LC50:
	.string	"client_data->post_buf: %s"
	.section	.text.unlikely.httpclient_send_userdata,"ax",@progbits
.LCOLDB51:
	.section	.text.httpclient_send_userdata,"ax",@progbits
.LHOTB51:
	.globl	httpclient_send_userdata
	.type	httpclient_send_userdata, @function
httpclient_send_userdata:
.LFB10:
	.loc 1 335 0
	.cfi_startproc
.LVL199:
	pushl	%ebp
	.cfi_def_cfa_offset 8
	.cfi_offset 5, -8
	.loc 1 355 0
	xorl	%eax, %eax
	.loc 1 335 0
	movl	%esp, %ebp
	.cfi_def_cfa_register 5
	pushl	%esi
	pushl	%ebx
	.cfi_offset 6, -12
	.cfi_offset 3, -16
	.loc 1 335 0
	movl	12(%ebp), %ebx
	movl	8(%ebp), %esi
	.loc 1 338 0
	movl	32(%ebx), %edx
	testl	%edx, %edx
	je	.L142
	.loc 1 338 0 is_stmt 0 discriminator 1
	movl	20(%ebx), %eax
	testl	%eax, %eax
	je	.L142
	.loc 1 339 0 is_stmt 1
	subl	$12, %esp
	pushl	%edx
	pushl	$.LC50
	pushl	$5
	pushl	$339
	pushl	$__FUNCTION__.3788
	call	LITE_syslog
.LVL200:
	.loc 1 342 0
	leal	4(%esi), %eax
	addl	$32, %esp
	pushl	$5000
	pushl	20(%ebx)
	pushl	32(%ebx)
	pushl	%eax
	call	*24(%esi)
.LVL201:
	.loc 1 343 0
	addl	$16, %esp
	cmpl	$0, %eax
	jle	.L143
	.loc 1 344 0
	subl	$12, %esp
	pushl	%eax
	pushl	$.LC45
	pushl	$5
	pushl	$344
	pushl	$__FUNCTION__.3788
	call	LITE_syslog
.LVL202:
	addl	$32, %esp
	.loc 1 355 0
	xorl	%eax, %eax
	jmp	.L142
.LVL203:
.L143:
	.loc 1 345 0
	jne	.L144
	.loc 1 346 0
	pushl	$.LC46
	pushl	$2
	pushl	$346
	pushl	$__FUNCTION__.3788
	call	LITE_syslog
.LVL204:
	.loc 1 347 0
	addl	$16, %esp
	movl	$-3, %eax
	jmp	.L142
.LVL205:
.L144:
	.loc 1 349 0
	subl	$12, %esp
	pushl	%eax
	pushl	$.LC47
	pushl	$2
	pushl	$349
	pushl	$__FUNCTION__.3788
	call	LITE_syslog
.LVL206:
	.loc 1 350 0
	addl	$32, %esp
	movl	$-8, %eax
.L142:
	.loc 1 356 0
	leal	-8(%ebp), %esp
	popl	%ebx
	.cfi_restore 3
	popl	%esi
	.cfi_restore 6
	popl	%ebp
	.cfi_restore 5
	.cfi_def_cfa 4, 4
	ret
	.cfi_endproc
.LFE10:
	.size	httpclient_send_userdata, .-httpclient_send_userdata
	.section	.text.unlikely.httpclient_send_userdata
.LCOLDE51:
	.section	.text.httpclient_send_userdata
.LHOTE51:
	.section	.rodata.str1.1
.LC52:
	.string	"establish connection failed"
	.section	.text.unlikely.httpclient_connect,"ax",@progbits
.LCOLDB53:
	.section	.text.httpclient_connect,"ax",@progbits
.LHOTB53:
	.globl	httpclient_connect
	.type	httpclient_connect, @function
httpclient_connect:
.LFB14:
	.loc 1 695 0
	.cfi_startproc
.LVL207:
	pushl	%ebp
	.cfi_def_cfa_offset 8
	.cfi_offset 5, -8
	movl	%esp, %ebp
	.cfi_def_cfa_register 5
	subl	$20, %esp
	.loc 1 695 0
	movl	8(%ebp), %eax
.LBB36:
.LBB37:
	.loc 1 81 0
	leal	4(%eax), %edx
.LBE37:
.LBE36:
	.loc 1 698 0
	movl	$0, 16(%eax)
.LVL208:
.LBB39:
.LBB38:
	.loc 1 81 0
	pushl	%edx
	call	*32(%eax)
.LVL209:
	addl	$16, %esp
	testl	%eax, %eax
	je	.L151
	.loc 1 82 0
	pushl	$.LC52
	pushl	$2
	pushl	$82
	pushl	$__FUNCTION__.3709
	call	LITE_syslog
.LVL210:
	addl	$16, %esp
	.loc 1 83 0
	movl	$-8, %eax
.L151:
.LVL211:
.LBE38:
.LBE39:
	.loc 1 707 0
	leave
	.cfi_restore 5
	.cfi_def_cfa 4, 4
	ret
	.cfi_endproc
.LFE14:
	.size	httpclient_connect, .-httpclient_connect
	.section	.text.unlikely.httpclient_connect
.LCOLDE53:
	.section	.text.httpclient_connect
.LHOTE53:
	.section	.rodata.str1.1
.LC54:
	.string	"not connection have been established"
.LC55:
	.string	"httpclient_send_header is error,ret = %d"
	.section	.text.unlikely.httpclient_send_request,"ax",@progbits
.LCOLDB56:
	.section	.text.httpclient_send_request,"ax",@progbits
.LHOTB56:
	.globl	httpclient_send_request
	.type	httpclient_send_request, @function
httpclient_send_request:
.LFB15:
	.loc 1 711 0
	.cfi_startproc
.LVL212:
	pushl	%ebp
	.cfi_def_cfa_offset 8
	.cfi_offset 5, -8
	movl	%esp, %ebp
	.cfi_def_cfa_register 5
	pushl	%edi
	pushl	%esi
	pushl	%ebx
	subl	$28, %esp
	.cfi_offset 7, -12
	.cfi_offset 6, -16
	.cfi_offset 3, -20
	.loc 1 711 0
	movl	8(%ebp), %esi
	movl	12(%ebp), %eax
	movl	16(%ebp), %ebx
.LVL213:
	movl	20(%ebp), %edi
	.loc 1 714 0
	cmpl	$0, 16(%esi)
	jne	.L157
.LVL214:
.LBB42:
.LBB43:
	.loc 1 715 0
	pushl	$.LC54
	pushl	$5
	pushl	$715
	pushl	$__FUNCTION__.3865
	call	LITE_syslog
.LVL215:
	addl	$16, %esp
	movl	$-8, %eax
	jmp	.L158
.L157:
.LBE43:
.LBE42:
	.loc 1 719 0
	pushl	%edi
	pushl	%ebx
	pushl	%eax
	pushl	%esi
	call	httpclient_send_header
.LVL216:
	.loc 1 720 0
	addl	$16, %esp
	testl	%eax, %eax
	je	.L159
	.loc 1 721 0
	subl	$12, %esp
	movl	%eax, -28(%ebp)
	pushl	%eax
	pushl	$.LC55
	pushl	$2
	pushl	$721
	pushl	$__FUNCTION__.3865
	call	LITE_syslog
.LVL217:
	.loc 1 722 0
	addl	$32, %esp
	movl	-28(%ebp), %eax
	jmp	.L158
.LVL218:
.L159:
	.loc 1 725 0
	decl	%ebx
	xorl	%eax, %eax
.LVL219:
	cmpl	$1, %ebx
	ja	.L158
	.loc 1 726 0
	movl	%edi, 12(%ebp)
	movl	%esi, 8(%ebp)
	.loc 1 730 0
	leal	-12(%ebp), %esp
	popl	%ebx
	.cfi_remember_state
	.cfi_restore 3
	popl	%esi
	.cfi_restore 6
	popl	%edi
	.cfi_restore 7
	popl	%ebp
	.cfi_restore 5
	.cfi_def_cfa 4, 4
	.loc 1 726 0
	jmp	httpclient_send_userdata
.LVL220:
.L158:
	.cfi_restore_state
	.loc 1 730 0
	leal	-12(%ebp), %esp
	popl	%ebx
	.cfi_restore 3
	popl	%esi
	.cfi_restore 6
	popl	%edi
	.cfi_restore 7
	popl	%ebp
	.cfi_restore 5
	.cfi_def_cfa 4, 4
	ret
	.cfi_endproc
.LFE15:
	.size	httpclient_send_request, .-httpclient_send_request
	.section	.text.unlikely.httpclient_send_request
.LCOLDE56:
	.section	.text.httpclient_send_request
.LHOTE56:
	.section	.rodata.str1.1
.LC57:
	.string	"<"
.LC58:
	.string	"RESPONSE"
.LC59:
	.string	"\r\n not found"
.LC60:
	.string	"Response code %d"
.LC61:
	.string	"Reading headers: %s"
.LC62:
	.string	"\r\n\r\n"
.LC63:
	.string	"Content-Length"
.LC64:
	.string	"Transfer-Encoding"
.LC65:
	.string	"Chunked"
.LC66:
	.string	"chunked"
.LC67:
	.string	"Could not parse header"
	.section	.text.unlikely.httpclient_recv_response,"ax",@progbits
.LCOLDB68:
	.section	.text.httpclient_recv_response,"ax",@progbits
.LHOTB68:
	.globl	httpclient_recv_response
	.type	httpclient_recv_response, @function
httpclient_recv_response:
.LFB16:
	.loc 1 733 0
	.cfi_startproc
.LVL221:
	pushl	%ebp
	.cfi_def_cfa_offset 8
	.cfi_offset 5, -8
	.loc 1 735 0
	movl	$256, %ecx
	.loc 1 733 0
	movl	%esp, %ebp
	.cfi_def_cfa_register 5
	pushl	%edi
	pushl	%esi
	pushl	%ebx
	.cfi_offset 7, -12
	.cfi_offset 6, -16
	.cfi_offset 3, -20
	.loc 1 735 0
	leal	-1052(%ebp), %edi
	.loc 1 738 0
	leal	-1064(%ebp), %ebx
	.loc 1 733 0
	subl	$1096, %esp
	.loc 1 733 0
	movl	8(%ebp), %eax
	movl	16(%ebp), %esi
	.loc 1 734 0
	movl	$0, -1068(%ebp)
.LVL222:
	.loc 1 733 0
	movl	%eax, -1084(%ebp)
	movl	%gs:20, %eax
	movl	%eax, -28(%ebp)
	xorl	%eax, %eax
	.loc 1 735 0
	rep stosl
	.loc 1 738 0
	pushl	%ebx
	call	iotx_time_init
.LVL223:
	.loc 1 739 0
	popl	%ecx
	popl	%edi
	pushl	12(%ebp)
	pushl	%ebx
	call	utils_time_countdown_ms
.LVL224:
	.loc 1 741 0
	movl	-1084(%ebp), %eax
	addl	$16, %esp
	cmpl	$0, 16(%eax)
	jne	.L163
	.loc 1 742 0
	pushl	$.LC54
	pushl	$5
	pushl	$742
	pushl	$__FUNCTION__.3875
	call	LITE_syslog
.LVL225:
	.loc 1 743 0
	addl	$16, %esp
	jmp	.L177
.L163:
	.loc 1 746 0
	cmpl	$0, (%esi)
	leal	-1052(%ebp), %edi
	je	.L165
	.loc 1 747 0
	movl	36(%esi), %eax
	.loc 1 748 0
	subl	$12, %esp
	.loc 1 747 0
	movb	$0, (%eax)
	.loc 1 748 0
	pushl	%ebx
	call	iotx_time_left
.LVL226:
	popl	%ebx
	movl	-1068(%ebp), %ecx
	popl	%edx
	pushl	%esi
	pushl	%eax
	jmp	.L185
.L165:
	.loc 1 752 0
	subl	$12, %esp
	.loc 1 750 0
	movl	$1, (%esi)
	.loc 1 752 0
	pushl	%ebx
	call	iotx_time_left
.LVL227:
	popl	%edx
	popl	%ecx
	pushl	%eax
	leal	-1068(%ebp), %eax
	movl	$32, %ecx
	movl	%edi, %edx
	pushl	%eax
	movl	-1084(%ebp), %eax
	call	httpclient_recv.isra.1
.LVL228:
	.loc 1 753 0
	addl	$16, %esp
	testl	%eax, %eax
	jne	.L164
	.loc 1 757 0
	movl	-1068(%ebp), %eax
.LVL229:
	.loc 1 759 0
	testl	%eax, %eax
	.loc 1 757 0
	movb	$0, -1052(%ebp,%eax)
	.loc 1 759 0
	je	.L164
	.loc 1 760 0
	pushl	%eax
	pushl	%eax
	pushl	$.LC57
	pushl	%edi
	pushl	$5
	pushl	$.LC58
	pushl	$760
	pushl	$__func__.3876
	call	log_multi_line_internal
.LVL230:
	.loc 1 761 0
	addl	$20, %esp
	pushl	%ebx
.LBB47:
.LBB48:
	.loc 1 608 0
	leal	-1060(%ebp), %ebx
.LBE48:
.LBE47:
	.loc 1 761 0
	call	iotx_time_left
.LVL231:
	movl	%eax, -1092(%ebp)
	movl	-1068(%ebp), %eax
.LBB52:
.LBB50:
	.loc 1 608 0
	movl	%ebx, (%esp)
.LBE50:
.LBE52:
	.loc 1 761 0
	movl	%eax, -1088(%ebp)
.LVL232:
.LBB53:
.LBB51:
	.loc 1 608 0
	call	iotx_time_init
.LVL233:
	.loc 1 609 0
	popl	%eax
	movl	-1092(%ebp), %eax
	popl	%edx
	pushl	%eax
	pushl	%ebx
	call	utils_time_countdown_ms
.LVL234:
	.loc 1 611 0
	movl	$-1, 12(%esi)
	.loc 1 621 0
	popl	%ecx
	popl	%ebx
	pushl	$.LC42
	pushl	%edi
	call	strstr
.LVL235:
	addl	$16, %esp
.LVL236:
	.loc 1 622 0
	testl	%eax, %eax
	jne	.L166
	.loc 1 623 0
	pushl	$.LC59
	pushl	$2
	pushl	$623
	pushl	$__FUNCTION__.3848
	call	LITE_syslog
.LVL237:
	addl	$16, %esp
	.loc 1 624 0
	movl	$-6, %eax
	jmp	.L164
.LVL238:
.L166:
	.loc 1 628 0
	movb	$0, (%eax)
	.loc 1 627 0
	movl	%eax, %edi
.LVL239:
	.loc 1 639 0
	leal	-1043(%ebp), %eax
.LVL240:
	subl	$12, %esp
	.loc 1 627 0
	leal	-1052(%ebp), %ecx
	.loc 1 639 0
	pushl	%eax
	.loc 1 627 0
	subl	%ecx, %edi
.LVL241:
	.loc 1 639 0
	call	atoi
.LVL242:
	movl	-1084(%ebp), %ecx
	.loc 1 641 0
	leal	-200(%eax), %edx
	addl	$16, %esp
	cmpl	$199, %edx
	.loc 1 639 0
	movl	%eax, 36(%ecx)
	.loc 1 641 0
	jbe	.L168
	.loc 1 643 0
	subl	$12, %esp
	pushl	%eax
	pushl	$.LC60
	pushl	$3
	pushl	$643
	pushl	$__FUNCTION__.3848
	call	LITE_syslog
.LVL243:
	addl	$32, %esp
.L168:
	.loc 1 646 0
	leal	-1052(%ebp), %edx
	subl	$12, %esp
	.loc 1 648 0
	addl	$2, %edi
.LVL244:
	.loc 1 646 0
	pushl	%edx
	pushl	$.LC61
	pushl	$5
	pushl	$646
	pushl	$__FUNCTION__.3848
	movl	%edx, -1092(%ebp)
.LVL245:
	call	LITE_syslog
.LVL246:
	.loc 1 648 0
	movl	-1088(%ebp), %ebx
	movl	-1092(%ebp), %edx
	addl	$28, %esp
	subl	%edi, %ebx
	addl	%edx, %edi
.LVL247:
	movl	%edx, -1088(%ebp)
.LVL248:
	leal	1(%ebx), %eax
	pushl	%eax
	pushl	%edi
	pushl	%edx
	call	memmove
.LVL249:
	.loc 1 655 0
	movl	-1088(%ebp), %edx
	.loc 1 651 0
	movl	$0, 4(%esi)
	addl	$16, %esp
	.loc 1 655 0
	movl	%edx, %edi
.LVL250:
.L169:
	pushl	%eax
	pushl	%eax
	pushl	$.LC62
	pushl	%edi
	call	strstr
.LVL251:
	addl	$16, %esp
	testl	%eax, %eax
	movl	%eax, -1088(%ebp)
.LVL252:
	jne	.L186
	.loc 1 657 0
	leal	-1060(%ebp), %eax
.LVL253:
	subl	$12, %esp
	pushl	%eax
	call	iotx_time_left
.LVL254:
	popl	%ecx
	popl	%ecx
	pushl	%eax
	leal	-1056(%ebp), %eax
	leal	(%edi,%ebx), %edx
	movl	$32, %ecx
	pushl	%eax
	movl	-1084(%ebp), %eax
	call	httpclient_recv.isra.1
.LVL255:
	.loc 1 658 0
	addl	$16, %esp
	cmpl	$-8, %eax
	je	.L177
	.loc 1 661 0
	addl	-1056(%ebp), %ebx
.LVL256:
	.loc 1 662 0
	movb	$0, -1052(%ebp,%ebx)
	jmp	.L169
.LVL257:
.L186:
.LVL258:
	.loc 1 666 0
	pushl	%eax
	pushl	%eax
	pushl	$.LC63
	pushl	%edi
	call	strstr
.LVL259:
	addl	$16, %esp
.LVL260:
	testl	%eax, %eax
	je	.L171
	.loc 1 667 0
	subl	$12, %esp
	addl	$16, %eax
.LVL261:
	pushl	%eax
	call	atoi
.LVL262:
	.loc 1 668 0
	addl	$16, %esp
	.loc 1 667 0
	movl	%eax, 12(%esi)
	.loc 1 668 0
	movl	%eax, 8(%esi)
	jmp	.L172
.LVL263:
.L171:
.LVL264:
	.loc 1 669 0
	pushl	%eax
	pushl	%eax
	pushl	$.LC64
	pushl	%edi
	call	strstr
.LVL265:
	addl	$16, %esp
.LVL266:
	testl	%eax, %eax
	je	.L173
.LVL267:
.LBB49:
	.loc 1 673 0
	leal	-1033(%ebp), %edx
.LVL268:
.LVL269:
	pushl	%eax
	pushl	$7
	pushl	$.LC65
	pushl	%edx
	movl	%edx, -1092(%ebp)
	call	memcmp
.LVL270:
	addl	$16, %esp
	testl	%eax, %eax
	je	.L174
	.loc 1 674 0
	movl	-1092(%ebp), %edx
	pushl	%edi
	pushl	$7
	pushl	$.LC66
	pushl	%edx
	call	memcmp
.LVL271:
	addl	$16, %esp
	testl	%eax, %eax
	jne	.L172
.L174:
	.loc 1 675 0
	movl	$1, 4(%esi)
	.loc 1 676 0
	movl	$0, 12(%esi)
	.loc 1 677 0
	movl	$0, 8(%esi)
	jmp	.L172
.LVL272:
.L173:
.LBE49:
	.loc 1 680 0
	pushl	$.LC67
	pushl	$2
	pushl	$680
	pushl	$__FUNCTION__.3848
	call	LITE_syslog
.LVL273:
	addl	$16, %esp
	.loc 1 681 0
	movl	$-4, %eax
	jmp	.L164
.LVL274:
.L172:
	.loc 1 688 0
	movl	-1088(%ebp), %edi
	leal	-1052(%ebp), %ecx
	addl	$4, %edi
	movl	%edi, %eax
	subl	%ecx, %eax
	subl	%eax, %ebx
.LVL275:
	.loc 1 689 0
	pushl	%eax
	leal	1(%ebx), %eax
	pushl	%eax
	pushl	%edi
	movl	%ecx, %edi
	pushl	%ecx
	call	memmove
.LVL276:
	.loc 1 690 0
	addl	%ebx, 16(%esi)
	.loc 1 691 0
	leal	-1060(%ebp), %eax
	movl	%eax, (%esp)
	call	iotx_time_left
.LVL277:
	popl	%edx
	popl	%ecx
	pushl	%esi
	pushl	%eax
	movl	%ebx, %ecx
.LVL278:
.L185:
	movl	-1084(%ebp), %eax
	movl	%edi, %edx
	call	httpclient_retrieve_content
.LVL279:
	addl	$16, %esp
	jmp	.L164
.L177:
	.loc 1 658 0
	movl	$-8, %eax
.L164:
.LBE51:
.LBE53:
	.loc 1 766 0
	movl	-28(%ebp), %ecx
	xorl	%gs:20, %ecx
	je	.L175
	call	__stack_chk_fail
.LVL280:
.L175:
	leal	-12(%ebp), %esp
	popl	%ebx
	.cfi_restore 3
	popl	%esi
	.cfi_restore 6
	popl	%edi
	.cfi_restore 7
	popl	%ebp
	.cfi_restore 5
	.cfi_def_cfa 4, 4
	ret
	.cfi_endproc
.LFE16:
	.size	httpclient_recv_response, .-httpclient_recv_response
	.section	.text.unlikely.httpclient_recv_response
.LCOLDE68:
	.section	.text.httpclient_recv_response
.LHOTE68:
	.section	.rodata.str1.1
.LC69:
	.string	"client disconnected"
	.section	.text.unlikely.httpclient_close,"ax",@progbits
.LCOLDB70:
	.section	.text.httpclient_close,"ax",@progbits
.LHOTB70:
	.globl	httpclient_close
	.type	httpclient_close, @function
httpclient_close:
.LFB17:
	.loc 1 769 0
	.cfi_startproc
.LVL281:
	pushl	%ebp
	.cfi_def_cfa_offset 8
	.cfi_offset 5, -8
	movl	%esp, %ebp
	.cfi_def_cfa_register 5
	pushl	%ebx
	pushl	%eax
	.cfi_offset 3, -12
	.loc 1 769 0
	movl	8(%ebp), %ebx
	.loc 1 770 0
	cmpl	$0, 16(%ebx)
	je	.L188
	.loc 1 771 0
	leal	4(%ebx), %eax
	subl	$12, %esp
	pushl	%eax
	call	*28(%ebx)
.LVL282:
	addl	$16, %esp
.L188:
	.loc 1 773 0
	movl	$0, 16(%ebx)
	.loc 1 774 0
	pushl	$.LC69
	pushl	$5
	pushl	$774
	pushl	$__FUNCTION__.3880
	call	LITE_syslog
.LVL283:
	.loc 1 775 0
	addl	$16, %esp
	movl	-4(%ebp), %ebx
	leave
	.cfi_restore 5
	.cfi_restore 3
	.cfi_def_cfa 4, 4
	ret
	.cfi_endproc
.LFE17:
	.size	httpclient_close, .-httpclient_close
	.section	.text.unlikely.httpclient_close
.LCOLDE70:
	.section	.text.httpclient_close
.LHOTE70:
	.section	.rodata.str1.1
.LC71:
	.string	"host: '%s', port: %d"
.LC72:
	.string	"httpclient_connect is error, ret = %d"
.LC73:
	.string	"httpclient_send_request is error, ret = %d"
.LC74:
	.string	"httpclient_recv_response is error,ret = %d"
.LC75:
	.string	"close http channel"
	.section	.text.unlikely.httpclient_common,"ax",@progbits
.LCOLDB76:
	.section	.text.httpclient_common,"ax",@progbits
.LHOTB76:
	.globl	httpclient_common
	.type	httpclient_common, @function
httpclient_common:
.LFB18:
	.loc 1 779 0
	.cfi_startproc
.LVL284:
	pushl	%ebp
	.cfi_def_cfa_offset 8
	.cfi_offset 5, -8
	.loc 1 782 0
	movl	$32, %ecx
	.loc 1 779 0
	movl	%esp, %ebp
	.cfi_def_cfa_register 5
	pushl	%edi
	pushl	%esi
	pushl	%ebx
	.cfi_offset 7, -12
	.cfi_offset 6, -16
	.cfi_offset 3, -20
	.loc 1 782 0
	leal	-156(%ebp), %edi
	.loc 1 779 0
	subl	$172, %esp
	.loc 1 779 0
	movl	12(%ebp), %eax
	movl	8(%ebp), %ebx
	movl	32(%ebp), %esi
	movl	%eax, -172(%ebp)
	movl	20(%ebp), %eax
	movl	%eax, -176(%ebp)
	movl	%gs:20, %eax
	movl	%eax, -28(%ebp)
	xorl	%eax, %eax
.LVL285:
	.loc 1 782 0
	rep stosl
	.loc 1 784 0
	leal	-156(%ebp), %edi
	movl	-172(%ebp), %eax
	movl	%edi, %edx
	call	httpclient_parse_host.constprop.3
.LVL286:
	.loc 1 785 0
	pushl	%ecx
	pushl	%ecx
	pushl	16(%ebp)
	pushl	%edi
	pushl	$.LC71
	pushl	$5
	pushl	$785
	pushl	$__FUNCTION__.3893
	call	LITE_syslog
.LVL287:
	.loc 1 787 0
	addl	$32, %esp
	cmpl	$0, 16(%ebx)
	jne	.L191
	.loc 1 789 0
	movzwl	16(%ebp), %eax
	pushl	-176(%ebp)
	pushl	%eax
	leal	4(%ebx), %eax
	pushl	%edi
	pushl	%eax
	call	iotx_net_init
.LVL288:
	.loc 1 790 0
	addl	$16, %esp
	testl	%eax, %eax
	jne	.L192
	.loc 1 794 0
	subl	$12, %esp
	pushl	%ebx
	call	httpclient_connect
.LVL289:
	.loc 1 795 0
	addl	$16, %esp
	testl	%eax, %eax
	.loc 1 794 0
	movl	%eax, %edi
.LVL290:
	.loc 1 795 0
	je	.L193
	.loc 1 796 0
	subl	$12, %esp
	pushl	%eax
	pushl	$.LC72
	pushl	$2
	pushl	$796
	jmp	.L202
.L193:
	.loc 1 801 0
	pushl	%esi
	pushl	24(%ebp)
	pushl	-172(%ebp)
	pushl	%ebx
	call	httpclient_send_request
.LVL291:
	.loc 1 802 0
	addl	$16, %esp
	testl	%eax, %eax
	.loc 1 801 0
	movl	%eax, %edi
.LVL292:
	.loc 1 802 0
	je	.L191
	.loc 1 803 0
	subl	$12, %esp
	pushl	%eax
	pushl	$.LC73
	pushl	$2
	pushl	$803
.L202:
	pushl	$__FUNCTION__.3893
	call	LITE_syslog
.LVL293:
	.loc 1 804 0
	addl	$20, %esp
	pushl	%ebx
	call	httpclient_close
.LVL294:
	.loc 1 805 0
	addl	$16, %esp
	movl	%edi, %eax
	jmp	.L192
.LVL295:
.L191:
	.loc 1 809 0
	leal	-160(%ebp), %edi
	subl	$12, %esp
	pushl	%edi
	call	iotx_time_init
.LVL296:
	.loc 1 810 0
	popl	%eax
	popl	%edx
	pushl	28(%ebp)
	pushl	%edi
	call	utils_time_countdown_ms
.LVL297:
	.loc 1 812 0
	addl	$16, %esp
	cmpl	$0, 36(%esi)
	je	.L194
	.loc 1 813 0
	cmpl	$0, 24(%esi)
	je	.L194
	.loc 1 814 0
	subl	$12, %esp
	pushl	%edi
	call	iotx_time_left
.LVL298:
	addl	$12, %esp
	pushl	%esi
	pushl	%eax
	pushl	%ebx
	call	httpclient_recv_response
.LVL299:
	.loc 1 815 0
	addl	$16, %esp
	testl	%eax, %eax
	.loc 1 814 0
	movl	%eax, %edi
.LVL300:
	.loc 1 815 0
	jns	.L194
	.loc 1 816 0
	subl	$12, %esp
	pushl	%eax
	pushl	$.LC74
	pushl	$2
	pushl	$816
	jmp	.L202
.LVL301:
.L194:
	.loc 1 822 0
	cmpl	$0, (%esi)
	jne	.L195
	.loc 1 824 0
	pushl	$.LC75
	pushl	$4
	pushl	$824
	pushl	$__FUNCTION__.3893
	call	LITE_syslog
.LVL302:
	.loc 1 825 0
	movl	%ebx, (%esp)
	call	httpclient_close
.LVL303:
	addl	$16, %esp
.L195:
	.loc 1 828 0
	xorl	%eax, %eax
.L192:
	.loc 1 829 0
	movl	-28(%ebp), %edx
	xorl	%gs:20, %edx
	je	.L196
	call	__stack_chk_fail
.LVL304:
.L196:
	leal	-12(%ebp), %esp
	popl	%ebx
	.cfi_restore 3
	popl	%esi
	.cfi_restore 6
	popl	%edi
	.cfi_restore 7
	popl	%ebp
	.cfi_restore 5
	.cfi_def_cfa 4, 4
	ret
	.cfi_endproc
.LFE18:
	.size	httpclient_common, .-httpclient_common
	.section	.text.unlikely.httpclient_common
.LCOLDE76:
	.section	.text.httpclient_common
.LHOTE76:
	.section	.text.unlikely.utils_get_response_code,"ax",@progbits
.LCOLDB77:
	.section	.text.utils_get_response_code,"ax",@progbits
.LHOTB77:
	.globl	utils_get_response_code
	.type	utils_get_response_code, @function
utils_get_response_code:
.LFB19:
	.loc 1 832 0
	.cfi_startproc
.LVL305:
	pushl	%ebp
	.cfi_def_cfa_offset 8
	.cfi_offset 5, -8
	movl	%esp, %ebp
	.cfi_def_cfa_register 5
	.loc 1 833 0
	movl	8(%ebp), %eax
	.loc 1 834 0
	popl	%ebp
	.cfi_restore 5
	.cfi_def_cfa 4, 4
	.loc 1 833 0
	movl	36(%eax), %eax
	.loc 1 834 0
	ret
	.cfi_endproc
.LFE19:
	.size	utils_get_response_code, .-utils_get_response_code
	.section	.text.unlikely.utils_get_response_code
.LCOLDE77:
	.section	.text.utils_get_response_code
.LHOTE77:
	.section	.text.unlikely.iotx_post,"ax",@progbits
.LCOLDB78:
	.section	.text.iotx_post,"ax",@progbits
.LHOTB78:
	.globl	iotx_post
	.type	iotx_post, @function
iotx_post:
.LFB20:
	.loc 1 841 0
	.cfi_startproc
.LVL306:
	pushl	%ebp
	.cfi_def_cfa_offset 8
	.cfi_offset 5, -8
	.loc 1 844 0
	movl	$32, %ecx
	.loc 1 841 0
	movl	%esp, %ebp
	.cfi_def_cfa_register 5
	pushl	%edi
	pushl	%esi
	pushl	%ebx
	.cfi_offset 7, -12
	.cfi_offset 6, -16
	.cfi_offset 3, -20
	.loc 1 844 0
	leal	-156(%ebp), %edi
	.loc 1 841 0
	subl	$172, %esp
	.loc 1 841 0
	movl	20(%ebp), %eax
	movl	12(%ebp), %esi
	movl	8(%ebp), %ebx
	movl	%eax, -172(%ebp)
	movl	24(%ebp), %eax
	movl	%eax, -176(%ebp)
	movl	%gs:20, %eax
	movl	%eax, -28(%ebp)
	xorl	%eax, %eax
.LVL307:
	.loc 1 844 0
	rep stosl
	.loc 1 846 0
	leal	-156(%ebp), %edi
	movl	%esi, %eax
	movl	%edi, %edx
	call	httpclient_parse_host.constprop.3
.LVL308:
	.loc 1 847 0
	pushl	%eax
	pushl	%eax
	pushl	16(%ebp)
	pushl	%edi
	pushl	$.LC71
	pushl	$5
	pushl	$847
	pushl	$__FUNCTION__.3906
	call	LITE_syslog
.LVL309:
	.loc 1 849 0
	addl	$32, %esp
	cmpl	$0, 16(%ebx)
	.loc 1 843 0
	movl	$-4, %edx
	.loc 1 849 0
	jne	.L206
	.loc 1 851 0
	movzwl	16(%ebp), %eax
	pushl	-172(%ebp)
	pushl	%eax
	leal	4(%ebx), %eax
	pushl	%edi
	pushl	%eax
	call	iotx_net_init
.LVL310:
	.loc 1 852 0
	addl	$16, %esp
	testl	%eax, %eax
	movl	%eax, %edx
	jne	.L206
	.loc 1 856 0
	subl	$12, %esp
	movl	%eax, -172(%ebp)
	pushl	%ebx
	call	httpclient_connect
.LVL311:
	.loc 1 857 0
	addl	$16, %esp
	testl	%eax, %eax
	.loc 1 856 0
	movl	%eax, %edi
.LVL312:
	.loc 1 857 0
	movl	-172(%ebp), %edx
	je	.L207
	.loc 1 858 0
	subl	$12, %esp
	pushl	%eax
	pushl	$.LC72
	pushl	$2
	pushl	$858
	pushl	$__FUNCTION__.3906
	call	LITE_syslog
.LVL313:
	.loc 1 859 0
	addl	$20, %esp
	pushl	%ebx
	call	httpclient_close
.LVL314:
	.loc 1 860 0
	addl	$16, %esp
	movl	%edi, %edx
	jmp	.L206
.LVL315:
.L207:
	.loc 1 862 0
	pushl	-176(%ebp)
	pushl	$1
	pushl	%esi
	pushl	%ebx
	movl	%edx, -172(%ebp)
	call	httpclient_send_request
.LVL316:
	.loc 1 863 0
	addl	$16, %esp
	testl	%eax, %eax
	.loc 1 862 0
	movl	%eax, %esi
.LVL317:
	.loc 1 863 0
	movl	-172(%ebp), %edx
	je	.L206
	.loc 1 864 0
	subl	$12, %esp
	pushl	%eax
	pushl	$.LC73
	pushl	$2
	pushl	$864
	pushl	$__FUNCTION__.3906
	call	LITE_syslog
.LVL318:
	.loc 1 865 0
	addl	$20, %esp
	pushl	%ebx
	call	httpclient_close
.LVL319:
	.loc 1 866 0
	addl	$16, %esp
	movl	%esi, %edx
.LVL320:
.L206:
	.loc 1 871 0
	movl	-28(%ebp), %ecx
	xorl	%gs:20, %ecx
	movl	%edx, %eax
	je	.L208
	call	__stack_chk_fail
.LVL321:
.L208:
	leal	-12(%ebp), %esp
	popl	%ebx
	.cfi_restore 3
	popl	%esi
	.cfi_restore 6
	popl	%edi
	.cfi_restore 7
	popl	%ebp
	.cfi_restore 5
	.cfi_def_cfa 4, 4
	ret
	.cfi_endproc
.LFE20:
	.size	iotx_post, .-iotx_post
	.section	.text.unlikely.iotx_post
.LCOLDE78:
	.section	.text.iotx_post
.LHOTE78:
	.section	.rodata.__FUNCTION__.3906,"a",@progbits
	.align 4
	.type	__FUNCTION__.3906, @object
	.size	__FUNCTION__.3906, 10
__FUNCTION__.3906:
	.string	"iotx_post"
	.section	.rodata.__FUNCTION__.3735,"a",@progbits
	.align 4
	.type	__FUNCTION__.3735, @object
	.size	__FUNCTION__.3735, 22
__FUNCTION__.3735:
	.string	"httpclient_parse_host"
	.section	.rodata.__FUNCTION__.3893,"a",@progbits
	.align 4
	.type	__FUNCTION__.3893, @object
	.size	__FUNCTION__.3893, 18
__FUNCTION__.3893:
	.string	"httpclient_common"
	.section	.rodata.__FUNCTION__.3880,"a",@progbits
	.align 4
	.type	__FUNCTION__.3880, @object
	.size	__FUNCTION__.3880, 17
__FUNCTION__.3880:
	.string	"httpclient_close"
	.section	.rodata.__FUNCTION__.3848,"a",@progbits
	.align 4
	.type	__FUNCTION__.3848, @object
	.size	__FUNCTION__.3848, 26
__FUNCTION__.3848:
	.string	"httpclient_response_parse"
	.section	.rodata.__FUNCTION__.3799,"a",@progbits
	.align 4
	.type	__FUNCTION__.3799, @object
	.size	__FUNCTION__.3799, 16
__FUNCTION__.3799:
	.string	"httpclient_recv"
	.section	.rodata.__FUNCTION__.3811,"a",@progbits
	.align 4
	.type	__FUNCTION__.3811, @object
	.size	__FUNCTION__.3811, 28
__FUNCTION__.3811:
	.string	"httpclient_retrieve_content"
	.section	.rodata.__func__.3876,"a",@progbits
	.align 4
	.type	__func__.3876, @object
	.size	__func__.3876, 25
__func__.3876:
	.string	"httpclient_recv_response"
	.section	.rodata.__FUNCTION__.3875,"a",@progbits
	.align 4
	.type	__FUNCTION__.3875, @object
	.size	__FUNCTION__.3875, 25
__FUNCTION__.3875:
	.string	"httpclient_recv_response"
	.section	.rodata.__FUNCTION__.3865,"a",@progbits
	.align 4
	.type	__FUNCTION__.3865, @object
	.size	__FUNCTION__.3865, 24
__FUNCTION__.3865:
	.string	"httpclient_send_request"
	.section	.rodata.__FUNCTION__.3709,"a",@progbits
	.align 4
	.type	__FUNCTION__.3709, @object
	.size	__FUNCTION__.3709, 16
__FUNCTION__.3709:
	.string	"httpclient_conn"
	.section	.rodata.__FUNCTION__.3788,"a",@progbits
	.align 4
	.type	__FUNCTION__.3788, @object
	.size	__FUNCTION__.3788, 25
__FUNCTION__.3788:
	.string	"httpclient_send_userdata"
	.section	.rodata.__FUNCTION__.3726,"a",@progbits
	.align 4
	.type	__FUNCTION__.3726, @object
	.size	__FUNCTION__.3726, 21
__FUNCTION__.3726:
	.string	"httpclient_parse_url"
	.section	.rodata.__func__.3782,"a",@progbits
	.align 4
	.type	__func__.3782, @object
	.size	__func__.3782, 23
__func__.3782:
	.string	"httpclient_send_header"
	.section	.rodata.__FUNCTION__.3781,"a",@progbits
	.align 4
	.type	__FUNCTION__.3781, @object
	.size	__FUNCTION__.3781, 23
__FUNCTION__.3781:
	.string	"httpclient_send_header"
	.section	.rodata.__FUNCTION__.3764,"a",@progbits
	.align 4
	.type	__FUNCTION__.3764, @object
	.size	__FUNCTION__.3764, 21
__FUNCTION__.3764:
	.string	"httpclient_send_auth"
	.text
.Letext0:
	.section	.text.unlikely.httpclient_recv.isra.1
.Letext_cold0:
	.file 2 "/home/stone/Documents/Ali_IOT/build/compiler/gcc-arm-none-eabi/Linux64/arm-none-eabi/include/machine/_default_types.h"
	.file 3 "/home/stone/Documents/Ali_IOT/build/compiler/gcc-arm-none-eabi/Linux64/arm-none-eabi/include/sys/_stdint.h"
	.file 4 "framework/protocol/linkkit/iotkit/base/utils//misc/utils_timer.h"
	.file 5 "./framework/protocol/linkkit/iotkit/base/log/LITE-log/lite-log.h"
	.file 6 "./framework/protocol/linkkit/iotkit/base/utils/exports/iot_export_errno.h"
	.file 7 "framework/protocol/linkkit/iotkit/base/utils//misc/utils_net.h"
	.file 8 "framework/protocol/linkkit/iotkit/base/utils//misc/utils_httpc.h"
	.file 9 "/home/stone/Documents/Ali_IOT/build/compiler/gcc-arm-none-eabi/Linux64/arm-none-eabi/include/stdlib.h"
	.file 10 "/home/stone/Documents/Ali_IOT/build/compiler/gcc-arm-none-eabi/Linux64/arm-none-eabi/include/string.h"
	.file 11 "/home/stone/Documents/Ali_IOT/build/compiler/gcc-arm-none-eabi/Linux64/arm-none-eabi/include/stdio.h"
	.file 12 "./framework/protocol/linkkit/iotkit/sdk-encap/iot_import.h"
	.section	.note.GNU-stack,"",@progbits
