	.file	"utils_net.c"
	.text
.Ltext0:
	.section	.rodata.str1.1,"aMS",@progbits,1
.LC0:
	.string	"sockfd: %d"
.LC1:
	.string	"establish tcp fail, sockfd: %d"
	.section	.text.unlikely.iotx_net_connect,"ax",@progbits
.LCOLDB2:
	.section	.text.iotx_net_connect,"ax",@progbits
.LHOTB2:
	.section	.text.unlikely.iotx_net_connect
.Ltext_cold0:
	.section	.text.iotx_net_connect
	.globl	iotx_net_connect
	.type	iotx_net_connect, @function
iotx_net_connect:
.LFB14:
	.file 1 "framework/protocol/linkkit/iotkit/base/utils//misc/utils_net.c"
	.loc 1 190 0
	.cfi_startproc
.LVL0:
	pushl	%ebp
	.cfi_def_cfa_offset 8
	.cfi_offset 5, -8
	movl	%esp, %ebp
	.cfi_def_cfa_register 5
	pushl	%esi
	pushl	%ebx
	.cfi_offset 6, -12
	.cfi_offset 3, -16
	.loc 1 190 0
	movl	8(%ebp), %ebx
	.loc 1 193 0
	movl	8(%ebx), %ecx
	movzwl	4(%ebx), %edx
	.loc 1 193 0
	testl	%ecx, %ecx
	jne	.L2
.LVL1:
.LBB10:
.LBB11:
	.loc 1 74 0
	pushl	%eax
	pushl	%eax
	pushl	%edx
	pushl	(%ebx)
	call	HAL_TCP_Establish
.LVL2:
	.loc 1 75 0
	movl	%eax, (%esp)
	pushl	$.LC0
	.loc 1 74 0
	movl	%eax, %esi
.LVL3:
	.loc 1 75 0
	pushl	$5
	pushl	$75
	pushl	$__FUNCTION__.3386
	call	LITE_syslog
.LVL4:
	.loc 1 76 0
	addl	$32, %esp
	testl	%esi, %esi
	jns	.L3
	.loc 1 77 0
	subl	$12, %esp
	pushl	%esi
	pushl	$.LC1
	pushl	$5
	pushl	$77
	pushl	$__FUNCTION__.3386
	call	LITE_syslog
.LVL5:
	.loc 1 78 0
	movl	$0, 12(%ebx)
	addl	$32, %esp
	.loc 1 79 0
	orl	$-1, %eax
	jmp	.L4
.L3:
	.loc 1 81 0
	movl	%esi, tcp_fd
	.loc 1 82 0
	movl	%esi, 12(%ebx)
	.loc 1 83 0
	xorl	%eax, %eax
	jmp	.L4
.LVL6:
.L2:
.LBE11:
.LBE10:
.LBB12:
.LBB13:
	.loc 1 128 0
	movzwl	6(%ebx), %eax
	incl	%eax
	pushl	%eax
	pushl	%ecx
	pushl	%edx
	pushl	(%ebx)
	call	HAL_SSL_Establish
.LVL7:
	addl	$16, %esp
	testl	%eax, %eax
	movl	%eax, 12(%ebx)
	sete	%al
	movzbl	%al, %eax
	negl	%eax
.LVL8:
.L4:
.LBE13:
.LBE12:
	.loc 1 208 0
	leal	-8(%ebp), %esp
	popl	%ebx
	.cfi_restore 3
	popl	%esi
	.cfi_restore 6
	popl	%ebp
	.cfi_restore 5
	.cfi_def_cfa 4, 4
	ret
	.cfi_endproc
.LFE14:
	.size	iotx_net_connect, .-iotx_net_connect
	.section	.text.unlikely.iotx_net_connect
.LCOLDE2:
	.section	.text.iotx_net_connect
.LHOTE2:
	.section	.text.unlikely.utils_net_write,"ax",@progbits
.LCOLDB3:
	.section	.text.utils_net_write,"ax",@progbits
.LHOTB3:
	.globl	utils_net_write
	.type	utils_net_write, @function
utils_net_write:
.LFB12:
	.loc 1 160 0
	.cfi_startproc
.LVL9:
	pushl	%ebp
	.cfi_def_cfa_offset 8
	.cfi_offset 5, -8
	movl	%esp, %ebp
	.cfi_def_cfa_register 5
	pushl	%ebx
	.cfi_offset 3, -12
	.loc 1 160 0
	movl	8(%ebp), %eax
	movl	12(%ebp), %edx
	movl	16(%ebp), %ecx
	movl	20(%ebp), %ebx
	.loc 1 163 0
	cmpl	$0, 8(%eax)
	jne	.L8
.LVL10:
.LBB20:
.LBB21:
.LBB22:
.LBB23:
	.loc 1 53 0
	movl	12(%eax), %eax
.LBE23:
.LBE22:
.LBE21:
.LBE20:
	.loc 1 172 0
	popl	%ebx
	.cfi_remember_state
	.cfi_restore 3
.LBB30:
.LBB28:
.LBB26:
.LBB24:
	.loc 1 53 0
	movl	%eax, 8(%ebp)
.LVL11:
.LBE24:
.LBE26:
.LBE28:
.LBE30:
	.loc 1 172 0
	popl	%ebp
	.cfi_restore 5
	.cfi_def_cfa 4, 4
.LBB31:
.LBB29:
.LBB27:
.LBB25:
	.loc 1 53 0
	jmp	HAL_TCP_Write
.LVL12:
.L8:
	.cfi_restore_state
.LBE25:
.LBE27:
.LBE29:
.LBE31:
.LBB32:
.LBB33:
	.loc 1 105 0
	movl	%ebx, 20(%ebp)
	movl	%ecx, 16(%ebp)
	movl	%edx, 12(%ebp)
	movl	12(%eax), %eax
.LVL13:
.LBE33:
.LBE32:
	.loc 1 172 0
	popl	%ebx
	.cfi_restore 3
.LVL14:
.LBB36:
.LBB34:
	.loc 1 105 0
	movl	%eax, 8(%ebp)
.LVL15:
.LBE34:
.LBE36:
	.loc 1 172 0
	popl	%ebp
	.cfi_restore 5
	.cfi_def_cfa 4, 4
.LBB37:
.LBB35:
	.loc 1 105 0
	jmp	HAL_SSL_Write
.LVL16:
.LBE35:
.LBE37:
	.cfi_endproc
.LFE12:
	.size	utils_net_write, .-utils_net_write
	.section	.text.unlikely.utils_net_write
.LCOLDE3:
	.section	.text.utils_net_write
.LHOTE3:
	.section	.text.unlikely.iotx_net_disconnect,"ax",@progbits
.LCOLDB4:
	.section	.text.iotx_net_disconnect,"ax",@progbits
.LHOTB4:
	.globl	iotx_net_disconnect
	.type	iotx_net_disconnect, @function
iotx_net_disconnect:
.LFB13:
	.loc 1 175 0
	.cfi_startproc
.LVL17:
	pushl	%ebp
	.cfi_def_cfa_offset 8
	.cfi_offset 5, -8
	movl	%esp, %ebp
	.cfi_def_cfa_register 5
	pushl	%ebx
	pushl	%eax
	.cfi_offset 3, -12
	.loc 1 175 0
	movl	8(%ebp), %ebx
	.loc 1 178 0
	cmpl	$0, 8(%ebx)
	jne	.L11
.LVL18:
.LBB42:
.LBB43:
	.loc 1 58 0
	movl	12(%ebx), %edx
	.loc 1 59 0
	orl	$-1, %eax
	.loc 1 58 0
	testl	%edx, %edx
	je	.L12
	.loc 1 62 0
	subl	$12, %esp
	pushl	%edx
	call	HAL_TCP_Destroy
.LVL19:
	jmp	.L15
.LVL20:
.L11:
.LBE43:
.LBE42:
.LBB44:
.LBB45:
	.loc 1 115 0
	subl	$12, %esp
	pushl	12(%ebx)
	call	HAL_SSL_Destroy
.LVL21:
.L15:
	.loc 1 116 0
	movl	$0, 12(%ebx)
	addl	$16, %esp
	.loc 1 118 0
	xorl	%eax, %eax
.L12:
.LVL22:
.LBE45:
.LBE44:
	.loc 1 187 0
	movl	-4(%ebp), %ebx
	leave
	.cfi_restore 5
	.cfi_restore 3
	.cfi_def_cfa 4, 4
	ret
	.cfi_endproc
.LFE13:
	.size	iotx_net_disconnect, .-iotx_net_disconnect
	.section	.text.unlikely.iotx_net_disconnect
.LCOLDE4:
	.section	.text.iotx_net_disconnect
.LHOTE4:
	.section	.text.unlikely.get_tcp_fd,"ax",@progbits
.LCOLDB5:
	.section	.text.get_tcp_fd,"ax",@progbits
.LHOTB5:
	.globl	get_tcp_fd
	.type	get_tcp_fd, @function
get_tcp_fd:
.LFB1:
	.loc 1 27 0
	.cfi_startproc
	pushl	%ebp
	.cfi_def_cfa_offset 8
	.cfi_offset 5, -8
	.loc 1 29 0
	movl	tcp_fd, %eax
	.loc 1 27 0
	movl	%esp, %ebp
	.cfi_def_cfa_register 5
	.loc 1 29 0
	popl	%ebp
	.cfi_restore 5
	.cfi_def_cfa 4, 4
	ret
	.cfi_endproc
.LFE1:
	.size	get_tcp_fd, .-get_tcp_fd
	.section	.text.unlikely.get_tcp_fd
.LCOLDE5:
	.section	.text.get_tcp_fd
.LHOTE5:
	.section	.text.unlikely.get_iotx_fd,"ax",@progbits
.LCOLDB6:
	.section	.text.get_iotx_fd,"ax",@progbits
.LHOTB6:
	.globl	get_iotx_fd
	.type	get_iotx_fd, @function
get_iotx_fd:
.LFB2:
	.loc 1 36 0
	.cfi_startproc
	pushl	%ebp
	.cfi_def_cfa_offset 8
	.cfi_offset 5, -8
	movl	%esp, %ebp
	.cfi_def_cfa_register 5
	.loc 1 43 0
	popl	%ebp
	.cfi_restore 5
	.cfi_def_cfa 4, 4
	.loc 1 41 0
	jmp	get_ssl_fd
.LVL23:
	.cfi_endproc
.LFE2:
	.size	get_iotx_fd, .-get_iotx_fd
	.section	.text.unlikely.get_iotx_fd
.LCOLDE6:
	.section	.text.get_iotx_fd
.LHOTE6:
	.section	.text.unlikely.read_tcp,"ax",@progbits
.LCOLDB7:
	.section	.text.read_tcp,"ax",@progbits
.LHOTB7:
	.globl	read_tcp
	.type	read_tcp, @function
read_tcp:
.LFB3:
	.loc 1 46 0
	.cfi_startproc
.LVL24:
	pushl	%ebp
	.cfi_def_cfa_offset 8
	.cfi_offset 5, -8
	movl	%esp, %ebp
	.cfi_def_cfa_register 5
	.loc 1 47 0
	movl	8(%ebp), %eax
	movl	12(%eax), %eax
	movl	%eax, 8(%ebp)
.LVL25:
	.loc 1 48 0
	popl	%ebp
	.cfi_restore 5
	.cfi_def_cfa 4, 4
	.loc 1 47 0
	jmp	HAL_TCP_Read
.LVL26:
	.cfi_endproc
.LFE3:
	.size	read_tcp, .-read_tcp
	.section	.text.unlikely.read_tcp
.LCOLDE7:
	.section	.text.read_tcp
.LHOTE7:
	.section	.text.unlikely.utils_net_read,"ax",@progbits
.LCOLDB8:
	.section	.text.utils_net_read,"ax",@progbits
.LHOTB8:
	.globl	utils_net_read
	.type	utils_net_read, @function
utils_net_read:
.LFB11:
	.loc 1 145 0
	.cfi_startproc
.LVL27:
	pushl	%ebp
	.cfi_def_cfa_offset 8
	.cfi_offset 5, -8
	movl	%esp, %ebp
	.cfi_def_cfa_register 5
	pushl	%ebx
	.cfi_offset 3, -12
	.loc 1 145 0
	movl	8(%ebp), %eax
	movl	12(%ebp), %edx
	movl	16(%ebp), %ecx
	movl	20(%ebp), %ebx
	.loc 1 148 0
	cmpl	$0, 8(%eax)
	jne	.L23
	.loc 1 157 0
	popl	%ebx
	.cfi_remember_state
	.cfi_restore 3
	popl	%ebp
	.cfi_restore 5
	.cfi_def_cfa 4, 4
	.loc 1 149 0
	jmp	read_tcp
.LVL28:
.L23:
	.cfi_restore_state
.LBB48:
.LBB49:
	.loc 1 95 0
	movl	%ebx, 20(%ebp)
	movl	%ecx, 16(%ebp)
	movl	%edx, 12(%ebp)
	movl	12(%eax), %eax
.LVL29:
.LBE49:
.LBE48:
	.loc 1 157 0
	popl	%ebx
	.cfi_restore 3
.LVL30:
.LBB52:
.LBB50:
	.loc 1 95 0
	movl	%eax, 8(%ebp)
.LVL31:
.LBE50:
.LBE52:
	.loc 1 157 0
	popl	%ebp
	.cfi_restore 5
	.cfi_def_cfa 4, 4
.LBB53:
.LBB51:
	.loc 1 95 0
	jmp	HAL_SSL_Read
.LVL32:
.LBE51:
.LBE53:
	.cfi_endproc
.LFE11:
	.size	utils_net_read, .-utils_net_read
	.section	.text.unlikely.utils_net_read
.LCOLDE8:
	.section	.text.utils_net_read
.LHOTE8:
	.section	.rodata.str1.1
.LC9:
	.string	"parameter error! pNetwork=%p, host = %p"
	.section	.text.unlikely.iotx_net_init,"ax",@progbits
.LCOLDB10:
	.section	.text.iotx_net_init,"ax",@progbits
.LHOTB10:
	.globl	iotx_net_init
	.type	iotx_net_init, @function
iotx_net_init:
.LFB15:
	.loc 1 211 0
	.cfi_startproc
.LVL33:
	pushl	%ebp
	.cfi_def_cfa_offset 8
	.cfi_offset 5, -8
	movl	%esp, %ebp
	.cfi_def_cfa_register 5
	pushl	%edi
	pushl	%ebx
	.cfi_offset 7, -12
	.cfi_offset 3, -16
	.loc 1 211 0
	movl	8(%ebp), %edx
	movl	12(%ebp), %ecx
	movl	16(%ebp), %ebx
	movl	20(%ebp), %edi
	.loc 1 212 0
	testl	%edx, %edx
	je	.L31
	testl	%ecx, %ecx
	sete	%al
	jne	.L26
.L31:
	.loc 1 213 0
	pushl	%eax
	pushl	%eax
	pushl	%ecx
	pushl	%edx
	pushl	$.LC9
	pushl	$2
	pushl	$213
	pushl	$__FUNCTION__.3438
	call	LITE_syslog
.LVL34:
	.loc 1 214 0
	addl	$32, %esp
	orl	$-1, %eax
	jmp	.L28
.LVL35:
.L26:
	.loc 1 220 0
	testl	%edi, %edi
	.loc 1 216 0
	movl	%ecx, (%edx)
	.loc 1 217 0
	movw	%bx, 4(%edx)
	.loc 1 218 0
	movl	%edi, 8(%edx)
	.loc 1 220 0
	jne	.L29
.LVL36:
	.loc 1 221 0
	movw	$0, 6(%edx)
	jmp	.L30
.L29:
	.loc 1 223 0
	orl	$-1, %ecx
.LVL37:
	repnz scasb
.LVL38:
	notl	%ecx
	decl	%ecx
	movw	%cx, 6(%edx)
.L30:
	.loc 1 226 0
	movl	$0, 12(%edx)
	.loc 1 227 0
	movl	$utils_net_read, 16(%edx)
	.loc 1 232 0
	xorl	%eax, %eax
	.loc 1 228 0
	movl	$utils_net_write, 20(%edx)
	.loc 1 229 0
	movl	$iotx_net_disconnect, 24(%edx)
	.loc 1 230 0
	movl	$iotx_net_connect, 28(%edx)
.LVL39:
.L28:
	.loc 1 233 0
	leal	-8(%ebp), %esp
	popl	%ebx
	.cfi_restore 3
	popl	%edi
	.cfi_restore 7
	popl	%ebp
	.cfi_restore 5
	.cfi_def_cfa 4, 4
	ret
	.cfi_endproc
.LFE15:
	.size	iotx_net_init, .-iotx_net_init
	.section	.text.unlikely.iotx_net_init
.LCOLDE10:
	.section	.text.iotx_net_init
.LHOTE10:
	.section	.rodata.__FUNCTION__.3438,"a",@progbits
	.align 4
	.type	__FUNCTION__.3438, @object
	.size	__FUNCTION__.3438, 14
__FUNCTION__.3438:
	.string	"iotx_net_init"
	.section	.rodata.__FUNCTION__.3386,"a",@progbits
	.align 4
	.type	__FUNCTION__.3386, @object
	.size	__FUNCTION__.3386, 12
__FUNCTION__.3386:
	.string	"connect_tcp"
	.section	.data.tcp_fd,"aw",@progbits
	.align 4
	.type	tcp_fd, @object
	.size	tcp_fd, 4
tcp_fd:
	.long	-1
	.text
.Letext0:
	.section	.text.unlikely.iotx_net_connect
.Letext_cold0:
	.file 2 "/home/stone/Documents/Ali_IOT/build/compiler/gcc-arm-none-eabi/Linux64/arm-none-eabi/include/machine/_default_types.h"
	.file 3 "/home/stone/Documents/Ali_IOT/build/compiler/gcc-arm-none-eabi/Linux64/arm-none-eabi/include/sys/_stdint.h"
	.file 4 "framework/protocol/linkkit/iotkit/base/utils//misc/utils_net.h"
	.file 5 "./framework/protocol/linkkit/iotkit/sdk-encap/iot_import.h"
	.file 6 "./framework/protocol/linkkit/iotkit/base/log/LITE-log/lite-log.h"
	.section	.note.GNU-stack,"",@progbits
