	.file	"vfs.c"
	.text
.Ltext0:
	.section	.text.unlikely.vfs_init,"ax",@progbits
.LCOLDB0:
	.section	.text.vfs_init,"ax",@progbits
.LHOTB0:
	.section	.text.unlikely.vfs_init
.Ltext_cold0:
	.section	.text.vfs_init
	.globl	vfs_init
	.type	vfs_init, @function
vfs_init:
.LFB23:
	.file 1 "kernel/vfs/vfs.c"
	.loc 1 28 0
	.cfi_startproc
.LVL0:
	pushl	%ebp
	.cfi_def_cfa_offset 8
	.cfi_offset 5, -8
	movl	%esp, %ebp
	.cfi_def_cfa_register 5
	pushl	%ebx
	.cfi_offset 3, -12
	.loc 1 32 0
	xorl	%ebx, %ebx
	.loc 1 28 0
	pushl	%eax
	.loc 1 31 0
	cmpb	$1, g_vfs_init
	je	.L2
	.loc 1 35 0
	subl	$12, %esp
	pushl	$g_vfs_mutex
	call	aos_mutex_new
.LVL1:
	addl	$16, %esp
	testl	%eax, %eax
	movl	%eax, %ebx
	jne	.L2
	.loc 1 39 0
	call	inode_init
.LVL2:
	.loc 1 41 0
	movb	$1, g_vfs_init
.LVL3:
.L2:
	.loc 1 44 0
	movl	%ebx, %eax
	movl	-4(%ebp), %ebx
	leave
	.cfi_restore 5
	.cfi_restore 3
	.cfi_def_cfa 4, 4
	ret
	.cfi_endproc
.LFE23:
	.size	vfs_init, .-vfs_init
	.section	.text.unlikely.vfs_init
.LCOLDE0:
	.section	.text.vfs_init
.LHOTE0:
	.section	.text.unlikely.aos_open,"ax",@progbits
.LCOLDB1:
	.section	.text.aos_open,"ax",@progbits
.LHOTB1:
	.globl	aos_open
	.type	aos_open, @function
aos_open:
.LFB24:
	.loc 1 47 0
	.cfi_startproc
.LVL4:
	pushl	%ebp
	.cfi_def_cfa_offset 8
	.cfi_offset 5, -8
	movl	%esp, %ebp
	.cfi_def_cfa_register 5
	pushl	%edi
	pushl	%esi
	pushl	%ebx
	subl	$28, %esp
	.cfi_offset 7, -12
	.cfi_offset 6, -16
	.cfi_offset 3, -20
	.loc 1 47 0
	movl	8(%ebp), %ebx
	movl	12(%ebp), %eax
	.loc 1 53 0
	testl	%ebx, %ebx
	.loc 1 47 0
	movl	%eax, -28(%ebp)
	.loc 1 53 0
	je	.L13
	.loc 1 57 0
	xorl	%eax, %eax
	orl	$-1, %ecx
	movl	%ebx, %edi
	repnz scasb
.LVL5:
	notl	%ecx
	decl	%ecx
.LVL6:
	.loc 1 58 0
	cmpl	$4096, %ecx
	ja	.L14
	.loc 1 62 0
	pushl	%esi
	pushl	%esi
	pushl	$-1
	pushl	$g_vfs_mutex
	call	aos_mutex_lock
.LVL7:
	addl	$16, %esp
	testl	%eax, %eax
	jne	.L8
	.loc 1 66 0
	subl	$12, %esp
	pushl	%ebx
	call	inode_open
.LVL8:
	.loc 1 68 0
	addl	$16, %esp
	testl	%eax, %eax
	.loc 1 66 0
	movl	%eax, %edi
.LVL9:
	.loc 1 68 0
	jne	.L9
	.loc 1 69 0
	subl	$12, %esp
	pushl	$g_vfs_mutex
	call	aos_mutex_unlock
.LVL10:
	.loc 1 74 0
	addl	$16, %esp
	movl	$-2, %eax
	jmp	.L8
.LVL11:
.L9:
	.loc 1 78 0
	movl	-28(%ebp), %eax
.LVL12:
	.loc 1 79 0
	subl	$12, %esp
	.loc 1 78 0
	movl	%eax, 12(%edi)
	.loc 1 79 0
	pushl	%edi
	call	new_file
.LVL13:
	movl	%eax, %esi
.LVL14:
	.loc 1 81 0
	movl	$g_vfs_mutex, (%esp)
	call	aos_mutex_unlock
.LVL15:
	.loc 1 83 0
	addl	$16, %esp
	testl	%esi, %esi
	je	.L16
	.loc 1 87 0
	cmpb	$3, 16(%edi)
	.loc 1 88 0
	movl	(%edi), %eax
	movl	(%eax), %eax
	.loc 1 87 0
	jne	.L10
	.loc 1 88 0
	testl	%eax, %eax
	je	.L11
	.loc 1 89 0
	pushl	%ecx
	pushl	-28(%ebp)
	pushl	%ebx
	pushl	%esi
	jmp	.L27
.L10:
	.loc 1 93 0
	testl	%eax, %eax
	je	.L11
	.loc 1 94 0
	pushl	%edx
	pushl	%edx
	pushl	%esi
	pushl	%edi
.L27:
	call	*%eax
.LVL16:
	addl	$16, %esp
	.loc 1 98 0
	testl	%eax, %eax
	movl	%eax, -28(%ebp)
	je	.L11
	.loc 1 99 0
	subl	$12, %esp
	pushl	%esi
	call	del_file
.LVL17:
	.loc 1 100 0
	addl	$16, %esp
	movl	-28(%ebp), %eax
	jmp	.L8
.LVL18:
.L11:
	.loc 1 103 0
	movl	%esi, 8(%ebp)
	.loc 1 104 0
	leal	-12(%ebp), %esp
	popl	%ebx
	.cfi_remember_state
	.cfi_restore 3
	popl	%esi
	.cfi_restore 6
.LVL19:
	popl	%edi
	.cfi_restore 7
.LVL20:
	popl	%ebp
	.cfi_restore 5
	.cfi_def_cfa 4, 4
	.loc 1 103 0
	jmp	get_fd
.LVL21:
.L13:
	.cfi_restore_state
	.loc 1 54 0
	movl	$-22, %eax
	jmp	.L8
.LVL22:
.L14:
	.loc 1 59 0
	movl	$-91, %eax
	jmp	.L8
.LVL23:
.L16:
	.loc 1 84 0
	movl	$-23, %eax
.LVL24:
.L8:
	.loc 1 104 0
	leal	-12(%ebp), %esp
	popl	%ebx
	.cfi_restore 3
	popl	%esi
	.cfi_restore 6
	popl	%edi
	.cfi_restore 7
	popl	%ebp
	.cfi_restore 5
	.cfi_def_cfa 4, 4
	ret
	.cfi_endproc
.LFE24:
	.size	aos_open, .-aos_open
	.section	.text.unlikely.aos_open
.LCOLDE1:
	.section	.text.aos_open
.LHOTE1:
	.section	.text.unlikely.aos_close,"ax",@progbits
.LCOLDB2:
	.section	.text.aos_close,"ax",@progbits
.LHOTB2:
	.globl	aos_close
	.type	aos_close, @function
aos_close:
.LFB25:
	.loc 1 107 0
	.cfi_startproc
.LVL25:
	pushl	%ebp
	.cfi_def_cfa_offset 8
	.cfi_offset 5, -8
	movl	%esp, %ebp
	.cfi_def_cfa_register 5
	pushl	%esi
	pushl	%ebx
	.cfi_offset 6, -12
	.cfi_offset 3, -16
	.loc 1 118 0
	movl	$-2, %ebx
	.loc 1 112 0
	subl	$12, %esp
	pushl	8(%ebp)
	call	get_file
.LVL26:
	.loc 1 114 0
	addl	$16, %esp
	testl	%eax, %eax
	je	.L29
	movl	%eax, %esi
	.loc 1 122 0
	movl	(%eax), %eax
.LVL27:
	.loc 1 125 0
	movl	(%eax), %eax
.LVL28:
	movl	4(%eax), %eax
	.loc 1 131 0
	testl	%eax, %eax
	je	.L31
	.loc 1 132 0
	subl	$12, %esp
	pushl	%esi
.LVL29:
	call	*%eax
.LVL30:
	addl	$16, %esp
.L31:
	.loc 1 136 0
	pushl	%eax
	pushl	%eax
	pushl	$-1
	pushl	$g_vfs_mutex
	call	aos_mutex_lock
.LVL31:
	addl	$16, %esp
	testl	%eax, %eax
	movl	%eax, %ebx
	jne	.L29
	.loc 1 140 0
	subl	$12, %esp
	pushl	%esi
	call	del_file
.LVL32:
	.loc 1 142 0
	movl	$g_vfs_mutex, (%esp)
	call	aos_mutex_unlock
.LVL33:
	.loc 1 144 0
	addl	$16, %esp
.LVL34:
.L29:
	.loc 1 145 0
	leal	-8(%ebp), %esp
	movl	%ebx, %eax
	popl	%ebx
	.cfi_restore 3
	popl	%esi
	.cfi_restore 6
	popl	%ebp
	.cfi_restore 5
	.cfi_def_cfa 4, 4
	ret
	.cfi_endproc
.LFE25:
	.size	aos_close, .-aos_close
	.section	.text.unlikely.aos_close
.LCOLDE2:
	.section	.text.aos_close
.LHOTE2:
	.section	.text.unlikely.aos_read,"ax",@progbits
.LCOLDB3:
	.section	.text.aos_read,"ax",@progbits
.LHOTB3:
	.globl	aos_read
	.type	aos_read, @function
aos_read:
.LFB26:
	.loc 1 148 0
	.cfi_startproc
.LVL35:
	pushl	%ebp
	.cfi_def_cfa_offset 8
	.cfi_offset 5, -8
	movl	%esp, %ebp
	.cfi_def_cfa_register 5
	pushl	%esi
	pushl	%ebx
	.cfi_offset 6, -12
	.cfi_offset 3, -16
	.loc 1 148 0
	movl	16(%ebp), %esi
	movl	12(%ebp), %ebx
	.loc 1 153 0
	subl	$12, %esp
	pushl	8(%ebp)
	call	get_file
.LVL36:
	.loc 1 155 0
	addl	$16, %esp
	testl	%eax, %eax
	je	.L46
	.loc 1 163 0
	movl	(%eax), %edx
.LVL37:
	.loc 1 166 0
	movl	(%edx), %edx
.LVL38:
	movl	8(%edx), %edx
	.loc 1 170 0
	testl	%edx, %edx
	je	.L48
	.loc 1 171 0
	movl	%esi, 16(%ebp)
.LVL39:
	movl	%ebx, 12(%ebp)
	movl	%eax, 8(%ebp)
	.loc 1 176 0
	leal	-8(%ebp), %esp
	popl	%ebx
	.cfi_remember_state
	.cfi_restore 3
	popl	%esi
	.cfi_restore 6
	popl	%ebp
	.cfi_restore 5
	.cfi_def_cfa 4, 4
	.loc 1 171 0
	jmp	*%edx
.LVL40:
.L46:
	.cfi_restore_state
	.loc 1 159 0
	movl	$-2, %eax
.LVL41:
	jmp	.L44
.LVL42:
.L48:
	.loc 1 149 0
	orl	$-1, %eax
.LVL43:
.L44:
	.loc 1 176 0
	leal	-8(%ebp), %esp
	popl	%ebx
	.cfi_restore 3
	popl	%esi
	.cfi_restore 6
	popl	%ebp
	.cfi_restore 5
	.cfi_def_cfa 4, 4
	ret
	.cfi_endproc
.LFE26:
	.size	aos_read, .-aos_read
	.section	.text.unlikely.aos_read
.LCOLDE3:
	.section	.text.aos_read
.LHOTE3:
	.section	.text.unlikely.aos_write,"ax",@progbits
.LCOLDB4:
	.section	.text.aos_write,"ax",@progbits
.LHOTB4:
	.globl	aos_write
	.type	aos_write, @function
aos_write:
.LFB27:
	.loc 1 179 0
	.cfi_startproc
.LVL44:
	pushl	%ebp
	.cfi_def_cfa_offset 8
	.cfi_offset 5, -8
	movl	%esp, %ebp
	.cfi_def_cfa_register 5
	pushl	%esi
	pushl	%ebx
	.cfi_offset 6, -12
	.cfi_offset 3, -16
	.loc 1 179 0
	movl	16(%ebp), %esi
	movl	12(%ebp), %ebx
	.loc 1 184 0
	subl	$12, %esp
	pushl	8(%ebp)
	call	get_file
.LVL45:
	.loc 1 186 0
	addl	$16, %esp
	testl	%eax, %eax
	je	.L55
	.loc 1 194 0
	movl	(%eax), %edx
.LVL46:
	.loc 1 197 0
	movl	(%edx), %edx
.LVL47:
	movl	12(%edx), %edx
	.loc 1 201 0
	testl	%edx, %edx
	je	.L57
	.loc 1 202 0
	movl	%esi, 16(%ebp)
.LVL48:
	movl	%ebx, 12(%ebp)
	movl	%eax, 8(%ebp)
	.loc 1 207 0
	leal	-8(%ebp), %esp
	popl	%ebx
	.cfi_remember_state
	.cfi_restore 3
	popl	%esi
	.cfi_restore 6
	popl	%ebp
	.cfi_restore 5
	.cfi_def_cfa 4, 4
	.loc 1 202 0
	jmp	*%edx
.LVL49:
.L55:
	.cfi_restore_state
	.loc 1 190 0
	movl	$-2, %eax
.LVL50:
	jmp	.L53
.LVL51:
.L57:
	.loc 1 180 0
	orl	$-1, %eax
.LVL52:
.L53:
	.loc 1 207 0
	leal	-8(%ebp), %esp
	popl	%ebx
	.cfi_restore 3
	popl	%esi
	.cfi_restore 6
	popl	%ebp
	.cfi_restore 5
	.cfi_def_cfa 4, 4
	ret
	.cfi_endproc
.LFE27:
	.size	aos_write, .-aos_write
	.section	.text.unlikely.aos_write
.LCOLDE4:
	.section	.text.aos_write
.LHOTE4:
	.section	.text.unlikely.aos_ioctl,"ax",@progbits
.LCOLDB5:
	.section	.text.aos_ioctl,"ax",@progbits
.LHOTB5:
	.globl	aos_ioctl
	.type	aos_ioctl, @function
aos_ioctl:
.LFB28:
	.loc 1 210 0
	.cfi_startproc
.LVL53:
	pushl	%ebp
	.cfi_def_cfa_offset 8
	.cfi_offset 5, -8
	movl	%esp, %ebp
	.cfi_def_cfa_register 5
	pushl	%esi
	pushl	%ebx
	.cfi_offset 6, -12
	.cfi_offset 3, -16
	.loc 1 210 0
	movl	8(%ebp), %eax
	movl	12(%ebp), %ebx
	movl	16(%ebp), %esi
	.loc 1 215 0
	testl	%eax, %eax
	js	.L64
	.loc 1 219 0
	subl	$12, %esp
	pushl	%eax
	call	get_file
.LVL54:
	.loc 1 221 0
	addl	$16, %esp
	testl	%eax, %eax
	je	.L65
	.loc 1 225 0
	movl	(%eax), %edx
.LVL55:
	.loc 1 227 0
	cmpb	$3, 16(%edx)
	.loc 1 228 0
	movl	(%edx), %edx
.LVL56:
	.loc 1 227 0
	jne	.L63
	.loc 1 228 0
	movl	52(%edx), %edx
	jmp	.L71
.L63:
	.loc 1 232 0
	movl	16(%edx), %edx
.L71:
	testl	%edx, %edx
	je	.L67
	.loc 1 233 0
	movl	%esi, 16(%ebp)
.LVL57:
	movl	%ebx, 12(%ebp)
	movl	%eax, 8(%ebp)
	.loc 1 238 0
	leal	-8(%ebp), %esp
	popl	%ebx
	.cfi_remember_state
	.cfi_restore 3
	popl	%esi
	.cfi_restore 6
	popl	%ebp
	.cfi_restore 5
	.cfi_def_cfa 4, 4
	.loc 1 233 0
	jmp	*%edx
.LVL58:
.L64:
	.cfi_restore_state
	.loc 1 216 0
	movl	$-22, %eax
.LVL59:
	jmp	.L62
.LVL60:
.L65:
	.loc 1 222 0
	movl	$-2, %eax
.LVL61:
	jmp	.L62
.LVL62:
.L67:
	.loc 1 211 0
	movl	$-88, %eax
.LVL63:
.L62:
	.loc 1 238 0
	leal	-8(%ebp), %esp
	popl	%ebx
	.cfi_restore 3
	popl	%esi
	.cfi_restore 6
	popl	%ebp
	.cfi_restore 5
	.cfi_def_cfa 4, 4
	ret
	.cfi_endproc
.LFE28:
	.size	aos_ioctl, .-aos_ioctl
	.section	.text.unlikely.aos_ioctl
.LCOLDE5:
	.section	.text.aos_ioctl
.LHOTE5:
	.section	.text.unlikely.aos_lseek,"ax",@progbits
.LCOLDB6:
	.section	.text.aos_lseek,"ax",@progbits
.LHOTB6:
	.globl	aos_lseek
	.type	aos_lseek, @function
aos_lseek:
.LFB29:
	.loc 1 241 0
	.cfi_startproc
.LVL64:
	pushl	%ebp
	.cfi_def_cfa_offset 8
	.cfi_offset 5, -8
	movl	%esp, %ebp
	.cfi_def_cfa_register 5
	pushl	%esi
	pushl	%ebx
	.cfi_offset 6, -12
	.cfi_offset 3, -16
	.loc 1 241 0
	movl	16(%ebp), %esi
	movl	12(%ebp), %ebx
	.loc 1 246 0
	subl	$12, %esp
	pushl	8(%ebp)
	call	get_file
.LVL65:
	.loc 1 248 0
	addl	$16, %esp
	testl	%eax, %eax
	je	.L74
	.loc 1 252 0
	movl	(%eax), %edx
.LVL66:
	.loc 1 254 0
	cmpb	$3, 16(%edx)
	jne	.L76
	.loc 1 255 0
	movl	(%edx), %edx
.LVL67:
	movl	16(%edx), %edx
	testl	%edx, %edx
	je	.L76
	.loc 1 256 0
	movl	%esi, 16(%ebp)
.LVL68:
	movl	%ebx, 12(%ebp)
	movl	%eax, 8(%ebp)
	.loc 1 261 0
	leal	-8(%ebp), %esp
	popl	%ebx
	.cfi_remember_state
	.cfi_restore 3
	popl	%esi
	.cfi_restore 6
	popl	%ebp
	.cfi_restore 5
	.cfi_def_cfa 4, 4
	.loc 1 256 0
	jmp	*%edx
.LVL69:
.L74:
	.cfi_restore_state
	.loc 1 249 0
	movl	$-2, %eax
.LVL70:
	jmp	.L73
.LVL71:
.L76:
	.loc 1 244 0
	movl	$-88, %eax
.LVL72:
.L73:
	.loc 1 261 0
	leal	-8(%ebp), %esp
	popl	%ebx
	.cfi_restore 3
	popl	%esi
	.cfi_restore 6
	popl	%ebp
	.cfi_restore 5
	.cfi_def_cfa 4, 4
	ret
	.cfi_endproc
.LFE29:
	.size	aos_lseek, .-aos_lseek
	.section	.text.unlikely.aos_lseek
.LCOLDE6:
	.section	.text.aos_lseek
.LHOTE6:
	.section	.text.unlikely.aos_sync,"ax",@progbits
.LCOLDB7:
	.section	.text.aos_sync,"ax",@progbits
.LHOTB7:
	.globl	aos_sync
	.type	aos_sync, @function
aos_sync:
.LFB30:
	.loc 1 264 0
	.cfi_startproc
.LVL73:
	pushl	%ebp
	.cfi_def_cfa_offset 8
	.cfi_offset 5, -8
	movl	%esp, %ebp
	.cfi_def_cfa_register 5
	subl	$20, %esp
	.loc 1 269 0
	pushl	8(%ebp)
	call	get_file
.LVL74:
	.loc 1 271 0
	addl	$16, %esp
	testl	%eax, %eax
	je	.L80
	.loc 1 275 0
	movl	(%eax), %edx
.LVL75:
	.loc 1 277 0
	cmpb	$3, 16(%edx)
	jne	.L82
	.loc 1 278 0
	movl	(%edx), %edx
.LVL76:
	movl	20(%edx), %edx
	testl	%edx, %edx
	je	.L82
	.loc 1 279 0
	movl	%eax, 8(%ebp)
.LVL77:
	.loc 1 284 0
	leave
	.cfi_remember_state
	.cfi_restore 5
	.cfi_def_cfa 4, 4
	.loc 1 279 0
	jmp	*%edx
.LVL78:
.L80:
	.cfi_restore_state
	.loc 1 272 0
	movl	$-2, %eax
.LVL79:
	jmp	.L79
.LVL80:
.L82:
	.loc 1 267 0
	movl	$-88, %eax
.LVL81:
.L79:
	.loc 1 284 0
	leave
	.cfi_restore 5
	.cfi_def_cfa 4, 4
	ret
	.cfi_endproc
.LFE30:
	.size	aos_sync, .-aos_sync
	.section	.text.unlikely.aos_sync
.LCOLDE7:
	.section	.text.aos_sync
.LHOTE7:
	.section	.text.unlikely.aos_stat,"ax",@progbits
.LCOLDB8:
	.section	.text.aos_stat,"ax",@progbits
.LHOTB8:
	.globl	aos_stat
	.type	aos_stat, @function
aos_stat:
.LFB31:
	.loc 1 287 0
	.cfi_startproc
.LVL82:
	pushl	%ebp
	.cfi_def_cfa_offset 8
	.cfi_offset 5, -8
	.loc 1 293 0
	movl	$-22, %eax
	.loc 1 287 0
	movl	%esp, %ebp
	.cfi_def_cfa_register 5
	pushl	%edi
	pushl	%esi
	pushl	%ebx
	subl	$28, %esp
	.cfi_offset 7, -12
	.cfi_offset 6, -16
	.cfi_offset 3, -20
	.loc 1 287 0
	movl	8(%ebp), %esi
	.loc 1 292 0
	testl	%esi, %esi
	je	.L85
	.loc 1 296 0
	pushl	%ecx
	pushl	%ecx
	pushl	$-1
	pushl	$g_vfs_mutex
	call	aos_mutex_lock
.LVL83:
	addl	$16, %esp
	testl	%eax, %eax
	jne	.L85
	.loc 1 300 0
	subl	$12, %esp
	pushl	%esi
	call	inode_open
.LVL84:
	.loc 1 302 0
	addl	$16, %esp
	testl	%eax, %eax
	jne	.L86
	.loc 1 303 0
	subl	$12, %esp
	pushl	$g_vfs_mutex
	call	aos_mutex_unlock
.LVL85:
	.loc 1 304 0
	addl	$16, %esp
	movl	$-19, %eax
	jmp	.L85
.LVL86:
.L86:
	.loc 1 307 0
	subl	$12, %esp
	movl	%eax, -28(%ebp)
	pushl	%eax
	call	new_file
.LVL87:
	movl	%eax, %ebx
.LVL88:
	.loc 1 309 0
	movl	$g_vfs_mutex, (%esp)
	call	aos_mutex_unlock
.LVL89:
	.loc 1 311 0
	addl	$16, %esp
	testl	%ebx, %ebx
	.loc 1 312 0
	movl	$-2, %eax
	.loc 1 311 0
	je	.L85
	.loc 1 315 0
	movl	-28(%ebp), %edx
	.loc 1 290 0
	movl	$-88, %edi
	.loc 1 315 0
	cmpb	$3, 16(%edx)
	jne	.L87
	.loc 1 316 0
	movl	(%edx), %eax
	movl	24(%eax), %eax
	testl	%eax, %eax
	je	.L87
	.loc 1 317 0
	pushl	%edx
	pushl	12(%ebp)
	pushl	%esi
	pushl	%ebx
	call	*%eax
.LVL90:
	addl	$16, %esp
	movl	%eax, %edi
.LVL91:
.L87:
	.loc 1 321 0
	pushl	%eax
	pushl	%eax
	pushl	$-1
	pushl	$g_vfs_mutex
	call	aos_mutex_lock
.LVL92:
	addl	$16, %esp
	testl	%eax, %eax
	jne	.L85
	.loc 1 325 0
	subl	$12, %esp
	pushl	%ebx
	call	del_file
.LVL93:
	.loc 1 327 0
	movl	$g_vfs_mutex, (%esp)
	call	aos_mutex_unlock
.LVL94:
	.loc 1 328 0
	addl	$16, %esp
	movl	%edi, %eax
.LVL95:
.L85:
	.loc 1 329 0
	leal	-12(%ebp), %esp
	popl	%ebx
	.cfi_restore 3
	popl	%esi
	.cfi_restore 6
	popl	%edi
	.cfi_restore 7
	popl	%ebp
	.cfi_restore 5
	.cfi_def_cfa 4, 4
	ret
	.cfi_endproc
.LFE31:
	.size	aos_stat, .-aos_stat
	.section	.text.unlikely.aos_stat
.LCOLDE8:
	.section	.text.aos_stat
.LHOTE8:
	.section	.text.unlikely.aos_unlink,"ax",@progbits
.LCOLDB9:
	.section	.text.aos_unlink,"ax",@progbits
.LHOTB9:
	.globl	aos_unlink
	.type	aos_unlink, @function
aos_unlink:
.LFB32:
	.loc 1 332 0
	.cfi_startproc
.LVL96:
	pushl	%ebp
	.cfi_def_cfa_offset 8
	.cfi_offset 5, -8
	.loc 1 338 0
	movl	$-22, %eax
	.loc 1 332 0
	movl	%esp, %ebp
	.cfi_def_cfa_register 5
	pushl	%edi
	pushl	%esi
	pushl	%ebx
	subl	$28, %esp
	.cfi_offset 7, -12
	.cfi_offset 6, -16
	.cfi_offset 3, -20
	.loc 1 332 0
	movl	8(%ebp), %esi
	.loc 1 337 0
	testl	%esi, %esi
	je	.L96
	.loc 1 341 0
	pushl	%ecx
	pushl	%ecx
	pushl	$-1
	pushl	$g_vfs_mutex
	call	aos_mutex_lock
.LVL97:
	addl	$16, %esp
	testl	%eax, %eax
	jne	.L96
	.loc 1 345 0
	subl	$12, %esp
	pushl	%esi
	call	inode_open
.LVL98:
	.loc 1 347 0
	addl	$16, %esp
	testl	%eax, %eax
	jne	.L97
	.loc 1 348 0
	subl	$12, %esp
	pushl	$g_vfs_mutex
	call	aos_mutex_unlock
.LVL99:
	.loc 1 349 0
	addl	$16, %esp
	movl	$-19, %eax
	jmp	.L96
.LVL100:
.L97:
	.loc 1 352 0
	subl	$12, %esp
	movl	%eax, -28(%ebp)
	pushl	%eax
	call	new_file
.LVL101:
	movl	%eax, %ebx
.LVL102:
	.loc 1 354 0
	movl	$g_vfs_mutex, (%esp)
	call	aos_mutex_unlock
.LVL103:
	.loc 1 356 0
	addl	$16, %esp
	testl	%ebx, %ebx
	.loc 1 357 0
	movl	$-2, %eax
	.loc 1 356 0
	je	.L96
	.loc 1 360 0
	movl	-28(%ebp), %edx
	.loc 1 335 0
	movl	$-88, %edi
	.loc 1 360 0
	cmpb	$3, 16(%edx)
	jne	.L98
	.loc 1 361 0
	movl	(%edx), %eax
	movl	28(%eax), %eax
	testl	%eax, %eax
	je	.L98
	.loc 1 362 0
	pushl	%edx
	pushl	%edx
	pushl	%esi
	pushl	%ebx
	call	*%eax
.LVL104:
	addl	$16, %esp
	movl	%eax, %edi
.LVL105:
.L98:
	.loc 1 366 0
	pushl	%eax
	pushl	%eax
	pushl	$-1
	pushl	$g_vfs_mutex
	call	aos_mutex_lock
.LVL106:
	addl	$16, %esp
	testl	%eax, %eax
	jne	.L96
	.loc 1 370 0
	subl	$12, %esp
	pushl	%ebx
	call	del_file
.LVL107:
	.loc 1 372 0
	movl	$g_vfs_mutex, (%esp)
	call	aos_mutex_unlock
.LVL108:
	.loc 1 373 0
	addl	$16, %esp
	movl	%edi, %eax
.LVL109:
.L96:
	.loc 1 374 0
	leal	-12(%ebp), %esp
	popl	%ebx
	.cfi_restore 3
	popl	%esi
	.cfi_restore 6
	popl	%edi
	.cfi_restore 7
	popl	%ebp
	.cfi_restore 5
	.cfi_def_cfa 4, 4
	ret
	.cfi_endproc
.LFE32:
	.size	aos_unlink, .-aos_unlink
	.section	.text.unlikely.aos_unlink
.LCOLDE9:
	.section	.text.aos_unlink
.LHOTE9:
	.section	.text.unlikely.aos_rename,"ax",@progbits
.LCOLDB10:
	.section	.text.aos_rename,"ax",@progbits
.LHOTB10:
	.globl	aos_rename
	.type	aos_rename, @function
aos_rename:
.LFB33:
	.loc 1 377 0
	.cfi_startproc
.LVL110:
	pushl	%ebp
	.cfi_def_cfa_offset 8
	.cfi_offset 5, -8
	movl	%esp, %ebp
	.cfi_def_cfa_register 5
	pushl	%edi
	pushl	%esi
	pushl	%ebx
	subl	$28, %esp
	.cfi_offset 7, -12
	.cfi_offset 6, -16
	.cfi_offset 3, -20
	.loc 1 377 0
	movl	8(%ebp), %esi
	.loc 1 382 0
	testl	%esi, %esi
	je	.L110
	cmpl	$0, 12(%ebp)
	je	.L110
	.loc 1 386 0
	pushl	%ecx
	pushl	%ecx
	pushl	$-1
	pushl	$g_vfs_mutex
	call	aos_mutex_lock
.LVL111:
	addl	$16, %esp
	testl	%eax, %eax
	jne	.L107
	.loc 1 390 0
	subl	$12, %esp
	pushl	%esi
	call	inode_open
.LVL112:
	.loc 1 392 0
	addl	$16, %esp
	testl	%eax, %eax
	jne	.L108
	.loc 1 393 0
	subl	$12, %esp
	pushl	$g_vfs_mutex
	call	aos_mutex_unlock
.LVL113:
	.loc 1 394 0
	addl	$16, %esp
	movl	$-19, %eax
	jmp	.L107
.LVL114:
.L108:
	.loc 1 397 0
	subl	$12, %esp
	movl	%eax, -28(%ebp)
	pushl	%eax
	call	new_file
.LVL115:
	movl	%eax, %ebx
.LVL116:
	.loc 1 399 0
	movl	$g_vfs_mutex, (%esp)
	call	aos_mutex_unlock
.LVL117:
	.loc 1 401 0
	addl	$16, %esp
	testl	%ebx, %ebx
	.loc 1 402 0
	movl	$-2, %eax
	.loc 1 401 0
	je	.L107
	.loc 1 405 0
	movl	-28(%ebp), %edx
	.loc 1 380 0
	movl	$-88, %edi
	.loc 1 405 0
	cmpb	$3, 16(%edx)
	jne	.L109
	.loc 1 406 0
	movl	(%edx), %eax
	movl	32(%eax), %eax
	testl	%eax, %eax
	je	.L109
	.loc 1 407 0
	pushl	%edx
	pushl	12(%ebp)
	pushl	%esi
	pushl	%ebx
	call	*%eax
.LVL118:
	addl	$16, %esp
	movl	%eax, %edi
.LVL119:
.L109:
	.loc 1 411 0
	pushl	%eax
	pushl	%eax
	pushl	$-1
	pushl	$g_vfs_mutex
	call	aos_mutex_lock
.LVL120:
	addl	$16, %esp
	testl	%eax, %eax
	jne	.L107
	.loc 1 415 0
	subl	$12, %esp
	pushl	%ebx
	call	del_file
.LVL121:
	.loc 1 417 0
	movl	$g_vfs_mutex, (%esp)
	call	aos_mutex_unlock
.LVL122:
	.loc 1 418 0
	addl	$16, %esp
	movl	%edi, %eax
	jmp	.L107
.LVL123:
.L110:
	.loc 1 383 0
	movl	$-22, %eax
.LVL124:
.L107:
	.loc 1 419 0
	leal	-12(%ebp), %esp
	popl	%ebx
	.cfi_restore 3
	popl	%esi
	.cfi_restore 6
	popl	%edi
	.cfi_restore 7
	popl	%ebp
	.cfi_restore 5
	.cfi_def_cfa 4, 4
	ret
	.cfi_endproc
.LFE33:
	.size	aos_rename, .-aos_rename
	.section	.text.unlikely.aos_rename
.LCOLDE10:
	.section	.text.aos_rename
.LHOTE10:
	.section	.text.unlikely.aos_opendir,"ax",@progbits
.LCOLDB11:
	.section	.text.aos_opendir,"ax",@progbits
.LHOTB11:
	.globl	aos_opendir
	.type	aos_opendir, @function
aos_opendir:
.LFB34:
	.loc 1 422 0
	.cfi_startproc
.LVL125:
	pushl	%ebp
	.cfi_def_cfa_offset 8
	.cfi_offset 5, -8
	movl	%esp, %ebp
	.cfi_def_cfa_register 5
	pushl	%edi
	pushl	%esi
	pushl	%ebx
	subl	$12, %esp
	.cfi_offset 7, -12
	.cfi_offset 6, -16
	.cfi_offset 3, -20
	.loc 1 422 0
	movl	8(%ebp), %edi
	.loc 1 427 0
	testl	%edi, %edi
	je	.L139
	.loc 1 431 0
	pushl	%ebx
	pushl	%ebx
	pushl	$-1
	pushl	$g_vfs_mutex
	call	aos_mutex_lock
.LVL126:
	addl	$16, %esp
	testl	%eax, %eax
	jne	.L139
	.loc 1 435 0
	subl	$12, %esp
	pushl	%edi
	call	inode_open
.LVL127:
	.loc 1 437 0
	addl	$16, %esp
	testl	%eax, %eax
	.loc 1 435 0
	movl	%eax, %ebx
.LVL128:
	.loc 1 437 0
	jne	.L121
	.loc 1 438 0
	subl	$12, %esp
	pushl	$g_vfs_mutex
	jmp	.L138
.L121:
	.loc 1 442 0
	subl	$12, %esp
	pushl	%eax
	call	new_file
.LVL129:
	movl	%eax, %esi
.LVL130:
	.loc 1 444 0
	movl	$g_vfs_mutex, (%esp)
	call	aos_mutex_unlock
.LVL131:
	.loc 1 446 0
	addl	$16, %esp
	testl	%esi, %esi
	je	.L139
	.loc 1 450 0
	cmpb	$3, 16(%ebx)
	je	.L122
.LVL132:
.L124:
	.loc 1 457 0
	pushl	%ecx
	pushl	%ecx
	pushl	$-1
	pushl	$g_vfs_mutex
	call	aos_mutex_lock
.LVL133:
	addl	$16, %esp
	testl	%eax, %eax
	jne	.L139
	.loc 1 461 0
	subl	$12, %esp
	pushl	%esi
	call	del_file
.LVL134:
	.loc 1 463 0
	movl	$g_vfs_mutex, (%esp)
	jmp	.L138
.LVL135:
.L122:
	.loc 1 451 0
	movl	(%ebx), %eax
	movl	36(%eax), %eax
	testl	%eax, %eax
	je	.L124
	.loc 1 452 0
	pushl	%edx
	pushl	%edx
	pushl	%edi
	pushl	%esi
	call	*%eax
.LVL136:
	.loc 1 456 0
	addl	$16, %esp
	testl	%eax, %eax
	.loc 1 452 0
	movl	%eax, %ebx
.LVL137:
	.loc 1 456 0
	je	.L124
	.loc 1 467 0
	subl	$12, %esp
	pushl	%esi
	call	get_fd
.LVL138:
	.loc 1 468 0
	addl	$16, %esp
	.loc 1 467 0
	movl	%eax, (%ebx)
	.loc 1 468 0
	movl	%ebx, %eax
	jmp	.L119
.LVL139:
.L138:
	.loc 1 463 0
	call	aos_mutex_unlock
.LVL140:
	.loc 1 464 0
	addl	$16, %esp
.L139:
	xorl	%eax, %eax
.L119:
	.loc 1 469 0
	leal	-12(%ebp), %esp
	popl	%ebx
	.cfi_restore 3
	popl	%esi
	.cfi_restore 6
	popl	%edi
	.cfi_restore 7
	popl	%ebp
	.cfi_restore 5
	.cfi_def_cfa 4, 4
	ret
	.cfi_endproc
.LFE34:
	.size	aos_opendir, .-aos_opendir
	.section	.text.unlikely.aos_opendir
.LCOLDE11:
	.section	.text.aos_opendir
.LHOTE11:
	.section	.text.unlikely.aos_closedir,"ax",@progbits
.LCOLDB12:
	.section	.text.aos_closedir,"ax",@progbits
.LHOTB12:
	.globl	aos_closedir
	.type	aos_closedir, @function
aos_closedir:
.LFB35:
	.loc 1 472 0
	.cfi_startproc
.LVL141:
	pushl	%ebp
	.cfi_def_cfa_offset 8
	.cfi_offset 5, -8
	.loc 1 478 0
	movl	$-22, %eax
	.loc 1 472 0
	movl	%esp, %ebp
	.cfi_def_cfa_register 5
	pushl	%edi
	pushl	%esi
	pushl	%ebx
	subl	$12, %esp
	.cfi_offset 7, -12
	.cfi_offset 6, -16
	.cfi_offset 3, -20
	.loc 1 472 0
	movl	8(%ebp), %edi
	.loc 1 477 0
	testl	%edi, %edi
	je	.L141
	.loc 1 481 0
	subl	$12, %esp
	pushl	(%edi)
	call	get_file
.LVL142:
	movl	%eax, %esi
.LVL143:
	.loc 1 483 0
	addl	$16, %esp
	.loc 1 484 0
	movl	$-2, %eax
.LVL144:
	.loc 1 483 0
	testl	%esi, %esi
	je	.L141
	.loc 1 487 0
	movl	(%esi), %eax
.LVL145:
	.loc 1 475 0
	movl	$-88, %ebx
	.loc 1 489 0
	cmpb	$3, 16(%eax)
	jne	.L142
	.loc 1 490 0
	movl	(%eax), %eax
.LVL146:
	movl	44(%eax), %eax
	testl	%eax, %eax
	je	.L142
	.loc 1 491 0
	pushl	%edx
.LVL147:
	pushl	%edx
	pushl	%edi
	pushl	%esi
	call	*%eax
.LVL148:
	addl	$16, %esp
	movl	%eax, %ebx
.LVL149:
.L142:
	.loc 1 495 0
	pushl	%eax
	pushl	%eax
	pushl	$-1
	pushl	$g_vfs_mutex
	call	aos_mutex_lock
.LVL150:
	addl	$16, %esp
	testl	%eax, %eax
	jne	.L141
	.loc 1 499 0
	subl	$12, %esp
	pushl	%esi
	call	del_file
.LVL151:
	.loc 1 501 0
	movl	$g_vfs_mutex, (%esp)
	call	aos_mutex_unlock
.LVL152:
	.loc 1 503 0
	addl	$16, %esp
	movl	%ebx, %eax
.LVL153:
.L141:
	.loc 1 504 0
	leal	-12(%ebp), %esp
	popl	%ebx
	.cfi_restore 3
	popl	%esi
	.cfi_restore 6
	popl	%edi
	.cfi_restore 7
	popl	%ebp
	.cfi_restore 5
	.cfi_def_cfa 4, 4
	ret
	.cfi_endproc
.LFE35:
	.size	aos_closedir, .-aos_closedir
	.section	.text.unlikely.aos_closedir
.LCOLDE12:
	.section	.text.aos_closedir
.LHOTE12:
	.section	.text.unlikely.aos_readdir,"ax",@progbits
.LCOLDB13:
	.section	.text.aos_readdir,"ax",@progbits
.LHOTB13:
	.globl	aos_readdir
	.type	aos_readdir, @function
aos_readdir:
.LFB36:
	.loc 1 507 0
	.cfi_startproc
.LVL154:
	pushl	%ebp
	.cfi_def_cfa_offset 8
	.cfi_offset 5, -8
	movl	%esp, %ebp
	.cfi_def_cfa_register 5
	pushl	%ebx
	.cfi_offset 3, -12
	pushl	%ebx
	.loc 1 507 0
	movl	8(%ebp), %ebx
	.loc 1 512 0
	testl	%ebx, %ebx
	je	.L150
	.loc 1 516 0
	subl	$12, %esp
	pushl	(%ebx)
	call	get_file
.LVL155:
	.loc 1 517 0
	addl	$16, %esp
	testl	%eax, %eax
	je	.L150
	.loc 1 521 0
	movl	(%eax), %edx
.LVL156:
	.loc 1 523 0
	cmpb	$3, 16(%edx)
	jne	.L150
	.loc 1 524 0
	movl	(%edx), %edx
.LVL157:
	movl	40(%edx), %edx
	testl	%edx, %edx
	je	.L150
	.loc 1 525 0
	pushl	%ecx
.LVL158:
	pushl	%ecx
	pushl	%ebx
	pushl	%eax
	call	*%edx
.LVL159:
	.loc 1 529 0
	addl	$16, %esp
	testl	%eax, %eax
	jne	.L153
.LVL160:
.L150:
	.loc 1 533 0
	xorl	%eax, %eax
.L153:
	.loc 1 534 0
	movl	-4(%ebp), %ebx
	leave
	.cfi_restore 5
	.cfi_restore 3
	.cfi_def_cfa 4, 4
	ret
	.cfi_endproc
.LFE36:
	.size	aos_readdir, .-aos_readdir
	.section	.text.unlikely.aos_readdir
.LCOLDE13:
	.section	.text.aos_readdir
.LHOTE13:
	.section	.text.unlikely.aos_mkdir,"ax",@progbits
.LCOLDB14:
	.section	.text.aos_mkdir,"ax",@progbits
.LHOTB14:
	.globl	aos_mkdir
	.type	aos_mkdir, @function
aos_mkdir:
.LFB37:
	.loc 1 537 0
	.cfi_startproc
.LVL161:
	pushl	%ebp
	.cfi_def_cfa_offset 8
	.cfi_offset 5, -8
	.loc 1 543 0
	movl	$-22, %eax
	.loc 1 537 0
	movl	%esp, %ebp
	.cfi_def_cfa_register 5
	pushl	%edi
	pushl	%esi
	pushl	%ebx
	subl	$28, %esp
	.cfi_offset 7, -12
	.cfi_offset 6, -16
	.cfi_offset 3, -20
	.loc 1 537 0
	movl	8(%ebp), %esi
	.loc 1 542 0
	testl	%esi, %esi
	je	.L166
	.loc 1 546 0
	pushl	%ecx
	pushl	%ecx
	pushl	$-1
	pushl	$g_vfs_mutex
	call	aos_mutex_lock
.LVL162:
	addl	$16, %esp
	testl	%eax, %eax
	jne	.L166
	.loc 1 550 0
	subl	$12, %esp
	pushl	%esi
	call	inode_open
.LVL163:
	.loc 1 552 0
	addl	$16, %esp
	testl	%eax, %eax
	jne	.L167
	.loc 1 553 0
	subl	$12, %esp
	pushl	$g_vfs_mutex
	call	aos_mutex_unlock
.LVL164:
	.loc 1 554 0
	addl	$16, %esp
	movl	$-19, %eax
	jmp	.L166
.LVL165:
.L167:
	.loc 1 557 0
	subl	$12, %esp
	movl	%eax, -28(%ebp)
	pushl	%eax
	call	new_file
.LVL166:
	movl	%eax, %ebx
.LVL167:
	.loc 1 559 0
	movl	$g_vfs_mutex, (%esp)
	call	aos_mutex_unlock
.LVL168:
	.loc 1 561 0
	addl	$16, %esp
	testl	%ebx, %ebx
	.loc 1 562 0
	movl	$-2, %eax
	.loc 1 561 0
	je	.L166
	.loc 1 565 0
	movl	-28(%ebp), %edx
	.loc 1 540 0
	movl	$-88, %edi
	.loc 1 565 0
	cmpb	$3, 16(%edx)
	jne	.L168
	.loc 1 566 0
	movl	(%edx), %eax
	movl	48(%eax), %eax
	testl	%eax, %eax
	je	.L168
	.loc 1 567 0
	pushl	%edx
	pushl	%edx
	pushl	%esi
	pushl	%ebx
	call	*%eax
.LVL169:
	addl	$16, %esp
	movl	%eax, %edi
.LVL170:
.L168:
	.loc 1 571 0
	pushl	%eax
	pushl	%eax
	pushl	$-1
	pushl	$g_vfs_mutex
	call	aos_mutex_lock
.LVL171:
	addl	$16, %esp
	testl	%eax, %eax
	jne	.L166
	.loc 1 575 0
	subl	$12, %esp
	pushl	%ebx
	call	del_file
.LVL172:
	.loc 1 577 0
	movl	$g_vfs_mutex, (%esp)
	call	aos_mutex_unlock
.LVL173:
	.loc 1 578 0
	addl	$16, %esp
	movl	%edi, %eax
.LVL174:
.L166:
	.loc 1 579 0
	leal	-12(%ebp), %esp
	popl	%ebx
	.cfi_restore 3
	popl	%esi
	.cfi_restore 6
	popl	%edi
	.cfi_restore 7
	popl	%ebp
	.cfi_restore 5
	.cfi_def_cfa 4, 4
	ret
	.cfi_endproc
.LFE37:
	.size	aos_mkdir, .-aos_mkdir
	.section	.text.unlikely.aos_mkdir
.LCOLDE14:
	.section	.text.aos_mkdir
.LHOTE14:
	.globl	g_vfs_mutex
	.section	.bss.g_vfs_mutex,"aw",@nobits
	.align 4
	.type	g_vfs_mutex, @object
	.size	g_vfs_mutex, 4
g_vfs_mutex:
	.zero	4
	.section	.bss.g_vfs_init,"aw",@nobits
	.type	g_vfs_init, @object
	.size	g_vfs_init, 1
g_vfs_init:
	.zero	1
	.text
.Letext0:
	.section	.text.unlikely.vfs_init
.Letext_cold0:
	.file 2 "/home/stone/Documents/Ali_IOT/build/compiler/gcc-arm-none-eabi/Linux64/arm-none-eabi/include/machine/_default_types.h"
	.file 3 "/home/stone/Documents/Ali_IOT/build/compiler/gcc-arm-none-eabi/Linux64/arm-none-eabi/include/sys/_stdint.h"
	.file 4 "/home/stone/Documents/Ali_IOT/build/compiler/gcc-arm-none-eabi/Linux64/lib/gcc/arm-none-eabi/5.4.1/include/stddef.h"
	.file 5 "/home/stone/Documents/Ali_IOT/build/compiler/gcc-arm-none-eabi/Linux64/arm-none-eabi/include/sys/_types.h"
	.file 6 "/home/stone/Documents/Ali_IOT/build/compiler/gcc-arm-none-eabi/Linux64/arm-none-eabi/include/sys/_timeval.h"
	.file 7 "/home/stone/Documents/Ali_IOT/build/compiler/gcc-arm-none-eabi/Linux64/arm-none-eabi/include/sys/types.h"
	.file 8 "/home/stone/Documents/Ali_IOT/build/compiler/gcc-arm-none-eabi/Linux64/arm-none-eabi/include/sys/stat.h"
	.file 9 "./include/aos/types.h"
	.file 10 "./include/aos/kernel.h"
	.file 11 "./include/aos/vfs.h"
	.file 12 "./kernel/vfs/include/vfs_inode.h"
	.file 13 "./include/hal/sensor.h"
	.file 14 "./include/aos/log.h"
	.file 15 "./kernel/vfs/include/vfs_file.h"
	.section	.note.GNU-stack,"",@progbits
