	.file	"vfs_i2c.c"
	.text
.Ltext0:
	.section	.text.unlikely.vfs_i2c_open,"ax",@progbits
.LCOLDB0:
	.section	.text.vfs_i2c_open,"ax",@progbits
.LHOTB0:
	.section	.text.unlikely.vfs_i2c_open
.Ltext_cold0:
	.section	.text.vfs_i2c_open
	.globl	vfs_i2c_open
	.type	vfs_i2c_open, @function
vfs_i2c_open:
.LFB16:
	.file 1 "kernel/vfs/device/vfs_i2c.c"
	.loc 1 19 0
	.cfi_startproc
.LVL0:
	pushl	%ebp
	.cfi_def_cfa_offset 8
	.cfi_offset 5, -8
	movl	%esp, %ebp
	.cfi_def_cfa_register 5
	.loc 1 19 0
	movl	12(%ebp), %eax
	.loc 1 24 0
	testl	%eax, %eax
	je	.L4
	.loc 1 24 0 discriminator 1
	movl	(%eax), %edx
	testl	%edx, %edx
	je	.L4
	.loc 1 35 0
	xorl	%eax, %eax
	.loc 1 27 0
	cmpb	$1, 17(%edx)
	jne	.L2
.LVL1:
	.loc 1 33 0
	movl	4(%edx), %eax
	movl	%eax, 8(%ebp)
.LVL2:
	.loc 1 42 0
	popl	%ebp
	.cfi_remember_state
	.cfi_restore 5
	.cfi_def_cfa 4, 4
	.loc 1 33 0
	jmp	hal_i2c_init
.LVL3:
.L4:
	.cfi_restore_state
	.loc 1 38 0
	movl	$-22, %eax
.LVL4:
.L2:
	.loc 1 42 0
	popl	%ebp
	.cfi_restore 5
	.cfi_def_cfa 4, 4
	ret
	.cfi_endproc
.LFE16:
	.size	vfs_i2c_open, .-vfs_i2c_open
	.section	.text.unlikely.vfs_i2c_open
.LCOLDE0:
	.section	.text.vfs_i2c_open
.LHOTE0:
	.section	.text.unlikely.vfs_i2c_close,"ax",@progbits
.LCOLDB1:
	.section	.text.vfs_i2c_close,"ax",@progbits
.LHOTB1:
	.globl	vfs_i2c_close
	.type	vfs_i2c_close, @function
vfs_i2c_close:
.LFB17:
	.loc 1 45 0
	.cfi_startproc
.LVL5:
	pushl	%ebp
	.cfi_def_cfa_offset 8
	.cfi_offset 5, -8
	movl	%esp, %ebp
	.cfi_def_cfa_register 5
	pushl	%edi
	pushl	%esi
	pushl	%ebx
	.cfi_offset 7, -12
	.cfi_offset 6, -16
	.cfi_offset 3, -20
	.loc 1 72 0
	movl	$-22, %ebx
	.loc 1 45 0
	subl	$12, %esp
	.loc 1 45 0
	movl	8(%ebp), %esi
	.loc 1 50 0
	testl	%esi, %esi
	je	.L9
	.loc 1 50 0 discriminator 1
	movl	(%esi), %eax
	testl	%eax, %eax
	je	.L9
	.loc 1 69 0
	xorl	%ebx, %ebx
	.loc 1 53 0
	cmpb	$1, 17(%eax)
	jne	.L9
	.loc 1 56 0
	movl	4(%eax), %edi
.LVL6:
	.loc 1 59 0
	addl	$20, %eax
	pushl	%edx
	pushl	%edx
	pushl	$-1
	pushl	%eax
	call	aos_mutex_lock
.LVL7:
	.loc 1 60 0
	addl	$16, %esp
	testl	%eax, %eax
	.loc 1 59 0
	movl	%eax, %ebx
.LVL8:
	.loc 1 60 0
	jne	.L10
	.loc 1 63 0
	subl	$12, %esp
	pushl	%edi
	call	hal_i2c_finalize
.LVL9:
	addl	$16, %esp
	movl	%eax, %ebx
.LVL10:
.L10:
	.loc 1 67 0
	movl	(%esi), %eax
.LVL11:
	subl	$12, %esp
	addl	$20, %eax
	pushl	%eax
	call	aos_mutex_unlock
.LVL12:
	addl	$16, %esp
.LVL13:
.L9:
	.loc 1 76 0
	leal	-12(%ebp), %esp
	movl	%ebx, %eax
	popl	%ebx
	.cfi_restore 3
.LVL14:
	popl	%esi
	.cfi_restore 6
	popl	%edi
	.cfi_restore 7
	popl	%ebp
	.cfi_restore 5
	.cfi_def_cfa 4, 4
	ret
	.cfi_endproc
.LFE17:
	.size	vfs_i2c_close, .-vfs_i2c_close
	.section	.text.unlikely.vfs_i2c_close
.LCOLDE1:
	.section	.text.vfs_i2c_close
.LHOTE1:
	.section	.text.unlikely.vfs_i2c_read,"ax",@progbits
.LCOLDB2:
	.section	.text.vfs_i2c_read,"ax",@progbits
.LHOTB2:
	.globl	vfs_i2c_read
	.type	vfs_i2c_read, @function
vfs_i2c_read:
.LFB18:
	.loc 1 79 0
	.cfi_startproc
.LVL15:
	pushl	%ebp
	.cfi_def_cfa_offset 8
	.cfi_offset 5, -8
	movl	%esp, %ebp
	.cfi_def_cfa_register 5
	pushl	%edi
	pushl	%esi
	pushl	%ebx
	.cfi_offset 7, -12
	.cfi_offset 6, -16
	.cfi_offset 3, -20
	.loc 1 110 0
	movl	$-22, %edi
	.loc 1 79 0
	subl	$28, %esp
	.loc 1 79 0
	movl	8(%ebp), %ebx
	.loc 1 85 0
	testl	%ebx, %ebx
	je	.L16
	.loc 1 85 0 discriminator 1
	movl	(%ebx), %eax
	testl	%eax, %eax
	je	.L16
	.loc 1 88 0
	movl	4(%eax), %edx
.LVL16:
	.loc 1 94 0
	addl	$20, %eax
	.loc 1 91 0
	movzwl	14(%edx), %esi
	movl	%edx, -28(%ebp)
.LVL17:
.LVL18:
	.loc 1 94 0
	pushl	%edx
.LVL19:
	pushl	%edx
	pushl	$-1
	pushl	%eax
	call	aos_mutex_lock
.LVL20:
	.loc 1 95 0
	addl	$16, %esp
	testl	%eax, %eax
	.loc 1 94 0
	movl	%eax, %edi
.LVL21:
	.loc 1 95 0
	movl	-28(%ebp), %edx
	jne	.L17
	.loc 1 98 0
	movzwl	16(%ebp), %eax
.LVL22:
	subl	$12, %esp
	pushl	$-1
	pushl	%eax
	pushl	12(%ebp)
	pushl	%esi
	pushl	%edx
	call	hal_i2c_master_recv
.LVL23:
	.loc 1 102 0
	addl	$32, %esp
	.loc 1 98 0
	movl	%eax, %edi
.LVL24:
	.loc 1 103 0
	testl	%eax, %eax
	cmove	16(%ebp), %edi
.L17:
.LVL25:
	.loc 1 108 0
	movl	(%ebx), %eax
	subl	$12, %esp
	addl	$20, %eax
	pushl	%eax
	call	aos_mutex_unlock
.LVL26:
	addl	$16, %esp
.LVL27:
.L16:
	.loc 1 114 0
	leal	-12(%ebp), %esp
	movl	%edi, %eax
	popl	%ebx
	.cfi_restore 3
	popl	%esi
	.cfi_restore 6
	popl	%edi
	.cfi_restore 7
.LVL28:
	popl	%ebp
	.cfi_restore 5
	.cfi_def_cfa 4, 4
	ret
	.cfi_endproc
.LFE18:
	.size	vfs_i2c_read, .-vfs_i2c_read
	.section	.text.unlikely.vfs_i2c_read
.LCOLDE2:
	.section	.text.vfs_i2c_read
.LHOTE2:
	.section	.text.unlikely.vfs_i2c_write,"ax",@progbits
.LCOLDB3:
	.section	.text.vfs_i2c_write,"ax",@progbits
.LHOTB3:
	.globl	vfs_i2c_write
	.type	vfs_i2c_write, @function
vfs_i2c_write:
.LFB19:
	.loc 1 117 0
	.cfi_startproc
.LVL29:
	pushl	%ebp
	.cfi_def_cfa_offset 8
	.cfi_offset 5, -8
	movl	%esp, %ebp
	.cfi_def_cfa_register 5
	pushl	%edi
	pushl	%esi
	pushl	%ebx
	.cfi_offset 7, -12
	.cfi_offset 6, -16
	.cfi_offset 3, -20
	.loc 1 148 0
	movl	$-22, %edi
	.loc 1 117 0
	subl	$28, %esp
	.loc 1 117 0
	movl	8(%ebp), %ebx
	.loc 1 123 0
	testl	%ebx, %ebx
	je	.L22
	.loc 1 123 0 discriminator 1
	movl	(%ebx), %eax
	testl	%eax, %eax
	je	.L22
	.loc 1 126 0
	movl	4(%eax), %edx
.LVL30:
	.loc 1 132 0
	addl	$20, %eax
	.loc 1 129 0
	movzwl	14(%edx), %esi
	movl	%edx, -28(%ebp)
.LVL31:
.LVL32:
	.loc 1 132 0
	pushl	%edx
.LVL33:
	pushl	%edx
	pushl	$-1
	pushl	%eax
	call	aos_mutex_lock
.LVL34:
	.loc 1 133 0
	addl	$16, %esp
	testl	%eax, %eax
	.loc 1 132 0
	movl	%eax, %edi
.LVL35:
	.loc 1 133 0
	movl	-28(%ebp), %edx
	jne	.L23
	.loc 1 136 0
	movzwl	16(%ebp), %eax
.LVL36:
	subl	$12, %esp
	pushl	$-1
	pushl	%eax
	pushl	12(%ebp)
	pushl	%esi
	pushl	%edx
	call	hal_i2c_master_send
.LVL37:
	.loc 1 140 0
	addl	$32, %esp
	.loc 1 136 0
	movl	%eax, %edi
.LVL38:
	.loc 1 141 0
	testl	%eax, %eax
	cmove	16(%ebp), %edi
.L23:
.LVL39:
	.loc 1 146 0
	movl	(%ebx), %eax
	subl	$12, %esp
	addl	$20, %eax
	pushl	%eax
	call	aos_mutex_unlock
.LVL40:
	addl	$16, %esp
.LVL41:
.L22:
	.loc 1 152 0
	leal	-12(%ebp), %esp
	movl	%edi, %eax
	popl	%ebx
	.cfi_restore 3
	popl	%esi
	.cfi_restore 6
	popl	%edi
	.cfi_restore 7
.LVL42:
	popl	%ebp
	.cfi_restore 5
	.cfi_def_cfa 4, 4
	ret
	.cfi_endproc
.LFE19:
	.size	vfs_i2c_write, .-vfs_i2c_write
	.section	.text.unlikely.vfs_i2c_write
.LCOLDE3:
	.section	.text.vfs_i2c_write
.LHOTE3:
	.globl	i2c_ops
	.section	.rodata.i2c_ops,"a",@progbits
	.align 4
	.type	i2c_ops, @object
	.size	i2c_ops, 20
i2c_ops:
	.long	vfs_i2c_open
	.long	vfs_i2c_close
	.long	vfs_i2c_read
	.long	vfs_i2c_write
	.zero	4
	.text
.Letext0:
	.section	.text.unlikely.vfs_i2c_open
.Letext_cold0:
	.file 2 "/home/stone/Documents/Ali_IOT/build/compiler/gcc-arm-none-eabi/Linux64/arm-none-eabi/include/machine/_default_types.h"
	.file 3 "/home/stone/Documents/Ali_IOT/build/compiler/gcc-arm-none-eabi/Linux64/arm-none-eabi/include/sys/_stdint.h"
	.file 4 "/home/stone/Documents/Ali_IOT/build/compiler/gcc-arm-none-eabi/Linux64/lib/gcc/arm-none-eabi/5.4.1/include/stddef.h"
	.file 5 "/home/stone/Documents/Ali_IOT/build/compiler/gcc-arm-none-eabi/Linux64/arm-none-eabi/include/sys/_types.h"
	.file 6 "/home/stone/Documents/Ali_IOT/build/compiler/gcc-arm-none-eabi/Linux64/arm-none-eabi/include/sys/_timeval.h"
	.file 7 "/home/stone/Documents/Ali_IOT/build/compiler/gcc-arm-none-eabi/Linux64/arm-none-eabi/include/sys/types.h"
	.file 8 "/home/stone/Documents/Ali_IOT/build/compiler/gcc-arm-none-eabi/Linux64/arm-none-eabi/include/sys/stat.h"
	.file 9 "./include/aos/kernel.h"
	.file 10 "./include/aos/vfs.h"
	.file 11 "././kernel/vfs/device/../include/vfs_inode.h"
	.file 12 "./include/hal/soc/i2c.h"
	.file 13 "./include/aos/log.h"
	.section	.note.GNU-stack,"",@progbits
