	.file	"vfs_rtc.c"
	.text
.Ltext0:
	.section	.text.unlikely.vfs_rtc_open,"ax",@progbits
.LCOLDB0:
	.section	.text.vfs_rtc_open,"ax",@progbits
.LHOTB0:
	.section	.text.unlikely.vfs_rtc_open
.Ltext_cold0:
	.section	.text.vfs_rtc_open
	.globl	vfs_rtc_open
	.type	vfs_rtc_open, @function
vfs_rtc_open:
.LFB22:
	.file 1 "kernel/vfs/device/vfs_rtc.c"
	.loc 1 19 0
	.cfi_startproc
.LVL0:
	pushl	%ebp
	.cfi_def_cfa_offset 8
	.cfi_offset 5, -8
	movl	%esp, %ebp
	.cfi_def_cfa_register 5
	.loc 1 19 0
	movl	12(%ebp), %eax
	.loc 1 24 0
	testl	%eax, %eax
	je	.L4
	.loc 1 24 0 discriminator 1
	movl	(%eax), %edx
	testl	%edx, %edx
	je	.L4
	.loc 1 35 0
	xorl	%eax, %eax
	.loc 1 27 0
	cmpb	$1, 17(%edx)
	jne	.L2
.LVL1:
	.loc 1 33 0
	movl	4(%edx), %eax
	movl	%eax, 8(%ebp)
.LVL2:
	.loc 1 42 0
	popl	%ebp
	.cfi_remember_state
	.cfi_restore 5
	.cfi_def_cfa 4, 4
	.loc 1 33 0
	jmp	hal_rtc_init
.LVL3:
.L4:
	.cfi_restore_state
	.loc 1 38 0
	movl	$-22, %eax
.LVL4:
.L2:
	.loc 1 42 0
	popl	%ebp
	.cfi_restore 5
	.cfi_def_cfa 4, 4
	ret
	.cfi_endproc
.LFE22:
	.size	vfs_rtc_open, .-vfs_rtc_open
	.section	.text.unlikely.vfs_rtc_open
.LCOLDE0:
	.section	.text.vfs_rtc_open
.LHOTE0:
	.section	.text.unlikely.vfs_rtc_close,"ax",@progbits
.LCOLDB1:
	.section	.text.vfs_rtc_close,"ax",@progbits
.LHOTB1:
	.globl	vfs_rtc_close
	.type	vfs_rtc_close, @function
vfs_rtc_close:
.LFB23:
	.loc 1 45 0
	.cfi_startproc
.LVL5:
	pushl	%ebp
	.cfi_def_cfa_offset 8
	.cfi_offset 5, -8
	movl	%esp, %ebp
	.cfi_def_cfa_register 5
	pushl	%edi
	pushl	%esi
	pushl	%ebx
	.cfi_offset 7, -12
	.cfi_offset 6, -16
	.cfi_offset 3, -20
	.loc 1 72 0
	movl	$-22, %ebx
	.loc 1 45 0
	subl	$12, %esp
	.loc 1 45 0
	movl	8(%ebp), %esi
	.loc 1 50 0
	testl	%esi, %esi
	je	.L9
	.loc 1 50 0 discriminator 1
	movl	(%esi), %eax
	testl	%eax, %eax
	je	.L9
	.loc 1 69 0
	xorl	%ebx, %ebx
	.loc 1 53 0
	cmpb	$1, 17(%eax)
	jne	.L9
	.loc 1 56 0
	movl	4(%eax), %edi
.LVL6:
	.loc 1 59 0
	addl	$20, %eax
	pushl	%edx
	pushl	%edx
	pushl	$-1
	pushl	%eax
	call	aos_mutex_lock
.LVL7:
	.loc 1 60 0
	addl	$16, %esp
	testl	%eax, %eax
	.loc 1 59 0
	movl	%eax, %ebx
.LVL8:
	.loc 1 60 0
	jne	.L10
	.loc 1 63 0
	subl	$12, %esp
	pushl	%edi
	call	hal_rtc_finalize
.LVL9:
	addl	$16, %esp
	movl	%eax, %ebx
.LVL10:
.L10:
	.loc 1 67 0
	movl	(%esi), %eax
.LVL11:
	subl	$12, %esp
	addl	$20, %eax
	pushl	%eax
	call	aos_mutex_unlock
.LVL12:
	addl	$16, %esp
.LVL13:
.L9:
	.loc 1 76 0
	leal	-12(%ebp), %esp
	movl	%ebx, %eax
	popl	%ebx
	.cfi_restore 3
.LVL14:
	popl	%esi
	.cfi_restore 6
	popl	%edi
	.cfi_restore 7
	popl	%ebp
	.cfi_restore 5
	.cfi_def_cfa 4, 4
	ret
	.cfi_endproc
.LFE23:
	.size	vfs_rtc_close, .-vfs_rtc_close
	.section	.text.unlikely.vfs_rtc_close
.LCOLDE1:
	.section	.text.vfs_rtc_close
.LHOTE1:
	.section	.text.unlikely.vfs_rtc_read,"ax",@progbits
.LCOLDB2:
	.section	.text.vfs_rtc_read,"ax",@progbits
.LHOTB2:
	.globl	vfs_rtc_read
	.type	vfs_rtc_read, @function
vfs_rtc_read:
.LFB24:
	.loc 1 79 0
	.cfi_startproc
.LVL15:
	pushl	%ebp
	.cfi_def_cfa_offset 8
	.cfi_offset 5, -8
	movl	%esp, %ebp
	.cfi_def_cfa_register 5
	pushl	%edi
	pushl	%esi
	pushl	%ebx
	.cfi_offset 7, -12
	.cfi_offset 6, -16
	.cfi_offset 3, -20
	.loc 1 105 0
	movl	$-22, %ebx
	.loc 1 79 0
	subl	$12, %esp
	.loc 1 79 0
	movl	8(%ebp), %esi
.LVL16:
	.loc 1 84 0
	testl	%esi, %esi
	je	.L16
	.loc 1 84 0 discriminator 1
	cmpl	$6, 16(%ebp)
	.loc 1 84 0 discriminator 1
	movl	(%esi), %eax
	.loc 1 84 0 discriminator 1
	jbe	.L19
	testl	%eax, %eax
	je	.L19
	.loc 1 87 0
	movl	4(%eax), %edi
.LVL17:
	.loc 1 90 0
	addl	$20, %eax
	pushl	%edx
	pushl	%edx
	pushl	$-1
	pushl	%eax
	call	aos_mutex_lock
.LVL18:
	.loc 1 91 0
	addl	$16, %esp
	testl	%eax, %eax
	.loc 1 90 0
	movl	%eax, %ebx
.LVL19:
	.loc 1 91 0
	jne	.L17
.LVL20:
	.loc 1 94 0
	pushl	%eax
	pushl	%eax
	pushl	12(%ebp)
	pushl	%edi
	call	hal_rtc_get_time
.LVL21:
	.loc 1 97 0
	addl	$16, %esp
	.loc 1 94 0
	movl	%eax, %ebx
.LVL22:
	.loc 1 98 0
	testl	%eax, %eax
	cmove	16(%ebp), %ebx
.L17:
.LVL23:
	.loc 1 103 0
	movl	(%esi), %eax
	subl	$12, %esp
	addl	$20, %eax
	pushl	%eax
	call	aos_mutex_unlock
.LVL24:
	addl	$16, %esp
	jmp	.L16
.LVL25:
.L19:
	.loc 1 105 0
	movl	$-22, %ebx
.LVL26:
.L16:
	.loc 1 109 0
	leal	-12(%ebp), %esp
	movl	%ebx, %eax
	popl	%ebx
	.cfi_restore 3
.LVL27:
	popl	%esi
	.cfi_restore 6
	popl	%edi
	.cfi_restore 7
	popl	%ebp
	.cfi_restore 5
	.cfi_def_cfa 4, 4
	ret
	.cfi_endproc
.LFE24:
	.size	vfs_rtc_read, .-vfs_rtc_read
	.section	.text.unlikely.vfs_rtc_read
.LCOLDE2:
	.section	.text.vfs_rtc_read
.LHOTE2:
	.section	.text.unlikely.vfs_rtc_write,"ax",@progbits
.LCOLDB3:
	.section	.text.vfs_rtc_write,"ax",@progbits
.LHOTB3:
	.globl	vfs_rtc_write
	.type	vfs_rtc_write, @function
vfs_rtc_write:
.LFB25:
	.loc 1 112 0
	.cfi_startproc
.LVL28:
	pushl	%ebp
	.cfi_def_cfa_offset 8
	.cfi_offset 5, -8
	movl	%esp, %ebp
	.cfi_def_cfa_register 5
	pushl	%edi
	pushl	%esi
	pushl	%ebx
	.cfi_offset 7, -12
	.cfi_offset 6, -16
	.cfi_offset 3, -20
	.loc 1 139 0
	movl	$-22, %ebx
	.loc 1 112 0
	subl	$12, %esp
	.loc 1 112 0
	movl	8(%ebp), %esi
.LVL29:
	.loc 1 117 0
	testl	%esi, %esi
	je	.L28
	.loc 1 117 0 discriminator 1
	cmpl	$6, 16(%ebp)
	.loc 1 117 0 discriminator 1
	movl	(%esi), %eax
	.loc 1 117 0 discriminator 1
	jbe	.L31
	testl	%eax, %eax
	je	.L31
	.loc 1 120 0
	movl	4(%eax), %edi
.LVL30:
	.loc 1 123 0
	addl	$20, %eax
	pushl	%edx
	pushl	%edx
	pushl	$-1
	pushl	%eax
	call	aos_mutex_lock
.LVL31:
	.loc 1 124 0
	addl	$16, %esp
	testl	%eax, %eax
	.loc 1 123 0
	movl	%eax, %ebx
.LVL32:
	.loc 1 124 0
	jne	.L29
.LVL33:
	.loc 1 127 0
	pushl	%eax
	pushl	%eax
	pushl	12(%ebp)
	pushl	%edi
	call	hal_rtc_set_time
.LVL34:
	.loc 1 131 0
	addl	$16, %esp
	.loc 1 127 0
	movl	%eax, %ebx
.LVL35:
	.loc 1 132 0
	testl	%eax, %eax
	cmove	16(%ebp), %ebx
.L29:
.LVL36:
	.loc 1 137 0
	movl	(%esi), %eax
	subl	$12, %esp
	addl	$20, %eax
	pushl	%eax
	call	aos_mutex_unlock
.LVL37:
	addl	$16, %esp
	jmp	.L28
.LVL38:
.L31:
	.loc 1 139 0
	movl	$-22, %ebx
.LVL39:
.L28:
	.loc 1 143 0
	leal	-12(%ebp), %esp
	movl	%ebx, %eax
	popl	%ebx
	.cfi_restore 3
.LVL40:
	popl	%esi
	.cfi_restore 6
	popl	%edi
	.cfi_restore 7
	popl	%ebp
	.cfi_restore 5
	.cfi_def_cfa 4, 4
	ret
	.cfi_endproc
.LFE25:
	.size	vfs_rtc_write, .-vfs_rtc_write
	.section	.text.unlikely.vfs_rtc_write
.LCOLDE3:
	.section	.text.vfs_rtc_write
.LHOTE3:
	.globl	rtc_ops
	.section	.rodata.rtc_ops,"a",@progbits
	.align 4
	.type	rtc_ops, @object
	.size	rtc_ops, 20
rtc_ops:
	.long	vfs_rtc_open
	.long	vfs_rtc_close
	.long	vfs_rtc_read
	.long	vfs_rtc_write
	.zero	4
	.text
.Letext0:
	.section	.text.unlikely.vfs_rtc_open
.Letext_cold0:
	.file 2 "/home/stone/Documents/Ali_IOT/build/compiler/gcc-arm-none-eabi/Linux64/arm-none-eabi/include/machine/_default_types.h"
	.file 3 "/home/stone/Documents/Ali_IOT/build/compiler/gcc-arm-none-eabi/Linux64/arm-none-eabi/include/sys/_stdint.h"
	.file 4 "/home/stone/Documents/Ali_IOT/build/compiler/gcc-arm-none-eabi/Linux64/lib/gcc/arm-none-eabi/5.4.1/include/stddef.h"
	.file 5 "/home/stone/Documents/Ali_IOT/build/compiler/gcc-arm-none-eabi/Linux64/arm-none-eabi/include/sys/_types.h"
	.file 6 "/home/stone/Documents/Ali_IOT/build/compiler/gcc-arm-none-eabi/Linux64/arm-none-eabi/include/sys/_timeval.h"
	.file 7 "/home/stone/Documents/Ali_IOT/build/compiler/gcc-arm-none-eabi/Linux64/arm-none-eabi/include/sys/types.h"
	.file 8 "/home/stone/Documents/Ali_IOT/build/compiler/gcc-arm-none-eabi/Linux64/arm-none-eabi/include/sys/stat.h"
	.file 9 "./include/aos/kernel.h"
	.file 10 "./include/aos/vfs.h"
	.file 11 "././kernel/vfs/device/../include/vfs_inode.h"
	.file 12 "./include/hal/soc/rtc.h"
	.file 13 "./include/aos/log.h"
	.section	.note.GNU-stack,"",@progbits
