	.file	"work.c"
	.text
.Ltext0:
	.section	.text.unlikely.k_work_submit_to_queue,"ax",@progbits
.LCOLDB0:
	.section	.text.k_work_submit_to_queue,"ax",@progbits
.LHOTB0:
	.section	.text.unlikely.k_work_submit_to_queue
.Ltext_cold0:
	.section	.text.k_work_submit_to_queue
	.type	k_work_submit_to_queue, @function
k_work_submit_to_queue:
.LFB60:
	.file 1 "src/work.c"
	.loc 1 2867 0
	.cfi_startproc
.LVL0:
	pushl	%ebp
	.cfi_def_cfa_offset 8
	.cfi_offset 5, -8
	movl	%esp, %ebp
	.cfi_def_cfa_register 5
	pushl	%esi
	.cfi_offset 6, -12
	movl	%eax, %esi
	.loc 1 2868 0
	leal	8(%edx), %eax
.LVL1:
	.loc 1 2867 0
	pushl	%ebx
	.cfi_offset 3, -16
.LBB4:
.LBB5:
	.loc 1 864 0
	pushl	%ecx
	pushl	%ecx
	pushl	$1
.LBE5:
.LBE4:
	.loc 1 2867 0
	movl	%edx, %ebx
.LBB7:
.LBB6:
	.loc 1 864 0
	pushl	%eax
	call	atomic_or
.LVL2:
.LBE6:
.LBE7:
	.loc 1 2868 0
	addl	$16, %esp
	testb	$1, %al
	jne	.L1
	.loc 1 2869 0
	pushl	%eax
	pushl	%eax
	pushl	%ebx
	pushl	%esi
	call	k_queue_append
.LVL3:
	addl	$16, %esp
.L1:
	.loc 1 2871 0
	leal	-8(%ebp), %esp
	popl	%ebx
	.cfi_restore 3
.LVL4:
	popl	%esi
	.cfi_restore 6
.LVL5:
	popl	%ebp
	.cfi_restore 5
	.cfi_def_cfa 4, 4
	ret
	.cfi_endproc
.LFE60:
	.size	k_work_submit_to_queue, .-k_work_submit_to_queue
	.section	.text.unlikely.k_work_submit_to_queue
.LCOLDE0:
	.section	.text.k_work_submit_to_queue
.LHOTE0:
	.section	.text.unlikely.work_timeout,"ax",@progbits
.LCOLDB1:
	.section	.text.work_timeout,"ax",@progbits
.LHOTB1:
	.type	work_timeout, @function
work_timeout:
.LFB65:
	.loc 1 2909 0
	.cfi_startproc
.LVL6:
	pushl	%ebp
	.cfi_def_cfa_offset 8
	.cfi_offset 5, -8
	movl	%esp, %ebp
	.cfi_def_cfa_register 5
	pushl	%ebx
	subl	$16, %esp
	.cfi_offset 3, -12
	.loc 1 2909 0
	movl	12(%ebp), %ebx
.LVL7:
	.loc 1 2911 0
	leal	16(%ebx), %eax
	pushl	%eax
	call	k_timer_stop
.LVL8:
	.loc 1 2912 0
	movl	12(%ebx), %eax
	movl	%ebx, %edx
	call	k_work_submit_to_queue
.LVL9:
	.loc 1 2913 0
	movl	$0, 12(%ebx)
	.loc 1 2916 0
	addl	$16, %esp
	movl	-4(%ebp), %ebx
.LVL10:
	leave
	.cfi_restore 5
	.cfi_restore 3
	.cfi_def_cfa 4, 4
	ret
	.cfi_endproc
.LFE65:
	.size	work_timeout, .-work_timeout
	.section	.text.unlikely.work_timeout
.LCOLDE1:
	.section	.text.work_timeout
.LHOTE1:
	.section	.text.unlikely.work_queue_thread,"ax",@progbits
.LCOLDB2:
	.section	.text.work_queue_thread,"ax",@progbits
.LHOTB2:
	.type	work_queue_thread, @function
work_queue_thread:
.LFB61:
	.loc 1 2873 0
	.cfi_startproc
.LVL11:
	pushl	%ebp
	.cfi_def_cfa_offset 8
	.cfi_offset 5, -8
	movl	%esp, %ebp
	.cfi_def_cfa_register 5
	pushl	%ebx
	.cfi_offset 3, -12
	pushl	%ebx
.L9:
	.loc 1 2877 0
	pushl	%eax
	pushl	%eax
	pushl	$-1
	pushl	$g_work_queue_main
	call	k_queue_get
.LVL12:
.LBB10:
.LBB11:
	.loc 1 857 0
	popl	%edx
	popl	%ecx
.LBE11:
.LBE10:
	.loc 1 2877 0
	movl	%eax, %ebx
.LVL13:
	.loc 1 2878 0
	addl	$8, %eax
.LVL14:
.LBB13:
.LBB12:
	.loc 1 857 0
	pushl	$-2
	pushl	%eax
	call	atomic_and
.LVL15:
.LBE12:
.LBE13:
	.loc 1 2878 0
	addl	$16, %esp
	testb	$1, %al
	je	.L8
	.loc 1 2879 0
	subl	$12, %esp
	pushl	%ebx
	call	*4(%ebx)
.LVL16:
	addl	$16, %esp
.L8:
	.loc 1 2881 0
	call	k_yield
.LVL17:
	.loc 1 2882 0
	jmp	.L9
	.cfi_endproc
.LFE61:
	.size	work_queue_thread, .-work_queue_thread
	.section	.text.unlikely.work_queue_thread
.LCOLDE2:
	.section	.text.work_queue_thread
.LHOTE2:
	.section	.text.unlikely.k_work_q_start,"ax",@progbits
.LCOLDB3:
	.section	.text.k_work_q_start,"ax",@progbits
.LHOTB3:
	.globl	k_work_q_start
	.type	k_work_q_start, @function
k_work_q_start:
.LFB62:
	.loc 1 2885 0
	.cfi_startproc
	pushl	%ebp
	.cfi_def_cfa_offset 8
	.cfi_offset 5, -8
	movl	%esp, %ebp
	.cfi_def_cfa_register 5
	subl	$20, %esp
	.loc 1 2886 0
	pushl	$g_work_queue_main
	call	k_queue_init
.LVL18:
	.loc 1 2887 0
	popl	%eax
	popl	%edx
	pushl	$0
	pushl	$0
	pushl	$41
	pushl	$0
	pushl	$0
	pushl	$0
	pushl	$work_queue_thread
	pushl	$2048
	pushl	$work_q_stack
	pushl	$work_q_thread
	call	k_thread_create
.LVL19:
	.loc 1 2896 0
	leave
	.cfi_restore 5
	.cfi_def_cfa 4, 4
	ret
	.cfi_endproc
.LFE62:
	.size	k_work_q_start, .-k_work_q_start
	.section	.text.unlikely.k_work_q_start
.LCOLDE3:
	.section	.text.k_work_q_start
.LHOTE3:
	.section	.text.unlikely.k_work_init,"ax",@progbits
.LCOLDB4:
	.section	.text.k_work_init,"ax",@progbits
.LHOTB4:
	.globl	k_work_init
	.type	k_work_init, @function
k_work_init:
.LFB63:
	.loc 1 2898 0
	.cfi_startproc
.LVL20:
	pushl	%ebp
	.cfi_def_cfa_offset 8
	.cfi_offset 5, -8
	movl	%esp, %ebp
	.cfi_def_cfa_register 5
	pushl	%ebx
	subl	$12, %esp
	.cfi_offset 3, -12
	.loc 1 2898 0
	movl	8(%ebp), %ebx
.LVL21:
.LBB16:
.LBB17:
	.loc 1 870 0
	pushl	$-2
.LBE17:
.LBE16:
	.loc 1 2900 0
	leal	8(%ebx), %eax
.LVL22:
.LBB19:
.LBB18:
	.loc 1 870 0
	pushl	%eax
	call	atomic_and
.LVL23:
.LBE18:
.LBE19:
	.loc 1 2901 0
	movl	12(%ebp), %eax
	movl	%eax, 4(%ebx)
	.loc 1 2903 0
	xorl	%eax, %eax
	movl	-4(%ebp), %ebx
	leave
	.cfi_restore 5
	.cfi_restore 3
	.cfi_def_cfa 4, 4
	ret
	.cfi_endproc
.LFE63:
	.size	k_work_init, .-k_work_init
	.section	.text.unlikely.k_work_init
.LCOLDE4:
	.section	.text.k_work_init
.LHOTE4:
	.section	.text.unlikely.k_work_submit,"ax",@progbits
.LCOLDB5:
	.section	.text.k_work_submit,"ax",@progbits
.LHOTB5:
	.globl	k_work_submit
	.type	k_work_submit, @function
k_work_submit:
.LFB64:
	.loc 1 2905 0
	.cfi_startproc
.LVL24:
	pushl	%ebp
	.cfi_def_cfa_offset 8
	.cfi_offset 5, -8
	.loc 1 2906 0
	movl	$g_work_queue_main, %eax
	.loc 1 2905 0
	movl	%esp, %ebp
	.cfi_def_cfa_register 5
	.loc 1 2906 0
	movl	8(%ebp), %edx
	.loc 1 2907 0
	popl	%ebp
	.cfi_restore 5
	.cfi_def_cfa 4, 4
	.loc 1 2906 0
	jmp	k_work_submit_to_queue
.LVL25:
	.cfi_endproc
.LFE64:
	.size	k_work_submit, .-k_work_submit
	.section	.text.unlikely.k_work_submit
.LCOLDE5:
	.section	.text.k_work_submit
.LHOTE5:
	.section	.text.unlikely.k_delayed_work_init,"ax",@progbits
.LCOLDB6:
	.section	.text.k_delayed_work_init,"ax",@progbits
.LHOTB6:
	.globl	k_delayed_work_init
	.type	k_delayed_work_init, @function
k_delayed_work_init:
.LFB66:
	.loc 1 2918 0
	.cfi_startproc
.LVL26:
	pushl	%ebp
	.cfi_def_cfa_offset 8
	.cfi_offset 5, -8
	movl	%esp, %ebp
	.cfi_def_cfa_register 5
	pushl	%ebx
	subl	$12, %esp
	.cfi_offset 3, -12
	.loc 1 2918 0
	movl	8(%ebp), %ebx
	.loc 1 2920 0
	pushl	12(%ebp)
	pushl	%ebx
	call	k_work_init
.LVL27:
	.loc 1 2921 0
	leal	16(%ebx), %eax
	addl	$12, %esp
	pushl	%ebx
	pushl	$work_timeout
	pushl	%eax
	call	k_timer_init
.LVL28:
	.loc 1 2922 0
	movl	$0, 12(%ebx)
	.loc 1 2925 0
	addl	$16, %esp
	movl	-4(%ebp), %ebx
	leave
	.cfi_restore 5
	.cfi_restore 3
	.cfi_def_cfa 4, 4
	ret
	.cfi_endproc
.LFE66:
	.size	k_delayed_work_init, .-k_delayed_work_init
	.section	.text.unlikely.k_delayed_work_init
.LCOLDE6:
	.section	.text.k_delayed_work_init
.LHOTE6:
	.section	.text.unlikely.k_delayed_work_cancel,"ax",@progbits
.LCOLDB7:
	.section	.text.k_delayed_work_cancel,"ax",@progbits
.LHOTB7:
	.globl	k_delayed_work_cancel
	.type	k_delayed_work_cancel, @function
k_delayed_work_cancel:
.LFB69:
	.loc 1 2961 0
	.cfi_startproc
.LVL29:
	pushl	%ebp
	.cfi_def_cfa_offset 8
	.cfi_offset 5, -8
	movl	%esp, %ebp
	.cfi_def_cfa_register 5
	pushl	%edi
	pushl	%esi
	pushl	%ebx
	.cfi_offset 7, -12
	.cfi_offset 6, -16
	.cfi_offset 3, -20
	.loc 1 2965 0
	movl	$-68, %esi
	.loc 1 2961 0
	subl	$12, %esp
	.loc 1 2961 0
	movl	8(%ebp), %ebx
	.loc 1 2963 0
	call	irq_lock
.LVL30:
	movl	%eax, %edi
.LVL31:
.LBB22:
.LBB23:
	.loc 1 850 0
	subl	$12, %esp
.LBE23:
.LBE22:
	.loc 1 2964 0
	leal	8(%ebx), %eax
.LVL32:
.LBB25:
.LBB24:
	.loc 1 850 0
	pushl	%eax
	call	atomic_get
.LVL33:
.LBE24:
.LBE25:
	.loc 1 2964 0
	addl	$16, %esp
	testb	$1, %al
	jne	.L23
	.loc 1 2968 0
	cmpl	$0, 12(%ebx)
	.loc 1 2969 0
	movl	$-22, %esi
	.loc 1 2968 0
	je	.L23
	.loc 1 2972 0
	leal	16(%ebx), %eax
	subl	$12, %esp
	.loc 1 2962 0
	xorl	%esi, %esi
	.loc 1 2972 0
	pushl	%eax
	call	k_timer_stop
.LVL34:
	.loc 1 2973 0
	movl	$0, 12(%ebx)
	addl	$16, %esp
.L23:
.LVL35:
	.loc 1 2977 0
	subl	$12, %esp
	pushl	%edi
	call	irq_unlock
.LVL36:
	.loc 1 2979 0
	leal	-12(%ebp), %esp
	movl	%esi, %eax
	popl	%ebx
	.cfi_restore 3
	popl	%esi
	.cfi_restore 6
.LVL37:
	popl	%edi
	.cfi_restore 7
.LVL38:
	popl	%ebp
	.cfi_restore 5
	.cfi_def_cfa 4, 4
	ret
	.cfi_endproc
.LFE69:
	.size	k_delayed_work_cancel, .-k_delayed_work_cancel
	.section	.text.unlikely.k_delayed_work_cancel
.LCOLDE7:
	.section	.text.k_delayed_work_cancel
.LHOTE7:
	.section	.text.unlikely.k_delayed_work_submit,"ax",@progbits
.LCOLDB8:
	.section	.text.k_delayed_work_submit,"ax",@progbits
.LHOTB8:
	.globl	k_delayed_work_submit
	.type	k_delayed_work_submit, @function
k_delayed_work_submit:
.LFB68:
	.loc 1 2957 0
	.cfi_startproc
.LVL39:
	pushl	%ebp
	.cfi_def_cfa_offset 8
	.cfi_offset 5, -8
	movl	%esp, %ebp
	.cfi_def_cfa_register 5
	pushl	%edi
	pushl	%esi
	pushl	%ebx
	subl	$28, %esp
	.cfi_offset 7, -12
	.cfi_offset 6, -16
	.cfi_offset 3, -20
	.loc 1 2957 0
	movl	8(%ebp), %ebx
.LVL40:
	movl	12(%ebp), %edi
.LVL41:
.LBB28:
.LBB29:
	.loc 1 2930 0
	call	irq_lock
.LVL42:
	movl	%eax, %esi
.LVL43:
	.loc 1 2932 0
	movl	12(%ebx), %edx
	testl	%edx, %edx
	jne	.L28
.LVL44:
.L32:
	.loc 1 2943 0
	testl	%edi, %edi
	.loc 1 2942 0
	movl	$g_work_queue_main, 12(%ebx)
	.loc 1 2943 0
	jne	.L34
	.loc 1 2944 0
	movl	%ebx, %edx
	movl	$g_work_queue_main, %eax
	call	k_work_submit_to_queue
.LVL45:
	.loc 1 2945 0
	movl	$0, 12(%ebx)
	jmp	.L36
.LVL46:
.L28:
	.loc 1 2932 0
	cmpl	$g_work_queue_main, %edx
	.loc 1 2933 0
	movl	$-48, %eax
.LVL47:
	.loc 1 2932 0
	jne	.L31
	.loc 1 2937 0
	subl	$12, %esp
	pushl	%ebx
	call	k_delayed_work_cancel
.LVL48:
	.loc 1 2938 0
	addl	$16, %esp
	testl	%eax, %eax
	jns	.L32
	jmp	.L31
.LVL49:
.L34:
	.loc 1 2949 0
	addl	$16, %ebx
.LVL50:
	pushl	%eax
	pushl	%eax
	pushl	%edi
	pushl	%ebx
	call	k_timer_start
.LVL51:
	addl	$16, %esp
.L36:
	.loc 1 2951 0
	xorl	%eax, %eax
.L31:
	.loc 1 2953 0
	subl	$12, %esp
	movl	%eax, -28(%ebp)
.LVL52:
	pushl	%esi
	call	irq_unlock
.LVL53:
.LBE29:
.LBE28:
	.loc 1 2959 0
	movl	-28(%ebp), %eax
	leal	-12(%ebp), %esp
	popl	%ebx
	.cfi_restore 3
	popl	%esi
	.cfi_restore 6
.LVL54:
	popl	%edi
	.cfi_restore 7
	popl	%ebp
	.cfi_restore 5
	.cfi_def_cfa 4, 4
	ret
	.cfi_endproc
.LFE68:
	.size	k_delayed_work_submit, .-k_delayed_work_submit
	.section	.text.unlikely.k_delayed_work_submit
.LCOLDE8:
	.section	.text.k_delayed_work_submit
.LHOTE8:
	.section	.text.unlikely.k_delayed_work_remaining_get,"ax",@progbits
.LCOLDB9:
	.section	.text.k_delayed_work_remaining_get,"ax",@progbits
.LHOTB9:
	.globl	k_delayed_work_remaining_get
	.type	k_delayed_work_remaining_get, @function
k_delayed_work_remaining_get:
.LFB70:
	.loc 1 2981 0
	.cfi_startproc
.LVL55:
	pushl	%ebp
	.cfi_def_cfa_offset 8
	.cfi_offset 5, -8
	xorl	%eax, %eax
	movl	%esp, %ebp
	.cfi_def_cfa_register 5
	pushl	%esi
	pushl	%ebx
	.cfi_offset 6, -12
	.cfi_offset 3, -16
	.loc 1 2981 0
	movl	8(%ebp), %edx
	.loc 1 2984 0
	testl	%edx, %edx
	je	.L38
.LVL56:
	.loc 1 2990 0
	movl	28(%edx), %esi
	movl	32(%edx), %ebx
	call	aos_now_ms
.LVL57:
	leal	(%esi,%ebx), %edx
	subl	%eax, %edx
.LVL58:
	movl	%edx, %eax
	movl	$0, %edx
.LVL59:
	cmovs	%edx, %eax
.LVL60:
.L38:
	.loc 1 2995 0
	popl	%ebx
	.cfi_restore 3
	popl	%esi
	.cfi_restore 6
	popl	%ebp
	.cfi_restore 5
	.cfi_def_cfa 4, 4
	ret
	.cfi_endproc
.LFE70:
	.size	k_delayed_work_remaining_get, .-k_delayed_work_remaining_get
	.section	.text.unlikely.k_delayed_work_remaining_get
.LCOLDE9:
	.section	.text.k_delayed_work_remaining_get
.LHOTE9:
	.section	.bss.g_work_queue_main,"aw",@nobits
	.align 4
	.type	g_work_queue_main, @object
	.size	g_work_queue_main, 12
g_work_queue_main:
	.zero	12
	.section	.bss.work_q_stack,"aw",@nobits
	.align 32
	.type	work_q_stack, @object
	.size	work_q_stack, 2048
work_q_stack:
	.zero	2048
	.section	.bss.work_q_thread,"aw",@nobits
	.align 4
	.type	work_q_thread, @object
	.size	work_q_thread, 4
work_q_thread:
	.zero	4
	.text
.Letext0:
	.section	.text.unlikely.k_work_submit_to_queue
.Letext_cold0:
	.section	.note.GNU-stack,"",@progbits
