	.file	"work_queue.c"
	.text
.Ltext0:
	.section	.rodata.str1.1,"aMS",@progbits,1
.LC2:
	.string	""
.LC3:
	.string	"work queue: idle..."
	.section	.text.unlikely.worker_thread,"ax",@progbits
.LCOLDB4:
	.section	.text.worker_thread,"ax",@progbits
.LHOTB4:
	.section	.text.unlikely.worker_thread
.Ltext_cold0:
	.section	.text.worker_thread
	.type	worker_thread, @function
worker_thread:
.LFB31:
	.file 1 "framework/protocol/linkkit/iotkit/base/utils//misc/work_queue.c"
	.loc 1 205 0
	.cfi_startproc
.LVL0:
	pushl	%ebp
	.cfi_def_cfa_offset 8
	.cfi_offset 5, -8
	movl	%esp, %ebp
	.cfi_def_cfa_register 5
	pushl	%edi
	pushl	%esi
	pushl	%ebx
	subl	$28, %esp
	.cfi_offset 7, -12
	.cfi_offset 6, -16
	.cfi_offset 3, -20
	.loc 1 211 0
	pushl	$.LC2
	pushl	$5
	pushl	$211
	pushl	$__FUNCTION__.3562
	call	LITE_syslog
.LVL1:
	.loc 1 214 0
	addl	$16, %esp
	.loc 1 208 0
	movl	$-1, -28(%ebp)
.LVL2:
.L2:
	.loc 1 214 0
	cmpl	$1, g_wq_state
	jne	.L21
	.loc 1 216 0
	call	HAL_UptimeMs
.LVL3:
	.loc 1 217 0
	pushl	%ecx
	pushl	%ecx
	.loc 1 216 0
	movl	%edx, %edi
	.loc 1 217 0
	pushl	-28(%ebp)
	pushl	g_wq_sem
	.loc 1 216 0
	movl	%eax, %esi
.LVL4:
	.loc 1 217 0
	call	HAL_SemaphoreWait
.LVL5:
.LBB71:
.LBB72:
	.loc 1 74 0
	call	HAL_UptimeMs
.LVL6:
.LBE72:
.LBE71:
	.loc 1 224 0
	popl	%ebx
.LBB76:
.LBB73:
	.loc 1 76 0
	subl	%esi, %eax
.LVL7:
.LBE73:
.LBE76:
	.loc 1 224 0
	pushl	g_wq_mutex
.LBB77:
.LBB74:
	.loc 1 76 0
	sbbl	%edi, %edx
	movl	%eax, -40(%ebp)
.LBE74:
.LBE77:
	.loc 1 222 0
	orl	$-1, %edi
.LBB78:
.LBB75:
	.loc 1 76 0
	movl	%edx, -36(%ebp)
.LVL8:
.LBE75:
.LBE78:
	.loc 1 220 0
	xorl	%ebx, %ebx
	.loc 1 224 0
	call	HAL_MutexLock
.LVL9:
	.loc 1 225 0
	movl	g_wq_list, %esi
.LVL10:
	addl	$16, %esp
	.loc 1 221 0
	movl	$127, %ecx
	.loc 1 222 0
	movl	$-1, -28(%ebp)
.LVL11:
.L3:
	.loc 1 225 0 discriminator 1
	cmpl	$g_wq_list, %esi
	je	.L22
	.loc 1 228 0
	xorl	%edx, %edx
	cmpl	-36(%ebp), %edx
	movl	16(%esi), %eax
	ja	.L4
	jb	.L17
	cmpl	-40(%ebp), %eax
	ja	.L4
.L17:
	.loc 1 229 0
	movl	$0, 16(%esi)
.L4:
	.loc 1 233 0
	movl	16(%esi), %eax
	testl	%eax, %eax
	je	.L6
.LVL12:
	.loc 1 234 0
	jns	.L7
.LVL13:
.LBB79:
.LBB80:
	.loc 1 92 0
	andl	$2147483647, %eax
	jmp	.L19
.LVL14:
.L7:
.LBE80:
.LBE79:
	.loc 1 237 0
	subl	-40(%ebp), %eax
.L19:
	.loc 1 239 0
	xorl	%edx, %edx
	cmpl	$0, %edi
	.loc 1 237 0
	movl	%eax, 16(%esi)
	.loc 1 239 0
	movl	16(%esi), %eax
	ja	.L10
	cmpl	%eax, -28(%ebp)
	jbe	.L11
.L10:
	movl	%eax, -28(%ebp)
	movl	%edx, %edi
	jmp	.L11
.LVL15:
.L6:
	.loc 1 242 0
	movsbl	20(%esi), %eax
	cmpl	%eax, %ecx
	jle	.L11
	movl	%eax, %ecx
.LVL16:
	movl	%esi, %ebx
.LVL17:
.L11:
	.loc 1 225 0 discriminator 2
	movl	(%esi), %esi
.LVL18:
	jmp	.L3
.L22:
	.loc 1 248 0
	subl	$12, %esp
	pushl	g_wq_mutex
	call	HAL_MutexUnlock
.LVL19:
	.loc 1 250 0
	addl	$16, %esp
	testl	%ebx, %ebx
	je	.L13
	.loc 1 252 0
	subl	$12, %esp
	pushl	g_wq_mutex
	call	HAL_MutexLock
.LVL20:
.LBB81:
.LBB82:
	.file 2 "./framework/protocol/linkkit/iotkit/base/utils/LITE-utils/src/lite-list.h"
	.loc 2 121 0
	movl	(%ebx), %edx
	movl	4(%ebx), %eax
.LVL21:
.LBB83:
.LBB84:
	.loc 2 104 0
	movl	%eax, 4(%edx)
	.loc 2 105 0
	movl	%edx, (%eax)
.LVL22:
.LBE84:
.LBE83:
.LBE82:
.LBE81:
	.loc 1 254 0
	call	HAL_UptimeMs
.LVL23:
	.loc 1 256 0
	popl	%edx
	pushl	g_wq_mutex
	.loc 1 254 0
	movl	%eax, g_wq_timestamp
	.loc 1 255 0
	movl	%ebx, g_wq_current
	.loc 1 256 0
	call	HAL_MutexUnlock
.LVL24:
	.loc 1 258 0
	movl	%ebx, (%esp)
	call	*8(%ebx)
.LVL25:
	.loc 1 260 0
	movl	$0, g_wq_current
.LVL26:
	addl	$16, %esp
	.loc 1 261 0
	movl	$0, -28(%ebp)
	jmp	.L2
.LVL27:
.L13:
	.loc 1 262 0
	incl	%edi
	jne	.L2
	cmpl	$-1, -28(%ebp)
	jne	.L2
	.loc 1 266 0
	pushl	$.LC3
	pushl	$4
	pushl	$266
	pushl	$__FUNCTION__.3562
	call	LITE_syslog
.LVL28:
	addl	$16, %esp
	jmp	.L2
.LVL29:
.L21:
	.loc 1 270 0
	pushl	$.LC2
	pushl	$5
	pushl	$270
	pushl	$__FUNCTION__.3562
	call	LITE_syslog
.LVL30:
	.loc 1 272 0
	popl	%eax
	pushl	g_wq_thread
	call	HAL_ThreadDetach
.LVL31:
	.loc 1 274 0
	leal	-12(%ebp), %esp
	xorl	%eax, %eax
	popl	%ebx
	.cfi_restore 3
	popl	%esi
	.cfi_restore 6
	popl	%edi
	.cfi_restore 7
	popl	%ebp
	.cfi_restore 5
	.cfi_def_cfa 4, 4
	ret
	.cfi_endproc
.LFE31:
	.size	worker_thread, .-worker_thread
	.section	.text.unlikely.worker_thread
.LCOLDE4:
	.section	.text.worker_thread
.LHOTE4:
	.section	.rodata.str1.1
.LC5:
	.string	"work %s is working, wait it exit"
	.section	.text.unlikely.cancel_work,"ax",@progbits
.LCOLDB6:
	.section	.text.cancel_work,"ax",@progbits
.LHOTB6:
	.globl	cancel_work
	.type	cancel_work, @function
cancel_work:
.LFB30:
	.loc 1 174 0
	.cfi_startproc
.LVL32:
	xorl	%eax, %eax
	.loc 1 178 0
	cmpl	$1, g_wq_state
	.loc 1 174 0
	pushl	%ebp
	.cfi_def_cfa_offset 8
	.cfi_offset 5, -8
	movl	%esp, %ebp
	.cfi_def_cfa_register 5
	pushl	%esi
	pushl	%ebx
	.cfi_offset 6, -12
	.cfi_offset 3, -16
	.loc 1 174 0
	movl	8(%ebp), %ebx
	.loc 1 178 0
	jne	.L24
	movl	$3, %esi
.LVL33:
.L31:
	.loc 1 183 0
	subl	$12, %esp
	pushl	g_wq_mutex
	call	HAL_MutexLock
.LVL34:
	.loc 1 184 0
	movl	g_wq_list, %eax
.LVL35:
	addl	$16, %esp
.L25:
	.loc 1 184 0 is_stmt 0 discriminator 1
	cmpl	$g_wq_list, %eax
	je	.L27
	.loc 1 185 0 is_stmt 1
	cmpl	%ebx, %eax
	jne	.L26
.LVL36:
.LBB91:
.LBB92:
	.loc 2 121 0
	movl	(%ebx), %edx
	movl	4(%ebx), %eax
.LVL37:
.LBE92:
.LBE91:
	.loc 1 187 0
	movl	$1, %esi
.LVL38:
.LBB96:
.LBB95:
.LBB93:
.LBB94:
	.loc 2 104 0
	movl	%eax, 4(%edx)
	.loc 2 105 0
	movl	%edx, (%eax)
.LVL39:
	jmp	.L27
.LVL40:
.L26:
.LBE94:
.LBE93:
.LBE95:
.LBE96:
	.loc 1 184 0 discriminator 2
	movl	(%eax), %eax
.LVL41:
	jmp	.L25
.LVL42:
.L27:
	.loc 1 191 0
	subl	$12, %esp
	pushl	g_wq_mutex
	call	HAL_MutexUnlock
.LVL43:
	.loc 1 193 0
	addl	$16, %esp
	cmpl	g_wq_current, %ebx
	jne	.L33
	.loc 1 194 0
	subl	$12, %esp
	pushl	24(%ebx)
	pushl	$.LC5
	pushl	$4
	pushl	$194
	pushl	$__FUNCTION__.3549
	call	LITE_syslog
.LVL44:
	.loc 1 195 0
	addl	$32, %esp
.L29:
	cmpl	g_wq_current, %ebx
	jne	.L31
	.loc 1 196 0
	subl	$12, %esp
	pushl	$100
	call	HAL_SleepMs
.LVL45:
	addl	$16, %esp
	jmp	.L29
.L33:
	movl	%esi, %eax
.LVL46:
.L24:
	.loc 1 201 0
	leal	-8(%ebp), %esp
	popl	%ebx
	.cfi_restore 3
	popl	%esi
	.cfi_restore 6
	popl	%ebp
	.cfi_restore 5
	.cfi_def_cfa 4, 4
	ret
	.cfi_endproc
.LFE30:
	.size	cancel_work, .-cancel_work
	.section	.text.unlikely.cancel_work
.LCOLDE6:
	.section	.text.cancel_work
.LHOTE6:
	.section	.rodata.str1.1
.LC8:
	.string	"thread create failed!"
.LC9:
	.string	"#####assert failed!######\r\n"
.LC0:
	.string	"work_queue"
	.section	.rodata
	.align 4
.LC7:
	.long	0
	.long	0
	.long	2048
	.long	0
	.long	.LC0
	.section	.text.unlikely.work_queue_init,"ax",@progbits
.LCOLDB10:
	.section	.text.work_queue_init,"ax",@progbits
.LHOTB10:
	.globl	work_queue_init
	.type	work_queue_init, @function
work_queue_init:
.LFB32:
	.loc 1 277 0
	.cfi_startproc
	pushl	%ebp
	.cfi_def_cfa_offset 8
	.cfi_offset 5, -8
	movl	%esp, %ebp
	.cfi_def_cfa_register 5
	pushl	%edi
	pushl	%esi
	subl	$32, %esp
	.cfi_offset 7, -12
	.cfi_offset 6, -16
	.loc 1 277 0
	movl	%gs:20, %eax
	movl	%eax, -12(%ebp)
	xorl	%eax, %eax
.LVL47:
	.loc 1 279 0
	cmpl	$1, g_wq_state
	je	.L37
	.loc 1 282 0
	call	HAL_SemaphoreCreate
.LVL48:
	movl	%eax, g_wq_sem
	.loc 1 288 0
	leal	-32(%ebp), %edi
	movl	$.LC7, %esi
	.loc 1 283 0
	call	HAL_MutexCreate
.LVL49:
	movl	%eax, g_wq_mutex
.LVL50:
	.loc 1 297 0
	leal	-36(%ebp), %eax
	subl	$12, %esp
	.loc 1 288 0
	movl	$5, %ecx
.LBB111:
.LBB112:
	.loc 2 48 0
	movl	$g_wq_list, g_wq_list
	.loc 2 49 0
	movl	$g_wq_list, g_wq_list+4
.LVL51:
.LBE112:
.LBE111:
	.loc 1 288 0
	rep movsl
	.loc 1 297 0
	pushl	%eax
	leal	-32(%ebp), %eax
.LBB113:
.LBB114:
	.loc 1 50 0
	movl	$1, g_wq_state
.LBE114:
.LBE113:
	.loc 1 296 0
	movl	$0, -36(%ebp)
	.loc 1 297 0
	pushl	%eax
	pushl	$0
	pushl	$worker_thread
	pushl	$g_wq_thread
	call	HAL_ThreadCreate
.LVL52:
	.loc 1 298 0
	addl	$32, %esp
	testl	%eax, %eax
	je	.L37
.LBB115:
.LBB116:
	pushl	$.LC8
	pushl	$2
	pushl	$298
	pushl	$__FUNCTION__.3575
	call	LITE_syslog
.LVL53:
.L44:
	addl	$16, %esp
	pushl	$.LC9
	pushl	$2
	pushl	$298
	pushl	$__FUNCTION__.3575
	call	LITE_syslog
.LVL54:
	movl	$1000, (%esp)
	call	HAL_SleepMs
.LVL55:
	jmp	.L44
.L37:
.LBE116:
.LBE115:
	.loc 1 301 0
	xorl	%eax, %eax
	movl	-12(%ebp), %edx
	xorl	%gs:20, %edx
	je	.L39
	call	__stack_chk_fail
.LVL56:
.L39:
	leal	-8(%ebp), %esp
	popl	%esi
	.cfi_restore 6
	popl	%edi
	.cfi_restore 7
	popl	%ebp
	.cfi_restore 5
	.cfi_def_cfa 4, 4
	ret
	.cfi_endproc
.LFE32:
	.size	work_queue_init, .-work_queue_init
	.section	.text.unlikely.work_queue_init
.LCOLDE10:
	.section	.text.work_queue_init
.LHOTE10:
	.section	.rodata.str1.1
.LC11:
	.string	"work %s block > %d ms!!!"
	.section	.text.unlikely.queue_work,"ax",@progbits
.LCOLDB12:
	.section	.text.queue_work,"ax",@progbits
.LHOTB12:
	.globl	queue_work
	.type	queue_work, @function
queue_work:
.LFB28:
	.loc 1 103 0
	.cfi_startproc
.LVL57:
	pushl	%ebp
	.cfi_def_cfa_offset 8
	.cfi_offset 5, -8
	movl	$1, %eax
	movl	%esp, %ebp
	.cfi_def_cfa_register 5
	pushl	%edi
	pushl	%esi
	pushl	%ebx
	subl	$12, %esp
	.cfi_offset 7, -12
	.cfi_offset 6, -16
	.cfi_offset 3, -20
.LBB131:
.LBB132:
	.loc 1 48 0
	movl	g_wq_state, %edx
.LBE132:
.LBE131:
	.loc 1 103 0
	movl	8(%ebp), %ebx
	.loc 1 107 0
	testl	%edx, %edx
	je	.L46
	.loc 1 110 0
	incl	%edx
	jne	.L47
	.loc 1 111 0
	call	work_queue_init
.LVL58:
.L47:
.LBB133:
.LBB134:
	.loc 1 113 0
	cmpl	$0, g_wq_current
	je	.L49
	movl	g_wq_timestamp, %esi
	xorl	%edi, %edi
.LVL59:
.LBB135:
.LBB136:
	.loc 1 74 0
	call	HAL_UptimeMs
.LVL60:
.LBE136:
.LBE135:
	.loc 1 113 0
	subl	%esi, %eax
	sbbl	%edi, %edx
	cmpl	$0, %edx
	ja	.L60
	cmpl	$10000, %eax
	jbe	.L49
.L60:
	.loc 1 114 0
	movl	g_wq_current, %eax
	.loc 1 114 0
	movl	24(%eax), %eax
	pushl	%edx
	pushl	%edx
	pushl	$10000
	pushl	%eax
	pushl	$.LC11
	pushl	$2
	pushl	$115
	pushl	$__FUNCTION__.3530
	call	LITE_syslog
.LVL61:
	addl	$32, %esp
.L49:
	.loc 1 118 0
	subl	$12, %esp
	pushl	g_wq_mutex
	call	HAL_MutexLock
.LVL62:
	.loc 1 120 0
	movl	g_wq_list, %edx
.LVL63:
	addl	$16, %esp
	movl	%edx, %eax
.LVL64:
.L52:
	cmpl	$g_wq_list, %eax
	je	.L67
	.loc 1 121 0
	cmpl	%eax, %ebx
	je	.L58
	.loc 1 120 0
	movl	(%eax), %eax
.LVL65:
	jmp	.L52
.L67:
	.loc 1 104 0
	movl	$1, %esi
	jmp	.L53
.L58:
	.loc 1 122 0
	xorl	%esi, %esi
.L53:
.LVL66:
	.loc 1 128 0
	cmpl	g_wq_current, %ebx
	jne	.L55
	cmpl	$0, 16(%ebx)
	je	.L59
.L55:
	.loc 1 131 0
	testl	%esi, %esi
	je	.L56
.LVL67:
.LBB137:
.LBB138:
.LBB139:
	.loc 2 62 0
	movl	%ebx, 4(%edx)
	.loc 2 65 0
	movl	$1, %esi
	.loc 2 63 0
	movl	%edx, (%ebx)
	.loc 2 64 0
	movl	$g_wq_list, 4(%ebx)
	.loc 2 65 0
	movl	%ebx, g_wq_list
.LVL68:
	jmp	.L56
.LVL69:
.L59:
.LBE139:
.LBE138:
.LBE137:
	.loc 1 129 0
	xorl	%esi, %esi
.LVL70:
.L56:
	.loc 1 135 0
	subl	$12, %esp
	pushl	g_wq_mutex
	call	HAL_MutexUnlock
.LVL71:
	.loc 1 138 0
	popl	%eax
	pushl	g_wq_sem
	call	HAL_SemaphorePost
.LVL72:
	addl	$16, %esp
	movl	%esi, %eax
.L46:
.LBE134:
.LBE133:
	.loc 1 141 0
	leal	-12(%ebp), %esp
	popl	%ebx
	.cfi_restore 3
	popl	%esi
	.cfi_restore 6
	popl	%edi
	.cfi_restore 7
	popl	%ebp
	.cfi_restore 5
	.cfi_def_cfa 4, 4
	ret
	.cfi_endproc
.LFE28:
	.size	queue_work, .-queue_work
	.section	.text.unlikely.queue_work
.LCOLDE12:
	.section	.text.queue_work
.LHOTE12:
	.section	.rodata.str1.1
.LC13:
	.string	"delay work %s time %d over range"
	.section	.text.unlikely.queue_delayed_work,"ax",@progbits
.LCOLDB14:
	.section	.text.queue_delayed_work,"ax",@progbits
.LHOTB14:
	.globl	queue_delayed_work
	.type	queue_delayed_work, @function
queue_delayed_work:
.LFB29:
	.loc 1 151 0
	.cfi_startproc
.LVL73:
	pushl	%ebp
	.cfi_def_cfa_offset 8
	.cfi_offset 5, -8
	movl	%esp, %ebp
	.cfi_def_cfa_register 5
	pushl	%esi
	pushl	%ebx
	.cfi_offset 6, -12
	.cfi_offset 3, -16
	.loc 1 151 0
	movl	12(%ebp), %ebx
	movl	8(%ebp), %esi
	.loc 1 152 0
	testl	%ebx, %ebx
	jns	.L69
	.loc 1 152 0 is_stmt 0 discriminator 1
	pushl	%edx
	pushl	%edx
	pushl	%ebx
	pushl	24(%esi)
	pushl	$.LC13
	pushl	$2
	pushl	$154
	pushl	$__FUNCTION__.3538
	call	LITE_syslog
.LVL74:
	addl	$32, %esp
.L70:
	.loc 1 152 0 is_stmt 1 discriminator 3
	pushl	$.LC9
	pushl	$2
	pushl	$154
	pushl	$__FUNCTION__.3538
	call	LITE_syslog
.LVL75:
	.loc 1 152 0 discriminator 3
	movl	$1000, (%esp)
	call	HAL_SleepMs
.LVL76:
	addl	$16, %esp
	jmp	.L70
.L69:
	.loc 1 156 0
	subl	$12, %esp
	pushl	g_wq_mutex
.LBB140:
.LBB141:
	.loc 1 87 0
	orl	$-2147483648, %ebx
.LBE141:
.LBE140:
	.loc 1 156 0
	call	HAL_MutexLock
.LVL77:
.LBB143:
.LBB142:
	.loc 1 87 0
	movl	%ebx, 16(%esi)
.LBE142:
.LBE143:
	.loc 1 159 0
	popl	%eax
	pushl	g_wq_mutex
	call	HAL_MutexUnlock
.LVL78:
	.loc 1 161 0
	movl	%esi, 8(%ebp)
	addl	$16, %esp
	.loc 1 162 0
	leal	-8(%ebp), %esp
	popl	%ebx
	.cfi_restore 3
	popl	%esi
	.cfi_restore 6
	popl	%ebp
	.cfi_restore 5
	.cfi_def_cfa 4, 4
	.loc 1 161 0
	jmp	queue_work
.LVL79:
	.cfi_endproc
.LFE29:
	.size	queue_delayed_work, .-queue_delayed_work
	.section	.text.unlikely.queue_delayed_work
.LCOLDE14:
	.section	.text.queue_delayed_work
.LHOTE14:
	.section	.text.unlikely.work_queue_stop,"ax",@progbits
.LCOLDB15:
	.section	.text.work_queue_stop,"ax",@progbits
.LHOTB15:
	.globl	work_queue_stop
	.type	work_queue_stop, @function
work_queue_stop:
.LFB33:
	.loc 1 304 0
	.cfi_startproc
	pushl	%ebp
	.cfi_def_cfa_offset 8
	.cfi_offset 5, -8
	movl	%esp, %ebp
	.cfi_def_cfa_register 5
	subl	$20, %esp
	.loc 1 307 0
	pushl	g_wq_sem
.LBB144:
.LBB145:
	.loc 1 51 0
	movl	$0, g_wq_state
.LBE145:
.LBE144:
	.loc 1 307 0
	call	HAL_SemaphorePost
.LVL80:
	.loc 1 308 0
	pushl	$.LC2
	pushl	$5
	pushl	$308
	pushl	$__FUNCTION__.3580
	call	LITE_syslog
.LVL81:
	.loc 1 311 0
	xorl	%eax, %eax
	leave
	.cfi_restore 5
	.cfi_def_cfa 4, 4
	ret
	.cfi_endproc
.LFE33:
	.size	work_queue_stop, .-work_queue_stop
	.section	.text.unlikely.work_queue_stop
.LCOLDE15:
	.section	.text.work_queue_stop
.LHOTE15:
	.section	.rodata.str1.1
.LC16:
	.string	"dump unfinished work in queue"
.LC17:
	.string	"\t\twork: %s"
.LC18:
	.string	"unfinished work in queue!!!"
	.section	.text.unlikely.work_queue_exit,"ax",@progbits
.LCOLDB19:
	.section	.text.work_queue_exit,"ax",@progbits
.LHOTB19:
	.globl	work_queue_exit
	.type	work_queue_exit, @function
work_queue_exit:
.LFB34:
	.loc 1 314 0
	.cfi_startproc
	.loc 1 315 0
	cmpl	$1, g_wq_state
	jne	.L93
	.loc 1 314 0
	pushl	%ebp
	.cfi_def_cfa_offset 8
	.cfi_offset 5, -8
	movl	%esp, %ebp
	.cfi_def_cfa_register 5
	pushl	%ebx
	pushl	%edx
	.cfi_offset 3, -12
	.loc 1 318 0
	call	work_queue_stop
.LVL82:
	.loc 1 320 0
	movl	g_wq_thread, %eax
	testl	%eax, %eax
	je	.L76
	.loc 1 321 0
	subl	$12, %esp
	pushl	%eax
	call	HAL_ThreadDetach
.LVL83:
	.loc 1 322 0
	movl	$0, g_wq_thread
	addl	$16, %esp
.L76:
	.loc 1 324 0
	pushl	$.LC2
	pushl	$5
	pushl	$324
	pushl	$__FUNCTION__.3584
	call	LITE_syslog
.LVL84:
	.loc 1 326 0
	popl	%eax
	pushl	g_wq_mutex
	call	HAL_MutexLock
.LVL85:
	.loc 1 327 0
	addl	$16, %esp
	cmpl	$g_wq_list, g_wq_list
	je	.L77
.LBB146:
	.loc 1 329 0
	pushl	$.LC16
	pushl	$2
	pushl	$329
	pushl	$__FUNCTION__.3584
	call	LITE_syslog
.LVL86:
	.loc 1 330 0
	movl	g_wq_list, %ebx
.LVL87:
	addl	$16, %esp
.L78:
	.loc 1 330 0 is_stmt 0 discriminator 1
	cmpl	$g_wq_list, %ebx
	je	.L95
	.loc 1 331 0 is_stmt 1 discriminator 3
	subl	$12, %esp
	pushl	24(%ebx)
	pushl	$.LC17
	pushl	$2
	pushl	$331
	pushl	$__FUNCTION__.3584
	call	LITE_syslog
.LVL88:
	.loc 1 330 0 discriminator 3
	movl	(%ebx), %ebx
.LVL89:
	addl	$32, %esp
	jmp	.L78
.L95:
	.loc 1 333 0 discriminator 1
	pushl	$.LC18
	pushl	$2
	pushl	$333
	pushl	$__FUNCTION__.3584
	call	LITE_syslog
.LVL90:
.L94:
	addl	$16, %esp
	pushl	$.LC9
	pushl	$2
	pushl	$333
	pushl	$__FUNCTION__.3584
	call	LITE_syslog
.LVL91:
	movl	$1000, (%esp)
	call	HAL_SleepMs
.LVL92:
	jmp	.L94
.LVL93:
.L77:
.LBE146:
	.loc 1 335 0
	subl	$12, %esp
	pushl	g_wq_mutex
	call	HAL_MutexUnlock
.LVL94:
	.loc 1 337 0
	movl	g_wq_sem, %eax
	addl	$16, %esp
	testl	%eax, %eax
	je	.L81
	.loc 1 338 0
	subl	$12, %esp
	pushl	%eax
	call	HAL_SemaphoreDestroy
.LVL95:
	.loc 1 339 0
	movl	$0, g_wq_sem
	addl	$16, %esp
.L81:
	.loc 1 341 0
	movl	g_wq_mutex, %eax
	testl	%eax, %eax
	je	.L82
	.loc 1 342 0
	subl	$12, %esp
	pushl	%eax
	call	HAL_MutexDestroy
.LVL96:
	.loc 1 343 0
	movl	$0, g_wq_mutex
	addl	$16, %esp
.L82:
	.loc 1 347 0
	pushl	$.LC2
	pushl	$5
	pushl	$347
	pushl	$__FUNCTION__.3584
.LBB147:
.LBB148:
	.loc 1 52 0
	movl	$-1, g_wq_state
.LBE148:
.LBE147:
	.loc 1 347 0
	call	LITE_syslog
.LVL97:
	.loc 1 349 0
	addl	$16, %esp
	.loc 1 350 0
	xorl	%eax, %eax
	movl	-4(%ebp), %ebx
	leave
	.cfi_restore 5
	.cfi_restore 3
	.cfi_def_cfa 4, 4
	ret
.L93:
	xorl	%eax, %eax
	ret
	.cfi_endproc
.LFE34:
	.size	work_queue_exit, .-work_queue_exit
	.section	.text.unlikely.work_queue_exit
.LCOLDE19:
	.section	.text.work_queue_exit
.LHOTE19:
	.section	.rodata.__FUNCTION__.3584,"a",@progbits
	.align 4
	.type	__FUNCTION__.3584, @object
	.size	__FUNCTION__.3584, 16
__FUNCTION__.3584:
	.string	"work_queue_exit"
	.section	.rodata.__FUNCTION__.3580,"a",@progbits
	.align 4
	.type	__FUNCTION__.3580, @object
	.size	__FUNCTION__.3580, 16
__FUNCTION__.3580:
	.string	"work_queue_stop"
	.section	.rodata.__FUNCTION__.3562,"a",@progbits
	.align 4
	.type	__FUNCTION__.3562, @object
	.size	__FUNCTION__.3562, 14
__FUNCTION__.3562:
	.string	"worker_thread"
	.section	.rodata.__FUNCTION__.3575,"a",@progbits
	.align 4
	.type	__FUNCTION__.3575, @object
	.size	__FUNCTION__.3575, 16
__FUNCTION__.3575:
	.string	"work_queue_init"
	.section	.rodata.__FUNCTION__.3549,"a",@progbits
	.align 4
	.type	__FUNCTION__.3549, @object
	.size	__FUNCTION__.3549, 12
__FUNCTION__.3549:
	.string	"cancel_work"
	.section	.rodata.__FUNCTION__.3538,"a",@progbits
	.align 4
	.type	__FUNCTION__.3538, @object
	.size	__FUNCTION__.3538, 19
__FUNCTION__.3538:
	.string	"queue_delayed_work"
	.section	.rodata.__FUNCTION__.3530,"a",@progbits
	.align 4
	.type	__FUNCTION__.3530, @object
	.size	__FUNCTION__.3530, 11
__FUNCTION__.3530:
	.string	"queue_work"
	.section	.bss.g_wq_current,"aw",@nobits
	.align 4
	.type	g_wq_current, @object
	.size	g_wq_current, 4
g_wq_current:
	.zero	4
	.section	.bss.g_wq_timestamp,"aw",@nobits
	.align 4
	.type	g_wq_timestamp, @object
	.size	g_wq_timestamp, 4
g_wq_timestamp:
	.zero	4
	.section	.bss.g_wq_mutex,"aw",@nobits
	.align 4
	.type	g_wq_mutex, @object
	.size	g_wq_mutex, 4
g_wq_mutex:
	.zero	4
	.section	.bss.g_wq_thread,"aw",@nobits
	.align 4
	.type	g_wq_thread, @object
	.size	g_wq_thread, 4
g_wq_thread:
	.zero	4
	.section	.bss.g_wq_sem,"aw",@nobits
	.align 4
	.type	g_wq_sem, @object
	.size	g_wq_sem, 4
g_wq_sem:
	.zero	4
	.section	.data.g_wq_state,"aw",@progbits
	.align 4
	.type	g_wq_state, @object
	.size	g_wq_state, 4
g_wq_state:
	.long	-1
	.section	.data.g_wq_list,"aw",@progbits
	.align 4
	.type	g_wq_list, @object
	.size	g_wq_list, 8
g_wq_list:
	.long	g_wq_list
	.long	g_wq_list
	.text
.Letext0:
	.section	.text.unlikely.worker_thread
.Letext_cold0:
	.file 3 "/home/stone/Documents/Ali_IOT/build/compiler/gcc-arm-none-eabi/Linux64/arm-none-eabi/include/machine/_default_types.h"
	.file 4 "/home/stone/Documents/Ali_IOT/build/compiler/gcc-arm-none-eabi/Linux64/arm-none-eabi/include/sys/_stdint.h"
	.file 5 "/home/stone/Documents/Ali_IOT/build/compiler/gcc-arm-none-eabi/Linux64/lib/gcc/arm-none-eabi/5.4.1/include/stddef.h"
	.file 6 "framework/protocol/linkkit/iotkit/base/utils//misc/work_queue.h"
	.file 7 "./framework/protocol/linkkit/iotkit/sdk-encap/iot_import.h"
	.file 8 "./framework/protocol/linkkit/iotkit/base/log/LITE-log/lite-log.h"
	.section	.note.GNU-stack,"",@progbits
