	.file	"x509.c"
	.text
.Ltext0:
	.section	.text.unlikely.x509_parse_int,"ax",@progbits
.LCOLDB0:
	.section	.text.x509_parse_int,"ax",@progbits
.LHOTB0:
	.section	.text.unlikely.x509_parse_int
.Ltext_cold0:
	.section	.text.x509_parse_int
	.type	x509_parse_int, @function
x509_parse_int:
.LFB15:
	.file 1 "security/mbedtls/src/x509.c"
	.loc 1 496 0
	.cfi_startproc
.LVL0:
	pushl	%ebp
	.cfi_def_cfa_offset 8
	.cfi_offset 5, -8
	movl	%esp, %ebp
	.cfi_def_cfa_register 5
	pushl	%edi
	pushl	%esi
	pushl	%ebx
	.cfi_offset 7, -12
	.cfi_offset 6, -16
	.cfi_offset 3, -20
	pushl	%ebx
	.loc 1 496 0
	movl	%eax, -16(%ebp)
	.loc 1 497 0
	movl	$0, (%ecx)
.LVL1:
.L2:
	.loc 1 499 0 discriminator 1
	testl	%edx, %edx
	je	.L8
	.loc 1 501 0
	movl	-16(%ebp), %eax
	movl	(%eax), %ebx
	movb	(%ebx), %al
	leal	-48(%eax), %esi
	movl	%esi, %eax
	cmpb	$9, %al
	ja	.L5
	.loc 1 504 0
	imull	$10, (%ecx), %esi
	.loc 1 505 0
	movl	-16(%ebp), %eax
	leal	1(%ebx), %edi
	.loc 1 499 0
	decl	%edx
.LVL2:
	.loc 1 504 0
	movl	%esi, (%ecx)
	.loc 1 505 0
	movl	%edi, (%eax)
	movzbl	(%ebx), %ebx
	leal	-48(%esi,%ebx), %ebx
	movl	%ebx, (%ecx)
	jmp	.L2
.L8:
	.loc 1 508 0
	xorl	%eax, %eax
	jmp	.L3
.L5:
	.loc 1 502 0
	movl	$-9216, %eax
.L3:
	.loc 1 509 0
	popl	%edx
.LVL3:
	popl	%ebx
	.cfi_restore 3
	popl	%esi
	.cfi_restore 6
	popl	%edi
	.cfi_restore 7
	popl	%ebp
	.cfi_restore 5
	.cfi_def_cfa 4, 4
.LVL4:
	ret
	.cfi_endproc
.LFE15:
	.size	x509_parse_int, .-x509_parse_int
	.section	.text.unlikely.x509_parse_int
.LCOLDE0:
	.section	.text.x509_parse_int
.LHOTE0:
	.section	.text.unlikely.mbedtls_x509_get_serial,"ax",@progbits
.LCOLDB1:
	.section	.text.mbedtls_x509_get_serial,"ax",@progbits
.LHOTB1:
	.globl	mbedtls_x509_get_serial
	.type	mbedtls_x509_get_serial, @function
mbedtls_x509_get_serial:
.LFB10:
	.loc 1 102 0
	.cfi_startproc
.LVL5:
	pushl	%ebp
	.cfi_def_cfa_offset 8
	.cfi_offset 5, -8
	.loc 1 106 0
	movl	$-8928, %eax
	.loc 1 102 0
	movl	%esp, %ebp
	.cfi_def_cfa_register 5
	pushl	%edi
	pushl	%esi
	pushl	%ebx
	subl	$12, %esp
	.cfi_offset 7, -12
	.cfi_offset 6, -16
	.cfi_offset 3, -20
	.loc 1 102 0
	movl	8(%ebp), %ebx
	movl	12(%ebp), %edi
	movl	16(%ebp), %esi
	.loc 1 105 0
	movl	(%ebx), %ecx
	movl	%edi, %edx
	subl	%ecx, %edx
	testl	%edx, %edx
	jle	.L10
	.loc 1 109 0
	movb	(%ecx), %dl
	.loc 1 111 0
	movl	$-8930, %eax
	.loc 1 109 0
	andl	$127, %edx
	cmpb	$2, %dl
	jne	.L10
	.loc 1 114 0
	leal	1(%ecx), %eax
	movl	%eax, (%ebx)
	movzbl	(%ecx), %eax
	movl	%eax, (%esi)
	.loc 1 116 0
	pushl	%eax
	leal	4(%esi), %eax
	pushl	%eax
	pushl	%edi
	pushl	%ebx
	call	mbedtls_asn1_get_len
.LVL6:
	addl	$16, %esp
	testl	%eax, %eax
	je	.L11
	.loc 1 117 0
	subl	$8832, %eax
.LVL7:
	jmp	.L10
.LVL8:
.L11:
	.loc 1 119 0
	movl	(%ebx), %eax
.LVL9:
	movl	%eax, 8(%esi)
	.loc 1 120 0
	movl	4(%esi), %eax
	addl	%eax, (%ebx)
	.loc 1 122 0
	xorl	%eax, %eax
.L10:
	.loc 1 123 0
	leal	-12(%ebp), %esp
	popl	%ebx
	.cfi_restore 3
	popl	%esi
	.cfi_restore 6
	popl	%edi
	.cfi_restore 7
	popl	%ebp
	.cfi_restore 5
	.cfi_def_cfa 4, 4
	ret
	.cfi_endproc
.LFE10:
	.size	mbedtls_x509_get_serial, .-mbedtls_x509_get_serial
	.section	.text.unlikely.mbedtls_x509_get_serial
.LCOLDE1:
	.section	.text.mbedtls_x509_get_serial
.LHOTE1:
	.section	.text.unlikely.mbedtls_x509_get_alg_null,"ax",@progbits
.LCOLDB2:
	.section	.text.mbedtls_x509_get_alg_null,"ax",@progbits
.LHOTB2:
	.globl	mbedtls_x509_get_alg_null
	.type	mbedtls_x509_get_alg_null, @function
mbedtls_x509_get_alg_null:
.LFB11:
	.loc 1 133 0
	.cfi_startproc
.LVL10:
	pushl	%ebp
	.cfi_def_cfa_offset 8
	.cfi_offset 5, -8
	movl	%esp, %ebp
	.cfi_def_cfa_register 5
	subl	$12, %esp
	.loc 1 136 0
	pushl	16(%ebp)
	pushl	12(%ebp)
	pushl	8(%ebp)
	call	mbedtls_asn1_get_alg_null
.LVL11:
	.loc 1 137 0
	leal	-8960(%eax), %edx
	.loc 1 136 0
	addl	$16, %esp
	.loc 1 137 0
	testl	%eax, %eax
	movl	$0, %eax
.LVL12:
	.loc 1 140 0
	leave
	.cfi_restore 5
	.cfi_def_cfa 4, 4
	.loc 1 137 0
	cmovne	%edx, %eax
	.loc 1 140 0
	ret
	.cfi_endproc
.LFE11:
	.size	mbedtls_x509_get_alg_null, .-mbedtls_x509_get_alg_null
	.section	.text.unlikely.mbedtls_x509_get_alg_null
.LCOLDE2:
	.section	.text.mbedtls_x509_get_alg_null
.LHOTE2:
	.section	.text.unlikely.mbedtls_x509_get_alg,"ax",@progbits
.LCOLDB3:
	.section	.text.mbedtls_x509_get_alg,"ax",@progbits
.LHOTB3:
	.globl	mbedtls_x509_get_alg
	.type	mbedtls_x509_get_alg, @function
mbedtls_x509_get_alg:
.LFB12:
	.loc 1 147 0
	.cfi_startproc
.LVL13:
	pushl	%ebp
	.cfi_def_cfa_offset 8
	.cfi_offset 5, -8
	movl	%esp, %ebp
	.cfi_def_cfa_register 5
	subl	$8, %esp
	.loc 1 150 0
	pushl	20(%ebp)
	pushl	16(%ebp)
	pushl	12(%ebp)
	pushl	8(%ebp)
	call	mbedtls_asn1_get_alg
.LVL14:
	.loc 1 151 0
	leal	-8960(%eax), %edx
	.loc 1 150 0
	addl	$16, %esp
	.loc 1 151 0
	testl	%eax, %eax
	movl	$0, %eax
.LVL15:
	.loc 1 154 0
	leave
	.cfi_restore 5
	.cfi_def_cfa 4, 4
	.loc 1 151 0
	cmovne	%edx, %eax
	.loc 1 154 0
	ret
	.cfi_endproc
.LFE12:
	.size	mbedtls_x509_get_alg, .-mbedtls_x509_get_alg
	.section	.text.unlikely.mbedtls_x509_get_alg
.LCOLDE3:
	.section	.text.mbedtls_x509_get_alg
.LHOTE3:
	.section	.text.unlikely.mbedtls_x509_get_name,"ax",@progbits
.LCOLDB4:
	.section	.text.mbedtls_x509_get_name,"ax",@progbits
.LHOTB4:
	.globl	mbedtls_x509_get_name
	.type	mbedtls_x509_get_name, @function
mbedtls_x509_get_name:
.LFB14:
	.loc 1 444 0
	.cfi_startproc
.LVL16:
	pushl	%ebp
	.cfi_def_cfa_offset 8
	.cfi_offset 5, -8
	movl	%esp, %ebp
	.cfi_def_cfa_register 5
	pushl	%edi
	pushl	%esi
	pushl	%ebx
	subl	$44, %esp
	.cfi_offset 7, -12
	.cfi_offset 6, -16
	.cfi_offset 3, -20
	.loc 1 444 0
	movl	12(%ebp), %eax
	movl	8(%ebp), %ebx
	movl	16(%ebp), %edx
	movl	%eax, -44(%ebp)
	movl	%gs:20, %eax
	movl	%eax, -28(%ebp)
	xorl	%eax, %eax
.LVL17:
.L35:
	.loc 1 455 0
	leal	-36(%ebp), %eax
	pushl	$49
	movl	%edx, -48(%ebp)
.LVL18:
	pushl	%eax
	pushl	-44(%ebp)
	pushl	%ebx
	call	mbedtls_asn1_get_tag
.LVL19:
	addl	$16, %esp
	testl	%eax, %eax
	movl	-48(%ebp), %edx
	je	.L24
	.loc 1 457 0
	subl	$9088, %eax
.LVL20:
	jmp	.L25
.LVL21:
.L24:
	.loc 1 459 0
	movl	-36(%ebp), %edi
	addl	(%ebx), %edi
.LVL22:
	movl	%edx, %esi
.LVL23:
.L33:
.LBB4:
.LBB5:
	.loc 1 377 0
	leal	-32(%ebp), %eax
	pushl	$48
	pushl	%eax
	pushl	%edi
	pushl	%ebx
	call	mbedtls_asn1_get_tag
.LVL24:
	addl	$16, %esp
	testl	%eax, %eax
	jne	.L46
	.loc 1 381 0
	movl	(%ebx), %eax
.LVL25:
	movl	%edi, %edx
	subl	%eax, %edx
	testl	%edx, %edx
	jg	.L28
.L30:
	.loc 1 382 0
	movl	$-9184, %eax
	jmp	.L25
.L28:
.LVL26:
	.loc 1 386 0
	movzbl	(%eax), %eax
	movl	%eax, (%esi)
	.loc 1 388 0
	leal	4(%esi), %eax
	pushl	$6
	pushl	%eax
	pushl	%edi
	pushl	%ebx
	call	mbedtls_asn1_get_tag
.LVL27:
	addl	$16, %esp
	testl	%eax, %eax
	jne	.L46
	.loc 1 391 0
	movl	(%ebx), %eax
.LVL28:
	.loc 1 394 0
	movl	%edi, %edx
	.loc 1 391 0
	movl	%eax, 8(%esi)
	.loc 1 392 0
	movl	4(%esi), %eax
	addl	(%ebx), %eax
	.loc 1 394 0
	subl	%eax, %edx
	.loc 1 392 0
	movl	%eax, (%ebx)
	.loc 1 394 0
	testl	%edx, %edx
	jle	.L30
	.loc 1 398 0
	movb	(%eax), %dl
	.loc 1 400 0
	cmpb	$30, %dl
	ja	.L38
	movl	$1347948552, %ecx
	btl	%edx, %ecx
	jnc	.L38
.LVL29:
	.loc 1 406 0
	leal	1(%eax), %edx
	movl	%edx, (%ebx)
	movzbl	(%eax), %eax
	movl	%eax, 12(%esi)
	.loc 1 408 0
	leal	16(%esi), %eax
	pushl	%ecx
	pushl	%eax
	pushl	%edi
	pushl	%ebx
	call	mbedtls_asn1_get_len
.LVL30:
	addl	$16, %esp
	testl	%eax, %eax
	je	.L31
.LVL31:
.L46:
	.loc 1 409 0
	subl	$9088, %eax
.LVL32:
.LBE5:
.LBE4:
	.loc 1 463 0
	testl	%eax, %eax
	je	.L43
	jmp	.L25
.LVL33:
.L31:
.LBB7:
.LBB6:
	.loc 1 411 0
	movl	(%ebx), %eax
.LVL34:
	movl	%eax, 20(%esi)
	.loc 1 412 0
	movl	16(%esi), %eax
	addl	%eax, (%ebx)
	.loc 1 414 0
	movl	$0, 24(%esi)
	.loc 1 416 0
	xorl	%eax, %eax
	jmp	.L43
.LVL35:
.L38:
	.loc 1 402 0
	movl	$-9186, %eax
	jmp	.L25
.LVL36:
.L43:
.LBE6:
.LBE7:
	.loc 1 466 0
	cmpl	(%ebx), %edi
	je	.L32
	.loc 1 470 0
	movb	$1, 28(%esi)
	.loc 1 472 0
	pushl	%edx
	pushl	%edx
	pushl	$32
	pushl	$1
	call	mbedtls_calloc
.LVL37:
	.loc 1 474 0
	addl	$16, %esp
	testl	%eax, %eax
	.loc 1 472 0
	movl	%eax, 24(%esi)
	.loc 1 474 0
	je	.L34
	movl	%eax, %esi
.LVL38:
	jmp	.L33
.LVL39:
.L32:
	.loc 1 483 0
	cmpl	%edi, -44(%ebp)
	je	.L25
	.loc 1 486 0
	pushl	%eax
	pushl	%eax
	pushl	$32
	pushl	$1
	call	mbedtls_calloc
.LVL40:
	.loc 1 488 0
	addl	$16, %esp
	testl	%eax, %eax
	.loc 1 486 0
	movl	%eax, %edx
	movl	%eax, 24(%esi)
	.loc 1 488 0
	jne	.L35
.L34:
	.loc 1 475 0
	movl	$-10368, %eax
.LVL41:
.L25:
	.loc 1 493 0
	movl	-28(%ebp), %ecx
	xorl	%gs:20, %ecx
	je	.L36
	call	__stack_chk_fail
.LVL42:
.L36:
	leal	-12(%ebp), %esp
	popl	%ebx
	.cfi_restore 3
	popl	%esi
	.cfi_restore 6
	popl	%edi
	.cfi_restore 7
	popl	%ebp
	.cfi_restore 5
	.cfi_def_cfa 4, 4
	ret
	.cfi_endproc
.LFE14:
	.size	mbedtls_x509_get_name, .-mbedtls_x509_get_name
	.section	.text.unlikely.mbedtls_x509_get_name
.LCOLDE4:
	.section	.text.mbedtls_x509_get_name
.LHOTE4:
	.section	.text.unlikely.mbedtls_x509_get_time,"ax",@progbits
.LCOLDB5:
	.section	.text.mbedtls_x509_get_time,"ax",@progbits
.LHOTB5:
	.globl	mbedtls_x509_get_time
	.type	mbedtls_x509_get_time, @function
mbedtls_x509_get_time:
.LFB18:
	.loc 1 609 0
	.cfi_startproc
.LVL43:
	pushl	%ebp
	.cfi_def_cfa_offset 8
	.cfi_offset 5, -8
	movl	%esp, %ebp
	.cfi_def_cfa_register 5
	pushl	%edi
	pushl	%esi
	pushl	%ebx
	subl	$44, %esp
	.cfi_offset 7, -12
	.cfi_offset 6, -16
	.cfi_offset 3, -20
	.loc 1 609 0
	movl	8(%ebp), %esi
	movl	12(%ebp), %edi
	movl	%gs:20, %eax
	movl	%eax, -28(%ebp)
	xorl	%eax, %eax
	movl	16(%ebp), %ebx
	.loc 1 615 0
	movl	$-9312, %eax
	.loc 1 614 0
	movl	(%esi), %edx
	movl	%edi, %ecx
	subl	%edx, %ecx
	testl	%ecx, %ecx
	jle	.L48
	.loc 1 618 0
	movb	(%edx), %cl
.LVL44:
	.loc 1 620 0
	cmpb	$23, %cl
	je	.L61
	.loc 1 622 0
	cmpb	$24, %cl
	.loc 1 625 0
	movl	$-9314, %eax
	.loc 1 622 0
	jne	.L48
	.loc 1 623 0
	movl	$4, -44(%ebp)
	jmp	.L49
.L61:
	.loc 1 621 0
	movl	$2, -44(%ebp)
.L49:
.LVL45:
	.loc 1 628 0
	incl	%edx
	movl	%edx, (%esi)
	.loc 1 629 0
	pushl	%eax
	leal	-32(%ebp), %eax
	pushl	%eax
	pushl	%edi
	pushl	%esi
	call	mbedtls_asn1_get_len
.LVL46:
	.loc 1 631 0
	addl	$16, %esp
	testl	%eax, %eax
	je	.L50
	.loc 1 632 0
	subl	$9216, %eax
.LVL47:
	jmp	.L48
.LVL48:
.L50:
.LBB12:
.LBB13:
	.loc 1 550 0
	movl	-44(%ebp), %eax
.LVL49:
.LBE13:
.LBE12:
	.loc 1 634 0
	movl	-32(%ebp), %edi
.LVL50:
.LBB18:
.LBB16:
	.loc 1 550 0
	addl	$8, %eax
.LVL51:
	cmpl	%eax, %edi
	jb	.L51
.LVL52:
	.loc 1 557 0
	movl	-44(%ebp), %edx
	movl	%ebx, %ecx
	movl	%esi, %eax
	call	x509_parse_int
.LVL53:
	testl	%eax, %eax
	jne	.L48
	.loc 1 558 0
	cmpl	$2, -44(%ebp)
	jne	.L52
	.loc 1 560 0
	movl	(%ebx), %eax
.LVL54:
	cmpl	$49, %eax
	jg	.L53
	.loc 1 561 0
	addl	$100, %eax
	movl	%eax, (%ebx)
.L53:
	.loc 1 563 0
	addl	$1900, (%ebx)
.L52:
	.loc 1 566 0
	leal	4(%ebx), %ecx
	movl	$2, %edx
	movl	%esi, %eax
	call	x509_parse_int
.LVL55:
	testl	%eax, %eax
	jne	.L48
	.loc 1 567 0
	leal	8(%ebx), %ecx
	movl	$2, %edx
	movl	%esi, %eax
.LVL56:
	call	x509_parse_int
.LVL57:
	testl	%eax, %eax
	jne	.L48
	.loc 1 568 0
	leal	12(%ebx), %ecx
	movl	$2, %edx
	movl	%esi, %eax
.LVL58:
	call	x509_parse_int
.LVL59:
	testl	%eax, %eax
	jne	.L48
	.loc 1 569 0
	leal	16(%ebx), %ecx
	movl	$2, %edx
	movl	%esi, %eax
.LVL60:
	call	x509_parse_int
.LVL61:
	testl	%eax, %eax
	jne	.L48
	.loc 1 552 0
	subl	-44(%ebp), %edi
.LVL62:
	.loc 1 574 0
	leal	-8(%edi), %eax
.LVL63:
	cmpl	$1, %eax
	jbe	.L51
	.loc 1 576 0
	leal	20(%ebx), %ecx
	movl	$2, %edx
	movl	%esi, %eax
	call	x509_parse_int
.LVL64:
	testl	%eax, %eax
	jne	.L48
	.loc 1 577 0
	leal	-10(%edi), %eax
.LVL65:
	.loc 1 585 0
	cmpl	$1, %eax
	jne	.L54
	movl	(%esi), %eax
.LVL66:
	cmpb	$90, (%eax)
	jne	.L51
	.loc 1 587 0
	incl	%eax
	movl	%eax, (%esi)
	.loc 1 588 0
	leal	-11(%edi), %eax
.LVL67:
.L54:
	.loc 1 594 0
	testl	%eax, %eax
	jne	.L51
.LVL68:
.LBB14:
.LBB15:
	.loc 1 515 0
	movl	(%ebx), %edx
	cmpl	$9999, %edx
	ja	.L51
	.loc 1 516 0
	cmpl	$23, 12(%ebx)
	ja	.L51
	.loc 1 517 0
	cmpl	$59, 16(%ebx)
	ja	.L51
	.loc 1 518 0
	cmpl	$59, 20(%ebx)
	ja	.L51
	movl	4(%ebx), %ecx
	cmpl	$12, %ecx
	ja	.L51
	movl	$1, %eax
.LVL69:
	sall	%cl, %eax
	testl	$5546, %eax
	jne	.L55
	testl	$2640, %eax
	jne	.L56
	testb	$4, %al
	jne	.L57
	jmp	.L51
.L55:
	.loc 1 523 0
	movl	8(%ebx), %eax
	decl	%eax
	cmpl	$30, %eax
	jmp	.L73
.L56:
	.loc 1 526 0
	movl	8(%ebx), %eax
	decl	%eax
	cmpl	$29, %eax
.L73:
	jbe	.L72
	jmp	.L51
.L57:
	.loc 1 529 0
	movl	8(%ebx), %ecx
	testl	%ecx, %ecx
	jle	.L51
	andl	$3, %edx
	cmpl	$1, %edx
	sbbl	%eax, %eax
	notl	%eax
	addl	$29, %eax
	cmpl	%eax, %ecx
	jg	.L51
.L72:
.LBE15:
.LBE14:
	.loc 1 599 0
	xorl	%eax, %eax
.LVL70:
.L48:
.LBE16:
.LBE18:
	.loc 1 635 0
	movl	-28(%ebp), %edi
	xorl	%gs:20, %edi
	je	.L59
	call	__stack_chk_fail
.LVL71:
.L51:
.LBB19:
.LBB17:
	.loc 1 568 0
	movl	$-9216, %eax
	jmp	.L48
.LVL72:
.L59:
.LBE17:
.LBE19:
	.loc 1 635 0
	leal	-12(%ebp), %esp
	popl	%ebx
	.cfi_restore 3
	popl	%esi
	.cfi_restore 6
	popl	%edi
	.cfi_restore 7
	popl	%ebp
	.cfi_restore 5
	.cfi_def_cfa 4, 4
	ret
	.cfi_endproc
.LFE18:
	.size	mbedtls_x509_get_time, .-mbedtls_x509_get_time
	.section	.text.unlikely.mbedtls_x509_get_time
.LCOLDE5:
	.section	.text.mbedtls_x509_get_time
.LHOTE5:
	.section	.text.unlikely.mbedtls_x509_get_sig,"ax",@progbits
.LCOLDB6:
	.section	.text.mbedtls_x509_get_sig,"ax",@progbits
.LHOTB6:
	.globl	mbedtls_x509_get_sig
	.type	mbedtls_x509_get_sig, @function
mbedtls_x509_get_sig:
.LFB19:
	.loc 1 638 0
	.cfi_startproc
.LVL73:
	pushl	%ebp
	.cfi_def_cfa_offset 8
	.cfi_offset 5, -8
	movl	%esp, %ebp
	.cfi_def_cfa_register 5
	pushl	%edi
	pushl	%esi
	pushl	%ebx
	subl	$28, %esp
	.cfi_offset 7, -12
	.cfi_offset 6, -16
	.cfi_offset 3, -20
	.loc 1 638 0
	movl	8(%ebp), %esi
	movl	12(%ebp), %edx
	movl	%gs:20, %eax
	movl	%eax, -28(%ebp)
	xorl	%eax, %eax
	movl	16(%ebp), %edi
	.loc 1 644 0
	movl	$-9440, %eax
	.loc 1 643 0
	movl	(%esi), %ecx
	movl	%edx, %ebx
	subl	%ecx, %ebx
	testl	%ebx, %ebx
	jle	.L75
	.loc 1 647 0
	movzbl	(%ecx), %ebx
.LVL74:
	.loc 1 649 0
	pushl	%eax
	leal	-32(%ebp), %eax
	pushl	%eax
	pushl	%edx
	pushl	%esi
	call	mbedtls_asn1_get_bitstring_null
.LVL75:
	addl	$16, %esp
	testl	%eax, %eax
	je	.L76
	.loc 1 650 0
	subl	$9344, %eax
.LVL76:
	jmp	.L75
.LVL77:
.L76:
	.loc 1 653 0
	movl	-32(%ebp), %eax
.LVL78:
	.loc 1 654 0
	movl	(%esi), %edx
	.loc 1 652 0
	movl	%ebx, (%edi)
	.loc 1 653 0
	movl	%eax, 4(%edi)
	.loc 1 654 0
	movl	%edx, 8(%edi)
	.loc 1 656 0
	addl	%eax, (%esi)
	.loc 1 658 0
	xorl	%eax, %eax
.LVL79:
.L75:
	.loc 1 659 0
	movl	-28(%ebp), %ecx
	xorl	%gs:20, %ecx
	je	.L77
	call	__stack_chk_fail
.LVL80:
.L77:
	leal	-12(%ebp), %esp
	popl	%ebx
	.cfi_restore 3
	popl	%esi
	.cfi_restore 6
	popl	%edi
	.cfi_restore 7
	popl	%ebp
	.cfi_restore 5
	.cfi_def_cfa 4, 4
	ret
	.cfi_endproc
.LFE19:
	.size	mbedtls_x509_get_sig, .-mbedtls_x509_get_sig
	.section	.text.unlikely.mbedtls_x509_get_sig
.LCOLDE6:
	.section	.text.mbedtls_x509_get_sig
.LHOTE6:
	.section	.text.unlikely.mbedtls_x509_get_sig_alg,"ax",@progbits
.LCOLDB7:
	.section	.text.mbedtls_x509_get_sig_alg,"ax",@progbits
.LHOTB7:
	.globl	mbedtls_x509_get_sig_alg
	.type	mbedtls_x509_get_sig_alg, @function
mbedtls_x509_get_sig_alg:
.LFB20:
	.loc 1 667 0
	.cfi_startproc
.LVL81:
	pushl	%ebp
	.cfi_def_cfa_offset 8
	.cfi_offset 5, -8
	.loc 1 673 0
	movl	$-10240, %eax
	.loc 1 667 0
	movl	%esp, %ebp
	.cfi_def_cfa_register 5
	pushl	%edi
	pushl	%esi
	pushl	%ebx
	subl	$12, %esp
	.cfi_offset 7, -12
	.cfi_offset 6, -16
	.cfi_offset 3, -20
	.loc 1 672 0
	movl	24(%ebp), %ecx
	.loc 1 667 0
	movl	8(%ebp), %edx
	movl	16(%ebp), %ebx
	movl	20(%ebp), %esi
	.loc 1 672 0
	cmpl	$0, (%ecx)
	jne	.L81
	.loc 1 679 0
	cmpl	$9, 4(%edx)
	.loc 1 676 0
	movl	$0, (%ebx)
	.loc 1 704 0
	movl	$-9774, %eax
	.loc 1 677 0
	movl	$0, (%esi)
	.loc 1 679 0
	jne	.L81
	.loc 1 681 0
	movl	8(%edx), %edi
	pushl	%ecx
	pushl	$9
	pushl	$CRT_OID_PKCS1_MD5
	pushl	%edi
	call	memcmp
.LVL82:
	addl	$16, %esp
	testl	%eax, %eax
	jne	.L82
	.loc 1 682 0
	movl	$3, (%ebx)
	.loc 1 683 0
	movl	$1, (%esi)
.L82:
	.loc 1 688 0
	pushl	%edx
	pushl	$9
	pushl	$CRT_OID_PKCS1_SHA1
	pushl	%edi
	call	memcmp
.LVL83:
	addl	$16, %esp
	testl	%eax, %eax
	jne	.L83
	.loc 1 689 0
	movl	$4, (%ebx)
	.loc 1 690 0
	movl	$1, (%esi)
.L83:
	.loc 1 695 0
	pushl	%eax
	pushl	$9
	pushl	$CRT_OID_PKCS1_SHA256
	pushl	%edi
	call	memcmp
.LVL84:
	addl	$16, %esp
	testl	%eax, %eax
	jne	.L84
	.loc 1 696 0
	movl	$6, (%ebx)
	.loc 1 697 0
	movl	$1, (%esi)
.L84:
	.loc 1 702 0
	cmpl	$0, (%ebx)
	.loc 1 704 0
	movl	$-9774, %eax
	.loc 1 702 0
	je	.L81
	.loc 1 738 0
	movl	12(%ebp), %eax
	movl	(%eax), %edx
	cmpl	$5, %edx
	je	.L91
	testl	%edx, %edx
	.loc 1 740 0
	movl	$-8960, %eax
	.loc 1 738 0
	jne	.L81
.L91:
	.loc 1 743 0 discriminator 1
	movl	12(%ebp), %eax
	cmpl	$1, 4(%eax)
	sbbl	%eax, %eax
	notl	%eax
	andl	$-8960, %eax
.L81:
	.loc 1 744 0
	leal	-12(%ebp), %esp
	popl	%ebx
	.cfi_restore 3
	popl	%esi
	.cfi_restore 6
	popl	%edi
	.cfi_restore 7
	popl	%ebp
	.cfi_restore 5
	.cfi_def_cfa 4, 4
	ret
	.cfi_endproc
.LFE20:
	.size	mbedtls_x509_get_sig_alg, .-mbedtls_x509_get_sig_alg
	.section	.text.unlikely.mbedtls_x509_get_sig_alg
.LCOLDE7:
	.section	.text.mbedtls_x509_get_sig_alg
.LHOTE7:
	.section	.text.unlikely.mbedtls_x509_get_ext,"ax",@progbits
.LCOLDB8:
	.section	.text.mbedtls_x509_get_ext,"ax",@progbits
.LHOTB8:
	.globl	mbedtls_x509_get_ext
	.type	mbedtls_x509_get_ext, @function
mbedtls_x509_get_ext:
.LFB21:
	.loc 1 752 0
	.cfi_startproc
.LVL85:
	pushl	%ebp
	.cfi_def_cfa_offset 8
	.cfi_offset 5, -8
	movl	%esp, %ebp
	.cfi_def_cfa_register 5
	pushl	%esi
	pushl	%ebx
	subl	$16, %esp
	.cfi_offset 6, -12
	.cfi_offset 3, -16
	.loc 1 752 0
	movl	8(%ebp), %ebx
	movl	12(%ebp), %edx
	movl	%gs:20, %eax
	movl	%eax, -12(%ebp)
	xorl	%eax, %eax
	movl	16(%ebp), %esi
	.loc 1 756 0
	movl	(%ebx), %eax
	cmpl	%edx, %eax
	je	.L97
	.loc 1 759 0
	movzbl	(%eax), %eax
	movl	%eax, (%esi)
	.loc 1 761 0
	movl	20(%ebp), %eax
	orb	$-96, %al
	pushl	%eax
	leal	4(%esi), %eax
	pushl	%eax
	pushl	%edx
	pushl	%ebx
	call	mbedtls_asn1_get_tag
.LVL86:
	addl	$16, %esp
	testl	%eax, %eax
	jne	.L98
	.loc 1 765 0
	movl	(%ebx), %eax
.LVL87:
	movl	%eax, 8(%esi)
	.loc 1 766 0
	movl	4(%esi), %esi
	.loc 1 776 0
	leal	-16(%ebp), %eax
	.loc 1 766 0
	addl	(%ebx), %esi
.LVL88:
	.loc 1 776 0
	pushl	$48
	pushl	%eax
	pushl	%esi
	pushl	%ebx
	call	mbedtls_asn1_get_tag
.LVL89:
	addl	$16, %esp
	testl	%eax, %eax
	je	.L99
	.loc 1 778 0
	subl	$9472, %eax
.LVL90:
	jmp	.L98
.LVL91:
.L99:
	.loc 1 780 0
	movl	-16(%ebp), %edx
	addl	(%ebx), %edx
	.loc 1 781 0
	movl	$-9574, %eax
.LVL92:
	.loc 1 780 0
	cmpl	%edx, %esi
	jne	.L98
.LVL93:
.L97:
	.loc 1 784 0
	xorl	%eax, %eax
.L98:
	.loc 1 785 0
	movl	-12(%ebp), %ecx
	xorl	%gs:20, %ecx
	je	.L100
	call	__stack_chk_fail
.LVL94:
.L100:
	leal	-8(%ebp), %esp
	popl	%ebx
	.cfi_restore 3
	popl	%esi
	.cfi_restore 6
	popl	%ebp
	.cfi_restore 5
	.cfi_def_cfa 4, 4
	ret
	.cfi_endproc
.LFE21:
	.size	mbedtls_x509_get_ext, .-mbedtls_x509_get_ext
	.section	.text.unlikely.mbedtls_x509_get_ext
.LCOLDE8:
	.section	.text.mbedtls_x509_get_ext
.LHOTE8:
	.section	.rodata.str1.1,"aMS",@progbits,1
.LC9:
	.string	":"
.LC10:
	.string	""
.LC11:
	.string	"%02X%s"
.LC12:
	.string	"...."
	.section	.text.unlikely.mbedtls_x509_serial_gets,"ax",@progbits
.LCOLDB13:
	.section	.text.mbedtls_x509_serial_gets,"ax",@progbits
.LHOTB13:
	.globl	mbedtls_x509_serial_gets
	.type	mbedtls_x509_serial_gets, @function
mbedtls_x509_serial_gets:
.LFB22:
	.loc 1 856 0
	.cfi_startproc
.LVL95:
	pushl	%ebp
	.cfi_def_cfa_offset 8
	.cfi_offset 5, -8
	.loc 1 865 0
	movl	$28, %eax
	.loc 1 856 0
	movl	%esp, %ebp
	.cfi_def_cfa_register 5
.LVL96:
	pushl	%edi
	pushl	%esi
	pushl	%ebx
	subl	$28, %esp
	.cfi_offset 7, -12
	.cfi_offset 6, -16
	.cfi_offset 3, -20
	.loc 1 856 0
	movl	16(%ebp), %edx
	.loc 1 862 0
	movl	12(%ebp), %ebx
	.loc 1 864 0
	movl	4(%edx), %edi
	.loc 1 865 0
	cmpl	$33, %edi
	cmovnb	%eax, %edi
.LVL97:
	.loc 1 867 0
	xorl	%esi, %esi
	.loc 1 872 0
	leal	-1(%edi), %eax
	movl	%eax, -28(%ebp)
.LVL98:
.L106:
	.loc 1 867 0 discriminator 1
	cmpl	%edi, %esi
	je	.L125
	.loc 1 869 0
	testl	%esi, %esi
	jne	.L107
	cmpl	$1, %edi
	jbe	.L107
	.loc 1 869 0 is_stmt 0 discriminator 1
	movl	8(%edx), %eax
	cmpb	$0, (%eax)
	je	.L108
.L107:
	.loc 1 872 0 is_stmt 1
	cmpl	-28(%ebp), %esi
	movl	$.LC10, %ecx
	movl	$.LC9, %eax
	.loc 1 873 0
	movl	%edx, -32(%ebp)
	.loc 1 872 0
	cmovnb	%ecx, %eax
	subl	$12, %esp
	pushl	%eax
	.loc 1 873 0
	movl	8(%edx), %eax
	.loc 1 872 0
	movzbl	(%eax,%esi), %eax
	pushl	%eax
	pushl	$.LC11
	pushl	%ebx
	pushl	8(%ebp)
	call	snprintf
.LVL99:
	.loc 1 874 0
	movl	%eax, %ecx
	addl	$32, %esp
	shrl	$31, %ecx
	jne	.L115
	cmpl	%eax, %ebx
	movl	-32(%ebp), %edx
	ja	.L110
.L115:
	movl	$-10624, %eax
.LVL100:
	jmp	.L112
.LVL101:
.L110:
	.loc 1 874 0 is_stmt 0 discriminator 2
	addl	%eax, 8(%ebp)
	subl	%eax, %ebx
.LVL102:
.L108:
	.loc 1 867 0 is_stmt 1 discriminator 2
	incl	%esi
.LVL103:
	jmp	.L106
.L125:
	.loc 1 877 0
	cmpl	4(%edx), %esi
	je	.L114
	.loc 1 879 0
	pushl	%eax
	pushl	$.LC12
	pushl	%ebx
	pushl	8(%ebp)
	call	snprintf
.LVL104:
	.loc 1 880 0
	movl	%eax, %ecx
	addl	$16, %esp
	shrl	$31, %ecx
	jne	.L115
	cmpl	%eax, %ebx
	jbe	.L115
	.loc 1 880 0 is_stmt 0 discriminator 2
	subl	%eax, %ebx
.LVL105:
.L114:
	.loc 1 883 0 is_stmt 1
	movl	12(%ebp), %eax
	subl	%ebx, %eax
.L112:
	.loc 1 884 0
	leal	-12(%ebp), %esp
	popl	%ebx
	.cfi_restore 3
.LVL106:
	popl	%esi
	.cfi_restore 6
.LVL107:
	popl	%edi
	.cfi_restore 7
.LVL108:
	popl	%ebp
	.cfi_restore 5
	.cfi_def_cfa 4, 4
	ret
	.cfi_endproc
.LFE22:
	.size	mbedtls_x509_serial_gets, .-mbedtls_x509_serial_gets
	.section	.text.unlikely.mbedtls_x509_serial_gets
.LCOLDE13:
	.section	.text.mbedtls_x509_serial_gets
.LHOTE13:
	.section	.rodata.str1.1
.LC14:
	.string	"%s key size"
	.section	.text.unlikely.mbedtls_x509_key_size_helper,"ax",@progbits
.LCOLDB15:
	.section	.text.mbedtls_x509_key_size_helper,"ax",@progbits
.LHOTB15:
	.globl	mbedtls_x509_key_size_helper
	.type	mbedtls_x509_key_size_helper, @function
mbedtls_x509_key_size_helper:
.LFB23:
	.loc 1 937 0
	.cfi_startproc
.LVL109:
	pushl	%ebp
	.cfi_def_cfa_offset 8
	.cfi_offset 5, -8
	movl	%esp, %ebp
	.cfi_def_cfa_register 5
.LVL110:
	pushl	%ebx
	pushl	%eax
	.cfi_offset 3, -12
	.loc 1 937 0
	movl	12(%ebp), %ebx
.LVL111:
	.loc 1 942 0
	pushl	16(%ebp)
	pushl	$.LC14
	pushl	%ebx
	pushl	8(%ebp)
	call	snprintf
.LVL112:
	.loc 1 943 0
	movl	%eax, %edx
	addl	$16, %esp
	shrl	$31, %edx
	jne	.L128
	cmpl	%eax, %ebx
	jbe	.L128
	.loc 1 945 0
	xorl	%eax, %eax
.LVL113:
	jmp	.L127
.LVL114:
.L128:
	.loc 1 943 0
	movl	$-10624, %eax
.LVL115:
.L127:
	.loc 1 946 0
	movl	-4(%ebp), %ebx
.LVL116:
	leave
	.cfi_restore 5
	.cfi_restore 3
	.cfi_def_cfa 4, 4
	ret
	.cfi_endproc
.LFE23:
	.size	mbedtls_x509_key_size_helper, .-mbedtls_x509_key_size_helper
	.section	.text.unlikely.mbedtls_x509_key_size_helper
.LCOLDE15:
	.section	.text.mbedtls_x509_key_size_helper
.LHOTE15:
	.section	.text.unlikely.mbedtls_x509_time_is_past,"ax",@progbits
.LCOLDB16:
	.section	.text.mbedtls_x509_time_is_past,"ax",@progbits
.LHOTB16:
	.globl	mbedtls_x509_time_is_past
	.type	mbedtls_x509_time_is_past, @function
mbedtls_x509_time_is_past:
.LFB27:
	.cfi_startproc
	pushl	%ebp
	.cfi_def_cfa_offset 8
	.cfi_offset 5, -8
	xorl	%eax, %eax
	movl	%esp, %ebp
	.cfi_def_cfa_register 5
	popl	%ebp
	.cfi_restore 5
	.cfi_def_cfa 4, 4
	ret
	.cfi_endproc
.LFE27:
	.size	mbedtls_x509_time_is_past, .-mbedtls_x509_time_is_past
	.section	.text.unlikely.mbedtls_x509_time_is_past
.LCOLDE16:
	.section	.text.mbedtls_x509_time_is_past
.LHOTE16:
	.section	.text.unlikely.mbedtls_x509_time_is_future,"ax",@progbits
.LCOLDB17:
	.section	.text.mbedtls_x509_time_is_future,"ax",@progbits
.LHOTB17:
	.globl	mbedtls_x509_time_is_future
	.type	mbedtls_x509_time_is_future, @function
mbedtls_x509_time_is_future:
.LFB25:
	.loc 1 1075 0
	.cfi_startproc
.LVL117:
	.loc 1 1075 0
	pushl	%ebp
	.cfi_def_cfa_offset 8
	.cfi_offset 5, -8
	.loc 1 1078 0
	xorl	%eax, %eax
	.loc 1 1075 0
	movl	%esp, %ebp
	.cfi_def_cfa_register 5
	.loc 1 1078 0
	popl	%ebp
	.cfi_restore 5
	.cfi_def_cfa 4, 4
	ret
	.cfi_endproc
.LFE25:
	.size	mbedtls_x509_time_is_future, .-mbedtls_x509_time_is_future
	.section	.text.unlikely.mbedtls_x509_time_is_future
.LCOLDE17:
	.section	.text.mbedtls_x509_time_is_future
.LHOTE17:
	.section	.data.CRT_OID_PKCS1_SHA256,"aw",@progbits
	.align 4
	.type	CRT_OID_PKCS1_SHA256, @object
	.size	CRT_OID_PKCS1_SHA256, 9
CRT_OID_PKCS1_SHA256:
	.byte	42
	.byte	-122
	.byte	72
	.byte	-122
	.byte	-9
	.byte	13
	.byte	1
	.byte	1
	.byte	11
	.section	.data.CRT_OID_PKCS1_SHA1,"aw",@progbits
	.align 4
	.type	CRT_OID_PKCS1_SHA1, @object
	.size	CRT_OID_PKCS1_SHA1, 9
CRT_OID_PKCS1_SHA1:
	.byte	42
	.byte	-122
	.byte	72
	.byte	-122
	.byte	-9
	.byte	13
	.byte	1
	.byte	1
	.byte	5
	.section	.data.CRT_OID_PKCS1_MD5,"aw",@progbits
	.align 4
	.type	CRT_OID_PKCS1_MD5, @object
	.size	CRT_OID_PKCS1_MD5, 9
CRT_OID_PKCS1_MD5:
	.byte	42
	.byte	-122
	.byte	72
	.byte	-122
	.byte	-9
	.byte	13
	.byte	1
	.byte	1
	.byte	4
	.text
.Letext0:
	.section	.text.unlikely.x509_parse_int
.Letext_cold0:
	.file 2 "./security/mbedtls/include/mbedtls/asn1.h"
	.file 3 "/home/stone/Documents/Ali_IOT/build/compiler/gcc-arm-none-eabi/Linux64/lib/gcc/arm-none-eabi/5.4.1/include/stddef.h"
	.file 4 "./security/mbedtls/include/mbedtls/md.h"
	.file 5 "./security/mbedtls/include/mbedtls/pk.h"
	.file 6 "./security/mbedtls/include/mbedtls/x509.h"
	.file 7 "./security/mbedtls/include/mbedtls/platform_alt.h"
	.file 8 "/home/stone/Documents/Ali_IOT/build/compiler/gcc-arm-none-eabi/Linux64/arm-none-eabi/include/string.h"
	.file 9 "/home/stone/Documents/Ali_IOT/build/compiler/gcc-arm-none-eabi/Linux64/arm-none-eabi/include/stdio.h"
	.section	.note.GNU-stack,"",@progbits
