	.file	"x509_crt.c"
	.text
.Ltext0:
	.section	.text.unlikely.mbedtls_zeroize,"ax",@progbits
.LCOLDB0:
	.section	.text.mbedtls_zeroize,"ax",@progbits
.LHOTB0:
	.section	.text.unlikely.mbedtls_zeroize
.Ltext_cold0:
	.section	.text.mbedtls_zeroize
	.type	mbedtls_zeroize, @function
mbedtls_zeroize:
.LFB10:
	.file 1 "security/mbedtls/src/x509_crt.c"
	.loc 1 81 0
	.cfi_startproc
.LVL0:
	pushl	%ebp
	.cfi_def_cfa_offset 8
	.cfi_offset 5, -8
	addl	%eax, %edx
.LVL1:
	movl	%esp, %ebp
	.cfi_def_cfa_register 5
.LVL2:
.L2:
	.loc 1 82 0 discriminator 1
	cmpl	%edx, %eax
	je	.L6
.LVL3:
	.loc 1 82 0 is_stmt 0 discriminator 3
	movb	$0, (%eax)
	incl	%eax
.LVL4:
	jmp	.L2
.LVL5:
.L6:
	.loc 1 83 0 is_stmt 1
	popl	%ebp
	.cfi_restore 5
	.cfi_def_cfa 4, 4
	ret
	.cfi_endproc
.LFE10:
	.size	mbedtls_zeroize, .-mbedtls_zeroize
	.section	.text.unlikely.mbedtls_zeroize
.LCOLDE0:
	.section	.text.mbedtls_zeroize
.LHOTE0:
	.section	.text.unlikely.x509_memcasecmp,"ax",@progbits
.LCOLDB1:
	.section	.text.x509_memcasecmp,"ax",@progbits
.LHOTB1:
	.type	x509_memcasecmp, @function
x509_memcasecmp:
.LFB27:
	.loc 1 1791 0
	.cfi_startproc
.LVL6:
	pushl	%ebp
	.cfi_def_cfa_offset 8
	.cfi_offset 5, -8
	movl	%esp, %ebp
	.cfi_def_cfa_register 5
	pushl	%edi
	pushl	%esi
	pushl	%ebx
	.cfi_offset 7, -12
	.cfi_offset 6, -16
	.cfi_offset 3, -20
	.loc 1 1791 0
	movl	%eax, %edi
.LVL7:
	.loc 1 1796 0
	xorl	%esi, %esi
.LVL8:
.L8:
	.loc 1 1796 0 is_stmt 0 discriminator 1
	cmpl	%ecx, %esi
	je	.L15
	.loc 1 1798 0 is_stmt 1
	movb	(%edi,%esi), %bl
.LVL9:
	.loc 1 1800 0
	movb	%bl, %al
	xorb	(%edx,%esi), %al
.LVL10:
	je	.L9
	.loc 1 1803 0
	cmpb	$32, %al
	jne	.L13
	.loc 1 1803 0 is_stmt 0 discriminator 1
	andl	$-33, %ebx
	subl	$65, %ebx
	cmpb	$25, %bl
	ja	.L13
.L9:
	.loc 1 1796 0 is_stmt 1 discriminator 2
	incl	%esi
.LVL11:
	jmp	.L8
.LVL12:
.L15:
	.loc 1 1813 0
	xorl	%eax, %eax
	jmp	.L10
.LVL13:
.L13:
	.loc 1 1810 0
	orl	$-1, %eax
.LVL14:
.L10:
	.loc 1 1814 0
	popl	%ebx
	.cfi_restore 3
	popl	%esi
	.cfi_restore 6
.LVL15:
	popl	%edi
	.cfi_restore 7
.LVL16:
	popl	%ebp
	.cfi_restore 5
	.cfi_def_cfa 4, 4
	ret
	.cfi_endproc
.LFE27:
	.size	x509_memcasecmp, .-x509_memcasecmp
	.section	.text.unlikely.x509_memcasecmp
.LCOLDE1:
	.section	.text.x509_memcasecmp
.LHOTE1:
	.section	.text.unlikely.x509_skip_parse,"ax",@progbits
.LCOLDB2:
	.section	.text.x509_skip_parse,"ax",@progbits
.LHOTB2:
	.type	x509_skip_parse, @function
x509_skip_parse:
.LFB14:
	.loc 1 225 0
	.cfi_startproc
.LVL17:
	pushl	%ebp
	.cfi_def_cfa_offset 8
	.cfi_offset 5, -8
	movl	%esp, %ebp
	.cfi_def_cfa_register 5
	pushl	%ebx
	.cfi_offset 3, -12
	movl	%eax, %ebx
	subl	$20, %esp
	.loc 1 225 0
	movl	%gs:20, %eax
	movl	%eax, -12(%ebp)
	xorl	%eax, %eax
.LVL18:
	.loc 1 229 0
	leal	-16(%ebp), %eax
	pushl	%ecx
	pushl	%eax
	pushl	%edx
	pushl	%ebx
	call	mbedtls_asn1_get_tag
.LVL19:
	addl	$16, %esp
	testl	%eax, %eax
	je	.L17
	.loc 1 231 0
	cmpl	$-98, %eax
	movl	$0, %edx
	cmove	%edx, %eax
.LVL20:
	jmp	.L18
.LVL21:
.L17:
	.loc 1 239 0
	movl	-16(%ebp), %eax
.LVL22:
	addl	%eax, (%ebx)
	.loc 1 241 0
	xorl	%eax, %eax
.L18:
	.loc 1 242 0
	movl	-12(%ebp), %ecx
	xorl	%gs:20, %ecx
	je	.L19
	call	__stack_chk_fail
.LVL23:
.L19:
	movl	-4(%ebp), %ebx
.LVL24:
	leave
	.cfi_restore 5
	.cfi_restore 3
	.cfi_def_cfa 4, 4
	ret
	.cfi_endproc
.LFE14:
	.size	x509_skip_parse, .-x509_skip_parse
	.section	.text.unlikely.x509_skip_parse
.LCOLDE2:
	.section	.text.x509_skip_parse
.LHOTE2:
	.section	.text.unlikely.x509_name_cmp,"ax",@progbits
.LCOLDB3:
	.section	.text.x509_name_cmp,"ax",@progbits
.LHOTB3:
	.type	x509_name_cmp, @function
x509_name_cmp:
.LFB30:
	.loc 1 1885 0
	.cfi_startproc
.LVL25:
	pushl	%ebp
	.cfi_def_cfa_offset 8
	.cfi_offset 5, -8
	movl	%esp, %ebp
	.cfi_def_cfa_register 5
	pushl	%edi
	pushl	%esi
	pushl	%ebx
	.cfi_offset 7, -12
	.cfi_offset 6, -16
	.cfi_offset 3, -20
	movl	%eax, %esi
	movl	%edx, %ebx
	subl	$28, %esp
.LVL26:
.L23:
	.loc 1 1887 0
	testl	%esi, %esi
	je	.L50
.L29:
	.loc 1 1889 0
	testl	%esi, %esi
	je	.L38
	testl	%ebx, %ebx
	je	.L38
	.loc 1 1893 0
	movl	(%ebx), %eax
	cmpl	%eax, (%esi)
	jne	.L38
	.loc 1 1894 0 discriminator 1
	movl	4(%esi), %eax
	.loc 1 1893 0 discriminator 1
	cmpl	4(%ebx), %eax
	jne	.L38
	.loc 1 1895 0
	pushl	%ecx
	pushl	%eax
	pushl	8(%ebx)
	pushl	8(%esi)
	call	memcmp
.LVL27:
	addl	$16, %esp
	.loc 1 1894 0
	testl	%eax, %eax
	jne	.L38
.LVL28:
.LBB4:
.LBB5:
	.loc 1 1856 0
	movl	12(%esi), %edx
	movl	12(%ebx), %edi
	cmpl	%edi, %edx
	jne	.L25
	.loc 1 1857 0
	movl	16(%esi), %eax
	.loc 1 1856 0
	cmpl	16(%ebx), %eax
	jne	.L25
	movl	%edx, -28(%ebp)
	.loc 1 1858 0
	pushl	%edx
	pushl	%eax
	pushl	20(%ebx)
	pushl	20(%esi)
	call	memcmp
.LVL29:
	addl	$16, %esp
	.loc 1 1857 0
	testl	%eax, %eax
	movl	-28(%ebp), %edx
	je	.L26
.L25:
	.loc 1 1863 0
	cmpl	$12, %edx
	je	.L39
	cmpl	$19, %edx
	jne	.L38
.L39:
	cmpl	$12, %edi
	je	.L40
	cmpl	$19, %edi
	jne	.L38
.L40:
	.loc 1 1865 0
	movl	16(%esi), %ecx
	.loc 1 1864 0
	cmpl	16(%ebx), %ecx
	jne	.L38
	.loc 1 1866 0
	movl	20(%ebx), %edx
	movl	20(%esi), %eax
	call	x509_memcasecmp
.LVL30:
	.loc 1 1865 0
	testl	%eax, %eax
	je	.L26
	jmp	.L38
.LVL31:
.L50:
.LBE5:
.LBE4:
	.loc 1 1887 0
	testl	%ebx, %ebx
	jne	.L29
	.loc 1 1913 0
	xorl	%eax, %eax
	jmp	.L47
.L38:
	.loc 1 1890 0
	orl	$-1, %eax
	jmp	.L47
.LVL32:
.L26:
	.loc 1 1905 0
	movb	28(%ebx), %al
	cmpb	%al, 28(%esi)
	jne	.L38
	.loc 1 1908 0
	movl	24(%esi), %esi
.LVL33:
	.loc 1 1909 0
	movl	24(%ebx), %ebx
.LVL34:
	jmp	.L23
.L47:
	.loc 1 1914 0
	leal	-12(%ebp), %esp
	popl	%ebx
	.cfi_restore 3
.LVL35:
	popl	%esi
	.cfi_restore 6
.LVL36:
	popl	%edi
	.cfi_restore 7
	popl	%ebp
	.cfi_restore 5
	.cfi_def_cfa 4, 4
	ret
	.cfi_endproc
.LFE30:
	.size	x509_name_cmp, .-x509_name_cmp
	.section	.text.unlikely.x509_name_cmp
.LCOLDE3:
	.section	.text.x509_name_cmp
.LHOTE3:
	.section	.text.unlikely.x509_crt_check_parent,"ax",@progbits
.LCOLDB4:
	.section	.text.x509_crt_check_parent,"ax",@progbits
.LHOTB4:
	.type	x509_crt_check_parent, @function
x509_crt_check_parent:
.LFB31:
	.loc 1 1926 0
	.cfi_startproc
.LVL37:
	pushl	%ebp
	.cfi_def_cfa_offset 8
	.cfi_offset 5, -8
	movl	%esp, %ebp
	.cfi_def_cfa_register 5
	pushl	%edi
	pushl	%esi
	pushl	%ebx
	.cfi_offset 7, -12
	.cfi_offset 6, -16
	.cfi_offset 3, -20
	movl	%eax, %esi
	movl	%edx, %ebx
	.loc 1 1930 0
	addl	$76, %eax
.LVL38:
	addl	$108, %edx
.LVL39:
	.loc 1 1926 0
	subl	$28, %esp
	.loc 1 1926 0
	movl	%ecx, -28(%ebp)
	.loc 1 1930 0
	call	x509_name_cmp
.LVL40:
	testl	%eax, %eax
	jne	.L55
.LVL41:
	.loc 1 1937 0
	movl	-28(%ebp), %ecx
	.loc 1 1934 0
	movl	$1, %edi
	.loc 1 1937 0
	testl	%ecx, %ecx
	je	.L53
	.loc 1 1934 0 discriminator 1
	xorl	%eax, %eax
	cmpl	$2, 24(%ebx)
	setg	%al
	movl	%eax, %edi
.L53:
.LVL42:
	.loc 1 1941 0
	testl	%ecx, %ecx
	je	.L54
	cmpl	$0, 8(%ebp)
	je	.L54
	.loc 1 1942 0 discriminator 1
	movl	4(%esi), %eax
	.loc 1 1941 0 discriminator 1
	cmpl	4(%ebx), %eax
	jne	.L54
	.loc 1 1943 0
	pushl	%edx
	pushl	%eax
	pushl	8(%ebx)
	pushl	8(%esi)
	call	memcmp
.LVL43:
	addl	$16, %esp
	.loc 1 1942 0
	testl	%eax, %eax
	je	.L52
.L54:
	.loc 1 1959 0
	xorl	%eax, %eax
	.loc 1 1948 0
	testl	%edi, %edi
	je	.L52
	.loc 1 1948 0 is_stmt 0 discriminator 1
	xorl	%eax, %eax
	cmpl	$0, 252(%ebx)
	sete	%al
	negl	%eax
	jmp	.L52
.L55:
	.loc 1 1931 0 is_stmt 1
	orl	$-1, %eax
.L52:
	.loc 1 1960 0
	leal	-12(%ebp), %esp
	popl	%ebx
	.cfi_restore 3
.LVL44:
	popl	%esi
	.cfi_restore 6
.LVL45:
	popl	%edi
	.cfi_restore 7
	popl	%ebp
	.cfi_restore 5
	.cfi_def_cfa 4, 4
	ret
	.cfi_endproc
.LFE31:
	.size	x509_crt_check_parent, .-x509_crt_check_parent
	.section	.text.unlikely.x509_crt_check_parent
.LCOLDE4:
	.section	.text.x509_crt_check_parent
.LHOTE4:
	.section	.text.unlikely.x509_check_wildcard,"ax",@progbits
.LCOLDB5:
	.section	.text.x509_check_wildcard,"ax",@progbits
.LHOTB5:
	.type	x509_check_wildcard, @function
x509_check_wildcard:
.LFB28:
	.loc 1 1820 0
	.cfi_startproc
.LVL46:
	pushl	%ebp
	.cfi_def_cfa_offset 8
	.cfi_offset 5, -8
	movl	%esp, %ebp
	.cfi_def_cfa_register 5
	pushl	%edi
	pushl	%esi
	pushl	%ebx
	.cfi_offset 7, -12
	.cfi_offset 6, -16
	.cfi_offset 3, -20
	movl	%eax, %ebx
	pushl	%ecx
	.loc 1 1822 0
	xorl	%eax, %eax
.LVL47:
	orl	$-1, %ecx
	movl	%ebx, %edi
	repnz scasb
.LVL48:
	.loc 1 1824 0
	movl	4(%edx), %edi
	.loc 1 1822 0
	notl	%ecx
	leal	-1(%ecx), %eax
	movl	%eax, -16(%ebp)
.LVL49:
	.loc 1 1825 0
	xorl	%eax, %eax
.LVL50:
	.loc 1 1824 0
	cmpl	$2, %edi
	jbe	.L71
	.loc 1 1824 0 is_stmt 0 discriminator 1
	movl	8(%edx), %esi
	.loc 1 1825 0 is_stmt 1 discriminator 1
	xorl	%eax, %eax
	.loc 1 1824 0 discriminator 1
	cmpb	$42, (%esi)
	jne	.L71
	xorl	%ecx, %ecx
	.loc 1 1824 0 is_stmt 0 discriminator 2
	cmpb	$46, 1(%esi)
	jne	.L71
.LVL51:
.L72:
	.loc 1 1827 0 is_stmt 1 discriminator 1
	cmpl	-16(%ebp), %ecx
	je	.L82
	.loc 1 1829 0
	cmpb	$46, (%ebx,%ecx)
	leal	(%ebx,%ecx), %edx
	je	.L73
	.loc 1 1827 0 discriminator 2
	incl	%ecx
.LVL52:
	jmp	.L72
.L82:
	.loc 1 1837 0
	orl	$-1, %eax
	jmp	.L71
.L73:
.LVL53:
	orl	$-1, %eax
	.loc 1 1836 0
	testl	%ecx, %ecx
	je	.L71
	.loc 1 1839 0
	movl	-16(%ebp), %ebx
	decl	%edi
	subl	%ecx, %ebx
	cmpl	%edi, %ebx
	movl	%ebx, %ecx
.LVL54:
	jne	.L71
	.loc 1 1840 0 discriminator 1
	leal	1(%esi), %eax
	call	x509_memcasecmp
.LVL55:
	.loc 1 1839 0 discriminator 1
	testl	%eax, %eax
	setne	%al
	movzbl	%al, %eax
	negl	%eax
.L71:
	.loc 1 1846 0
	popl	%edx
	popl	%ebx
	.cfi_restore 3
	popl	%esi
	.cfi_restore 6
	popl	%edi
	.cfi_restore 7
	popl	%ebp
	.cfi_restore 5
	.cfi_def_cfa 4, 4
.LVL56:
	ret
	.cfi_endproc
.LFE28:
	.size	x509_check_wildcard, .-x509_check_wildcard
	.section	.text.unlikely.x509_check_wildcard
.LCOLDE5:
	.section	.text.x509_check_wildcard
.LHOTE5:
	.section	.text.unlikely.x509_profile_check_key.isra.2,"ax",@progbits
.LCOLDB6:
	.section	.text.x509_profile_check_key.isra.2,"ax",@progbits
.LHOTB6:
	.type	x509_profile_check_key.isra.2, @function
x509_profile_check_key.isra.2:
.LFB40:
	.loc 1 190 0
	.cfi_startproc
.LVL57:
	pushl	%ebp
	.cfi_def_cfa_offset 8
	.cfi_offset 5, -8
	.loc 1 195 0
	cmpl	$1, %edx
	.loc 1 190 0
	movl	%esp, %ebp
	.cfi_def_cfa_register 5
	pushl	%ebx
	.cfi_offset 3, -12
	pushl	%ebx
	.loc 1 190 0
	movl	%eax, %ebx
	.loc 1 195 0
	je	.L87
	.loc 1 218 0
	orl	$-1, %eax
	.loc 1 195 0
	cmpl	$6, %edx
	jne	.L84
.L87:
	.loc 1 197 0
	subl	$12, %esp
	pushl	%ecx
	call	mbedtls_pk_get_bitlen
.LVL58:
	addl	$16, %esp
	cmpl	(%ebx), %eax
	sbbl	%eax, %eax
.L84:
	.loc 1 219 0
	movl	-4(%ebp), %ebx
	leave
	.cfi_restore 5
	.cfi_restore 3
	.cfi_def_cfa 4, 4
	ret
	.cfi_endproc
.LFE40:
	.size	x509_profile_check_key.isra.2, .-x509_profile_check_key.isra.2
	.section	.text.unlikely.x509_profile_check_key.isra.2
.LCOLDE6:
	.section	.text.x509_profile_check_key.isra.2
.LHOTE6:
	.section	.text.unlikely.x509_crt_verify_top.isra.3,"ax",@progbits
.LCOLDB7:
	.section	.text.x509_crt_verify_top.isra.3,"ax",@progbits
.LHOTB7:
	.type	x509_crt_verify_top.isra.3, @function
x509_crt_verify_top.isra.3:
.LFB41:
	.loc 1 1962 0
	.cfi_startproc
.LVL59:
	pushl	%ebp
	.cfi_def_cfa_offset 8
	.cfi_offset 5, -8
	movl	%esp, %ebp
	.cfi_def_cfa_register 5
	pushl	%edi
	pushl	%esi
	pushl	%ebx
	.cfi_offset 7, -12
	.cfi_offset 6, -16
	.cfi_offset 3, -20
	movl	%eax, %ebx
	movl	%edx, %esi
	subl	$104, %esp
	.loc 1 1962 0
	movl	20(%ebp), %eax
.LVL60:
	movl	%ecx, -88(%ebp)
	movl	16(%ebp), %edi
	.loc 1 1971 0
	movl	$0, -64(%ebp)
	.loc 1 1962 0
	movl	%eax, -80(%ebp)
	movl	24(%ebp), %eax
	movl	%eax, -92(%ebp)
	movl	%gs:20, %eax
	movl	%eax, -28(%ebp)
	xorl	%eax, %eax
.LVL61:
	.loc 1 1977 0
	leal	164(%ebx), %eax
	pushl	%eax
	call	mbedtls_x509_time_is_past
.LVL62:
	addl	$16, %esp
	testl	%eax, %eax
	je	.L90
	.loc 1 1978 0
	orl	$1, (%edi)
.L90:
	.loc 1 1979 0
	leal	140(%ebx), %eax
	subl	$12, %esp
	pushl	%eax
	call	mbedtls_x509_time_is_future
.LVL63:
	addl	$16, %esp
	testl	%eax, %eax
	je	.L91
	.loc 1 1980 0
	orl	$512, (%edi)
.L91:
	.loc 1 1981 0
	movl	296(%ebx), %edx
.LVL64:
.LBB10:
.LBB11:
	.loc 1 167 0
	movl	$1, %eax
	leal	-1(%edx), %ecx
	sall	%cl, %eax
	movl	-88(%ebp), %ecx
	testl	%eax, (%ecx)
	je	.L92
.LVL65:
.L111:
.LBE11:
.LBE10:
.LBB12:
.LBB13:
	.loc 1 180 0
	movl	300(%ebx), %eax
	leal	-1(%eax), %ecx
	movl	$1, %eax
	sall	%cl, %eax
	movl	-88(%ebp), %ecx
	testl	%eax, 4(%ecx)
	je	.L93
.LVL66:
.L112:
.LBE13:
.LBE12:
	.loc 1 1989 0
	orl	$8, (%edi)
	.loc 1 1991 0
	subl	$12, %esp
	pushl	%edx
	call	mbedtls_md_info_from_type
.LVL67:
	.loc 1 1992 0
	addl	$16, %esp
	testl	%eax, %eax
	.loc 1 1991 0
	movl	%eax, -84(%ebp)
.LVL68:
	.loc 1 1992 0
	je	.L94
	.loc 1 2000 0
	leal	-60(%ebp), %edx
	pushl	%edx
	pushl	16(%ebx)
	pushl	20(%ebx)
	pushl	%eax
	movl	%edx, -96(%ebp)
	call	mbedtls_md
.LVL69:
	addl	$16, %esp
	movl	$0, -76(%ebp)
.LVL70:
.L95:
	.loc 1 2002 0
	testl	%esi, %esi
	je	.L144
	.loc 1 2004 0
	subl	$12, %esp
	xorl	%eax, %eax
	cmpl	$0, 8(%ebp)
	movl	$1, %ecx
	movl	%esi, %edx
	sete	%al
	pushl	%eax
	movl	%ebx, %eax
	call	x509_crt_check_parent
.LVL71:
	addl	$16, %esp
	testl	%eax, %eax
	jne	.L96
	.loc 1 2007 0
	movl	8(%ebp), %eax
	leal	1(%eax), %edx
.LVL72:
	.loc 1 2013 0
	movl	68(%esi), %eax
	cmpl	%eax, 68(%ebx)
	jne	.L97
	movl	%edx, -100(%ebp)
.LVL73:
	.loc 1 2014 0
	pushl	%edx
	pushl	56(%ebx)
	pushl	72(%esi)
	pushl	72(%ebx)
	call	memcmp
.LVL74:
	addl	$16, %esp
	.loc 1 2017 0
	movl	-100(%ebp), %edx
	testl	%eax, %eax
	cmove	8(%ebp), %edx
.LVL75:
.L97:
	.loc 1 2021 0
	movl	256(%esi), %eax
	testl	%eax, %eax
	jle	.L98
	subl	12(%ebp), %edx
.LVL76:
	cmpl	%edx, %eax
	jl	.L96
.L98:
	.loc 1 2027 0
	movl	288(%ebx), %ecx
	.loc 1 2029 0
	movl	292(%ebx), %edx
	.loc 1 2028 0
	subl	$12, %esp
	pushl	-84(%ebp)
	.loc 1 2027 0
	movl	%ecx, -104(%ebp)
	.loc 1 2029 0
	movl	%edx, -100(%ebp)
	.loc 1 2028 0
	call	mbedtls_md_get_size
.LVL77:
	.loc 1 2027 0
	movl	-104(%ebp), %ecx
	movl	-100(%ebp), %edx
	movzbl	%al, %eax
	pushl	%ecx
	pushl	%edx
	pushl	%eax
	leal	188(%esi), %eax
	pushl	-96(%ebp)
	pushl	296(%ebx)
	pushl	%eax
	pushl	304(%ebx)
	pushl	300(%ebx)
	call	mbedtls_pk_verify_ext
.LVL78:
	addl	$48, %esp
	testl	%eax, %eax
	jne	.L96
	.loc 1 2034 0
	leal	164(%esi), %eax
	subl	$12, %esp
	pushl	%eax
	call	mbedtls_x509_time_is_past
.LVL79:
	addl	$16, %esp
	testl	%eax, %eax
	je	.L99
.L100:
	.loc 1 2037 0
	cmpl	$0, -76(%ebp)
	movl	-76(%ebp), %eax
	cmove	%esi, %eax
	movl	%eax, -76(%ebp)
.LVL80:
	jmp	.L96
.LVL81:
.L99:
	.loc 1 2035 0
	leal	140(%esi), %eax
	subl	$12, %esp
	pushl	%eax
	call	mbedtls_x509_time_is_future
.LVL82:
	.loc 1 2034 0
	addl	$16, %esp
	testl	%eax, %eax
	jne	.L100
	jmp	.L101
.LVL83:
.L96:
	.loc 1 2002 0
	movl	308(%esi), %esi
.LVL84:
	jmp	.L95
.L144:
.LVL85:
	.loc 1 2046 0
	movl	-76(%ebp), %esi
	testl	%esi, %esi
	je	.L94
.LVL86:
.L101:
	.loc 1 2051 0
	andl	$-9, (%edi)
	movl	-88(%ebp), %eax
	.loc 1 2053 0
	leal	188(%esi), %ecx
	movl	300(%ebx), %edx
	addl	$12, %eax
	call	x509_profile_check_key.isra.2
.LVL87:
	testl	%eax, %eax
	je	.L104
	.loc 1 2054 0
	orl	$65536, (%edi)
.L104:
	.loc 1 2062 0
	movl	68(%esi), %eax
	cmpl	%eax, 68(%ebx)
	jne	.L113
	.loc 1 2064 0
	pushl	%eax
	pushl	56(%ebx)
	pushl	72(%esi)
	pushl	72(%ebx)
	call	memcmp
.LVL88:
	addl	$16, %esp
	.loc 1 2063 0
	testl	%eax, %eax
	jne	.L113
.L94:
	.loc 1 2091 0
	cmpl	$0, -80(%ebp)
	jne	.L110
.L109:
	.loc 1 2097 0
	movl	-64(%ebp), %eax
	orl	%eax, (%edi)
	.loc 1 2099 0
	xorl	%eax, %eax
	jmp	.L108
.L113:
	.loc 1 2074 0
	leal	164(%esi), %eax
	subl	$12, %esp
	pushl	%eax
	call	mbedtls_x509_time_is_past
.LVL89:
	addl	$16, %esp
	testl	%eax, %eax
	je	.L105
	.loc 1 2075 0
	orl	$1, -64(%ebp)
.L105:
	.loc 1 2077 0
	leal	140(%esi), %eax
	subl	$12, %esp
	pushl	%eax
	call	mbedtls_x509_time_is_future
.LVL90:
	addl	$16, %esp
	testl	%eax, %eax
	je	.L106
	.loc 1 2078 0
	orl	$512, -64(%ebp)
.L106:
	.loc 1 2080 0
	cmpl	$0, -80(%ebp)
	je	.L109
	.loc 1 2082 0
	leal	-64(%ebp), %eax
	pushl	%eax
	movl	8(%ebp), %eax
	incl	%eax
	pushl	%eax
	pushl	%esi
	pushl	-92(%ebp)
	movl	-80(%ebp), %eax
	call	*%eax
.LVL91:
	addl	$16, %esp
	testl	%eax, %eax
	jne	.L108
.LVL92:
.L110:
	.loc 1 2093 0
	pushl	%edi
	pushl	8(%ebp)
	pushl	%ebx
	pushl	-92(%ebp)
	movl	-80(%ebp), %eax
	call	*%eax
.LVL93:
	addl	$16, %esp
	testl	%eax, %eax
	je	.L109
.LVL94:
.L108:
	.loc 1 2100 0
	movl	-28(%ebp), %edi
	xorl	%gs:20, %edi
	je	.L115
	call	__stack_chk_fail
.LVL95:
.L92:
	.loc 1 1982 0
	orl	$16384, (%edi)
	jmp	.L111
.LVL96:
.L93:
	.loc 1 1984 0
	orl	$32768, (%edi)
	jmp	.L112
.LVL97:
.L115:
	.loc 1 2100 0
	leal	-12(%ebp), %esp
	popl	%ebx
	.cfi_restore 3
.LVL98:
	popl	%esi
	.cfi_restore 6
.LVL99:
	popl	%edi
	.cfi_restore 7
	popl	%ebp
	.cfi_restore 5
	.cfi_def_cfa 4, 4
	ret
	.cfi_endproc
.LFE41:
	.size	x509_crt_verify_top.isra.3, .-x509_crt_verify_top.isra.3
	.section	.text.unlikely.x509_crt_verify_top.isra.3
.LCOLDE7:
	.section	.text.x509_crt_verify_top.isra.3
.LHOTE7:
	.section	.text.unlikely.x509_crt_verify_child,"ax",@progbits
.LCOLDB8:
	.section	.text.x509_crt_verify_child,"ax",@progbits
.LHOTB8:
	.type	x509_crt_verify_child, @function
x509_crt_verify_child:
.LFB33:
	.loc 1 2109 0
	.cfi_startproc
.LVL100:
	pushl	%ebp
	.cfi_def_cfa_offset 8
	.cfi_offset 5, -8
	movl	%esp, %ebp
	.cfi_def_cfa_register 5
	pushl	%edi
	pushl	%esi
	pushl	%ebx
	.cfi_offset 7, -12
	.cfi_offset 6, -16
	.cfi_offset 3, -20
	movl	%eax, %edi
	subl	$108, %esp
	.loc 1 2109 0
	movl	8(%ebp), %eax
.LVL101:
	movl	%edx, -76(%ebp)
	movl	%ecx, -92(%ebp)
	movl	24(%ebp), %ebx
	.loc 1 2111 0
	movl	$0, -64(%ebp)
	.loc 1 2109 0
	movl	%eax, -100(%ebp)
	movl	12(%ebp), %eax
	movl	%eax, -80(%ebp)
	movl	28(%ebp), %eax
	movl	%eax, -84(%ebp)
	movl	32(%ebp), %eax
	movl	%eax, -88(%ebp)
	movl	%gs:20, %eax
	movl	%eax, -28(%ebp)
	xorl	%eax, %eax
	.loc 1 2117 0
	cmpl	$0, 16(%ebp)
	je	.L146
	.loc 1 2117 0 is_stmt 0 discriminator 1
	leal	108(%edi), %edx
.LVL102:
	leal	76(%edi), %eax
	call	x509_name_cmp
.LVL103:
	.loc 1 2118 0 is_stmt 1 discriminator 1
	cmpl	$1, %eax
	adcl	$0, 20(%ebp)
	.loc 1 2121 0 discriminator 1
	cmpl	$7, 16(%ebp)
	jle	.L146
	.loc 1 2123 0
	orl	$8, (%ebx)
	.loc 1 2124 0
	movl	$-9984, %eax
	jmp	.L148
.L146:
	.loc 1 2127 0
	leal	164(%edi), %eax
	subl	$12, %esp
	pushl	%eax
	call	mbedtls_x509_time_is_past
.LVL104:
	addl	$16, %esp
	testl	%eax, %eax
	je	.L149
	.loc 1 2128 0
	orl	$1, (%ebx)
.L149:
	.loc 1 2130 0
	leal	140(%edi), %eax
	subl	$12, %esp
	pushl	%eax
	call	mbedtls_x509_time_is_future
.LVL105:
	addl	$16, %esp
	testl	%eax, %eax
	je	.L150
	.loc 1 2131 0
	orl	$512, (%ebx)
.L150:
	.loc 1 2133 0
	movl	296(%edi), %edx
.LVL106:
.LBB18:
.LBB19:
	.loc 1 167 0
	movl	$1, %eax
	leal	-1(%edx), %ecx
	sall	%cl, %eax
	movl	-80(%ebp), %ecx
	testl	%eax, (%ecx)
	je	.L151
.LVL107:
.L167:
.LBE19:
.LBE18:
.LBB20:
.LBB21:
	.loc 1 180 0
	movl	300(%edi), %eax
	movl	-80(%ebp), %esi
	leal	-1(%eax), %ecx
	movl	$1, %eax
	sall	%cl, %eax
	testl	%eax, 4(%esi)
	je	.L152
.LVL108:
.L168:
.LBE21:
.LBE20:
	.loc 1 2139 0
	subl	$12, %esp
	pushl	%edx
	call	mbedtls_md_info_from_type
.LVL109:
	.loc 1 2140 0
	addl	$16, %esp
	testl	%eax, %eax
	.loc 1 2139 0
	movl	%eax, %esi
.LVL110:
	.loc 1 2140 0
	jne	.L153
.LVL111:
.L197:
	.loc 1 2145 0
	orl	$8, (%ebx)
.L156:
	.loc 1 2109 0 discriminator 1
	movl	-92(%ebp), %esi
.LVL112:
	jmp	.L154
.LVL113:
.L153:
	.loc 1 2149 0
	leal	-60(%ebp), %eax
.LVL114:
	pushl	%eax
	pushl	16(%edi)
	pushl	20(%edi)
	pushl	%esi
	call	mbedtls_md
.LVL115:
	.loc 1 2151 0
	movl	-76(%ebp), %eax
	movl	300(%edi), %edx
	addl	$188, %eax
	movl	%eax, -96(%ebp)
	movl	-80(%ebp), %eax
	movl	-96(%ebp), %ecx
	addl	$12, %eax
	call	x509_profile_check_key.isra.2
.LVL116:
	addl	$16, %esp
	testl	%eax, %eax
	je	.L155
	.loc 1 2152 0
	orl	$65536, (%ebx)
.L155:
	.loc 1 2155 0
	subl	$12, %esp
	.loc 1 2154 0
	movl	288(%edi), %ecx
	.loc 1 2156 0
	movl	292(%edi), %edx
	.loc 1 2155 0
	pushl	%esi
	.loc 1 2154 0
	movl	%ecx, -108(%ebp)
	.loc 1 2156 0
	movl	%edx, -104(%ebp)
	.loc 1 2155 0
	call	mbedtls_md_get_size
.LVL117:
	.loc 1 2154 0
	movl	-108(%ebp), %ecx
	movl	-104(%ebp), %edx
	movzbl	%al, %eax
	pushl	%ecx
	pushl	%edx
	pushl	%eax
	leal	-60(%ebp), %eax
	pushl	%eax
	pushl	296(%edi)
	pushl	-96(%ebp)
	pushl	304(%edi)
	pushl	300(%edi)
	call	mbedtls_pk_verify_ext
.LVL118:
	addl	$48, %esp
	testl	%eax, %eax
	je	.L156
	jmp	.L197
.LVL119:
.L158:
	.loc 1 2172 0
	subl	$12, %esp
	xorl	%eax, %eax
	cmpl	$0, 16(%ebp)
	movl	%esi, %edx
	sete	%al
	xorl	%ecx, %ecx
	pushl	%eax
	movl	-76(%ebp), %eax
	call	x509_crt_check_parent
.LVL120:
	addl	$16, %esp
	testl	%eax, %eax
	je	.L157
	.loc 1 2170 0
	movl	308(%esi), %esi
.LVL121:
.L154:
	.loc 1 2168 0 discriminator 1
	testl	%esi, %esi
	jne	.L158
	jmp	.L203
.L205:
	.loc 1 2194 0 discriminator 1
	cmpl	-96(%ebp), %eax
	jge	.L160
.L161:
	.loc 1 2189 0
	movl	308(%esi), %esi
.LVL122:
.L170:
	.loc 1 2187 0 discriminator 1
	testl	%esi, %esi
	je	.L204
	.loc 1 2194 0
	movl	256(%esi), %eax
	testl	%eax, %eax
	jg	.L205
.L160:
	.loc 1 2200 0
	subl	$12, %esp
	xorl	%eax, %eax
	cmpl	$0, 16(%ebp)
	movl	%esi, %edx
	sete	%al
	xorl	%ecx, %ecx
	pushl	%eax
	movl	-76(%ebp), %eax
	call	x509_crt_check_parent
.LVL123:
	addl	$16, %esp
	testl	%eax, %eax
	jne	.L161
	.loc 1 2208 0
	pushl	%eax
	leal	-64(%ebp), %eax
	pushl	-88(%ebp)
	pushl	-84(%ebp)
	movl	-92(%ebp), %ecx
	movl	%esi, %edx
	pushl	%eax
	movl	16(%ebp), %eax
	pushl	20(%ebp)
	incl	%eax
	pushl	%eax
	movl	-76(%ebp), %eax
	pushl	-80(%ebp)
	pushl	-100(%ebp)
	call	x509_crt_verify_child
.LVL124:
.L201:
	.loc 1 2219 0
	addl	$32, %esp
	testl	%eax, %eax
	jne	.L148
	.loc 1 2225 0
	cmpl	$0, -84(%ebp)
	jne	.L165
.L166:
	.loc 1 2229 0
	movl	-64(%ebp), %eax
.LVL125:
	orl	%eax, (%ebx)
	.loc 1 2231 0
	xorl	%eax, %eax
.LVL126:
.L148:
	.loc 1 2232 0
	movl	-28(%ebp), %ebx
	xorl	%gs:20, %ebx
	je	.L171
	call	__stack_chk_fail
.LVL127:
.L151:
	.loc 1 2134 0
	orl	$16384, (%ebx)
	jmp	.L167
.LVL128:
.L152:
	.loc 1 2137 0
	orl	$32768, (%ebx)
	jmp	.L168
.LVL129:
.L157:
	.loc 1 2179 0
	leal	-64(%ebp), %eax
	subl	$12, %esp
	pushl	-88(%ebp)
	pushl	-84(%ebp)
	movl	-80(%ebp), %ecx
	movl	%esi, %edx
	pushl	%eax
	movl	16(%ebp), %eax
	pushl	20(%ebp)
	incl	%eax
	pushl	%eax
	jmp	.L202
.L203:
	.loc 1 2187 0
	movl	-76(%ebp), %eax
	movl	308(%eax), %esi
.LVL130:
	.loc 1 2194 0
	movl	16(%ebp), %eax
	addl	$2, %eax
	subl	20(%ebp), %eax
	movl	%eax, -96(%ebp)
	.loc 1 2187 0
	jmp	.L170
.L204:
	.loc 1 2216 0
	leal	-64(%ebp), %eax
	subl	$12, %esp
	pushl	-88(%ebp)
	pushl	-84(%ebp)
	movl	-80(%ebp), %ecx
	pushl	%eax
	movl	16(%ebp), %eax
	movl	-92(%ebp), %edx
	pushl	20(%ebp)
	incl	%eax
	pushl	%eax
.L202:
	movl	-76(%ebp), %eax
	call	x509_crt_verify_top.isra.3
.LVL131:
	jmp	.L201
.LVL132:
.L165:
	.loc 1 2226 0
	pushl	%ebx
	pushl	16(%ebp)
	pushl	%edi
	pushl	-88(%ebp)
	movl	-84(%ebp), %eax
.LVL133:
	call	*%eax
.LVL134:
	addl	$16, %esp
	testl	%eax, %eax
	je	.L166
	jmp	.L148
.LVL135:
.L171:
	.loc 1 2232 0
	leal	-12(%ebp), %esp
	popl	%ebx
	.cfi_restore 3
	popl	%esi
	.cfi_restore 6
	popl	%edi
	.cfi_restore 7
.LVL136:
	popl	%ebp
	.cfi_restore 5
	.cfi_def_cfa 4, 4
	ret
	.cfi_endproc
.LFE33:
	.size	x509_crt_verify_child, .-x509_crt_verify_child
	.section	.text.unlikely.x509_crt_verify_child
.LCOLDE8:
	.section	.text.x509_crt_verify_child
.LHOTE8:
	.section	.rodata.str1.1,"aMS",@progbits,1
.LC9:
	.string	"\nCertificate is uninitialised!\n"
.LC10:
	.string	"%scert. version     : %d\n"
.LC11:
	.string	"%sserial number     : "
.LC12:
	.string	"\n%sissued  on        : %04d-%02d-%02d %02d:%02d:%02d"
.LC13:
	.string	"\n%sexpires on        : %04d-%02d-%02d %02d:%02d:%02d"
.LC14:
	.string	"\n%s%-18s: %d bits"
.LC15:
	.string	"\n"
	.section	.text.unlikely.mbedtls_x509_crt_info,"ax",@progbits
.LCOLDB16:
	.section	.text.mbedtls_x509_crt_info,"ax",@progbits
.LHOTB16:
	.globl	mbedtls_x509_crt_info
	.type	mbedtls_x509_crt_info, @function
mbedtls_x509_crt_info:
.LFB25:
	.loc 1 1421 0
	.cfi_startproc
.LVL137:
	pushl	%ebp
	.cfi_def_cfa_offset 8
	.cfi_offset 5, -8
	movl	%esp, %ebp
	.cfi_def_cfa_register 5
	pushl	%edi
	pushl	%esi
	pushl	%ebx
	subl	$60, %esp
	.cfi_offset 7, -12
	.cfi_offset 6, -16
	.cfi_offset 3, -20
	.loc 1 1421 0
	movl	16(%ebp), %eax
	movl	20(%ebp), %edi
	movl	8(%ebp), %esi
	movl	%eax, -60(%ebp)
	movl	%gs:20, %eax
	movl	%eax, -28(%ebp)
	xorl	%eax, %eax
.LVL138:
	.loc 1 1430 0
	testl	%edi, %edi
	jne	.L207
	.loc 1 1432 0
	pushl	%eax
	pushl	$.LC9
	pushl	12(%ebp)
	pushl	%esi
	call	snprintf
.LVL139:
	.loc 1 1433 0
	movl	%eax, %edx
	addl	$16, %esp
	shrl	$31, %edx
	jne	.L210
	cmpl	%eax, 12(%ebp)
	ja	.L208
.LVL140:
.L210:
	movl	$-10624, %eax
	jmp	.L208
.LVL141:
.L207:
	.loc 1 1438 0
	subl	$12, %esp
	pushl	24(%edi)
	pushl	-60(%ebp)
	pushl	$.LC10
	pushl	12(%ebp)
	pushl	%esi
	call	snprintf
.LVL142:
	.loc 1 1440 0
	movl	%eax, %edx
	addl	$32, %esp
	shrl	$31, %edx
	jne	.L210
	cmpl	%eax, 12(%ebp)
	jbe	.L210
	.loc 1 1440 0 is_stmt 0 discriminator 2
	movl	12(%ebp), %ebx
	addl	%eax, %esi
.LVL143:
	.loc 1 1441 0 is_stmt 1 discriminator 2
	pushl	-60(%ebp)
	pushl	$.LC11
	.loc 1 1440 0 discriminator 2
	subl	%eax, %ebx
.LVL144:
	.loc 1 1441 0 discriminator 2
	pushl	%ebx
	pushl	%esi
	call	snprintf
.LVL145:
	.loc 1 1443 0 discriminator 2
	movl	%eax, %ecx
	addl	$16, %esp
	shrl	$31, %ecx
	jne	.L210
	cmpl	%eax, %ebx
	jbe	.L210
	subl	%eax, %ebx
.LVL146:
	addl	%eax, %esi
.LVL147:
.LVL148:
	.loc 1 1445 0 discriminator 2
	pushl	%eax
	leal	28(%edi), %eax
	pushl	%eax
	pushl	%ebx
	pushl	%esi
	call	mbedtls_x509_serial_gets
.LVL149:
	.loc 1 1446 0 discriminator 2
	movl	%eax, %edx
	addl	$16, %esp
	shrl	$31, %edx
	jne	.L210
	cmpl	%eax, %ebx
	jbe	.L210
	subl	%eax, %ebx
.LVL150:
	addl	%eax, %esi
.LVL151:
.LVL152:
	.loc 1 1460 0 discriminator 2
	pushl	%eax
	pushl	%eax
	pushl	160(%edi)
	pushl	156(%edi)
	pushl	152(%edi)
	pushl	148(%edi)
	pushl	144(%edi)
	pushl	140(%edi)
	pushl	-60(%ebp)
	pushl	$.LC12
	pushl	%ebx
	pushl	%esi
	call	snprintf
.LVL153:
	.loc 1 1465 0 discriminator 2
	movl	%eax, %ecx
	addl	$48, %esp
	shrl	$31, %ecx
	jne	.L210
	cmpl	%eax, %ebx
	jbe	.L210
	subl	%eax, %ebx
.LVL154:
	addl	%eax, %esi
.LVL155:
.LVL156:
	.loc 1 1467 0 discriminator 2
	pushl	%eax
	pushl	%eax
	pushl	184(%edi)
	pushl	180(%edi)
	pushl	176(%edi)
	pushl	172(%edi)
	pushl	168(%edi)
	pushl	164(%edi)
	pushl	-60(%ebp)
	pushl	$.LC13
	pushl	%ebx
	pushl	%esi
	call	snprintf
.LVL157:
	.loc 1 1472 0 discriminator 2
	addl	$48, %esp
	.loc 1 1467 0 discriminator 2
	movl	%eax, %ecx
	.loc 1 1472 0 discriminator 2
	shrl	$31, %eax
	jne	.L210
	cmpl	%ecx, %ebx
	movl	%ecx, -68(%ebp)
	jbe	.L210
.LVL158:
	.loc 1 1484 0 discriminator 2
	leal	188(%edi), %edx
	subl	$12, %esp
	pushl	%edx
	movl	%edx, -64(%ebp)
	call	mbedtls_pk_get_name
.LVL159:
	addl	$12, %esp
	pushl	%eax
	leal	-46(%ebp), %eax
	pushl	$18
	pushl	%eax
	call	mbedtls_x509_key_size_helper
.LVL160:
	addl	$16, %esp
	testl	%eax, %eax
	movl	-64(%ebp), %edx
	movl	-68(%ebp), %ecx
	jne	.L208
	.loc 1 1491 0
	subl	$12, %esp
	.loc 1 1472 0
	subl	%ecx, %ebx
.LVL161:
	addl	%ecx, %esi
.LVL162:
	.loc 1 1491 0
	pushl	%edx
	call	mbedtls_pk_get_bitlen
.LVL163:
	.loc 1 1490 0
	popl	%ecx
	popl	%edi
	pushl	%eax
	leal	-46(%ebp), %eax
	pushl	%eax
	pushl	-60(%ebp)
	pushl	$.LC14
	pushl	%ebx
	pushl	%esi
	call	snprintf
.LVL164:
	.loc 1 1492 0
	movl	%eax, %edx
	addl	$32, %esp
	shrl	$31, %edx
	jne	.L210
	cmpl	%eax, %ebx
	jbe	.L210
	.loc 1 1492 0 is_stmt 0 discriminator 2
	subl	%eax, %ebx
.LVL165:
	.loc 1 1550 0 is_stmt 1 discriminator 2
	addl	%esi, %eax
.LVL166:
	pushl	%edx
	pushl	$.LC15
	pushl	%ebx
	pushl	%eax
	call	snprintf
.LVL167:
	.loc 1 1551 0 discriminator 2
	movl	%eax, %ecx
	addl	$16, %esp
	shrl	$31, %ecx
	jne	.L210
	cmpl	%eax, %ebx
	jbe	.L210
.LVL168:
	.loc 1 1553 0 discriminator 2
	subl	%eax, %ebx
.LVL169:
	movl	12(%ebp), %eax
.LVL170:
	subl	%ebx, %eax
.LVL171:
.L208:
	.loc 1 1554 0
	movl	-28(%ebp), %edx
	xorl	%gs:20, %edx
	je	.L211
	call	__stack_chk_fail
.LVL172:
.L211:
	leal	-12(%ebp), %esp
	popl	%ebx
	.cfi_restore 3
	popl	%esi
	.cfi_restore 6
	popl	%edi
	.cfi_restore 7
	popl	%ebp
	.cfi_restore 5
	.cfi_def_cfa 4, 4
	ret
	.cfi_endproc
.LFE25:
	.size	mbedtls_x509_crt_info, .-mbedtls_x509_crt_info
	.section	.text.unlikely.mbedtls_x509_crt_info
.LCOLDE16:
	.section	.text.mbedtls_x509_crt_info
.LHOTE16:
	.section	.rodata.str1.1
.LC17:
	.string	"%s%s\n"
.LC18:
	.string	"%sUnknown reason (this should not happen)\n"
	.section	.text.unlikely.mbedtls_x509_crt_verify_info,"ax",@progbits
.LCOLDB19:
	.section	.text.mbedtls_x509_crt_verify_info,"ax",@progbits
.LHOTB19:
	.globl	mbedtls_x509_crt_verify_info
	.type	mbedtls_x509_crt_verify_info, @function
mbedtls_x509_crt_verify_info:
.LFB26:
	.loc 1 1587 0
	.cfi_startproc
.LVL173:
	pushl	%ebp
	.cfi_def_cfa_offset 8
	.cfi_offset 5, -8
	movl	%esp, %ebp
	.cfi_def_cfa_register 5
.LVL174:
	pushl	%edi
	pushl	%esi
	pushl	%ebx
	.cfi_offset 7, -12
	.cfi_offset 6, -16
	.cfi_offset 3, -20
	.loc 1 1593 0
	movl	$x509_crt_verify_strings, %esi
	.loc 1 1587 0
	subl	$28, %esp
	.loc 1 1587 0
	movl	8(%ebp), %edi
	movl	20(%ebp), %ecx
	.loc 1 1591 0
	movl	12(%ebp), %ebx
.LVL175:
.L217:
	.loc 1 1593 0 discriminator 1
	movl	4(%esi), %eax
	testl	%eax, %eax
	je	.L232
	.loc 1 1595 0
	testl	%ecx, (%esi)
	je	.L218
	.loc 1 1598 0
	subl	$12, %esp
	movl	%ecx, -28(%ebp)
	pushl	%eax
	pushl	16(%ebp)
	pushl	$.LC17
	pushl	%ebx
	pushl	%edi
	call	snprintf
.LVL176:
	.loc 1 1599 0
	movl	%eax, %edx
	addl	$32, %esp
	shrl	$31, %edx
	jne	.L224
	cmpl	%eax, %ebx
	movl	-28(%ebp), %ecx
	ja	.L219
.LVL177:
.L224:
	movl	$-10624, %eax
.LVL178:
	jmp	.L221
.LVL179:
.L219:
	.loc 1 1600 0 discriminator 2
	xorl	(%esi), %ecx
	.loc 1 1599 0 discriminator 2
	subl	%eax, %ebx
.LVL180:
	addl	%eax, %edi
.LVL181:
.L218:
	.loc 1 1593 0 discriminator 2
	addl	$8, %esi
.LVL182:
	jmp	.L217
.L232:
	.loc 1 1603 0
	testl	%ecx, %ecx
	je	.L223
	.loc 1 1605 0
	pushl	16(%ebp)
	pushl	$.LC18
	pushl	%ebx
	pushl	%edi
	call	snprintf
.LVL183:
	.loc 1 1607 0
	movl	%eax, %edx
	addl	$16, %esp
	shrl	$31, %edx
	jne	.L224
	cmpl	%eax, %ebx
	jbe	.L224
	.loc 1 1607 0 is_stmt 0 discriminator 2
	subl	%eax, %ebx
.LVL184:
.L223:
	.loc 1 1610 0 is_stmt 1
	movl	12(%ebp), %eax
	subl	%ebx, %eax
.L221:
	.loc 1 1611 0
	leal	-12(%ebp), %esp
	popl	%ebx
	.cfi_restore 3
.LVL185:
	popl	%esi
	.cfi_restore 6
.LVL186:
	popl	%edi
	.cfi_restore 7
	popl	%ebp
	.cfi_restore 5
	.cfi_def_cfa 4, 4
	ret
	.cfi_endproc
.LFE26:
	.size	mbedtls_x509_crt_verify_info, .-mbedtls_x509_crt_verify_info
	.section	.text.unlikely.mbedtls_x509_crt_verify_info
.LCOLDE19:
	.section	.text.mbedtls_x509_crt_verify_info
.LHOTE19:
	.section	.rodata.str1.1
.LC20:
	.string	"*."
.LC21:
	.string	"U\004\003"
	.section	.text.unlikely.mbedtls_x509_crt_verify_with_profile,"ax",@progbits
.LCOLDB22:
	.section	.text.mbedtls_x509_crt_verify_with_profile,"ax",@progbits
.LHOTB22:
	.globl	mbedtls_x509_crt_verify_with_profile
	.type	mbedtls_x509_crt_verify_with_profile, @function
mbedtls_x509_crt_verify_with_profile:
.LFB35:
	.loc 1 2259 0
	.cfi_startproc
.LVL187:
	pushl	%ebp
	.cfi_def_cfa_offset 8
	.cfi_offset 5, -8
	.loc 1 2269 0
	movl	$-10240, %eax
	.loc 1 2259 0
	movl	%esp, %ebp
	.cfi_def_cfa_register 5
.LVL188:
	pushl	%edi
	pushl	%esi
	pushl	%ebx
	subl	$28, %esp
	.cfi_offset 7, -12
	.cfi_offset 6, -16
	.cfi_offset 3, -20
	.loc 1 2268 0
	cmpl	$0, 20(%ebp)
	.loc 1 2259 0
	movl	28(%ebp), %ebx
	.loc 1 2268 0
	je	.L275
	.loc 1 2273 0
	cmpl	$0, 24(%ebp)
	.loc 1 2271 0
	movl	$0, (%ebx)
	.loc 1 2273 0
	je	.L235
.LVL189:
	.loc 1 2276 0
	movl	24(%ebp), %edi
	xorl	%eax, %eax
	orl	$-1, %ecx
	repnz scasb
.LVL190:
	notl	%ecx
	leal	-1(%ecx), %eax
	movl	%eax, -28(%ebp)
.LVL191:
	.loc 1 2278 0
	movl	8(%ebp), %eax
.LVL192:
	testb	$32, 248(%eax)
	.loc 1 2275 0
	leal	108(%eax), %esi
.LVL193:
	.loc 1 2278 0
	je	.L237
	.loc 1 2280 0
	movl	8(%ebp), %eax
	leal	232(%eax), %esi
.LVL194:
.L240:
	.loc 1 2284 0
	movl	4(%esi), %edi
	cmpl	%edi, -28(%ebp)
	jne	.L238
	.loc 1 2285 0 discriminator 1
	movl	8(%esi), %edx
	movl	-28(%ebp), %ecx
	movl	24(%ebp), %eax
	call	x509_memcasecmp
.LVL195:
	.loc 1 2284 0 discriminator 1
	testl	%eax, %eax
	je	.L235
.L238:
	.loc 1 2288 0
	cmpl	$2, %edi
	jbe	.L239
	.loc 1 2289 0 discriminator 1
	pushl	%edi
	pushl	$2
	pushl	$.LC20
	pushl	8(%esi)
	call	memcmp
.LVL196:
	addl	$16, %esp
	.loc 1 2288 0 discriminator 1
	testl	%eax, %eax
	jne	.L239
	.loc 1 2290 0
	movl	24(%ebp), %eax
	movl	%esi, %edx
	call	x509_check_wildcard
.LVL197:
	.loc 1 2289 0
	testl	%eax, %eax
	je	.L235
.L239:
	.loc 1 2295 0
	movl	12(%esi), %esi
.LVL198:
	.loc 1 2282 0
	testl	%esi, %esi
	jne	.L240
	jmp	.L241
.LVL199:
.L293:
	.loc 1 2305 0 discriminator 2
	pushl	%ecx
	pushl	$3
	pushl	8(%esi)
	pushl	$.LC21
	call	memcmp
.LVL200:
	addl	$16, %esp
	testl	%eax, %eax
	je	.L292
.L242:
	.loc 1 2317 0
	movl	24(%esi), %esi
.LVL201:
	.loc 1 2303 0
	testl	%esi, %esi
	je	.L241
.LVL202:
.L237:
	.loc 1 2305 0
	cmpl	$3, 4(%esi)
	jne	.L242
	jmp	.L293
.L292:
	.loc 1 2307 0
	movl	16(%esi), %edi
	cmpl	%edi, -28(%ebp)
	jne	.L254
	.loc 1 2308 0 discriminator 1
	movl	20(%esi), %eax
	movl	-28(%ebp), %ecx
	movl	24(%ebp), %edx
	call	x509_memcasecmp
.LVL203:
	.loc 1 2307 0 discriminator 1
	testl	%eax, %eax
	jne	.L254
.LVL204:
.L235:
	.loc 1 2326 0
	movl	8(%ebp), %eax
	subl	$12, %esp
	leal	188(%eax), %esi
	pushl	%esi
	call	mbedtls_pk_get_type
.LVL205:
.LBB24:
.LBB25:
	.loc 1 180 0
	movl	20(%ebp), %edi
	leal	-1(%eax), %ecx
.LBE25:
.LBE24:
	.loc 1 2326 0
	movl	%eax, %edx
.LVL206:
.LBB27:
.LBB26:
	.loc 1 180 0
	movl	$1, %eax
.LVL207:
	addl	$16, %esp
	sall	%cl, %eax
	testl	%eax, 4(%edi)
	je	.L244
.LVL208:
.L255:
	movl	20(%ebp), %eax
.LBE26:
.LBE27:
	.loc 1 2331 0
	movl	%esi, %ecx
	addl	$12, %eax
	call	x509_profile_check_key.isra.2
.LVL209:
	testl	%eax, %eax
	je	.L245
	.loc 1 2332 0
	orl	$65536, (%ebx)
.L245:
	.loc 1 2259 0 discriminator 1
	movl	12(%ebp), %esi
.L246:
.LVL210:
	.loc 1 2335 0 discriminator 1
	testl	%esi, %esi
	je	.L294
	.loc 1 2337 0
	subl	$12, %esp
	movl	8(%ebp), %eax
	xorl	%ecx, %ecx
	pushl	$1
	movl	%esi, %edx
	call	x509_crt_check_parent
.LVL211:
	addl	$16, %esp
	testl	%eax, %eax
	je	.L247
	.loc 1 2335 0 discriminator 2
	movl	308(%esi), %esi
.LVL212:
	jmp	.L246
.LVL213:
.L241:
	.loc 1 2299 0
	movl	$4, (%ebx)
	jmp	.L235
.LVL214:
.L254:
	.loc 1 2311 0
	cmpl	$2, %edi
	jbe	.L242
	.loc 1 2312 0 discriminator 1
	pushl	%edx
	pushl	$2
	pushl	$.LC20
	pushl	20(%esi)
	call	memcmp
.LVL215:
	addl	$16, %esp
	.loc 1 2311 0 discriminator 1
	testl	%eax, %eax
	jne	.L242
	.loc 1 2313 0
	movl	24(%ebp), %eax
	leal	12(%esi), %edx
	call	x509_check_wildcard
.LVL216:
	.loc 1 2312 0
	testl	%eax, %eax
	jne	.L242
	jmp	.L235
.LVL217:
.L244:
	.loc 1 2329 0
	orl	$32768, (%ebx)
	jmp	.L255
.LVL218:
.L247:
	.loc 1 2343 0
	subl	$12, %esp
	movl	20(%ebp), %ecx
	pushl	36(%ebp)
	movl	%esi, %edx
	pushl	32(%ebp)
	pushl	%ebx
	pushl	$0
	pushl	$0
	jmp	.L289
.L294:
	.loc 1 2351 0
	movl	8(%ebp), %eax
	movl	308(%eax), %esi
.LVL219:
.L257:
	.loc 1 2351 0 is_stmt 0 discriminator 1
	testl	%esi, %esi
	je	.L295
	.loc 1 2352 0 is_stmt 1
	subl	$12, %esp
	movl	8(%ebp), %eax
	xorl	%ecx, %ecx
	pushl	$1
	movl	%esi, %edx
	call	x509_crt_check_parent
.LVL220:
	addl	$16, %esp
	testl	%eax, %eax
	je	.L250
	.loc 1 2351 0 discriminator 2
	movl	308(%esi), %esi
.LVL221:
	jmp	.L257
.L250:
	.loc 1 2358 0
	movl	12(%ebp), %ecx
	pushl	%eax
	movl	%esi, %edx
	movl	8(%ebp), %eax
	pushl	36(%ebp)
	pushl	32(%ebp)
	pushl	%ebx
	pushl	$0
	pushl	$0
	pushl	20(%ebp)
	pushl	16(%ebp)
	call	x509_crt_verify_child
.LVL222:
	jmp	.L291
.LVL223:
.L295:
	.loc 1 2365 0
	subl	$12, %esp
	movl	20(%ebp), %ecx
	movl	12(%ebp), %edx
	pushl	36(%ebp)
	pushl	32(%ebp)
	pushl	%ebx
	pushl	$0
	pushl	$0
.L289:
	movl	8(%ebp), %eax
	call	x509_crt_verify_top.isra.3
.LVL224:
.L291:
	.loc 1 2367 0
	addl	$32, %esp
	testl	%eax, %eax
	jne	.L275
	.loc 1 2375 0
	cmpl	$1, (%ebx)
	sbbl	%eax, %eax
.LVL225:
	notl	%eax
	andl	$-9984, %eax
.LVL226:
.L275:
	.loc 1 2376 0
	leal	-12(%ebp), %esp
	popl	%ebx
	.cfi_restore 3
	popl	%esi
	.cfi_restore 6
	popl	%edi
	.cfi_restore 7
	popl	%ebp
	.cfi_restore 5
	.cfi_def_cfa 4, 4
	ret
	.cfi_endproc
.LFE35:
	.size	mbedtls_x509_crt_verify_with_profile, .-mbedtls_x509_crt_verify_with_profile
	.section	.text.unlikely.mbedtls_x509_crt_verify_with_profile
.LCOLDE22:
	.section	.text.mbedtls_x509_crt_verify_with_profile
.LHOTE22:
	.section	.text.unlikely.mbedtls_x509_crt_verify,"ax",@progbits
.LCOLDB23:
	.section	.text.mbedtls_x509_crt_verify,"ax",@progbits
.LHOTB23:
	.globl	mbedtls_x509_crt_verify
	.type	mbedtls_x509_crt_verify, @function
mbedtls_x509_crt_verify:
.LFB34:
	.loc 1 2243 0
	.cfi_startproc
.LVL227:
	pushl	%ebp
	.cfi_def_cfa_offset 8
	.cfi_offset 5, -8
	movl	%esp, %ebp
	.cfi_def_cfa_register 5
	subl	$8, %esp
	.loc 1 2244 0
	pushl	32(%ebp)
	pushl	28(%ebp)
	pushl	24(%ebp)
	pushl	20(%ebp)
	pushl	$mbedtls_x509_crt_profile_default
	pushl	16(%ebp)
	pushl	12(%ebp)
	pushl	8(%ebp)
	call	mbedtls_x509_crt_verify_with_profile
.LVL228:
	.loc 1 2246 0
	leave
	.cfi_restore 5
	.cfi_def_cfa 4, 4
	ret
	.cfi_endproc
.LFE34:
	.size	mbedtls_x509_crt_verify, .-mbedtls_x509_crt_verify
	.section	.text.unlikely.mbedtls_x509_crt_verify
.LCOLDE23:
	.section	.text.mbedtls_x509_crt_verify
.LHOTE23:
	.section	.text.unlikely.mbedtls_x509_crt_init,"ax",@progbits
.LCOLDB24:
	.section	.text.mbedtls_x509_crt_init,"ax",@progbits
.LHOTB24:
	.globl	mbedtls_x509_crt_init
	.type	mbedtls_x509_crt_init, @function
mbedtls_x509_crt_init:
.LFB36:
	.loc 1 2382 0
	.cfi_startproc
.LVL229:
	pushl	%ebp
	.cfi_def_cfa_offset 8
	.cfi_offset 5, -8
	.loc 1 2383 0
	movl	$78, %ecx
	xorl	%eax, %eax
	.loc 1 2382 0
	movl	%esp, %ebp
	.cfi_def_cfa_register 5
	pushl	%edi
	.cfi_offset 7, -12
	.loc 1 2383 0
	movl	8(%ebp), %edi
	rep stosl
	.loc 1 2384 0
	popl	%edi
	.cfi_restore 7
	popl	%ebp
	.cfi_restore 5
	.cfi_def_cfa 4, 4
	ret
	.cfi_endproc
.LFE36:
	.size	mbedtls_x509_crt_init, .-mbedtls_x509_crt_init
	.section	.text.unlikely.mbedtls_x509_crt_init
.LCOLDE24:
	.section	.text.mbedtls_x509_crt_init
.LHOTE24:
	.section	.text.unlikely.mbedtls_x509_crt_free,"ax",@progbits
.LCOLDB25:
	.section	.text.mbedtls_x509_crt_free,"ax",@progbits
.LHOTB25:
	.globl	mbedtls_x509_crt_free
	.type	mbedtls_x509_crt_free, @function
mbedtls_x509_crt_free:
.LFB37:
	.loc 1 2390 0
	.cfi_startproc
.LVL230:
	pushl	%ebp
	.cfi_def_cfa_offset 8
	.cfi_offset 5, -8
	movl	%esp, %ebp
	.cfi_def_cfa_register 5
	pushl	%edi
	pushl	%esi
	pushl	%ebx
	subl	$12, %esp
	.cfi_offset 7, -12
	.cfi_offset 6, -16
	.cfi_offset 3, -20
	.loc 1 2390 0
	movl	8(%ebp), %esi
.LVL231:
	.loc 1 2398 0
	testl	%esi, %esi
	je	.L300
	movl	%esi, %ebx
.LVL232:
.L317:
	.loc 1 2403 0
	leal	188(%ebx), %eax
	subl	$12, %esp
	pushl	%eax
	call	mbedtls_pk_free
.LVL233:
	.loc 1 2409 0
	movl	100(%ebx), %ecx
.LVL234:
	.loc 1 2410 0
	addl	$16, %esp
.L302:
	testl	%ecx, %ecx
	je	.L322
.LVL235:
	.loc 1 2414 0
	movl	%ecx, %eax
	movl	$32, %edx
	.loc 1 2413 0
	movl	24(%ecx), %edi
.LVL236:
	.loc 1 2414 0
	call	mbedtls_zeroize
.LVL237:
	.loc 1 2415 0
	subl	$12, %esp
	pushl	%ecx
	call	mbedtls_free
.LVL238:
	addl	$16, %esp
	.loc 1 2413 0
	movl	%edi, %ecx
	jmp	.L302
.LVL239:
.L322:
	.loc 1 2418 0
	movl	132(%ebx), %ecx
.LVL240:
.L304:
	.loc 1 2419 0
	testl	%ecx, %ecx
	je	.L323
.LVL241:
	.loc 1 2423 0
	movl	%ecx, %eax
	movl	$32, %edx
	.loc 1 2422 0
	movl	24(%ecx), %edi
.LVL242:
	.loc 1 2423 0
	call	mbedtls_zeroize
.LVL243:
	.loc 1 2424 0
	subl	$12, %esp
	pushl	%ecx
	call	mbedtls_free
.LVL244:
	addl	$16, %esp
	.loc 1 2422 0
	movl	%edi, %ecx
	jmp	.L304
.LVL245:
.L323:
	.loc 1 2427 0
	movl	276(%ebx), %ecx
.LVL246:
.L306:
	.loc 1 2428 0
	testl	%ecx, %ecx
	je	.L324
.LVL247:
	.loc 1 2432 0
	movl	%ecx, %eax
	movl	$16, %edx
	.loc 1 2431 0
	movl	12(%ecx), %edi
.LVL248:
	.loc 1 2432 0
	call	mbedtls_zeroize
.LVL249:
	.loc 1 2433 0
	subl	$12, %esp
	pushl	%ecx
	call	mbedtls_free
.LVL250:
	addl	$16, %esp
	.loc 1 2431 0
	movl	%edi, %ecx
	jmp	.L306
.LVL251:
.L324:
	.loc 1 2436 0
	movl	244(%ebx), %ecx
.LVL252:
.L308:
	.loc 1 2437 0
	testl	%ecx, %ecx
	je	.L325
.LVL253:
	.loc 1 2441 0
	movl	%ecx, %eax
	movl	$16, %edx
	.loc 1 2440 0
	movl	12(%ecx), %edi
.LVL254:
	.loc 1 2441 0
	call	mbedtls_zeroize
.LVL255:
	.loc 1 2442 0
	subl	$12, %esp
	pushl	%ecx
	call	mbedtls_free
.LVL256:
	addl	$16, %esp
	.loc 1 2440 0
	movl	%edi, %ecx
	jmp	.L308
.LVL257:
.L325:
	.loc 1 2445 0
	movl	8(%ebx), %eax
	testl	%eax, %eax
	je	.L310
	.loc 1 2447 0
	movl	4(%ebx), %edx
	call	mbedtls_zeroize
.LVL258:
	.loc 1 2448 0
	subl	$12, %esp
	pushl	8(%ebx)
	call	mbedtls_free
.LVL259:
	addl	$16, %esp
.L310:
	.loc 1 2451 0
	movl	308(%ebx), %ebx
.LVL260:
	.loc 1 2453 0
	testl	%ebx, %ebx
	jne	.L317
	movl	%esi, %ecx
.L313:
.LVL261:
	.loc 1 2461 0
	movl	$312, %edx
	movl	%ecx, %eax
	.loc 1 2459 0
	movl	308(%ecx), %ebx
.LVL262:
	.loc 1 2461 0
	call	mbedtls_zeroize
.LVL263:
	.loc 1 2462 0
	cmpl	%esi, %ecx
	je	.L312
	.loc 1 2463 0
	subl	$12, %esp
	pushl	%ecx
	call	mbedtls_free
.LVL264:
	addl	$16, %esp
.L312:
	.loc 1 2465 0
	testl	%ebx, %ebx
	movl	%ebx, %ecx
	jne	.L313
.LVL265:
.L300:
	.loc 1 2466 0
	leal	-12(%ebp), %esp
	popl	%ebx
	.cfi_restore 3
	popl	%esi
	.cfi_restore 6
	popl	%edi
	.cfi_restore 7
	popl	%ebp
	.cfi_restore 5
	.cfi_def_cfa 4, 4
	ret
	.cfi_endproc
.LFE37:
	.size	mbedtls_x509_crt_free, .-mbedtls_x509_crt_free
	.section	.text.unlikely.mbedtls_x509_crt_free
.LCOLDE25:
	.section	.text.mbedtls_x509_crt_free
.LHOTE25:
	.section	.text.unlikely.mbedtls_x509_crt_parse_der,"ax",@progbits
.LCOLDB26:
	.section	.text.mbedtls_x509_crt_parse_der,"ax",@progbits
.LHOTB26:
	.globl	mbedtls_x509_crt_parse_der
	.type	mbedtls_x509_crt_parse_der, @function
mbedtls_x509_crt_parse_der:
.LFB23:
	.loc 1 982 0
	.cfi_startproc
.LVL266:
	pushl	%ebp
	.cfi_def_cfa_offset 8
	.cfi_offset 5, -8
	movl	%esp, %ebp
	.cfi_def_cfa_register 5
	pushl	%edi
	pushl	%esi
	pushl	%ebx
	subl	$140, %esp
	.cfi_offset 7, -12
	.cfi_offset 6, -16
	.cfi_offset 3, -20
	.loc 1 982 0
	movl	8(%ebp), %eax
	movl	12(%ebp), %esi
	movl	%eax, -140(%ebp)
	movl	%gs:20, %eax
	movl	%eax, -28(%ebp)
	xorl	%eax, %eax
.LVL267:
	.loc 1 989 0
	cmpl	$0, -140(%ebp)
	je	.L404
	testl	%esi, %esi
	je	.L404
	movl	-140(%ebp), %ebx
	movl	$0, -132(%ebp)
.LVL268:
.L329:
	.loc 1 992 0
	cmpl	$0, 24(%ebx)
	je	.L328
	.loc 1 992 0 is_stmt 0 discriminator 1
	movl	308(%ebx), %eax
	movl	%ebx, -132(%ebp)
.LVL269:
	testl	%eax, %eax
	je	.L488
	movl	%eax, %ebx
.LVL270:
	jmp	.L329
.LVL271:
.L488:
	.loc 1 1003 0 is_stmt 1
	pushl	%eax
	pushl	%eax
	.loc 1 1006 0
	movl	$-10368, %edi
	.loc 1 1003 0
	pushl	$312
	pushl	$1
	call	mbedtls_calloc
.LVL272:
	.loc 1 1005 0
	addl	$16, %esp
	testl	%eax, %eax
	.loc 1 1003 0
	movl	%eax, 308(%ebx)
	.loc 1 1005 0
	je	.L327
.LVL273:
	.loc 1 1009 0
	pushl	%eax
	call	mbedtls_x509_crt_init
.LVL274:
	.loc 1 1010 0
	popl	%ecx
	movl	%ebx, -132(%ebp)
	movl	308(%ebx), %ebx
.LVL275:
.L328:
.LBB45:
.LBB46:
	.loc 1 715 0
	leal	-88(%ebp), %edx
	xorl	%eax, %eax
	movl	$3, %ecx
	.loc 1 722 0
	testl	%ebx, %ebx
	.loc 1 715 0
	movl	%edx, %edi
	.loc 1 716 0
	leal	-76(%ebp), %edx
	.loc 1 715 0
	rep stosl
	.loc 1 716 0
	movl	%edx, %edi
	.loc 1 717 0
	leal	-64(%ebp), %edx
	.loc 1 716 0
	movl	$3, %ecx
	rep stosl
	.loc 1 717 0
	movl	$3, %ecx
	movl	%edx, %edi
	rep stosl
	.loc 1 722 0
	je	.L406
	.loc 1 727 0
	movl	16(%ebp), %eax
	.loc 1 728 0
	movl	%esi, %edi
	.loc 1 736 0
	pushl	$48
	.loc 1 726 0
	movl	%esi, -108(%ebp)
	.loc 1 728 0
	addl	%eax, %edi
.LVL276:
	.loc 1 727 0
	movl	%eax, -112(%ebp)
	.loc 1 736 0
	leal	-112(%ebp), %eax
	pushl	%eax
	leal	-108(%ebp), %eax
	pushl	%edi
	pushl	%eax
	call	mbedtls_asn1_get_tag
.LVL277:
	addl	$16, %esp
	testl	%eax, %eax
	je	.L332
	.loc 1 739 0
	subl	$12, %esp
	.loc 1 740 0
	movl	$-8576, %edi
.LVL278:
	.loc 1 739 0
	pushl	%ebx
	call	mbedtls_x509_crt_free
.LVL279:
	addl	$16, %esp
	jmp	.L467
.LVL280:
.L332:
	.loc 1 743 0
	movl	-108(%ebp), %edx
	movl	-112(%ebp), %eax
.LVL281:
	subl	%edx, %edi
.LVL282:
	cmpl	%eax, %edi
	jb	.L487
.LVL283:
	.loc 1 752 0
	addl	%edx, %eax
.LVL284:
	subl	%esi, %eax
.LVL285:
	movl	%eax, 4(%ebx)
	.loc 1 753 0
	pushl	%edx
	pushl	%edx
	pushl	%eax
	pushl	$1
	call	mbedtls_calloc
.LVL286:
	.loc 1 754 0
	addl	$16, %esp
	testl	%eax, %eax
	.loc 1 753 0
	movl	%eax, -108(%ebp)
	movl	%eax, 8(%ebx)
	.loc 1 754 0
	je	.L407
	.loc 1 757 0
	movl	4(%ebx), %ecx
	movl	%eax, %edi
	rep movsb
.LVL287:
	.loc 1 760 0
	movl	4(%ebx), %eax
	movl	-112(%ebp), %edx
	subl	%edx, %eax
	addl	-108(%ebp), %eax
	.loc 1 766 0
	movl	%eax, 20(%ebx)
	.loc 1 761 0
	leal	(%eax,%edx), %ecx
	.loc 1 760 0
	movl	%eax, -108(%ebp)
	.loc 1 768 0
	leal	-112(%ebp), %eax
	pushl	$48
	.loc 1 761 0
	movl	%ecx, -136(%ebp)
.LVL288:
	.loc 1 768 0
	pushl	%eax
	leal	-108(%ebp), %eax
	pushl	%ecx
	pushl	%eax
	call	mbedtls_asn1_get_tag
.LVL289:
	addl	$16, %esp
	testl	%eax, %eax
	movl	%eax, %esi
.LVL290:
	je	.L334
	.loc 1 771 0
	subl	$12, %esp
	.loc 1 772 0
	leal	-8576(%esi), %edi
	.loc 1 771 0
	pushl	%ebx
	call	mbedtls_x509_crt_free
.LVL291:
	jmp	.L485
.LVL292:
.L334:
	.loc 1 775 0
	movl	-112(%ebp), %eax
.LVL293:
	addl	-108(%ebp), %eax
	movl	%eax, -124(%ebp)
.LVL294:
	.loc 1 776 0
	subl	20(%ebx), %eax
.LVL295:
	movl	%eax, 16(%ebx)
.LVL296:
.LBB47:
.LBB48:
	.loc 1 255 0
	leal	-40(%ebp), %eax
	pushl	$160
	pushl	%eax
	leal	-108(%ebp), %eax
.LVL297:
	pushl	-124(%ebp)
	pushl	%eax
	call	mbedtls_asn1_get_tag
.LVL298:
	addl	$16, %esp
	testl	%eax, %eax
	je	.L335
	.loc 1 258 0
	cmpl	$-98, %eax
	jne	.L336
	.loc 1 260 0
	movl	$0, 24(%ebx)
	jmp	.L468
.L335:
	.loc 1 267 0
	movl	-40(%ebp), %esi
.LVL299:
.LVL300:
	addl	-108(%ebp), %esi
.LVL301:
	.loc 1 269 0
	pushl	%eax
.LBE48:
.LBE47:
	.loc 1 785 0
	leal	24(%ebx), %eax
.LBB50:
.LBB49:
	.loc 1 269 0
	pushl	%eax
	leal	-108(%ebp), %eax
.LVL302:
	pushl	%esi
	pushl	%eax
	call	mbedtls_asn1_get_int
.LVL303:
	addl	$16, %esp
	testl	%eax, %eax
	je	.L337
	.loc 1 270 0
	subl	$8704, %eax
.LVL304:
	jmp	.L336
.LVL305:
.L337:
	.loc 1 272 0
	cmpl	-108(%ebp), %esi
	.loc 1 273 0
	movl	$-8806, %eax
.LVL306:
	.loc 1 272 0
	je	.L468
	jmp	.L486
.LVL307:
.L336:
.LBE49:
.LBE50:
	.loc 1 785 0
	testl	%eax, %eax
	jne	.L486
.L468:
	leal	-108(%ebp), %esi
	pushl	%eax
	.loc 1 786 0
	leal	28(%ebx), %eax
	.loc 1 785 0
	pushl	%eax
	pushl	-124(%ebp)
	pushl	%esi
	call	mbedtls_x509_get_serial
.LVL308:
	addl	$16, %esp
	testl	%eax, %eax
	jne	.L486
	.loc 1 786 0
	leal	-88(%ebp), %edx
	.loc 1 787 0
	leal	40(%ebx), %edi
	.loc 1 786 0
	pushl	%edx
	pushl	%edi
	pushl	-124(%ebp)
	pushl	%esi
	movl	%edx, -128(%ebp)
	call	mbedtls_x509_get_alg
.LVL309:
	addl	$16, %esp
	testl	%eax, %eax
	movl	-128(%ebp), %edx
	jne	.L486
	.loc 1 794 0
	movl	24(%ebx), %eax
.LVL310:
	incl	%eax
	.loc 1 796 0
	cmpl	$3, %eax
	.loc 1 794 0
	movl	%eax, 24(%ebx)
	.loc 1 796 0
	jle	.L340
	.loc 1 798 0
	subl	$12, %esp
	.loc 1 799 0
	movl	$-9600, %edi
	.loc 1 798 0
	pushl	%ebx
	call	mbedtls_x509_crt_free
.LVL311:
	addl	$16, %esp
	jmp	.L467
.L340:
	.loc 1 802 0
	leal	304(%ebx), %eax
	subl	$12, %esp
	pushl	%eax
	leal	300(%ebx), %eax
	pushl	%eax
	leal	296(%ebx), %eax
	pushl	%eax
	pushl	%edx
	pushl	%edi
	call	mbedtls_x509_get_sig_alg
.LVL312:
	addl	$32, %esp
	testl	%eax, %eax
	movl	%eax, %edi
.LVL313:
	jne	.L423
	.loc 1 813 0
	movl	-108(%ebp), %eax
.LVL314:
	.loc 1 815 0
	leal	-112(%ebp), %edi
.LVL315:
	.loc 1 813 0
	movl	%eax, 60(%ebx)
	.loc 1 815 0
	pushl	$48
	pushl	%edi
	pushl	-124(%ebp)
	pushl	%esi
	call	mbedtls_asn1_get_tag
.LVL316:
	addl	$16, %esp
	testl	%eax, %eax
	je	.L342
	.loc 1 818 0
	subl	$12, %esp
	movl	%eax, -124(%ebp)
.LVL317:
	pushl	%ebx
	call	mbedtls_x509_crt_free
.LVL318:
	.loc 1 819 0
	movl	-124(%ebp), %eax
	leal	-8576(%eax), %edi
	jmp	.L485
.LVL319:
.L342:
.LVL320:
	.loc 1 822 0
	pushl	%eax
	leal	76(%ebx), %eax
	pushl	%eax
	movl	-112(%ebp), %eax
	addl	-108(%ebp), %eax
	pushl	%eax
	pushl	%esi
	call	mbedtls_x509_get_name
.LVL321:
	addl	$16, %esp
	testl	%eax, %eax
	jne	.L486
	.loc 1 828 0
	movl	-108(%ebp), %eax
.LVL322:
	subl	60(%ebx), %eax
	.loc 1 840 0
	movl	$48, %ecx
	movl	-124(%ebp), %edx
	.loc 1 828 0
	movl	%eax, 56(%ebx)
	.loc 1 840 0
	movl	%esi, %eax
	call	x509_skip_parse
.LVL323:
	testl	%eax, %eax
	je	.L344
.LVL324:
.L486:
	.loc 1 844 0
	subl	$12, %esp
	movl	%eax, -124(%ebp)
.LVL325:
	pushl	%ebx
	call	mbedtls_x509_crt_free
.LVL326:
	movl	-124(%ebp), %eax
	addl	$16, %esp
	movl	%eax, %edi
	jmp	.L331
.LVL327:
.L344:
	.loc 1 851 0
	movl	-108(%ebp), %eax
.LVL328:
	movl	%eax, 72(%ebx)
	.loc 1 853 0
	pushl	$48
	pushl	%edi
	pushl	-124(%ebp)
	pushl	%esi
	call	mbedtls_asn1_get_tag
.LVL329:
	addl	$16, %esp
	testl	%eax, %eax
	movl	%eax, %edi
.LVL330:
	je	.L345
	.loc 1 856 0
	subl	$12, %esp
	.loc 1 857 0
	subl	$8576, %edi
	.loc 1 856 0
	pushl	%ebx
	call	mbedtls_x509_crt_free
.LVL331:
	jmp	.L485
.LVL332:
.L345:
	.loc 1 860 0
	movl	-112(%ebp), %eax
.LVL333:
	testl	%eax, %eax
	je	.L346
	addl	-108(%ebp), %eax
	leal	108(%ebx), %edx
.LVL334:
	pushl	%edi
	pushl	%edx
	pushl	%eax
	pushl	%esi
	call	mbedtls_x509_get_name
.LVL335:
	addl	$16, %esp
	testl	%eax, %eax
	movl	%eax, %esi
.LVL336:
	jne	.L484
.LVL337:
.L346:
	.loc 1 866 0
	movl	-108(%ebp), %eax
	subl	72(%ebx), %eax
	movl	%eax, 68(%ebx)
	.loc 1 871 0
	pushl	%esi
	leal	188(%ebx), %eax
	leal	-108(%ebp), %esi
	pushl	%eax
	pushl	-124(%ebp)
	pushl	%esi
	call	mbedtls_pk_parse_subpubkey
.LVL338:
	addl	$16, %esp
	testl	%eax, %eax
	movl	%eax, %edi
.LVL339:
	jne	.L423
	.loc 1 885 0
	movl	24(%ebx), %eax
.LVL340:
	subl	$2, %eax
	cmpl	$1, %eax
	ja	.L348
	.loc 1 890 0
	movl	-124(%ebp), %edx
	movl	%esi, %eax
	movl	$161, %ecx
	call	x509_skip_parse
.LVL341:
	.loc 1 893 0
	testl	%eax, %eax
	.loc 1 890 0
	movl	%eax, %esi
.LVL342:
	.loc 1 893 0
	jne	.L484
.LVL343:
.L348:
	.loc 1 900 0
	movl	24(%ebx), %eax
	subl	$2, %eax
	cmpl	$1, %eax
	ja	.L349
	.loc 1 905 0
	movl	-124(%ebp), %edx
	leal	-108(%ebp), %eax
	movl	$162, %ecx
	call	x509_skip_parse
.LVL344:
	.loc 1 908 0
	testl	%eax, %eax
	.loc 1 905 0
	movl	%eax, %esi
.LVL345:
	.loc 1 908 0
	jne	.L484
.LVL346:
.L349:
	.loc 1 916 0
	cmpl	$3, 24(%ebx)
	jne	.L350
.LVL347:
.LBB51:
.LBB52:
	.loc 1 571 0
	leal	220(%ebx), %eax
	leal	-108(%ebp), %esi
	pushl	$3
	pushl	%eax
	pushl	-124(%ebp)
	pushl	%esi
	call	mbedtls_x509_get_ext
.LVL348:
	addl	$16, %esp
	testl	%eax, %eax
	jne	.L469
.LBB53:
	.loc 1 591 0
	movl	%esi, -128(%ebp)
	jmp	.L351
.LVL349:
.L469:
.LBE53:
	.loc 1 573 0
	cmpl	$-98, %eax
	movl	%eax, %edi
	jne	.L352
	jmp	.L350
.LVL350:
.L394:
.LBB74:
	.loc 1 591 0
	leal	-104(%ebp), %eax
	pushl	$48
	.loc 1 587 0
	movl	$0, -52(%ebp)
	movl	$0, -48(%ebp)
	movl	$0, -44(%ebp)
	.loc 1 591 0
	pushl	%eax
	pushl	-124(%ebp)
	pushl	-128(%ebp)
	.loc 1 588 0
	movl	$0, -100(%ebp)
	.loc 1 589 0
	movl	$0, -96(%ebp)
	.loc 1 591 0
	call	mbedtls_asn1_get_tag
.LVL351:
	addl	$16, %esp
	testl	%eax, %eax
	jne	.L475
	.loc 1 595 0
	movl	-108(%ebp), %eax
.LVL352:
	movl	-104(%ebp), %esi
	addl	%eax, %esi
.LVL353:
	.loc 1 598 0
	movzbl	(%eax), %eax
	.loc 1 600 0
	pushl	$6
	.loc 1 598 0
	movl	%eax, -52(%ebp)
	.loc 1 600 0
	leal	-48(%ebp), %eax
	pushl	%eax
	pushl	-124(%ebp)
	pushl	-128(%ebp)
	call	mbedtls_asn1_get_tag
.LVL354:
	addl	$16, %esp
	testl	%eax, %eax
	jne	.L475
	.loc 1 603 0
	movl	-108(%ebp), %eax
.LVL355:
	.loc 1 606 0
	movl	-124(%ebp), %ecx
	.loc 1 603 0
	movl	%eax, -44(%ebp)
	.loc 1 604 0
	addl	-48(%ebp), %eax
	.loc 1 606 0
	subl	%eax, %ecx
	.loc 1 604 0
	movl	%eax, -108(%ebp)
	.loc 1 606 0
	testl	%ecx, %ecx
	jle	.L410
	.loc 1 611 0
	leal	-100(%ebp), %eax
	pushl	%ecx
	pushl	%eax
	pushl	%esi
	pushl	-128(%ebp)
	call	mbedtls_asn1_get_bool
.LVL356:
	addl	$16, %esp
	cmpl	$-98, %eax
	jne	.L489
.L356:
	.loc 1 616 0
	leal	-104(%ebp), %eax
.LVL357:
	pushl	$4
	pushl	%eax
	pushl	%esi
	pushl	-128(%ebp)
	call	mbedtls_asn1_get_tag
.LVL358:
	addl	$16, %esp
	testl	%eax, %eax
	jne	.L475
.LVL359:
	.loc 1 622 0
	movl	-104(%ebp), %eax
.LVL360:
	addl	-108(%ebp), %eax
.LVL361:
	cmpl	%eax, %esi
	jne	.L483
	.loc 1 629 0
	leal	-96(%ebp), %eax
.LVL362:
	pushl	%edx
	pushl	%edx
	pushl	%eax
	leal	-52(%ebp), %eax
	pushl	%eax
	call	mbedtls_oid_get_x509_ext_type
.LVL363:
	.loc 1 631 0
	addl	$16, %esp
	testl	%eax, %eax
	je	.L358
	.loc 1 634 0
	movl	%esi, -108(%ebp)
.LVL364:
.L351:
.LBE74:
	.loc 1 579 0
	movl	-124(%ebp), %eax
	cmpl	-108(%ebp), %eax
	ja	.L394
	jmp	.L490
.LVL365:
.L489:
.LBB75:
	.loc 1 611 0
	testl	%eax, %eax
	je	.L356
.LVL366:
.L475:
	.loc 1 618 0
	leal	-9472(%eax), %edi
	jmp	.L352
.LVL367:
.L358:
	.loc 1 650 0
	movl	248(%ebx), %edx
	movl	-96(%ebp), %eax
.LVL368:
	testl	%eax, %edx
	jne	.L412
	.loc 1 653 0
	orl	%eax, %edx
	.loc 1 655 0
	cmpl	$256, %eax
	.loc 1 653 0
	movl	%edx, 248(%ebx)
	.loc 1 655 0
	je	.L360
	jg	.L361
	cmpl	$4, %eax
	je	.L362
	cmpl	$32, %eax
	je	.L363
	jmp	.L413
.L361:
	cmpl	$2048, %eax
	je	.L364
	cmpl	$65536, %eax
	je	.L365
	jmp	.L413
.L360:
	.loc 1 659 0
	leal	256(%ebx), %eax
.LBB54:
.LBB55:
	.loc 1 357 0
	movl	$0, 252(%ebx)
	.loc 1 358 0
	movl	$0, 256(%ebx)
	.loc 1 360 0
	pushl	$48
.LBE55:
.LBE54:
	.loc 1 659 0
	leal	252(%ebx), %edi
.LVL369:
	movl	%eax, -144(%ebp)
.LVL370:
.LBB57:
.LBB56:
	.loc 1 360 0
	leal	-40(%ebp), %eax
	pushl	%eax
	pushl	%esi
	pushl	-128(%ebp)
	call	mbedtls_asn1_get_tag
.LVL371:
	addl	$16, %esp
	testl	%eax, %eax
	jne	.L474
	.loc 1 364 0
	cmpl	-108(%ebp), %esi
	je	.L351
.LVL372:
	.loc 1 367 0
	pushl	%eax
	pushl	%edi
	pushl	%esi
	pushl	-128(%ebp)
	call	mbedtls_asn1_get_bool
.LVL373:
	addl	$16, %esp
	testl	%eax, %eax
	je	.L370
	.loc 1 369 0
	cmpl	$-98, %eax
	jne	.L474
.LVL374:
	.loc 1 370 0
	pushl	%eax
	pushl	%edi
	pushl	%esi
	pushl	-128(%ebp)
	call	mbedtls_asn1_get_int
.LVL375:
	.loc 1 372 0
	addl	$16, %esp
	testl	%eax, %eax
	jne	.L474
	.loc 1 375 0
	cmpl	$0, 252(%ebx)
	je	.L370
	.loc 1 376 0
	movl	$1, 252(%ebx)
.L370:
	.loc 1 379 0
	cmpl	-108(%ebp), %esi
	je	.L351
.LVL376:
	.loc 1 382 0
	pushl	%eax
	pushl	-144(%ebp)
	pushl	%esi
	pushl	-128(%ebp)
	call	mbedtls_asn1_get_int
.LVL377:
	addl	$16, %esp
	testl	%eax, %eax
	jne	.L474
	.loc 1 385 0
	cmpl	-108(%ebp), %esi
	jne	.L483
	.loc 1 389 0
	incl	256(%ebx)
	jmp	.L351
.LVL378:
.L362:
.LBE56:
.LBE57:
.LBB58:
.LBB59:
	.loc 1 421 0
	pushl	%eax
	leal	-40(%ebp), %eax
	.loc 1 419 0
	movl	$0, -40(%ebp)
	movb	$0, -36(%ebp)
	movl	$0, -32(%ebp)
	.loc 1 421 0
	pushl	%eax
	pushl	%esi
	pushl	-128(%ebp)
	call	mbedtls_asn1_get_bitstring
.LVL379:
	addl	$16, %esp
	testl	%eax, %eax
	jne	.L482
	.loc 1 424 0
	movl	-40(%ebp), %esi
.LVL380:
	testl	%esi, %esi
	je	.L416
	.loc 1 432 0
	movl	-32(%ebp), %edi
	.loc 1 429 0
	movl	$0, 260(%ebx)
.LVL381:
	.loc 1 430 0
	xorl	%eax, %eax
.LVL382:
.L378:
	cmpl	$3, %eax
	ja	.L351
	cmpl	%eax, %esi
	jbe	.L351
	.loc 1 432 0
	movzbl	(%edi,%eax), %edx
	leal	0(,%eax,8), %ecx
	.loc 1 430 0
	incl	%eax
.LVL383:
	.loc 1 432 0
	sall	%cl, %edx
	orl	%edx, 260(%ebx)
	jmp	.L378
.LVL384:
.L364:
.LBE59:
.LBE58:
	.loc 1 673 0
	leal	264(%ebx), %eax
.LVL385:
.LBB60:
.LBB61:
	.loc 1 449 0
	pushl	$6
	pushl	%eax
	pushl	%esi
	pushl	-128(%ebp)
	call	mbedtls_asn1_get_sequence_of
.LVL386:
	addl	$16, %esp
	testl	%eax, %eax
	jne	.L482
	.loc 1 453 0
	cmpl	$0, 272(%ebx)
	jne	.L351
	jmp	.L416
.LVL387:
.L363:
.LBE61:
.LBE60:
.LBB63:
.LBB64:
	.loc 1 497 0
	leal	-92(%ebp), %eax
	pushl	$48
.LBE64:
.LBE63:
	.loc 1 680 0
	leal	232(%ebx), %edi
.LVL388:
.LBB67:
.LBB65:
	.loc 1 497 0
	pushl	%eax
	pushl	%esi
	pushl	-128(%ebp)
	call	mbedtls_asn1_get_tag
.LVL389:
	addl	$16, %esp
	testl	%eax, %eax
	jne	.L474
	.loc 1 501 0
	movl	-92(%ebp), %eax
.LVL390:
	addl	-108(%ebp), %eax
	cmpl	%eax, %esi
	je	.L386
	jmp	.L483
.LVL391:
.L387:
	.loc 1 516 0
	testb	%cl, %cl
	jns	.L418
	.loc 1 521 0
	cmpb	$-126, %cl
	je	.L388
	.loc 1 523 0
	movl	-40(%ebp), %eax
.LVL392:
	addl	%eax, -108(%ebp)
.LVL393:
.L386:
	.loc 1 505 0
	movl	-108(%ebp), %eax
	cmpl	%eax, %esi
	jbe	.L491
	.loc 1 507 0
	movl	%esi, %ecx
	subl	%eax, %ecx
	testl	%ecx, %ecx
	jle	.L410
	.loc 1 511 0
	movb	(%eax), %cl
	.loc 1 512 0
	incl	%eax
	movl	%eax, -108(%ebp)
	.loc 1 513 0
	pushl	%eax
	leal	-40(%ebp), %eax
	pushl	%eax
	pushl	%esi
	pushl	-128(%ebp)
	.loc 1 511 0
	movb	%cl, -144(%ebp)
.LVL394:
	.loc 1 513 0
	call	mbedtls_asn1_get_len
.LVL395:
	addl	$16, %esp
	testl	%eax, %eax
	movb	-144(%ebp), %cl
	je	.L387
.LVL396:
.L474:
	.loc 1 514 0
	leal	-9472(%eax), %edi
.LBE65:
.LBE67:
	.loc 1 680 0
	testl	%edi, %edi
	jmp	.L478
.LVL397:
.L388:
.LBB68:
.LBB66:
	.loc 1 528 0
	cmpl	$0, 8(%edi)
	je	.L390
	.loc 1 530 0
	cmpl	$0, 12(%edi)
	jne	.L412
.LVL398:
	.loc 1 533 0
	pushl	%eax
	pushl	%eax
	pushl	$16
	pushl	$1
	call	mbedtls_calloc
.LVL399:
	.loc 1 535 0
	addl	$16, %esp
	testl	%eax, %eax
	.loc 1 533 0
	movl	%eax, 12(%edi)
	.loc 1 535 0
	je	.L420
	movl	%eax, %edi
.LVL400:
.L390:
	.loc 1 544 0
	movl	-108(%ebp), %ecx
	.loc 1 543 0
	movl	$130, (%edi)
	.loc 1 545 0
	movl	-40(%ebp), %eax
	.loc 1 544 0
	movl	%ecx, 8(%edi)
	.loc 1 545 0
	movl	%eax, 4(%edi)
	.loc 1 546 0
	addl	%ecx, %eax
	movl	%eax, -108(%ebp)
	jmp	.L386
.LVL401:
.L491:
	.loc 1 550 0
	movl	$0, 12(%edi)
	.loc 1 552 0
	je	.L351
	jmp	.L483
.LVL402:
.L418:
	.loc 1 517 0
	movl	$-9570, %edi
.LVL403:
	jmp	.L423
.LVL404:
.L420:
	.loc 1 536 0
	movl	$-9578, %edi
.LVL405:
	jmp	.L423
.LVL406:
.L365:
.LBE66:
.LBE68:
.LBB69:
.LBB70:
	.loc 1 401 0
	leal	-40(%ebp), %eax
	pushl	%edi
	.loc 1 399 0
	movl	$0, -40(%ebp)
	movb	$0, -36(%ebp)
	movl	$0, -32(%ebp)
	.loc 1 401 0
	pushl	%eax
	pushl	%esi
	pushl	-128(%ebp)
	call	mbedtls_asn1_get_bitstring
.LVL407:
	addl	$16, %esp
	testl	%eax, %eax
	je	.L392
.LVL408:
.L482:
.LBE70:
.LBE69:
	.loc 1 687 0
	subl	$9472, %eax
	movl	%eax, %edi
.L478:
	je	.L351
	jmp	.L423
.LVL409:
.L392:
.LBB72:
.LBB71:
	.loc 1 404 0
	cmpl	$1, -40(%ebp)
	jne	.L416
	.loc 1 409 0
	movl	-32(%ebp), %eax
.LVL410:
	movb	(%eax), %al
	movb	%al, 280(%ebx)
	jmp	.L351
.LVL411:
.L410:
.LBE71:
.LBE72:
	.loc 1 607 0
	movl	$-9568, %edi
	jmp	.L423
.L412:
	.loc 1 651 0
	movl	$-9472, %edi
	jmp	.L423
.L413:
	.loc 1 693 0
	movl	$-8320, %edi
	jmp	.L423
.LVL412:
.L416:
.LBB73:
.LBB62:
	.loc 1 454 0
	movl	$-9572, %edi
	jmp	.L423
.L490:
.LBE62:
.LBE73:
.LBE75:
	.loc 1 697 0
	je	.L350
.L483:
	.loc 1 698 0
	movl	$-9574, %edi
	jmp	.L423
.LVL413:
.L352:
.LBE52:
.LBE51:
	.loc 1 921 0
	testl	%edi, %edi
	je	.L350
.L423:
	.loc 1 923 0
	subl	$12, %esp
	pushl	%ebx
	call	mbedtls_x509_crt_free
.LVL414:
.L485:
	addl	$16, %esp
	jmp	.L331
.LVL415:
.L350:
	.loc 1 928 0
	movl	-124(%ebp), %eax
	cmpl	-108(%ebp), %eax
	jne	.L487
.LVL416:
	.loc 1 944 0
	leal	-76(%ebp), %eax
	pushl	%eax
	leal	-64(%ebp), %eax
	pushl	%eax
	leal	-108(%ebp), %eax
	pushl	-136(%ebp)
	pushl	%eax
	call	mbedtls_x509_get_alg
.LVL417:
	addl	$16, %esp
	testl	%eax, %eax
	movl	%eax, %esi
.LVL418:
	jne	.L484
	.loc 1 950 0
	movl	44(%ebx), %eax
.LVL419:
	cmpl	-60(%ebp), %eax
	jne	.L398
.LVL420:
	.loc 1 951 0
	pushl	%esi
	pushl	%eax
	pushl	-56(%ebp)
	pushl	48(%ebx)
	call	memcmp
.LVL421:
	addl	$16, %esp
	.loc 1 950 0
	testl	%eax, %eax
	.loc 1 951 0
	movl	%eax, %edi
	.loc 1 950 0
	jne	.L398
	.loc 1 952 0
	movl	-84(%ebp), %eax
	.loc 1 951 0
	cmpl	-72(%ebp), %eax
	jne	.L398
	.loc 1 952 0
	testl	%eax, %eax
	je	.L399
	.loc 1 954 0
	pushl	%ecx
	pushl	%eax
	pushl	-68(%ebp)
	pushl	-80(%ebp)
	call	memcmp
.LVL422:
	addl	$16, %esp
	.loc 1 953 0
	testl	%eax, %eax
	je	.L399
.L398:
	.loc 1 956 0
	subl	$12, %esp
	.loc 1 957 0
	movl	$-9856, %edi
	.loc 1 956 0
	pushl	%ebx
	call	mbedtls_x509_crt_free
.LVL423:
	addl	$16, %esp
	jmp	.L467
.L399:
	.loc 1 960 0
	leal	284(%ebx), %eax
	pushl	%edx
	pushl	%eax
	leal	-108(%ebp), %eax
	pushl	-136(%ebp)
	pushl	%eax
	call	mbedtls_x509_get_sig
.LVL424:
	addl	$16, %esp
	testl	%eax, %eax
	movl	%eax, %esi
.LVL425:
	je	.L400
.LVL426:
.L484:
	.loc 1 962 0
	subl	$12, %esp
	movl	%esi, %edi
	pushl	%ebx
	call	mbedtls_x509_crt_free
.LVL427:
	addl	$16, %esp
	jmp	.L331
.LVL428:
.L400:
	.loc 1 966 0
	movl	-136(%ebp), %eax
.LVL429:
	cmpl	-108(%ebp), %eax
	je	.L327
.LVL430:
.L487:
	.loc 1 968 0
	subl	$12, %esp
	.loc 1 969 0
	movl	$-8678, %edi
	.loc 1 968 0
	pushl	%ebx
	call	mbedtls_x509_crt_free
.LVL431:
	addl	$16, %esp
	jmp	.L467
.LVL432:
.L406:
	.loc 1 723 0
	movl	$-10240, %edi
	jmp	.L467
.LVL433:
.L407:
	.loc 1 755 0
	movl	$-10368, %edi
	jmp	.L467
.LVL434:
.L331:
.LBE46:
.LBE45:
	.loc 1 1013 0
	testl	%edi, %edi
	je	.L327
.L467:
	.loc 1 1015 0
	cmpl	$0, -132(%ebp)
	je	.L401
	.loc 1 1016 0
	movl	-132(%ebp), %eax
	movl	$0, 308(%eax)
.L401:
	.loc 1 1018 0
	cmpl	-140(%ebp), %ebx
	je	.L327
	.loc 1 1019 0
	subl	$12, %esp
	pushl	%ebx
	call	mbedtls_free
.LVL435:
	addl	$16, %esp
	jmp	.L327
.LVL436:
.L404:
	.loc 1 990 0
	movl	$-10240, %edi
.LVL437:
.L327:
	.loc 1 1025 0
	movl	-28(%ebp), %edx
	xorl	%gs:20, %edx
	movl	%edi, %eax
	je	.L403
	call	__stack_chk_fail
.LVL438:
.L403:
	leal	-12(%ebp), %esp
	popl	%ebx
	.cfi_restore 3
	popl	%esi
	.cfi_restore 6
	popl	%edi
	.cfi_restore 7
	popl	%ebp
	.cfi_restore 5
	.cfi_def_cfa 4, 4
	ret
	.cfi_endproc
.LFE23:
	.size	mbedtls_x509_crt_parse_der, .-mbedtls_x509_crt_parse_der
	.section	.text.unlikely.mbedtls_x509_crt_parse_der
.LCOLDE26:
	.section	.text.mbedtls_x509_crt_parse_der
.LHOTE26:
	.section	.rodata.str1.1
.LC27:
	.string	"-----BEGIN CERTIFICATE-----"
.LC28:
	.string	"-----END CERTIFICATE-----"
	.section	.text.unlikely.mbedtls_x509_crt_parse,"ax",@progbits
.LCOLDB29:
	.section	.text.mbedtls_x509_crt_parse,"ax",@progbits
.LHOTB29:
	.globl	mbedtls_x509_crt_parse
	.type	mbedtls_x509_crt_parse, @function
mbedtls_x509_crt_parse:
.LFB24:
	.loc 1 1032 0
	.cfi_startproc
.LVL439:
	pushl	%ebp
	.cfi_def_cfa_offset 8
	.cfi_offset 5, -8
	movl	%esp, %ebp
	.cfi_def_cfa_register 5
	pushl	%edi
	pushl	%esi
	pushl	%ebx
	subl	$60, %esp
	.cfi_offset 7, -12
	.cfi_offset 6, -16
	.cfi_offset 3, -20
	.loc 1 1032 0
	movl	8(%ebp), %eax
	movl	12(%ebp), %ebx
	movl	%eax, -64(%ebp)
	movl	%gs:20, %eax
	movl	%eax, -28(%ebp)
	xorl	%eax, %eax
.LVL440:
	.loc 1 1041 0
	cmpl	$0, -64(%ebp)
	je	.L508
	testl	%ebx, %ebx
	je	.L508
	.loc 1 1049 0
	cmpl	$0, 16(%ebp)
	je	.L494
	.loc 1 1049 0 is_stmt 0 discriminator 1
	movl	16(%ebp), %eax
	cmpb	$0, -1(%ebx,%eax)
	jne	.L494
	.loc 1 1050 0 is_stmt 1 discriminator 2
	pushl	%ecx
	pushl	%ecx
	pushl	$.LC27
	pushl	%ebx
	call	strstr
.LVL441:
	addl	$16, %esp
	.loc 1 1049 0 discriminator 2
	testl	%eax, %eax
	je	.L494
.LBB76:
.LBB77:
	.loc 1 1071 0
	leal	-40(%ebp), %esi
.LBE77:
.LBE76:
	movl	$0, -60(%ebp)
	xorl	%edi, %edi
	movl	$0, -68(%ebp)
.LVL442:
.L495:
.LBB79:
	.loc 1 1068 0
	cmpl	$1, 16(%ebp)
	jbe	.L505
.LBB78:
	.loc 1 1071 0
	subl	$12, %esp
	pushl	%esi
	call	mbedtls_pem_init
.LVL443:
	.loc 1 1074 0
	leal	-44(%ebp), %eax
	addl	$12, %esp
	pushl	%eax
	pushl	$0
	pushl	$0
	pushl	%ebx
	pushl	$.LC28
	pushl	$.LC27
	pushl	%esi
	call	mbedtls_pem_read_buffer
.LVL444:
	.loc 1 1079 0
	addl	$32, %esp
	testl	%eax, %eax
	jne	.L496
	.loc 1 1084 0
	movl	-44(%ebp), %eax
.LVL445:
	.loc 1 1110 0
	pushl	%edx
	pushl	-36(%ebp)
	pushl	-40(%ebp)
	pushl	-64(%ebp)
	.loc 1 1084 0
	subl	%eax, 16(%ebp)
	.loc 1 1085 0
	addl	%eax, %ebx
.LVL446:
	.loc 1 1110 0
	call	mbedtls_x509_crt_parse_der
.LVL447:
	.loc 1 1112 0
	movl	%esi, (%esp)
	.loc 1 1110 0
	movl	%eax, -72(%ebp)
.LVL448:
	.loc 1 1112 0
	call	mbedtls_pem_free
.LVL449:
	.loc 1 1114 0
	movl	-72(%ebp), %eax
	addl	$16, %esp
	testl	%eax, %eax
	jne	.L497
	jmp	.L530
.LVL450:
.L496:
	.loc 1 1087 0
	cmpl	$-5248, %eax
	je	.L493
	.loc 1 1091 0
	cmpl	$-4224, %eax
	movl	%eax, -72(%ebp)
	je	.L505
	.loc 1 1093 0
	subl	$12, %esp
	pushl	%esi
	call	mbedtls_pem_free
.LVL451:
	.loc 1 1098 0
	movl	-44(%ebp), %ecx
	.loc 1 1101 0
	addl	$16, %esp
	.loc 1 1098 0
	subl	%ecx, 16(%ebp)
	.loc 1 1101 0
	movl	-72(%ebp), %eax
	.loc 1 1099 0
	addl	%ecx, %ebx
.LVL452:
	.loc 1 1101 0
	testl	%edi, %edi
	jmp	.L529
.L497:
	.loc 1 1119 0
	cmpl	$-10368, %eax
	je	.L493
	.loc 1 1122 0
	testl	%edi, %edi
.L529:
	cmove	%eax, %edi
.LVL453:
	.loc 1 1125 0
	incl	-60(%ebp)
.LVL454:
	.loc 1 1126 0
	jmp	.L495
.LVL455:
.L530:
	.loc 1 1129 0
	movl	$1, -68(%ebp)
	jmp	.L495
.LVL456:
.L505:
.LBE78:
.LBE79:
	.loc 1 1133 0 discriminator 1
	cmpl	$0, -68(%ebp)
	movl	-60(%ebp), %eax
	jne	.L493
	.loc 1 1135 0
	testl	%edi, %edi
	movl	$-10112, %eax
	cmovne	%edi, %eax
	jmp	.L493
.LVL457:
.L508:
	.loc 1 1042 0
	movl	$-10240, %eax
.LVL458:
.L493:
	.loc 1 1140 0 discriminator 2
	movl	-28(%ebp), %edx
	xorl	%gs:20, %edx
	je	.L507
	.loc 1 1140 0 is_stmt 0
	call	__stack_chk_fail
.LVL459:
.L494:
	.loc 1 1056 0 is_stmt 1
	pushl	%eax
	pushl	16(%ebp)
	pushl	%ebx
	pushl	-64(%ebp)
	call	mbedtls_x509_crt_parse_der
.LVL460:
	addl	$16, %esp
	jmp	.L493
.LVL461:
.L507:
	.loc 1 1140 0
	leal	-12(%ebp), %esp
	popl	%ebx
	.cfi_restore 3
	popl	%esi
	.cfi_restore 6
	popl	%edi
	.cfi_restore 7
	popl	%ebp
	.cfi_restore 5
	.cfi_def_cfa 4, 4
	ret
	.cfi_endproc
.LFE24:
	.size	mbedtls_x509_crt_parse, .-mbedtls_x509_crt_parse
	.section	.text.unlikely.mbedtls_x509_crt_parse
.LCOLDE29:
	.section	.text.mbedtls_x509_crt_parse
.LHOTE29:
	.section	.rodata.str1.1
.LC30:
	.string	"The certificate validity has expired"
.LC31:
	.string	"The certificate has been revoked (is on a CRL)"
.LC32:
	.string	"The certificate Common Name (CN) does not match with the expected CN"
.LC33:
	.string	"The certificate is not correctly signed by the trusted CA"
.LC34:
	.string	"The CRL is not correctly signed by the trusted CA"
.LC35:
	.string	"The CRL is expired"
.LC36:
	.string	"Certificate was missing"
.LC37:
	.string	"Certificate verification was skipped"
.LC38:
	.string	"Other reason (can be used by verify callback)"
.LC39:
	.string	"The certificate validity starts in the future"
.LC40:
	.string	"The CRL is from the future"
.LC41:
	.string	"Usage does not match the keyUsage extension"
.LC42:
	.string	"Usage does not match the extendedKeyUsage extension"
.LC43:
	.string	"Usage does not match the nsCertType extension"
.LC44:
	.string	"The certificate is signed with an unacceptable hash."
.LC45:
	.string	"The certificate is signed with an unacceptable PK alg (eg RSA vs ECDSA)."
.LC46:
	.string	"The certificate is signed with an unacceptable key (eg bad curve, RSA too short)."
.LC47:
	.string	"The CRL is signed with an unacceptable hash."
.LC48:
	.string	"The CRL is signed with an unacceptable PK alg (eg RSA vs ECDSA)."
.LC49:
	.string	"The CRL is signed with an unacceptable key (eg bad curve, RSA too short)."
	.section	.rodata.x509_crt_verify_strings,"a",@progbits
	.align 32
	.type	x509_crt_verify_strings, @object
	.size	x509_crt_verify_strings, 168
x509_crt_verify_strings:
	.long	1
	.long	.LC30
	.long	2
	.long	.LC31
	.long	4
	.long	.LC32
	.long	8
	.long	.LC33
	.long	16
	.long	.LC34
	.long	32
	.long	.LC35
	.long	64
	.long	.LC36
	.long	128
	.long	.LC37
	.long	256
	.long	.LC38
	.long	512
	.long	.LC39
	.long	1024
	.long	.LC40
	.long	2048
	.long	.LC41
	.long	4096
	.long	.LC42
	.long	8192
	.long	.LC43
	.long	16384
	.long	.LC44
	.long	32768
	.long	.LC45
	.long	65536
	.long	.LC46
	.long	131072
	.long	.LC47
	.long	262144
	.long	.LC48
	.long	524288
	.long	.LC49
	.long	0
	.long	0
	.globl	mbedtls_x509_crt_profile_suiteb
	.section	.rodata.mbedtls_x509_crt_profile_suiteb,"a",@progbits
	.align 4
	.type	mbedtls_x509_crt_profile_suiteb, @object
	.size	mbedtls_x509_crt_profile_suiteb, 16
mbedtls_x509_crt_profile_suiteb:
	.long	96
	.long	8
	.long	0
	.long	0
	.globl	mbedtls_x509_crt_profile_next
	.section	.rodata.mbedtls_x509_crt_profile_next,"a",@progbits
	.align 4
	.type	mbedtls_x509_crt_profile_next, @object
	.size	mbedtls_x509_crt_profile_next, 16
mbedtls_x509_crt_profile_next:
	.long	224
	.long	268435455
	.long	0
	.long	2048
	.globl	mbedtls_x509_crt_profile_default
	.section	.rodata.mbedtls_x509_crt_profile_default,"a",@progbits
	.align 4
	.type	mbedtls_x509_crt_profile_default, @object
	.size	mbedtls_x509_crt_profile_default, 16
mbedtls_x509_crt_profile_default:
	.long	44
	.long	1
	.long	0
	.long	2048
	.text
.Letext0:
	.section	.text.unlikely.mbedtls_zeroize
.Letext_cold0:
	.file 2 "/home/stone/Documents/Ali_IOT/build/compiler/gcc-arm-none-eabi/Linux64/arm-none-eabi/include/machine/_default_types.h"
	.file 3 "/home/stone/Documents/Ali_IOT/build/compiler/gcc-arm-none-eabi/Linux64/lib/gcc/arm-none-eabi/5.4.1/include/stddef.h"
	.file 4 "./security/mbedtls/include/mbedtls/asn1.h"
	.file 5 "./security/mbedtls/include/mbedtls/md.h"
	.file 6 "/home/stone/Documents/Ali_IOT/build/compiler/gcc-arm-none-eabi/Linux64/arm-none-eabi/include/sys/_stdint.h"
	.file 7 "./security/mbedtls/include/mbedtls/pk.h"
	.file 8 "./security/mbedtls/include/mbedtls/x509.h"
	.file 9 "./security/mbedtls/include/mbedtls/x509_crl.h"
	.file 10 "./security/mbedtls/include/mbedtls/x509_crt.h"
	.file 11 "./security/mbedtls/include/mbedtls/pem.h"
	.file 12 "/home/stone/Documents/Ali_IOT/build/compiler/gcc-arm-none-eabi/Linux64/arm-none-eabi/include/string.h"
	.file 13 "/home/stone/Documents/Ali_IOT/build/compiler/gcc-arm-none-eabi/Linux64/arm-none-eabi/include/stdio.h"
	.file 14 "./security/mbedtls/include/mbedtls/platform_alt.h"
	.file 15 "./security/mbedtls/include/mbedtls/oid.h"
	.section	.note.GNU-stack,"",@progbits
