	.file	"yloop.c"
	.text
.Ltext0:
	.section	.text.unlikely.get_context,"ax",@progbits
.LCOLDB0:
	.section	.text.get_context,"ax",@progbits
.LHOTB0:
	.section	.text.unlikely.get_context
.Ltext_cold0:
	.section	.text.get_context
	.type	get_context, @function
get_context:
.LFB35:
	.file 1 "kernel/yloop/yloop.c"
	.loc 1 41 0
	.cfi_startproc
	pushl	%ebp
	.cfi_def_cfa_offset 8
	.cfi_offset 5, -8
	movl	%esp, %ebp
	.cfi_def_cfa_register 5
	subl	$20, %esp
.LBB34:
.LBB35:
	.loc 1 37 0
	pushl	g_loop_key
	call	aos_task_getspecific
.LVL0:
.LBE35:
.LBE34:
	.loc 1 43 0
	addl	$16, %esp
	testl	%eax, %eax
	jne	.L2
.LVL1:
.LBB36:
.LBB37:
.LBB38:
	.loc 1 32 0
	pushl	%eax
	pushl	%eax
	pushl	g_main_ctx
	pushl	g_loop_key
	call	aos_task_setspecific
.LVL2:
.LBE38:
.LBE37:
	.loc 1 45 0
	movl	g_main_ctx, %eax
	addl	$16, %esp
.L2:
.LBE36:
	.loc 1 48 0
	leave
	.cfi_restore 5
	.cfi_def_cfa 4, 4
	ret
	.cfi_endproc
.LFE35:
	.size	get_context, .-get_context
	.section	.text.unlikely.get_context
.LCOLDE0:
	.section	.text.get_context
.LHOTE0:
	.section	.text.unlikely.aos_loop_set_eventfd,"ax",@progbits
.LCOLDB1:
	.section	.text.aos_loop_set_eventfd,"ax",@progbits
.LHOTB1:
	.globl	aos_loop_set_eventfd
	.type	aos_loop_set_eventfd, @function
aos_loop_set_eventfd:
.LFB36:
	.loc 1 51 0
	.cfi_startproc
.LVL3:
	pushl	%ebp
	.cfi_def_cfa_offset 8
	.cfi_offset 5, -8
	movl	%esp, %ebp
	.cfi_def_cfa_register 5
	subl	$8, %esp
	.loc 1 52 0
	call	get_context
.LVL4:
	.loc 1 53 0
	movl	8(%ebp), %edx
	movl	%edx, 16(%eax)
	.loc 1 54 0
	leave
	.cfi_restore 5
	.cfi_def_cfa 4, 4
	ret
	.cfi_endproc
.LFE36:
	.size	aos_loop_set_eventfd, .-aos_loop_set_eventfd
	.section	.text.unlikely.aos_loop_set_eventfd
.LCOLDE1:
	.section	.text.aos_loop_set_eventfd
.LHOTE1:
	.section	.text.unlikely.aos_loop_get_eventfd,"ax",@progbits
.LCOLDB2:
	.section	.text.aos_loop_get_eventfd,"ax",@progbits
.LHOTB2:
	.globl	aos_loop_get_eventfd
	.type	aos_loop_get_eventfd, @function
aos_loop_get_eventfd:
.LFB37:
	.loc 1 57 0
	.cfi_startproc
.LVL5:
	pushl	%ebp
	.cfi_def_cfa_offset 8
	.cfi_offset 5, -8
	movl	%esp, %ebp
	.cfi_def_cfa_register 5
	subl	$8, %esp
	.loc 1 57 0
	movl	8(%ebp), %eax
	.loc 1 58 0
	testl	%eax, %eax
	jne	.L8
	.loc 1 58 0 is_stmt 0 discriminator 1
	call	get_context
.LVL6:
.L8:
	.loc 1 59 0 is_stmt 1 discriminator 4
	movl	16(%eax), %eax
.LVL7:
	.loc 1 60 0 discriminator 4
	leave
	.cfi_restore 5
	.cfi_def_cfa 4, 4
	ret
	.cfi_endproc
.LFE37:
	.size	aos_loop_get_eventfd, .-aos_loop_get_eventfd
	.section	.text.unlikely.aos_loop_get_eventfd
.LCOLDE2:
	.section	.text.aos_loop_get_eventfd
.LHOTE2:
	.section	.text.unlikely.aos_current_loop,"ax",@progbits
.LCOLDB3:
	.section	.text.aos_current_loop,"ax",@progbits
.LHOTB3:
	.globl	aos_current_loop
	.type	aos_current_loop, @function
aos_current_loop:
.LFB38:
	.loc 1 63 0
	.cfi_startproc
	pushl	%ebp
	.cfi_def_cfa_offset 8
	.cfi_offset 5, -8
	movl	%esp, %ebp
	.cfi_def_cfa_register 5
	.loc 1 65 0
	popl	%ebp
	.cfi_restore 5
	.cfi_def_cfa 4, 4
	.loc 1 64 0
	jmp	get_context
.LVL8:
	.cfi_endproc
.LFE38:
	.size	aos_current_loop, .-aos_current_loop
	.section	.text.unlikely.aos_current_loop
.LCOLDE3:
	.section	.text.aos_current_loop
.LHOTE3:
	.section	.rodata.str1.1,"aMS",@progbits,1
.LC4:
	.string	"yloop already inited"
.LC5:
	.string	"[%06d]<E> "
.LC6:
	.string	"\r\n"
	.section	.text.unlikely.aos_loop_init,"ax",@progbits
.LCOLDB7:
	.section	.text.aos_loop_init,"ax",@progbits
.LHOTB7:
	.globl	aos_loop_init
	.type	aos_loop_init, @function
aos_loop_init:
.LFB39:
	.loc 1 68 0
	.cfi_startproc
	pushl	%ebp
	.cfi_def_cfa_offset 8
	.cfi_offset 5, -8
	movl	%esp, %ebp
	.cfi_def_cfa_register 5
	pushl	%ebx
	subl	$16, %esp
	.cfi_offset 3, -12
.LBB47:
.LBB48:
	.loc 1 37 0
	pushl	g_loop_key
	call	aos_task_getspecific
.LVL9:
.LBE48:
.LBE47:
	.loc 1 71 0
	addl	$16, %esp
	cmpl	$0, g_main_ctx
	jne	.L13
	.loc 1 72 0
	subl	$12, %esp
	pushl	$g_loop_key
	call	aos_task_key_create
.LVL10:
	addl	$16, %esp
	jmp	.L14
.L13:
	.loc 1 73 0
	testl	%eax, %eax
	je	.L14
	.loc 1 74 0
	testb	$2, aos_log_level
	movl	%eax, %ebx
	je	.L15
	.loc 1 74 0 is_stmt 0 discriminator 1
	call	aos_now_ms
.LVL11:
	pushl	%edx
	pushl	$.LC4
	pushl	%eax
	pushl	$.LC5
	call	csp_printf
.LVL12:
	movl	$.LC4, (%esp)
	call	csp_printf
.LVL13:
	movl	$.LC6, (%esp)
	call	csp_printf
.LVL14:
	jmp	.L23
.L14:
	.loc 1 78 0 is_stmt 1
	subl	$12, %esp
	pushl	$24
	call	aos_zalloc
.LVL15:
	.loc 1 79 0
	addl	$16, %esp
	cmpl	$0, g_main_ctx
	.loc 1 78 0
	movl	%eax, %ebx
.LVL16:
	.loc 1 79 0
	jne	.L16
	.loc 1 80 0
	movl	%eax, g_main_ctx
.L16:
.LVL17:
.LBB49:
.LBB50:
	.file 2 "./include/aos/list.h"
	.loc 2 77 0
	movl	%ebx, (%ebx)
	movl	%ebx, 4(%ebx)
.LVL18:
.LVL19:
.LBE50:
.LBE49:
	.loc 1 84 0
	movl	$-1, 16(%ebx)
.LVL20:
.LBB51:
.LBB52:
	.loc 1 32 0
	pushl	%eax
	pushl	%eax
	pushl	%ebx
	pushl	g_loop_key
	call	aos_task_setspecific
.LVL21:
.LBE52:
.LBE51:
	.loc 1 87 0
	call	aos_event_service_init
.LVL22:
.L23:
	.loc 1 89 0
	addl	$16, %esp
.L15:
	.loc 1 90 0
	movl	%ebx, %eax
	movl	-4(%ebp), %ebx
	leave
	.cfi_restore 5
	.cfi_restore 3
	.cfi_def_cfa 4, 4
	ret
	.cfi_endproc
.LFE39:
	.size	aos_loop_init, .-aos_loop_init
	.section	.text.unlikely.aos_loop_init
.LCOLDE7:
	.section	.text.aos_loop_init
.LHOTE7:
	.section	.rodata.str1.1
.LC8:
	.string	"out of memory"
	.section	.text.unlikely.aos_poll_read_fd,"ax",@progbits
.LCOLDB9:
	.section	.text.aos_poll_read_fd,"ax",@progbits
.LHOTB9:
	.globl	aos_poll_read_fd
	.type	aos_poll_read_fd, @function
aos_poll_read_fd:
.LFB40:
	.loc 1 93 0
	.cfi_startproc
.LVL23:
	pushl	%ebp
	.cfi_def_cfa_offset 8
	.cfi_offset 5, -8
	movl	%esp, %ebp
	.cfi_def_cfa_register 5
	pushl	%edi
	pushl	%esi
	pushl	%ebx
	subl	$28, %esp
	.cfi_offset 7, -12
	.cfi_offset 6, -16
	.cfi_offset 3, -20
	.loc 1 94 0
	call	get_context
.LVL24:
	.loc 1 95 0
	cmpl	$0, 8(%ebp)
	.loc 1 94 0
	movl	%eax, %ebx
.LVL25:
	.loc 1 96 0
	movl	$-22, %eax
.LVL26:
	.loc 1 95 0
	js	.L25
.LVL27:
	.loc 1 103 0
	movzbl	21(%ebx), %eax
	subl	$12, %esp
	leal	1(%eax), %esi
.LVL28:
	movl	%eax, -36(%ebp)
	imull	$12, %esi, %eax
	.loc 1 104 0
	sall	$3, %esi
.LVL29:
	.loc 1 103 0
	pushl	%eax
.LVL30:
	movl	%eax, -40(%ebp)
	call	aos_malloc
.LVL31:
	.loc 1 104 0
	movl	%esi, (%esp)
	.loc 1 103 0
	movl	%eax, -28(%ebp)
.LVL32:
	.loc 1 104 0
	call	aos_malloc
.LVL33:
	.loc 1 106 0
	addl	$16, %esp
	cmpl	$0, -28(%ebp)
	.loc 1 104 0
	movl	%eax, -32(%ebp)
.LVL34:
	.loc 1 106 0
	je	.L31
	testl	%eax, %eax
	jne	.L26
.L31:
	.loc 1 107 0
	testb	$2, aos_log_level
	je	.L28
	.loc 1 107 0 is_stmt 0 discriminator 1
	call	aos_now_ms
.LVL35:
	pushl	%esi
	pushl	$.LC8
	pushl	%eax
	pushl	$.LC5
	call	csp_printf
.LVL36:
	movl	$.LC8, (%esp)
	call	csp_printf
.LVL37:
	movl	$.LC6, (%esp)
	call	csp_printf
.LVL38:
	addl	$16, %esp
.L28:
	.loc 1 108 0 is_stmt 1
	subl	$12, %esp
	pushl	-28(%ebp)
	call	aos_free
.LVL39:
	.loc 1 109 0
	popl	%ebx
.LVL40:
	pushl	-32(%ebp)
	call	aos_free
.LVL41:
	.loc 1 110 0
	addl	$16, %esp
	movl	$-12, %eax
	jmp	.L25
.LVL42:
.L26:
.LVL43:
	.loc 1 113 0
	pushl	%eax
	pushl	$0
	pushl	$3
	pushl	8(%ebp)
	call	aos_fcntl
.LVL44:
	.loc 1 114 0
	addl	$12, %esp
	orb	$64, %ah
.LVL45:
	pushl	%eax
	pushl	$4
	pushl	8(%ebp)
	call	aos_fcntl
.LVL46:
	.loc 1 118 0
	imull	$12, -36(%ebp), %ecx
	.loc 1 116 0
	incb	21(%ebx)
	.loc 1 118 0
	movl	12(%ebx), %esi
	movl	-28(%ebp), %edi
	rep movsb
	.loc 1 119 0
	popl	%edx
	pushl	12(%ebx)
	call	aos_free
.LVL47:
	.loc 1 120 0
	movl	-28(%ebp), %eax
	.loc 1 122 0
	movl	8(%ebx), %esi
	movl	-32(%ebp), %edi
	.loc 1 120 0
	movl	%eax, 12(%ebx)
	.loc 1 122 0
	movl	-36(%ebp), %eax
	leal	0(,%eax,8), %ecx
	rep movsb
	.loc 1 123 0
	popl	%ecx
	pushl	8(%ebx)
	call	aos_free
.LVL48:
	.loc 1 124 0
	movl	-32(%ebp), %eax
	.loc 1 126 0
	movl	-40(%ebp), %edi
	.loc 1 131 0
	addl	$16, %esp
	.loc 1 128 0
	movl	16(%ebp), %edx
	.loc 1 127 0
	movl	8(%ebp), %ecx
	.loc 1 124 0
	movl	%eax, 8(%ebx)
	.loc 1 126 0
	movl	-28(%ebp), %eax
	leal	-12(%eax,%edi), %eax
.LVL49:
	.loc 1 128 0
	movl	%edx, 4(%eax)
	.loc 1 129 0
	movl	12(%ebp), %edx
	.loc 1 127 0
	movl	%ecx, (%eax)
	.loc 1 129 0
	movl	%edx, 8(%eax)
	.loc 1 131 0
	movzbl	20(%ebx), %edx
	.loc 1 135 0
	xorl	%eax, %eax
.LVL50:
	.loc 1 131 0
	cmpl	%edx, %ecx
	jle	.L25
	.loc 1 132 0
	movb	8(%ebp), %dl
	movb	%dl, 20(%ebx)
.LVL51:
.L25:
	.loc 1 136 0
	leal	-12(%ebp), %esp
	popl	%ebx
	.cfi_restore 3
	popl	%esi
	.cfi_restore 6
	popl	%edi
	.cfi_restore 7
	popl	%ebp
	.cfi_restore 5
	.cfi_def_cfa 4, 4
	ret
	.cfi_endproc
.LFE40:
	.size	aos_poll_read_fd, .-aos_poll_read_fd
	.section	.text.unlikely.aos_poll_read_fd
.LCOLDE9:
	.section	.text.aos_poll_read_fd
.LHOTE9:
	.section	.text.unlikely.aos_cancel_poll_read_fd,"ax",@progbits
.LCOLDB10:
	.section	.text.aos_cancel_poll_read_fd,"ax",@progbits
.LHOTB10:
	.globl	aos_cancel_poll_read_fd
	.type	aos_cancel_poll_read_fd, @function
aos_cancel_poll_read_fd:
.LFB41:
	.loc 1 139 0
	.cfi_startproc
.LVL52:
	pushl	%ebp
	.cfi_def_cfa_offset 8
	.cfi_offset 5, -8
	movl	%esp, %ebp
	.cfi_def_cfa_register 5
	pushl	%edi
	pushl	%esi
	pushl	%ebx
	subl	$12, %esp
	.cfi_offset 7, -12
	.cfi_offset 6, -16
	.cfi_offset 3, -20
	.loc 1 140 0
	call	get_context
.LVL53:
	.loc 1 141 0
	movl	12(%eax), %edx
	testl	%edx, %edx
	je	.L36
	movl	%eax, %ebx
	.loc 1 141 0 discriminator 1
	movzbl	21(%eax), %eax
.LVL54:
	xorl	%ecx, %ecx
	testb	%al, %al
	je	.L36
.L38:
.LVL55:
	.loc 1 146 0 discriminator 1
	cmpl	%eax, %ecx
	jge	.L42
	.loc 1 147 0
	imull	$12, %ecx, %esi
	movl	8(%ebp), %edi
	cmpl	%edi, (%edx,%esi)
	jne	.L39
.L42:
	.loc 1 152 0
	cmpl	%eax, %ecx
	jne	.L50
	jmp	.L36
.L39:
	.loc 1 146 0 discriminator 2
	incl	%ecx
.LVL56:
	jmp	.L38
.L50:
	.loc 1 156 0
	leal	-1(%eax), %esi
	cmpl	%esi, %ecx
	je	.L43
	.loc 1 157 0
	leal	1(%ecx), %esi
	subl	%ecx, %eax
	pushl	%edi
	decl	%eax
	imull	$12, %esi, %esi
	imull	$12, %eax, %eax
	pushl	%eax
	leal	(%edx,%esi), %eax
	pushl	%eax
	leal	-12(%edx,%esi), %eax
	pushl	%eax
	call	memmove
.LVL57:
	addl	$16, %esp
.L43:
	.loc 1 162 0
	decb	21(%ebx)
.LVL58:
.L36:
	.loc 1 163 0
	leal	-12(%ebp), %esp
	popl	%ebx
	.cfi_restore 3
	popl	%esi
	.cfi_restore 6
	popl	%edi
	.cfi_restore 7
	popl	%ebp
	.cfi_restore 5
	.cfi_def_cfa 4, 4
	ret
	.cfi_endproc
.LFE41:
	.size	aos_cancel_poll_read_fd, .-aos_cancel_poll_read_fd
	.section	.text.unlikely.aos_cancel_poll_read_fd
.LCOLDE10:
	.section	.text.aos_cancel_poll_read_fd
.LHOTE10:
	.section	.text.unlikely.aos_post_delayed_action,"ax",@progbits
.LCOLDB11:
	.section	.text.aos_post_delayed_action,"ax",@progbits
.LHOTB11:
	.globl	aos_post_delayed_action
	.type	aos_post_delayed_action, @function
aos_post_delayed_action:
.LFB42:
	.loc 1 166 0
	.cfi_startproc
.LVL59:
	pushl	%ebp
	.cfi_def_cfa_offset 8
	.cfi_offset 5, -8
	.loc 1 168 0
	movl	$-22, %eax
	.loc 1 166 0
	movl	%esp, %ebp
	.cfi_def_cfa_register 5
	pushl	%edi
	pushl	%esi
	pushl	%ebx
	subl	$12, %esp
	.cfi_offset 7, -12
	.cfi_offset 6, -16
	.cfi_offset 3, -20
	.loc 1 167 0
	cmpl	$0, 12(%ebp)
	je	.L53
	.loc 1 171 0
	call	get_context
.LVL60:
	.loc 1 172 0
	subl	$12, %esp
	.loc 1 171 0
	movl	%eax, %edi
.LVL61:
	.loc 1 172 0
	pushl	$28
	call	aos_malloc
.LVL62:
	movl	%eax, %esi
.LVL63:
	.loc 1 173 0
	addl	$16, %esp
	.loc 1 174 0
	movl	$-12, %eax
.LVL64:
	.loc 1 173 0
	testl	%esi, %esi
	je	.L53
	.loc 1 177 0
	call	aos_now_ms
.LVL65:
	movl	8(%ebp), %ecx
	movl	%ecx, %ebx
	sarl	$31, %ebx
	addl	%ecx, %eax
	.loc 1 178 0
	movl	16(%ebp), %ecx
	.loc 1 177 0
	adcl	%ebx, %edx
	.loc 1 179 0
	movl	12(%ebp), %ebx
	.loc 1 177 0
	movl	%eax, 8(%esi)
	movl	%edx, 12(%esi)
	.loc 1 178 0
	movl	%ecx, 16(%esi)
	.loc 1 184 0
	movl	4(%edi), %ecx
.LVL66:
	.loc 1 179 0
	movl	%ebx, 20(%esi)
	.loc 1 180 0
	movl	8(%ebp), %ebx
	movl	%ebx, 24(%esi)
.L54:
	.loc 1 184 0 discriminator 1
	cmpl	%edi, %ecx
	je	.L58
	.loc 1 185 0
	cmpl	12(%ecx), %edx
	jg	.L55
	jl	.L61
	cmpl	8(%ecx), %eax
	jnb	.L55
.L61:
	movl	%ecx, %edi
.LVL67:
.L58:
.LBB53:
.LBB54:
	.loc 2 63 0
	movl	(%edi), %eax
.LVL68:
.LBB55:
.LBB56:
	.loc 2 38 0
	movl	%edi, 4(%esi)
	.loc 2 39 0
	movl	%eax, (%esi)
	.loc 2 41 0
	movl	%esi, 4(%eax)
.LBE56:
.LBE55:
.LBE54:
.LBE53:
	.loc 1 192 0
	xorl	%eax, %eax
.LVL69:
.LBB60:
.LBB59:
.LBB58:
.LBB57:
	.loc 2 42 0
	movl	%esi, (%edi)
.LVL70:
.LBE57:
.LBE58:
.LBE59:
.LBE60:
	.loc 1 192 0
	jmp	.L53
.LVL71:
.L55:
	.loc 1 184 0 discriminator 2
	movl	4(%ecx), %ecx
.LVL72:
	jmp	.L54
.LVL73:
.L53:
	.loc 1 193 0
	leal	-12(%ebp), %esp
	popl	%ebx
	.cfi_restore 3
	popl	%esi
	.cfi_restore 6
	popl	%edi
	.cfi_restore 7
	popl	%ebp
	.cfi_restore 5
	.cfi_def_cfa 4, 4
	ret
	.cfi_endproc
.LFE42:
	.size	aos_post_delayed_action, .-aos_post_delayed_action
	.section	.text.unlikely.aos_post_delayed_action
.LCOLDE11:
	.section	.text.aos_post_delayed_action
.LHOTE11:
	.section	.text.unlikely.aos_cancel_delayed_action,"ax",@progbits
.LCOLDB12:
	.section	.text.aos_cancel_delayed_action,"ax",@progbits
.LHOTB12:
	.globl	aos_cancel_delayed_action
	.type	aos_cancel_delayed_action, @function
aos_cancel_delayed_action:
.LFB43:
	.loc 1 196 0
	.cfi_startproc
.LVL74:
	pushl	%ebp
	.cfi_def_cfa_offset 8
	.cfi_offset 5, -8
	movl	%esp, %ebp
	.cfi_def_cfa_register 5
	pushl	%edi
	pushl	%esi
	pushl	%ebx
	subl	$12, %esp
	.cfi_offset 7, -12
	.cfi_offset 6, -16
	.cfi_offset 3, -20
	.loc 1 196 0
	movl	8(%ebp), %ebx
	movl	12(%ebp), %esi
	movl	16(%ebp), %edi
	.loc 1 197 0
	call	get_context
.LVL75:
	.loc 1 200 0
	movl	4(%eax), %edx
.LVL76:
.L64:
	.loc 1 200 0 is_stmt 0 discriminator 1
	cmpl	%eax, %edx
	je	.L72
	.loc 1 201 0 is_stmt 1
	cmpl	$-1, %ebx
	je	.L65
	.loc 1 201 0 is_stmt 0 discriminator 1
	cmpl	24(%edx), %ebx
	jne	.L66
.L65:
	.loc 1 205 0 is_stmt 1
	cmpl	%esi, 20(%edx)
	jne	.L66
	.loc 1 209 0
	cmpl	%edi, 16(%edx)
	jne	.L66
.LVL77:
.LBB63:
.LBB64:
	.loc 2 68 0
	movl	(%edx), %ecx
.LVL78:
	.loc 2 69 0
	movl	4(%edx), %eax
.LVL79:
	.loc 2 71 0
	movl	%eax, 4(%ecx)
	.loc 2 72 0
	movl	%ecx, (%eax)
.LVL80:
.LBE64:
.LBE63:
	.loc 1 214 0
	movl	%edx, 8(%ebp)
	.loc 1 217 0
	addl	$12, %esp
	popl	%ebx
	.cfi_remember_state
	.cfi_restore 3
	popl	%esi
	.cfi_restore 6
	popl	%edi
	.cfi_restore 7
	popl	%ebp
	.cfi_restore 5
	.cfi_def_cfa 4, 4
	.loc 1 214 0
	jmp	aos_free
.LVL81:
.L66:
	.cfi_restore_state
	.loc 1 200 0 discriminator 2
	movl	4(%edx), %edx
.LVL82:
	jmp	.L64
.L72:
	.loc 1 217 0
	addl	$12, %esp
	popl	%ebx
	.cfi_restore 3
	popl	%esi
	.cfi_restore 6
	popl	%edi
	.cfi_restore 7
	popl	%ebp
	.cfi_restore 5
	.cfi_def_cfa 4, 4
	ret
	.cfi_endproc
.LFE43:
	.size	aos_cancel_delayed_action, .-aos_cancel_delayed_action
	.section	.text.unlikely.aos_cancel_delayed_action
.LCOLDE12:
	.section	.text.aos_cancel_delayed_action
.LHOTE12:
	.section	.rodata.str1.1
.LC13:
	.string	"aos_poll"
	.section	.text.unlikely.aos_loop_run,"ax",@progbits
.LCOLDB14:
	.section	.text.aos_loop_run,"ax",@progbits
.LHOTB14:
	.globl	aos_loop_run
	.type	aos_loop_run, @function
aos_loop_run:
.LFB44:
	.loc 1 220 0
	.cfi_startproc
	pushl	%ebp
	.cfi_def_cfa_offset 8
	.cfi_offset 5, -8
	movl	%esp, %ebp
	.cfi_def_cfa_register 5
	pushl	%edi
	pushl	%esi
	pushl	%ebx
	subl	$28, %esp
	.cfi_offset 7, -12
	.cfi_offset 6, -16
	.cfi_offset 3, -20
	.loc 1 221 0
	call	get_context
.LVL83:
	movl	%eax, %ebx
.LVL84:
.L85:
	.loc 1 223 0
	cmpb	$0, 23(%ebx)
	jne	.L89
.LVL85:
.LBB76:
.LBB77:
	.loc 2 88 0 discriminator 1
	movl	4(%ebx), %edi
.LVL86:
.LBE77:
.LBE76:
	.loc 1 223 0 discriminator 1
	cmpl	%edi, %ebx
	je	.L103
.L90:
.LVL87:
.LBB78:
	.loc 1 226 0
	movzbl	21(%ebx), %eax
	movl	%eax, -28(%ebp)
.LVL88:
	.loc 1 225 0
	orl	$-1, %eax
.LVL89:
	.loc 1 229 0
	cmpl	%edi, %ebx
	je	.L75
.LVL90:
.LBB79:
	.loc 1 231 0
	call	aos_now_ms
.LVL91:
	.loc 1 233 0
	cmpl	12(%edi), %edx
	movl	8(%edi), %ecx
	jg	.L92
	jl	.L93
	cmpl	%ecx, %eax
	jnb	.L92
.L93:
	.loc 1 234 0
	subl	%eax, %ecx
	movl	%ecx, %eax
.LVL92:
	jmp	.L75
.LVL93:
.L92:
	.loc 1 236 0
	xorl	%eax, %eax
.LVL94:
.L75:
.LBE79:
	.loc 1 240 0
	xorl	%edx, %edx
.LVL95:
.L77:
	.loc 1 240 0 is_stmt 0 discriminator 1
	cmpl	-28(%ebp), %edx
	jge	.L104
	.loc 1 241 0 is_stmt 1 discriminator 3
	movl	8(%ebx), %ecx
	leal	(%ecx,%edx,8), %edi
	imull	$12, %edx, %ecx
	addl	12(%ebx), %ecx
	.loc 1 240 0 discriminator 3
	incl	%edx
.LVL96:
	.loc 1 241 0 discriminator 3
	movl	(%ecx), %ecx
	.loc 1 242 0 discriminator 3
	movw	$1, 4(%edi)
	.loc 1 241 0 discriminator 3
	movl	%ecx, (%edi)
	jmp	.L77
.L104:
	.loc 1 245 0
	pushl	%esi
	pushl	%eax
	pushl	-28(%ebp)
	pushl	8(%ebx)
	call	aos_poll
.LVL97:
	.loc 1 247 0
	addl	$16, %esp
	testl	%eax, %eax
	.loc 1 245 0
	movl	%eax, %edi
.LVL98:
	.loc 1 247 0
	jns	.L79
	.loc 1 247 0 discriminator 1
	call	__errno
.LVL99:
	.loc 1 247 0 discriminator 1
	cmpl	$4, (%eax)
	je	.L79
	.loc 1 248 0
	testb	$2, aos_log_level
	je	.L73
	.loc 1 248 0 is_stmt 0 discriminator 1
	call	aos_now_ms
.LVL100:
	pushl	%ecx
	pushl	$.LC13
	pushl	%eax
	pushl	$.LC5
	call	csp_printf
.LVL101:
	movl	$.LC13, (%esp)
	call	csp_printf
.LVL102:
	movl	$.LC6, (%esp)
	call	csp_printf
.LVL103:
	addl	$16, %esp
	jmp	.L73
.L79:
.LVL104:
.LBB80:
.LBB81:
	.loc 2 88 0 is_stmt 1
	movl	4(%ebx), %esi
.LVL105:
.LBE81:
.LBE80:
	.loc 1 253 0
	cmpl	%esi, %ebx
	je	.L82
.LVL106:
.LBB82:
	.loc 1 255 0
	call	aos_now_ms
.LVL107:
	.loc 1 257 0
	cmpl	12(%esi), %edx
	jl	.L82
	jg	.L94
	cmpl	8(%esi), %eax
	jb	.L82
.L94:
.LVL108:
.LBB83:
.LBB84:
	.loc 2 68 0
	movl	(%esi), %edx
.LVL109:
	.loc 2 69 0
	movl	4(%esi), %eax
.LVL110:
.LBE84:
.LBE83:
	.loc 1 259 0
	subl	$12, %esp
.LBB86:
.LBB85:
	.loc 2 71 0
	movl	%eax, 4(%edx)
	.loc 2 72 0
	movl	%edx, (%eax)
.LVL111:
.LBE85:
.LBE86:
	.loc 1 259 0
	pushl	16(%esi)
	call	*20(%esi)
.LVL112:
	.loc 1 260 0
	movl	%esi, (%esp)
	call	aos_free
.LVL113:
	addl	$16, %esp
.LVL114:
.L82:
.LBE82:
	.loc 1 264 0
	testl	%edi, %edi
	jle	.L85
	xorl	%edi, %edi
.LVL115:
.L86:
	.loc 1 268 0 discriminator 1
	cmpl	-28(%ebp), %edi
	je	.L85
	.loc 1 269 0
	movl	8(%ebx), %eax
	testb	$1, 6(%eax,%edi,8)
	je	.L87
	.loc 1 270 0
	imull	$12, %edi, %eax
	addl	12(%ebx), %eax
	pushl	%edx
	pushl	%edx
	pushl	4(%eax)
	pushl	(%eax)
	call	*8(%eax)
.LVL116:
	addl	$16, %esp
.L87:
	.loc 1 268 0 discriminator 2
	incl	%edi
.LVL117:
	jmp	.L86
.LVL118:
.L103:
.LBE78:
	.loc 1 224 0
	cmpb	$0, 21(%ebx)
	jne	.L90
.L89:
	.loc 1 277 0
	movb	$0, 23(%ebx)
.L73:
	.loc 1 278 0
	leal	-12(%ebp), %esp
	popl	%ebx
	.cfi_restore 3
.LVL119:
	popl	%esi
	.cfi_restore 6
	popl	%edi
	.cfi_restore 7
	popl	%ebp
	.cfi_restore 5
	.cfi_def_cfa 4, 4
	ret
	.cfi_endproc
.LFE44:
	.size	aos_loop_run, .-aos_loop_run
	.section	.text.unlikely.aos_loop_run
.LCOLDE14:
	.section	.text.aos_loop_run
.LHOTE14:
	.section	.text.unlikely.aos_loop_exit,"ax",@progbits
.LCOLDB15:
	.section	.text.aos_loop_exit,"ax",@progbits
.LHOTB15:
	.globl	aos_loop_exit
	.type	aos_loop_exit, @function
aos_loop_exit:
.LFB45:
	.loc 1 281 0
	.cfi_startproc
	pushl	%ebp
	.cfi_def_cfa_offset 8
	.cfi_offset 5, -8
	movl	%esp, %ebp
	.cfi_def_cfa_register 5
	subl	$8, %esp
	.loc 1 282 0
	call	get_context
.LVL120:
	.loc 1 283 0
	movb	$1, 23(%eax)
	.loc 1 284 0
	leave
	.cfi_restore 5
	.cfi_def_cfa 4, 4
	ret
	.cfi_endproc
.LFE45:
	.size	aos_loop_exit, .-aos_loop_exit
	.section	.text.unlikely.aos_loop_exit
.LCOLDE15:
	.section	.text.aos_loop_exit
.LHOTE15:
	.section	.text.unlikely.aos_loop_destroy,"ax",@progbits
.LCOLDB16:
	.section	.text.aos_loop_destroy,"ax",@progbits
.LHOTB16:
	.globl	aos_loop_destroy
	.type	aos_loop_destroy, @function
aos_loop_destroy:
.LFB46:
	.loc 1 287 0
	.cfi_startproc
	pushl	%ebp
	.cfi_def_cfa_offset 8
	.cfi_offset 5, -8
	movl	%esp, %ebp
	.cfi_def_cfa_register 5
	pushl	%ebx
	subl	$16, %esp
	.cfi_offset 3, -12
.LBB96:
.LBB97:
	.loc 1 37 0
	pushl	g_loop_key
	call	aos_task_getspecific
.LVL121:
.LBE97:
.LBE96:
	.loc 1 290 0
	addl	$16, %esp
	testl	%eax, %eax
	je	.L107
	.loc 1 294 0
	subl	$12, %esp
	pushl	16(%eax)
	movl	%eax, %ebx
	call	aos_event_service_deinit
.LVL122:
.L116:
.LBB98:
.LBB99:
	.loc 2 88 0
	movl	4(%ebx), %eax
.LBE99:
.LBE98:
.LBB100:
	.loc 1 300 0
	addl	$16, %esp
.LVL123:
.LBE100:
	.loc 1 296 0
	cmpl	%eax, %ebx
	je	.L117
.LVL124:
.LBB105:
.LBB101:
.LBB102:
	.loc 2 68 0
	movl	(%eax), %ecx
.LVL125:
	.loc 2 69 0
	movl	4(%eax), %edx
.LVL126:
.LBE102:
.LBE101:
	.loc 1 300 0
	subl	$12, %esp
.LBB104:
.LBB103:
	.loc 2 71 0
	movl	%edx, 4(%ecx)
	.loc 2 72 0
	movl	%ecx, (%edx)
.LVL127:
.LBE103:
.LBE104:
	.loc 1 300 0
	pushl	%eax
	call	aos_free
.LVL128:
	jmp	.L116
.L117:
.LBE105:
	.loc 1 303 0
	subl	$12, %esp
	pushl	12(%ebx)
	call	aos_free
.LVL129:
	.loc 1 304 0
	popl	%eax
	pushl	8(%ebx)
	call	aos_free
.LVL130:
.LBB106:
.LBB107:
	.loc 1 32 0
	popl	%edx
	popl	%ecx
	pushl	$0
	pushl	g_loop_key
	call	aos_task_setspecific
.LVL131:
.LBE107:
.LBE106:
	.loc 1 307 0
	addl	$16, %esp
	cmpl	%ebx, g_main_ctx
	jne	.L111
	.loc 1 308 0
	movl	$0, g_main_ctx
.L111:
	.loc 1 310 0
	subl	$12, %esp
	pushl	%ebx
	call	aos_free
.LVL132:
	addl	$16, %esp
.L107:
	.loc 1 311 0
	movl	-4(%ebp), %ebx
	leave
	.cfi_restore 5
	.cfi_restore 3
	.cfi_def_cfa 4, 4
	ret
	.cfi_endproc
.LFE46:
	.size	aos_loop_destroy, .-aos_loop_destroy
	.section	.text.unlikely.aos_loop_destroy
.LCOLDE16:
	.section	.text.aos_loop_destroy
.LHOTE16:
	.section	.bss.g_loop_key,"aw",@nobits
	.align 4
	.type	g_loop_key, @object
	.size	g_loop_key, 4
g_loop_key:
	.zero	4
	.globl	g_main_ctx
	.section	.bss.g_main_ctx,"aw",@nobits
	.align 4
	.type	g_main_ctx, @object
	.size	g_main_ctx, 4
g_main_ctx:
	.zero	4
	.text
.Letext0:
	.section	.text.unlikely.get_context
.Letext_cold0:
	.file 3 "/home/stone/Documents/Ali_IOT/build/compiler/gcc-arm-none-eabi/Linux64/arm-none-eabi/include/machine/_default_types.h"
	.file 4 "/home/stone/Documents/Ali_IOT/build/compiler/gcc-arm-none-eabi/Linux64/lib/gcc/arm-none-eabi/5.4.1/include/stddef.h"
	.file 5 "/home/stone/Documents/Ali_IOT/build/compiler/gcc-arm-none-eabi/Linux64/arm-none-eabi/include/sys/_stdint.h"
	.file 6 "./include/aos/types.h"
	.file 7 "./include/aos/kernel.h"
	.file 8 "./include/aos/yloop.h"
	.file 9 "kernel/yloop/yloop.h"
	.file 10 "./include/aos/internal/log_impl.h"
	.file 11 "./include/aos/log.h"
	.file 12 "./include/aos/vfs.h"
	.file 13 "/home/stone/Documents/Ali_IOT/build/compiler/gcc-arm-none-eabi/Linux64/arm-none-eabi/include/string.h"
	.file 14 "/home/stone/Documents/Ali_IOT/build/compiler/gcc-arm-none-eabi/Linux64/arm-none-eabi/include/sys/errno.h"
	.section	.note.GNU-stack,"",@progbits
